	.text
	.file	"C:/Users/takaaki/git/sw_xSSDAC/module_operation_console/src/console.xc"
                                        # Start of file scope inline assembly
	.inline_definition delay_seconds
	.inline_definition delay_milliseconds
	.inline_definition delay_microseconds
	.weak _i.qspi_access.write.maxchanends.group
	.max_reduce _i.qspi_access.write.max.maxchanends, _i.qspi_access.write.maxchanends.group, 0
	.weak _i.qspi_access.write.maxcores.group
	.max_reduce _i.qspi_access.write.max.maxcores, _i.qspi_access.write.maxcores.group, 0
	.weak _i.qspi_access.write.maxtimers.group
	.max_reduce _i.qspi_access.write.max.maxtimers, _i.qspi_access.write.maxtimers.group, 0
	.weak _i.qspi_access.write.nstackwords.group
	.globl _i.qspi_access.write.nstackwords.group
	.weak _i.qspi_access.write.fns.group
	.globl _i.qspi_access.write.fns.group
	.max_reduce _i.qspi_access.write.max.nstackwords, _i.qspi_access.write.nstackwords.group, 0
	.max_reduce _i.qspi_access.write.fns, _i.qspi_access.write.fns.group, 0
	.weak _i.qspi_access.read.maxchanends.group
	.max_reduce _i.qspi_access.read.max.maxchanends, _i.qspi_access.read.maxchanends.group, 0
	.weak _i.qspi_access.read.maxcores.group
	.max_reduce _i.qspi_access.read.max.maxcores, _i.qspi_access.read.maxcores.group, 0
	.weak _i.qspi_access.read.maxtimers.group
	.max_reduce _i.qspi_access.read.max.maxtimers, _i.qspi_access.read.maxtimers.group, 0
	.weak _i.qspi_access.read.nstackwords.group
	.globl _i.qspi_access.read.nstackwords.group
	.weak _i.qspi_access.read.fns.group
	.globl _i.qspi_access.read.fns.group
	.max_reduce _i.qspi_access.read.max.nstackwords, _i.qspi_access.read.nstackwords.group, 0
	.max_reduce _i.qspi_access.read.fns, _i.qspi_access.read.fns.group, 0
	.weak _i.qspi_access.__interface_init.maxchanends.group
	.max_reduce _i.qspi_access.__interface_init.max.maxchanends, _i.qspi_access.__interface_init.maxchanends.group, 0
	.weak _i.qspi_access.__interface_init.maxcores.group
	.max_reduce _i.qspi_access.__interface_init.max.maxcores, _i.qspi_access.__interface_init.maxcores.group, 0
	.weak _i.qspi_access.__interface_init.maxtimers.group
	.max_reduce _i.qspi_access.__interface_init.max.maxtimers, _i.qspi_access.__interface_init.maxtimers.group, 0
	.weak _i.qspi_access.__interface_init.nstackwords.group
	.globl _i.qspi_access.__interface_init.nstackwords.group
	.weak _i.qspi_access.__interface_init.fns.group
	.globl _i.qspi_access.__interface_init.fns.group
	.max_reduce _i.qspi_access.__interface_init.max.nstackwords, _i.qspi_access.__interface_init.nstackwords.group, 0
	.max_reduce _i.qspi_access.__interface_init.fns, _i.qspi_access.__interface_init.fns.group, 0
	.weak _i.qspi_access._client_call_y.maxchanends.group
	.add_to_set _i.qspi_access._client_call_y.maxchanends.group, (__interface_client_call_y_other.maxchanends + __interface_client_call_y_extra.maxchanends), __interface_client_call_y_other
	.max_reduce _i.qspi_access._client_call_y.max.maxchanends, _i.qspi_access._client_call_y.maxchanends.group, 0
	.weak _i.qspi_access._client_call_y.maxcores.group
	.add_to_set _i.qspi_access._client_call_y.maxcores.group, (__interface_client_call_y_other.maxcores + __interface_client_call_y_extra.maxcores), __interface_client_call_y_other
	.max_reduce _i.qspi_access._client_call_y.max.maxcores, _i.qspi_access._client_call_y.maxcores.group, 0
	.weak _i.qspi_access._client_call_y.maxtimers.group
	.add_to_set _i.qspi_access._client_call_y.maxtimers.group, (__interface_client_call_y_other.maxtimers + __interface_client_call_y_extra.maxtimers), __interface_client_call_y_other
	.max_reduce _i.qspi_access._client_call_y.max.maxtimers, _i.qspi_access._client_call_y.maxtimers.group, 0
	.weak _i.qspi_access._client_call_y.nstackwords.group
	.globl _i.qspi_access._client_call_y.nstackwords.group
	.weak _i.qspi_access._client_call_y.fns.group
	.globl _i.qspi_access._client_call_y.fns.group
	.add_to_set _i.qspi_access._client_call_y.nstackwords.group, (__interface_client_call_y_other.nstackwords + __interface_client_call_y_extra.nstackwords), __interface_client_call_y_other
	.add_to_set _i.qspi_access._client_call_y.fns.group, __interface_client_call_y_other, __interface_client_call_y_other
	.max_reduce _i.qspi_access._client_call_y.max.nstackwords, _i.qspi_access._client_call_y.nstackwords.group, 0
	.max_reduce _i.qspi_access._client_call_y.fns, _i.qspi_access._client_call_y.fns.group, 0
	.set usage.anon.0,0
	.set usage.anon.1,0
	.set usage.anon.2,0
	.globread console_core,console_mode,"C:/Users/takaaki/git/sw_xSSDAC/module_operation_console/src/console.xc:29:31: note: object used here\n    unsafe {p_console_mode = &console_mode;}\n                              ^~~~~~~~~~~~"
	.globwrite console_core,scan_time,"C:/Users/takaaki/git/sw_xSSDAC/module_operation_console/src/console.xc:38:10: note: object used here\n    t :> scan_time;\n         ^~~~~~~~~"
	.globwrite console_core,key_buff,8,4,"C:/Users/takaaki/git/sw_xSSDAC/module_operation_console/src/console.xc:34:5: note: object used here (bytes 8..12)\n    key_buff[2] = key_buff[1];\n    ^~~~~~~~~~~"
	.globwrite console_core,key_buff,4,4,"C:/Users/takaaki/git/sw_xSSDAC/module_operation_console/src/console.xc:33:5: note: object used here (bytes 4..8)\n    key_buff[1] = key_buff[0];\n    ^~~~~~~~~~~"
	.globwrite console_core,key_buff,0,4,"C:/Users/takaaki/git/sw_xSSDAC/module_operation_console/src/console.xc:32:14: note: object used here (bytes 0..4)\n    p_key :> key_buff[0];\n             ^~~~~~~~~~~"
	.globwrite console_core,p_key,"C:/Users/takaaki/git/sw_xSSDAC/module_operation_console/src/console.xc:32:5: note: object used here\n    p_key :> key_buff[0];\n    ^~~~~"
	.call console_core,set_display_control_flag
	.call console_core,set_console_mode
	.call console_core,init_display_frame
	.call console_core,handle_display_frame
	.call console_core,SendBackTrackControl
	.call console_core,KeyScan
	.call console_core,HandlePlayCommand
	.call console_core,HandleDacCommand
	.call usage.anon.2,delay_ticks_longlong
	.call usage.anon.1,delay_ticks_longlong
	.call usage.anon.0,delay_ticks_longlong
	.set console_core.locnoside, 0
	.set console_core.locnoglobalaccess, 0

                                        # End of file scope inline assembly
	.text
	.weak	_i.qspi_access._chan.read
	.align	4
	.type	_i.qspi_access._chan.read,@function
	.cc_top _i.qspi_access._chan.read.function,_i.qspi_access._chan.read
_i.qspi_access._chan.read:              # @_i.qspi_access._chan.read
	.cfi_startproc
	.issue_mode dual
# BB#0:                                 # %allocas
	{
		nop
		dualentsp 4
	}
.Ltmp0:
	.cfi_def_cfa_offset 16
.Ltmp1:
	.cfi_offset 15, 0
	{
		nop
		stw r4, sp[2]
	}
.Ltmp2:
	.cfi_offset 4, -8
	#DEBUG_VALUE: _i.qspi_access._chan.read:dest <- R0
	#DEBUG_VALUE: _i.qspi_access._chan.read:param1 <- R1
	#DEBUG_VALUE: _i.qspi_access._chan.read:param2 <- R2
	#DEBUG_VALUE: _i.qspi_access._chan.read:param3 <- R3
	{
		getr r4, 2
		ldw r11, sp[5]
	}
	{
		setd res[r4], r0
		add r0, r4, 1
	}
	{
		out res[r4], r0
		nop
	}
	{
		outct res[r4], 2
		nop
	}
	{
		chkct res[r4], 1
		nop
	}
	{
		out res[r4], r1
		nop
	}
	{
		out res[r4], r2
		nop
	}
	{
		out res[r4], r11
		stw r3, sp[1]
	}
	{
		outct res[r4], 2
		ldaw r1, sp[1]
	}
	{
		mov r0, r4
		nop
	}
	bl __interface_client_call
	{
		chkct res[r4], 1
		nop
	}
	{
		freer res[r4]
		ldw r4, sp[2]
	}
	{
		nop
		retsp 4
	}
	# RETURN_REG_HOLDER
	.cc_bottom _i.qspi_access._chan.read.function
	.set	_i.qspi_access._chan.read.nstackwords,(__interface_client_call.nstackwords + 4)
	.globl	_i.qspi_access._chan.read.nstackwords
	.weak	_i.qspi_access._chan.read.nstackwords
	.set	_i.qspi_access._chan.read.maxcores,__interface_client_call.maxcores $M 1
	.globl	_i.qspi_access._chan.read.maxcores
	.weak	_i.qspi_access._chan.read.maxcores
	.set	_i.qspi_access._chan.read.maxtimers,__interface_client_call.maxtimers $M 0
	.globl	_i.qspi_access._chan.read.maxtimers
	.weak	_i.qspi_access._chan.read.maxtimers
	.set	_i.qspi_access._chan.read.maxchanends,(1 + __interface_client_call.maxchanends) $M 1
	.globl	_i.qspi_access._chan.read.maxchanends
	.weak	_i.qspi_access._chan.read.maxchanends
.Ltmp3:
	.size	_i.qspi_access._chan.read, .Ltmp3-_i.qspi_access._chan.read
	.cfi_endproc

	.weak	_i.qspi_access._chan.write
	.align	4
	.type	_i.qspi_access._chan.write,@function
	.cc_top _i.qspi_access._chan.write.function,_i.qspi_access._chan.write
_i.qspi_access._chan.write:             # @_i.qspi_access._chan.write
	.cfi_startproc
	.issue_mode dual
# BB#0:                                 # %allocas
	{
		nop
		dualentsp 4
	}
.Ltmp4:
	.cfi_def_cfa_offset 16
.Ltmp5:
	.cfi_offset 15, 0
	{
		nop
		stw r4, sp[2]
	}
.Ltmp6:
	.cfi_offset 4, -8
	#DEBUG_VALUE: _i.qspi_access._chan.write:dest <- R0
	#DEBUG_VALUE: _i.qspi_access._chan.write:param1 <- R1
	#DEBUG_VALUE: _i.qspi_access._chan.write:param2 <- R2
	#DEBUG_VALUE: _i.qspi_access._chan.write:param3 <- R3
	{
		getr r4, 2
		ldw r11, sp[5]
	}
	{
		setd res[r4], r0
		nop
	}
	{
		out res[r4], r4
		nop
	}
	{
		outct res[r4], 2
		nop
	}
	{
		chkct res[r4], 1
		nop
	}
	{
		out res[r4], r1
		nop
	}
	{
		out res[r4], r2
		nop
	}
	{
		out res[r4], r11
		stw r3, sp[1]
	}
	{
		outct res[r4], 2
		ldaw r1, sp[1]
	}
	{
		mov r0, r4
		nop
	}
	bl __interface_client_call
	{
		chkct res[r4], 1
		nop
	}
	{
		freer res[r4]
		ldw r4, sp[2]
	}
	{
		nop
		retsp 4
	}
	# RETURN_REG_HOLDER
	.cc_bottom _i.qspi_access._chan.write.function
	.set	_i.qspi_access._chan.write.nstackwords,(__interface_client_call.nstackwords + 4)
	.globl	_i.qspi_access._chan.write.nstackwords
	.weak	_i.qspi_access._chan.write.nstackwords
	.set	_i.qspi_access._chan.write.maxcores,__interface_client_call.maxcores $M 1
	.globl	_i.qspi_access._chan.write.maxcores
	.weak	_i.qspi_access._chan.write.maxcores
	.set	_i.qspi_access._chan.write.maxtimers,__interface_client_call.maxtimers $M 0
	.globl	_i.qspi_access._chan.write.maxtimers
	.weak	_i.qspi_access._chan.write.maxtimers
	.set	_i.qspi_access._chan.write.maxchanends,(1 + __interface_client_call.maxchanends) $M 1
	.globl	_i.qspi_access._chan.write.maxchanends
	.weak	_i.qspi_access._chan.write.maxchanends
.Ltmp7:
	.size	_i.qspi_access._chan.write, .Ltmp7-_i.qspi_access._chan.write
	.cfi_endproc

	.weak	_i.qspi_access._chan_yield.read
	.align	4
	.type	_i.qspi_access._chan_yield.read,@function
	.cc_top _i.qspi_access._chan_yield.read.function,_i.qspi_access._chan_yield.read
_i.qspi_access._chan_yield.read:        # @_i.qspi_access._chan_yield.read
	.cfi_startproc
	.issue_mode dual
# BB#0:                                 # %allocas
	{
		nop
		dualentsp 4
	}
.Ltmp8:
	.cfi_def_cfa_offset 16
.Ltmp9:
	.cfi_offset 15, 0
	std r5, r4, sp[1]               # 4-byte Folded Spill
.Ltmp10:
	.cfi_offset 4, -8
.Ltmp11:
	.cfi_offset 5, -4
	#DEBUG_VALUE: _i.qspi_access._chan_yield.read:s <- R0
	#DEBUG_VALUE: _i.qspi_access._chan_yield.read:param1 <- R1
	#DEBUG_VALUE: _i.qspi_access._chan_yield.read:param2 <- R2
	#DEBUG_VALUE: _i.qspi_access._chan_yield.read:param3 <- R3
	{
		nop
		ldw r11, sp[5]
	}
	{
		getr r4, 2
		ldw r5, r0[0]
	}
	{
		setd res[r4], r5
		add r5, r4, 1
	}
	{
		out res[r4], r5
		nop
	}
	{
		outct res[r4], 2
		nop
	}
	{
		chkct res[r4], 1
		nop
	}
	{
		out res[r4], r1
		nop
	}
	{
		out res[r4], r2
		nop
	}
	{
		out res[r4], r11
		stw r3, sp[1]
	}
	{
		outct res[r4], 2
		ldw r2, r0[1]
	}
	{
		ldaw r1, sp[1]
		mov r0, r4
	}
	bl __interface_client_call_y
	{
		chkct res[r4], 1
		nop
	}
	{
		freer res[r4]
		nop
	}
	ldd r5, r4, sp[1]               # 4-byte Folded Reload
	{
		nop
		retsp 4
	}
	# RETURN_REG_HOLDER
	.cc_bottom _i.qspi_access._chan_yield.read.function
	.set	_i.qspi_access._chan_yield.read.nstackwords,((_i.qspi_access._client_call_y.max.nstackwords $M ($D __interface_client_call_y.nstackwords ? __interface_client_call_y.nstackwords $: _i.qspi_access._client_call_y.max.nstackwords)) + 4)
	.globl	_i.qspi_access._chan_yield.read.nstackwords
	.weak	_i.qspi_access._chan_yield.read.nstackwords
	.set	_i.qspi_access._chan_yield.read.maxcores,($D __interface_client_call_y.maxcores ? __interface_client_call_y.maxcores $: _i.qspi_access._client_call_y.max.maxcores) $M 1
	.globl	_i.qspi_access._chan_yield.read.maxcores
	.weak	_i.qspi_access._chan_yield.read.maxcores
	.set	_i.qspi_access._chan_yield.read.maxtimers,($D __interface_client_call_y.maxtimers ? __interface_client_call_y.maxtimers $: _i.qspi_access._client_call_y.max.maxtimers) $M 0
	.globl	_i.qspi_access._chan_yield.read.maxtimers
	.weak	_i.qspi_access._chan_yield.read.maxtimers
	.set	_i.qspi_access._chan_yield.read.maxchanends,(1 + ($D __interface_client_call_y.maxchanends ? __interface_client_call_y.maxchanends $: _i.qspi_access._client_call_y.max.maxchanends)) $M 1
	.globl	_i.qspi_access._chan_yield.read.maxchanends
	.weak	_i.qspi_access._chan_yield.read.maxchanends
.Ltmp12:
	.size	_i.qspi_access._chan_yield.read, .Ltmp12-_i.qspi_access._chan_yield.read
	.cfi_endproc

	.weak	_i.qspi_access._chan_yield.write
	.align	4
	.type	_i.qspi_access._chan_yield.write,@function
	.cc_top _i.qspi_access._chan_yield.write.function,_i.qspi_access._chan_yield.write
_i.qspi_access._chan_yield.write:       # @_i.qspi_access._chan_yield.write
	.cfi_startproc
	.issue_mode dual
# BB#0:                                 # %allocas
	{
		nop
		dualentsp 4
	}
.Ltmp13:
	.cfi_def_cfa_offset 16
.Ltmp14:
	.cfi_offset 15, 0
	std r5, r4, sp[1]               # 4-byte Folded Spill
.Ltmp15:
	.cfi_offset 4, -8
.Ltmp16:
	.cfi_offset 5, -4
	#DEBUG_VALUE: _i.qspi_access._chan_yield.write:s <- R0
	#DEBUG_VALUE: _i.qspi_access._chan_yield.write:param1 <- R1
	#DEBUG_VALUE: _i.qspi_access._chan_yield.write:param2 <- R2
	#DEBUG_VALUE: _i.qspi_access._chan_yield.write:param3 <- R3
	{
		nop
		ldw r11, sp[5]
	}
	{
		getr r4, 2
		ldw r5, r0[0]
	}
	{
		setd res[r4], r5
		nop
	}
	{
		out res[r4], r4
		nop
	}
	{
		outct res[r4], 2
		nop
	}
	{
		chkct res[r4], 1
		nop
	}
	{
		out res[r4], r1
		nop
	}
	{
		out res[r4], r2
		nop
	}
	{
		out res[r4], r11
		stw r3, sp[1]
	}
	{
		outct res[r4], 2
		ldw r2, r0[1]
	}
	{
		ldaw r1, sp[1]
		mov r0, r4
	}
	bl __interface_client_call_y
	{
		chkct res[r4], 1
		nop
	}
	{
		freer res[r4]
		nop
	}
	ldd r5, r4, sp[1]               # 4-byte Folded Reload
	{
		nop
		retsp 4
	}
	# RETURN_REG_HOLDER
	.cc_bottom _i.qspi_access._chan_yield.write.function
	.set	_i.qspi_access._chan_yield.write.nstackwords,((_i.qspi_access._client_call_y.max.nstackwords $M ($D __interface_client_call_y.nstackwords ? __interface_client_call_y.nstackwords $: _i.qspi_access._client_call_y.max.nstackwords)) + 4)
	.globl	_i.qspi_access._chan_yield.write.nstackwords
	.weak	_i.qspi_access._chan_yield.write.nstackwords
	.set	_i.qspi_access._chan_yield.write.maxcores,($D __interface_client_call_y.maxcores ? __interface_client_call_y.maxcores $: _i.qspi_access._client_call_y.max.maxcores) $M 1
	.globl	_i.qspi_access._chan_yield.write.maxcores
	.weak	_i.qspi_access._chan_yield.write.maxcores
	.set	_i.qspi_access._chan_yield.write.maxtimers,($D __interface_client_call_y.maxtimers ? __interface_client_call_y.maxtimers $: _i.qspi_access._client_call_y.max.maxtimers) $M 0
	.globl	_i.qspi_access._chan_yield.write.maxtimers
	.weak	_i.qspi_access._chan_yield.write.maxtimers
	.set	_i.qspi_access._chan_yield.write.maxchanends,(1 + ($D __interface_client_call_y.maxchanends ? __interface_client_call_y.maxchanends $: _i.qspi_access._client_call_y.max.maxchanends)) $M 1
	.globl	_i.qspi_access._chan_yield.write.maxchanends
	.weak	_i.qspi_access._chan_yield.write.maxchanends
.Ltmp17:
	.size	_i.qspi_access._chan_yield.write, .Ltmp17-_i.qspi_access._chan_yield.write
	.cfi_endproc

	.section	.cp.rodata.cst4,"aMc",@progbits,4
	.cc_top .LCPI4_0.data,.LCPI4_0
	.align	4
	.type	.LCPI4_0,@object
	.size	.LCPI4_0, 4
.LCPI4_0:
	.long	2000000                 # 0x1e8480
	.cc_bottom .LCPI4_0.data
	.text
	.globl	console_core
	.align	4
	.type	console_core,@function
	.cc_top console_core.function,console_core
console_core:                           # @console_core
.Lfunc_begin4:
	.loc	1 26 0                  # C:/Users/takaaki/git/sw_xSSDAC/module_operation_console/src/console.xc:26:0
	.cfi_startproc
	.issue_mode dual
# BB#0:                                 # %allocas
.Lxtalabel0:
	{
		nop
		dualentsp 6
	}
.Ltmp18:
	.cfi_def_cfa_offset 24
.Ltmp19:
	.cfi_offset 15, 0
	std r5, r4, sp[1]               # 4-byte Folded Spill
.Ltmp20:
	.cfi_offset 4, -16
.Ltmp21:
	.cfi_offset 5, -12
	std r7, r6, sp[2]               # 4-byte Folded Spill
.Ltmp22:
	.cfi_offset 6, -8
.Ltmp23:
	.cfi_offset 7, -4
	#DEBUG_VALUE: console_core:c_track_control <- R0
	#DEBUG_VALUE: console_core:c_dac_control <- R1
.Ltmp24:
	#DEBUG_VALUE: console_core:c_dac_control <- R4
	#DEBUG_VALUE: console_core:c_track_control <- R5
	{
		mov r4, r1
		mov r5, r0
	}
.Ltmp25:
	.loc	1 32 0 prologue_end     # C:/Users/takaaki/git/sw_xSSDAC/module_operation_console/src/console.xc:32:0
	ldw r0, dp[p_key]
	.loc	1 32 0                  # C:/Users/takaaki/git/sw_xSSDAC/module_operation_console/src/console.xc:32:0
	{
		setc res[r0], 1
		nop
	}
	.loc	1 32 0                  # C:/Users/takaaki/git/sw_xSSDAC/module_operation_console/src/console.xc:32:0
.Lxta.endpoint_labels0:
	{
		in r0, res[r0]
		nop
	}
	.loc	1 32 0                  # C:/Users/takaaki/git/sw_xSSDAC/module_operation_console/src/console.xc:32:0
	stw r0, dp[key_buff]
	.loc	1 33 0                  # C:/Users/takaaki/git/sw_xSSDAC/module_operation_console/src/console.xc:33:0
	stw r0, dp[key_buff+4]
	.loc	1 34 0                  # C:/Users/takaaki/git/sw_xSSDAC/module_operation_console/src/console.xc:34:0
	stw r0, dp[key_buff+8]
	.loc	1 36 0                  # C:/Users/takaaki/git/sw_xSSDAC/module_operation_console/src/console.xc:36:0
.Lxta.call_labels0:
	bl init_display_frame
	.loc	1 38 0                  # C:/Users/takaaki/git/sw_xSSDAC/module_operation_console/src/console.xc:38:0
	{
		gettime r0
		nop
	}
	.loc	1 38 0                  # C:/Users/takaaki/git/sw_xSSDAC/module_operation_console/src/console.xc:38:0
	stw r0, dp[scan_time]
	{
		mkmsk r0, 1
		nop
	}
	.loc	1 40 0                  # C:/Users/takaaki/git/sw_xSSDAC/module_operation_console/src/console.xc:40:0
.Ltmp26:
.Lxta.call_labels1:
	bl set_console_mode
	{
		ldc r0, 16
		nop
	}
	.loc	1 41 0                  # C:/Users/takaaki/git/sw_xSSDAC/module_operation_console/src/console.xc:41:0
.Lxta.call_labels2:
	bl set_display_control_flag
.Ltrap_info0:
	{
		ecallf r5
		nop
	}
.Ltmp27:
	#DEBUG_VALUE: console_core:c_track_control <- R5
	#DEBUG_VALUE: console_core:c_dac_control <- R4
	.loc	1 54 9                  # C:/Users/takaaki/git/sw_xSSDAC/module_operation_console/src/console.xc:54:9
	{
		get r11, id
		nop
	}
	.loc	1 54 9                  # C:/Users/takaaki/git/sw_xSSDAC/module_operation_console/src/console.xc:54:9
	ldaw r0, dp[__timers]
	{
		nop
		ldw r6, r0[r11]
	}
	ldw r7, cp[.LCPI4_0]
	bu .LBB4_1
.Ltmp28:
.Ltmp29:                                # Block address taken
.LBB4_2:                                # %selectcase6
                                        #   in Loop: Header=BB4_1 Depth=1
.Lxtalabel1:
	#DEBUG_VALUE: console_core:c_track_control <- R5
	#DEBUG_VALUE: console_core:c_dac_control <- R4
	.loc	1 64 0                  # C:/Users/takaaki/git/sw_xSSDAC/module_operation_console/src/console.xc:64:0
.Lxta.endpoint_labels1:
	{
		in r0, res[r6]
		nop
	}
.Ltmp30:
	.loc	1 65 0                  # C:/Users/takaaki/git/sw_xSSDAC/module_operation_console/src/console.xc:65:0
.Lxta.call_labels3:
	bl KeyScan
	.loc	1 66 0                  # C:/Users/takaaki/git/sw_xSSDAC/module_operation_console/src/console.xc:66:0
.Lxta.call_labels4:
	bl handle_display_frame
	.loc	1 67 0                  # C:/Users/takaaki/git/sw_xSSDAC/module_operation_console/src/console.xc:67:0
	ldw r0, dp[scan_time]
	.loc	1 67 0                  # C:/Users/takaaki/git/sw_xSSDAC/module_operation_console/src/console.xc:67:0
	{
		add r0, r0, r7
		nop
	}
	.loc	1 67 0                  # C:/Users/takaaki/git/sw_xSSDAC/module_operation_console/src/console.xc:67:0
	stw r0, dp[scan_time]
.Ltmp31:
.LBB4_1:                                # %afternullcheck
                                        # =>This Inner Loop Header: Depth=1
	#DEBUG_VALUE: console_core:c_track_control <- R5
	#DEBUG_VALUE: console_core:c_dac_control <- R4
	.loc	1 49 0                  # C:/Users/takaaki/git/sw_xSSDAC/module_operation_console/src/console.xc:49:0
	{
		mov r0, r5
		nop
	}
.Lxta.call_labels5:
	bl SendBackTrackControl
	.loc	1 54 9                  # C:/Users/takaaki/git/sw_xSSDAC/module_operation_console/src/console.xc:54:9
.Ltmp32:
	{
		clre
		nop
	}
	ldap r11, .Ltmp33
	.loc	1 54 9                  # C:/Users/takaaki/git/sw_xSSDAC/module_operation_console/src/console.xc:54:9
	{
		setv res[r5], r11
		nop
	}
	.loc	1 54 9                  # C:/Users/takaaki/git/sw_xSSDAC/module_operation_console/src/console.xc:54:9
	{
		eeu res[r5]
		nop
	}
	ldap r11, .Ltmp34
	.loc	1 54 9                  # C:/Users/takaaki/git/sw_xSSDAC/module_operation_console/src/console.xc:54:9
	{
		setv res[r4], r11
		nop
	}
	.loc	1 54 9                  # C:/Users/takaaki/git/sw_xSSDAC/module_operation_console/src/console.xc:54:9
	{
		eeu res[r4]
		nop
	}
	.loc	1 54 9                  # C:/Users/takaaki/git/sw_xSSDAC/module_operation_console/src/console.xc:54:9
	ldw r0, dp[scan_time]
	.loc	1 54 9                  # C:/Users/takaaki/git/sw_xSSDAC/module_operation_console/src/console.xc:54:9
	{
		setd res[r6], r0
		nop
	}
	.loc	1 54 9                  # C:/Users/takaaki/git/sw_xSSDAC/module_operation_console/src/console.xc:54:9
	{
		setc res[r6], 9
		nop
	}
	ldap r11, .Ltmp29
	.loc	1 54 9                  # C:/Users/takaaki/git/sw_xSSDAC/module_operation_console/src/console.xc:54:9
	{
		setv res[r6], r11
		nop
	}
	.loc	1 54 9                  # C:/Users/takaaki/git/sw_xSSDAC/module_operation_console/src/console.xc:54:9
	{
		eeu res[r6]
		nop
	}
	.loc	1 68 0                  # C:/Users/takaaki/git/sw_xSSDAC/module_operation_console/src/console.xc:68:0

	.xtabranch .LBB4_3, .LBB4_4, .LBB4_2
	{
		waiteu
		nop
	}
.Ltmp35:
.Ltmp33:                                # Block address taken
.LBB4_3:                                # %afternullcheck13
                                        #   in Loop: Header=BB4_1 Depth=1
.Lxtalabel2:
	#DEBUG_VALUE: console_core:c_track_control <- R5
	#DEBUG_VALUE: console_core:c_dac_control <- R4
	.loc	1 55 0                  # C:/Users/takaaki/git/sw_xSSDAC/module_operation_console/src/console.xc:55:0
	{
		chkct res[r5], 1
		nop
	}
	.loc	1 55 0                  # C:/Users/takaaki/git/sw_xSSDAC/module_operation_console/src/console.xc:55:0
	{
		outct res[r5], 1
		nop
	}
	.loc	1 55 0                  # C:/Users/takaaki/git/sw_xSSDAC/module_operation_console/src/console.xc:55:0
.Lxta.endpoint_labels2:
	{
		in r1, res[r5]
		nop
	}
.Ltmp36:
	#DEBUG_VALUE: query_type <- R1
	.loc	1 55 0                  # C:/Users/takaaki/git/sw_xSSDAC/module_operation_console/src/console.xc:55:0
	{
		chkct res[r5], 1
		nop
	}
	.loc	1 55 0                  # C:/Users/takaaki/git/sw_xSSDAC/module_operation_console/src/console.xc:55:0
	{
		outct res[r5], 1
		mov r0, r5
	}
	.loc	1 56 0                  # C:/Users/takaaki/git/sw_xSSDAC/module_operation_console/src/console.xc:56:0
.Lxta.call_labels6:
	bl HandlePlayCommand
.Ltmp37:
	bu .LBB4_1
.Ltmp38:
.Ltmp34:                                # Block address taken
.LBB4_4:                                # %selectcase4
                                        #   in Loop: Header=BB4_1 Depth=1
.Lxtalabel3:
	#DEBUG_VALUE: console_core:c_track_control <- R5
	#DEBUG_VALUE: console_core:c_dac_control <- R4
	.loc	1 60 0                  # C:/Users/takaaki/git/sw_xSSDAC/module_operation_console/src/console.xc:60:0
	{
		chkct res[r4], 1
		nop
	}
	.loc	1 60 0                  # C:/Users/takaaki/git/sw_xSSDAC/module_operation_console/src/console.xc:60:0
	{
		outct res[r4], 1
		nop
	}
	.loc	1 60 0                  # C:/Users/takaaki/git/sw_xSSDAC/module_operation_console/src/console.xc:60:0
.Lxta.endpoint_labels3:
	{
		in r1, res[r4]
		nop
	}
.Ltmp39:
	#DEBUG_VALUE: dac_command <- R1
	.loc	1 60 0                  # C:/Users/takaaki/git/sw_xSSDAC/module_operation_console/src/console.xc:60:0
	{
		chkct res[r4], 1
		nop
	}
	#DEBUG_VALUE: console_core:c_track_control <- R5
	#DEBUG_VALUE: console_core:c_dac_control <- R4
	#DEBUG_VALUE: dac_command <- R1
	.loc	1 60 0                  # C:/Users/takaaki/git/sw_xSSDAC/module_operation_console/src/console.xc:60:0
.Ltrap_info1:
	{
		outct res[r4], 1
		ecallf r4
	}
	.loc	1 61 0                  # C:/Users/takaaki/git/sw_xSSDAC/module_operation_console/src/console.xc:61:0
	{
		mov r0, r4
		nop
	}
.Lxta.call_labels7:
	bl HandleDacCommand
.Ltmp40:
	bu .LBB4_1
.Ltmp41:
	.cc_bottom console_core.function
	.set	console_core.nstackwords,((init_display_frame.nstackwords $M set_console_mode.nstackwords $M set_display_control_flag.nstackwords $M SendBackTrackControl.nstackwords $M HandlePlayCommand.nstackwords $M HandleDacCommand.nstackwords $M KeyScan.nstackwords $M handle_display_frame.nstackwords) + 6)
	.globl	console_core.nstackwords
	.set	console_core.maxcores,HandleDacCommand.maxcores $M HandlePlayCommand.maxcores $M KeyScan.maxcores $M SendBackTrackControl.maxcores $M handle_display_frame.maxcores $M init_display_frame.maxcores $M set_console_mode.maxcores $M set_display_control_flag.maxcores $M 1
	.globl	console_core.maxcores
	.set	console_core.maxtimers,HandleDacCommand.maxtimers $M HandlePlayCommand.maxtimers $M KeyScan.maxtimers $M SendBackTrackControl.maxtimers $M handle_display_frame.maxtimers $M init_display_frame.maxtimers $M set_console_mode.maxtimers $M set_display_control_flag.maxtimers $M 0
	.globl	console_core.maxtimers
	.set	console_core.maxchanends,HandleDacCommand.maxchanends $M HandlePlayCommand.maxchanends $M KeyScan.maxchanends $M SendBackTrackControl.maxchanends $M handle_display_frame.maxchanends $M init_display_frame.maxchanends $M set_console_mode.maxchanends $M set_display_control_flag.maxchanends $M 0
	.globl	console_core.maxchanends
.Ltmp42:
	.size	console_core, .Ltmp42-console_core
.Lfunc_end4:
	.cfi_endproc

.Ldebug_end0:
	.file	2 "C:\\Program Files (x86)\\XMOS\\xTIMEcomposer\\Community_14.4.1\\target/include\\timer.h"
	.section	.xtacalltable,"",@progbits
.Lentries_start0:
	.long	.Lentries_end1-.Lentries_start0
	.long	0
	.ascii	"C:\\Users\\takaaki\\git\\sw_xSSDAC\\app_usb_simple_ssdac_xSSDAC-SD-V2\\.build"
	.byte	0
.cc_top cc_0,.Lxta.call_labels0
	.ascii	"C:/Users/takaaki/git/sw_xSSDAC/module_operation_console/src/console.xc"
	.byte	0
	.long	36
	.long	.Lxta.call_labels0
.cc_bottom cc_0
.cc_top cc_1,.Lxta.call_labels1
	.ascii	"C:/Users/takaaki/git/sw_xSSDAC/module_operation_console/src/console.xc"
	.byte	0
	.long	40
	.long	.Lxta.call_labels1
.cc_bottom cc_1
.cc_top cc_2,.Lxta.call_labels2
	.ascii	"C:/Users/takaaki/git/sw_xSSDAC/module_operation_console/src/console.xc"
	.byte	0
	.long	41
	.long	.Lxta.call_labels2
.cc_bottom cc_2
.cc_top cc_3,.Lxta.call_labels5
	.ascii	"C:/Users/takaaki/git/sw_xSSDAC/module_operation_console/src/console.xc"
	.byte	0
	.long	49
	.long	.Lxta.call_labels5
.cc_bottom cc_3
.cc_top cc_4,.Lxta.call_labels6
	.ascii	"C:/Users/takaaki/git/sw_xSSDAC/module_operation_console/src/console.xc"
	.byte	0
	.long	56
	.long	.Lxta.call_labels6
.cc_bottom cc_4
.cc_top cc_5,.Lxta.call_labels7
	.ascii	"C:/Users/takaaki/git/sw_xSSDAC/module_operation_console/src/console.xc"
	.byte	0
	.long	61
	.long	.Lxta.call_labels7
.cc_bottom cc_5
.cc_top cc_6,.Lxta.call_labels3
	.ascii	"C:/Users/takaaki/git/sw_xSSDAC/module_operation_console/src/console.xc"
	.byte	0
	.long	65
	.long	.Lxta.call_labels3
.cc_bottom cc_6
.cc_top cc_7,.Lxta.call_labels4
	.ascii	"C:/Users/takaaki/git/sw_xSSDAC/module_operation_console/src/console.xc"
	.byte	0
	.long	66
	.long	.Lxta.call_labels4
.cc_bottom cc_7
.Lentries_end1:
	.section	.xtaendpointtable,"",@progbits
.Lentries_start2:
	.long	.Lentries_end3-.Lentries_start2
	.long	0
	.ascii	"C:\\Users\\takaaki\\git\\sw_xSSDAC\\app_usb_simple_ssdac_xSSDAC-SD-V2\\.build"
	.byte	0
.cc_top cc_8,.Lxta.endpoint_labels0
	.ascii	"C:/Users/takaaki/git/sw_xSSDAC/module_operation_console/src/console.xc"
	.byte	0
	.long	32
	.long	.Lxta.endpoint_labels0
.cc_bottom cc_8
.cc_top cc_9,.Lxta.endpoint_labels1
	.ascii	"C:/Users/takaaki/git/sw_xSSDAC/module_operation_console/src/console.xc"
	.byte	0
	.long	54
	.long	.Lxta.endpoint_labels1
.cc_bottom cc_9
.cc_top cc_10,.Lxta.endpoint_labels2
	.ascii	"C:/Users/takaaki/git/sw_xSSDAC/module_operation_console/src/console.xc"
	.byte	0
	.long	54
	.long	.Lxta.endpoint_labels2
.cc_bottom cc_10
.cc_top cc_11,.Lxta.endpoint_labels3
	.ascii	"C:/Users/takaaki/git/sw_xSSDAC/module_operation_console/src/console.xc"
	.byte	0
	.long	54
	.long	.Lxta.endpoint_labels3
.cc_bottom cc_11
.Lentries_end3:
	.section	.xtalabeltable,"",@progbits
.Lentries_start4:
	.long	.Lentries_end5-.Lentries_start4
	.long	0
	.ascii	"C:\\Users\\takaaki\\git\\sw_xSSDAC\\app_usb_simple_ssdac_xSSDAC-SD-V2\\.build"
	.byte	0
.cc_top cc_12,.Lxtalabel0
	.ascii	"C:/Users/takaaki/git/sw_xSSDAC/module_operation_console/src/console.xc"
	.byte	0
	.long	28
	.long	30
	.long	.Lxtalabel0
.cc_bottom cc_12
.cc_top cc_13,.Lxtalabel0
	.ascii	"C:/Users/takaaki/git/sw_xSSDAC/module_operation_console/src/console.xc"
	.byte	0
	.long	32
	.long	34
	.long	.Lxtalabel0
.cc_bottom cc_13
.cc_top cc_14,.Lxtalabel0
	.ascii	"C:/Users/takaaki/git/sw_xSSDAC/module_operation_console/src/console.xc"
	.byte	0
	.long	36
	.long	36
	.long	.Lxtalabel0
.cc_bottom cc_14
.cc_top cc_15,.Lxtalabel0
	.ascii	"C:/Users/takaaki/git/sw_xSSDAC/module_operation_console/src/console.xc"
	.byte	0
	.long	38
	.long	38
	.long	.Lxtalabel0
.cc_bottom cc_15
.cc_top cc_16,.Lxtalabel0
	.ascii	"C:/Users/takaaki/git/sw_xSSDAC/module_operation_console/src/console.xc"
	.byte	0
	.long	40
	.long	41
	.long	.Lxtalabel0
.cc_bottom cc_16
.cc_top cc_17,.Lxtalabel0
	.ascii	"C:/Users/takaaki/git/sw_xSSDAC/module_operation_console/src/console.xc"
	.byte	0
	.long	43
	.long	43
	.long	.Lxtalabel0
.cc_bottom cc_17
.cc_top cc_18,.Lxtalabel2
	.ascii	"C:/Users/takaaki/git/sw_xSSDAC/module_operation_console/src/console.xc"
	.byte	0
	.long	56
	.long	57
	.long	.Lxtalabel2
.cc_bottom cc_18
.cc_top cc_19,.Lxtalabel2
	.ascii	"C:/Users/takaaki/git/sw_xSSDAC/module_operation_console/src/console.xc"
	.byte	0
	.long	60
	.long	60
	.long	.Lxtalabel2
.cc_bottom cc_19
.cc_top cc_20,.Lxtalabel3
	.ascii	"C:/Users/takaaki/git/sw_xSSDAC/module_operation_console/src/console.xc"
	.byte	0
	.long	61
	.long	62
	.long	.Lxtalabel3
.cc_bottom cc_20
.cc_top cc_21,.Lxtalabel3
	.ascii	"C:/Users/takaaki/git/sw_xSSDAC/module_operation_console/src/console.xc"
	.byte	0
	.long	64
	.long	64
	.long	.Lxtalabel3
.cc_bottom cc_21
.cc_top cc_22,.Lxtalabel1
	.ascii	"C:/Users/takaaki/git/sw_xSSDAC/module_operation_console/src/console.xc"
	.byte	0
	.long	65
	.long	69
	.long	.Lxtalabel1
.cc_bottom cc_22
.Lentries_end5:
	.section	.trap_info,"",@progbits
.Ltrap_info_entries_start0:
	.long	.Ltrap_info_entries_end0-.Ltrap_info_entries_start0
	.long	1
	.section	.trap_info_str,"MS",@progbits
.Ltrap_info_str0:
.asciiz"C:/Users/takaaki/git/sw_xSSDAC/module_operation_console/src/console.xc:49:30: error: passing null argument to a non-null parameter\n        SendBackTrackControl(c_track_control);\n                             ^~~~~~~~~~~~~~~\n"
	.section	.trap_info,"",@progbits
.cc_top cc_trapinfo_0,.Ltrap_info0
	.long	.Ltrap_info0
	.long	.Ltrap_info_str0
.cc_bottom cc_trapinfo_0
	.section	.trap_info_str,"MS",@progbits
.Ltrap_info_str1:
.asciiz"C:/Users/takaaki/git/sw_xSSDAC/module_operation_console/src/console.xc:61:34: error: passing null argument to a non-null parameter\n                HandleDacCommand(c_dac_control, dac_command);\n                                 ^~~~~~~~~~~~~\n"
	.section	.trap_info,"",@progbits
.cc_top cc_trapinfo_1,.Ltrap_info1
	.long	.Ltrap_info1
	.long	.Ltrap_info_str1
.cc_bottom cc_trapinfo_1
.Ltrap_info_entries_end0: