	.text
	.file	"C:/Users/takaaki/git/sw_xSSDAC/module_flash_memory_server/src/qspi_access.xc"
                                        # Start of file scope inline assembly
	.inline_definition delay_seconds
	.inline_definition delay_milliseconds
	.inline_definition delay_microseconds
	.inline_definition _safe_memcmp
	.inline_definition _safe_memmove
	.inline_definition _safe_memset
	.globalresource 0x10000,"ports.qspiCS","tile[0]"
	.globalresource 0x10100,"ports.qspiSCLK","tile[0]"
	.globalresource 0x40100,"ports.qspiSIO","tile[0]"
	.globalresource 0x106,"ports.qspiClkblk","tile[0]"
	.pushsection .netinfo, "", @netinfo
	.int      0x1eaba15c
.locl __xcc1_internal_1.info, "o:p"
__xcc1_internal_1.info:
	.int 0x00010000
	.long tile + 0
.sameresource __xcc1_internal_1, ports, 0
.locl __xcc1_internal_2.info, "o:p"
__xcc1_internal_2.info:
	.int 0x00010100
	.long tile + 0
.sameresource __xcc1_internal_2, ports, 4
.locl __xcc1_internal_3.info, "b:p:32"
__xcc1_internal_3.info:
	.int 0x00040100
	.long tile + 0
.sameresource __xcc1_internal_3, ports, 8
.locl __xcc1_internal_4.info, "ck"
__xcc1_internal_4.info:
	.int 0x00000106
	.long tile + 0
.sameresource __xcc1_internal_4, ports, 12
	.popsection
	.weak _i.qspi_access.write.maxchanends.group
	.max_reduce _i.qspi_access.write.max.maxchanends, _i.qspi_access.write.maxchanends.group, 0
	.weak _i.qspi_access.write.maxcores.group
	.max_reduce _i.qspi_access.write.max.maxcores, _i.qspi_access.write.maxcores.group, 0
	.weak _i.qspi_access.write.maxtimers.group
	.max_reduce _i.qspi_access.write.max.maxtimers, _i.qspi_access.write.maxtimers.group, 0
	.weak _i.qspi_access.write.nstackwords.group
	.globl _i.qspi_access.write.nstackwords.group
	.weak _i.qspi_access.write.fns.group
	.globl _i.qspi_access.write.fns.group
	.max_reduce _i.qspi_access.write.max.nstackwords, _i.qspi_access.write.nstackwords.group, 0
	.max_reduce _i.qspi_access.write.fns, _i.qspi_access.write.fns.group, 0
	.weak _i.qspi_access.read.maxchanends.group
	.max_reduce _i.qspi_access.read.max.maxchanends, _i.qspi_access.read.maxchanends.group, 0
	.weak _i.qspi_access.read.maxcores.group
	.max_reduce _i.qspi_access.read.max.maxcores, _i.qspi_access.read.maxcores.group, 0
	.weak _i.qspi_access.read.maxtimers.group
	.max_reduce _i.qspi_access.read.max.maxtimers, _i.qspi_access.read.maxtimers.group, 0
	.weak _i.qspi_access.read.nstackwords.group
	.globl _i.qspi_access.read.nstackwords.group
	.weak _i.qspi_access.read.fns.group
	.globl _i.qspi_access.read.fns.group
	.max_reduce _i.qspi_access.read.max.nstackwords, _i.qspi_access.read.nstackwords.group, 0
	.max_reduce _i.qspi_access.read.fns, _i.qspi_access.read.fns.group, 0
	.weak _i.qspi_access.__interface_init.maxchanends.group
	.max_reduce _i.qspi_access.__interface_init.max.maxchanends, _i.qspi_access.__interface_init.maxchanends.group, 0
	.weak _i.qspi_access.__interface_init.maxcores.group
	.max_reduce _i.qspi_access.__interface_init.max.maxcores, _i.qspi_access.__interface_init.maxcores.group, 0
	.weak _i.qspi_access.__interface_init.maxtimers.group
	.max_reduce _i.qspi_access.__interface_init.max.maxtimers, _i.qspi_access.__interface_init.maxtimers.group, 0
	.weak _i.qspi_access.__interface_init.nstackwords.group
	.globl _i.qspi_access.__interface_init.nstackwords.group
	.weak _i.qspi_access.__interface_init.fns.group
	.globl _i.qspi_access.__interface_init.fns.group
	.max_reduce _i.qspi_access.__interface_init.max.nstackwords, _i.qspi_access.__interface_init.nstackwords.group, 0
	.max_reduce _i.qspi_access.__interface_init.fns, _i.qspi_access.__interface_init.fns.group, 0
	.weak _i.qspi_access._client_call_y.maxchanends.group
	.add_to_set _i.qspi_access._client_call_y.maxchanends.group, (__interface_client_call_y_other.maxchanends + __interface_client_call_y_extra.maxchanends), __interface_client_call_y_other
	.max_reduce _i.qspi_access._client_call_y.max.maxchanends, _i.qspi_access._client_call_y.maxchanends.group, 0
	.weak _i.qspi_access._client_call_y.maxcores.group
	.add_to_set _i.qspi_access._client_call_y.maxcores.group, (__interface_client_call_y_other.maxcores + __interface_client_call_y_extra.maxcores), __interface_client_call_y_other
	.max_reduce _i.qspi_access._client_call_y.max.maxcores, _i.qspi_access._client_call_y.maxcores.group, 0
	.weak _i.qspi_access._client_call_y.maxtimers.group
	.add_to_set _i.qspi_access._client_call_y.maxtimers.group, (__interface_client_call_y_other.maxtimers + __interface_client_call_y_extra.maxtimers), __interface_client_call_y_other
	.max_reduce _i.qspi_access._client_call_y.max.maxtimers, _i.qspi_access._client_call_y.maxtimers.group, 0
	.weak _i.qspi_access._client_call_y.nstackwords.group
	.globl _i.qspi_access._client_call_y.nstackwords.group
	.weak _i.qspi_access._client_call_y.fns.group
	.globl _i.qspi_access._client_call_y.fns.group
	.add_to_set _i.qspi_access._client_call_y.nstackwords.group, (__interface_client_call_y_other.nstackwords + __interface_client_call_y_extra.nstackwords), __interface_client_call_y_other
	.add_to_set _i.qspi_access._client_call_y.fns.group, __interface_client_call_y_other, __interface_client_call_y_other
	.max_reduce _i.qspi_access._client_call_y.max.nstackwords, _i.qspi_access._client_call_y.nstackwords.group, 0
	.max_reduce _i.qspi_access._client_call_y.fns, _i.qspi_access._client_call_y.fns.group, 0
	.set usage.anon.0,0
	.set usage.anon.1,0
	.set usage.anon.2,0
	.set usage.anon.3,0
	.set usage.anon.4,0
	.set usage.anon.5,0
	.globread qspi_server,deviceSpecs,"C:/Users/takaaki/git/sw_xSSDAC/module_flash_memory_server/src/qspi_access.xc:52:34: note: object used here\n    if(fl_connectToDevice(ports, deviceSpecs, sizeof(deviceSpecs)/sizeof(fl_QuadDeviceSpec)) != 0)\n                                 ^~~~~~~~~~~"
	.globwrite qspi_server,ports,"C:/Users/takaaki/git/sw_xSSDAC/module_flash_memory_server/src/qspi_access.xc:52:27: note: object used here\n    if(fl_connectToDevice(ports, deviceSpecs, sizeof(deviceSpecs)/sizeof(fl_QuadDeviceSpec)) != 0)\n                          ^~~~~"
	.call qspi_server,printf
	.call qspi_server,free
	.call qspi_server,fl_writeData
	.call qspi_server,fl_readData
	.call qspi_server,fl_getWriteScratchSize
	.call qspi_server,fl_getNumDataSectors
	.call qspi_server,fl_getFlashType
	.call qspi_server,fl_getFlashSize
	.call qspi_server,fl_getDataSectorSize
	.call qspi_server,fl_getDataPartitionSize
	.call qspi_server,fl_connectToDevice
	.call qspi_server,fflush
	.call qspi_server,_safe_malloc
	.call qspi_server,__getstdout
	.call usage.anon.5,memset
	.call usage.anon.4,memmove
	.call usage.anon.3,memcmp
	.call usage.anon.2,delay_ticks_longlong
	.call usage.anon.1,delay_ticks_longlong
	.call usage.anon.0,delay_ticks_longlong
	.set qspi_server.locnoside, 0
	.set qspi_if_read.locnoside, 0
	.set qspi_if_write.locnoside, 0
	.set qspi_server.locnoglobalaccess, 0
	.set qspi_server.locnointerfaceaccess, 0
	.set qspi_if_read.locnointerfaceaccess, 0
	.set qspi_if_write.locnointerfaceaccess, 0
	.assert 1,memset.actnoglobalaccess,"In file included from C:/Users/takaaki/git/sw_xSSDAC/module_flash_memory_server/src/qspi_access.xc:19:\nIn file included from C:\\Program Files (x86)\\XMOS\\xTIMEcomposer\\Community_14.4.1\\target/include/xc\\string.h:5:\nC:\\Program Files (x86)\\XMOS\\xTIMEcomposer\\Community_14.4.1\\target/include/xc\\safe/string.h:21:3: error: passing non-local alias to function `memset\' which accesses a global variable\n  memset(s, c, n);\n  ^~~~~~~~~~~~~~~"
	.assert 1,memmove.actnoglobalaccess,"In file included from C:/Users/takaaki/git/sw_xSSDAC/module_flash_memory_server/src/qspi_access.xc:19:\nIn file included from C:\\Program Files (x86)\\XMOS\\xTIMEcomposer\\Community_14.4.1\\target/include/xc\\string.h:5:\nC:\\Program Files (x86)\\XMOS\\xTIMEcomposer\\Community_14.4.1\\target/include/xc\\safe/string.h:15:3: error: passing non-local alias to function `memmove\' which accesses a global variable\n  memmove(s1, s2, n);\n  ^~~~~~~~~~~~~~~~~~"
	.assert 1,free.actnoglobalaccess,"C:/Users/takaaki/git/sw_xSSDAC/module_flash_memory_server/src/qspi_access.xc:93:13: error: passing non-local alias to function `free\' which accesses a global variable\n            free(write_buffer);\n            ^~~~~~~~~~~~~~~~~~\nC:\\Program Files (x86)\\XMOS\\xTIMEcomposer\\Community_14.4.1\\target/include/xc\\stdlib.h:12:17: note: expanded from macro \'free\'\n#define free(s) free(s)\n                ^~~~~~~"
	.assert 1,fl_writeData.actnoglobalaccess,"C:/Users/takaaki/git/sw_xSSDAC/module_flash_memory_server/src/qspi_access.xc:87:20: error: passing non-local alias to function `fl_writeData\' which accesses a global variable\n                if(fl_writeData(write_offset, write_count, write_buffer, scratch ) != 0)\n                   ^~~~~~~~~~~~~~~~~~~~~~~~~~~~~~~~~~~~~~~~~~~~~~~~~~~~~~~~~~~~~~~"
	.assert 1,fl_readData.actnoglobalaccess,"C:/Users/takaaki/git/sw_xSSDAC/module_flash_memory_server/src/qspi_access.xc:107:27: error: passing non-local alias to function `fl_readData\' which accesses a global variable\n                int rc2 = fl_readData(offset, size, read_buffer);\n                          ^~~~~~~~~~~~~~~~~~~~~~~~~~~~~~~~~~~~~~"
	.globpassesref fl_connectToDevice, deviceSpecs,"C:/Users/takaaki/git/sw_xSSDAC/module_flash_memory_server/src/qspi_access.xc:52:8: error: call to `fl_connectToDevice\' in `qspi_server\' makes alias of global \'deviceSpecs\'\n    if(fl_connectToDevice(ports, deviceSpecs, sizeof(deviceSpecs)/sizeof(fl_QuadDeviceSpec)) != 0)\n       ^~~~~~~~~~~~~~~~~~~~~~~~~~~~~~~~~~~~~~~~~~~~~~~~~~~~~~~~~~~~~~~~~~~~~~~~~~~~~~~~~~~~~"
	.globpassesref fl_connectToDevice, ports,"C:/Users/takaaki/git/sw_xSSDAC/module_flash_memory_server/src/qspi_access.xc:52:8: error: call to `fl_connectToDevice\' in `qspi_server\' makes alias of global \'ports\'\n    if(fl_connectToDevice(ports, deviceSpecs, sizeof(deviceSpecs)/sizeof(fl_QuadDeviceSpec)) != 0)\n       ^~~~~~~~~~~~~~~~~~~~~~~~~~~~~~~~~~~~~~~~~~~~~~~~~~~~~~~~~~~~~~~~~~~~~~~~~~~~~~~~~~~~~"

                                        # End of file scope inline assembly
	.text
	.weak	_i.qspi_access._chan.read
	.align	4
	.type	_i.qspi_access._chan.read,@function
	.cc_top _i.qspi_access._chan.read.function,_i.qspi_access._chan.read
_i.qspi_access._chan.read:              # @_i.qspi_access._chan.read
	.cfi_startproc
	.issue_mode dual
# BB#0:                                 # %allocas
	{
		nop
		dualentsp 4
	}
.Ltmp0:
	.cfi_def_cfa_offset 16
.Ltmp1:
	.cfi_offset 15, 0
	{
		nop
		stw r4, sp[2]
	}
.Ltmp2:
	.cfi_offset 4, -8
	#DEBUG_VALUE: _i.qspi_access._chan.read:dest <- R0
	#DEBUG_VALUE: _i.qspi_access._chan.read:param1 <- R1
	#DEBUG_VALUE: _i.qspi_access._chan.read:param2 <- R2
	#DEBUG_VALUE: _i.qspi_access._chan.read:param3 <- R3
	{
		getr r4, 2
		ldw r11, sp[5]
	}
	{
		setd res[r4], r0
		add r0, r4, 1
	}
	{
		out res[r4], r0
		nop
	}
	{
		outct res[r4], 2
		nop
	}
	{
		chkct res[r4], 1
		nop
	}
	{
		out res[r4], r1
		nop
	}
	{
		out res[r4], r2
		nop
	}
	{
		out res[r4], r11
		stw r3, sp[1]
	}
	{
		outct res[r4], 2
		ldaw r1, sp[1]
	}
	{
		mov r0, r4
		nop
	}
	bl __interface_client_call
	{
		chkct res[r4], 1
		nop
	}
	{
		freer res[r4]
		ldw r4, sp[2]
	}
	{
		nop
		retsp 4
	}
	# RETURN_REG_HOLDER
	.cc_bottom _i.qspi_access._chan.read.function
	.set	_i.qspi_access._chan.read.nstackwords,(__interface_client_call.nstackwords + 4)
	.globl	_i.qspi_access._chan.read.nstackwords
	.weak	_i.qspi_access._chan.read.nstackwords
	.set	_i.qspi_access._chan.read.maxcores,__interface_client_call.maxcores $M 1
	.globl	_i.qspi_access._chan.read.maxcores
	.weak	_i.qspi_access._chan.read.maxcores
	.set	_i.qspi_access._chan.read.maxtimers,__interface_client_call.maxtimers $M 0
	.globl	_i.qspi_access._chan.read.maxtimers
	.weak	_i.qspi_access._chan.read.maxtimers
	.set	_i.qspi_access._chan.read.maxchanends,(1 + __interface_client_call.maxchanends) $M 1
	.globl	_i.qspi_access._chan.read.maxchanends
	.weak	_i.qspi_access._chan.read.maxchanends
.Ltmp3:
	.size	_i.qspi_access._chan.read, .Ltmp3-_i.qspi_access._chan.read
	.cfi_endproc

	.weak	_i.qspi_access._chan.write
	.align	4
	.type	_i.qspi_access._chan.write,@function
	.cc_top _i.qspi_access._chan.write.function,_i.qspi_access._chan.write
_i.qspi_access._chan.write:             # @_i.qspi_access._chan.write
	.cfi_startproc
	.issue_mode dual
# BB#0:                                 # %allocas
	{
		nop
		dualentsp 4
	}
.Ltmp4:
	.cfi_def_cfa_offset 16
.Ltmp5:
	.cfi_offset 15, 0
	{
		nop
		stw r4, sp[2]
	}
.Ltmp6:
	.cfi_offset 4, -8
	#DEBUG_VALUE: _i.qspi_access._chan.write:dest <- R0
	#DEBUG_VALUE: _i.qspi_access._chan.write:param1 <- R1
	#DEBUG_VALUE: _i.qspi_access._chan.write:param2 <- R2
	#DEBUG_VALUE: _i.qspi_access._chan.write:param3 <- R3
	{
		getr r4, 2
		ldw r11, sp[5]
	}
	{
		setd res[r4], r0
		nop
	}
	{
		out res[r4], r4
		nop
	}
	{
		outct res[r4], 2
		nop
	}
	{
		chkct res[r4], 1
		nop
	}
	{
		out res[r4], r1
		nop
	}
	{
		out res[r4], r2
		nop
	}
	{
		out res[r4], r11
		stw r3, sp[1]
	}
	{
		outct res[r4], 2
		ldaw r1, sp[1]
	}
	{
		mov r0, r4
		nop
	}
	bl __interface_client_call
	{
		chkct res[r4], 1
		nop
	}
	{
		freer res[r4]
		ldw r4, sp[2]
	}
	{
		nop
		retsp 4
	}
	# RETURN_REG_HOLDER
	.cc_bottom _i.qspi_access._chan.write.function
	.set	_i.qspi_access._chan.write.nstackwords,(__interface_client_call.nstackwords + 4)
	.globl	_i.qspi_access._chan.write.nstackwords
	.weak	_i.qspi_access._chan.write.nstackwords
	.set	_i.qspi_access._chan.write.maxcores,__interface_client_call.maxcores $M 1
	.globl	_i.qspi_access._chan.write.maxcores
	.weak	_i.qspi_access._chan.write.maxcores
	.set	_i.qspi_access._chan.write.maxtimers,__interface_client_call.maxtimers $M 0
	.globl	_i.qspi_access._chan.write.maxtimers
	.weak	_i.qspi_access._chan.write.maxtimers
	.set	_i.qspi_access._chan.write.maxchanends,(1 + __interface_client_call.maxchanends) $M 1
	.globl	_i.qspi_access._chan.write.maxchanends
	.weak	_i.qspi_access._chan.write.maxchanends
.Ltmp7:
	.size	_i.qspi_access._chan.write, .Ltmp7-_i.qspi_access._chan.write
	.cfi_endproc

	.weak	_i.qspi_access._chan_yield.read
	.align	4
	.type	_i.qspi_access._chan_yield.read,@function
	.cc_top _i.qspi_access._chan_yield.read.function,_i.qspi_access._chan_yield.read
_i.qspi_access._chan_yield.read:        # @_i.qspi_access._chan_yield.read
	.cfi_startproc
	.issue_mode dual
# BB#0:                                 # %allocas
	{
		nop
		dualentsp 4
	}
.Ltmp8:
	.cfi_def_cfa_offset 16
.Ltmp9:
	.cfi_offset 15, 0
	std r5, r4, sp[1]               # 4-byte Folded Spill
.Ltmp10:
	.cfi_offset 4, -8
.Ltmp11:
	.cfi_offset 5, -4
	#DEBUG_VALUE: _i.qspi_access._chan_yield.read:s <- R0
	#DEBUG_VALUE: _i.qspi_access._chan_yield.read:param1 <- R1
	#DEBUG_VALUE: _i.qspi_access._chan_yield.read:param2 <- R2
	#DEBUG_VALUE: _i.qspi_access._chan_yield.read:param3 <- R3
	{
		nop
		ldw r11, sp[5]
	}
	{
		getr r4, 2
		ldw r5, r0[0]
	}
	{
		setd res[r4], r5
		add r5, r4, 1
	}
	{
		out res[r4], r5
		nop
	}
	{
		outct res[r4], 2
		nop
	}
	{
		chkct res[r4], 1
		nop
	}
	{
		out res[r4], r1
		nop
	}
	{
		out res[r4], r2
		nop
	}
	{
		out res[r4], r11
		stw r3, sp[1]
	}
	{
		outct res[r4], 2
		ldw r2, r0[1]
	}
	{
		ldaw r1, sp[1]
		mov r0, r4
	}
	bl __interface_client_call_y
	{
		chkct res[r4], 1
		nop
	}
	{
		freer res[r4]
		nop
	}
	ldd r5, r4, sp[1]               # 4-byte Folded Reload
	{
		nop
		retsp 4
	}
	# RETURN_REG_HOLDER
	.cc_bottom _i.qspi_access._chan_yield.read.function
	.set	_i.qspi_access._chan_yield.read.nstackwords,((_i.qspi_access._client_call_y.max.nstackwords $M ($D __interface_client_call_y.nstackwords ? __interface_client_call_y.nstackwords $: _i.qspi_access._client_call_y.max.nstackwords)) + 4)
	.globl	_i.qspi_access._chan_yield.read.nstackwords
	.weak	_i.qspi_access._chan_yield.read.nstackwords
	.set	_i.qspi_access._chan_yield.read.maxcores,($D __interface_client_call_y.maxcores ? __interface_client_call_y.maxcores $: _i.qspi_access._client_call_y.max.maxcores) $M 1
	.globl	_i.qspi_access._chan_yield.read.maxcores
	.weak	_i.qspi_access._chan_yield.read.maxcores
	.set	_i.qspi_access._chan_yield.read.maxtimers,($D __interface_client_call_y.maxtimers ? __interface_client_call_y.maxtimers $: _i.qspi_access._client_call_y.max.maxtimers) $M 0
	.globl	_i.qspi_access._chan_yield.read.maxtimers
	.weak	_i.qspi_access._chan_yield.read.maxtimers
	.set	_i.qspi_access._chan_yield.read.maxchanends,(1 + ($D __interface_client_call_y.maxchanends ? __interface_client_call_y.maxchanends $: _i.qspi_access._client_call_y.max.maxchanends)) $M 1
	.globl	_i.qspi_access._chan_yield.read.maxchanends
	.weak	_i.qspi_access._chan_yield.read.maxchanends
.Ltmp12:
	.size	_i.qspi_access._chan_yield.read, .Ltmp12-_i.qspi_access._chan_yield.read
	.cfi_endproc

	.weak	_i.qspi_access._chan_yield.write
	.align	4
	.type	_i.qspi_access._chan_yield.write,@function
	.cc_top _i.qspi_access._chan_yield.write.function,_i.qspi_access._chan_yield.write
_i.qspi_access._chan_yield.write:       # @_i.qspi_access._chan_yield.write
	.cfi_startproc
	.issue_mode dual
# BB#0:                                 # %allocas
	{
		nop
		dualentsp 4
	}
.Ltmp13:
	.cfi_def_cfa_offset 16
.Ltmp14:
	.cfi_offset 15, 0
	std r5, r4, sp[1]               # 4-byte Folded Spill
.Ltmp15:
	.cfi_offset 4, -8
.Ltmp16:
	.cfi_offset 5, -4
	#DEBUG_VALUE: _i.qspi_access._chan_yield.write:s <- R0
	#DEBUG_VALUE: _i.qspi_access._chan_yield.write:param1 <- R1
	#DEBUG_VALUE: _i.qspi_access._chan_yield.write:param2 <- R2
	#DEBUG_VALUE: _i.qspi_access._chan_yield.write:param3 <- R3
	{
		nop
		ldw r11, sp[5]
	}
	{
		getr r4, 2
		ldw r5, r0[0]
	}
	{
		setd res[r4], r5
		nop
	}
	{
		out res[r4], r4
		nop
	}
	{
		outct res[r4], 2
		nop
	}
	{
		chkct res[r4], 1
		nop
	}
	{
		out res[r4], r1
		nop
	}
	{
		out res[r4], r2
		nop
	}
	{
		out res[r4], r11
		stw r3, sp[1]
	}
	{
		outct res[r4], 2
		ldw r2, r0[1]
	}
	{
		ldaw r1, sp[1]
		mov r0, r4
	}
	bl __interface_client_call_y
	{
		chkct res[r4], 1
		nop
	}
	{
		freer res[r4]
		nop
	}
	ldd r5, r4, sp[1]               # 4-byte Folded Reload
	{
		nop
		retsp 4
	}
	# RETURN_REG_HOLDER
	.cc_bottom _i.qspi_access._chan_yield.write.function
	.set	_i.qspi_access._chan_yield.write.nstackwords,((_i.qspi_access._client_call_y.max.nstackwords $M ($D __interface_client_call_y.nstackwords ? __interface_client_call_y.nstackwords $: _i.qspi_access._client_call_y.max.nstackwords)) + 4)
	.globl	_i.qspi_access._chan_yield.write.nstackwords
	.weak	_i.qspi_access._chan_yield.write.nstackwords
	.set	_i.qspi_access._chan_yield.write.maxcores,($D __interface_client_call_y.maxcores ? __interface_client_call_y.maxcores $: _i.qspi_access._client_call_y.max.maxcores) $M 1
	.globl	_i.qspi_access._chan_yield.write.maxcores
	.weak	_i.qspi_access._chan_yield.write.maxcores
	.set	_i.qspi_access._chan_yield.write.maxtimers,($D __interface_client_call_y.maxtimers ? __interface_client_call_y.maxtimers $: _i.qspi_access._client_call_y.max.maxtimers) $M 0
	.globl	_i.qspi_access._chan_yield.write.maxtimers
	.weak	_i.qspi_access._chan_yield.write.maxtimers
	.set	_i.qspi_access._chan_yield.write.maxchanends,(1 + ($D __interface_client_call_y.maxchanends ? __interface_client_call_y.maxchanends $: _i.qspi_access._client_call_y.max.maxchanends)) $M 1
	.globl	_i.qspi_access._chan_yield.write.maxchanends
	.weak	_i.qspi_access._chan_yield.write.maxchanends
.Ltmp17:
	.size	_i.qspi_access._chan_yield.write, .Ltmp17-_i.qspi_access._chan_yield.write
	.cfi_endproc

	.globl	qspi_server
	.align	4
	.type	qspi_server,@function
	.cc_top qspi_server.function,qspi_server
qspi_server:                            # @qspi_server
.Lfunc_begin4:
	.loc	1 49 0                  # C:/Users/takaaki/git/sw_xSSDAC/module_flash_memory_server/src/qspi_access.xc:49:0
	.cfi_startproc
	.issue_mode dual
# BB#0:                                 # %allocas
.Lxtalabel0:
	{
		nop
		dualentsp 14
	}
.Ltmp18:
	.cfi_def_cfa_offset 56
.Ltmp19:
	.cfi_offset 15, 0
	std r5, r4, sp[3]               # 4-byte Folded Spill
.Ltmp20:
	.cfi_offset 4, -32
.Ltmp21:
	.cfi_offset 5, -28
	std r7, r6, sp[4]               # 4-byte Folded Spill
.Ltmp22:
	.cfi_offset 6, -24
.Ltmp23:
	.cfi_offset 7, -20
	std r9, r8, sp[5]               # 4-byte Folded Spill
.Ltmp24:
	.cfi_offset 8, -16
.Ltmp25:
	.cfi_offset 9, -12
.Ltmp26:
	.cfi_offset 10, -8
	#DEBUG_VALUE: qspi_server:i <- R0
.Ltmp27:
	#DEBUG_VALUE: qspi_server:i <- R10
	{
		mov r10, r0
		stw r10, sp[12]
	}
.Ltmp28:
	{
		nop
		stw r10, sp[5]
	}
	.loc	1 52 5 prologue_end     # C:/Users/takaaki/git/sw_xSSDAC/module_flash_memory_server/src/qspi_access.xc:52:5
.Ltmp29:
	ldaw r0, dp[ports]
	ldaw r1, dp[deviceSpecs]
	{
		ldc r2, 6
		nop
	}
	{
		mov r3, r2
		nop
	}
.Lxta.call_labels0:
	bl fl_connectToDevice
	.loc	1 52 5                  # C:/Users/takaaki/git/sw_xSSDAC/module_flash_memory_server/src/qspi_access.xc:52:5
	bf r0, .LBB4_3
# BB#1:                                 # %iftrue
.Lxtalabel1:
	.loc	1 54 0                  # C:/Users/takaaki/git/sw_xSSDAC/module_flash_memory_server/src/qspi_access.xc:54:0
	ldaw r11, cp[.str6]
	{
		mov r0, r11
		nop
	}
.Lxta.call_labels1:
	bl iprintf
	.loc	1 55 0                  # C:/Users/takaaki/git/sw_xSSDAC/module_flash_memory_server/src/qspi_access.xc:55:0
	bl __getstdout
	.loc	1 55 0                  # C:/Users/takaaki/git/sw_xSSDAC/module_flash_memory_server/src/qspi_access.xc:55:0
.Lxta.call_labels2:
	bl fflush
.LBB4_2:                                # %LoopTest
                                        # =>This Inner Loop Header: Depth=1
	.loc	1 56 9                  # C:/Users/takaaki/git/sw_xSSDAC/module_flash_memory_server/src/qspi_access.xc:56:9
	bu .LBB4_2
.LBB4_3:                                # %ifdone
.Lxtalabel2:
.Ltmp30:
	#DEBUG_VALUE: qspi_server:i <- R10
	.loc	1 60 0                  # C:/Users/takaaki/git/sw_xSSDAC/module_flash_memory_server/src/qspi_access.xc:60:0
	bl fl_getFlashType
	{
		mov r1, r0
		nop
	}
	.loc	1 60 0                  # C:/Users/takaaki/git/sw_xSSDAC/module_flash_memory_server/src/qspi_access.xc:60:0
	ldaw r11, cp[.str7]
	{
		mov r0, r11
		nop
	}
.Lxta.call_labels3:
	bl iprintf
	.loc	1 61 0                  # C:/Users/takaaki/git/sw_xSSDAC/module_flash_memory_server/src/qspi_access.xc:61:0
	bl fl_getFlashSize
	{
		mov r1, r0
		nop
	}
	.loc	1 61 0                  # C:/Users/takaaki/git/sw_xSSDAC/module_flash_memory_server/src/qspi_access.xc:61:0
	ldaw r11, cp[.str8]
	{
		mov r0, r11
		nop
	}
.Lxta.call_labels4:
	bl iprintf
	.loc	1 62 0                  # C:/Users/takaaki/git/sw_xSSDAC/module_flash_memory_server/src/qspi_access.xc:62:0
	bl fl_getDataPartitionSize
	{
		mov r1, r0
		nop
	}
	.loc	1 62 0                  # C:/Users/takaaki/git/sw_xSSDAC/module_flash_memory_server/src/qspi_access.xc:62:0
	ldaw r11, cp[.str9]
	{
		mov r0, r11
		nop
	}
.Lxta.call_labels5:
	bl iprintf
	.loc	1 63 0                  # C:/Users/takaaki/git/sw_xSSDAC/module_flash_memory_server/src/qspi_access.xc:63:0
	bl fl_getNumDataSectors
	{
		mov r1, r0
		nop
	}
	.loc	1 63 0                  # C:/Users/takaaki/git/sw_xSSDAC/module_flash_memory_server/src/qspi_access.xc:63:0
	ldaw r11, cp[.str10]
	{
		mov r0, r11
		nop
	}
.Lxta.call_labels6:
	bl iprintf
	{
		ldc r8, 0
		nop
	}
	.loc	1 64 0                  # C:/Users/takaaki/git/sw_xSSDAC/module_flash_memory_server/src/qspi_access.xc:64:0
	{
		mov r0, r8
		nop
	}
	bl fl_getDataSectorSize
	{
		mov r1, r0
		nop
	}
	.loc	1 64 0                  # C:/Users/takaaki/git/sw_xSSDAC/module_flash_memory_server/src/qspi_access.xc:64:0
	ldaw r11, cp[.str11]
	{
		mov r0, r11
		nop
	}
.Lxta.call_labels7:
	bl iprintf
	ldc r1, 64
	.loc	1 65 0                  # C:/Users/takaaki/git/sw_xSSDAC/module_flash_memory_server/src/qspi_access.xc:65:0
	{
		mov r0, r8
		nop
	}
	bl fl_getWriteScratchSize
	{
		mov r1, r0
		nop
	}
	.loc	1 65 0                  # C:/Users/takaaki/git/sw_xSSDAC/module_flash_memory_server/src/qspi_access.xc:65:0
	ldaw r11, cp[.str12]
	{
		mov r0, r11
		nop
	}
.Lxta.call_labels8:
	bl iprintf
	.loc	1 66 0                  # C:/Users/takaaki/git/sw_xSSDAC/module_flash_memory_server/src/qspi_access.xc:66:0
	bl __getstdout
	.loc	1 66 0                  # C:/Users/takaaki/git/sw_xSSDAC/module_flash_memory_server/src/qspi_access.xc:66:0
.Lxta.call_labels9:
	bl fflush
.Ltmp31:
	#DEBUG_VALUE: write_count <- 0
	#DEBUG_VALUE: write_pending <- 0
	#DEBUG_VALUE: write_offset <- 0
	{
		mkmsk r0, 1
		mov r6, r8
	}
	{
		mov r7, r8
		mov r4, r8
	}
	{
		mov r5, r8
		mov r9, r8
	}
	bu .LBB4_4
.Ltmp32:
.LBB4_15:                               # %switchcase65
                                        #   in Loop: Header=BB4_4 Depth=1
	#DEBUG_VALUE: qspi_server:i <- [SP+20]
	#DEBUG_VALUE: write_pending <- 0
	#DEBUG_VALUE: write_count <- 0
	#DEBUG_VALUE: write_offset <- 0
	#DEBUG_VALUE: size <- R7
	.loc	1 100 0                 # C:/Users/takaaki/git/sw_xSSDAC/module_flash_memory_server/src/qspi_access.xc:100:0
	{
		lsu r0, r9, r7
		nop
	}
.Ltrap_info0:
	{
		ecallt r0
		nop
	}
	#DEBUG_VALUE: qspi_server:i <- [SP+20]
	#DEBUG_VALUE: write_pending <- 0
	#DEBUG_VALUE: write_count <- 0
	#DEBUG_VALUE: write_offset <- 0
	#DEBUG_VALUE: size <- R7
	.loc	1 100 0                 # C:/Users/takaaki/git/sw_xSSDAC/module_flash_memory_server/src/qspi_access.xc:100:0
	{
		lsu r0, r4, r7
		nop
	}
.Ltrap_info1:
	{
		ecallt r0
		nop
	}
	#DEBUG_VALUE: qspi_server:i <- [SP+20]
	#DEBUG_VALUE: write_pending <- 0
	#DEBUG_VALUE: write_count <- 0
	#DEBUG_VALUE: write_offset <- 0
	#DEBUG_VALUE: size <- R7
	.loc	1 100 0                 # C:/Users/takaaki/git/sw_xSSDAC/module_flash_memory_server/src/qspi_access.xc:100:0
	{
		mov r0, r10
		stw r7, sp[1]
	}
	{
		ldc r8, 0
		nop
	}
	{
		mov r1, r8
		mov r2, r11
	}
	{
		mov r4, r11
		mov r3, r8
	}
	bl __interface_block_load
.Ltmp33:
	#DEBUG_VALUE: write_pending <- 1
	{
		nop
		ldw r10, sp[5]
	}
.Ltmp34:
	#DEBUG_VALUE: qspi_server:i <- R10
	{
		nop
		ldw r0, r10[0]
	}
	{
		out res[r0], r8
		nop
	}
	{
		outct res[r0], 1
		mov r0, r8
	}
.Ltmp35:
.LBB4_4:                                # %LoopBody6.outer
                                        # =>This Loop Header: Depth=1
                                        #     Child Loop BB4_13 Depth 2
.Lxtalabel3:
	#DEBUG_VALUE: qspi_server:i <- R10
	#DEBUG_VALUE: write_pending <- 0
	#DEBUG_VALUE: write_count <- 0
	#DEBUG_VALUE: write_offset <- 0
	.loc	1 76 9                  # C:/Users/takaaki/git/sw_xSSDAC/module_flash_memory_server/src/qspi_access.xc:76:9
	{
		zext r0, 1
		nop
	}
	bf r0, .LBB4_5
.Ltmp36:
# BB#16:                                # %ifdone9
                                        #   in Loop: Header=BB4_4 Depth=1
.Lxtalabel4:
	#DEBUG_VALUE: qspi_server:i <- R10
	#DEBUG_VALUE: write_pending <- 0
	#DEBUG_VALUE: write_count <- 0
	#DEBUG_VALUE: write_offset <- 0
	#DEBUG_VALUE: qspi_server:i <- [SP+20]
	.loc	1 97 9                  # C:/Users/takaaki/git/sw_xSSDAC/module_flash_memory_server/src/qspi_access.xc:97:9
	{
		clre
		ldw r10, r10[0]
	}
	ldap r11, .Ltmp37
	.loc	1 97 9                  # C:/Users/takaaki/git/sw_xSSDAC/module_flash_memory_server/src/qspi_access.xc:97:9
	{
		setv res[r10], r11
		nop
	}
	.loc	1 97 9                  # C:/Users/takaaki/git/sw_xSSDAC/module_flash_memory_server/src/qspi_access.xc:97:9
	{
		eeu res[r10]
		nop
	}

	.xtabranch .LBB4_13
	{
		waiteu
		nop
	}
.Ltmp38:
.LBB4_5:                                # %iftrue8
                                        #   in Loop: Header=BB4_4 Depth=1
.Lxtalabel5:
	#DEBUG_VALUE: qspi_server:i <- R10
	#DEBUG_VALUE: write_pending <- 0
	#DEBUG_VALUE: write_count <- 0
	#DEBUG_VALUE: write_offset <- 0
	#DEBUG_VALUE: qspi_server:i <- R8
	{
		mov r8, r10
		mov r0, r6
	}
.Ltmp39:
	.loc	1 77 0                  # C:/Users/takaaki/git/sw_xSSDAC/module_flash_memory_server/src/qspi_access.xc:77:0
	{
		mov r1, r7
		nop
	}
.Lxta.call_labels10:
	bl fl_getWriteScratchSize
.Ltmp40:
	#DEBUG_VALUE: scratch_size <- R0
	.loc	1 81 0                  # C:/Users/takaaki/git/sw_xSSDAC/module_flash_memory_server/src/qspi_access.xc:81:0
.Lxta.call_labels11:
	bl _safe_malloc
.Ltmp41:
	{
		mov r10, r0
		nop
	}
	.loc	1 82 13                 # C:/Users/takaaki/git/sw_xSSDAC/module_flash_memory_server/src/qspi_access.xc:82:13
	bf r10, .LBB4_6
# BB#8:                                 # %iffalse
                                        #   in Loop: Header=BB4_4 Depth=1
.Lxtalabel6:
.Ltmp42:
	#DEBUG_VALUE: qspi_server:i <- R8
	#DEBUG_VALUE: write_pending <- 0
	#DEBUG_VALUE: write_count <- 0
	#DEBUG_VALUE: write_offset <- 0
	{
		mov r11, r4
		nop
	}
	{
		lsu r0, r11, r5
		nop
	}
.Ltrap_info2:
	{
		ecallt r0
		nop
	}
	#DEBUG_VALUE: qspi_server:i <- R8
	#DEBUG_VALUE: write_pending <- 0
	#DEBUG_VALUE: write_count <- 0
	#DEBUG_VALUE: write_offset <- 0
	.loc	1 87 17                 # C:/Users/takaaki/git/sw_xSSDAC/module_flash_memory_server/src/qspi_access.xc:87:17
	{
		sub r0, r11, r5
		nop
	}
	{
		lsu r3, r9, r0
		nop
	}
.Ltrap_info3:
	{
		ecallt r3
		nop
	}
	#DEBUG_VALUE: qspi_server:i <- R8
	#DEBUG_VALUE: write_pending <- 0
	#DEBUG_VALUE: write_count <- 0
	#DEBUG_VALUE: write_offset <- 0
	.loc	1 87 17                 # C:/Users/takaaki/git/sw_xSSDAC/module_flash_memory_server/src/qspi_access.xc:87:17
	{
		lsu r3, r10, r1
		nop
	}
.Ltrap_info4:
	{
		ecallt r3
		nop
	}
	#DEBUG_VALUE: qspi_server:i <- R8
	#DEBUG_VALUE: write_pending <- 0
	#DEBUG_VALUE: write_count <- 0
	#DEBUG_VALUE: write_offset <- 0
	.loc	1 87 17                 # C:/Users/takaaki/git/sw_xSSDAC/module_flash_memory_server/src/qspi_access.xc:87:17
	{
		sub r1, r10, r1
		nop
	}
	.loc	1 87 17                 # C:/Users/takaaki/git/sw_xSSDAC/module_flash_memory_server/src/qspi_access.xc:87:17
	{
		lsu r3, r2, r1
		nop
	}
.Ltrap_info5:
	{
		ecallt r3
		nop
	}
	#DEBUG_VALUE: qspi_server:i <- R8
	#DEBUG_VALUE: write_pending <- 0
	#DEBUG_VALUE: write_count <- 0
	#DEBUG_VALUE: write_offset <- 0
	.loc	1 87 17                 # C:/Users/takaaki/git/sw_xSSDAC/module_flash_memory_server/src/qspi_access.xc:87:17
	{
		sub r0, r9, r0
		nop
	}
	.loc	1 87 17                 # C:/Users/takaaki/git/sw_xSSDAC/module_flash_memory_server/src/qspi_access.xc:87:17
	{
		add r3, r11, r0
		sub r1, r2, r1
	}
	.loc	1 87 17                 # C:/Users/takaaki/git/sw_xSSDAC/module_flash_memory_server/src/qspi_access.xc:87:17
	{
		lsu r2, r10, r3
		nop
	}
	bf r2, .LBB4_10
.Ltmp43:
# BB#9:                                 # %afterboundcheck42
                                        #   in Loop: Header=BB4_4 Depth=1
	#DEBUG_VALUE: qspi_server:i <- R8
	#DEBUG_VALUE: write_pending <- 0
	#DEBUG_VALUE: write_count <- 0
	#DEBUG_VALUE: write_offset <- 0
	.loc	1 87 17                 # C:/Users/takaaki/git/sw_xSSDAC/module_flash_memory_server/src/qspi_access.xc:87:17
	{
		add r2, r10, r1
		nop
	}
	{
		lsu r2, r11, r2
		nop
	}
.Ltrap_info6:
	{
		ecallt r2
		nop
	}
.Ltmp44:
.LBB4_10:                               # %completedaliascheck
                                        #   in Loop: Header=BB4_4 Depth=1
	#DEBUG_VALUE: qspi_server:i <- R8
	#DEBUG_VALUE: write_pending <- 0
	#DEBUG_VALUE: write_count <- 0
	#DEBUG_VALUE: write_offset <- 0
	{
		nop
		stw r1, sp[2]
	}
	.loc	1 87 17                 # C:/Users/takaaki/git/sw_xSSDAC/module_flash_memory_server/src/qspi_access.xc:87:17
	{
		mov r0, r6
		stw r0, sp[1]
	}
	{
		mov r1, r7
		mov r2, r11
	}
	{
		mov r4, r11
		mov r3, r10
	}
.Lxta.call_labels12:
	bl fl_writeData
	bf r0, .LBB4_12
.Ltmp45:
# BB#11:                                # %iftrue16
                                        #   in Loop: Header=BB4_4 Depth=1
.Lxtalabel7:
	#DEBUG_VALUE: qspi_server:i <- R8
	#DEBUG_VALUE: write_pending <- 0
	#DEBUG_VALUE: write_count <- 0
	#DEBUG_VALUE: write_offset <- 0
	.loc	1 89 0                  # C:/Users/takaaki/git/sw_xSSDAC/module_flash_memory_server/src/qspi_access.xc:89:0
	ldaw r11, cp[.str24]
	{
		mov r0, r11
		nop
	}
.Lxta.call_labels13:
	bl iprintf
.Ltmp46:
.LBB4_12:                               # %ifdone17
                                        #   in Loop: Header=BB4_4 Depth=1
.Lxtalabel8:
	#DEBUG_VALUE: qspi_server:i <- R8
	#DEBUG_VALUE: write_pending <- 0
	#DEBUG_VALUE: write_count <- 0
	#DEBUG_VALUE: write_offset <- 0
	.loc	1 91 0                  # C:/Users/takaaki/git/sw_xSSDAC/module_flash_memory_server/src/qspi_access.xc:91:0
	{
		mov r0, r10
		nop
	}
.Lxta.call_labels14:
	bl free
	bu .LBB4_7
.Ltmp47:
.LBB4_6:                                # %iftrue11
                                        #   in Loop: Header=BB4_4 Depth=1
.Lxtalabel9:
	#DEBUG_VALUE: qspi_server:i <- R8
	#DEBUG_VALUE: write_pending <- 0
	#DEBUG_VALUE: write_count <- 0
	#DEBUG_VALUE: write_offset <- 0
	.loc	1 83 0                  # C:/Users/takaaki/git/sw_xSSDAC/module_flash_memory_server/src/qspi_access.xc:83:0
	ldaw r11, cp[.str13]
	{
		mov r0, r11
		nop
	}
.Lxta.call_labels15:
	bl iprintf
.Ltmp48:
.LBB4_7:                                # %ifdone12
                                        #   in Loop: Header=BB4_4 Depth=1
.Lxtalabel10:
	#DEBUG_VALUE: qspi_server:i <- R8
	#DEBUG_VALUE: write_pending <- 0
	#DEBUG_VALUE: write_count <- 0
	#DEBUG_VALUE: write_offset <- 0
	.loc	1 93 0                  # C:/Users/takaaki/git/sw_xSSDAC/module_flash_memory_server/src/qspi_access.xc:93:0
	{
		mov r0, r4
		nop
	}
.Lxta.call_labels16:
	bl free
.Ltmp49:
	#DEBUG_VALUE: qspi_server:i <- [SP+20]
	.loc	1 97 9                  # C:/Users/takaaki/git/sw_xSSDAC/module_flash_memory_server/src/qspi_access.xc:97:9
	{
		clre
		ldw r10, r8[0]
	}
	ldap r11, .Ltmp37
	.loc	1 97 9                  # C:/Users/takaaki/git/sw_xSSDAC/module_flash_memory_server/src/qspi_access.xc:97:9
	{
		setv res[r10], r11
		nop
	}
	.loc	1 97 9                  # C:/Users/takaaki/git/sw_xSSDAC/module_flash_memory_server/src/qspi_access.xc:97:9
	{
		eeu res[r10]
		nop
	}

	.xtabranch .LBB4_13
	{
		waiteu
		nop
	}
.Ltmp50:
.LBB4_14:                               # %switchcase
                                        #   in Loop: Header=BB4_13 Depth=2
	#DEBUG_VALUE: qspi_server:i <- [SP+20]
	#DEBUG_VALUE: write_pending <- 0
	#DEBUG_VALUE: write_count <- 0
	#DEBUG_VALUE: write_offset <- 0
	.loc	1 107 0                 # C:/Users/takaaki/git/sw_xSSDAC/module_flash_memory_server/src/qspi_access.xc:107:0
	{
		lsu r0, r11, r5
		nop
	}
.Ltrap_info7:
	{
		ecallt r0
		nop
	}
	#DEBUG_VALUE: qspi_server:i <- [SP+20]
	#DEBUG_VALUE: write_pending <- 0
	#DEBUG_VALUE: write_count <- 0
	#DEBUG_VALUE: write_offset <- 0
	.loc	1 107 0                 # C:/Users/takaaki/git/sw_xSSDAC/module_flash_memory_server/src/qspi_access.xc:107:0
	{
		sub r0, r11, r5
		nop
	}
	.loc	1 107 0                 # C:/Users/takaaki/git/sw_xSSDAC/module_flash_memory_server/src/qspi_access.xc:107:0
	{
		lsu r1, r9, r0
		nop
	}
.Ltrap_info8:
	{
		ecallt r1
		nop
	}
	#DEBUG_VALUE: qspi_server:i <- [SP+20]
	#DEBUG_VALUE: write_pending <- 0
	#DEBUG_VALUE: write_count <- 0
	#DEBUG_VALUE: write_offset <- 0
	.loc	1 107 0                 # C:/Users/takaaki/git/sw_xSSDAC/module_flash_memory_server/src/qspi_access.xc:107:0
	{
		sub r3, r9, r0
		mov r0, r6
	}
	.loc	1 107 0                 # C:/Users/takaaki/git/sw_xSSDAC/module_flash_memory_server/src/qspi_access.xc:107:0
	{
		mov r1, r7
		mov r2, r11
	}
	{
		mov r5, r11
		nop
	}
.Lxta.call_labels17:
	bl fl_readData
	.loc	1 108 0                 # C:/Users/takaaki/git/sw_xSSDAC/module_flash_memory_server/src/qspi_access.xc:108:0
	{
		lsu r0, r9, r7
		nop
	}
.Ltrap_info9:
	{
		ecallt r0
		nop
	}
	#DEBUG_VALUE: qspi_server:i <- [SP+20]
	#DEBUG_VALUE: write_pending <- 0
	#DEBUG_VALUE: write_count <- 0
	#DEBUG_VALUE: write_offset <- 0
	.loc	1 108 0                 # C:/Users/takaaki/git/sw_xSSDAC/module_flash_memory_server/src/qspi_access.xc:108:0
	{
		lsu r0, r4, r7
		nop
	}
.Ltrap_info10:
	{
		ecallt r0
		nop
	}
	#DEBUG_VALUE: qspi_server:i <- [SP+20]
	#DEBUG_VALUE: write_pending <- 0
	#DEBUG_VALUE: write_count <- 0
	#DEBUG_VALUE: write_offset <- 0
	.loc	1 108 0                 # C:/Users/takaaki/git/sw_xSSDAC/module_flash_memory_server/src/qspi_access.xc:108:0
	{
		mov r0, r10
		stw r7, sp[1]
	}
	{
		ldc r4, 0
		nop
	}
	{
		mov r1, r4
		mov r2, r5
	}
	{
		mov r3, r4
		nop
	}
	bl __interface_block_store
	{
		nop
		ldw r1, sp[5]
	}
.Ltmp51:
	#DEBUG_VALUE: qspi_server:i <- R1
	{
		nop
		ldw r0, r1[0]
	}
	{
		out res[r0], r4
		nop
	}
	{
		outct res[r0], 1
		nop
	}
.Ltmp52:
	#DEBUG_VALUE: qspi_server:i <- [SP+20]
	.loc	1 97 9                  # C:/Users/takaaki/git/sw_xSSDAC/module_flash_memory_server/src/qspi_access.xc:97:9
	{
		clre
		ldw r10, r1[0]
	}
	ldap r11, .Ltmp37
	.loc	1 97 9                  # C:/Users/takaaki/git/sw_xSSDAC/module_flash_memory_server/src/qspi_access.xc:97:9
	{
		setv res[r10], r11
		nop
	}
	.loc	1 97 9                  # C:/Users/takaaki/git/sw_xSSDAC/module_flash_memory_server/src/qspi_access.xc:97:9
	{
		eeu res[r10]
		nop
	}

	.xtabranch .LBB4_13
	{
		waiteu
		nop
	}
.Ltmp53:
.Ltmp37:                                # Block address taken
.LBB4_13:                               # %selectcase
                                        #   Parent Loop BB4_4 Depth=1
                                        # =>  This Inner Loop Header: Depth=2
.Lxtalabel11:
	#DEBUG_VALUE: qspi_server:i <- [SP+20]
	#DEBUG_VALUE: write_pending <- 0
	#DEBUG_VALUE: write_count <- 0
	#DEBUG_VALUE: write_offset <- 0
	{
		in r0, res[r10]
		nop
	}
	ldc r1, 254
	{
		add r8, r0, r1
		nop
	}
	{
		zext r8, 8
		nop
	}
	{
		sub r0, r0, r8
		nop
	}
	{
		setd res[r10], r0
		nop
	}
	{
		outct res[r10], 1
		nop
	}
	{
		in r6, res[r10]
		nop
	}
	{
		in r7, res[r10]
		nop
	}
	{
		in r4, res[r10]
		mov r0, r7
	}
	.loc	1 99 0                  # C:/Users/takaaki/git/sw_xSSDAC/module_flash_memory_server/src/qspi_access.xc:99:0
	bl _safe_malloc
	{
		mov r11, r0
		mov r5, r1
	}
	{
		mov r9, r2
		nop
	}
	bf r8, .LBB4_15
	bu .LBB4_14
.Ltmp54:
	.cc_bottom qspi_server.function
	.set	qspi_server.nstackwords,((fl_connectToDevice.nstackwords $M fl_getFlashType.nstackwords $M fl_getFlashSize.nstackwords $M fl_getDataPartitionSize.nstackwords $M fl_getNumDataSectors.nstackwords $M fl_getDataSectorSize.nstackwords $M __interface_block_load.nstackwords $M fl_readData.nstackwords $M __interface_block_store.nstackwords $M fl_getWriteScratchSize.nstackwords $M _safe_malloc.nstackwords $M fl_writeData.nstackwords $M free.nstackwords $M iprintf.nstackwords $M __getstdout.nstackwords $M fflush.nstackwords) + 14)
	.globl	qspi_server.nstackwords
	.set	qspi_server.maxcores,__getstdout.maxcores $M __interface_block_load.maxcores $M __interface_block_store.maxcores $M _safe_malloc.maxcores $M fflush.maxcores $M fl_connectToDevice.maxcores $M fl_getDataPartitionSize.maxcores $M fl_getDataSectorSize.maxcores $M fl_getFlashSize.maxcores $M fl_getFlashType.maxcores $M fl_getNumDataSectors.maxcores $M fl_getWriteScratchSize.maxcores $M fl_readData.maxcores $M fl_writeData.maxcores $M free.maxcores $M iprintf.maxcores $M 1
	.globl	qspi_server.maxcores
	.set	qspi_server.maxtimers,__getstdout.maxtimers $M __interface_block_load.maxtimers $M __interface_block_store.maxtimers $M _safe_malloc.maxtimers $M fflush.maxtimers $M fl_connectToDevice.maxtimers $M fl_getDataPartitionSize.maxtimers $M fl_getDataSectorSize.maxtimers $M fl_getFlashSize.maxtimers $M fl_getFlashType.maxtimers $M fl_getNumDataSectors.maxtimers $M fl_getWriteScratchSize.maxtimers $M fl_readData.maxtimers $M fl_writeData.maxtimers $M free.maxtimers $M iprintf.maxtimers $M 0
	.globl	qspi_server.maxtimers
	.set	qspi_server.maxchanends,__getstdout.maxchanends $M __interface_block_load.maxchanends $M __interface_block_store.maxchanends $M _safe_malloc.maxchanends $M fflush.maxchanends $M fl_connectToDevice.maxchanends $M fl_getDataPartitionSize.maxchanends $M fl_getDataSectorSize.maxchanends $M fl_getFlashSize.maxchanends $M fl_getFlashType.maxchanends $M fl_getNumDataSectors.maxchanends $M fl_getWriteScratchSize.maxchanends $M fl_readData.maxchanends $M fl_writeData.maxchanends $M free.maxchanends $M iprintf.maxchanends $M 0
	.globl	qspi_server.maxchanends
.Ltmp55:
	.size	qspi_server, .Ltmp55-qspi_server
.Lfunc_end4:
	.cfi_endproc

	.globl	qspi_if_write
	.align	4
	.type	qspi_if_write,@function
	.cc_top qspi_if_write.function,qspi_if_write
qspi_if_write:                          # @qspi_if_write
.Lfunc_begin5:
	.loc	1 120 0                 # C:/Users/takaaki/git/sw_xSSDAC/module_flash_memory_server/src/qspi_access.xc:120:0
	.cfi_startproc
	.issue_mode dual
# BB#0:                                 # %allocas
.Lxtalabel12:
	{
		nop
		dualentsp 4
	}
.Ltmp56:
	.cfi_def_cfa_offset 16
.Ltmp57:
	.cfi_offset 15, 0
	std r5, r4, sp[1]               # 4-byte Folded Spill
.Ltmp58:
	.cfi_offset 4, -8
.Ltmp59:
	.cfi_offset 5, -4
	#DEBUG_VALUE: qspi_if_write:i <- R0
	#DEBUG_VALUE: qspi_if_write:offset <- R1
	#DEBUG_VALUE: qspi_if_write:size <- R2
	#DEBUG_VALUE: qspi_if_write:buffer <- R3
	{
		nop
		ldw r4, sp[5]
	}
	{
		nop
		ldw r11, r0[0]
	}
	{
		nop
		ldw r0, r0[1]
	}
.Ltmp60:
	{
		nop
		ldw r5, r0[0]
	}
	.loc	1 121 0 prologue_end    # C:/Users/takaaki/git/sw_xSSDAC/module_flash_memory_server/src/qspi_access.xc:121:0
.Ltmp61:
	{
		mov r0, r11
		stw r4, sp[1]
	}
.Lxta.call_labels18:
	{
		nop
		bla r5
	}
.Ltmp62:
	ldd r5, r4, sp[1]               # 4-byte Folded Reload
	{
		nop
		retsp 4
	}
	# RETURN_REG_HOLDER
.Ltmp63:
	.cc_bottom qspi_if_write.function
	.set	qspi_if_write.nstackwords,(_i.qspi_access.write.max.nstackwords + 4)
	.globl	qspi_if_write.nstackwords
	.set	qspi_if_write.maxcores,_i.qspi_access.write.max.maxcores $M 1
	.globl	qspi_if_write.maxcores
	.set	qspi_if_write.maxtimers,_i.qspi_access.write.max.maxtimers $M 0
	.globl	qspi_if_write.maxtimers
	.set	qspi_if_write.maxchanends,_i.qspi_access.write.max.maxchanends $M 0
	.globl	qspi_if_write.maxchanends
.Ltmp64:
	.size	qspi_if_write, .Ltmp64-qspi_if_write
.Lfunc_end5:
	.cfi_endproc

	.globl	qspi_if_read
	.align	4
	.type	qspi_if_read,@function
	.cc_top qspi_if_read.function,qspi_if_read
qspi_if_read:                           # @qspi_if_read
.Lfunc_begin6:
	.loc	1 115 0                 # C:/Users/takaaki/git/sw_xSSDAC/module_flash_memory_server/src/qspi_access.xc:115:0
	.cfi_startproc
	.issue_mode dual
# BB#0:                                 # %allocas
.Lxtalabel13:
	{
		nop
		dualentsp 4
	}
.Ltmp65:
	.cfi_def_cfa_offset 16
.Ltmp66:
	.cfi_offset 15, 0
	std r5, r4, sp[1]               # 4-byte Folded Spill
.Ltmp67:
	.cfi_offset 4, -8
.Ltmp68:
	.cfi_offset 5, -4
	#DEBUG_VALUE: qspi_if_read:i <- R0
	#DEBUG_VALUE: qspi_if_read:offset <- R1
	#DEBUG_VALUE: qspi_if_read:size <- R2
	#DEBUG_VALUE: qspi_if_read:buffer <- R3
	{
		nop
		ldw r4, sp[5]
	}
	{
		nop
		ldw r11, r0[0]
	}
	{
		nop
		ldw r0, r0[1]
	}
.Ltmp69:
	{
		nop
		ldw r5, r0[1]
	}
	.loc	1 116 0 prologue_end    # C:/Users/takaaki/git/sw_xSSDAC/module_flash_memory_server/src/qspi_access.xc:116:0
.Ltmp70:
	{
		mov r0, r11
		stw r4, sp[1]
	}
.Lxta.call_labels19:
	{
		nop
		bla r5
	}
.Ltmp71:
	ldd r5, r4, sp[1]               # 4-byte Folded Reload
	{
		nop
		retsp 4
	}
	# RETURN_REG_HOLDER
.Ltmp72:
	.cc_bottom qspi_if_read.function
	.set	qspi_if_read.nstackwords,(_i.qspi_access.read.max.nstackwords + 4)
	.globl	qspi_if_read.nstackwords
	.set	qspi_if_read.maxcores,_i.qspi_access.read.max.maxcores $M 1
	.globl	qspi_if_read.maxcores
	.set	qspi_if_read.maxtimers,_i.qspi_access.read.max.maxtimers $M 0
	.globl	qspi_if_read.maxtimers
	.set	qspi_if_read.maxchanends,_i.qspi_access.read.max.maxchanends $M 0
	.globl	qspi_if_read.maxchanends
.Ltmp73:
	.size	qspi_if_read, .Ltmp73-qspi_if_read
.Lfunc_end6:
	.cfi_endproc

	.section	.dp.rodata,"awd",@progbits
	.cc_top ports.data,ports
	.globl	ports
	.align	8
	.type	ports,@object
	.size	ports, 16
ports:
	.long	65536
	.long	65792
	.long	262400
	.long	262
	.cc_bottom ports.data
	.section	.dp.data,"awd",@progbits
	.cc_top deviceSpecs.data,deviceSpecs
	.globl	deviceSpecs.globound
deviceSpecs.globound = 6
	.globl	deviceSpecs
	.align	8
	.type	deviceSpecs,@object
	.size	deviceSpecs, 672
deviceSpecs:
	.long	1                       # 0x1
	.long	256                     # 0x100
	.long	8192                    # 0x2000
	.byte	3                       # 0x3
	.space	3
	.long	3                       # 0x3
	.byte	159                     # 0x9f
	.byte	0                       # 0x0
	.byte	3                       # 0x3
	.space	1
	.long	81941                   # 0x14015
	.byte	32                      # 0x20
	.space	3
	.long	4096                    # 0x1000
	.byte	6                       # 0x6
	.byte	4                       # 0x4
	.space	2
	.long	0                       # 0x0
	.space	4
	.long	2                       # 0x2
	.byte	235                     # 0xeb
	.byte	1                       # 0x1
	.space	2
	.long	0                       # 0x0
	.long	4096                    # 0x1000
	.space	33
	.space	3
	.byte	5                       # 0x5
	.space	3
	.long	1                       # 0x1
	.byte	1                       # 0x1
	.space	3
	.long	2                       # 0x2
	.long	256                     # 0x100
	.long	16384                   # 0x4000
	.byte	3                       # 0x3
	.space	3
	.long	3                       # 0x3
	.byte	159                     # 0x9f
	.byte	0                       # 0x0
	.byte	3                       # 0x3
	.space	1
	.long	81942                   # 0x14016
	.byte	32                      # 0x20
	.space	3
	.long	4096                    # 0x1000
	.byte	6                       # 0x6
	.byte	4                       # 0x4
	.space	2
	.long	0                       # 0x0
	.space	4
	.long	2                       # 0x2
	.byte	235                     # 0xeb
	.byte	1                       # 0x1
	.space	2
	.long	0                       # 0x0
	.long	4096                    # 0x1000
	.space	33
	.space	3
	.byte	5                       # 0x5
	.space	3
	.long	1                       # 0x1
	.byte	1                       # 0x1
	.space	3
	.long	3                       # 0x3
	.long	256                     # 0x100
	.long	32768                   # 0x8000
	.byte	3                       # 0x3
	.space	3
	.long	3                       # 0x3
	.byte	159                     # 0x9f
	.byte	0                       # 0x0
	.byte	3                       # 0x3
	.space	1
	.long	81943                   # 0x14017
	.byte	32                      # 0x20
	.space	3
	.long	4096                    # 0x1000
	.byte	6                       # 0x6
	.byte	4                       # 0x4
	.space	2
	.long	0                       # 0x0
	.space	4
	.long	2                       # 0x2
	.byte	235                     # 0xeb
	.byte	1                       # 0x1
	.space	2
	.long	0                       # 0x0
	.long	4096                    # 0x1000
	.space	33
	.space	3
	.byte	5                       # 0x5
	.space	3
	.long	1                       # 0x1
	.byte	1                       # 0x1
	.space	3
	.long	4                       # 0x4
	.long	256                     # 0x100
	.long	4096                    # 0x1000
	.byte	3                       # 0x3
	.space	3
	.long	3                       # 0x3
	.byte	159                     # 0x9f
	.byte	0                       # 0x0
	.byte	3                       # 0x3
	.space	1
	.long	10305556                # 0x9d4014
	.byte	32                      # 0x20
	.space	3
	.long	4096                    # 0x1000
	.byte	6                       # 0x6
	.byte	4                       # 0x4
	.space	2
	.long	0                       # 0x0
	.space	4
	.long	2                       # 0x2
	.byte	235                     # 0xeb
	.byte	1                       # 0x1
	.space	2
	.long	0                       # 0x0
	.long	4096                    # 0x1000
	.space	33
	.space	3
	.byte	5                       # 0x5
	.space	3
	.long	1                       # 0x1
	.byte	1                       # 0x1
	.space	3
	.long	5                       # 0x5
	.long	256                     # 0x100
	.long	8192                    # 0x2000
	.byte	3                       # 0x3
	.space	3
	.long	3                       # 0x3
	.byte	159                     # 0x9f
	.byte	0                       # 0x0
	.byte	3                       # 0x3
	.space	1
	.long	10305557                # 0x9d4015
	.byte	32                      # 0x20
	.space	3
	.long	4096                    # 0x1000
	.byte	6                       # 0x6
	.byte	4                       # 0x4
	.space	2
	.long	0                       # 0x0
	.space	4
	.long	2                       # 0x2
	.byte	235                     # 0xeb
	.byte	1                       # 0x1
	.space	2
	.long	0                       # 0x0
	.long	4096                    # 0x1000
	.space	33
	.space	3
	.byte	5                       # 0x5
	.space	3
	.long	1                       # 0x1
	.byte	1                       # 0x1
	.space	3
	.long	6                       # 0x6
	.long	256                     # 0x100
	.long	16384                   # 0x4000
	.byte	3                       # 0x3
	.space	3
	.long	3                       # 0x3
	.byte	159                     # 0x9f
	.byte	0                       # 0x0
	.byte	3                       # 0x3
	.space	1
	.long	10305558                # 0x9d4016
	.byte	32                      # 0x20
	.space	3
	.long	4096                    # 0x1000
	.byte	6                       # 0x6
	.byte	4                       # 0x4
	.space	2
	.long	0                       # 0x0
	.space	4
	.long	2                       # 0x2
	.byte	235                     # 0xeb
	.byte	1                       # 0x1
	.space	2
	.long	0                       # 0x0
	.long	4096                    # 0x1000
	.space	33
	.space	3
	.byte	5                       # 0x5
	.space	3
	.long	1                       # 0x1
	.byte	1                       # 0x1
	.space	3
	.cc_bottom deviceSpecs.data
	.section	.cp.rodata.4,"ac",@progbits
	.cc_top .str6.data,.str6
	.align	4
	.type	.str6,@object
	.size	.str6, 41
.str6:
.asciiz"\nUnable to connect to a SPI flash device"
	.cc_bottom .str6.data
	.cc_top .str7.data,.str7
	.align	4
	.type	.str7,@object
	.size	.str7, 18
.str7:
.asciiz"\n\nFlash Type: %d\n"
	.cc_bottom .str7.data
	.cc_top .str8.data,.str8
	.align	4
	.type	.str8,@object
	.size	.str8, 16
.str8:
.asciiz"Flash Size: %x\n"
	.cc_bottom .str8.data
	.cc_top .str9.data,.str9
	.align	4
	.type	.str9,@object
	.size	.str9, 35
.str9:
.asciiz"Flash fl_getDataPartitionSize: %d\n"
	.cc_bottom .str9.data
	.cc_top .str10.data,.str10
	.align	4
	.type	.str10,@object
	.size	.str10, 32
.str10:
.asciiz"Flash fl_getNumDataSectors: %d\n"
	.cc_bottom .str10.data
	.cc_top .str11.data,.str11
	.align	4
	.type	.str11,@object
	.size	.str11, 35
.str11:
.asciiz"Flash fl_getDataSectorSize(0): %d\n"
	.cc_bottom .str11.data
	.cc_top .str12.data,.str12
	.align	4
	.type	.str12,@object
	.size	.str12, 41
.str12:
.asciiz"Flash fl_getWriteScratchSize(0, 64): %d\n"
	.cc_bottom .str12.data
	.cc_top .str13.data,.str13
	.align	4
	.type	.str13,@object
	.size	.str13, 34
.str13:
.asciiz"\ncouldn't allocate scratch memory"
	.cc_bottom .str13.data
	.cc_top .str24.data,.str24
	.align	4
	.type	.str24,@object
	.size	.str24, 21
.str24:
.asciiz"\nfl_writeData failed"
	.cc_bottom .str24.data
	.section	.dp.data.4,"awd",@progbits
	.cc_top __xcc1_internal_1.data,__xcc1_internal_1
	.align	4
	.type	__xcc1_internal_1,@object
	.size	__xcc1_internal_1, 4
__xcc1_internal_1:
	.long	65536
	.cc_bottom __xcc1_internal_1.data
	.cc_top __xcc1_internal_2.data,__xcc1_internal_2
	.align	4
	.type	__xcc1_internal_2,@object
	.size	__xcc1_internal_2, 4
__xcc1_internal_2:
	.long	65792
	.cc_bottom __xcc1_internal_2.data
	.cc_top __xcc1_internal_3.data,__xcc1_internal_3
	.align	4
	.type	__xcc1_internal_3,@object
	.size	__xcc1_internal_3, 4
__xcc1_internal_3:
	.long	262400
	.cc_bottom __xcc1_internal_3.data
	.cc_top __xcc1_internal_4.data,__xcc1_internal_4
	.align	4
	.type	__xcc1_internal_4,@object
	.size	__xcc1_internal_4, 4
__xcc1_internal_4:
	.long	262
	.cc_bottom __xcc1_internal_4.data
	.section	.dp.data,"awd",@progbits
.Ldebug_end0:
	.section	.dp.rodata,"awd",@progbits
.Ldebug_end1:
	.text
.Ldebug_end2:
	.file	2 "C:\\Program Files (x86)\\XMOS\\xTIMEcomposer\\Community_14.4.1\\target/include\\timer.h"
	.file	3 "C:\\Program Files (x86)\\XMOS\\xTIMEcomposer\\Community_14.4.1\\target/include/xc\\safe\\string.h"
	.section	.xtacalltable,"",@progbits
.Lentries_start0:
	.long	.Lentries_end1-.Lentries_start0
	.long	0
	.ascii	"C:\\Users\\takaaki\\git\\sw_xSSDAC\\app_usb_simple_ssdac_xSSDAC-SD-V2\\.build"
	.byte	0
.cc_top cc_0,.Lxta.call_labels0
	.ascii	"C:/Users/takaaki/git/sw_xSSDAC/module_flash_memory_server/src/qspi_access.xc"
	.byte	0
	.long	52
	.long	.Lxta.call_labels0
.cc_bottom cc_0
.cc_top cc_1,.Lxta.call_labels1
	.ascii	"C:/Users/takaaki/git/sw_xSSDAC/module_flash_memory_server/src/qspi_access.xc"
	.byte	0
	.long	54
	.long	.Lxta.call_labels1
.cc_bottom cc_1
.cc_top cc_2,.Lxta.call_labels2
	.ascii	"C:/Users/takaaki/git/sw_xSSDAC/module_flash_memory_server/src/qspi_access.xc"
	.byte	0
	.long	55
	.long	.Lxta.call_labels2
.cc_bottom cc_2
.cc_top cc_3,.Lxta.call_labels3
	.ascii	"C:/Users/takaaki/git/sw_xSSDAC/module_flash_memory_server/src/qspi_access.xc"
	.byte	0
	.long	60
	.long	.Lxta.call_labels3
.cc_bottom cc_3
.cc_top cc_4,.Lxta.call_labels4
	.ascii	"C:/Users/takaaki/git/sw_xSSDAC/module_flash_memory_server/src/qspi_access.xc"
	.byte	0
	.long	61
	.long	.Lxta.call_labels4
.cc_bottom cc_4
.cc_top cc_5,.Lxta.call_labels5
	.ascii	"C:/Users/takaaki/git/sw_xSSDAC/module_flash_memory_server/src/qspi_access.xc"
	.byte	0
	.long	62
	.long	.Lxta.call_labels5
.cc_bottom cc_5
.cc_top cc_6,.Lxta.call_labels6
	.ascii	"C:/Users/takaaki/git/sw_xSSDAC/module_flash_memory_server/src/qspi_access.xc"
	.byte	0
	.long	63
	.long	.Lxta.call_labels6
.cc_bottom cc_6
.cc_top cc_7,.Lxta.call_labels7
	.ascii	"C:/Users/takaaki/git/sw_xSSDAC/module_flash_memory_server/src/qspi_access.xc"
	.byte	0
	.long	64
	.long	.Lxta.call_labels7
.cc_bottom cc_7
.cc_top cc_8,.Lxta.call_labels8
	.ascii	"C:/Users/takaaki/git/sw_xSSDAC/module_flash_memory_server/src/qspi_access.xc"
	.byte	0
	.long	65
	.long	.Lxta.call_labels8
.cc_bottom cc_8
.cc_top cc_9,.Lxta.call_labels9
	.ascii	"C:/Users/takaaki/git/sw_xSSDAC/module_flash_memory_server/src/qspi_access.xc"
	.byte	0
	.long	66
	.long	.Lxta.call_labels9
.cc_bottom cc_9
.cc_top cc_10,.Lxta.call_labels10
	.ascii	"C:/Users/takaaki/git/sw_xSSDAC/module_flash_memory_server/src/qspi_access.xc"
	.byte	0
	.long	77
	.long	.Lxta.call_labels10
.cc_bottom cc_10
.cc_top cc_11,.Lxta.call_labels11
	.ascii	"C:/Users/takaaki/git/sw_xSSDAC/module_flash_memory_server/src/qspi_access.xc"
	.byte	0
	.long	81
	.long	.Lxta.call_labels11
.cc_bottom cc_11
.cc_top cc_12,.Lxta.call_labels15
	.ascii	"C:/Users/takaaki/git/sw_xSSDAC/module_flash_memory_server/src/qspi_access.xc"
	.byte	0
	.long	83
	.long	.Lxta.call_labels15
.cc_bottom cc_12
.cc_top cc_13,.Lxta.call_labels12
	.ascii	"C:/Users/takaaki/git/sw_xSSDAC/module_flash_memory_server/src/qspi_access.xc"
	.byte	0
	.long	87
	.long	.Lxta.call_labels12
.cc_bottom cc_13
.cc_top cc_14,.Lxta.call_labels13
	.ascii	"C:/Users/takaaki/git/sw_xSSDAC/module_flash_memory_server/src/qspi_access.xc"
	.byte	0
	.long	89
	.long	.Lxta.call_labels13
.cc_bottom cc_14
.cc_top cc_15,.Lxta.call_labels14
	.ascii	"C:/Users/takaaki/git/sw_xSSDAC/module_flash_memory_server/src/qspi_access.xc"
	.byte	0
	.long	91
	.long	.Lxta.call_labels14
.cc_bottom cc_15
.cc_top cc_16,.Lxta.call_labels16
	.ascii	"C:/Users/takaaki/git/sw_xSSDAC/module_flash_memory_server/src/qspi_access.xc"
	.byte	0
	.long	93
	.long	.Lxta.call_labels16
.cc_bottom cc_16
.cc_top cc_17,.Lxta.call_labels17
	.ascii	"C:/Users/takaaki/git/sw_xSSDAC/module_flash_memory_server/src/qspi_access.xc"
	.byte	0
	.long	107
	.long	.Lxta.call_labels17
.cc_bottom cc_17
.cc_top cc_18,.Lxta.call_labels19
	.ascii	"C:/Users/takaaki/git/sw_xSSDAC/module_flash_memory_server/src/qspi_access.xc"
	.byte	0
	.long	116
	.long	.Lxta.call_labels19
.cc_bottom cc_18
.cc_top cc_19,.Lxta.call_labels18
	.ascii	"C:/Users/takaaki/git/sw_xSSDAC/module_flash_memory_server/src/qspi_access.xc"
	.byte	0
	.long	121
	.long	.Lxta.call_labels18
.cc_bottom cc_19
.Lentries_end1:
	.section	.xtalabeltable,"",@progbits
.Lentries_start2:
	.long	.Lentries_end3-.Lentries_start2
	.long	0
	.ascii	"C:\\Users\\takaaki\\git\\sw_xSSDAC\\app_usb_simple_ssdac_xSSDAC-SD-V2\\.build"
	.byte	0
.cc_top cc_20,.Lxtalabel0
	.ascii	"C:/Users/takaaki/git/sw_xSSDAC/module_flash_memory_server/src/qspi_access.xc"
	.byte	0
	.long	52
	.long	52
	.long	.Lxtalabel0
.cc_bottom cc_20
.cc_top cc_21,.Lxtalabel1
	.ascii	"C:/Users/takaaki/git/sw_xSSDAC/module_flash_memory_server/src/qspi_access.xc"
	.byte	0
	.long	53
	.long	56
	.long	.Lxtalabel1
.cc_bottom cc_21
.cc_top cc_22,.Lxtalabel2
	.ascii	"C:/Users/takaaki/git/sw_xSSDAC/module_flash_memory_server/src/qspi_access.xc"
	.byte	0
	.long	60
	.long	66
	.long	.Lxtalabel2
.cc_bottom cc_22
.cc_top cc_23,.Lxtalabel2
	.ascii	"C:/Users/takaaki/git/sw_xSSDAC/module_flash_memory_server/src/qspi_access.xc"
	.byte	0
	.long	69
	.long	72
	.long	.Lxtalabel2
.cc_bottom cc_23
.cc_top cc_24,.Lxtalabel2
	.ascii	"C:/Users/takaaki/git/sw_xSSDAC/module_flash_memory_server/src/qspi_access.xc"
	.byte	0
	.long	74
	.long	74
	.long	.Lxtalabel2
.cc_bottom cc_24
.cc_top cc_25,.Lxtalabel3
	.ascii	"C:/Users/takaaki/git/sw_xSSDAC/module_flash_memory_server/src/qspi_access.xc"
	.byte	0
	.long	75
	.long	76
	.long	.Lxtalabel3
.cc_bottom cc_25
.cc_top cc_26,.Lxtalabel5
	.ascii	"C:/Users/takaaki/git/sw_xSSDAC/module_flash_memory_server/src/qspi_access.xc"
	.byte	0
	.long	77
	.long	77
	.long	.Lxtalabel5
.cc_bottom cc_26
.cc_top cc_27,.Lxtalabel5
	.ascii	"C:/Users/takaaki/git/sw_xSSDAC/module_flash_memory_server/src/qspi_access.xc"
	.byte	0
	.long	80
	.long	82
	.long	.Lxtalabel5
.cc_bottom cc_27
.cc_top cc_28,.Lxtalabel9
	.ascii	"C:/Users/takaaki/git/sw_xSSDAC/module_flash_memory_server/src/qspi_access.xc"
	.byte	0
	.long	83
	.long	84
	.long	.Lxtalabel9
.cc_bottom cc_28
.cc_top cc_29,.Lxtalabel6
	.ascii	"C:/Users/takaaki/git/sw_xSSDAC/module_flash_memory_server/src/qspi_access.xc"
	.byte	0
	.long	85
	.long	87
	.long	.Lxtalabel6
.cc_bottom cc_29
.cc_top cc_30,.Lxtalabel7
	.ascii	"C:/Users/takaaki/git/sw_xSSDAC/module_flash_memory_server/src/qspi_access.xc"
	.byte	0
	.long	88
	.long	90
	.long	.Lxtalabel7
.cc_bottom cc_30
.cc_top cc_31,.Lxtalabel8
	.ascii	"C:/Users/takaaki/git/sw_xSSDAC/module_flash_memory_server/src/qspi_access.xc"
	.byte	0
	.long	91
	.long	91
	.long	.Lxtalabel8
.cc_bottom cc_31
.cc_top cc_32,.Lxtalabel8
	.ascii	"C:/Users/takaaki/git/sw_xSSDAC/module_flash_memory_server/src/qspi_access.xc"
	.byte	0
	.long	92
	.long	92
	.long	.Lxtalabel8
.cc_bottom cc_32
.cc_top cc_33,.Lxtalabel10
	.ascii	"C:/Users/takaaki/git/sw_xSSDAC/module_flash_memory_server/src/qspi_access.xc"
	.byte	0
	.long	93
	.long	93
	.long	.Lxtalabel10
.cc_bottom cc_33
.cc_top cc_34,.Lxtalabel10
	.ascii	"C:/Users/takaaki/git/sw_xSSDAC/module_flash_memory_server/src/qspi_access.xc"
	.byte	0
	.long	94
	.long	95
	.long	.Lxtalabel10
.cc_bottom cc_34
.cc_top cc_35,.Lxtalabel4
	.ascii	"C:/Users/takaaki/git/sw_xSSDAC/module_flash_memory_server/src/qspi_access.xc"
	.byte	0
	.long	97
	.long	98
	.long	.Lxtalabel4
.cc_bottom cc_35
.cc_top cc_36,.Lxtalabel11
	.ascii	"C:/Users/takaaki/git/sw_xSSDAC/module_flash_memory_server/src/qspi_access.xc"
	.byte	0
	.long	99
	.long	99
	.long	.Lxtalabel11
.cc_bottom cc_36
.cc_top cc_37,.Lxtalabel11
	.ascii	"C:/Users/takaaki/git/sw_xSSDAC/module_flash_memory_server/src/qspi_access.xc"
	.byte	0
	.long	100
	.long	100
	.long	.Lxtalabel11
.cc_bottom cc_37
.cc_top cc_38,.Lxtalabel11
	.ascii	"C:/Users/takaaki/git/sw_xSSDAC/module_flash_memory_server/src/qspi_access.xc"
	.byte	0
	.long	101
	.long	105
	.long	.Lxtalabel11
.cc_bottom cc_38
.cc_top cc_39,.Lxtalabel13
	.ascii	"C:/Users/takaaki/git/sw_xSSDAC/module_flash_memory_server/src/qspi_access.xc"
	.byte	0
	.long	115
	.long	117
	.long	.Lxtalabel13
.cc_bottom cc_39
.cc_top cc_40,.Lxtalabel12
	.ascii	"C:/Users/takaaki/git/sw_xSSDAC/module_flash_memory_server/src/qspi_access.xc"
	.byte	0
	.long	120
	.long	122
	.long	.Lxtalabel12
.cc_bottom cc_40
.Lentries_end3:
	.section	.trap_info,"",@progbits
.Ltrap_info_entries_start0:
	.long	.Ltrap_info_entries_end0-.Ltrap_info_entries_start0
	.long	1
	.section	.trap_info_str,"MS",@progbits
.Ltrap_info_str0:
.asciiz"C:/Users/takaaki/git/sw_xSSDAC/module_flash_memory_server/src/qspi_access.xc:100:24: error: out of bounds write to memcpy destination parameter\n                memcpy(write_buffer, buffer, size );\n                       ^~~~~~~~~~~~\nC:\\Program Files (x86)\\XMOS\\xTIMEcomposer\\Community_14.4.1\\target/include/xc\\string.h:14:40: note: expanded from macro 'memcpy'\n#define memcpy(s1, s2, n) _safe_memcpy(s1, s2, n)\n                                       ^\nC:\\Program Files (x86)\\XMOS\\xTIMEcomposer\\Community_14.4.1\\target/include/xc\\safe/string.h:11:53: note: expanded from macro '_safe_memcpy'\n#define _safe_memcpy(s1, s2, n) __builtin_memcpy_xc(s1, s2, n)\n                                                    ^\n"
	.section	.trap_info,"",@progbits
.cc_top cc_trapinfo_0,.Ltrap_info0
	.long	.Ltrap_info0
	.long	.Ltrap_info_str0
.cc_bottom cc_trapinfo_0
	.section	.trap_info_str,"MS",@progbits
.Ltrap_info_str1:
.asciiz"C:/Users/takaaki/git/sw_xSSDAC/module_flash_memory_server/src/qspi_access.xc:100:38: error: out of bounds write to memcpy destination parameter\n                memcpy(write_buffer, buffer, size );\n                                     ^~~~~~\nC:\\Program Files (x86)\\XMOS\\xTIMEcomposer\\Community_14.4.1\\target/include/xc\\string.h:14:44: note: expanded from macro 'memcpy'\n#define memcpy(s1, s2, n) _safe_memcpy(s1, s2, n)\n                                           ^\nC:\\Program Files (x86)\\XMOS\\xTIMEcomposer\\Community_14.4.1\\target/include/xc\\safe/string.h:11:57: note: expanded from macro '_safe_memcpy'\n#define _safe_memcpy(s1, s2, n) __builtin_memcpy_xc(s1, s2, n)\n                                                        ^\n"
	.section	.trap_info,"",@progbits
.cc_top cc_trapinfo_1,.Ltrap_info1
	.long	.Ltrap_info1
	.long	.Ltrap_info_str1
.cc_bottom cc_trapinfo_1
	.section	.trap_info_str,"MS",@progbits
.Ltrap_info_str2:
.asciiz"C:/Users/takaaki/git/sw_xSSDAC/module_flash_memory_server/src/qspi_access.xc:87:60: error: conversion of out-of-bounds pointer to array reference\n                if(fl_writeData(write_offset, write_count, write_buffer, scratch ) != 0)\n                                                           ^~~~~~~~~~~~\n"
	.section	.trap_info,"",@progbits
.cc_top cc_trapinfo_2,.Ltrap_info2
	.long	.Ltrap_info2
	.long	.Ltrap_info_str2
.cc_bottom cc_trapinfo_2
	.section	.trap_info_str,"MS",@progbits
.Ltrap_info_str3:
.asciiz"C:/Users/takaaki/git/sw_xSSDAC/module_flash_memory_server/src/qspi_access.xc:87:60: error: conversion of out-of-bounds pointer to array reference\n                if(fl_writeData(write_offset, write_count, write_buffer, scratch ) != 0)\n                                                           ^~~~~~~~~~~~\n"
	.section	.trap_info,"",@progbits
.cc_top cc_trapinfo_3,.Ltrap_info3
	.long	.Ltrap_info3
	.long	.Ltrap_info_str3
.cc_bottom cc_trapinfo_3
	.section	.trap_info_str,"MS",@progbits
.Ltrap_info_str4:
.asciiz"C:/Users/takaaki/git/sw_xSSDAC/module_flash_memory_server/src/qspi_access.xc:87:74: error: conversion of out-of-bounds pointer to array reference\n                if(fl_writeData(write_offset, write_count, write_buffer, scratch ) != 0)\n                                                                         ^~~~~~~\n"
	.section	.trap_info,"",@progbits
.cc_top cc_trapinfo_4,.Ltrap_info4
	.long	.Ltrap_info4
	.long	.Ltrap_info_str4
.cc_bottom cc_trapinfo_4
	.section	.trap_info_str,"MS",@progbits
.Ltrap_info_str5:
.asciiz"C:/Users/takaaki/git/sw_xSSDAC/module_flash_memory_server/src/qspi_access.xc:87:74: error: conversion of out-of-bounds pointer to array reference\n                if(fl_writeData(write_offset, write_count, write_buffer, scratch ) != 0)\n                                                                         ^~~~~~~\n"
	.section	.trap_info,"",@progbits
.cc_top cc_trapinfo_5,.Ltrap_info5
	.long	.Ltrap_info5
	.long	.Ltrap_info_str5
.cc_bottom cc_trapinfo_5
	.section	.trap_info_str,"MS",@progbits
.Ltrap_info_str6:
.asciiz"C:/Users/takaaki/git/sw_xSSDAC/module_flash_memory_server/src/qspi_access.xc:87:20: error: function arguments alias same memory region\n                if(fl_writeData(write_offset, write_count, write_buffer, scratch ) != 0)\n                   ^~~~~~~~~~~~~~~~~~~~~~~~~~~~~~~~~~~~~~~~~~~~~~~~~~~~~~~~~~~~~~~\nC:/Users/takaaki/git/sw_xSSDAC/module_flash_memory_server/src/qspi_access.xc:87:74: note: aliased object is here\n                if(fl_writeData(write_offset, write_count, write_buffer, scratch ) != 0)\n                                                                         ^~~~~~~\nC:/Users/takaaki/git/sw_xSSDAC/module_flash_memory_server/src/qspi_access.xc:87:60: note: aliased object is here\n                if(fl_writeData(write_offset, write_count, write_buffer, scratch ) != 0)\n                                                           ^~~~~~~~~~~~\n"
	.section	.trap_info,"",@progbits
.cc_top cc_trapinfo_6,.Ltrap_info6
	.long	.Ltrap_info6
	.long	.Ltrap_info_str6
.cc_bottom cc_trapinfo_6
	.section	.trap_info_str,"MS",@progbits
.Ltrap_info_str7:
.asciiz"C:/Users/takaaki/git/sw_xSSDAC/module_flash_memory_server/src/qspi_access.xc:107:53: error: conversion of out-of-bounds pointer to array reference\n                int rc2 = fl_readData(offset, size, read_buffer);\n                                                    ^~~~~~~~~~~\n"
	.section	.trap_info,"",@progbits
.cc_top cc_trapinfo_7,.Ltrap_info7
	.long	.Ltrap_info7
	.long	.Ltrap_info_str7
.cc_bottom cc_trapinfo_7
	.section	.trap_info_str,"MS",@progbits
.Ltrap_info_str8:
.asciiz"C:/Users/takaaki/git/sw_xSSDAC/module_flash_memory_server/src/qspi_access.xc:107:53: error: conversion of out-of-bounds pointer to array reference\n                int rc2 = fl_readData(offset, size, read_buffer);\n                                                    ^~~~~~~~~~~\n"
	.section	.trap_info,"",@progbits
.cc_top cc_trapinfo_8,.Ltrap_info8
	.long	.Ltrap_info8
	.long	.Ltrap_info_str8
.cc_bottom cc_trapinfo_8
	.section	.trap_info_str,"MS",@progbits
.Ltrap_info_str9:
.asciiz"C:/Users/takaaki/git/sw_xSSDAC/module_flash_memory_server/src/qspi_access.xc:108:32: error: out of bounds read from memcpy source parameter\n                memcpy(buffer, read_buffer, size );\n                               ^~~~~~~~~~~\nC:\\Program Files (x86)\\XMOS\\xTIMEcomposer\\Community_14.4.1\\target/include/xc\\string.h:14:44: note: expanded from macro 'memcpy'\n#define memcpy(s1, s2, n) _safe_memcpy(s1, s2, n)\n                                           ^\nC:\\Program Files (x86)\\XMOS\\xTIMEcomposer\\Community_14.4.1\\target/include/xc\\safe/string.h:11:57: note: expanded from macro '_safe_memcpy'\n#define _safe_memcpy(s1, s2, n) __builtin_memcpy_xc(s1, s2, n)\n                                                        ^\n"
	.section	.trap_info,"",@progbits
.cc_top cc_trapinfo_9,.Ltrap_info9
	.long	.Ltrap_info9
	.long	.Ltrap_info_str9
.cc_bottom cc_trapinfo_9
	.section	.trap_info_str,"MS",@progbits
.Ltrap_info_str10:
.asciiz"C:/Users/takaaki/git/sw_xSSDAC/module_flash_memory_server/src/qspi_access.xc:108:24: error: out of bounds write to memcpy destination parameter\n                memcpy(buffer, read_buffer, size );\n                       ^~~~~~\nC:\\Program Files (x86)\\XMOS\\xTIMEcomposer\\Community_14.4.1\\target/include/xc\\string.h:14:40: note: expanded from macro 'memcpy'\n#define memcpy(s1, s2, n) _safe_memcpy(s1, s2, n)\n                                       ^\nC:\\Program Files (x86)\\XMOS\\xTIMEcomposer\\Community_14.4.1\\target/include/xc\\safe/string.h:11:53: note: expanded from macro '_safe_memcpy'\n#define _safe_memcpy(s1, s2, n) __builtin_memcpy_xc(s1, s2, n)\n                                                    ^\n"
	.section	.trap_info,"",@progbits
.cc_top cc_trapinfo_10,.Ltrap_info10
	.long	.Ltrap_info10
	.long	.Ltrap_info_str10
.cc_bottom cc_trapinfo_10
.Ltrap_info_entries_end0: