	.text
	.file	"C:/Users/takaaki/git/sw_xSSDAC/module_operation_console/src/display_control.xc"
                                        # Start of file scope inline assembly
	.inline_definition delay_seconds
	.inline_definition delay_milliseconds
	.inline_definition delay_microseconds
	.inline_definition _safe_memcmp
	.inline_definition _safe_memmove
	.inline_definition _safe_memset
	.globalresource 0x40500,"r_i2c2.p_i2c","tile[1]"
	.pushsection .netinfo, "", @netinfo
	.int      0x1eaba15c
.locl __xcc1_internal_1.info, "p"
__xcc1_internal_1.info:
	.int 0x00040500
	.long tile + 4
.sameresource __xcc1_internal_1, r_i2c2, 0
	.popsection
	.weak _i.qspi_access.write.maxchanends.group
	.max_reduce _i.qspi_access.write.max.maxchanends, _i.qspi_access.write.maxchanends.group, 0
	.weak _i.qspi_access.write.maxcores.group
	.max_reduce _i.qspi_access.write.max.maxcores, _i.qspi_access.write.maxcores.group, 0
	.weak _i.qspi_access.write.maxtimers.group
	.max_reduce _i.qspi_access.write.max.maxtimers, _i.qspi_access.write.maxtimers.group, 0
	.weak _i.qspi_access.write.nstackwords.group
	.globl _i.qspi_access.write.nstackwords.group
	.weak _i.qspi_access.write.fns.group
	.globl _i.qspi_access.write.fns.group
	.max_reduce _i.qspi_access.write.max.nstackwords, _i.qspi_access.write.nstackwords.group, 0
	.max_reduce _i.qspi_access.write.fns, _i.qspi_access.write.fns.group, 0
	.weak _i.qspi_access.read.maxchanends.group
	.max_reduce _i.qspi_access.read.max.maxchanends, _i.qspi_access.read.maxchanends.group, 0
	.weak _i.qspi_access.read.maxcores.group
	.max_reduce _i.qspi_access.read.max.maxcores, _i.qspi_access.read.maxcores.group, 0
	.weak _i.qspi_access.read.maxtimers.group
	.max_reduce _i.qspi_access.read.max.maxtimers, _i.qspi_access.read.maxtimers.group, 0
	.weak _i.qspi_access.read.nstackwords.group
	.globl _i.qspi_access.read.nstackwords.group
	.weak _i.qspi_access.read.fns.group
	.globl _i.qspi_access.read.fns.group
	.max_reduce _i.qspi_access.read.max.nstackwords, _i.qspi_access.read.nstackwords.group, 0
	.max_reduce _i.qspi_access.read.fns, _i.qspi_access.read.fns.group, 0
	.weak _i.qspi_access.__interface_init.maxchanends.group
	.max_reduce _i.qspi_access.__interface_init.max.maxchanends, _i.qspi_access.__interface_init.maxchanends.group, 0
	.weak _i.qspi_access.__interface_init.maxcores.group
	.max_reduce _i.qspi_access.__interface_init.max.maxcores, _i.qspi_access.__interface_init.maxcores.group, 0
	.weak _i.qspi_access.__interface_init.maxtimers.group
	.max_reduce _i.qspi_access.__interface_init.max.maxtimers, _i.qspi_access.__interface_init.maxtimers.group, 0
	.weak _i.qspi_access.__interface_init.nstackwords.group
	.globl _i.qspi_access.__interface_init.nstackwords.group
	.weak _i.qspi_access.__interface_init.fns.group
	.globl _i.qspi_access.__interface_init.fns.group
	.max_reduce _i.qspi_access.__interface_init.max.nstackwords, _i.qspi_access.__interface_init.nstackwords.group, 0
	.max_reduce _i.qspi_access.__interface_init.fns, _i.qspi_access.__interface_init.fns.group, 0
	.weak _i.qspi_access._client_call_y.maxchanends.group
	.add_to_set _i.qspi_access._client_call_y.maxchanends.group, (__interface_client_call_y_other.maxchanends + __interface_client_call_y_extra.maxchanends), __interface_client_call_y_other
	.max_reduce _i.qspi_access._client_call_y.max.maxchanends, _i.qspi_access._client_call_y.maxchanends.group, 0
	.weak _i.qspi_access._client_call_y.maxcores.group
	.add_to_set _i.qspi_access._client_call_y.maxcores.group, (__interface_client_call_y_other.maxcores + __interface_client_call_y_extra.maxcores), __interface_client_call_y_other
	.max_reduce _i.qspi_access._client_call_y.max.maxcores, _i.qspi_access._client_call_y.maxcores.group, 0
	.weak _i.qspi_access._client_call_y.maxtimers.group
	.add_to_set _i.qspi_access._client_call_y.maxtimers.group, (__interface_client_call_y_other.maxtimers + __interface_client_call_y_extra.maxtimers), __interface_client_call_y_other
	.max_reduce _i.qspi_access._client_call_y.max.maxtimers, _i.qspi_access._client_call_y.maxtimers.group, 0
	.weak _i.qspi_access._client_call_y.nstackwords.group
	.globl _i.qspi_access._client_call_y.nstackwords.group
	.weak _i.qspi_access._client_call_y.fns.group
	.globl _i.qspi_access._client_call_y.fns.group
	.add_to_set _i.qspi_access._client_call_y.nstackwords.group, (__interface_client_call_y_other.nstackwords + __interface_client_call_y_extra.nstackwords), __interface_client_call_y_other
	.add_to_set _i.qspi_access._client_call_y.fns.group, __interface_client_call_y_other, __interface_client_call_y_other
	.max_reduce _i.qspi_access._client_call_y.max.nstackwords, _i.qspi_access._client_call_y.nstackwords.group, 0
	.max_reduce _i.qspi_access._client_call_y.fns, _i.qspi_access._client_call_y.fns.group, 0
	.set usage.anon.0,0
	.set usage.anon.1,0
	.set usage.anon.2,0
	.set usage.anon.3,0
	.set usage.anon.4,0
	.set usage.anon.5,0
	.set usage.anon.6,0
	.globread SelectedFunction,selected_function,"C:/Users/takaaki/git/sw_xSSDAC/module_operation_console/src/display_control.xc:234:19: note: object used here\n    unsafe {p = & selected_function; temp = * p; }\n                  ^~~~~~~~~~~~~~~~~"
	.globread FixedInterpolationMode,fixed_intpol_mode,"C:/Users/takaaki/git/sw_xSSDAC/module_operation_console/src/display_control.xc:198:19: note: object used here\n    unsafe {p = & fixed_intpol_mode; temp = * p; }\n                  ^~~~~~~~~~~~~~~~~"
	.globread ProposedInterpolationMode,proposed_intpol_mode,"C:/Users/takaaki/git/sw_xSSDAC/module_operation_console/src/display_control.xc:189:19: note: object used here\n    unsafe {p = & proposed_intpol_mode; temp = * p; }\n                  ^~~~~~~~~~~~~~~~~~~~"
	.globread UpdateTime,SecElapsed,"C:/Users/takaaki/git/sw_xSSDAC/module_operation_console/src/display_control.xc:152:20: note: object used here\n    unsigned min = SecElapsed / 60;\n                   ^~~~~~~~~~"
	.globread GetStreamFormatString,SampRes,"C:/Users/takaaki/git/sw_xSSDAC/module_operation_console/src/display_control.xc:143:66: note: object used here\n    sprintf(str,\"%dch %d.%dksps %dbit\\0\", NumChan, freq, freq_p, SampRes);\n                                                                 ^~~~~~~"
	.globread GetStreamFormatString,SampFreq,"C:/Users/takaaki/git/sw_xSSDAC/module_operation_console/src/display_control.xc:141:16: note: object used here\n    int freq = SampFreq / 1000;\n               ^~~~~~~~"
	.globread GetStreamFormatString,NumChan,"C:/Users/takaaki/git/sw_xSSDAC/module_operation_console/src/display_control.xc:143:43: note: object used here\n    sprintf(str,\"%dch %d.%dksps %dbit\\0\", NumChan, freq, freq_p, SampRes);\n                                          ^~~~~~~"
	.globread ShowStreamFormat,SampRes,"C:/Users/takaaki/git/sw_xSSDAC/module_operation_console/src/display_control.xc:132:83: note: object used here\n    sprintf(stream_format_string,\"%dch %d.%dksps %dbit\\0\", NumChan, freq, freq_p, SampRes);\n                                                                                  ^~~~~~~"
	.globread ShowStreamFormat,SampFreq,"C:/Users/takaaki/git/sw_xSSDAC/module_operation_console/src/display_control.xc:130:16: note: object used here\n    int freq = SampFreq / 1000;\n               ^~~~~~~~"
	.globread ShowStreamFormat,NumChan,"C:/Users/takaaki/git/sw_xSSDAC/module_operation_console/src/display_control.xc:132:60: note: object used here\n    sprintf(stream_format_string,\"%dch %d.%dksps %dbit\\0\", NumChan, freq, freq_p, SampRes);\n                                                           ^~~~~~~"
	.globread update_stream_format,SampRes,"C:/Users/takaaki/git/sw_xSSDAC/module_operation_console/src/display_control.xc:124:16: note: object used here\n        ptr = &SampRes; *ptr = samp_res;\n               ^~~~~~~"
	.globread update_stream_format,NumChan,"C:/Users/takaaki/git/sw_xSSDAC/module_operation_console/src/display_control.xc:123:16: note: object used here\n        ptr = &NumChan; *ptr = num_chan;\n               ^~~~~~~"
	.globread update_stream_format,display_control_flag,"C:/Users/takaaki/git/sw_xSSDAC/module_operation_console/src/display_control.xc:125:16: note: object used here\n        ptr = &display_control_flag; *ptr |= BITMASK_SHOW_STREAM_FORMAT;\n               ^~~~~~~~~~~~~~~~~~~~"
	.globread update_samp_freq,SampFreq,"C:/Users/takaaki/git/sw_xSSDAC/module_operation_console/src/display_control.xc:114:16: note: object used here\n        ptr = &SampFreq; *ptr = freq;\n               ^~~~~~~~"
	.globread update_samp_freq,display_control_flag,"C:/Users/takaaki/git/sw_xSSDAC/module_operation_console/src/display_control.xc:115:16: note: object used here\n        ptr = &display_control_flag; *ptr |= BITMASK_SHOW_STREAM_FORMAT;\n               ^~~~~~~~~~~~~~~~~~~~"
	.globread set_console_mode,console_mode,"C:/Users/takaaki/git/sw_xSSDAC/module_operation_console/src/display_control.xc:101:16: note: object used here\n        ptr = &console_mode;\n               ^~~~~~~~~~~~"
	.globread get_console_mode,console_mode,"C:/Users/takaaki/git/sw_xSSDAC/module_operation_console/src/display_control.xc:93:16: note: object used here\n        ptr = &console_mode;\n               ^~~~~~~~~~~~"
	.globread clear_display_control_flag,display_control_flag,"C:/Users/takaaki/git/sw_xSSDAC/module_operation_console/src/display_control.xc:83:16: note: object used here\n        ptr = &display_control_flag;\n               ^~~~~~~~~~~~~~~~~~~~"
	.globread test_display_control_flag,display_control_flag,"C:/Users/takaaki/git/sw_xSSDAC/module_operation_console/src/display_control.xc:75:16: note: object used here\n        ptr = &display_control_flag;\n               ^~~~~~~~~~~~~~~~~~~~"
	.globread set_display_control_flag,display_control_flag,"C:/Users/takaaki/git/sw_xSSDAC/module_operation_console/src/display_control.xc:67:16: note: object used here\n        ptr = &display_control_flag;\n               ^~~~~~~~~~~~~~~~~~~~"
	.globwrite handle_display_frame,scrolling_row,"C:/Users/takaaki/git/sw_xSSDAC/module_operation_console/src/display_control.xc:366:17: note: object used here\n                scrolling_row++;\n                ^~~~~~~~~~~~~"
	.globwrite handle_display_frame,pause_counter,"C:/Users/takaaki/git/sw_xSSDAC/module_operation_console/src/display_control.xc:359:13: note: object used here\n            pause_counter--;\n            ^~~~~~~~~~~~~"
	.globwrite handle_display_frame,usage.anon.6,"C:/Users/takaaki/git/sw_xSSDAC/module_operation_console/src/display_control.xc:361:17: note: object used here\n                state = _SCROLLING;\n                ^~~~~"
	.globwrite init_display_frame,scrolling_row,"C:/Users/takaaki/git/sw_xSSDAC/module_operation_console/src/display_control.xc:260:5: note: object used here\n    scrolling_row = 0;\n    ^~~~~~~~~~~~~"
	.globwrite init_display_frame,pause_counter,"C:/Users/takaaki/git/sw_xSSDAC/module_operation_console/src/display_control.xc:259:5: note: object used here\n    pause_counter = PAUSE_COUNT;\n    ^~~~~~~~~~~~~"
	.globwrite init_display_frame,usage.anon.6,"C:/Users/takaaki/git/sw_xSSDAC/module_operation_console/src/display_control.xc:258:5: note: object used here\n    state = _PAUSING;\n    ^~~~~"
	.globwrite ShowAudioProperty,scrolling_row,"C:/Users/takaaki/git/sw_xSSDAC/module_operation_console/src/display_control.xc:180:5: note: object used here\n    scrolling_row = row;\n    ^~~~~~~~~~~~~"
	.globwrite ShowAudioProperty,pause_counter,"C:/Users/takaaki/git/sw_xSSDAC/module_operation_console/src/display_control.xc:178:5: note: object used here\n    pause_counter = PAUSE_COUNT;\n    ^~~~~~~~~~~~~"
	.globwrite ShowAudioProperty,usage.anon.6,"C:/Users/takaaki/git/sw_xSSDAC/module_operation_console/src/display_control.xc:179:5: note: object used here\n    state = _PAUSING;\n    ^~~~~"
	.globwrite ShowAudioProperty,audio_property_string,"C:/Users/takaaki/git/sw_xSSDAC/module_operation_console/src/display_control.xc:177:34: note: object used here\n    OLED_SSD1306_put_string(row, audio_property_string);\n                                 ^~~~~~~~~~~~~~~~~~~~~"
	.globwrite ShowTrack,scrolling_row,"C:/Users/takaaki/git/sw_xSSDAC/module_operation_console/src/display_control.xc:171:5: note: object used here\n    scrolling_row = row;\n    ^~~~~~~~~~~~~"
	.globwrite ShowTrack,pause_counter,"C:/Users/takaaki/git/sw_xSSDAC/module_operation_console/src/display_control.xc:169:5: note: object used here\n    pause_counter = PAUSE_COUNT;\n    ^~~~~~~~~~~~~"
	.globwrite ShowTrack,usage.anon.6,"C:/Users/takaaki/git/sw_xSSDAC/module_operation_console/src/display_control.xc:170:5: note: object used here\n    state = _PAUSING;\n    ^~~~~"
	.globwrite ShowTrack,track_string,"C:/Users/takaaki/git/sw_xSSDAC/module_operation_console/src/display_control.xc:168:34: note: object used here\n    OLED_SSD1306_put_string(row, track_string);\n                                 ^~~~~~~~~~~~"
	.globwrite ShowFolder,scrolling_row,"C:/Users/takaaki/git/sw_xSSDAC/module_operation_console/src/display_control.xc:162:5: note: object used here\n    scrolling_row = row;\n    ^~~~~~~~~~~~~"
	.globwrite ShowFolder,pause_counter,"C:/Users/takaaki/git/sw_xSSDAC/module_operation_console/src/display_control.xc:160:5: note: object used here\n    pause_counter = PAUSE_COUNT;\n    ^~~~~~~~~~~~~"
	.globwrite ShowFolder,usage.anon.6,"C:/Users/takaaki/git/sw_xSSDAC/module_operation_console/src/display_control.xc:161:5: note: object used here\n    state = _PAUSING;\n    ^~~~~"
	.globwrite ShowFolder,folder_string,"C:/Users/takaaki/git/sw_xSSDAC/module_operation_console/src/display_control.xc:159:34: note: object used here\n    OLED_SSD1306_put_string(row, folder_string);\n                                 ^~~~~~~~~~~~~"
	.globwrite ShowStreamFormat,stream_format_string,"C:/Users/takaaki/git/sw_xSSDAC/module_operation_console/src/display_control.xc:133:20: note: object used here\n    printf(\"\\n%s\", stream_format_string);\n                   ^~~~~~~~~~~~~~~~~~~~"
	.globwrite ShowStreamFormat,scrolling_row,"C:/Users/takaaki/git/sw_xSSDAC/module_operation_console/src/display_control.xc:137:5: note: object used here\n    scrolling_row = row;\n    ^~~~~~~~~~~~~"
	.globwrite ShowStreamFormat,pause_counter,"C:/Users/takaaki/git/sw_xSSDAC/module_operation_console/src/display_control.xc:135:5: note: object used here\n    pause_counter = PAUSE_COUNT;\n    ^~~~~~~~~~~~~"
	.globwrite ShowStreamFormat,usage.anon.6,"C:/Users/takaaki/git/sw_xSSDAC/module_operation_console/src/display_control.xc:136:5: note: object used here\n    state = _PAUSING;\n    ^~~~~"
	.call display_control_core,init_display_frame
	.call display_control_core,handle_display_frame
	.call handle_display_frame,test_display_control_flag
	.call handle_display_frame,get_console_mode
	.call handle_display_frame,clear_display_control_flag
	.call handle_display_frame,UpdateTime
	.call handle_display_frame,ShowTrack
	.call handle_display_frame,ShowStreamFormat
	.call handle_display_frame,ShowInterpolationMode
	.call handle_display_frame,ShowFolder
	.call handle_display_frame,ShowAudioProperty
	.call handle_display_frame,SelectedFunction
	.call handle_display_frame,ProposedInterpolationMode
	.call handle_display_frame,OLED_SSD1306_shift_left
	.call handle_display_frame,OLED_SSD1306_put_string
	.call handle_display_frame,GetFunctionString
	.call handle_display_frame,FixedInterpolationMode
	.call init_display_frame,OLED_SSD1306_put_string
	.call init_display_frame,OLED_SSD1306_begin
	.call ShowInterpolationMode,OLED_SSD1306_put_string
	.call ShowAudioProperty,OLED_SSD1306_put_string
	.call ShowTrack,OLED_SSD1306_put_string
	.call ShowFolder,OLED_SSD1306_put_string
	.call UpdateTime,sprintf
	.call UpdateTime,OLED_SSD1306_put_string
	.call GetStreamFormatString,sprintf
	.call ShowStreamFormat,sprintf
	.call ShowStreamFormat,printf
	.call ShowStreamFormat,OLED_SSD1306_put_string
	.call usage.anon.5,memset
	.call usage.anon.4,memmove
	.call usage.anon.3,memcmp
	.call usage.anon.2,delay_ticks_longlong
	.call usage.anon.1,delay_ticks_longlong
	.call usage.anon.0,delay_ticks_longlong
	.set ShowStreamFormat.locnoside, 0
	.set ShowFolder.locnoside, 0
	.set ShowTrack.locnoside, 0
	.set ShowAudioProperty.locnoside, 0
	.set init_display_frame.locnoside, 0
	.set handle_display_frame.locnoside, 0
	.set display_control_core.locnoside, 0
	.set set_display_control_flag.locnoglobalaccess, 0
	.set test_display_control_flag.locnoglobalaccess, 0
	.set clear_display_control_flag.locnoglobalaccess, 0
	.set get_console_mode.locnoglobalaccess, 0
	.set set_console_mode.locnoglobalaccess, 0
	.set update_samp_freq.locnoglobalaccess, 0
	.set update_stream_format.locnoglobalaccess, 0
	.set ShowStreamFormat.locnoglobalaccess, 0
	.set GetStreamFormatString.locnoglobalaccess, 0
	.set UpdateTime.locnoglobalaccess, 0
	.set ShowFolder.locnoglobalaccess, 0
	.set ShowTrack.locnoglobalaccess, 0
	.set ShowAudioProperty.locnoglobalaccess, 0
	.set ProposedInterpolationMode.locnoglobalaccess, 0
	.set FixedInterpolationMode.locnoglobalaccess, 0
	.set SelectedFunction.locnoglobalaccess, 0
	.set init_display_frame.locnoglobalaccess, 0
	.set handle_display_frame.locnoglobalaccess, 0
	.set ShowFolder.locnointerfaceaccess, 0
	.set ShowTrack.locnointerfaceaccess, 0
	.set handle_display_frame.locnointerfaceaccess, 0
	.assert 1,memset.actnoglobalaccess,"In file included from C:/Users/takaaki/git/sw_xSSDAC/module_operation_console/src/display_control.xc:18:\nIn file included from C:\\Program Files (x86)\\XMOS\\xTIMEcomposer\\Community_14.4.1\\target/include/xc\\string.h:5:\nC:\\Program Files (x86)\\XMOS\\xTIMEcomposer\\Community_14.4.1\\target/include/xc\\safe/string.h:21:3: error: passing non-local alias to function `memset\' which accesses a global variable\n  memset(s, c, n);\n  ^~~~~~~~~~~~~~~"
	.assert 1,memmove.actnoglobalaccess,"In file included from C:/Users/takaaki/git/sw_xSSDAC/module_operation_console/src/display_control.xc:18:\nIn file included from C:\\Program Files (x86)\\XMOS\\xTIMEcomposer\\Community_14.4.1\\target/include/xc\\string.h:5:\nC:\\Program Files (x86)\\XMOS\\xTIMEcomposer\\Community_14.4.1\\target/include/xc\\safe/string.h:15:3: error: passing non-local alias to function `memmove\' which accesses a global variable\n  memmove(s1, s2, n);\n  ^~~~~~~~~~~~~~~~~~"
	.globpassesref OLED_SSD1306_put_string, audio_property_string,"C:/Users/takaaki/git/sw_xSSDAC/module_operation_console/src/display_control.xc:177:5: error: call to `OLED_SSD1306_put_string\' in `ShowAudioProperty\' makes alias of global \'audio_property_string\'\n    OLED_SSD1306_put_string(row, audio_property_string);\n    ^~~~~~~~~~~~~~~~~~~~~~~~~~~~~~~~~~~~~~~~~~~~~~~~~~~"
	.globpassesref OLED_SSD1306_put_string, track_string,"C:/Users/takaaki/git/sw_xSSDAC/module_operation_console/src/display_control.xc:168:5: error: call to `OLED_SSD1306_put_string\' in `ShowTrack\' makes alias of global \'track_string\'\n    OLED_SSD1306_put_string(row, track_string);\n    ^~~~~~~~~~~~~~~~~~~~~~~~~~~~~~~~~~~~~~~~~~"
	.globpassesref OLED_SSD1306_put_string, folder_string,"C:/Users/takaaki/git/sw_xSSDAC/module_operation_console/src/display_control.xc:159:5: error: call to `OLED_SSD1306_put_string\' in `ShowFolder\' makes alias of global \'folder_string\'\n    OLED_SSD1306_put_string(row, folder_string);\n    ^~~~~~~~~~~~~~~~~~~~~~~~~~~~~~~~~~~~~~~~~~~"
	.globpassesref OLED_SSD1306_put_string, stream_format_string,"C:/Users/takaaki/git/sw_xSSDAC/module_operation_console/src/display_control.xc:134:5: error: call to `OLED_SSD1306_put_string\' in `ShowStreamFormat\' makes alias of global \'stream_format_string\'\n    OLED_SSD1306_put_string(row, stream_format_string);\n    ^~~~~~~~~~~~~~~~~~~~~~~~~~~~~~~~~~~~~~~~~~~~~~~~~~"

                                        # End of file scope inline assembly
	.text
	.weak	_i.qspi_access._chan.read
	.align	4
	.type	_i.qspi_access._chan.read,@function
	.cc_top _i.qspi_access._chan.read.function,_i.qspi_access._chan.read
_i.qspi_access._chan.read:              # @_i.qspi_access._chan.read
	.cfi_startproc
	.issue_mode dual
# BB#0:                                 # %allocas
	{
		nop
		dualentsp 4
	}
.Ltmp0:
	.cfi_def_cfa_offset 16
.Ltmp1:
	.cfi_offset 15, 0
	{
		nop
		stw r4, sp[2]
	}
.Ltmp2:
	.cfi_offset 4, -8
	#DEBUG_VALUE: _i.qspi_access._chan.read:dest <- R0
	#DEBUG_VALUE: _i.qspi_access._chan.read:param1 <- R1
	#DEBUG_VALUE: _i.qspi_access._chan.read:param2 <- R2
	#DEBUG_VALUE: _i.qspi_access._chan.read:param3 <- R3
	{
		getr r4, 2
		ldw r11, sp[5]
	}
	{
		setd res[r4], r0
		add r0, r4, 1
	}
	{
		out res[r4], r0
		nop
	}
	{
		outct res[r4], 2
		nop
	}
	{
		chkct res[r4], 1
		nop
	}
	{
		out res[r4], r1
		nop
	}
	{
		out res[r4], r2
		nop
	}
	{
		out res[r4], r11
		stw r3, sp[1]
	}
	{
		outct res[r4], 2
		ldaw r1, sp[1]
	}
	{
		mov r0, r4
		nop
	}
	bl __interface_client_call
	{
		chkct res[r4], 1
		nop
	}
	{
		freer res[r4]
		ldw r4, sp[2]
	}
	{
		nop
		retsp 4
	}
	# RETURN_REG_HOLDER
	.cc_bottom _i.qspi_access._chan.read.function
	.set	_i.qspi_access._chan.read.nstackwords,(__interface_client_call.nstackwords + 4)
	.globl	_i.qspi_access._chan.read.nstackwords
	.weak	_i.qspi_access._chan.read.nstackwords
	.set	_i.qspi_access._chan.read.maxcores,__interface_client_call.maxcores $M 1
	.globl	_i.qspi_access._chan.read.maxcores
	.weak	_i.qspi_access._chan.read.maxcores
	.set	_i.qspi_access._chan.read.maxtimers,__interface_client_call.maxtimers $M 0
	.globl	_i.qspi_access._chan.read.maxtimers
	.weak	_i.qspi_access._chan.read.maxtimers
	.set	_i.qspi_access._chan.read.maxchanends,(1 + __interface_client_call.maxchanends) $M 1
	.globl	_i.qspi_access._chan.read.maxchanends
	.weak	_i.qspi_access._chan.read.maxchanends
.Ltmp3:
	.size	_i.qspi_access._chan.read, .Ltmp3-_i.qspi_access._chan.read
	.cfi_endproc

	.weak	_i.qspi_access._chan.write
	.align	4
	.type	_i.qspi_access._chan.write,@function
	.cc_top _i.qspi_access._chan.write.function,_i.qspi_access._chan.write
_i.qspi_access._chan.write:             # @_i.qspi_access._chan.write
	.cfi_startproc
	.issue_mode dual
# BB#0:                                 # %allocas
	{
		nop
		dualentsp 4
	}
.Ltmp4:
	.cfi_def_cfa_offset 16
.Ltmp5:
	.cfi_offset 15, 0
	{
		nop
		stw r4, sp[2]
	}
.Ltmp6:
	.cfi_offset 4, -8
	#DEBUG_VALUE: _i.qspi_access._chan.write:dest <- R0
	#DEBUG_VALUE: _i.qspi_access._chan.write:param1 <- R1
	#DEBUG_VALUE: _i.qspi_access._chan.write:param2 <- R2
	#DEBUG_VALUE: _i.qspi_access._chan.write:param3 <- R3
	{
		getr r4, 2
		ldw r11, sp[5]
	}
	{
		setd res[r4], r0
		nop
	}
	{
		out res[r4], r4
		nop
	}
	{
		outct res[r4], 2
		nop
	}
	{
		chkct res[r4], 1
		nop
	}
	{
		out res[r4], r1
		nop
	}
	{
		out res[r4], r2
		nop
	}
	{
		out res[r4], r11
		stw r3, sp[1]
	}
	{
		outct res[r4], 2
		ldaw r1, sp[1]
	}
	{
		mov r0, r4
		nop
	}
	bl __interface_client_call
	{
		chkct res[r4], 1
		nop
	}
	{
		freer res[r4]
		ldw r4, sp[2]
	}
	{
		nop
		retsp 4
	}
	# RETURN_REG_HOLDER
	.cc_bottom _i.qspi_access._chan.write.function
	.set	_i.qspi_access._chan.write.nstackwords,(__interface_client_call.nstackwords + 4)
	.globl	_i.qspi_access._chan.write.nstackwords
	.weak	_i.qspi_access._chan.write.nstackwords
	.set	_i.qspi_access._chan.write.maxcores,__interface_client_call.maxcores $M 1
	.globl	_i.qspi_access._chan.write.maxcores
	.weak	_i.qspi_access._chan.write.maxcores
	.set	_i.qspi_access._chan.write.maxtimers,__interface_client_call.maxtimers $M 0
	.globl	_i.qspi_access._chan.write.maxtimers
	.weak	_i.qspi_access._chan.write.maxtimers
	.set	_i.qspi_access._chan.write.maxchanends,(1 + __interface_client_call.maxchanends) $M 1
	.globl	_i.qspi_access._chan.write.maxchanends
	.weak	_i.qspi_access._chan.write.maxchanends
.Ltmp7:
	.size	_i.qspi_access._chan.write, .Ltmp7-_i.qspi_access._chan.write
	.cfi_endproc

	.weak	_i.qspi_access._chan_yield.read
	.align	4
	.type	_i.qspi_access._chan_yield.read,@function
	.cc_top _i.qspi_access._chan_yield.read.function,_i.qspi_access._chan_yield.read
_i.qspi_access._chan_yield.read:        # @_i.qspi_access._chan_yield.read
	.cfi_startproc
	.issue_mode dual
# BB#0:                                 # %allocas
	{
		nop
		dualentsp 4
	}
.Ltmp8:
	.cfi_def_cfa_offset 16
.Ltmp9:
	.cfi_offset 15, 0
	std r5, r4, sp[1]               # 4-byte Folded Spill
.Ltmp10:
	.cfi_offset 4, -8
.Ltmp11:
	.cfi_offset 5, -4
	#DEBUG_VALUE: _i.qspi_access._chan_yield.read:s <- R0
	#DEBUG_VALUE: _i.qspi_access._chan_yield.read:param1 <- R1
	#DEBUG_VALUE: _i.qspi_access._chan_yield.read:param2 <- R2
	#DEBUG_VALUE: _i.qspi_access._chan_yield.read:param3 <- R3
	{
		nop
		ldw r11, sp[5]
	}
	{
		getr r4, 2
		ldw r5, r0[0]
	}
	{
		setd res[r4], r5
		add r5, r4, 1
	}
	{
		out res[r4], r5
		nop
	}
	{
		outct res[r4], 2
		nop
	}
	{
		chkct res[r4], 1
		nop
	}
	{
		out res[r4], r1
		nop
	}
	{
		out res[r4], r2
		nop
	}
	{
		out res[r4], r11
		stw r3, sp[1]
	}
	{
		outct res[r4], 2
		ldw r2, r0[1]
	}
	{
		ldaw r1, sp[1]
		mov r0, r4
	}
	bl __interface_client_call_y
	{
		chkct res[r4], 1
		nop
	}
	{
		freer res[r4]
		nop
	}
	ldd r5, r4, sp[1]               # 4-byte Folded Reload
	{
		nop
		retsp 4
	}
	# RETURN_REG_HOLDER
	.cc_bottom _i.qspi_access._chan_yield.read.function
	.set	_i.qspi_access._chan_yield.read.nstackwords,((_i.qspi_access._client_call_y.max.nstackwords $M ($D __interface_client_call_y.nstackwords ? __interface_client_call_y.nstackwords $: _i.qspi_access._client_call_y.max.nstackwords)) + 4)
	.globl	_i.qspi_access._chan_yield.read.nstackwords
	.weak	_i.qspi_access._chan_yield.read.nstackwords
	.set	_i.qspi_access._chan_yield.read.maxcores,($D __interface_client_call_y.maxcores ? __interface_client_call_y.maxcores $: _i.qspi_access._client_call_y.max.maxcores) $M 1
	.globl	_i.qspi_access._chan_yield.read.maxcores
	.weak	_i.qspi_access._chan_yield.read.maxcores
	.set	_i.qspi_access._chan_yield.read.maxtimers,($D __interface_client_call_y.maxtimers ? __interface_client_call_y.maxtimers $: _i.qspi_access._client_call_y.max.maxtimers) $M 0
	.globl	_i.qspi_access._chan_yield.read.maxtimers
	.weak	_i.qspi_access._chan_yield.read.maxtimers
	.set	_i.qspi_access._chan_yield.read.maxchanends,(1 + ($D __interface_client_call_y.maxchanends ? __interface_client_call_y.maxchanends $: _i.qspi_access._client_call_y.max.maxchanends)) $M 1
	.globl	_i.qspi_access._chan_yield.read.maxchanends
	.weak	_i.qspi_access._chan_yield.read.maxchanends
.Ltmp12:
	.size	_i.qspi_access._chan_yield.read, .Ltmp12-_i.qspi_access._chan_yield.read
	.cfi_endproc

	.weak	_i.qspi_access._chan_yield.write
	.align	4
	.type	_i.qspi_access._chan_yield.write,@function
	.cc_top _i.qspi_access._chan_yield.write.function,_i.qspi_access._chan_yield.write
_i.qspi_access._chan_yield.write:       # @_i.qspi_access._chan_yield.write
	.cfi_startproc
	.issue_mode dual
# BB#0:                                 # %allocas
	{
		nop
		dualentsp 4
	}
.Ltmp13:
	.cfi_def_cfa_offset 16
.Ltmp14:
	.cfi_offset 15, 0
	std r5, r4, sp[1]               # 4-byte Folded Spill
.Ltmp15:
	.cfi_offset 4, -8
.Ltmp16:
	.cfi_offset 5, -4
	#DEBUG_VALUE: _i.qspi_access._chan_yield.write:s <- R0
	#DEBUG_VALUE: _i.qspi_access._chan_yield.write:param1 <- R1
	#DEBUG_VALUE: _i.qspi_access._chan_yield.write:param2 <- R2
	#DEBUG_VALUE: _i.qspi_access._chan_yield.write:param3 <- R3
	{
		nop
		ldw r11, sp[5]
	}
	{
		getr r4, 2
		ldw r5, r0[0]
	}
	{
		setd res[r4], r5
		nop
	}
	{
		out res[r4], r4
		nop
	}
	{
		outct res[r4], 2
		nop
	}
	{
		chkct res[r4], 1
		nop
	}
	{
		out res[r4], r1
		nop
	}
	{
		out res[r4], r2
		nop
	}
	{
		out res[r4], r11
		stw r3, sp[1]
	}
	{
		outct res[r4], 2
		ldw r2, r0[1]
	}
	{
		ldaw r1, sp[1]
		mov r0, r4
	}
	bl __interface_client_call_y
	{
		chkct res[r4], 1
		nop
	}
	{
		freer res[r4]
		nop
	}
	ldd r5, r4, sp[1]               # 4-byte Folded Reload
	{
		nop
		retsp 4
	}
	# RETURN_REG_HOLDER
	.cc_bottom _i.qspi_access._chan_yield.write.function
	.set	_i.qspi_access._chan_yield.write.nstackwords,((_i.qspi_access._client_call_y.max.nstackwords $M ($D __interface_client_call_y.nstackwords ? __interface_client_call_y.nstackwords $: _i.qspi_access._client_call_y.max.nstackwords)) + 4)
	.globl	_i.qspi_access._chan_yield.write.nstackwords
	.weak	_i.qspi_access._chan_yield.write.nstackwords
	.set	_i.qspi_access._chan_yield.write.maxcores,($D __interface_client_call_y.maxcores ? __interface_client_call_y.maxcores $: _i.qspi_access._client_call_y.max.maxcores) $M 1
	.globl	_i.qspi_access._chan_yield.write.maxcores
	.weak	_i.qspi_access._chan_yield.write.maxcores
	.set	_i.qspi_access._chan_yield.write.maxtimers,($D __interface_client_call_y.maxtimers ? __interface_client_call_y.maxtimers $: _i.qspi_access._client_call_y.max.maxtimers) $M 0
	.globl	_i.qspi_access._chan_yield.write.maxtimers
	.weak	_i.qspi_access._chan_yield.write.maxtimers
	.set	_i.qspi_access._chan_yield.write.maxchanends,(1 + ($D __interface_client_call_y.maxchanends ? __interface_client_call_y.maxchanends $: _i.qspi_access._client_call_y.max.maxchanends)) $M 1
	.globl	_i.qspi_access._chan_yield.write.maxchanends
	.weak	_i.qspi_access._chan_yield.write.maxchanends
.Ltmp17:
	.size	_i.qspi_access._chan_yield.write, .Ltmp17-_i.qspi_access._chan_yield.write
	.cfi_endproc

	.globl	set_display_control_flag
	.align	4
	.type	set_display_control_flag,@function
	.cc_top set_display_control_flag.function,set_display_control_flag
set_display_control_flag:               # @set_display_control_flag
.Lfunc_begin4:
	.loc	1 64 0                  # C:/Users/takaaki/git/sw_xSSDAC/module_operation_console/src/display_control.xc:64:0
	.cfi_startproc
	.issue_mode dual
# BB#0:                                 # %allocas
.Lxtalabel0:
	{
		nop
		dualentsp 0
	}
	#DEBUG_VALUE: set_display_control_flag:bitmask <- R0
	.loc	1 68 0 prologue_end     # C:/Users/takaaki/git/sw_xSSDAC/module_operation_console/src/display_control.xc:68:0
.Ltmp18:
	ldw r1, dp[display_control_flag]
	.loc	1 68 0                  # C:/Users/takaaki/git/sw_xSSDAC/module_operation_console/src/display_control.xc:68:0
	{
		or r0, r1, r0
		nop
	}
.Ltmp19:
	.loc	1 68 0                  # C:/Users/takaaki/git/sw_xSSDAC/module_operation_console/src/display_control.xc:68:0
	stw r0, dp[display_control_flag]
	{
		nop
		retsp 0
	}
	# RETURN_REG_HOLDER
.Ltmp20:
	.cc_bottom set_display_control_flag.function
	.set	set_display_control_flag.nstackwords,0
	.globl	set_display_control_flag.nstackwords
	.set	set_display_control_flag.maxcores,1
	.globl	set_display_control_flag.maxcores
	.set	set_display_control_flag.maxtimers,0
	.globl	set_display_control_flag.maxtimers
	.set	set_display_control_flag.maxchanends,0
	.globl	set_display_control_flag.maxchanends
.Ltmp21:
	.size	set_display_control_flag, .Ltmp21-set_display_control_flag
.Lfunc_end4:
	.cfi_endproc

	.globl	update_samp_freq
	.align	4
	.type	update_samp_freq,@function
	.cc_top update_samp_freq.function,update_samp_freq
update_samp_freq:                       # @update_samp_freq
.Lfunc_begin5:
	.loc	1 111 0                 # C:/Users/takaaki/git/sw_xSSDAC/module_operation_console/src/display_control.xc:111:0
	.cfi_startproc
	.issue_mode dual
# BB#0:                                 # %allocas
.Lxtalabel1:
	{
		nop
		dualentsp 0
	}
	#DEBUG_VALUE: update_samp_freq:freq <- R0
	.loc	1 114 0 prologue_end    # C:/Users/takaaki/git/sw_xSSDAC/module_operation_console/src/display_control.xc:114:0
.Ltmp22:
	stw r0, dp[SampFreq]
	.loc	1 115 0                 # C:/Users/takaaki/git/sw_xSSDAC/module_operation_console/src/display_control.xc:115:0
	ldw r0, dp[display_control_flag]
.Ltmp23:
	ldc r1, 128
	.loc	1 115 0                 # C:/Users/takaaki/git/sw_xSSDAC/module_operation_console/src/display_control.xc:115:0
	{
		or r0, r0, r1
		nop
	}
	.loc	1 115 0                 # C:/Users/takaaki/git/sw_xSSDAC/module_operation_console/src/display_control.xc:115:0
	stw r0, dp[display_control_flag]
	{
		nop
		retsp 0
	}
	# RETURN_REG_HOLDER
.Ltmp24:
	.cc_bottom update_samp_freq.function
	.set	update_samp_freq.nstackwords,0
	.globl	update_samp_freq.nstackwords
	.set	update_samp_freq.maxcores,1
	.globl	update_samp_freq.maxcores
	.set	update_samp_freq.maxtimers,0
	.globl	update_samp_freq.maxtimers
	.set	update_samp_freq.maxchanends,0
	.globl	update_samp_freq.maxchanends
.Ltmp25:
	.size	update_samp_freq, .Ltmp25-update_samp_freq
.Lfunc_end5:
	.cfi_endproc

	.globl	update_stream_format
	.align	4
	.type	update_stream_format,@function
	.cc_top update_stream_format.function,update_stream_format
update_stream_format:                   # @update_stream_format
.Lfunc_begin6:
	.loc	1 119 0                 # C:/Users/takaaki/git/sw_xSSDAC/module_operation_console/src/display_control.xc:119:0
	.cfi_startproc
	.issue_mode dual
# BB#0:                                 # %allocas
.Lxtalabel2:
	{
		nop
		dualentsp 0
	}
	#DEBUG_VALUE: update_stream_format:num_chan <- R0
	#DEBUG_VALUE: update_stream_format:samp_res <- R1
	.loc	1 123 0 prologue_end    # C:/Users/takaaki/git/sw_xSSDAC/module_operation_console/src/display_control.xc:123:0
.Ltmp26:
	stw r0, dp[NumChan]
	.loc	1 124 0                 # C:/Users/takaaki/git/sw_xSSDAC/module_operation_console/src/display_control.xc:124:0
	stw r1, dp[SampRes]
	.loc	1 125 0                 # C:/Users/takaaki/git/sw_xSSDAC/module_operation_console/src/display_control.xc:125:0
	ldw r0, dp[display_control_flag]
.Ltmp27:
	ldc r1, 128
.Ltmp28:
	.loc	1 125 0                 # C:/Users/takaaki/git/sw_xSSDAC/module_operation_console/src/display_control.xc:125:0
	{
		or r0, r0, r1
		nop
	}
	.loc	1 125 0                 # C:/Users/takaaki/git/sw_xSSDAC/module_operation_console/src/display_control.xc:125:0
	stw r0, dp[display_control_flag]
	{
		nop
		retsp 0
	}
	# RETURN_REG_HOLDER
.Ltmp29:
	.cc_bottom update_stream_format.function
	.set	update_stream_format.nstackwords,0
	.globl	update_stream_format.nstackwords
	.set	update_stream_format.maxcores,1
	.globl	update_stream_format.maxcores
	.set	update_stream_format.maxtimers,0
	.globl	update_stream_format.maxtimers
	.set	update_stream_format.maxchanends,0
	.globl	update_stream_format.maxchanends
.Ltmp30:
	.size	update_stream_format, .Ltmp30-update_stream_format
.Lfunc_end6:
	.cfi_endproc

	.globl	init_display_frame
	.align	4
	.type	init_display_frame,@function
	.cc_top init_display_frame.function,init_display_frame
init_display_frame:                     # @init_display_frame
.Lfunc_begin7:
	.loc	1 251 0                 # C:/Users/takaaki/git/sw_xSSDAC/module_operation_console/src/display_control.xc:251:0
	.cfi_startproc
	.issue_mode dual
# BB#0:                                 # %allocas
.Lxtalabel3:
	{
		nop
		dualentsp 6
	}
.Ltmp31:
	.cfi_def_cfa_offset 24
.Ltmp32:
	.cfi_offset 15, 0
	.loc	1 253 0 prologue_end    # C:/Users/takaaki/git/sw_xSSDAC/module_operation_console/src/display_control.xc:253:0
.Ltmp33:
	std r5, r4, sp[1]               # 4-byte Folded Spill
.Ltmp34:
	.cfi_offset 4, -16
.Ltmp35:
	.cfi_offset 5, -12
	{
		nop
		stw r6, sp[4]
	}
.Ltmp36:
	.cfi_offset 6, -8
.Lxta.call_labels0:
	bl OLED_SSD1306_begin
	.loc	1 254 0                 # C:/Users/takaaki/git/sw_xSSDAC/module_operation_console/src/display_control.xc:254:0
	ldaw r11, cp[.str34]
	{
		ldc r4, 0
		ldc r2, 13
	}
	{
		mov r0, r4
		mov r1, r11
	}
.Lxta.call_labels1:
	bl OLED_SSD1306_put_string
.Ltmp37:
	#DEBUG_VALUE: row <- 1
	.loc	1 256 0                 # C:/Users/takaaki/git/sw_xSSDAC/module_operation_console/src/display_control.xc:256:0
	ldaw r11, cp[.str35]
	{
		mov r5, r11
		mkmsk r0, 1
	}
	{
		ldc r6, 2
		mov r1, r5
	}
	{
		mov r2, r6
		nop
	}
.Lxta.call_labels2:
	bl OLED_SSD1306_put_string
.Ltmp38:
	#DEBUG_VALUE: row <- 2
	.loc	1 256 0                 # C:/Users/takaaki/git/sw_xSSDAC/module_operation_console/src/display_control.xc:256:0
	{
		mov r0, r6
		mov r1, r5
	}
	{
		mov r2, r6
		nop
	}
.Lxta.call_labels3:
	bl OLED_SSD1306_put_string
	{
		mkmsk r0, 2
		mov r1, r5
	}
	.loc	1 256 0                 # C:/Users/takaaki/git/sw_xSSDAC/module_operation_console/src/display_control.xc:256:0
	{
		mov r2, r6
		nop
	}
.Lxta.call_labels4:
	bl OLED_SSD1306_put_string
	ldaw r0, dp[state]
	st8 r4, r0[r4]
	{
		ldc r0, 50
		nop
	}
.Ltmp39:
	.loc	1 259 0                 # C:/Users/takaaki/git/sw_xSSDAC/module_operation_console/src/display_control.xc:259:0
	stw r0, dp[pause_counter]
	.loc	1 260 0                 # C:/Users/takaaki/git/sw_xSSDAC/module_operation_console/src/display_control.xc:260:0
	stw r4, dp[scrolling_row]
	{
		nop
		ldw r6, sp[4]
	}
	ldd r5, r4, sp[1]               # 4-byte Folded Reload
	{
		nop
		retsp 6
	}
	# RETURN_REG_HOLDER
.Ltmp40:
	.cc_bottom init_display_frame.function
	.set	init_display_frame.nstackwords,((OLED_SSD1306_begin.nstackwords $M OLED_SSD1306_put_string.nstackwords) + 6)
	.globl	init_display_frame.nstackwords
	.set	init_display_frame.maxcores,OLED_SSD1306_begin.maxcores $M OLED_SSD1306_put_string.maxcores $M 1
	.globl	init_display_frame.maxcores
	.set	init_display_frame.maxtimers,OLED_SSD1306_begin.maxtimers $M OLED_SSD1306_put_string.maxtimers $M 0
	.globl	init_display_frame.maxtimers
	.set	init_display_frame.maxchanends,OLED_SSD1306_begin.maxchanends $M OLED_SSD1306_put_string.maxchanends $M 0
	.globl	init_display_frame.maxchanends
.Ltmp41:
	.size	init_display_frame, .Ltmp41-init_display_frame
.Lfunc_end7:
	.cfi_endproc

	.globl	get_console_mode
	.align	4
	.type	get_console_mode,@function
	.cc_top get_console_mode.function,get_console_mode
get_console_mode:                       # @get_console_mode
.Lfunc_begin8:
	.loc	1 90 0                  # C:/Users/takaaki/git/sw_xSSDAC/module_operation_console/src/display_control.xc:90:0
	.cfi_startproc
	.issue_mode dual
# BB#0:                                 # %allocas
.Lxtalabel4:
	{
		nop
		dualentsp 2
	}
.Ltmp42:
	.cfi_def_cfa_offset 8
.Ltmp43:
	.cfi_offset 15, 0
	.loc	1 94 9 prologue_end     # C:/Users/takaaki/git/sw_xSSDAC/module_operation_console/src/display_control.xc:94:9
.Ltmp44:
	ldw r0, dp[console_mode]
	{
		nop
		stw r0, sp[1]
	}
	{
		nop
		retsp 2
	}
	# RETURN_REG_HOLDER
.Ltmp45:
	.cc_bottom get_console_mode.function
	.set	get_console_mode.nstackwords,2
	.globl	get_console_mode.nstackwords
	.set	get_console_mode.maxcores,1
	.globl	get_console_mode.maxcores
	.set	get_console_mode.maxtimers,0
	.globl	get_console_mode.maxtimers
	.set	get_console_mode.maxchanends,0
	.globl	get_console_mode.maxchanends
.Ltmp46:
	.size	get_console_mode, .Ltmp46-get_console_mode
.Lfunc_end8:
	.cfi_endproc

	.globl	set_console_mode
	.align	4
	.type	set_console_mode,@function
	.cc_top set_console_mode.function,set_console_mode
set_console_mode:                       # @set_console_mode
.Lfunc_begin9:
	.loc	1 98 0                  # C:/Users/takaaki/git/sw_xSSDAC/module_operation_console/src/display_control.xc:98:0
	.cfi_startproc
	.issue_mode dual
# BB#0:                                 # %allocas
.Lxtalabel5:
	{
		nop
		dualentsp 0
	}
	#DEBUG_VALUE: set_console_mode:value <- R0
	.loc	1 102 0 prologue_end    # C:/Users/takaaki/git/sw_xSSDAC/module_operation_console/src/display_control.xc:102:0
.Ltmp47:
	stw r0, dp[console_mode]
	{
		nop
		retsp 0
	}
	# RETURN_REG_HOLDER
.Ltmp48:
	.cc_bottom set_console_mode.function
	.set	set_console_mode.nstackwords,0
	.globl	set_console_mode.nstackwords
	.set	set_console_mode.maxcores,1
	.globl	set_console_mode.maxcores
	.set	set_console_mode.maxtimers,0
	.globl	set_console_mode.maxtimers
	.set	set_console_mode.maxchanends,0
	.globl	set_console_mode.maxchanends
.Ltmp49:
	.size	set_console_mode, .Ltmp49-set_console_mode
.Lfunc_end9:
	.cfi_endproc

	.globl	_Sset_console_mode_0
	.align	4
	.type	_Sset_console_mode_0,@function
	.cc_top _Sset_console_mode_0.function,_Sset_console_mode_0
_Sset_console_mode_0:                   # @_Sset_console_mode_0
.Lfunc_begin10:
	.loc	1 98 0                  # C:/Users/takaaki/git/sw_xSSDAC/module_operation_console/src/display_control.xc:98:0
	.cfi_startproc
	.issue_mode dual
# BB#0:                                 # %allocas
.Lxtalabel6:
	#DEBUG_VALUE: value <- 2
	{
		ldc r0, 2
		dualentsp 0
	}
	.loc	1 102 0 prologue_end    # C:/Users/takaaki/git/sw_xSSDAC/module_operation_console/src/display_control.xc:102:0
.Ltmp50:
	stw r0, dp[console_mode]
	{
		nop
		retsp 0
	}
	# RETURN_REG_HOLDER
.Ltmp51:
	.cc_bottom _Sset_console_mode_0.function
	.set	_Sset_console_mode_0.nstackwords,0
	.globl	_Sset_console_mode_0.nstackwords
	.set	_Sset_console_mode_0.maxcores,1
	.globl	_Sset_console_mode_0.maxcores
	.set	_Sset_console_mode_0.maxtimers,0
	.globl	_Sset_console_mode_0.maxtimers
	.set	_Sset_console_mode_0.maxchanends,0
	.globl	_Sset_console_mode_0.maxchanends
.Ltmp52:
	.size	_Sset_console_mode_0, .Ltmp52-_Sset_console_mode_0
.Lfunc_end10:
	.cfi_endproc

	.globl	test_display_control_flag
	.align	4
	.type	test_display_control_flag,@function
	.cc_top test_display_control_flag.function,test_display_control_flag
test_display_control_flag:              # @test_display_control_flag
.Lfunc_begin11:
	.loc	1 72 0                  # C:/Users/takaaki/git/sw_xSSDAC/module_operation_console/src/display_control.xc:72:0
	.cfi_startproc
	.issue_mode dual
# BB#0:                                 # %allocas
.Lxtalabel7:
	{
		nop
		dualentsp 2
	}
.Ltmp53:
	.cfi_def_cfa_offset 8
.Ltmp54:
	.cfi_offset 15, 0
	#DEBUG_VALUE: test_display_control_flag:bitmask <- R0
	.loc	1 76 9 prologue_end     # C:/Users/takaaki/git/sw_xSSDAC/module_operation_console/src/display_control.xc:76:9
.Ltmp55:
	ldw r1, dp[display_control_flag]
	.loc	1 76 9                  # C:/Users/takaaki/git/sw_xSSDAC/module_operation_console/src/display_control.xc:76:9
	{
		and r0, r1, r0
		nop
	}
.Ltmp56:
	{
		nop
		stw r0, sp[1]
	}
	{
		nop
		retsp 2
	}
	# RETURN_REG_HOLDER
.Ltmp57:
	.cc_bottom test_display_control_flag.function
	.set	test_display_control_flag.nstackwords,2
	.globl	test_display_control_flag.nstackwords
	.set	test_display_control_flag.maxcores,1
	.globl	test_display_control_flag.maxcores
	.set	test_display_control_flag.maxtimers,0
	.globl	test_display_control_flag.maxtimers
	.set	test_display_control_flag.maxchanends,0
	.globl	test_display_control_flag.maxchanends
.Ltmp58:
	.size	test_display_control_flag, .Ltmp58-test_display_control_flag
.Lfunc_end11:
	.cfi_endproc

	.globl	clear_display_control_flag
	.align	4
	.type	clear_display_control_flag,@function
	.cc_top clear_display_control_flag.function,clear_display_control_flag
clear_display_control_flag:             # @clear_display_control_flag
.Lfunc_begin12:
	.loc	1 80 0                  # C:/Users/takaaki/git/sw_xSSDAC/module_operation_console/src/display_control.xc:80:0
	.cfi_startproc
	.issue_mode dual
# BB#0:                                 # %allocas
.Lxtalabel8:
	{
		nop
		dualentsp 0
	}
	#DEBUG_VALUE: clear_display_control_flag:bitmask <- R0
	.loc	1 84 0 prologue_end     # C:/Users/takaaki/git/sw_xSSDAC/module_operation_console/src/display_control.xc:84:0
.Ltmp59:
	ldw r1, dp[display_control_flag]
	.loc	1 84 0                  # C:/Users/takaaki/git/sw_xSSDAC/module_operation_console/src/display_control.xc:84:0
	{
		andnot r1, r0
		nop
	}
	.loc	1 84 0                  # C:/Users/takaaki/git/sw_xSSDAC/module_operation_console/src/display_control.xc:84:0
	stw r1, dp[display_control_flag]
	{
		nop
		retsp 0
	}
	# RETURN_REG_HOLDER
.Ltmp60:
	.cc_bottom clear_display_control_flag.function
	.set	clear_display_control_flag.nstackwords,0
	.globl	clear_display_control_flag.nstackwords
	.set	clear_display_control_flag.maxcores,1
	.globl	clear_display_control_flag.maxcores
	.set	clear_display_control_flag.maxtimers,0
	.globl	clear_display_control_flag.maxtimers
	.set	clear_display_control_flag.maxchanends,0
	.globl	clear_display_control_flag.maxchanends
.Ltmp61:
	.size	clear_display_control_flag, .Ltmp61-clear_display_control_flag
.Lfunc_end12:
	.cfi_endproc

	.section	.cp.rodata.cst4,"aMc",@progbits,4
	.cc_top .LCPI13_0.data,.LCPI13_0
	.align	4
	.type	.LCPI13_0,@object
	.size	.LCPI13_0, 4
.LCPI13_0:
	.long	274877907               # 0x10624dd3
	.cc_bottom .LCPI13_0.data
	.cc_top .LCPI13_1.data,.LCPI13_1
	.align	4
	.type	.LCPI13_1,@object
	.size	.LCPI13_1, 4
.LCPI13_1:
	.long	1374389535              # 0x51eb851f
	.cc_bottom .LCPI13_1.data
	.text
	.globl	ShowStreamFormat
	.align	4
	.type	ShowStreamFormat,@function
	.cc_top ShowStreamFormat.function,ShowStreamFormat
ShowStreamFormat:                       # @ShowStreamFormat
.Lfunc_begin13:
	.loc	1 129 0                 # C:/Users/takaaki/git/sw_xSSDAC/module_operation_console/src/display_control.xc:129:0
	.cfi_startproc
	.issue_mode dual
# BB#0:                                 # %allocas
.Lxtalabel9:
	{
		nop
		dualentsp 8
	}
.Ltmp62:
	.cfi_def_cfa_offset 32
.Ltmp63:
	.cfi_offset 15, 0
	std r5, r4, sp[2]               # 4-byte Folded Spill
.Ltmp64:
	.cfi_offset 4, -16
.Ltmp65:
	.cfi_offset 5, -12
.Ltmp66:
	.cfi_offset 6, -8
	#DEBUG_VALUE: ShowStreamFormat:row <- R0
.Ltmp67:
	#DEBUG_VALUE: ShowStreamFormat:row <- R4
	{
		mov r4, r0
		stw r6, sp[6]
	}
.Ltmp68:
	.loc	1 130 0 prologue_end    # C:/Users/takaaki/git/sw_xSSDAC/module_operation_console/src/display_control.xc:130:0
	ldw r0, dp[SampFreq]
	{
		ldc r6, 0
		nop
	}
	ldw r1, cp[.LCPI13_0]
	.loc	1 130 0                 # C:/Users/takaaki/git/sw_xSSDAC/module_operation_console/src/display_control.xc:130:0
	lmul r1, r2, r0, r1, r6, r6
	{
		shr r3, r1, 6
		nop
	}
	ldc r1, 1000
	.loc	1 131 0                 # C:/Users/takaaki/git/sw_xSSDAC/module_operation_console/src/display_control.xc:131:0
.Ltmp69:
	mul r1, r3, r1
	{
		sub r0, r0, r1
		nop
	}
	ldw r1, cp[.LCPI13_1]
	.loc	1 131 0                 # C:/Users/takaaki/git/sw_xSSDAC/module_operation_console/src/display_control.xc:131:0
	lmul r0, r1, r0, r1, r6, r6
	{
		shr r0, r0, 5
		nop
	}
.Ltmp70:
	#DEBUG_VALUE: freq_p <- R0
	.loc	1 132 0                 # C:/Users/takaaki/git/sw_xSSDAC/module_operation_console/src/display_control.xc:132:0
	ldw r2, dp[NumChan]
	.loc	1 132 0                 # C:/Users/takaaki/git/sw_xSSDAC/module_operation_console/src/display_control.xc:132:0
	ldw r1, dp[SampRes]
	{
		nop
		stw r0, sp[1]
	}
	{
		nop
		stw r1, sp[2]
	}
	.loc	1 132 0                 # C:/Users/takaaki/git/sw_xSSDAC/module_operation_console/src/display_control.xc:132:0
	ldaw r5, dp[stream_format_string]
	ldaw r11, cp[.str6]
	{
		mov r0, r5
		mov r1, r11
	}
.Ltmp71:
.Lxta.call_labels5:
	bl siprintf
	.loc	1 133 0                 # C:/Users/takaaki/git/sw_xSSDAC/module_operation_console/src/display_control.xc:133:0
	ldaw r11, cp[.str7]
	{
		mov r0, r11
		mov r1, r5
	}
.Lxta.call_labels6:
	bl iprintf
	ldc r2, 100
	.loc	1 134 0                 # C:/Users/takaaki/git/sw_xSSDAC/module_operation_console/src/display_control.xc:134:0
	{
		mov r0, r4
		mov r1, r5
	}
.Lxta.call_labels7:
	bl OLED_SSD1306_put_string
	{
		ldc r0, 50
		nop
	}
	.loc	1 135 0                 # C:/Users/takaaki/git/sw_xSSDAC/module_operation_console/src/display_control.xc:135:0
	stw r0, dp[pause_counter]
	ldaw r0, dp[state]
	st8 r6, r0[r6]
	.loc	1 137 0                 # C:/Users/takaaki/git/sw_xSSDAC/module_operation_console/src/display_control.xc:137:0
	stw r4, dp[scrolling_row]
	{
		nop
		ldw r6, sp[6]
	}
	ldd r5, r4, sp[2]               # 4-byte Folded Reload
	{
		nop
		retsp 8
	}
	# RETURN_REG_HOLDER
.Ltmp72:
	.cc_bottom ShowStreamFormat.function
	.set	ShowStreamFormat.nstackwords,((siprintf.nstackwords $M iprintf.nstackwords $M OLED_SSD1306_put_string.nstackwords) + 8)
	.globl	ShowStreamFormat.nstackwords
	.set	ShowStreamFormat.maxcores,OLED_SSD1306_put_string.maxcores $M iprintf.maxcores $M siprintf.maxcores $M 1
	.globl	ShowStreamFormat.maxcores
	.set	ShowStreamFormat.maxtimers,OLED_SSD1306_put_string.maxtimers $M iprintf.maxtimers $M siprintf.maxtimers $M 0
	.globl	ShowStreamFormat.maxtimers
	.set	ShowStreamFormat.maxchanends,OLED_SSD1306_put_string.maxchanends $M iprintf.maxchanends $M siprintf.maxchanends $M 0
	.globl	ShowStreamFormat.maxchanends
.Ltmp73:
	.size	ShowStreamFormat, .Ltmp73-ShowStreamFormat
.Lfunc_end13:
	.cfi_endproc

	.section	.cp.rodata.cst4,"aMc",@progbits,4
	.cc_top .LCPI14_0.data,.LCPI14_0
	.align	4
	.type	.LCPI14_0,@object
	.size	.LCPI14_0, 4
.LCPI14_0:
	.long	274877907               # 0x10624dd3
	.cc_bottom .LCPI14_0.data
	.cc_top .LCPI14_1.data,.LCPI14_1
	.align	4
	.type	.LCPI14_1,@object
	.size	.LCPI14_1, 4
.LCPI14_1:
	.long	1374389535              # 0x51eb851f
	.cc_bottom .LCPI14_1.data
	.text
	.globl	_SShowStreamFormat_0
	.align	4
	.type	_SShowStreamFormat_0,@function
	.cc_top _SShowStreamFormat_0.function,_SShowStreamFormat_0
_SShowStreamFormat_0:                   # @_SShowStreamFormat_0
.Lfunc_begin14:
	.loc	1 129 0                 # C:/Users/takaaki/git/sw_xSSDAC/module_operation_console/src/display_control.xc:129:0
	.cfi_startproc
	.issue_mode dual
# BB#0:                                 # %allocas
.Lxtalabel10:
	{
		nop
		dualentsp 8
	}
.Ltmp74:
	.cfi_def_cfa_offset 32
.Ltmp75:
	.cfi_offset 15, 0
	std r5, r4, sp[2]               # 4-byte Folded Spill
.Ltmp76:
	.cfi_offset 4, -16
.Ltmp77:
	.cfi_offset 5, -12
	{
		nop
		stw r6, sp[6]
	}
.Ltmp78:
	.cfi_offset 6, -8
.Ltmp79:
	#DEBUG_VALUE: row <- 2
	.loc	1 130 0 prologue_end    # C:/Users/takaaki/git/sw_xSSDAC/module_operation_console/src/display_control.xc:130:0
	ldw r0, dp[SampFreq]
	{
		ldc r6, 0
		nop
	}
	ldw r1, cp[.LCPI14_0]
	.loc	1 130 0                 # C:/Users/takaaki/git/sw_xSSDAC/module_operation_console/src/display_control.xc:130:0
	lmul r1, r2, r0, r1, r6, r6
	{
		shr r3, r1, 6
		nop
	}
	ldc r1, 1000
	.loc	1 131 0                 # C:/Users/takaaki/git/sw_xSSDAC/module_operation_console/src/display_control.xc:131:0
.Ltmp80:
	mul r1, r3, r1
	{
		sub r0, r0, r1
		nop
	}
	ldw r1, cp[.LCPI14_1]
	.loc	1 131 0                 # C:/Users/takaaki/git/sw_xSSDAC/module_operation_console/src/display_control.xc:131:0
	lmul r0, r1, r0, r1, r6, r6
	{
		shr r0, r0, 5
		nop
	}
.Ltmp81:
	#DEBUG_VALUE: freq_p <- R0
	.loc	1 132 0                 # C:/Users/takaaki/git/sw_xSSDAC/module_operation_console/src/display_control.xc:132:0
	ldw r2, dp[NumChan]
	.loc	1 132 0                 # C:/Users/takaaki/git/sw_xSSDAC/module_operation_console/src/display_control.xc:132:0
	ldw r1, dp[SampRes]
	{
		nop
		stw r0, sp[1]
	}
	{
		nop
		stw r1, sp[2]
	}
	.loc	1 132 0                 # C:/Users/takaaki/git/sw_xSSDAC/module_operation_console/src/display_control.xc:132:0
	ldaw r4, dp[stream_format_string]
	ldaw r11, cp[.str10]
	{
		mov r0, r4
		mov r1, r11
	}
.Ltmp82:
.Lxta.call_labels8:
	bl siprintf
	.loc	1 133 0                 # C:/Users/takaaki/git/sw_xSSDAC/module_operation_console/src/display_control.xc:133:0
	ldaw r11, cp[.str11]
	{
		mov r0, r11
		mov r1, r4
	}
.Lxta.call_labels9:
	bl iprintf
	{
		ldc r5, 2
		nop
	}
	ldc r2, 100
	.loc	1 134 0                 # C:/Users/takaaki/git/sw_xSSDAC/module_operation_console/src/display_control.xc:134:0
	{
		mov r0, r5
		mov r1, r4
	}
.Lxta.call_labels10:
	bl OLED_SSD1306_put_string
	{
		ldc r0, 50
		nop
	}
	.loc	1 135 0                 # C:/Users/takaaki/git/sw_xSSDAC/module_operation_console/src/display_control.xc:135:0
	stw r0, dp[pause_counter]
	ldaw r0, dp[state]
	st8 r6, r0[r6]
	.loc	1 137 0                 # C:/Users/takaaki/git/sw_xSSDAC/module_operation_console/src/display_control.xc:137:0
	stw r5, dp[scrolling_row]
	{
		nop
		ldw r6, sp[6]
	}
	ldd r5, r4, sp[2]               # 4-byte Folded Reload
	{
		nop
		retsp 8
	}
	# RETURN_REG_HOLDER
.Ltmp83:
	.cc_bottom _SShowStreamFormat_0.function
	.set	_SShowStreamFormat_0.nstackwords,((siprintf.nstackwords $M iprintf.nstackwords $M OLED_SSD1306_put_string.nstackwords) + 8)
	.globl	_SShowStreamFormat_0.nstackwords
	.set	_SShowStreamFormat_0.maxcores,OLED_SSD1306_put_string.maxcores $M iprintf.maxcores $M siprintf.maxcores $M 1
	.globl	_SShowStreamFormat_0.maxcores
	.set	_SShowStreamFormat_0.maxtimers,OLED_SSD1306_put_string.maxtimers $M iprintf.maxtimers $M siprintf.maxtimers $M 0
	.globl	_SShowStreamFormat_0.maxtimers
	.set	_SShowStreamFormat_0.maxchanends,OLED_SSD1306_put_string.maxchanends $M iprintf.maxchanends $M siprintf.maxchanends $M 0
	.globl	_SShowStreamFormat_0.maxchanends
.Ltmp84:
	.size	_SShowStreamFormat_0, .Ltmp84-_SShowStreamFormat_0
.Lfunc_end14:
	.cfi_endproc

	.section	.cp.rodata.cst4,"aMc",@progbits,4
	.cc_top .LCPI15_0.data,.LCPI15_0
	.align	4
	.type	.LCPI15_0,@object
	.size	.LCPI15_0, 4
.LCPI15_0:
	.long	274877907               # 0x10624dd3
	.cc_bottom .LCPI15_0.data
	.cc_top .LCPI15_1.data,.LCPI15_1
	.align	4
	.type	.LCPI15_1,@object
	.size	.LCPI15_1, 4
.LCPI15_1:
	.long	1374389535              # 0x51eb851f
	.cc_bottom .LCPI15_1.data
	.text
	.globl	GetStreamFormatString
	.align	4
	.type	GetStreamFormatString,@function
	.cc_top GetStreamFormatString.function,GetStreamFormatString
GetStreamFormatString:                  # @GetStreamFormatString
.Lfunc_begin15:
	.loc	1 140 0                 # C:/Users/takaaki/git/sw_xSSDAC/module_operation_console/src/display_control.xc:140:0
	.cfi_startproc
	.issue_mode dual
# BB#0:                                 # %allocas
.Lxtalabel11:
	{
		nop
		dualentsp 4
	}
.Ltmp85:
	.cfi_def_cfa_offset 16
.Ltmp86:
	.cfi_offset 15, 0
	#DEBUG_VALUE: GetStreamFormatString:str <- R0
	.loc	1 141 0 prologue_end    # C:/Users/takaaki/git/sw_xSSDAC/module_operation_console/src/display_control.xc:141:0
.Ltmp87:
	ldw r1, dp[SampFreq]
	{
		ldc r2, 0
		nop
	}
	ldw r3, cp[.LCPI15_0]
	.loc	1 141 0                 # C:/Users/takaaki/git/sw_xSSDAC/module_operation_console/src/display_control.xc:141:0
	lmul r3, r11, r1, r3, r2, r2
	{
		shr r3, r3, 6
		nop
	}
	ldc r11, 1000
	.loc	1 142 0                 # C:/Users/takaaki/git/sw_xSSDAC/module_operation_console/src/display_control.xc:142:0
.Ltmp88:
	mul r11, r3, r11
	{
		sub r1, r1, r11
		nop
	}
	ldw r11, cp[.LCPI15_1]
	.loc	1 142 0                 # C:/Users/takaaki/git/sw_xSSDAC/module_operation_console/src/display_control.xc:142:0
	lmul r1, r2, r1, r11, r2, r2
	{
		shr r1, r1, 5
		nop
	}
.Ltmp89:
	#DEBUG_VALUE: freq_p <- R1
	.loc	1 143 0                 # C:/Users/takaaki/git/sw_xSSDAC/module_operation_console/src/display_control.xc:143:0
	ldw r2, dp[NumChan]
	.loc	1 143 0                 # C:/Users/takaaki/git/sw_xSSDAC/module_operation_console/src/display_control.xc:143:0
	ldw r11, dp[SampRes]
	{
		nop
		stw r1, sp[1]
	}
	{
		nop
		stw r11, sp[2]
	}
	.loc	1 143 0                 # C:/Users/takaaki/git/sw_xSSDAC/module_operation_console/src/display_control.xc:143:0
	ldaw r11, cp[.str14]
	{
		mov r1, r11
		nop
	}
.Ltmp90:
.Lxta.call_labels11:
	bl siprintf
.Ltmp91:
	{
		nop
		retsp 4
	}
	# RETURN_REG_HOLDER
.Ltmp92:
	.cc_bottom GetStreamFormatString.function
	.set	GetStreamFormatString.nstackwords,(siprintf.nstackwords + 4)
	.globl	GetStreamFormatString.nstackwords
	.set	GetStreamFormatString.maxcores,siprintf.maxcores $M 1
	.globl	GetStreamFormatString.maxcores
	.set	GetStreamFormatString.maxtimers,siprintf.maxtimers $M 0
	.globl	GetStreamFormatString.maxtimers
	.set	GetStreamFormatString.maxchanends,siprintf.maxchanends $M 0
	.globl	GetStreamFormatString.maxchanends
.Ltmp93:
	.size	GetStreamFormatString, .Ltmp93-GetStreamFormatString
.Lfunc_end15:
	.cfi_endproc

	.section	.cp.rodata.cst4,"aMc",@progbits,4
	.cc_top .LCPI16_0.data,.LCPI16_0
	.align	4
	.type	.LCPI16_0,@object
	.size	.LCPI16_0, 4
.LCPI16_0:
	.long	2290649225              # 0x88888889
	.cc_bottom .LCPI16_0.data
	.text
	.globl	UpdateTime
	.align	4
	.type	UpdateTime,@function
	.cc_top UpdateTime.function,UpdateTime
UpdateTime:                             # @UpdateTime
.Lfunc_begin16:
	.loc	1 150 0                 # C:/Users/takaaki/git/sw_xSSDAC/module_operation_console/src/display_control.xc:150:0
	.cfi_startproc
	.issue_mode dual
# BB#0:                                 # %allocas
.Lxtalabel12:
	{
		nop
		dualentsp 6
	}
.Ltmp94:
	.cfi_def_cfa_offset 24
.Ltmp95:
	.cfi_offset 15, 0
	std r5, r4, sp[2]               # 4-byte Folded Spill
.Ltmp96:
	.cfi_offset 4, -8
.Ltmp97:
	.cfi_offset 5, -4
	#DEBUG_VALUE: UpdateTime:row <- R0
	{
		mov r4, r0
		nop
	}
.Ltmp98:
	#DEBUG_VALUE: UpdateTime:row <- R4
	.loc	1 152 0 prologue_end    # C:/Users/takaaki/git/sw_xSSDAC/module_operation_console/src/display_control.xc:152:0
	ldw r0, dp[SecElapsed]
	{
		ldc r1, 0
		nop
	}
	ldw r2, cp[.LCPI16_0]
	.loc	1 152 0                 # C:/Users/takaaki/git/sw_xSSDAC/module_operation_console/src/display_control.xc:152:0
	lmul r1, r2, r0, r2, r1, r1
	{
		shr r2, r1, 5
		ldc r1, 60
	}
	.loc	1 153 0                 # C:/Users/takaaki/git/sw_xSSDAC/module_operation_console/src/display_control.xc:153:0
.Ltmp99:
	mul r1, r2, r1
	{
		sub r3, r0, r1
		nop
	}
.Ltmp100:
	#DEBUG_VALUE: sec <- R3
	.loc	1 154 0                 # C:/Users/takaaki/git/sw_xSSDAC/module_operation_console/src/display_control.xc:154:0
	ldaw r11, cp[.str15]
	{
		ldaw r5, sp[1]
		nop
	}
	{
		mov r0, r5
		mov r1, r11
	}
.Lxta.call_labels12:
	bl siprintf
.Ltmp101:
	#DEBUG_VALUE: UpdateTime:row <- R0
	{
		ldc r2, 12
		mov r0, r4
	}
.Ltmp102:
	.loc	1 155 0                 # C:/Users/takaaki/git/sw_xSSDAC/module_operation_console/src/display_control.xc:155:0
	{
		mov r1, r5
		nop
	}
.Lxta.call_labels13:
	bl OLED_SSD1306_put_string
	ldd r5, r4, sp[2]               # 4-byte Folded Reload
	{
		nop
		retsp 6
	}
	# RETURN_REG_HOLDER
.Ltmp103:
	.cc_bottom UpdateTime.function
	.set	UpdateTime.nstackwords,((siprintf.nstackwords $M OLED_SSD1306_put_string.nstackwords) + 6)
	.globl	UpdateTime.nstackwords
	.set	UpdateTime.maxcores,OLED_SSD1306_put_string.maxcores $M siprintf.maxcores $M 1
	.globl	UpdateTime.maxcores
	.set	UpdateTime.maxtimers,OLED_SSD1306_put_string.maxtimers $M siprintf.maxtimers $M 0
	.globl	UpdateTime.maxtimers
	.set	UpdateTime.maxchanends,OLED_SSD1306_put_string.maxchanends $M siprintf.maxchanends $M 0
	.globl	UpdateTime.maxchanends
.Ltmp104:
	.size	UpdateTime, .Ltmp104-UpdateTime
.Lfunc_end16:
	.cfi_endproc

	.section	.cp.rodata.cst4,"aMc",@progbits,4
	.cc_top .LCPI17_0.data,.LCPI17_0
	.align	4
	.type	.LCPI17_0,@object
	.size	.LCPI17_0, 4
.LCPI17_0:
	.long	2290649225              # 0x88888889
	.cc_bottom .LCPI17_0.data
	.text
	.globl	_SUpdateTime_0
	.align	4
	.type	_SUpdateTime_0,@function
	.cc_top _SUpdateTime_0.function,_SUpdateTime_0
_SUpdateTime_0:                         # @_SUpdateTime_0
.Lfunc_begin17:
	.loc	1 150 0                 # C:/Users/takaaki/git/sw_xSSDAC/module_operation_console/src/display_control.xc:150:0
	.cfi_startproc
	.issue_mode dual
# BB#0:                                 # %allocas
.Lxtalabel13:
	{
		nop
		dualentsp 6
	}
.Ltmp105:
	.cfi_def_cfa_offset 24
.Ltmp106:
	.cfi_offset 15, 0
	{
		nop
		stw r4, sp[4]
	}
.Ltmp107:
	.cfi_offset 4, -8
.Ltmp108:
	#DEBUG_VALUE: row <- 3
	.loc	1 152 0 prologue_end    # C:/Users/takaaki/git/sw_xSSDAC/module_operation_console/src/display_control.xc:152:0
	ldw r0, dp[SecElapsed]
	{
		ldc r1, 0
		nop
	}
	ldw r2, cp[.LCPI17_0]
	.loc	1 152 0                 # C:/Users/takaaki/git/sw_xSSDAC/module_operation_console/src/display_control.xc:152:0
	lmul r1, r2, r0, r2, r1, r1
	{
		shr r2, r1, 5
		ldc r1, 60
	}
	.loc	1 153 0                 # C:/Users/takaaki/git/sw_xSSDAC/module_operation_console/src/display_control.xc:153:0
.Ltmp109:
	mul r1, r2, r1
	{
		sub r3, r0, r1
		nop
	}
.Ltmp110:
	#DEBUG_VALUE: sec <- R3
	.loc	1 154 0                 # C:/Users/takaaki/git/sw_xSSDAC/module_operation_console/src/display_control.xc:154:0
	ldaw r11, cp[.str16]
	{
		ldaw r4, sp[1]
		nop
	}
	{
		mov r0, r4
		mov r1, r11
	}
.Lxta.call_labels14:
	bl siprintf
.Ltmp111:
	{
		mkmsk r0, 2
		ldc r2, 12
	}
	.loc	1 155 0                 # C:/Users/takaaki/git/sw_xSSDAC/module_operation_console/src/display_control.xc:155:0
	{
		mov r1, r4
		nop
	}
.Lxta.call_labels15:
	bl OLED_SSD1306_put_string
	{
		nop
		ldw r4, sp[4]
	}
	{
		nop
		retsp 6
	}
	# RETURN_REG_HOLDER
.Ltmp112:
	.cc_bottom _SUpdateTime_0.function
	.set	_SUpdateTime_0.nstackwords,((siprintf.nstackwords $M OLED_SSD1306_put_string.nstackwords) + 6)
	.globl	_SUpdateTime_0.nstackwords
	.set	_SUpdateTime_0.maxcores,OLED_SSD1306_put_string.maxcores $M siprintf.maxcores $M 1
	.globl	_SUpdateTime_0.maxcores
	.set	_SUpdateTime_0.maxtimers,OLED_SSD1306_put_string.maxtimers $M siprintf.maxtimers $M 0
	.globl	_SUpdateTime_0.maxtimers
	.set	_SUpdateTime_0.maxchanends,OLED_SSD1306_put_string.maxchanends $M siprintf.maxchanends $M 0
	.globl	_SUpdateTime_0.maxchanends
.Ltmp113:
	.size	_SUpdateTime_0, .Ltmp113-_SUpdateTime_0
.Lfunc_end17:
	.cfi_endproc

	.globl	ShowFolder
	.align	4
	.type	ShowFolder,@function
	.cc_top ShowFolder.function,ShowFolder
ShowFolder:                             # @ShowFolder
.Lfunc_begin18:
	.loc	1 158 0                 # C:/Users/takaaki/git/sw_xSSDAC/module_operation_console/src/display_control.xc:158:0
	.cfi_startproc
	.issue_mode dual
# BB#0:                                 # %allocas
.Lxtalabel14:
	{
		nop
		dualentsp 6
	}
.Ltmp114:
	.cfi_def_cfa_offset 24
.Ltmp115:
	.cfi_offset 15, 0
	std r5, r4, sp[1]               # 4-byte Folded Spill
.Ltmp116:
	.cfi_offset 4, -16
.Ltmp117:
	.cfi_offset 5, -12
	std r7, r6, sp[2]               # 4-byte Folded Spill
.Ltmp118:
	.cfi_offset 6, -8
.Ltmp119:
	.cfi_offset 7, -4
	#DEBUG_VALUE: ShowFolder:row <- R0
	#DEBUG_VALUE: ShowFolder:i <- R1
.Ltmp120:
	#DEBUG_VALUE: ShowFolder:i <- R4
	#DEBUG_VALUE: ShowFolder:row <- R5
	{
		mov r4, r1
		mov r5, r0
	}
.Ltmp121:
	.loc	1 159 0 prologue_end    # C:/Users/takaaki/git/sw_xSSDAC/module_operation_console/src/display_control.xc:159:0
	ldaw r6, dp[folder_string]
	ldc r7, 256
	{
		mov r1, r6
		mov r2, r7
	}
.Lxta.call_labels16:
	bl OLED_SSD1306_put_string
	{
		ldc r0, 50
		nop
	}
	.loc	1 160 0                 # C:/Users/takaaki/git/sw_xSSDAC/module_operation_console/src/display_control.xc:160:0
	stw r0, dp[pause_counter]
	ldaw r0, dp[state]
	{
		ldc r1, 0
		nop
	}
	st8 r1, r0[r1]
	.loc	1 162 0                 # C:/Users/takaaki/git/sw_xSSDAC/module_operation_console/src/display_control.xc:162:0
	stw r5, dp[scrolling_row]
	{
		nop
		ldw r0, r4[0]
	}
	{
		nop
		ldw r1, r4[1]
	}
	{
		nop
		ldw r11, r1[0]
	}
	.loc	1 164 0                 # C:/Users/takaaki/git/sw_xSSDAC/module_operation_console/src/display_control.xc:164:0
	{
		ldc r1, 4
		stw r7, sp[1]
	}
	{
		mov r2, r7
		mov r3, r6
	}
.Lxta.call_labels17:
	{
		nop
		bla r11
	}
	ldd r7, r6, sp[2]               # 4-byte Folded Reload
	ldd r5, r4, sp[1]               # 4-byte Folded Reload
	{
		nop
		retsp 6
	}
	# RETURN_REG_HOLDER
.Ltmp122:
	.cc_bottom ShowFolder.function
	.set	ShowFolder.nstackwords,((OLED_SSD1306_put_string.nstackwords $M _i.qspi_access.write.max.nstackwords) + 6)
	.globl	ShowFolder.nstackwords
	.set	ShowFolder.maxcores,OLED_SSD1306_put_string.maxcores $M _i.qspi_access.write.max.maxcores $M 1
	.globl	ShowFolder.maxcores
	.set	ShowFolder.maxtimers,OLED_SSD1306_put_string.maxtimers $M _i.qspi_access.write.max.maxtimers $M 0
	.globl	ShowFolder.maxtimers
	.set	ShowFolder.maxchanends,OLED_SSD1306_put_string.maxchanends $M _i.qspi_access.write.max.maxchanends $M 0
	.globl	ShowFolder.maxchanends
.Ltmp123:
	.size	ShowFolder, .Ltmp123-ShowFolder
.Lfunc_end18:
	.cfi_endproc

	.globl	_SShowFolder_0
	.align	4
	.type	_SShowFolder_0,@function
	.cc_top _SShowFolder_0.function,_SShowFolder_0
_SShowFolder_0:                         # @_SShowFolder_0
.Lfunc_begin19:
	.loc	1 158 0                 # C:/Users/takaaki/git/sw_xSSDAC/module_operation_console/src/display_control.xc:158:0
	.cfi_startproc
	.issue_mode dual
# BB#0:                                 # %allocas
.Lxtalabel15:
	{
		nop
		dualentsp 6
	}
.Ltmp124:
	.cfi_def_cfa_offset 24
.Ltmp125:
	.cfi_offset 15, 0
	std r5, r4, sp[1]               # 4-byte Folded Spill
.Ltmp126:
	.cfi_offset 4, -16
.Ltmp127:
	.cfi_offset 5, -12
	{
		nop
		stw r6, sp[4]
	}
.Ltmp128:
	.cfi_offset 6, -8
.Ltmp129:
	#DEBUG_VALUE: row <- 0
	.loc	1 159 0 prologue_end    # C:/Users/takaaki/git/sw_xSSDAC/module_operation_console/src/display_control.xc:159:0
	ldaw r4, dp[folder_string]
	{
		ldc r5, 0
		nop
	}
	ldc r6, 256
	{
		mov r0, r5
		mov r1, r4
	}
	{
		mov r2, r6
		nop
	}
.Lxta.call_labels18:
	bl OLED_SSD1306_put_string
	{
		ldc r0, 50
		nop
	}
	.loc	1 160 0                 # C:/Users/takaaki/git/sw_xSSDAC/module_operation_console/src/display_control.xc:160:0
	stw r0, dp[pause_counter]
	ldaw r0, dp[state]
	st8 r5, r0[r5]
	.loc	1 162 0                 # C:/Users/takaaki/git/sw_xSSDAC/module_operation_console/src/display_control.xc:162:0
	stw r5, dp[scrolling_row]
	{
		ldc r1, 4
		nop
	}
	{
		nop
		ldw r0, r1[0]
	}
	{
		nop
		ldw r11, r0[0]
	}
	.loc	1 164 0                 # C:/Users/takaaki/git/sw_xSSDAC/module_operation_console/src/display_control.xc:164:0
	{
		mov r0, r5
		stw r6, sp[1]
	}
	{
		mov r2, r6
		mov r3, r4
	}
.Lxta.call_labels19:
	{
		nop
		bla r11
	}
	{
		nop
		ldw r6, sp[4]
	}
	ldd r5, r4, sp[1]               # 4-byte Folded Reload
	{
		nop
		retsp 6
	}
	# RETURN_REG_HOLDER
.Ltmp130:
	.cc_bottom _SShowFolder_0.function
	.set	_SShowFolder_0.nstackwords,((OLED_SSD1306_put_string.nstackwords $M _i.qspi_access.write.max.nstackwords) + 6)
	.globl	_SShowFolder_0.nstackwords
	.set	_SShowFolder_0.maxcores,OLED_SSD1306_put_string.maxcores $M _i.qspi_access.write.max.maxcores $M 1
	.globl	_SShowFolder_0.maxcores
	.set	_SShowFolder_0.maxtimers,OLED_SSD1306_put_string.maxtimers $M _i.qspi_access.write.max.maxtimers $M 0
	.globl	_SShowFolder_0.maxtimers
	.set	_SShowFolder_0.maxchanends,OLED_SSD1306_put_string.maxchanends $M _i.qspi_access.write.max.maxchanends $M 0
	.globl	_SShowFolder_0.maxchanends
.Ltmp131:
	.size	_SShowFolder_0, .Ltmp131-_SShowFolder_0
.Lfunc_end19:
	.cfi_endproc

	.globl	ShowTrack
	.align	4
	.type	ShowTrack,@function
	.cc_top ShowTrack.function,ShowTrack
ShowTrack:                              # @ShowTrack
.Lfunc_begin20:
	.loc	1 167 0                 # C:/Users/takaaki/git/sw_xSSDAC/module_operation_console/src/display_control.xc:167:0
	.cfi_startproc
	.issue_mode dual
# BB#0:                                 # %allocas
.Lxtalabel16:
	{
		nop
		dualentsp 6
	}
.Ltmp132:
	.cfi_def_cfa_offset 24
.Ltmp133:
	.cfi_offset 15, 0
	std r5, r4, sp[1]               # 4-byte Folded Spill
.Ltmp134:
	.cfi_offset 4, -16
.Ltmp135:
	.cfi_offset 5, -12
	std r7, r6, sp[2]               # 4-byte Folded Spill
.Ltmp136:
	.cfi_offset 6, -8
.Ltmp137:
	.cfi_offset 7, -4
	#DEBUG_VALUE: ShowTrack:row <- R0
	#DEBUG_VALUE: ShowTrack:i <- R1
.Ltmp138:
	#DEBUG_VALUE: ShowTrack:i <- R4
	#DEBUG_VALUE: ShowTrack:row <- R5
	{
		mov r4, r1
		mov r5, r0
	}
.Ltmp139:
	.loc	1 168 0 prologue_end    # C:/Users/takaaki/git/sw_xSSDAC/module_operation_console/src/display_control.xc:168:0
	ldaw r6, dp[track_string]
	ldc r7, 256
	{
		mov r1, r6
		mov r2, r7
	}
.Lxta.call_labels20:
	bl OLED_SSD1306_put_string
	{
		ldc r0, 50
		nop
	}
	.loc	1 169 0                 # C:/Users/takaaki/git/sw_xSSDAC/module_operation_console/src/display_control.xc:169:0
	stw r0, dp[pause_counter]
	ldaw r0, dp[state]
	{
		ldc r1, 0
		nop
	}
	st8 r1, r0[r1]
	.loc	1 171 0                 # C:/Users/takaaki/git/sw_xSSDAC/module_operation_console/src/display_control.xc:171:0
	stw r5, dp[scrolling_row]
	{
		nop
		ldw r0, r4[0]
	}
	{
		nop
		ldw r1, r4[1]
	}
	{
		nop
		ldw r11, r1[0]
	}
	{
		nop
		stw r7, sp[1]
	}
	ldc r1, 260
	.loc	1 173 0                 # C:/Users/takaaki/git/sw_xSSDAC/module_operation_console/src/display_control.xc:173:0
	{
		mov r2, r7
		mov r3, r6
	}
.Lxta.call_labels21:
	{
		nop
		bla r11
	}
	ldd r7, r6, sp[2]               # 4-byte Folded Reload
	ldd r5, r4, sp[1]               # 4-byte Folded Reload
	{
		nop
		retsp 6
	}
	# RETURN_REG_HOLDER
.Ltmp140:
	.cc_bottom ShowTrack.function
	.set	ShowTrack.nstackwords,((OLED_SSD1306_put_string.nstackwords $M _i.qspi_access.write.max.nstackwords) + 6)
	.globl	ShowTrack.nstackwords
	.set	ShowTrack.maxcores,OLED_SSD1306_put_string.maxcores $M _i.qspi_access.write.max.maxcores $M 1
	.globl	ShowTrack.maxcores
	.set	ShowTrack.maxtimers,OLED_SSD1306_put_string.maxtimers $M _i.qspi_access.write.max.maxtimers $M 0
	.globl	ShowTrack.maxtimers
	.set	ShowTrack.maxchanends,OLED_SSD1306_put_string.maxchanends $M _i.qspi_access.write.max.maxchanends $M 0
	.globl	ShowTrack.maxchanends
.Ltmp141:
	.size	ShowTrack, .Ltmp141-ShowTrack
.Lfunc_end20:
	.cfi_endproc

	.globl	_SShowTrack_0
	.align	4
	.type	_SShowTrack_0,@function
	.cc_top _SShowTrack_0.function,_SShowTrack_0
_SShowTrack_0:                          # @_SShowTrack_0
.Lfunc_begin21:
	.loc	1 167 0                 # C:/Users/takaaki/git/sw_xSSDAC/module_operation_console/src/display_control.xc:167:0
	.cfi_startproc
	.issue_mode dual
# BB#0:                                 # %allocas
.Lxtalabel17:
	{
		nop
		dualentsp 6
	}
.Ltmp142:
	.cfi_def_cfa_offset 24
.Ltmp143:
	.cfi_offset 15, 0
	std r5, r4, sp[1]               # 4-byte Folded Spill
.Ltmp144:
	.cfi_offset 4, -16
.Ltmp145:
	.cfi_offset 5, -12
	{
		nop
		stw r6, sp[4]
	}
.Ltmp146:
	.cfi_offset 6, -8
.Ltmp147:
	#DEBUG_VALUE: row <- 1
	.loc	1 168 0 prologue_end    # C:/Users/takaaki/git/sw_xSSDAC/module_operation_console/src/display_control.xc:168:0
	ldaw r4, dp[track_string]
	{
		mkmsk r5, 1
		nop
	}
	ldc r6, 256
	{
		mov r0, r5
		mov r1, r4
	}
	{
		mov r2, r6
		nop
	}
.Lxta.call_labels22:
	bl OLED_SSD1306_put_string
	{
		ldc r0, 50
		nop
	}
	.loc	1 169 0                 # C:/Users/takaaki/git/sw_xSSDAC/module_operation_console/src/display_control.xc:169:0
	stw r0, dp[pause_counter]
	ldaw r1, dp[state]
	{
		ldc r0, 0
		nop
	}
	st8 r0, r1[r0]
	.loc	1 171 0                 # C:/Users/takaaki/git/sw_xSSDAC/module_operation_console/src/display_control.xc:171:0
	stw r5, dp[scrolling_row]
	{
		ldc r1, 4
		nop
	}
	{
		nop
		ldw r1, r1[0]
	}
	{
		nop
		ldw r11, r1[0]
	}
	{
		nop
		stw r6, sp[1]
	}
	ldc r1, 260
	.loc	1 173 0                 # C:/Users/takaaki/git/sw_xSSDAC/module_operation_console/src/display_control.xc:173:0
	{
		mov r2, r6
		mov r3, r4
	}
.Lxta.call_labels23:
	{
		nop
		bla r11
	}
	{
		nop
		ldw r6, sp[4]
	}
	ldd r5, r4, sp[1]               # 4-byte Folded Reload
	{
		nop
		retsp 6
	}
	# RETURN_REG_HOLDER
.Ltmp148:
	.cc_bottom _SShowTrack_0.function
	.set	_SShowTrack_0.nstackwords,((OLED_SSD1306_put_string.nstackwords $M _i.qspi_access.write.max.nstackwords) + 6)
	.globl	_SShowTrack_0.nstackwords
	.set	_SShowTrack_0.maxcores,OLED_SSD1306_put_string.maxcores $M _i.qspi_access.write.max.maxcores $M 1
	.globl	_SShowTrack_0.maxcores
	.set	_SShowTrack_0.maxtimers,OLED_SSD1306_put_string.maxtimers $M _i.qspi_access.write.max.maxtimers $M 0
	.globl	_SShowTrack_0.maxtimers
	.set	_SShowTrack_0.maxchanends,OLED_SSD1306_put_string.maxchanends $M _i.qspi_access.write.max.maxchanends $M 0
	.globl	_SShowTrack_0.maxchanends
.Ltmp149:
	.size	_SShowTrack_0, .Ltmp149-_SShowTrack_0
.Lfunc_end21:
	.cfi_endproc

	.globl	ShowAudioProperty
	.align	4
	.type	ShowAudioProperty,@function
	.cc_top ShowAudioProperty.function,ShowAudioProperty
ShowAudioProperty:                      # @ShowAudioProperty
.Lfunc_begin22:
	.loc	1 176 0                 # C:/Users/takaaki/git/sw_xSSDAC/module_operation_console/src/display_control.xc:176:0
	.cfi_startproc
	.issue_mode dual
# BB#0:                                 # %allocas
.Lxtalabel18:
	{
		nop
		dualentsp 4
	}
.Ltmp150:
	.cfi_def_cfa_offset 16
.Ltmp151:
	.cfi_offset 15, 0
.Ltmp152:
	.cfi_offset 4, -8
	#DEBUG_VALUE: ShowAudioProperty:row <- R0
.Ltmp153:
	#DEBUG_VALUE: ShowAudioProperty:row <- R4
	{
		mov r4, r0
		stw r4, sp[2]
	}
.Ltmp154:
	.loc	1 177 0 prologue_end    # C:/Users/takaaki/git/sw_xSSDAC/module_operation_console/src/display_control.xc:177:0
	ldaw r1, dp[audio_property_string]
	ldc r2, 100
.Lxta.call_labels24:
	bl OLED_SSD1306_put_string
	{
		ldc r0, 50
		nop
	}
	.loc	1 178 0                 # C:/Users/takaaki/git/sw_xSSDAC/module_operation_console/src/display_control.xc:178:0
	stw r0, dp[pause_counter]
	ldaw r0, dp[state]
	{
		ldc r1, 0
		nop
	}
	st8 r1, r0[r1]
	.loc	1 180 0                 # C:/Users/takaaki/git/sw_xSSDAC/module_operation_console/src/display_control.xc:180:0
	stw r4, dp[scrolling_row]
	{
		nop
		ldw r4, sp[2]
	}
	{
		nop
		retsp 4
	}
	# RETURN_REG_HOLDER
.Ltmp155:
	.cc_bottom ShowAudioProperty.function
	.set	ShowAudioProperty.nstackwords,(OLED_SSD1306_put_string.nstackwords + 4)
	.globl	ShowAudioProperty.nstackwords
	.set	ShowAudioProperty.maxcores,OLED_SSD1306_put_string.maxcores $M 1
	.globl	ShowAudioProperty.maxcores
	.set	ShowAudioProperty.maxtimers,OLED_SSD1306_put_string.maxtimers $M 0
	.globl	ShowAudioProperty.maxtimers
	.set	ShowAudioProperty.maxchanends,OLED_SSD1306_put_string.maxchanends $M 0
	.globl	ShowAudioProperty.maxchanends
.Ltmp156:
	.size	ShowAudioProperty, .Ltmp156-ShowAudioProperty
.Lfunc_end22:
	.cfi_endproc

	.globl	_SShowAudioProperty_0
	.align	4
	.type	_SShowAudioProperty_0,@function
	.cc_top _SShowAudioProperty_0.function,_SShowAudioProperty_0
_SShowAudioProperty_0:                  # @_SShowAudioProperty_0
.Lfunc_begin23:
	.loc	1 176 0                 # C:/Users/takaaki/git/sw_xSSDAC/module_operation_console/src/display_control.xc:176:0
	.cfi_startproc
	.issue_mode dual
# BB#0:                                 # %allocas
.Lxtalabel19:
	{
		nop
		dualentsp 4
	}
.Ltmp157:
	.cfi_def_cfa_offset 16
.Ltmp158:
	.cfi_offset 15, 0
	{
		nop
		stw r4, sp[2]
	}
.Ltmp159:
	.cfi_offset 4, -8
.Ltmp160:
	#DEBUG_VALUE: row <- 2
	.loc	1 177 0 prologue_end    # C:/Users/takaaki/git/sw_xSSDAC/module_operation_console/src/display_control.xc:177:0
	ldaw r1, dp[audio_property_string]
	{
		ldc r4, 2
		nop
	}
	ldc r2, 100
	{
		mov r0, r4
		nop
	}
.Lxta.call_labels25:
	bl OLED_SSD1306_put_string
	{
		ldc r0, 50
		nop
	}
	.loc	1 178 0                 # C:/Users/takaaki/git/sw_xSSDAC/module_operation_console/src/display_control.xc:178:0
	stw r0, dp[pause_counter]
	ldaw r0, dp[state]
	{
		ldc r1, 0
		nop
	}
	st8 r1, r0[r1]
	.loc	1 180 0                 # C:/Users/takaaki/git/sw_xSSDAC/module_operation_console/src/display_control.xc:180:0
	stw r4, dp[scrolling_row]
	{
		nop
		ldw r4, sp[2]
	}
	{
		nop
		retsp 4
	}
	# RETURN_REG_HOLDER
.Ltmp161:
	.cc_bottom _SShowAudioProperty_0.function
	.set	_SShowAudioProperty_0.nstackwords,(OLED_SSD1306_put_string.nstackwords + 4)
	.globl	_SShowAudioProperty_0.nstackwords
	.set	_SShowAudioProperty_0.maxcores,OLED_SSD1306_put_string.maxcores $M 1
	.globl	_SShowAudioProperty_0.maxcores
	.set	_SShowAudioProperty_0.maxtimers,OLED_SSD1306_put_string.maxtimers $M 0
	.globl	_SShowAudioProperty_0.maxtimers
	.set	_SShowAudioProperty_0.maxchanends,OLED_SSD1306_put_string.maxchanends $M 0
	.globl	_SShowAudioProperty_0.maxchanends
.Ltmp162:
	.size	_SShowAudioProperty_0, .Ltmp162-_SShowAudioProperty_0
.Lfunc_end23:
	.cfi_endproc

	.globl	ProposedInterpolationMode
	.align	4
	.type	ProposedInterpolationMode,@function
	.cc_top ProposedInterpolationMode.function,ProposedInterpolationMode
ProposedInterpolationMode:              # @ProposedInterpolationMode
.Lfunc_begin24:
	.loc	1 186 0                 # C:/Users/takaaki/git/sw_xSSDAC/module_operation_console/src/display_control.xc:186:0
	.cfi_startproc
	.issue_mode dual
# BB#0:                                 # %allocas
.Lxtalabel20:
	{
		nop
		dualentsp 0
	}
	.loc	1 189 0 prologue_end    # C:/Users/takaaki/git/sw_xSSDAC/module_operation_console/src/display_control.xc:189:0
.Ltmp163:
	ldw r0, dp[proposed_intpol_mode]
.Ltmp164:
	#DEBUG_VALUE: temp <- R0
	{
		nop
		retsp 0
	}
	# RETURN_REG_HOLDER
.Ltmp165:
	.cc_bottom ProposedInterpolationMode.function
	.set	ProposedInterpolationMode.nstackwords,0
	.globl	ProposedInterpolationMode.nstackwords
	.set	ProposedInterpolationMode.maxcores,1
	.globl	ProposedInterpolationMode.maxcores
	.set	ProposedInterpolationMode.maxtimers,0
	.globl	ProposedInterpolationMode.maxtimers
	.set	ProposedInterpolationMode.maxchanends,0
	.globl	ProposedInterpolationMode.maxchanends
.Ltmp166:
	.size	ProposedInterpolationMode, .Ltmp166-ProposedInterpolationMode
.Lfunc_end24:
	.cfi_endproc

	.globl	FixedInterpolationMode
	.align	4
	.type	FixedInterpolationMode,@function
	.cc_top FixedInterpolationMode.function,FixedInterpolationMode
FixedInterpolationMode:                 # @FixedInterpolationMode
.Lfunc_begin25:
	.loc	1 195 0                 # C:/Users/takaaki/git/sw_xSSDAC/module_operation_console/src/display_control.xc:195:0
	.cfi_startproc
	.issue_mode dual
# BB#0:                                 # %allocas
.Lxtalabel21:
	{
		nop
		dualentsp 0
	}
	.loc	1 198 0 prologue_end    # C:/Users/takaaki/git/sw_xSSDAC/module_operation_console/src/display_control.xc:198:0
.Ltmp167:
	ldw r0, dp[fixed_intpol_mode]
.Ltmp168:
	#DEBUG_VALUE: temp <- R0
	{
		nop
		retsp 0
	}
	# RETURN_REG_HOLDER
.Ltmp169:
	.cc_bottom FixedInterpolationMode.function
	.set	FixedInterpolationMode.nstackwords,0
	.globl	FixedInterpolationMode.nstackwords
	.set	FixedInterpolationMode.maxcores,1
	.globl	FixedInterpolationMode.maxcores
	.set	FixedInterpolationMode.maxtimers,0
	.globl	FixedInterpolationMode.maxtimers
	.set	FixedInterpolationMode.maxchanends,0
	.globl	FixedInterpolationMode.maxchanends
.Ltmp170:
	.size	FixedInterpolationMode, .Ltmp170-FixedInterpolationMode
.Lfunc_end25:
	.cfi_endproc

	.globl	ShowInterpolationMode
	.align	4
	.type	ShowInterpolationMode,@function
	.cc_top ShowInterpolationMode.function,ShowInterpolationMode
ShowInterpolationMode:                  # @ShowInterpolationMode
.Lfunc_begin26:
	.loc	1 203 0                 # C:/Users/takaaki/git/sw_xSSDAC/module_operation_console/src/display_control.xc:203:0
	.cfi_startproc
	.issue_mode dual
# BB#0:                                 # %allocas
.Lxtalabel22:
.Ltmp171:
	.cfi_def_cfa_offset 8
.Ltmp172:
	.cfi_offset 15, 0
	#DEBUG_VALUE: ShowInterpolationMode:row <- R0
	#DEBUG_VALUE: ShowInterpolationMode:mode <- R1
	{
		sub r1, r1, 1
		dualentsp 2
	}
.Ltmp173:
	{
		ldc r2, 5
		nop
	}
	.loc	1 204 0 prologue_end    # C:/Users/takaaki/git/sw_xSSDAC/module_operation_console/src/display_control.xc:204:0
.Ltmp174:
	{
		lsu r2, r2, r1
		nop
	}
	bf r2, .LBB26_1
.Ltmp175:
# BB#2:                                 # %switchdefault
.Lxtalabel23:
	#DEBUG_VALUE: ShowInterpolationMode:row <- R0
	.loc	1 224 0                 # C:/Users/takaaki/git/sw_xSSDAC/module_operation_console/src/display_control.xc:224:0
	ldaw r11, cp[.str23]
.Ltmp176:
.LBB26_9:                               # %return
.Lxtalabel24:
	{
		ldc r2, 17
		mov r1, r11
	}
	.loc	1 221 0                 # C:/Users/takaaki/git/sw_xSSDAC/module_operation_console/src/display_control.xc:221:0
.Lxta.call_labels26:
	bl OLED_SSD1306_put_string
	{
		nop
		retsp 2
	}
	# RETURN_REG_HOLDER
.LBB26_1:                               # %allocas
.Lxtalabel25:
.Ltmp177:
	#DEBUG_VALUE: ShowInterpolationMode:row <- R0

	.xtabranch .Ljumptable0+4,.Ljumptable0+8,.Ljumptable0+12,.Ljumptable0+16,.Ljumptable0+20,.Ljumptable0+24
.Ljumptable0:
		
	{
		nop
		bru r1
	}
	.jmptable32 .LBB26_3,.LBB26_4,.LBB26_5,.LBB26_6,.LBB26_7,.LBB26_8
.Ltmp178:
.LBB26_3:                               # %switchcase
.Lxtalabel26:
	#DEBUG_VALUE: ShowInterpolationMode:row <- R0
	.loc	1 206 0                 # C:/Users/takaaki/git/sw_xSSDAC/module_operation_console/src/display_control.xc:206:0
	ldaw r11, cp[.str17]
	bu .LBB26_9
.Ltmp179:
.LBB26_4:                               # %switchcase1
.Lxtalabel27:
	#DEBUG_VALUE: ShowInterpolationMode:row <- R0
	.loc	1 209 0                 # C:/Users/takaaki/git/sw_xSSDAC/module_operation_console/src/display_control.xc:209:0
	ldaw r11, cp[.str18]
	bu .LBB26_9
.Ltmp180:
.LBB26_5:                               # %switchcase2
.Lxtalabel28:
	#DEBUG_VALUE: ShowInterpolationMode:row <- R0
	.loc	1 212 0                 # C:/Users/takaaki/git/sw_xSSDAC/module_operation_console/src/display_control.xc:212:0
	ldaw r11, cp[.str19]
	bu .LBB26_9
.Ltmp181:
.LBB26_6:                               # %switchcase5
.Lxtalabel29:
	#DEBUG_VALUE: ShowInterpolationMode:row <- R0
	.loc	1 215 0                 # C:/Users/takaaki/git/sw_xSSDAC/module_operation_console/src/display_control.xc:215:0
	ldaw r11, cp[.str20]
	bu .LBB26_9
.Ltmp182:
.LBB26_7:                               # %switchcase8
.Lxtalabel30:
	#DEBUG_VALUE: ShowInterpolationMode:row <- R0
	.loc	1 218 0                 # C:/Users/takaaki/git/sw_xSSDAC/module_operation_console/src/display_control.xc:218:0
	ldaw r11, cp[.str21]
	bu .LBB26_9
.Ltmp183:
.LBB26_8:                               # %switchcase11
.Lxtalabel31:
	#DEBUG_VALUE: ShowInterpolationMode:row <- R0
	.loc	1 221 0                 # C:/Users/takaaki/git/sw_xSSDAC/module_operation_console/src/display_control.xc:221:0
	ldaw r11, cp[.str22]
	bu .LBB26_9
.Ltmp184:
	.cc_bottom ShowInterpolationMode.function
	.set	ShowInterpolationMode.nstackwords,(OLED_SSD1306_put_string.nstackwords + 2)
	.globl	ShowInterpolationMode.nstackwords
	.set	ShowInterpolationMode.maxcores,OLED_SSD1306_put_string.maxcores $M 1
	.globl	ShowInterpolationMode.maxcores
	.set	ShowInterpolationMode.maxtimers,OLED_SSD1306_put_string.maxtimers $M 0
	.globl	ShowInterpolationMode.maxtimers
	.set	ShowInterpolationMode.maxchanends,OLED_SSD1306_put_string.maxchanends $M 0
	.globl	ShowInterpolationMode.maxchanends
.Ltmp185:
	.size	ShowInterpolationMode, .Ltmp185-ShowInterpolationMode
.Lfunc_end26:
	.cfi_endproc

	.globl	_SShowInterpolationMode_0
	.align	4
	.type	_SShowInterpolationMode_0,@function
	.cc_top _SShowInterpolationMode_0.function,_SShowInterpolationMode_0
_SShowInterpolationMode_0:              # @_SShowInterpolationMode_0
.Lfunc_begin27:
	.loc	1 203 0                 # C:/Users/takaaki/git/sw_xSSDAC/module_operation_console/src/display_control.xc:203:0
	.cfi_startproc
	.issue_mode dual
# BB#0:                                 # %allocas
.Lxtalabel32:
.Ltmp186:
	.cfi_def_cfa_offset 8
.Ltmp187:
	.cfi_offset 15, 0
	#DEBUG_VALUE: ShowInterpolationMode:mode <- R0
.Ltmp188:
	#DEBUG_VALUE: row <- 3
	{
		sub r0, r0, 1
		dualentsp 2
	}
.Ltmp189:
	{
		ldc r1, 5
		nop
	}
	.loc	1 204 0 prologue_end    # C:/Users/takaaki/git/sw_xSSDAC/module_operation_console/src/display_control.xc:204:0
.Ltmp190:
	{
		lsu r1, r1, r0
		nop
	}
	bf r1, .LBB27_1
# BB#2:                                 # %switchdefault
.Lxtalabel33:
	#DEBUG_VALUE: row <- 3
	.loc	1 224 0                 # C:/Users/takaaki/git/sw_xSSDAC/module_operation_console/src/display_control.xc:224:0
	ldaw r11, cp[.str30]
.LBB27_9:                               # %return
.Lxtalabel34:
	{
		mkmsk r0, 2
		ldc r2, 17
	}
	.loc	1 221 0                 # C:/Users/takaaki/git/sw_xSSDAC/module_operation_console/src/display_control.xc:221:0
	{
		mov r1, r11
		nop
	}
.Lxta.call_labels27:
	bl OLED_SSD1306_put_string
	{
		nop
		retsp 2
	}
	# RETURN_REG_HOLDER
.LBB27_1:                               # %allocas
.Lxtalabel35:

	.xtabranch .Ljumptable1+4,.Ljumptable1+8,.Ljumptable1+12,.Ljumptable1+16,.Ljumptable1+20,.Ljumptable1+24
.Ljumptable1:
		
	{
		nop
		bru r0
	}
	.jmptable32 .LBB27_3,.LBB27_4,.LBB27_5,.LBB27_6,.LBB27_7,.LBB27_8
.LBB27_3:                               # %switchcase
.Lxtalabel36:
	.loc	1 206 0                 # C:/Users/takaaki/git/sw_xSSDAC/module_operation_console/src/display_control.xc:206:0
	ldaw r11, cp[.str24]
	bu .LBB27_9
.LBB27_4:                               # %switchcase1
.Lxtalabel37:
	.loc	1 209 0                 # C:/Users/takaaki/git/sw_xSSDAC/module_operation_console/src/display_control.xc:209:0
	ldaw r11, cp[.str25]
	bu .LBB27_9
.LBB27_5:                               # %switchcase2
.Lxtalabel38:
	.loc	1 212 0                 # C:/Users/takaaki/git/sw_xSSDAC/module_operation_console/src/display_control.xc:212:0
	ldaw r11, cp[.str26]
	bu .LBB27_9
.LBB27_6:                               # %switchcase5
.Lxtalabel39:
	.loc	1 215 0                 # C:/Users/takaaki/git/sw_xSSDAC/module_operation_console/src/display_control.xc:215:0
	ldaw r11, cp[.str27]
	bu .LBB27_9
.LBB27_7:                               # %switchcase8
.Lxtalabel40:
	.loc	1 218 0                 # C:/Users/takaaki/git/sw_xSSDAC/module_operation_console/src/display_control.xc:218:0
	ldaw r11, cp[.str28]
	bu .LBB27_9
.LBB27_8:                               # %switchcase11
.Lxtalabel41:
	.loc	1 221 0                 # C:/Users/takaaki/git/sw_xSSDAC/module_operation_console/src/display_control.xc:221:0
	ldaw r11, cp[.str29]
	bu .LBB27_9
.Ltmp191:
	.cc_bottom _SShowInterpolationMode_0.function
	.set	_SShowInterpolationMode_0.nstackwords,(OLED_SSD1306_put_string.nstackwords + 2)
	.globl	_SShowInterpolationMode_0.nstackwords
	.set	_SShowInterpolationMode_0.maxcores,OLED_SSD1306_put_string.maxcores $M 1
	.globl	_SShowInterpolationMode_0.maxcores
	.set	_SShowInterpolationMode_0.maxtimers,OLED_SSD1306_put_string.maxtimers $M 0
	.globl	_SShowInterpolationMode_0.maxtimers
	.set	_SShowInterpolationMode_0.maxchanends,OLED_SSD1306_put_string.maxchanends $M 0
	.globl	_SShowInterpolationMode_0.maxchanends
.Ltmp192:
	.size	_SShowInterpolationMode_0, .Ltmp192-_SShowInterpolationMode_0
.Lfunc_end27:
	.cfi_endproc

	.globl	SelectedFunction
	.align	4
	.type	SelectedFunction,@function
	.cc_top SelectedFunction.function,SelectedFunction
SelectedFunction:                       # @SelectedFunction
.Lfunc_begin28:
	.loc	1 231 0                 # C:/Users/takaaki/git/sw_xSSDAC/module_operation_console/src/display_control.xc:231:0
	.cfi_startproc
	.issue_mode dual
# BB#0:                                 # %allocas
.Lxtalabel42:
	{
		nop
		dualentsp 0
	}
	.loc	1 234 0 prologue_end    # C:/Users/takaaki/git/sw_xSSDAC/module_operation_console/src/display_control.xc:234:0
.Ltmp193:
	ldw r0, dp[selected_function]
.Ltmp194:
	#DEBUG_VALUE: temp <- R0
	{
		nop
		retsp 0
	}
	# RETURN_REG_HOLDER
.Ltmp195:
	.cc_bottom SelectedFunction.function
	.set	SelectedFunction.nstackwords,0
	.globl	SelectedFunction.nstackwords
	.set	SelectedFunction.maxcores,1
	.globl	SelectedFunction.maxcores
	.set	SelectedFunction.maxtimers,0
	.globl	SelectedFunction.maxtimers
	.set	SelectedFunction.maxchanends,0
	.globl	SelectedFunction.maxchanends
.Ltmp196:
	.size	SelectedFunction, .Ltmp196-SelectedFunction
.Lfunc_end28:
	.cfi_endproc

	.globl	GetFunctionString
	.align	4
	.type	GetFunctionString,@function
	.cc_top GetFunctionString.function,GetFunctionString
GetFunctionString:                      # @GetFunctionString
.Lfunc_begin29:
	.loc	1 238 0                 # C:/Users/takaaki/git/sw_xSSDAC/module_operation_console/src/display_control.xc:238:0
	.cfi_startproc
	.issue_mode dual
# BB#0:                                 # %allocas
.Lxtalabel43:
	{
		nop
		dualentsp 0
	}
	#DEBUG_VALUE: GetFunctionString:func <- R0
	ldaw r11, cp[.str33]
	.loc	1 239 0 prologue_end    # C:/Users/takaaki/git/sw_xSSDAC/module_operation_console/src/display_control.xc:239:0
.Ltmp197:
	{
		eq r1, r0, 1
		nop
	}
	bf r1, .LBB29_1
.Ltmp198:
# BB#3:                                 # %switchcase1
.Lxtalabel44:
	ldaw r11, cp[.str32]
	{
		ldc r2, 9
		nop
	}
	bu .LBB29_4
.LBB29_1:                               # %allocas
.Lxtalabel45:
.Ltmp199:
	#DEBUG_VALUE: GetFunctionString:func <- R0
	{
		ldc r2, 8
		nop
	}
	bt r0, .LBB29_4
.Ltmp200:
# BB#2:                                 # %switchcase
.Lxtalabel46:
	ldaw r11, cp[.str31]
.LBB29_4:                               # %return
	{
		mov r0, r11
		mov r1, r11
	}
	{
		nop
		retsp 0
	}
	# RETURN_REG_HOLDER
	.cc_bottom GetFunctionString.function
	.set	GetFunctionString.nstackwords,0
	.globl	GetFunctionString.nstackwords
	.set	GetFunctionString.maxcores,1
	.globl	GetFunctionString.maxcores
	.set	GetFunctionString.maxtimers,0
	.globl	GetFunctionString.maxtimers
	.set	GetFunctionString.maxchanends,0
	.globl	GetFunctionString.maxchanends
.Ltmp201:
	.size	GetFunctionString, .Ltmp201-GetFunctionString
.Lfunc_end29:
	.cfi_endproc

	.section	.cp.rodata.cst4,"aMc",@progbits,4
	.cc_top .LCPI30_0.data,.LCPI30_0
	.align	4
	.type	.LCPI30_0,@object
	.size	.LCPI30_0, 4
.LCPI30_0:
	.long	4294967279              # 0xffffffef
	.cc_bottom .LCPI30_0.data
	.cc_top .LCPI30_1.data,.LCPI30_1
	.align	4
	.type	.LCPI30_1,@object
	.size	.LCPI30_1, 4
.LCPI30_1:
	.long	2290649225              # 0x88888889
	.cc_bottom .LCPI30_1.data
	.cc_top .LCPI30_2.data,.LCPI30_2
	.align	4
	.type	.LCPI30_2,@object
	.size	.LCPI30_2, 4
.LCPI30_2:
	.long	4294966271              # 0xfffffbff
	.cc_bottom .LCPI30_2.data
	.cc_top .LCPI30_3.data,.LCPI30_3
	.align	4
	.type	.LCPI30_3,@object
	.size	.LCPI30_3, 4
.LCPI30_3:
	.long	4294967039              # 0xfffffeff
	.cc_bottom .LCPI30_3.data
	.cc_top .LCPI30_4.data,.LCPI30_4
	.align	4
	.type	.LCPI30_4,@object
	.size	.LCPI30_4, 4
.LCPI30_4:
	.long	4294966783              # 0xfffffdff
	.cc_bottom .LCPI30_4.data
	.cc_top .LCPI30_5.data,.LCPI30_5
	.align	4
	.type	.LCPI30_5,@object
	.size	.LCPI30_5, 4
.LCPI30_5:
	.long	4294967167              # 0xffffff7f
	.cc_bottom .LCPI30_5.data
	.cc_top .LCPI30_6.data,.LCPI30_6
	.align	4
	.type	.LCPI30_6,@object
	.size	.LCPI30_6, 4
.LCPI30_6:
	.long	4294967293              # 0xfffffffd
	.cc_bottom .LCPI30_6.data
	.cc_top .LCPI30_7.data,.LCPI30_7
	.align	4
	.type	.LCPI30_7,@object
	.size	.LCPI30_7, 4
.LCPI30_7:
	.long	4294967294              # 0xfffffffe
	.cc_bottom .LCPI30_7.data
	.cc_top .LCPI30_8.data,.LCPI30_8
	.align	4
	.type	.LCPI30_8,@object
	.size	.LCPI30_8, 4
.LCPI30_8:
	.long	4294967287              # 0xfffffff7
	.cc_bottom .LCPI30_8.data
	.cc_top .LCPI30_9.data,.LCPI30_9
	.align	4
	.type	.LCPI30_9,@object
	.size	.LCPI30_9, 4
.LCPI30_9:
	.long	4294967291              # 0xfffffffb
	.cc_bottom .LCPI30_9.data
	.text
	.globl	handle_display_frame
	.align	4
	.type	handle_display_frame,@function
	.cc_top handle_display_frame.function,handle_display_frame
handle_display_frame:                   # @handle_display_frame
.Lfunc_begin30:
	.loc	1 269 0                 # C:/Users/takaaki/git/sw_xSSDAC/module_operation_console/src/display_control.xc:269:0
	.cfi_startproc
	.issue_mode dual
# BB#0:                                 # %allocas
.Lxtalabel47:
	{
		nop
		dualentsp 14
	}
.Ltmp202:
	.cfi_def_cfa_offset 56
.Ltmp203:
	.cfi_offset 15, 0
	std r5, r4, sp[3]               # 4-byte Folded Spill
.Ltmp204:
	.cfi_offset 4, -32
.Ltmp205:
	.cfi_offset 5, -28
	std r7, r6, sp[4]               # 4-byte Folded Spill
.Ltmp206:
	.cfi_offset 6, -24
.Ltmp207:
	.cfi_offset 7, -20
	std r9, r8, sp[5]               # 4-byte Folded Spill
.Ltmp208:
	.cfi_offset 8, -16
.Ltmp209:
	.cfi_offset 9, -12
.Ltmp210:
	.cfi_offset 10, -8
	#DEBUG_VALUE: handle_display_frame:i <- R0
.Ltmp211:
	#DEBUG_VALUE: test_display_control_flag:bitmask <- 16
	#DEBUG_VALUE: handle_display_frame:i <- R4
	{
		mov r4, r0
		stw r10, sp[12]
	}
.Ltmp212:
	.loc	1 76 9 prologue_end     # C:/Users/takaaki/git/sw_xSSDAC/module_operation_console/src/display_control.xc:76:9
	ldw r0, dp[display_control_flag]
	{
		ldc r1, 16
		nop
	}
	.loc	1 76 9                  # C:/Users/takaaki/git/sw_xSSDAC/module_operation_console/src/display_control.xc:76:9
	{
		and r0, r0, r1
		nop
	}
	{
		nop
		stw r0, sp[3]
	}
	bf r0, .LBB30_5
.Ltmp213:
# BB#1:                                 # %iftrue
.Lxtalabel48:
	#DEBUG_VALUE: handle_display_frame:i <- R4
	#DEBUG_VALUE: clear_display_control_flag:bitmask <- 16
	.loc	1 84 0                  # C:/Users/takaaki/git/sw_xSSDAC/module_operation_console/src/display_control.xc:84:0
	ldw r0, dp[display_control_flag]
	ldw r1, cp[.LCPI30_0]
	.loc	1 84 0                  # C:/Users/takaaki/git/sw_xSSDAC/module_operation_console/src/display_control.xc:84:0
	{
		and r0, r0, r1
		nop
	}
	.loc	1 84 0                  # C:/Users/takaaki/git/sw_xSSDAC/module_operation_console/src/display_control.xc:84:0
	stw r0, dp[display_control_flag]
.Ltmp214:
	.loc	1 94 9                  # C:/Users/takaaki/git/sw_xSSDAC/module_operation_console/src/display_control.xc:94:9
	ldw r0, dp[console_mode]
	.loc	1 94 9                  # C:/Users/takaaki/git/sw_xSSDAC/module_operation_console/src/display_control.xc:94:9
	{
		sub r0, r0, 1
		stw r0, sp[3]
	}
	{
		mkmsk r1, 2
		nop
	}
.Ltmp215:
	.loc	1 274 0                 # C:/Users/takaaki/git/sw_xSSDAC/module_operation_console/src/display_control.xc:274:0
	{
		lsu r1, r1, r0
		nop
	}
	bt r1, .LBB30_5
.Ltmp216:
# BB#2:                                 # %iftrue
.Lxtalabel49:
	#DEBUG_VALUE: handle_display_frame:i <- R4

	.xtabranch .Ljumptable2+4,.Ljumptable2+8,.Ljumptable2+12,.Ljumptable2+16
.Ljumptable2:
		
	{
		nop
		bru r0
	}
	.jmptable32 .LBB30_3,.LBB30_7,.LBB30_9,.LBB30_10
.Ltmp217:
.LBB30_3:                               # %switchcase
.Lxtalabel50:
	#DEBUG_VALUE: handle_display_frame:i <- R4
	#DEBUG_VALUE: ShowFolder:row <- 0
	#DEBUG_VALUE: ShowFolder:i <- R4
	.loc	1 159 0                 # C:/Users/takaaki/git/sw_xSSDAC/module_operation_console/src/display_control.xc:159:0
	ldaw r7, dp[folder_string]
.Ltmp218:
	.loc	1 279 0                 # C:/Users/takaaki/git/sw_xSSDAC/module_operation_console/src/display_control.xc:279:0
	{
		ldc r5, 0
		nop
	}
	ldc r6, 256
	.loc	1 159 0                 # C:/Users/takaaki/git/sw_xSSDAC/module_operation_console/src/display_control.xc:159:0
.Ltmp219:
	{
		mov r0, r5
		mov r1, r7
	}
	{
		mov r2, r6
		nop
	}
.Lxta.call_labels28:
	bl OLED_SSD1306_put_string
	{
		ldc r9, 50
		nop
	}
	.loc	1 160 0                 # C:/Users/takaaki/git/sw_xSSDAC/module_operation_console/src/display_control.xc:160:0
	stw r9, dp[pause_counter]
.Ltmp220:
	.loc	1 277 0                 # C:/Users/takaaki/git/sw_xSSDAC/module_operation_console/src/display_control.xc:277:0
	ldaw r10, dp[state]
	st8 r5, r10[r5]
	.loc	1 162 0                 # C:/Users/takaaki/git/sw_xSSDAC/module_operation_console/src/display_control.xc:162:0
.Ltmp221:
	stw r5, dp[scrolling_row]
	{
		nop
		ldw r0, r4[0]
	}
	{
		nop
		ldw r1, r4[1]
	}
	{
		nop
		ldw r11, r1[0]
	}
	.loc	1 164 0                 # C:/Users/takaaki/git/sw_xSSDAC/module_operation_console/src/display_control.xc:164:0
	{
		ldc r1, 4
		stw r6, sp[1]
	}
	{
		mov r2, r6
		mov r3, r7
	}
.Lxta.call_labels29:
	{
		nop
		bla r11
	}
.Ltmp222:
	#DEBUG_VALUE: ShowTrack:i <- R4
	#DEBUG_VALUE: ShowTrack:row <- 1
	.loc	1 168 0                 # C:/Users/takaaki/git/sw_xSSDAC/module_operation_console/src/display_control.xc:168:0
	ldaw r7, dp[track_string]
	{
		mkmsk r8, 1
		nop
	}
	{
		mov r0, r8
		mov r1, r7
	}
	{
		mov r2, r6
		nop
	}
.Lxta.call_labels30:
	bl OLED_SSD1306_put_string
	.loc	1 169 0                 # C:/Users/takaaki/git/sw_xSSDAC/module_operation_console/src/display_control.xc:169:0
	stw r9, dp[pause_counter]
.Ltmp223:
	.loc	1 278 0                 # C:/Users/takaaki/git/sw_xSSDAC/module_operation_console/src/display_control.xc:278:0
	st8 r5, r10[r5]
	.loc	1 171 0                 # C:/Users/takaaki/git/sw_xSSDAC/module_operation_console/src/display_control.xc:171:0
.Ltmp224:
	stw r8, dp[scrolling_row]
	{
		nop
		ldw r0, r4[0]
	}
	{
		nop
		ldw r1, r4[1]
	}
	{
		nop
		ldw r11, r1[0]
	}
	{
		nop
		stw r6, sp[1]
	}
	ldc r1, 260
	.loc	1 173 0                 # C:/Users/takaaki/git/sw_xSSDAC/module_operation_console/src/display_control.xc:173:0
	{
		mov r2, r6
		mov r3, r7
	}
.Lxta.call_labels31:
	{
		nop
		bla r11
	}
.Ltmp225:
	#DEBUG_VALUE: row <- 2
	.loc	1 177 0                 # C:/Users/takaaki/git/sw_xSSDAC/module_operation_console/src/display_control.xc:177:0
	ldaw r1, dp[audio_property_string]
	{
		ldc r6, 2
		nop
	}
	ldc r2, 100
	{
		mov r0, r6
		nop
	}
.Lxta.call_labels32:
	bl OLED_SSD1306_put_string
	.loc	1 178 0                 # C:/Users/takaaki/git/sw_xSSDAC/module_operation_console/src/display_control.xc:178:0
	stw r9, dp[pause_counter]
.Ltmp226:
	.loc	1 279 0                 # C:/Users/takaaki/git/sw_xSSDAC/module_operation_console/src/display_control.xc:279:0
	st8 r5, r10[r5]
	.loc	1 180 0                 # C:/Users/takaaki/git/sw_xSSDAC/module_operation_console/src/display_control.xc:180:0
.Ltmp227:
	stw r6, dp[scrolling_row]
.Ltmp228:
	.loc	1 152 0                 # C:/Users/takaaki/git/sw_xSSDAC/module_operation_console/src/display_control.xc:152:0
	ldw r0, dp[SecElapsed]
	ldw r1, cp[.LCPI30_1]
	.loc	1 152 0                 # C:/Users/takaaki/git/sw_xSSDAC/module_operation_console/src/display_control.xc:152:0
	lmul r1, r2, r0, r1, r5, r5
	{
		shr r2, r1, 5
		ldc r1, 60
	}
	.loc	1 153 0                 # C:/Users/takaaki/git/sw_xSSDAC/module_operation_console/src/display_control.xc:153:0
.Ltmp229:
	mul r1, r2, r1
	{
		sub r3, r0, r1
		nop
	}
.Ltmp230:
	#DEBUG_VALUE: sec <- R3
	.loc	1 154 0                 # C:/Users/takaaki/git/sw_xSSDAC/module_operation_console/src/display_control.xc:154:0
	ldaw r11, cp[.str16]
	{
		ldaw r5, sp[3]
		nop
	}
.Ltmp231:
	#DEBUG_VALUE: s <- [R5+0]
	#DEBUG_VALUE: row <- 3
	{
		mov r0, r5
		mov r1, r11
	}
.Lxta.call_labels33:
	bl siprintf
.Ltmp232:
	{
		mkmsk r0, 2
		ldc r2, 12
	}
	.loc	1 155 0                 # C:/Users/takaaki/git/sw_xSSDAC/module_operation_console/src/display_control.xc:155:0
	{
		mov r1, r5
		nop
	}
	bu .LBB30_4
.Ltmp233:
.LBB30_7:                               # %switchcase1
.Lxtalabel51:
	#DEBUG_VALUE: handle_display_frame:i <- R4
	.loc	1 284 0                 # C:/Users/takaaki/git/sw_xSSDAC/module_operation_console/src/display_control.xc:284:0
	ldaw r11, cp[.str36]
	{
		ldc r0, 0
		ldc r2, 10
	}
	{
		mov r1, r11
		nop
	}
.Lxta.call_labels34:
	bl OLED_SSD1306_put_string
	.loc	1 285 0                 # C:/Users/takaaki/git/sw_xSSDAC/module_operation_console/src/display_control.xc:285:0
	ldaw r11, cp[.str37]
	{
		mkmsk r0, 1
		ldc r5, 2
	}
	{
		mov r1, r11
		mov r2, r5
	}
.Lxta.call_labels35:
	bl OLED_SSD1306_put_string
	.loc	1 286 0                 # C:/Users/takaaki/git/sw_xSSDAC/module_operation_console/src/display_control.xc:286:0
.Lxta.call_labels36:
	bl _SShowStreamFormat_0
	.loc	1 287 0                 # C:/Users/takaaki/git/sw_xSSDAC/module_operation_console/src/display_control.xc:287:0
	ldaw r11, cp[.str38]
	bu .LBB30_8
.Ltmp234:
.LBB30_9:                               # %switchcase3
.Lxtalabel52:
	#DEBUG_VALUE: handle_display_frame:i <- R4
	.loc	1 291 0                 # C:/Users/takaaki/git/sw_xSSDAC/module_operation_console/src/display_control.xc:291:0
	ldaw r11, cp[.str39]
	{
		ldc r0, 0
		ldc r2, 14
	}
	{
		mov r1, r11
		nop
	}
.Lxta.call_labels37:
	bl OLED_SSD1306_put_string
	.loc	1 292 0                 # C:/Users/takaaki/git/sw_xSSDAC/module_operation_console/src/display_control.xc:292:0
	ldaw r11, cp[.str40]
	{
		mkmsk r0, 1
		ldc r2, 37
	}
	{
		mov r1, r11
		nop
	}
.Lxta.call_labels38:
	bl OLED_SSD1306_put_string
	.loc	1 293 0                 # C:/Users/takaaki/git/sw_xSSDAC/module_operation_console/src/display_control.xc:293:0
	ldaw r11, cp[.str41]
	{
		ldc r0, 2
		nop
	}
	ldc r2, 80
	{
		mov r1, r11
		nop
	}
.Lxta.call_labels39:
	bl OLED_SSD1306_put_string
	.loc	1 198 0                 # C:/Users/takaaki/git/sw_xSSDAC/module_operation_console/src/display_control.xc:198:0
.Ltmp235:
	ldw r0, dp[fixed_intpol_mode]
.Ltmp236:
	#DEBUG_VALUE: temp <- R0
	.loc	1 294 0                 # C:/Users/takaaki/git/sw_xSSDAC/module_operation_console/src/display_control.xc:294:0
.Lxta.call_labels40:
	bl _SShowInterpolationMode_0
.Ltmp237:
	bu .LBB30_5
.Ltmp238:
.LBB30_10:                              # %switchcase5
.Lxtalabel53:
	#DEBUG_VALUE: handle_display_frame:i <- R4
	.loc	1 298 0                 # C:/Users/takaaki/git/sw_xSSDAC/module_operation_console/src/display_control.xc:298:0
	ldaw r11, cp[.str42]
	{
		ldc r0, 0
		ldc r2, 18
	}
	{
		mov r1, r11
		nop
	}
.Lxta.call_labels41:
	bl OLED_SSD1306_put_string
	.loc	1 299 0                 # C:/Users/takaaki/git/sw_xSSDAC/module_operation_console/src/display_control.xc:299:0
	ldaw r11, cp[.str43]
	{
		mkmsk r0, 1
		ldc r2, 44
	}
	{
		mov r1, r11
		nop
	}
.Lxta.call_labels42:
	bl OLED_SSD1306_put_string
	.loc	1 300 0                 # C:/Users/takaaki/git/sw_xSSDAC/module_operation_console/src/display_control.xc:300:0
	ldaw r11, cp[.str44]
	{
		ldc r5, 2
		ldc r2, 50
	}
	{
		mov r0, r5
		mov r1, r11
	}
.Lxta.call_labels43:
	bl OLED_SSD1306_put_string
	.loc	1 301 0                 # C:/Users/takaaki/git/sw_xSSDAC/module_operation_console/src/display_control.xc:301:0
	ldaw r11, cp[.str45]
.Ltmp239:
.LBB30_8:                               # %ifdone
.Lxtalabel54:
	{
		mkmsk r0, 2
		mov r1, r11
	}
	.loc	1 287 0                 # C:/Users/takaaki/git/sw_xSSDAC/module_operation_console/src/display_control.xc:287:0
	{
		mov r2, r5
		nop
	}
.LBB30_4:                               # %ifdone
.Lxtalabel55:
	.loc	1 155 0                 # C:/Users/takaaki/git/sw_xSSDAC/module_operation_console/src/display_control.xc:155:0
.Ltmp240:
.Lxta.call_labels44:
	bl OLED_SSD1306_put_string
.Ltmp241:
.LBB30_5:                               # %ifdone
.Lxtalabel56:
	#DEBUG_VALUE: handle_display_frame:i <- R4
	.loc	1 94 9                  # C:/Users/takaaki/git/sw_xSSDAC/module_operation_console/src/display_control.xc:94:9
	ldw r0, dp[console_mode]
	.loc	1 94 9                  # C:/Users/takaaki/git/sw_xSSDAC/module_operation_console/src/display_control.xc:94:9
	{
		sub r0, r0, 1
		stw r0, sp[3]
	}
	{
		mkmsk r1, 2
		nop
	}
.Ltmp242:
	.loc	1 306 0                 # C:/Users/takaaki/git/sw_xSSDAC/module_operation_console/src/display_control.xc:306:0
	{
		lsu r1, r1, r0
		nop
	}
	bt r1, .LBB30_12
.Ltmp243:
# BB#6:                                 # %ifdone
.Lxtalabel57:
	#DEBUG_VALUE: handle_display_frame:i <- R4

	.xtabranch .Ljumptable3+4,.Ljumptable3+8,.Ljumptable3+12,.Ljumptable3+16
.Ljumptable3:
		
	{
		nop
		bru r0
	}
	.jmptable32 .LBB30_18,.LBB30_11,.LBB30_27,.LBB30_31
.Ltmp244:
.LBB30_18:                              # %switchcase10
.Lxtalabel58:
	#DEBUG_VALUE: handle_display_frame:i <- R4
	#DEBUG_VALUE: test_display_control_flag:bitmask <- 2
	.loc	1 76 9                  # C:/Users/takaaki/git/sw_xSSDAC/module_operation_console/src/display_control.xc:76:9
	ldw r0, dp[display_control_flag]
	{
		ldc r5, 2
		nop
	}
	.loc	1 76 9                  # C:/Users/takaaki/git/sw_xSSDAC/module_operation_console/src/display_control.xc:76:9
	{
		and r0, r0, r5
		nop
	}
	{
		nop
		stw r0, sp[3]
	}
	bf r0, .LBB30_20
.Ltmp245:
# BB#19:                                # %iftrue12
.Lxtalabel59:
	#DEBUG_VALUE: handle_display_frame:i <- R4
	#DEBUG_VALUE: clear_display_control_flag:bitmask <- 2
	.loc	1 84 0                  # C:/Users/takaaki/git/sw_xSSDAC/module_operation_console/src/display_control.xc:84:0
	ldw r0, dp[display_control_flag]
	ldw r1, cp[.LCPI30_6]
	.loc	1 84 0                  # C:/Users/takaaki/git/sw_xSSDAC/module_operation_console/src/display_control.xc:84:0
	{
		and r0, r0, r1
		nop
	}
	.loc	1 84 0                  # C:/Users/takaaki/git/sw_xSSDAC/module_operation_console/src/display_control.xc:84:0
	stw r0, dp[display_control_flag]
.Ltmp246:
	#DEBUG_VALUE: ShowFolder:i <- R4
	#DEBUG_VALUE: ShowFolder:row <- 0
	.loc	1 159 0                 # C:/Users/takaaki/git/sw_xSSDAC/module_operation_console/src/display_control.xc:159:0
	ldaw r6, dp[folder_string]
.Ltmp247:
	.loc	1 311 0                 # C:/Users/takaaki/git/sw_xSSDAC/module_operation_console/src/display_control.xc:311:0
	{
		ldc r7, 0
		nop
	}
	ldc r8, 256
	.loc	1 159 0                 # C:/Users/takaaki/git/sw_xSSDAC/module_operation_console/src/display_control.xc:159:0
.Ltmp248:
	{
		mov r0, r7
		mov r1, r6
	}
	{
		mov r2, r8
		nop
	}
.Lxta.call_labels45:
	bl OLED_SSD1306_put_string
	{
		ldc r0, 50
		nop
	}
	.loc	1 160 0                 # C:/Users/takaaki/git/sw_xSSDAC/module_operation_console/src/display_control.xc:160:0
	stw r0, dp[pause_counter]
.Ltmp249:
	.loc	1 311 0                 # C:/Users/takaaki/git/sw_xSSDAC/module_operation_console/src/display_control.xc:311:0
	ldaw r0, dp[state]
	st8 r7, r0[r7]
	.loc	1 162 0                 # C:/Users/takaaki/git/sw_xSSDAC/module_operation_console/src/display_control.xc:162:0
.Ltmp250:
	stw r7, dp[scrolling_row]
	{
		nop
		ldw r0, r4[0]
	}
	{
		nop
		ldw r1, r4[1]
	}
	{
		nop
		ldw r11, r1[0]
	}
	.loc	1 164 0                 # C:/Users/takaaki/git/sw_xSSDAC/module_operation_console/src/display_control.xc:164:0
	{
		ldc r1, 4
		stw r8, sp[1]
	}
	{
		mov r2, r8
		mov r3, r6
	}
.Lxta.call_labels46:
	{
		nop
		bla r11
	}
.Ltmp251:
.LBB30_20:                              # %ifdone13
.Lxtalabel60:
	#DEBUG_VALUE: handle_display_frame:i <- R4
	#DEBUG_VALUE: test_display_control_flag:bitmask <- 1
	.loc	1 76 9                  # C:/Users/takaaki/git/sw_xSSDAC/module_operation_console/src/display_control.xc:76:9
	ldw r0, dp[display_control_flag]
	.loc	1 76 9                  # C:/Users/takaaki/git/sw_xSSDAC/module_operation_console/src/display_control.xc:76:9
	{
		zext r0, 1
		nop
	}
	{
		nop
		stw r0, sp[3]
	}
	bf r0, .LBB30_22
.Ltmp252:
# BB#21:                                # %iftrue16
.Lxtalabel61:
	#DEBUG_VALUE: handle_display_frame:i <- R4
	#DEBUG_VALUE: clear_display_control_flag:bitmask <- 1
	.loc	1 84 0                  # C:/Users/takaaki/git/sw_xSSDAC/module_operation_console/src/display_control.xc:84:0
	ldw r0, dp[display_control_flag]
	ldw r1, cp[.LCPI30_7]
	.loc	1 84 0                  # C:/Users/takaaki/git/sw_xSSDAC/module_operation_console/src/display_control.xc:84:0
	{
		and r0, r0, r1
		nop
	}
	.loc	1 84 0                  # C:/Users/takaaki/git/sw_xSSDAC/module_operation_console/src/display_control.xc:84:0
	stw r0, dp[display_control_flag]
.Ltmp253:
	#DEBUG_VALUE: ShowTrack:i <- R4
	#DEBUG_VALUE: ShowTrack:row <- 1
	.loc	1 168 0                 # C:/Users/takaaki/git/sw_xSSDAC/module_operation_console/src/display_control.xc:168:0
	ldaw r6, dp[track_string]
	{
		mkmsk r7, 1
		nop
	}
	ldc r8, 256
	{
		mov r0, r7
		mov r1, r6
	}
	{
		mov r2, r8
		nop
	}
.Lxta.call_labels47:
	bl OLED_SSD1306_put_string
	{
		ldc r0, 50
		nop
	}
	.loc	1 169 0                 # C:/Users/takaaki/git/sw_xSSDAC/module_operation_console/src/display_control.xc:169:0
	stw r0, dp[pause_counter]
.Ltmp254:
	.loc	1 315 0                 # C:/Users/takaaki/git/sw_xSSDAC/module_operation_console/src/display_control.xc:315:0
	ldaw r0, dp[state]
	{
		ldc r1, 0
		nop
	}
	st8 r1, r0[r1]
	.loc	1 171 0                 # C:/Users/takaaki/git/sw_xSSDAC/module_operation_console/src/display_control.xc:171:0
.Ltmp255:
	stw r7, dp[scrolling_row]
	{
		nop
		ldw r0, r4[0]
	}
	{
		nop
		ldw r1, r4[1]
	}
	{
		nop
		ldw r11, r1[0]
	}
	{
		nop
		stw r8, sp[1]
	}
	ldc r1, 260
	.loc	1 173 0                 # C:/Users/takaaki/git/sw_xSSDAC/module_operation_console/src/display_control.xc:173:0
	{
		mov r2, r8
		mov r3, r6
	}
.Lxta.call_labels48:
	{
		nop
		bla r11
	}
.Ltmp256:
.LBB30_22:                              # %ifdone17
.Lxtalabel62:
	#DEBUG_VALUE: test_display_control_flag:bitmask <- 8
	.loc	1 76 9                  # C:/Users/takaaki/git/sw_xSSDAC/module_operation_console/src/display_control.xc:76:9
	ldw r0, dp[display_control_flag]
	{
		ldc r1, 8
		nop
	}
	.loc	1 76 9                  # C:/Users/takaaki/git/sw_xSSDAC/module_operation_console/src/display_control.xc:76:9
	{
		and r0, r0, r1
		nop
	}
	{
		nop
		stw r0, sp[3]
	}
	bf r0, .LBB30_24
.Ltmp257:
# BB#23:                                # %iftrue20
.Lxtalabel63:
	#DEBUG_VALUE: clear_display_control_flag:bitmask <- 8
	.loc	1 84 0                  # C:/Users/takaaki/git/sw_xSSDAC/module_operation_console/src/display_control.xc:84:0
	ldw r0, dp[display_control_flag]
	ldw r1, cp[.LCPI30_8]
	.loc	1 84 0                  # C:/Users/takaaki/git/sw_xSSDAC/module_operation_console/src/display_control.xc:84:0
	{
		and r0, r0, r1
		nop
	}
	.loc	1 84 0                  # C:/Users/takaaki/git/sw_xSSDAC/module_operation_console/src/display_control.xc:84:0
	stw r0, dp[display_control_flag]
.Ltmp258:
	#DEBUG_VALUE: row <- 2
	.loc	1 177 0                 # C:/Users/takaaki/git/sw_xSSDAC/module_operation_console/src/display_control.xc:177:0
	ldaw r1, dp[audio_property_string]
	ldc r2, 100
	{
		mov r0, r5
		nop
	}
.Lxta.call_labels49:
	bl OLED_SSD1306_put_string
	{
		ldc r0, 50
		nop
	}
	.loc	1 178 0                 # C:/Users/takaaki/git/sw_xSSDAC/module_operation_console/src/display_control.xc:178:0
	stw r0, dp[pause_counter]
.Ltmp259:
	.loc	1 319 0                 # C:/Users/takaaki/git/sw_xSSDAC/module_operation_console/src/display_control.xc:319:0
	ldaw r0, dp[state]
	{
		ldc r1, 0
		nop
	}
	st8 r1, r0[r1]
	.loc	1 180 0                 # C:/Users/takaaki/git/sw_xSSDAC/module_operation_console/src/display_control.xc:180:0
.Ltmp260:
	stw r5, dp[scrolling_row]
.Ltmp261:
.LBB30_24:                              # %ifdone21
.Lxtalabel64:
	#DEBUG_VALUE: test_display_control_flag:bitmask <- 4
	.loc	1 76 9                  # C:/Users/takaaki/git/sw_xSSDAC/module_operation_console/src/display_control.xc:76:9
	ldw r0, dp[display_control_flag]
	{
		ldc r1, 4
		nop
	}
	.loc	1 76 9                  # C:/Users/takaaki/git/sw_xSSDAC/module_operation_console/src/display_control.xc:76:9
	{
		and r0, r0, r1
		nop
	}
	{
		nop
		stw r0, sp[3]
	}
	bf r0, .LBB30_12
.Ltmp262:
# BB#25:                                # %iftrue23
.Lxtalabel65:
	#DEBUG_VALUE: clear_display_control_flag:bitmask <- 4
	.loc	1 84 0                  # C:/Users/takaaki/git/sw_xSSDAC/module_operation_console/src/display_control.xc:84:0
	ldw r0, dp[display_control_flag]
	ldw r1, cp[.LCPI30_9]
	.loc	1 84 0                  # C:/Users/takaaki/git/sw_xSSDAC/module_operation_console/src/display_control.xc:84:0
	{
		and r0, r0, r1
		nop
	}
	.loc	1 84 0                  # C:/Users/takaaki/git/sw_xSSDAC/module_operation_console/src/display_control.xc:84:0
	stw r0, dp[display_control_flag]
.Ltmp263:
	.loc	1 152 0                 # C:/Users/takaaki/git/sw_xSSDAC/module_operation_console/src/display_control.xc:152:0
	ldw r0, dp[SecElapsed]
	{
		ldc r1, 0
		nop
	}
	ldw r2, cp[.LCPI30_1]
	.loc	1 152 0                 # C:/Users/takaaki/git/sw_xSSDAC/module_operation_console/src/display_control.xc:152:0
	lmul r1, r2, r0, r2, r1, r1
	{
		shr r2, r1, 5
		ldc r1, 60
	}
	.loc	1 153 0                 # C:/Users/takaaki/git/sw_xSSDAC/module_operation_console/src/display_control.xc:153:0
.Ltmp264:
	mul r1, r2, r1
	{
		sub r3, r0, r1
		nop
	}
.Ltmp265:
	#DEBUG_VALUE: sec <- R3
	.loc	1 154 0                 # C:/Users/takaaki/git/sw_xSSDAC/module_operation_console/src/display_control.xc:154:0
	ldaw r11, cp[.str16]
	{
		ldaw r4, sp[3]
		nop
	}
.Ltmp266:
	#DEBUG_VALUE: row <- 3
	#DEBUG_VALUE: s <- [R4+0]
	{
		mov r0, r4
		mov r1, r11
	}
.Lxta.call_labels50:
	bl siprintf
.Ltmp267:
	{
		mkmsk r0, 2
		ldc r2, 12
	}
	.loc	1 155 0                 # C:/Users/takaaki/git/sw_xSSDAC/module_operation_console/src/display_control.xc:155:0
	{
		mov r1, r4
		nop
	}
.Lxta.call_labels51:
	bl OLED_SSD1306_put_string
	bu .LBB30_12
.Ltmp268:
.LBB30_11:                              # %switchcase11
.Lxtalabel66:
	#DEBUG_VALUE: test_display_control_flag:bitmask <- 128
	.loc	1 76 9                  # C:/Users/takaaki/git/sw_xSSDAC/module_operation_console/src/display_control.xc:76:9
	ldw r0, dp[display_control_flag]
	ldc r1, 128
	.loc	1 76 9                  # C:/Users/takaaki/git/sw_xSSDAC/module_operation_console/src/display_control.xc:76:9
	{
		and r0, r0, r1
		nop
	}
	{
		nop
		stw r0, sp[3]
	}
	bf r0, .LBB30_12
.Ltmp269:
# BB#26:                                # %iftrue28
.Lxtalabel67:
	#DEBUG_VALUE: clear_display_control_flag:bitmask <- 128
	.loc	1 84 0                  # C:/Users/takaaki/git/sw_xSSDAC/module_operation_console/src/display_control.xc:84:0
	ldw r0, dp[display_control_flag]
	ldw r1, cp[.LCPI30_5]
	.loc	1 84 0                  # C:/Users/takaaki/git/sw_xSSDAC/module_operation_console/src/display_control.xc:84:0
	{
		and r0, r0, r1
		nop
	}
	.loc	1 84 0                  # C:/Users/takaaki/git/sw_xSSDAC/module_operation_console/src/display_control.xc:84:0
	stw r0, dp[display_control_flag]
.Ltmp270:
	.loc	1 330 0                 # C:/Users/takaaki/git/sw_xSSDAC/module_operation_console/src/display_control.xc:330:0
.Lxta.call_labels52:
	bl _SShowStreamFormat_0
	bu .LBB30_12
.LBB30_27:                              # %switchcase27
.Lxtalabel68:
.Ltmp271:
	#DEBUG_VALUE: test_display_control_flag:bitmask <- 256
	.loc	1 76 9                  # C:/Users/takaaki/git/sw_xSSDAC/module_operation_console/src/display_control.xc:76:9
	ldw r0, dp[display_control_flag]
	ldc r1, 256
	.loc	1 76 9                  # C:/Users/takaaki/git/sw_xSSDAC/module_operation_console/src/display_control.xc:76:9
	{
		and r0, r0, r1
		nop
	}
	{
		nop
		stw r0, sp[3]
	}
	bf r0, .LBB30_29
.Ltmp272:
# BB#28:                                # %iftrue33
.Lxtalabel69:
	#DEBUG_VALUE: clear_display_control_flag:bitmask <- 256
	.loc	1 84 0                  # C:/Users/takaaki/git/sw_xSSDAC/module_operation_console/src/display_control.xc:84:0
	ldw r0, dp[display_control_flag]
	ldw r1, cp[.LCPI30_3]
	.loc	1 84 0                  # C:/Users/takaaki/git/sw_xSSDAC/module_operation_console/src/display_control.xc:84:0
	{
		and r0, r0, r1
		nop
	}
	.loc	1 84 0                  # C:/Users/takaaki/git/sw_xSSDAC/module_operation_console/src/display_control.xc:84:0
	stw r0, dp[display_control_flag]
.Ltmp273:
	.loc	1 189 0                 # C:/Users/takaaki/git/sw_xSSDAC/module_operation_console/src/display_control.xc:189:0
	ldw r0, dp[proposed_intpol_mode]
.Ltmp274:
	#DEBUG_VALUE: temp <- R0
	.loc	1 337 0                 # C:/Users/takaaki/git/sw_xSSDAC/module_operation_console/src/display_control.xc:337:0
.Lxta.call_labels53:
	bl _SShowInterpolationMode_0
.Ltmp275:
.LBB30_29:                              # %ifdone34
.Lxtalabel70:
	#DEBUG_VALUE: test_display_control_flag:bitmask <- 512
	.loc	1 76 9                  # C:/Users/takaaki/git/sw_xSSDAC/module_operation_console/src/display_control.xc:76:9
	ldw r0, dp[display_control_flag]
	ldc r1, 512
	.loc	1 76 9                  # C:/Users/takaaki/git/sw_xSSDAC/module_operation_console/src/display_control.xc:76:9
	{
		and r0, r0, r1
		nop
	}
	{
		nop
		stw r0, sp[3]
	}
	bf r0, .LBB30_12
.Ltmp276:
# BB#30:                                # %iftrue36
.Lxtalabel71:
	#DEBUG_VALUE: clear_display_control_flag:bitmask <- 512
	.loc	1 84 0                  # C:/Users/takaaki/git/sw_xSSDAC/module_operation_console/src/display_control.xc:84:0
	ldw r0, dp[display_control_flag]
	ldw r1, cp[.LCPI30_4]
	.loc	1 84 0                  # C:/Users/takaaki/git/sw_xSSDAC/module_operation_console/src/display_control.xc:84:0
	{
		and r0, r0, r1
		nop
	}
	.loc	1 84 0                  # C:/Users/takaaki/git/sw_xSSDAC/module_operation_console/src/display_control.xc:84:0
	stw r0, dp[display_control_flag]
.Ltmp277:
	.loc	1 198 0                 # C:/Users/takaaki/git/sw_xSSDAC/module_operation_console/src/display_control.xc:198:0
	ldw r0, dp[fixed_intpol_mode]
.Ltmp278:
	#DEBUG_VALUE: temp <- R0
	.loc	1 341 0                 # C:/Users/takaaki/git/sw_xSSDAC/module_operation_console/src/display_control.xc:341:0
.Lxta.call_labels54:
	bl _SShowInterpolationMode_0
.Ltmp279:
	bu .LBB30_12
.LBB30_31:                              # %switchcase32
.Lxtalabel72:
.Ltmp280:
	#DEBUG_VALUE: handle_display_frame:i <- R4
	#DEBUG_VALUE: test_display_control_flag:bitmask <- 1024
	.loc	1 76 9                  # C:/Users/takaaki/git/sw_xSSDAC/module_operation_console/src/display_control.xc:76:9
	ldw r0, dp[display_control_flag]
	ldc r1, 1024
	.loc	1 76 9                  # C:/Users/takaaki/git/sw_xSSDAC/module_operation_console/src/display_control.xc:76:9
	{
		and r0, r0, r1
		nop
	}
	{
		nop
		stw r0, sp[3]
	}
	bf r0, .LBB30_12
.Ltmp281:
# BB#32:                                # %iftrue40
.Lxtalabel73:
	#DEBUG_VALUE: handle_display_frame:i <- R4
	#DEBUG_VALUE: clear_display_control_flag:bitmask <- 1024
	.loc	1 84 0                  # C:/Users/takaaki/git/sw_xSSDAC/module_operation_console/src/display_control.xc:84:0
	ldw r0, dp[display_control_flag]
	ldw r1, cp[.LCPI30_2]
	.loc	1 84 0                  # C:/Users/takaaki/git/sw_xSSDAC/module_operation_console/src/display_control.xc:84:0
	{
		and r0, r0, r1
		nop
	}
	.loc	1 84 0                  # C:/Users/takaaki/git/sw_xSSDAC/module_operation_console/src/display_control.xc:84:0
	stw r0, dp[display_control_flag]
.Ltmp282:
	.loc	1 234 0                 # C:/Users/takaaki/git/sw_xSSDAC/module_operation_console/src/display_control.xc:234:0
	ldw r0, dp[selected_function]
.Ltmp283:
	#DEBUG_VALUE: GetFunctionString:func <- R0
	#DEBUG_VALUE: temp <- R0
	ldaw r11, cp[.str33]
.Ltmp284:
	.loc	1 239 0                 # C:/Users/takaaki/git/sw_xSSDAC/module_operation_console/src/display_control.xc:239:0
	{
		eq r1, r0, 1
		nop
	}
	bf r1, .LBB30_33
.Ltmp285:
# BB#35:                                # %switchcase1.i
.Lxtalabel74:
	#DEBUG_VALUE: handle_display_frame:i <- R4
	ldaw r11, cp[.str32]
	{
		ldc r2, 9
		nop
	}
	bu .LBB30_36
.Ltmp286:
.LBB30_33:                              # %iftrue40
.Lxtalabel75:
	#DEBUG_VALUE: handle_display_frame:i <- R4
	{
		ldc r2, 8
		nop
	}
	bt r0, .LBB30_36
.Ltmp287:
# BB#34:                                # %switchcase.i
.Lxtalabel76:
	#DEBUG_VALUE: handle_display_frame:i <- R4
	ldaw r11, cp[.str31]
.Ltmp288:
.LBB30_36:                              # %GetFunctionString.exit
.Lxtalabel77:
	#DEBUG_VALUE: handle_display_frame:i <- R4
	{
		mkmsk r0, 2
		mov r1, r11
	}
	.loc	1 347 0                 # C:/Users/takaaki/git/sw_xSSDAC/module_operation_console/src/display_control.xc:347:0
.Lxta.call_labels55:
	bl OLED_SSD1306_put_string
	.loc	1 234 0                 # C:/Users/takaaki/git/sw_xSSDAC/module_operation_console/src/display_control.xc:234:0
.Ltmp289:
	ldw r0, dp[selected_function]
.Ltmp290:
	#DEBUG_VALUE: temp <- R0
	{
		nop
		stw r0, sp[2]
	}
	{
		nop
		ldw r0, r4[0]
	}
.Ltmp291:
	{
		nop
		ldw r1, r4[1]
	}
.Ltmp292:
	.loc	1 351 0                 # C:/Users/takaaki/git/sw_xSSDAC/module_operation_console/src/display_control.xc:351:0
	{
		ldc r2, 4
		ldw r11, r1[0]
	}
	.loc	1 351 0                 # C:/Users/takaaki/git/sw_xSSDAC/module_operation_console/src/display_control.xc:351:0
	{
		ldc r1, 0
		stw r2, sp[1]
	}
	{
		ldaw r3, sp[2]
		nop
	}
.Lxta.call_labels56:
	{
		nop
		bla r11
	}
.Ltmp293:
.LBB30_12:                              # %switchdone9
.Lxtalabel78:
	ldaw r4, dp[state]
	{
		ldc r5, 0
		nop
	}
	{
		nop
		ld8u r0, r4[r5]
	}
	.loc	1 356 0                 # C:/Users/takaaki/git/sw_xSSDAC/module_operation_console/src/display_control.xc:356:0
	bt r0, .LBB30_13
# BB#37:                                # %switchcase49
.Lxtalabel79:
	.loc	1 359 0                 # C:/Users/takaaki/git/sw_xSSDAC/module_operation_console/src/display_control.xc:359:0
	ldw r0, dp[pause_counter]
	.loc	1 359 0                 # C:/Users/takaaki/git/sw_xSSDAC/module_operation_console/src/display_control.xc:359:0
	{
		sub r0, r0, 1
		nop
	}
	.loc	1 359 0                 # C:/Users/takaaki/git/sw_xSSDAC/module_operation_console/src/display_control.xc:359:0
	stw r0, dp[pause_counter]
	bt r0, .LBB30_39
# BB#38:                                # %iftrue51
.Lxtalabel80:
	{
		ldc r0, 0
		mkmsk r1, 1
	}
	st8 r1, r4[r0]
	bu .LBB30_39
.LBB30_13:                              # %switchdone9
.Lxtalabel81:
	bf r0, .LBB30_39
# BB#14:                                # %switchcase50
.Lxtalabel82:
	.loc	1 365 13                # C:/Users/takaaki/git/sw_xSSDAC/module_operation_console/src/display_control.xc:365:13
	ldw r0, dp[scrolling_row]
	.loc	1 365 13                # C:/Users/takaaki/git/sw_xSSDAC/module_operation_console/src/display_control.xc:365:13
.Lxta.call_labels57:
	bl OLED_SSD1306_shift_left
	bt r0, .LBB30_39
# BB#15:                                # %iftrue56
.Lxtalabel83:
	.loc	1 366 0                 # C:/Users/takaaki/git/sw_xSSDAC/module_operation_console/src/display_control.xc:366:0
	ldw r0, dp[scrolling_row]
	.loc	1 366 0                 # C:/Users/takaaki/git/sw_xSSDAC/module_operation_console/src/display_control.xc:366:0
	{
		add r1, r0, 1
		ldc r0, 2
	}
	.loc	1 367 17                # C:/Users/takaaki/git/sw_xSSDAC/module_operation_console/src/display_control.xc:367:17
	{
		lsu r2, r0, r1
		mov r0, r5
	}
	bt r2, .LBB30_17
# BB#16:                                # %iftrue56
.Lxtalabel84:
	.loc	1 367 17                # C:/Users/takaaki/git/sw_xSSDAC/module_operation_console/src/display_control.xc:367:17
	{
		mov r0, r1
		nop
	}
.LBB30_17:                              # %iftrue56
.Lxtalabel85:
	.loc	1 367 0                 # C:/Users/takaaki/git/sw_xSSDAC/module_operation_console/src/display_control.xc:367:0
	stw r0, dp[scrolling_row]
	.loc	1 368 0                 # C:/Users/takaaki/git/sw_xSSDAC/module_operation_console/src/display_control.xc:368:0
	ldaw r11, cp[.str48]
	{
		mkmsk r2, 1
		mov r1, r11
	}
.Lxta.call_labels58:
	bl OLED_SSD1306_put_string
	{
		ldc r0, 50
		nop
	}
	.loc	1 369 0                 # C:/Users/takaaki/git/sw_xSSDAC/module_operation_console/src/display_control.xc:369:0
	stw r0, dp[pause_counter]
	st8 r5, r4[r5]
.Ltmp294:
.LBB30_39:                              # %return
.Lxtalabel86:
	{
		nop
		ldw r10, sp[12]
	}
	ldd r9, r8, sp[5]               # 4-byte Folded Reload
	ldd r7, r6, sp[4]               # 4-byte Folded Reload
	ldd r5, r4, sp[3]               # 4-byte Folded Reload
	{
		nop
		retsp 14
	}
	# RETURN_REG_HOLDER
	.cc_bottom handle_display_frame.function
	.set	handle_display_frame.nstackwords,((OLED_SSD1306_shift_left.nstackwords $M _i.qspi_access.write.max.nstackwords $M siprintf.nstackwords $M _SShowStreamFormat_0.nstackwords $M _SShowInterpolationMode_0.nstackwords $M OLED_SSD1306_put_string.nstackwords) + 14)
	.globl	handle_display_frame.nstackwords
	.set	handle_display_frame.maxcores,OLED_SSD1306_put_string.maxcores $M OLED_SSD1306_shift_left.maxcores $M _SShowInterpolationMode_0.maxcores $M _SShowStreamFormat_0.maxcores $M _i.qspi_access.write.max.maxcores $M siprintf.maxcores $M 1
	.globl	handle_display_frame.maxcores
	.set	handle_display_frame.maxtimers,OLED_SSD1306_put_string.maxtimers $M OLED_SSD1306_shift_left.maxtimers $M _SShowInterpolationMode_0.maxtimers $M _SShowStreamFormat_0.maxtimers $M _i.qspi_access.write.max.maxtimers $M siprintf.maxtimers $M 0
	.globl	handle_display_frame.maxtimers
	.set	handle_display_frame.maxchanends,OLED_SSD1306_put_string.maxchanends $M OLED_SSD1306_shift_left.maxchanends $M _SShowInterpolationMode_0.maxchanends $M _SShowStreamFormat_0.maxchanends $M _i.qspi_access.write.max.maxchanends $M siprintf.maxchanends $M 0
	.globl	handle_display_frame.maxchanends
.Ltmp295:
	.size	handle_display_frame, .Ltmp295-handle_display_frame
.Lfunc_end30:
	.cfi_endproc

	.section	.cp.rodata.cst4,"aMc",@progbits,4
	.cc_top .LCPI31_0.data,.LCPI31_0
	.align	4
	.type	.LCPI31_0,@object
	.size	.LCPI31_0, 4
.LCPI31_0:
	.long	4294967279              # 0xffffffef
	.cc_bottom .LCPI31_0.data
	.cc_top .LCPI31_1.data,.LCPI31_1
	.align	4
	.type	.LCPI31_1,@object
	.size	.LCPI31_1, 4
.LCPI31_1:
	.long	4294966271              # 0xfffffbff
	.cc_bottom .LCPI31_1.data
	.cc_top .LCPI31_2.data,.LCPI31_2
	.align	4
	.type	.LCPI31_2,@object
	.size	.LCPI31_2, 4
.LCPI31_2:
	.long	4294967039              # 0xfffffeff
	.cc_bottom .LCPI31_2.data
	.cc_top .LCPI31_3.data,.LCPI31_3
	.align	4
	.type	.LCPI31_3,@object
	.size	.LCPI31_3, 4
.LCPI31_3:
	.long	4294966783              # 0xfffffdff
	.cc_bottom .LCPI31_3.data
	.cc_top .LCPI31_4.data,.LCPI31_4
	.align	4
	.type	.LCPI31_4,@object
	.size	.LCPI31_4, 4
.LCPI31_4:
	.long	4294967167              # 0xffffff7f
	.cc_bottom .LCPI31_4.data
	.cc_top .LCPI31_5.data,.LCPI31_5
	.align	4
	.type	.LCPI31_5,@object
	.size	.LCPI31_5, 4
.LCPI31_5:
	.long	4294967293              # 0xfffffffd
	.cc_bottom .LCPI31_5.data
	.cc_top .LCPI31_6.data,.LCPI31_6
	.align	4
	.type	.LCPI31_6,@object
	.size	.LCPI31_6, 4
.LCPI31_6:
	.long	4294967294              # 0xfffffffe
	.cc_bottom .LCPI31_6.data
	.cc_top .LCPI31_7.data,.LCPI31_7
	.align	4
	.type	.LCPI31_7,@object
	.size	.LCPI31_7, 4
.LCPI31_7:
	.long	4294967287              # 0xfffffff7
	.cc_bottom .LCPI31_7.data
	.cc_top .LCPI31_8.data,.LCPI31_8
	.align	4
	.type	.LCPI31_8,@object
	.size	.LCPI31_8, 4
.LCPI31_8:
	.long	4294967291              # 0xfffffffb
	.cc_bottom .LCPI31_8.data
	.cc_top .LCPI31_9.data,.LCPI31_9
	.align	4
	.type	.LCPI31_9,@object
	.size	.LCPI31_9, 4
.LCPI31_9:
	.long	2290649225              # 0x88888889
	.cc_bottom .LCPI31_9.data
	.text
	.globl	_Shandle_display_frame_0
	.align	4
	.type	_Shandle_display_frame_0,@function
	.cc_top _Shandle_display_frame_0.function,_Shandle_display_frame_0
_Shandle_display_frame_0:               # @_Shandle_display_frame_0
.Lfunc_begin31:
	.loc	1 269 0                 # C:/Users/takaaki/git/sw_xSSDAC/module_operation_console/src/display_control.xc:269:0
	.cfi_startproc
	.issue_mode dual
# BB#0:                                 # %allocas
.Lxtalabel87:
	{
		nop
		dualentsp 8
	}
.Ltmp296:
	.cfi_def_cfa_offset 32
.Ltmp297:
	.cfi_offset 15, 0
	std r5, r4, sp[3]               # 4-byte Folded Spill
.Ltmp298:
	.cfi_offset 4, -8
.Ltmp299:
	.cfi_offset 5, -4
.Ltmp300:
	#DEBUG_VALUE: test_display_control_flag:bitmask <- 16
	.loc	1 76 9 prologue_end     # C:/Users/takaaki/git/sw_xSSDAC/module_operation_console/src/display_control.xc:76:9
	ldw r0, dp[display_control_flag]
	{
		ldc r1, 16
		nop
	}
	.loc	1 76 9                  # C:/Users/takaaki/git/sw_xSSDAC/module_operation_console/src/display_control.xc:76:9
	{
		and r0, r0, r1
		nop
	}
	{
		nop
		stw r0, sp[3]
	}
	bf r0, .LBB31_4
.Ltmp301:
# BB#1:                                 # %iftrue
.Lxtalabel88:
	#DEBUG_VALUE: clear_display_control_flag:bitmask <- 16
	.loc	1 84 0                  # C:/Users/takaaki/git/sw_xSSDAC/module_operation_console/src/display_control.xc:84:0
	ldw r0, dp[display_control_flag]
	ldw r1, cp[.LCPI31_0]
	.loc	1 84 0                  # C:/Users/takaaki/git/sw_xSSDAC/module_operation_console/src/display_control.xc:84:0
	{
		and r0, r0, r1
		nop
	}
	.loc	1 84 0                  # C:/Users/takaaki/git/sw_xSSDAC/module_operation_console/src/display_control.xc:84:0
	stw r0, dp[display_control_flag]
.Ltmp302:
	.loc	1 94 9                  # C:/Users/takaaki/git/sw_xSSDAC/module_operation_console/src/display_control.xc:94:9
	ldw r0, dp[console_mode]
	.loc	1 94 9                  # C:/Users/takaaki/git/sw_xSSDAC/module_operation_console/src/display_control.xc:94:9
	{
		sub r0, r0, 1
		stw r0, sp[3]
	}
	{
		mkmsk r1, 2
		nop
	}
.Ltmp303:
	.loc	1 274 0                 # C:/Users/takaaki/git/sw_xSSDAC/module_operation_console/src/display_control.xc:274:0
	{
		lsu r1, r1, r0
		nop
	}
	bf r1, .LBB31_2
.LBB31_4:                               # %ifdone
.Lxtalabel89:
	.loc	1 94 9                  # C:/Users/takaaki/git/sw_xSSDAC/module_operation_console/src/display_control.xc:94:9
.Ltmp304:
	ldw r0, dp[console_mode]
	.loc	1 94 9                  # C:/Users/takaaki/git/sw_xSSDAC/module_operation_console/src/display_control.xc:94:9
	{
		sub r0, r0, 1
		stw r0, sp[3]
	}
	{
		mkmsk r1, 2
		nop
	}
.Ltmp305:
	.loc	1 306 0                 # C:/Users/takaaki/git/sw_xSSDAC/module_operation_console/src/display_control.xc:306:0
	{
		lsu r1, r1, r0
		nop
	}
	bt r1, .LBB31_10
# BB#5:                                 # %ifdone
.Lxtalabel90:

	.xtabranch .Ljumptable4+4,.Ljumptable4+8,.Ljumptable4+12,.Ljumptable4+16
.Ljumptable4:
		
	{
		nop
		bru r0
	}
	.jmptable32 .LBB31_18,.LBB31_9,.LBB31_25,.LBB31_29
.LBB31_18:                              # %switchcase10
.Lxtalabel91:
.Ltmp306:
	#DEBUG_VALUE: test_display_control_flag:bitmask <- 2
	.loc	1 76 9                  # C:/Users/takaaki/git/sw_xSSDAC/module_operation_console/src/display_control.xc:76:9
	ldw r0, dp[display_control_flag]
	{
		ldc r4, 2
		nop
	}
	.loc	1 76 9                  # C:/Users/takaaki/git/sw_xSSDAC/module_operation_console/src/display_control.xc:76:9
	{
		and r0, r0, r4
		nop
	}
	{
		nop
		stw r0, sp[3]
	}
.Ltmp307:
	.loc	1 309 9                 # C:/Users/takaaki/git/sw_xSSDAC/module_operation_console/src/display_control.xc:309:9
	bt r0, .LBB31_16
# BB#19:                                # %ifdone13
.Lxtalabel92:
.Ltmp308:
	#DEBUG_VALUE: test_display_control_flag:bitmask <- 1
	.loc	1 76 9                  # C:/Users/takaaki/git/sw_xSSDAC/module_operation_console/src/display_control.xc:76:9
	ldw r0, dp[display_control_flag]
	.loc	1 76 9                  # C:/Users/takaaki/git/sw_xSSDAC/module_operation_console/src/display_control.xc:76:9
	{
		zext r0, 1
		nop
	}
	{
		nop
		stw r0, sp[3]
	}
.Ltmp309:
	.loc	1 313 9                 # C:/Users/takaaki/git/sw_xSSDAC/module_operation_console/src/display_control.xc:313:9
	bt r0, .LBB31_38
# BB#20:                                # %ifdone17
.Lxtalabel93:
.Ltmp310:
	#DEBUG_VALUE: test_display_control_flag:bitmask <- 8
	.loc	1 76 9                  # C:/Users/takaaki/git/sw_xSSDAC/module_operation_console/src/display_control.xc:76:9
	ldw r0, dp[display_control_flag]
	{
		ldc r1, 8
		nop
	}
	.loc	1 76 9                  # C:/Users/takaaki/git/sw_xSSDAC/module_operation_console/src/display_control.xc:76:9
	{
		and r0, r0, r1
		nop
	}
	{
		nop
		stw r0, sp[3]
	}
	bf r0, .LBB31_22
.Ltmp311:
# BB#21:                                # %iftrue20
.Lxtalabel94:
	#DEBUG_VALUE: clear_display_control_flag:bitmask <- 8
	.loc	1 84 0                  # C:/Users/takaaki/git/sw_xSSDAC/module_operation_console/src/display_control.xc:84:0
	ldw r0, dp[display_control_flag]
	ldw r1, cp[.LCPI31_7]
	.loc	1 84 0                  # C:/Users/takaaki/git/sw_xSSDAC/module_operation_console/src/display_control.xc:84:0
	{
		and r0, r0, r1
		nop
	}
	.loc	1 84 0                  # C:/Users/takaaki/git/sw_xSSDAC/module_operation_console/src/display_control.xc:84:0
	stw r0, dp[display_control_flag]
.Ltmp312:
	#DEBUG_VALUE: row <- 2
	.loc	1 177 0                 # C:/Users/takaaki/git/sw_xSSDAC/module_operation_console/src/display_control.xc:177:0
	ldaw r1, dp[audio_property_string]
	ldc r2, 100
	{
		mov r0, r4
		nop
	}
.Lxta.call_labels59:
	bl OLED_SSD1306_put_string
	{
		ldc r0, 50
		nop
	}
	.loc	1 178 0                 # C:/Users/takaaki/git/sw_xSSDAC/module_operation_console/src/display_control.xc:178:0
	stw r0, dp[pause_counter]
.Ltmp313:
	.loc	1 319 0                 # C:/Users/takaaki/git/sw_xSSDAC/module_operation_console/src/display_control.xc:319:0
	ldaw r0, dp[state]
	{
		ldc r1, 0
		nop
	}
	st8 r1, r0[r1]
	.loc	1 180 0                 # C:/Users/takaaki/git/sw_xSSDAC/module_operation_console/src/display_control.xc:180:0
.Ltmp314:
	stw r4, dp[scrolling_row]
.Ltmp315:
.LBB31_22:                              # %ifdone21
.Lxtalabel95:
	#DEBUG_VALUE: test_display_control_flag:bitmask <- 4
	.loc	1 76 9                  # C:/Users/takaaki/git/sw_xSSDAC/module_operation_console/src/display_control.xc:76:9
	ldw r0, dp[display_control_flag]
	{
		ldc r1, 4
		nop
	}
	.loc	1 76 9                  # C:/Users/takaaki/git/sw_xSSDAC/module_operation_console/src/display_control.xc:76:9
	{
		and r0, r0, r1
		nop
	}
	{
		nop
		stw r0, sp[3]
	}
	bf r0, .LBB31_10
.Ltmp316:
# BB#23:                                # %iftrue23
.Lxtalabel96:
	#DEBUG_VALUE: clear_display_control_flag:bitmask <- 4
	.loc	1 84 0                  # C:/Users/takaaki/git/sw_xSSDAC/module_operation_console/src/display_control.xc:84:0
	ldw r0, dp[display_control_flag]
	ldw r1, cp[.LCPI31_8]
	.loc	1 84 0                  # C:/Users/takaaki/git/sw_xSSDAC/module_operation_console/src/display_control.xc:84:0
	{
		and r0, r0, r1
		nop
	}
	.loc	1 84 0                  # C:/Users/takaaki/git/sw_xSSDAC/module_operation_console/src/display_control.xc:84:0
	stw r0, dp[display_control_flag]
.Ltmp317:
	.loc	1 152 0                 # C:/Users/takaaki/git/sw_xSSDAC/module_operation_console/src/display_control.xc:152:0
	ldw r0, dp[SecElapsed]
	{
		ldc r1, 0
		nop
	}
	ldw r2, cp[.LCPI31_9]
	.loc	1 152 0                 # C:/Users/takaaki/git/sw_xSSDAC/module_operation_console/src/display_control.xc:152:0
	lmul r1, r2, r0, r2, r1, r1
	{
		shr r2, r1, 5
		ldc r1, 60
	}
	.loc	1 153 0                 # C:/Users/takaaki/git/sw_xSSDAC/module_operation_console/src/display_control.xc:153:0
.Ltmp318:
	mul r1, r2, r1
	{
		sub r3, r0, r1
		nop
	}
.Ltmp319:
	#DEBUG_VALUE: sec <- R3
	.loc	1 154 0                 # C:/Users/takaaki/git/sw_xSSDAC/module_operation_console/src/display_control.xc:154:0
	ldaw r11, cp[.str16]
	{
		ldaw r4, sp[3]
		nop
	}
.Ltmp320:
	#DEBUG_VALUE: s <- [R4+0]
	#DEBUG_VALUE: row <- 3
	{
		mov r0, r4
		mov r1, r11
	}
.Lxta.call_labels60:
	bl siprintf
.Ltmp321:
	{
		mkmsk r0, 2
		ldc r2, 12
	}
	.loc	1 155 0                 # C:/Users/takaaki/git/sw_xSSDAC/module_operation_console/src/display_control.xc:155:0
	{
		mov r1, r4
		nop
	}
.Lxta.call_labels61:
	bl OLED_SSD1306_put_string
	bu .LBB31_10
.Ltmp322:
.LBB31_9:                               # %switchcase11
.Lxtalabel97:
	#DEBUG_VALUE: test_display_control_flag:bitmask <- 128
	.loc	1 76 9                  # C:/Users/takaaki/git/sw_xSSDAC/module_operation_console/src/display_control.xc:76:9
	ldw r0, dp[display_control_flag]
	ldc r1, 128
	.loc	1 76 9                  # C:/Users/takaaki/git/sw_xSSDAC/module_operation_console/src/display_control.xc:76:9
	{
		and r0, r0, r1
		nop
	}
	{
		nop
		stw r0, sp[3]
	}
	bf r0, .LBB31_10
.Ltmp323:
# BB#24:                                # %iftrue28
.Lxtalabel98:
	#DEBUG_VALUE: clear_display_control_flag:bitmask <- 128
	.loc	1 84 0                  # C:/Users/takaaki/git/sw_xSSDAC/module_operation_console/src/display_control.xc:84:0
	ldw r0, dp[display_control_flag]
	ldw r1, cp[.LCPI31_4]
	.loc	1 84 0                  # C:/Users/takaaki/git/sw_xSSDAC/module_operation_console/src/display_control.xc:84:0
	{
		and r0, r0, r1
		nop
	}
	.loc	1 84 0                  # C:/Users/takaaki/git/sw_xSSDAC/module_operation_console/src/display_control.xc:84:0
	stw r0, dp[display_control_flag]
.Ltmp324:
	.loc	1 330 0                 # C:/Users/takaaki/git/sw_xSSDAC/module_operation_console/src/display_control.xc:330:0
.Lxta.call_labels62:
	bl _SShowStreamFormat_0
	bu .LBB31_10
.LBB31_25:                              # %switchcase27
.Lxtalabel99:
.Ltmp325:
	#DEBUG_VALUE: test_display_control_flag:bitmask <- 256
	.loc	1 76 9                  # C:/Users/takaaki/git/sw_xSSDAC/module_operation_console/src/display_control.xc:76:9
	ldw r0, dp[display_control_flag]
	ldc r1, 256
	.loc	1 76 9                  # C:/Users/takaaki/git/sw_xSSDAC/module_operation_console/src/display_control.xc:76:9
	{
		and r0, r0, r1
		nop
	}
	{
		nop
		stw r0, sp[3]
	}
	bf r0, .LBB31_27
.Ltmp326:
# BB#26:                                # %iftrue33
.Lxtalabel100:
	#DEBUG_VALUE: clear_display_control_flag:bitmask <- 256
	.loc	1 84 0                  # C:/Users/takaaki/git/sw_xSSDAC/module_operation_console/src/display_control.xc:84:0
	ldw r0, dp[display_control_flag]
	ldw r1, cp[.LCPI31_2]
	.loc	1 84 0                  # C:/Users/takaaki/git/sw_xSSDAC/module_operation_console/src/display_control.xc:84:0
	{
		and r0, r0, r1
		nop
	}
	.loc	1 84 0                  # C:/Users/takaaki/git/sw_xSSDAC/module_operation_console/src/display_control.xc:84:0
	stw r0, dp[display_control_flag]
.Ltmp327:
	.loc	1 189 0                 # C:/Users/takaaki/git/sw_xSSDAC/module_operation_console/src/display_control.xc:189:0
	ldw r0, dp[proposed_intpol_mode]
.Ltmp328:
	#DEBUG_VALUE: temp <- R0
	.loc	1 337 0                 # C:/Users/takaaki/git/sw_xSSDAC/module_operation_console/src/display_control.xc:337:0
.Lxta.call_labels63:
	bl _SShowInterpolationMode_0
.Ltmp329:
.LBB31_27:                              # %ifdone34
.Lxtalabel101:
	#DEBUG_VALUE: test_display_control_flag:bitmask <- 512
	.loc	1 76 9                  # C:/Users/takaaki/git/sw_xSSDAC/module_operation_console/src/display_control.xc:76:9
	ldw r0, dp[display_control_flag]
	ldc r1, 512
	.loc	1 76 9                  # C:/Users/takaaki/git/sw_xSSDAC/module_operation_console/src/display_control.xc:76:9
	{
		and r0, r0, r1
		nop
	}
	{
		nop
		stw r0, sp[3]
	}
	bf r0, .LBB31_10
.Ltmp330:
# BB#28:                                # %iftrue36
.Lxtalabel102:
	#DEBUG_VALUE: clear_display_control_flag:bitmask <- 512
	.loc	1 84 0                  # C:/Users/takaaki/git/sw_xSSDAC/module_operation_console/src/display_control.xc:84:0
	ldw r0, dp[display_control_flag]
	ldw r1, cp[.LCPI31_3]
	.loc	1 84 0                  # C:/Users/takaaki/git/sw_xSSDAC/module_operation_console/src/display_control.xc:84:0
	{
		and r0, r0, r1
		nop
	}
	.loc	1 84 0                  # C:/Users/takaaki/git/sw_xSSDAC/module_operation_console/src/display_control.xc:84:0
	stw r0, dp[display_control_flag]
.Ltmp331:
	.loc	1 198 0                 # C:/Users/takaaki/git/sw_xSSDAC/module_operation_console/src/display_control.xc:198:0
	ldw r0, dp[fixed_intpol_mode]
.Ltmp332:
	#DEBUG_VALUE: temp <- R0
	.loc	1 341 0                 # C:/Users/takaaki/git/sw_xSSDAC/module_operation_console/src/display_control.xc:341:0
.Lxta.call_labels64:
	bl _SShowInterpolationMode_0
.Ltmp333:
	bu .LBB31_10
.LBB31_29:                              # %switchcase32
.Lxtalabel103:
.Ltmp334:
	#DEBUG_VALUE: test_display_control_flag:bitmask <- 1024
	.loc	1 76 9                  # C:/Users/takaaki/git/sw_xSSDAC/module_operation_console/src/display_control.xc:76:9
	ldw r0, dp[display_control_flag]
	ldc r1, 1024
	.loc	1 76 9                  # C:/Users/takaaki/git/sw_xSSDAC/module_operation_console/src/display_control.xc:76:9
	{
		and r0, r0, r1
		nop
	}
	{
		nop
		stw r0, sp[3]
	}
	bf r0, .LBB31_10
.Ltmp335:
# BB#30:                                # %iftrue40
.Lxtalabel104:
	#DEBUG_VALUE: clear_display_control_flag:bitmask <- 1024
	.loc	1 84 0                  # C:/Users/takaaki/git/sw_xSSDAC/module_operation_console/src/display_control.xc:84:0
	ldw r0, dp[display_control_flag]
	ldw r1, cp[.LCPI31_1]
	.loc	1 84 0                  # C:/Users/takaaki/git/sw_xSSDAC/module_operation_console/src/display_control.xc:84:0
	{
		and r0, r0, r1
		nop
	}
	.loc	1 84 0                  # C:/Users/takaaki/git/sw_xSSDAC/module_operation_console/src/display_control.xc:84:0
	stw r0, dp[display_control_flag]
.Ltmp336:
	.loc	1 234 0                 # C:/Users/takaaki/git/sw_xSSDAC/module_operation_console/src/display_control.xc:234:0
	ldw r0, dp[selected_function]
.Ltmp337:
	#DEBUG_VALUE: GetFunctionString:func <- R0
	#DEBUG_VALUE: temp <- R0
	ldaw r11, cp[.str33]
.Ltmp338:
	.loc	1 239 0                 # C:/Users/takaaki/git/sw_xSSDAC/module_operation_console/src/display_control.xc:239:0
	{
		eq r1, r0, 1
		nop
	}
	bf r1, .LBB31_31
.Ltmp339:
# BB#33:                                # %switchcase1.i
.Lxtalabel105:
	ldaw r11, cp[.str32]
	{
		ldc r2, 9
		nop
	}
	bu .LBB31_34
.LBB31_31:                              # %iftrue40
.Lxtalabel106:
	{
		ldc r2, 8
		nop
	}
	bt r0, .LBB31_34
# BB#32:                                # %switchcase.i
.Lxtalabel107:
	ldaw r11, cp[.str31]
.LBB31_34:                              # %GetFunctionString.exit
.Lxtalabel108:
	{
		mkmsk r0, 2
		mov r1, r11
	}
	.loc	1 347 0                 # C:/Users/takaaki/git/sw_xSSDAC/module_operation_console/src/display_control.xc:347:0
.Lxta.call_labels65:
	bl OLED_SSD1306_put_string
	.loc	1 234 0                 # C:/Users/takaaki/git/sw_xSSDAC/module_operation_console/src/display_control.xc:234:0
.Ltmp340:
	ldw r0, dp[selected_function]
.Ltmp341:
	#DEBUG_VALUE: temp <- R0
	.loc	1 349 0                 # C:/Users/takaaki/git/sw_xSSDAC/module_operation_console/src/display_control.xc:349:0
	{
		ldc r2, 4
		stw r0, sp[2]
	}
	{
		nop
		ldw r0, r2[0]
	}
.Ltmp342:
	{
		nop
		ldw r11, r0[0]
	}
	.loc	1 351 0                 # C:/Users/takaaki/git/sw_xSSDAC/module_operation_console/src/display_control.xc:351:0
	{
		ldc r0, 0
		stw r2, sp[1]
	}
	{
		ldaw r3, sp[2]
		mov r1, r0
	}
.Lxta.call_labels66:
	{
		nop
		bla r11
	}
.Ltmp343:
.LBB31_10:                              # %switchdone9
.Lxtalabel109:
	ldaw r4, dp[state]
	{
		ldc r5, 0
		nop
	}
	{
		nop
		ld8u r0, r4[r5]
	}
	.loc	1 356 0                 # C:/Users/takaaki/git/sw_xSSDAC/module_operation_console/src/display_control.xc:356:0
	bt r0, .LBB31_11
# BB#35:                                # %switchcase49
.Lxtalabel110:
	.loc	1 359 0                 # C:/Users/takaaki/git/sw_xSSDAC/module_operation_console/src/display_control.xc:359:0
	ldw r0, dp[pause_counter]
	.loc	1 359 0                 # C:/Users/takaaki/git/sw_xSSDAC/module_operation_console/src/display_control.xc:359:0
	{
		sub r0, r0, 1
		nop
	}
	.loc	1 359 0                 # C:/Users/takaaki/git/sw_xSSDAC/module_operation_console/src/display_control.xc:359:0
	stw r0, dp[pause_counter]
	bt r0, .LBB31_37
# BB#36:                                # %iftrue51
.Lxtalabel111:
	{
		ldc r0, 0
		mkmsk r1, 1
	}
	st8 r1, r4[r0]
	bu .LBB31_37
.LBB31_11:                              # %switchdone9
.Lxtalabel112:
	bf r0, .LBB31_37
# BB#12:                                # %switchcase50
.Lxtalabel113:
	.loc	1 365 13                # C:/Users/takaaki/git/sw_xSSDAC/module_operation_console/src/display_control.xc:365:13
	ldw r0, dp[scrolling_row]
	.loc	1 365 13                # C:/Users/takaaki/git/sw_xSSDAC/module_operation_console/src/display_control.xc:365:13
.Lxta.call_labels67:
	bl OLED_SSD1306_shift_left
	bt r0, .LBB31_37
# BB#13:                                # %iftrue56
.Lxtalabel114:
	.loc	1 366 0                 # C:/Users/takaaki/git/sw_xSSDAC/module_operation_console/src/display_control.xc:366:0
	ldw r0, dp[scrolling_row]
	.loc	1 366 0                 # C:/Users/takaaki/git/sw_xSSDAC/module_operation_console/src/display_control.xc:366:0
	{
		add r1, r0, 1
		ldc r0, 2
	}
	.loc	1 367 17                # C:/Users/takaaki/git/sw_xSSDAC/module_operation_console/src/display_control.xc:367:17
	{
		lsu r2, r0, r1
		mov r0, r5
	}
	bt r2, .LBB31_15
# BB#14:                                # %iftrue56
.Lxtalabel115:
	.loc	1 367 17                # C:/Users/takaaki/git/sw_xSSDAC/module_operation_console/src/display_control.xc:367:17
	{
		mov r0, r1
		nop
	}
.LBB31_15:                              # %iftrue56
.Lxtalabel116:
	.loc	1 367 0                 # C:/Users/takaaki/git/sw_xSSDAC/module_operation_console/src/display_control.xc:367:0
	stw r0, dp[scrolling_row]
	.loc	1 368 0                 # C:/Users/takaaki/git/sw_xSSDAC/module_operation_console/src/display_control.xc:368:0
	ldaw r11, cp[.str61]
	{
		mkmsk r2, 1
		mov r1, r11
	}
.Lxta.call_labels68:
	bl OLED_SSD1306_put_string
	{
		ldc r0, 50
		nop
	}
	.loc	1 369 0                 # C:/Users/takaaki/git/sw_xSSDAC/module_operation_console/src/display_control.xc:369:0
	stw r0, dp[pause_counter]
	st8 r5, r4[r5]
.LBB31_37:                              # %return
.Lxtalabel117:
	ldd r5, r4, sp[3]               # 4-byte Folded Reload
	{
		nop
		retsp 8
	}
	# RETURN_REG_HOLDER
.LBB31_2:                               # %iftrue
.Lxtalabel118:

	.xtabranch .Ljumptable5+4,.Ljumptable5+8,.Ljumptable5+12,.Ljumptable5+16
.Ljumptable5:
		
	{
		nop
		bru r0
	}
	.jmptable32 .LBB31_17,.LBB31_6,.LBB31_3,.LBB31_8
.LBB31_6:                               # %switchcase1
.Lxtalabel119:
	.loc	1 284 0                 # C:/Users/takaaki/git/sw_xSSDAC/module_operation_console/src/display_control.xc:284:0
	ldaw r11, cp[.str49]
	{
		ldc r0, 0
		ldc r2, 10
	}
	{
		mov r1, r11
		nop
	}
.Lxta.call_labels69:
	bl OLED_SSD1306_put_string
	.loc	1 285 0                 # C:/Users/takaaki/git/sw_xSSDAC/module_operation_console/src/display_control.xc:285:0
	ldaw r11, cp[.str50]
	{
		mkmsk r0, 1
		ldc r4, 2
	}
	{
		mov r1, r11
		mov r2, r4
	}
.Lxta.call_labels70:
	bl OLED_SSD1306_put_string
	.loc	1 286 0                 # C:/Users/takaaki/git/sw_xSSDAC/module_operation_console/src/display_control.xc:286:0
.Lxta.call_labels71:
	bl _SShowStreamFormat_0
	.loc	1 287 0                 # C:/Users/takaaki/git/sw_xSSDAC/module_operation_console/src/display_control.xc:287:0
	ldaw r11, cp[.str51]
	bu .LBB31_7
.LBB31_3:                               # %switchcase3
.Lxtalabel120:
	.loc	1 291 0                 # C:/Users/takaaki/git/sw_xSSDAC/module_operation_console/src/display_control.xc:291:0
	ldaw r11, cp[.str52]
	{
		ldc r0, 0
		ldc r2, 14
	}
	{
		mov r1, r11
		nop
	}
.Lxta.call_labels72:
	bl OLED_SSD1306_put_string
	.loc	1 292 0                 # C:/Users/takaaki/git/sw_xSSDAC/module_operation_console/src/display_control.xc:292:0
	ldaw r11, cp[.str53]
	{
		mkmsk r0, 1
		ldc r2, 37
	}
	{
		mov r1, r11
		nop
	}
.Lxta.call_labels73:
	bl OLED_SSD1306_put_string
	.loc	1 293 0                 # C:/Users/takaaki/git/sw_xSSDAC/module_operation_console/src/display_control.xc:293:0
	ldaw r11, cp[.str54]
	{
		ldc r0, 2
		nop
	}
	ldc r2, 80
	{
		mov r1, r11
		nop
	}
.Lxta.call_labels74:
	bl OLED_SSD1306_put_string
	.loc	1 198 0                 # C:/Users/takaaki/git/sw_xSSDAC/module_operation_console/src/display_control.xc:198:0
.Ltmp344:
	ldw r0, dp[fixed_intpol_mode]
.Ltmp345:
	#DEBUG_VALUE: temp <- R0
	.loc	1 294 0                 # C:/Users/takaaki/git/sw_xSSDAC/module_operation_console/src/display_control.xc:294:0
.Lxta.call_labels75:
	bl _SShowInterpolationMode_0
.Ltmp346:
	bu .LBB31_4
.LBB31_8:                               # %switchcase5
.Lxtalabel121:
	.loc	1 298 0                 # C:/Users/takaaki/git/sw_xSSDAC/module_operation_console/src/display_control.xc:298:0
	ldaw r11, cp[.str55]
	{
		ldc r0, 0
		ldc r2, 18
	}
	{
		mov r1, r11
		nop
	}
.Lxta.call_labels76:
	bl OLED_SSD1306_put_string
	.loc	1 299 0                 # C:/Users/takaaki/git/sw_xSSDAC/module_operation_console/src/display_control.xc:299:0
	ldaw r11, cp[.str56]
	{
		mkmsk r0, 1
		ldc r2, 44
	}
	{
		mov r1, r11
		nop
	}
.Lxta.call_labels77:
	bl OLED_SSD1306_put_string
	.loc	1 300 0                 # C:/Users/takaaki/git/sw_xSSDAC/module_operation_console/src/display_control.xc:300:0
	ldaw r11, cp[.str57]
	{
		ldc r4, 2
		ldc r2, 50
	}
	{
		mov r0, r4
		mov r1, r11
	}
.Lxta.call_labels78:
	bl OLED_SSD1306_put_string
	.loc	1 301 0                 # C:/Users/takaaki/git/sw_xSSDAC/module_operation_console/src/display_control.xc:301:0
	ldaw r11, cp[.str58]
.LBB31_7:                               # %ifdone
.Lxtalabel122:
	{
		mkmsk r0, 2
		mov r1, r11
	}
	.loc	1 287 0                 # C:/Users/takaaki/git/sw_xSSDAC/module_operation_console/src/display_control.xc:287:0
	{
		mov r2, r4
		nop
	}
.Lxta.call_labels79:
	bl OLED_SSD1306_put_string
	bu .LBB31_4
.LBB31_16:                              # %iftrue12
.Lxtalabel123:
.Ltmp347:
	#DEBUG_VALUE: clear_display_control_flag:bitmask <- 2
	.loc	1 84 0                  # C:/Users/takaaki/git/sw_xSSDAC/module_operation_console/src/display_control.xc:84:0
	ldw r0, dp[display_control_flag]
	ldw r1, cp[.LCPI31_5]
	.loc	1 84 0                  # C:/Users/takaaki/git/sw_xSSDAC/module_operation_console/src/display_control.xc:84:0
	{
		and r0, r0, r1
		nop
	}
	.loc	1 84 0                  # C:/Users/takaaki/git/sw_xSSDAC/module_operation_console/src/display_control.xc:84:0
	stw r0, dp[display_control_flag]
.Ltmp348:
.LBB31_17:                              # %switchcase
.Lxtalabel124:
	#DEBUG_VALUE: ShowFolder:row <- 0
	.loc	1 159 0                 # C:/Users/takaaki/git/sw_xSSDAC/module_operation_console/src/display_control.xc:159:0
	ldaw r1, dp[folder_string]
	{
		ldc r4, 0
		nop
	}
	ldc r2, 256
	{
		mov r0, r4
		nop
	}
.Lxta.call_labels80:
	bl OLED_SSD1306_put_string
	{
		ldc r0, 50
		nop
	}
	.loc	1 160 0                 # C:/Users/takaaki/git/sw_xSSDAC/module_operation_console/src/display_control.xc:160:0
	stw r0, dp[pause_counter]
.Ltmp349:
	.loc	1 277 0                 # C:/Users/takaaki/git/sw_xSSDAC/module_operation_console/src/display_control.xc:277:0
	ldaw r0, dp[state]
	st8 r4, r0[r4]
	.loc	1 162 0                 # C:/Users/takaaki/git/sw_xSSDAC/module_operation_console/src/display_control.xc:162:0
.Ltmp350:
	stw r4, dp[scrolling_row]
.xtataskstop
	{
		ecallf r4
		nop
	}
.Ltmp351:
.LBB31_38:                              # %iftrue16
.Lxtalabel125:
	#DEBUG_VALUE: clear_display_control_flag:bitmask <- 1
	.loc	1 84 0                  # C:/Users/takaaki/git/sw_xSSDAC/module_operation_console/src/display_control.xc:84:0
	ldw r0, dp[display_control_flag]
	ldw r1, cp[.LCPI31_6]
	.loc	1 84 0                  # C:/Users/takaaki/git/sw_xSSDAC/module_operation_console/src/display_control.xc:84:0
	{
		and r0, r0, r1
		nop
	}
	.loc	1 84 0                  # C:/Users/takaaki/git/sw_xSSDAC/module_operation_console/src/display_control.xc:84:0
	stw r0, dp[display_control_flag]
.Ltmp352:
	#DEBUG_VALUE: ShowTrack:row <- 1
	.loc	1 168 0                 # C:/Users/takaaki/git/sw_xSSDAC/module_operation_console/src/display_control.xc:168:0
	ldaw r1, dp[track_string]
	{
		mkmsk r4, 1
		nop
	}
	ldc r2, 256
	{
		mov r0, r4
		nop
	}
.Lxta.call_labels81:
	bl OLED_SSD1306_put_string
	{
		ldc r0, 50
		nop
	}
	.loc	1 169 0                 # C:/Users/takaaki/git/sw_xSSDAC/module_operation_console/src/display_control.xc:169:0
	stw r0, dp[pause_counter]
.Ltmp353:
	.loc	1 315 0                 # C:/Users/takaaki/git/sw_xSSDAC/module_operation_console/src/display_control.xc:315:0
	ldaw r0, dp[state]
	{
		ldc r1, 0
		nop
	}
	st8 r1, r0[r1]
	.loc	1 171 0                 # C:/Users/takaaki/git/sw_xSSDAC/module_operation_console/src/display_control.xc:171:0
.Ltmp354:
	stw r4, dp[scrolling_row]
.xtataskstop
	{
		ecallf r1
		nop
	}
.Ltmp355:
	.cc_bottom _Shandle_display_frame_0.function
	.set	_Shandle_display_frame_0.nstackwords,((OLED_SSD1306_shift_left.nstackwords $M siprintf.nstackwords $M _i.qspi_access.write.max.nstackwords $M _SShowStreamFormat_0.nstackwords $M _SShowInterpolationMode_0.nstackwords $M OLED_SSD1306_put_string.nstackwords) + 8)
	.globl	_Shandle_display_frame_0.nstackwords
	.set	_Shandle_display_frame_0.maxcores,OLED_SSD1306_put_string.maxcores $M OLED_SSD1306_shift_left.maxcores $M _SShowInterpolationMode_0.maxcores $M _SShowStreamFormat_0.maxcores $M _i.qspi_access.write.max.maxcores $M siprintf.maxcores $M 1
	.globl	_Shandle_display_frame_0.maxcores
	.set	_Shandle_display_frame_0.maxtimers,OLED_SSD1306_put_string.maxtimers $M OLED_SSD1306_shift_left.maxtimers $M _SShowInterpolationMode_0.maxtimers $M _SShowStreamFormat_0.maxtimers $M _i.qspi_access.write.max.maxtimers $M siprintf.maxtimers $M 0
	.globl	_Shandle_display_frame_0.maxtimers
	.set	_Shandle_display_frame_0.maxchanends,OLED_SSD1306_put_string.maxchanends $M OLED_SSD1306_shift_left.maxchanends $M _SShowInterpolationMode_0.maxchanends $M _SShowStreamFormat_0.maxchanends $M _i.qspi_access.write.max.maxchanends $M siprintf.maxchanends $M 0
	.globl	_Shandle_display_frame_0.maxchanends
.Ltmp356:
	.size	_Shandle_display_frame_0, .Ltmp356-_Shandle_display_frame_0
.Lfunc_end31:
	.cfi_endproc

	.section	.cp.rodata.cst4,"aMc",@progbits,4
	.cc_top .LCPI32_0.data,.LCPI32_0
	.align	4
	.type	.LCPI32_0,@object
	.size	.LCPI32_0, 4
.LCPI32_0:
	.long	2000000                 # 0x1e8480
	.cc_bottom .LCPI32_0.data
	.text
	.globl	display_control_core
	.align	4
	.type	display_control_core,@function
	.cc_top display_control_core.function,display_control_core
display_control_core:                   # @display_control_core
.Lfunc_begin32:
	.loc	1 378 0                 # C:/Users/takaaki/git/sw_xSSDAC/module_operation_console/src/display_control.xc:378:0
	.cfi_startproc
	.issue_mode dual
# BB#0:                                 # %allocas
.Lxtalabel126:
	{
		nop
		dualentsp 6
	}
.Ltmp357:
	.cfi_def_cfa_offset 24
.Ltmp358:
	.cfi_offset 15, 0
	std r5, r4, sp[1]               # 4-byte Folded Spill
.Ltmp359:
	.cfi_offset 4, -16
.Ltmp360:
	.cfi_offset 5, -12
	std r7, r6, sp[2]               # 4-byte Folded Spill
.Ltmp361:
	.cfi_offset 6, -8
.Ltmp362:
	.cfi_offset 7, -4
	#DEBUG_VALUE: display_control_core:i <- R0
	{
		mov r4, r0
		nop
	}
.Ltmp363:
	#DEBUG_VALUE: display_control_core:i <- R4
	.loc	1 392 0 prologue_end    # C:/Users/takaaki/git/sw_xSSDAC/module_operation_console/src/display_control.xc:392:0
.Lxta.call_labels82:
	bl init_display_frame
	.loc	1 401 0                 # C:/Users/takaaki/git/sw_xSSDAC/module_operation_console/src/display_control.xc:401:0
.Ltmp364:
	{
		get r11, id
		nop
	}
	.loc	1 401 0                 # C:/Users/takaaki/git/sw_xSSDAC/module_operation_console/src/display_control.xc:401:0
	ldaw r0, dp[__timers]
	{
		nop
		ldw r5, r0[r11]
	}
	ldw r6, cp[.LCPI32_0]
.Ltmp365:
.LBB32_1:                               # %LoopBody
                                        # =>This Inner Loop Header: Depth=1
.Lxtalabel127:
	#DEBUG_VALUE: display_control_core:i <- R4
	.loc	1 396 0                 # C:/Users/takaaki/git/sw_xSSDAC/module_operation_console/src/display_control.xc:396:0
	{
		gettime r0
		nop
	}
.Ltmp366:
	#DEBUG_VALUE: time <- R0
	#DEBUG_VALUE: time <- R7
	.loc	1 397 0                 # C:/Users/takaaki/git/sw_xSSDAC/module_operation_console/src/display_control.xc:397:0
	{
		add r7, r0, r6
		mov r0, r4
	}
.Ltmp367:
	.loc	1 399 0                 # C:/Users/takaaki/git/sw_xSSDAC/module_operation_console/src/display_control.xc:399:0
.Lxta.call_labels83:
	bl handle_display_frame
	.loc	1 401 0                 # C:/Users/takaaki/git/sw_xSSDAC/module_operation_console/src/display_control.xc:401:0
	{
		setd res[r5], r7
		nop
	}
	.loc	1 401 0                 # C:/Users/takaaki/git/sw_xSSDAC/module_operation_console/src/display_control.xc:401:0
	{
		setc res[r5], 9
		nop
	}
	.loc	1 401 0                 # C:/Users/takaaki/git/sw_xSSDAC/module_operation_console/src/display_control.xc:401:0
.Ltmp368:
.Lxta.endpoint_labels0:
	{
		in r0, res[r5]
		nop
	}
	.loc	1 394 5                 # C:/Users/takaaki/git/sw_xSSDAC/module_operation_console/src/display_control.xc:394:5
	bu .LBB32_1
.Ltmp369:
	.cc_bottom display_control_core.function
	.set	display_control_core.nstackwords,((init_display_frame.nstackwords $M handle_display_frame.nstackwords) + 6)
	.globl	display_control_core.nstackwords
	.set	display_control_core.maxcores,handle_display_frame.maxcores $M init_display_frame.maxcores $M 1
	.globl	display_control_core.maxcores
	.set	display_control_core.maxtimers,handle_display_frame.maxtimers $M init_display_frame.maxtimers $M 0
	.globl	display_control_core.maxtimers
	.set	display_control_core.maxchanends,handle_display_frame.maxchanends $M init_display_frame.maxchanends $M 0
	.globl	display_control_core.maxchanends
.Ltmp370:
	.size	display_control_core, .Ltmp370-display_control_core
.Lfunc_end32:
	.cfi_endproc

	.section	.cp.rodata.cst4,"aMc",@progbits,4
	.cc_top .LCPI33_0.data,.LCPI33_0
	.align	4
	.type	.LCPI33_0,@object
	.size	.LCPI33_0, 4
.LCPI33_0:
	.long	2000000                 # 0x1e8480
	.cc_bottom .LCPI33_0.data
	.text
	.globl	_Sdisplay_control_core_0
	.align	4
	.type	_Sdisplay_control_core_0,@function
	.cc_top _Sdisplay_control_core_0.function,_Sdisplay_control_core_0
_Sdisplay_control_core_0:               # @_Sdisplay_control_core_0
.Lfunc_begin33:
	.loc	1 378 0                 # C:/Users/takaaki/git/sw_xSSDAC/module_operation_console/src/display_control.xc:378:0
	.cfi_startproc
	.issue_mode dual
# BB#0:                                 # %allocas
.Lxtalabel128:
	{
		nop
		dualentsp 6
	}
.Ltmp371:
	.cfi_def_cfa_offset 24
.Ltmp372:
	.cfi_offset 15, 0
	.loc	1 392 0 prologue_end    # C:/Users/takaaki/git/sw_xSSDAC/module_operation_console/src/display_control.xc:392:0
.Ltmp373:
	std r5, r4, sp[1]               # 4-byte Folded Spill
.Ltmp374:
	.cfi_offset 4, -16
.Ltmp375:
	.cfi_offset 5, -12
	std r7, r6, sp[2]               # 4-byte Folded Spill
.Ltmp376:
	.cfi_offset 6, -8
.Ltmp377:
	.cfi_offset 7, -4
.Lxta.call_labels84:
	bl init_display_frame
	.loc	1 401 0                 # C:/Users/takaaki/git/sw_xSSDAC/module_operation_console/src/display_control.xc:401:0
.Ltmp378:
	{
		get r11, id
		nop
	}
	.loc	1 401 0                 # C:/Users/takaaki/git/sw_xSSDAC/module_operation_console/src/display_control.xc:401:0
	ldaw r0, dp[__timers]
	{
		nop
		ldw r5, r0[r11]
	}
	ldw r6, cp[.LCPI33_0]
	{
		ldc r4, 0
		nop
	}
.Ltmp379:
.LBB33_1:                               # %LoopBody
                                        # =>This Inner Loop Header: Depth=1
.Lxtalabel129:
	.loc	1 396 0                 # C:/Users/takaaki/git/sw_xSSDAC/module_operation_console/src/display_control.xc:396:0
	{
		gettime r0
		nop
	}
.Ltmp380:
	#DEBUG_VALUE: time <- R0
	#DEBUG_VALUE: time <- R7
	#DEBUG_VALUE: i <- R4
	.loc	1 397 0                 # C:/Users/takaaki/git/sw_xSSDAC/module_operation_console/src/display_control.xc:397:0
	{
		add r7, r0, r6
		mov r0, r4
	}
.Ltmp381:
	.loc	1 399 0                 # C:/Users/takaaki/git/sw_xSSDAC/module_operation_console/src/display_control.xc:399:0
.Lxta.call_labels85:
	bl handle_display_frame
	.loc	1 401 0                 # C:/Users/takaaki/git/sw_xSSDAC/module_operation_console/src/display_control.xc:401:0
	{
		setd res[r5], r7
		nop
	}
	.loc	1 401 0                 # C:/Users/takaaki/git/sw_xSSDAC/module_operation_console/src/display_control.xc:401:0
	{
		setc res[r5], 9
		nop
	}
	.loc	1 401 0                 # C:/Users/takaaki/git/sw_xSSDAC/module_operation_console/src/display_control.xc:401:0
.Ltmp382:
.Lxta.endpoint_labels1:
	{
		in r0, res[r5]
		nop
	}
	.loc	1 394 5                 # C:/Users/takaaki/git/sw_xSSDAC/module_operation_console/src/display_control.xc:394:5
	bu .LBB33_1
.Ltmp383:
	.cc_bottom _Sdisplay_control_core_0.function
	.set	_Sdisplay_control_core_0.nstackwords,((init_display_frame.nstackwords $M handle_display_frame.nstackwords) + 6)
	.globl	_Sdisplay_control_core_0.nstackwords
	.set	_Sdisplay_control_core_0.maxcores,handle_display_frame.maxcores $M init_display_frame.maxcores $M 1
	.globl	_Sdisplay_control_core_0.maxcores
	.set	_Sdisplay_control_core_0.maxtimers,handle_display_frame.maxtimers $M init_display_frame.maxtimers $M 0
	.globl	_Sdisplay_control_core_0.maxtimers
	.set	_Sdisplay_control_core_0.maxchanends,handle_display_frame.maxchanends $M init_display_frame.maxchanends $M 0
	.globl	_Sdisplay_control_core_0.maxchanends
.Ltmp384:
	.size	_Sdisplay_control_core_0, .Ltmp384-_Sdisplay_control_core_0
.Lfunc_end33:
	.cfi_endproc

	.section	.dp.data,"awd",@progbits
	.cc_top track_string.data,track_string
	.globl	track_string.globound
track_string.globound = 256
	.globl	track_string
	.align	8
	.type	track_string,@object
	.size	track_string, 256
track_string:
.asciiz"track\000\000\000\000\000\000\000\000\000\000\000\000\000\000\000\000\000\000\000\000\000\000\000\000\000\000\000\000\000\000\000\000\000\000\000\000\000\000\000\000\000\000\000\000\000\000\000\000\000\000\000\000\000\000\000\000\000\000\000\000\000\000\000\000\000\000\000\000\000\000\000\000\000\000\000\000\000\000\000\000\000\000\000\000\000\000\000\000\000\000\000\000\000\000\000\000\000\000\000\000\000\000\000\000\000\000\000\000\000\000\000\000\000\000\000\000\000\000\000\000\000\000\000\000\000\000\000\000\000\000\000\000\000\000\000\000\000\000\000\000\000\000\000\000\000\000\000\000\000\000\000\000\000\000\000\000\000\000\000\000\000\000\000\000\000\000\000\000\000\000\000\000\000\000\000\000\000\000\000\000\000\000\000\000\000\000\000\000\000\000\000\000\000\000\000\000\000\000\000\000\000\000\000\000\000\000\000\000\000\000\000\000\000\000\000\000\000\000\000\000\000\000\000\000\000\000\000\000\000\000\000\000\000\000\000\000\000\000\000\000\000\000\000\000\000\000\000\000\000\000"
	.cc_bottom track_string.data
	.cc_top folder_string.data,folder_string
	.globl	folder_string.globound
folder_string.globound = 256
	.globl	folder_string
	.align	8
	.type	folder_string,@object
	.size	folder_string, 256
folder_string:
.asciiz"folder\000\000\000\000\000\000\000\000\000\000\000\000\000\000\000\000\000\000\000\000\000\000\000\000\000\000\000\000\000\000\000\000\000\000\000\000\000\000\000\000\000\000\000\000\000\000\000\000\000\000\000\000\000\000\000\000\000\000\000\000\000\000\000\000\000\000\000\000\000\000\000\000\000\000\000\000\000\000\000\000\000\000\000\000\000\000\000\000\000\000\000\000\000\000\000\000\000\000\000\000\000\000\000\000\000\000\000\000\000\000\000\000\000\000\000\000\000\000\000\000\000\000\000\000\000\000\000\000\000\000\000\000\000\000\000\000\000\000\000\000\000\000\000\000\000\000\000\000\000\000\000\000\000\000\000\000\000\000\000\000\000\000\000\000\000\000\000\000\000\000\000\000\000\000\000\000\000\000\000\000\000\000\000\000\000\000\000\000\000\000\000\000\000\000\000\000\000\000\000\000\000\000\000\000\000\000\000\000\000\000\000\000\000\000\000\000\000\000\000\000\000\000\000\000\000\000\000\000\000\000\000\000\000\000\000\000\000\000\000\000\000\000\000\000\000\000\000\000\000"
	.cc_bottom folder_string.data
	.section	.dp.bss,"awd",@nobits
	.cc_top audio_property_string.data,audio_property_string
	.globl	audio_property_string.globound
audio_property_string.globound = 100
	.globl	audio_property_string
	.align	8
	.type	audio_property_string,@object
	.size	audio_property_string, 100
audio_property_string:
	.space	100
	.cc_bottom audio_property_string.data
	.section	.dp.bss.4,"awd",@nobits
	.cc_top state.data,state
	.align	4
	.type	state,@object
	.size	state, 1
state:
	.byte	0                       # 0x0
	.space	3
	.cc_bottom state.data
	.cc_top pause_counter.data,pause_counter
	.globl	pause_counter
	.align	4
	.type	pause_counter,@object
	.size	pause_counter, 4
pause_counter:
	.long	0                       # 0x0
	.cc_bottom pause_counter.data
	.cc_top scrolling_row.data,scrolling_row
	.globl	scrolling_row
	.align	4
	.type	scrolling_row,@object
	.size	scrolling_row, 4
scrolling_row:
	.long	0                       # 0x0
	.cc_bottom scrolling_row.data
	.section	.dp.rodata.4,"awd",@progbits
	.cc_top r_i2c2.data,r_i2c2
	.globl	r_i2c2
	.align	4
	.type	r_i2c2,@object
	.size	r_i2c2, 4
r_i2c2:
	.long	263424
	.cc_bottom r_i2c2.data
	.section	.dp.bss.4,"awd",@nobits
	.cc_top display_control_flag.data,display_control_flag
	.globl	display_control_flag
	.align	4
	.type	display_control_flag,@object
	.size	display_control_flag, 4
display_control_flag:
	.long	0                       # 0x0
	.cc_bottom display_control_flag.data
	.cc_top console_mode.data,console_mode
	.globl	console_mode
	.align	4
	.type	console_mode,@object
	.size	console_mode, 4
console_mode:
	.long	0                       # 0x0
	.cc_bottom console_mode.data
	.section	.dp.data.4,"awd",@progbits
	.cc_top NumChan.data,NumChan
	.globl	NumChan
	.align	4
	.type	NumChan,@object
	.size	NumChan, 4
NumChan:
	.long	2                       # 0x2
	.cc_bottom NumChan.data
	.cc_top SampFreq.data,SampFreq
	.globl	SampFreq
	.align	4
	.type	SampFreq,@object
	.size	SampFreq, 4
SampFreq:
	.long	44100                   # 0xac44
	.cc_bottom SampFreq.data
	.cc_top SampRes.data,SampRes
	.globl	SampRes
	.align	4
	.type	SampRes,@object
	.size	SampRes, 4
SampRes:
	.long	16                      # 0x10
	.cc_bottom SampRes.data
	.section	.dp.bss,"awd",@nobits
	.cc_top stream_format_string.data,stream_format_string
	.globl	stream_format_string.globound
stream_format_string.globound = 100
	.globl	stream_format_string
	.align	8
	.type	stream_format_string,@object
	.size	stream_format_string, 100
stream_format_string:
	.space	100
	.cc_bottom stream_format_string.data
	.section	.cp.rodata.4,"ac",@progbits
	.cc_top .str6.data,.str6
	.align	4
	.type	.str6,@object
	.size	.str6, 22
.str6:
.asciiz"%dch %d.%dksps %dbit\000"
	.cc_bottom .str6.data
	.cc_top .str7.data,.str7
	.align	4
	.type	.str7,@object
	.size	.str7, 4
.str7:
.asciiz"\n%s"
	.cc_bottom .str7.data
	.cc_top .str10.data,.str10
	.align	4
	.type	.str10,@object
	.size	.str10, 22
.str10:
.asciiz"%dch %d.%dksps %dbit\000"
	.cc_bottom .str10.data
	.cc_top .str11.data,.str11
	.align	4
	.type	.str11,@object
	.size	.str11, 4
.str11:
.asciiz"\n%s"
	.cc_bottom .str11.data
	.cc_top .str14.data,.str14
	.align	4
	.type	.str14,@object
	.size	.str14, 22
.str14:
.asciiz"%dch %d.%dksps %dbit\000"
	.cc_bottom .str14.data
	.section	.dp.bss.4,"awd",@nobits
	.cc_top SecElapsed.data,SecElapsed
	.globl	SecElapsed
	.align	4
	.type	SecElapsed,@object
	.size	SecElapsed, 4
SecElapsed:
	.long	0                       # 0x0
	.cc_bottom SecElapsed.data
	.section	.dp.bss,"awd",@nobits
	.cc_top TotalTimeString.data,TotalTimeString
	.globl	TotalTimeString.globound
TotalTimeString.globound = 6
	.globl	TotalTimeString
	.align	8
	.type	TotalTimeString,@object
	.size	TotalTimeString, 6
TotalTimeString:
	.space	6
	.cc_bottom TotalTimeString.data
	.section	.cp.rodata.4,"ac",@progbits
	.cc_top .str15.data,.str15
	.align	4
	.type	.str15,@object
	.size	.str15, 10
.str15:
.asciiz"%02d:%02d"
	.cc_bottom .str15.data
	.cc_top .str16.data,.str16
	.align	4
	.type	.str16,@object
	.size	.str16, 10
.str16:
.asciiz"%02d:%02d"
	.cc_bottom .str16.data
	.cc_top .str17.data,.str17
	.align	4
	.type	.str17,@object
	.size	.str17, 17
.str17:
.asciiz"Step            "
	.cc_bottom .str17.data
	.cc_top .str18.data,.str18
	.align	4
	.type	.str18,@object
	.size	.str18, 17
.str18:
.asciiz"Linear          "
	.cc_bottom .str18.data
	.cc_top .str19.data,.str19
	.align	4
	.type	.str19,@object
	.size	.str19, 17
.str19:
.asciiz"Quad            "
	.cc_bottom .str19.data
	.cc_top .str20.data,.str20
	.align	4
	.type	.str20,@object
	.size	.str20, 17
.str20:
.asciiz"Cubic           "
	.cc_bottom .str20.data
	.cc_top .str21.data,.str21
	.align	4
	.type	.str21,@object
	.size	.str21, 17
.str21:
.asciiz"Sinc4           "
	.cc_bottom .str21.data
	.cc_top .str22.data,.str22
	.align	4
	.type	.str22,@object
	.size	.str22, 17
.str22:
.asciiz"Sinc8           "
	.cc_bottom .str22.data
	.cc_top .str23.data,.str23
	.align	4
	.type	.str23,@object
	.size	.str23, 17
.str23:
.asciiz"Unknown         "
	.cc_bottom .str23.data
	.cc_top .str24.data,.str24
	.align	4
	.type	.str24,@object
	.size	.str24, 17
.str24:
.asciiz"Step            "
	.cc_bottom .str24.data
	.cc_top .str25.data,.str25
	.align	4
	.type	.str25,@object
	.size	.str25, 17
.str25:
.asciiz"Linear          "
	.cc_bottom .str25.data
	.cc_top .str26.data,.str26
	.align	4
	.type	.str26,@object
	.size	.str26, 17
.str26:
.asciiz"Quad            "
	.cc_bottom .str26.data
	.cc_top .str27.data,.str27
	.align	4
	.type	.str27,@object
	.size	.str27, 17
.str27:
.asciiz"Cubic           "
	.cc_bottom .str27.data
	.cc_top .str28.data,.str28
	.align	4
	.type	.str28,@object
	.size	.str28, 17
.str28:
.asciiz"Sinc4           "
	.cc_bottom .str28.data
	.cc_top .str29.data,.str29
	.align	4
	.type	.str29,@object
	.size	.str29, 17
.str29:
.asciiz"Sinc8           "
	.cc_bottom .str29.data
	.cc_top .str30.data,.str30
	.align	4
	.type	.str30,@object
	.size	.str30, 17
.str30:
.asciiz"Unknown         "
	.cc_bottom .str30.data
	.cc_top .str31.data,.str31
	.align	4
	.type	.str31,@object
	.size	.str31, 8
.str31:
.asciiz"USB_DAC"
	.cc_bottom .str31.data
	.cc_top .str32.data,.str32
	.align	4
	.type	.str32,@object
	.size	.str32, 9
.str32:
.asciiz"SDC_PLAY"
	.cc_bottom .str32.data
	.cc_top .str33.data,.str33
	.align	4
	.type	.str33,@object
	.size	.str33, 8
.str33:
.asciiz"UNKNOWN"
	.cc_bottom .str33.data
	.cc_top .str34.data,.str34
	.align	4
	.type	.str34,@object
	.size	.str34, 13
.str34:
.asciiz"OLED_SSD1306"
	.cc_bottom .str34.data
	.cc_top .str35.data,.str35
	.align	4
	.type	.str35,@object
	.size	.str35, 2
.str35:
.asciiz" "
	.space	2
	.cc_bottom .str35.data
	.cc_top .str36.data,.str36
	.align	4
	.type	.str36,@object
	.size	.str36, 10
.str36:
.asciiz"USB Audio"
	.cc_bottom .str36.data
	.cc_top .str37.data,.str37
	.align	4
	.type	.str37,@object
	.size	.str37, 2
.str37:
.asciiz" "
	.space	2
	.cc_bottom .str37.data
	.cc_top .str38.data,.str38
	.align	4
	.type	.str38,@object
	.size	.str38, 2
.str38:
.asciiz" "
	.space	2
	.cc_bottom .str38.data
	.cc_top .str39.data,.str39
	.align	4
	.type	.str39,@object
	.size	.str39, 14
.str39:
.asciiz"Interpolation"
	.cc_bottom .str39.data
	.cc_top .str40.data,.str40
	.align	4
	.type	.str40,@object
	.size	.str40, 37
.str40:
.asciiz"Selected desired interpolation mode."
	.cc_bottom .str40.data
	.cc_top .str41.data,.str41
	.align	4
	.type	.str41,@object
	.size	.str41, 80
.str41:
.asciiz"Press SW1 for STEP, SW2 for LINER, SW3 for CUBIC, SW4 for SINC4, SW5 for SINC8."
	.cc_bottom .str41.data
	.cc_top .str42.data,.str42
	.align	4
	.type	.str42,@object
	.size	.str42, 18
.str42:
.asciiz"Function selector"
	.cc_bottom .str42.data
	.cc_top .str43.data,.str43
	.align	4
	.type	.str43,@object
	.size	.str43, 44
.str43:
.asciiz"Selected function takes effect after reset."
	.cc_bottom .str43.data
	.cc_top .str44.data,.str44
	.align	4
	.type	.str44,@object
	.size	.str44, 50
.str44:
.asciiz"Press SW1 for USB audio. Press SW2 for SD player."
	.cc_bottom .str44.data
	.cc_top .str45.data,.str45
	.align	4
	.type	.str45,@object
	.size	.str45, 2
.str45:
.asciiz" "
	.space	2
	.cc_bottom .str45.data
	.cc_top .str48.data,.str48
	.align	4
	.type	.str48,@object
	.size	.str48, 1
.str48:
	.space	1
	.space	3
	.cc_bottom .str48.data
	.cc_top .str49.data,.str49
	.align	4
	.type	.str49,@object
	.size	.str49, 10
.str49:
.asciiz"USB Audio"
	.cc_bottom .str49.data
	.cc_top .str50.data,.str50
	.align	4
	.type	.str50,@object
	.size	.str50, 2
.str50:
.asciiz" "
	.space	2
	.cc_bottom .str50.data
	.cc_top .str51.data,.str51
	.align	4
	.type	.str51,@object
	.size	.str51, 2
.str51:
.asciiz" "
	.space	2
	.cc_bottom .str51.data
	.cc_top .str52.data,.str52
	.align	4
	.type	.str52,@object
	.size	.str52, 14
.str52:
.asciiz"Interpolation"
	.cc_bottom .str52.data
	.cc_top .str53.data,.str53
	.align	4
	.type	.str53,@object
	.size	.str53, 37
.str53:
.asciiz"Selected desired interpolation mode."
	.cc_bottom .str53.data
	.cc_top .str54.data,.str54
	.align	4
	.type	.str54,@object
	.size	.str54, 80
.str54:
.asciiz"Press SW1 for STEP, SW2 for LINER, SW3 for CUBIC, SW4 for SINC4, SW5 for SINC8."
	.cc_bottom .str54.data
	.cc_top .str55.data,.str55
	.align	4
	.type	.str55,@object
	.size	.str55, 18
.str55:
.asciiz"Function selector"
	.cc_bottom .str55.data
	.cc_top .str56.data,.str56
	.align	4
	.type	.str56,@object
	.size	.str56, 44
.str56:
.asciiz"Selected function takes effect after reset."
	.cc_bottom .str56.data
	.cc_top .str57.data,.str57
	.align	4
	.type	.str57,@object
	.size	.str57, 50
.str57:
.asciiz"Press SW1 for USB audio. Press SW2 for SD player."
	.cc_bottom .str57.data
	.cc_top .str58.data,.str58
	.align	4
	.type	.str58,@object
	.size	.str58, 2
.str58:
.asciiz" "
	.space	2
	.cc_bottom .str58.data
	.cc_top .str61.data,.str61
	.align	4
	.type	.str61,@object
	.size	.str61, 1
.str61:
	.space	1
	.space	3
	.cc_bottom .str61.data
	.section	.dp.data.4,"awd",@progbits
	.cc_top __xcc1_internal_1.data,__xcc1_internal_1
	.align	4
	.type	__xcc1_internal_1,@object
	.size	__xcc1_internal_1, 4
__xcc1_internal_1:
	.long	263424
	.cc_bottom __xcc1_internal_1.data
	.section	.dp.bss.4,"awd",@nobits
.Ldebug_end0:
	.section	.dp.bss,"awd",@nobits
.Ldebug_end1:
	.section	.dp.data.4,"awd",@progbits
.Ldebug_end2:
	.section	.dp.data,"awd",@progbits
.Ldebug_end3:
	.section	.dp.rodata.4,"awd",@progbits
.Ldebug_end4:
	.text
.Ldebug_end5:
	.file	2 "C:\\Program Files (x86)\\XMOS\\xTIMEcomposer\\Community_14.4.1\\target/include\\timer.h"
	.file	3 "C:\\Program Files (x86)\\XMOS\\xTIMEcomposer\\Community_14.4.1\\target/include/xc\\safe\\string.h"
	.section	.xtacalltable,"",@progbits
.Lentries_start0:
	.long	.Lentries_end1-.Lentries_start0
	.long	0
	.ascii	"C:\\Users\\takaaki\\git\\sw_xSSDAC\\app_usb_simple_ssdac_xSSDAC-SD-V2\\.build_Release"
	.byte	0
.cc_top cc_0,.Lxta.call_labels8
	.ascii	"C:/Users/takaaki/git/sw_xSSDAC/module_operation_console/src/display_control.xc"
	.byte	0
	.long	132
	.long	.Lxta.call_labels8
.cc_bottom cc_0
.cc_top cc_1,.Lxta.call_labels5
	.ascii	"C:/Users/takaaki/git/sw_xSSDAC/module_operation_console/src/display_control.xc"
	.byte	0
	.long	132
	.long	.Lxta.call_labels5
.cc_bottom cc_1
.cc_top cc_2,.Lxta.call_labels6
	.ascii	"C:/Users/takaaki/git/sw_xSSDAC/module_operation_console/src/display_control.xc"
	.byte	0
	.long	133
	.long	.Lxta.call_labels6
.cc_bottom cc_2
.cc_top cc_3,.Lxta.call_labels9
	.ascii	"C:/Users/takaaki/git/sw_xSSDAC/module_operation_console/src/display_control.xc"
	.byte	0
	.long	133
	.long	.Lxta.call_labels9
.cc_bottom cc_3
.cc_top cc_4,.Lxta.call_labels7
	.ascii	"C:/Users/takaaki/git/sw_xSSDAC/module_operation_console/src/display_control.xc"
	.byte	0
	.long	134
	.long	.Lxta.call_labels7
.cc_bottom cc_4
.cc_top cc_5,.Lxta.call_labels10
	.ascii	"C:/Users/takaaki/git/sw_xSSDAC/module_operation_console/src/display_control.xc"
	.byte	0
	.long	134
	.long	.Lxta.call_labels10
.cc_bottom cc_5
.cc_top cc_6,.Lxta.call_labels11
	.ascii	"C:/Users/takaaki/git/sw_xSSDAC/module_operation_console/src/display_control.xc"
	.byte	0
	.long	143
	.long	.Lxta.call_labels11
.cc_bottom cc_6
.cc_top cc_7,.Lxta.call_labels50
	.ascii	"C:/Users/takaaki/git/sw_xSSDAC/module_operation_console/src/display_control.xc"
	.byte	0
	.long	154
	.long	.Lxta.call_labels50
.cc_bottom cc_7
.cc_top cc_8,.Lxta.call_labels12
	.ascii	"C:/Users/takaaki/git/sw_xSSDAC/module_operation_console/src/display_control.xc"
	.byte	0
	.long	154
	.long	.Lxta.call_labels12
.cc_bottom cc_8
.cc_top cc_9,.Lxta.call_labels14
	.ascii	"C:/Users/takaaki/git/sw_xSSDAC/module_operation_console/src/display_control.xc"
	.byte	0
	.long	154
	.long	.Lxta.call_labels14
.cc_bottom cc_9
.cc_top cc_10,.Lxta.call_labels60
	.ascii	"C:/Users/takaaki/git/sw_xSSDAC/module_operation_console/src/display_control.xc"
	.byte	0
	.long	154
	.long	.Lxta.call_labels60
.cc_bottom cc_10
.cc_top cc_11,.Lxta.call_labels33
	.ascii	"C:/Users/takaaki/git/sw_xSSDAC/module_operation_console/src/display_control.xc"
	.byte	0
	.long	154
	.long	.Lxta.call_labels33
.cc_bottom cc_11
.cc_top cc_12,.Lxta.call_labels44
	.ascii	"C:/Users/takaaki/git/sw_xSSDAC/module_operation_console/src/display_control.xc"
	.byte	0
	.long	155
	.long	.Lxta.call_labels44
.cc_bottom cc_12
.cc_top cc_13,.Lxta.call_labels13
	.ascii	"C:/Users/takaaki/git/sw_xSSDAC/module_operation_console/src/display_control.xc"
	.byte	0
	.long	155
	.long	.Lxta.call_labels13
.cc_bottom cc_13
.cc_top cc_14,.Lxta.call_labels15
	.ascii	"C:/Users/takaaki/git/sw_xSSDAC/module_operation_console/src/display_control.xc"
	.byte	0
	.long	155
	.long	.Lxta.call_labels15
.cc_bottom cc_14
.cc_top cc_15,.Lxta.call_labels61
	.ascii	"C:/Users/takaaki/git/sw_xSSDAC/module_operation_console/src/display_control.xc"
	.byte	0
	.long	155
	.long	.Lxta.call_labels61
.cc_bottom cc_15
.cc_top cc_16,.Lxta.call_labels51
	.ascii	"C:/Users/takaaki/git/sw_xSSDAC/module_operation_console/src/display_control.xc"
	.byte	0
	.long	155
	.long	.Lxta.call_labels51
.cc_bottom cc_16
.cc_top cc_17,.Lxta.call_labels28
	.ascii	"C:/Users/takaaki/git/sw_xSSDAC/module_operation_console/src/display_control.xc"
	.byte	0
	.long	159
	.long	.Lxta.call_labels28
.cc_bottom cc_17
.cc_top cc_18,.Lxta.call_labels16
	.ascii	"C:/Users/takaaki/git/sw_xSSDAC/module_operation_console/src/display_control.xc"
	.byte	0
	.long	159
	.long	.Lxta.call_labels16
.cc_bottom cc_18
.cc_top cc_19,.Lxta.call_labels18
	.ascii	"C:/Users/takaaki/git/sw_xSSDAC/module_operation_console/src/display_control.xc"
	.byte	0
	.long	159
	.long	.Lxta.call_labels18
.cc_bottom cc_19
.cc_top cc_20,.Lxta.call_labels80
	.ascii	"C:/Users/takaaki/git/sw_xSSDAC/module_operation_console/src/display_control.xc"
	.byte	0
	.long	159
	.long	.Lxta.call_labels80
.cc_bottom cc_20
.cc_top cc_21,.Lxta.call_labels45
	.ascii	"C:/Users/takaaki/git/sw_xSSDAC/module_operation_console/src/display_control.xc"
	.byte	0
	.long	159
	.long	.Lxta.call_labels45
.cc_bottom cc_21
.cc_top cc_22,.Lxta.call_labels46
	.ascii	"C:/Users/takaaki/git/sw_xSSDAC/module_operation_console/src/display_control.xc"
	.byte	0
	.long	164
	.long	.Lxta.call_labels46
.cc_bottom cc_22
.cc_top cc_23,.Lxta.call_labels29
	.ascii	"C:/Users/takaaki/git/sw_xSSDAC/module_operation_console/src/display_control.xc"
	.byte	0
	.long	164
	.long	.Lxta.call_labels29
.cc_bottom cc_23
.cc_top cc_24,.Lxta.call_labels17
	.ascii	"C:/Users/takaaki/git/sw_xSSDAC/module_operation_console/src/display_control.xc"
	.byte	0
	.long	164
	.long	.Lxta.call_labels17
.cc_bottom cc_24
.cc_top cc_25,.Lxta.call_labels19
	.ascii	"C:/Users/takaaki/git/sw_xSSDAC/module_operation_console/src/display_control.xc"
	.byte	0
	.long	164
	.long	.Lxta.call_labels19
.cc_bottom cc_25
.cc_top cc_26,.Lxta.call_labels22
	.ascii	"C:/Users/takaaki/git/sw_xSSDAC/module_operation_console/src/display_control.xc"
	.byte	0
	.long	168
	.long	.Lxta.call_labels22
.cc_bottom cc_26
.cc_top cc_27,.Lxta.call_labels30
	.ascii	"C:/Users/takaaki/git/sw_xSSDAC/module_operation_console/src/display_control.xc"
	.byte	0
	.long	168
	.long	.Lxta.call_labels30
.cc_bottom cc_27
.cc_top cc_28,.Lxta.call_labels81
	.ascii	"C:/Users/takaaki/git/sw_xSSDAC/module_operation_console/src/display_control.xc"
	.byte	0
	.long	168
	.long	.Lxta.call_labels81
.cc_bottom cc_28
.cc_top cc_29,.Lxta.call_labels47
	.ascii	"C:/Users/takaaki/git/sw_xSSDAC/module_operation_console/src/display_control.xc"
	.byte	0
	.long	168
	.long	.Lxta.call_labels47
.cc_bottom cc_29
.cc_top cc_30,.Lxta.call_labels20
	.ascii	"C:/Users/takaaki/git/sw_xSSDAC/module_operation_console/src/display_control.xc"
	.byte	0
	.long	168
	.long	.Lxta.call_labels20
.cc_bottom cc_30
.cc_top cc_31,.Lxta.call_labels31
	.ascii	"C:/Users/takaaki/git/sw_xSSDAC/module_operation_console/src/display_control.xc"
	.byte	0
	.long	173
	.long	.Lxta.call_labels31
.cc_bottom cc_31
.cc_top cc_32,.Lxta.call_labels48
	.ascii	"C:/Users/takaaki/git/sw_xSSDAC/module_operation_console/src/display_control.xc"
	.byte	0
	.long	173
	.long	.Lxta.call_labels48
.cc_bottom cc_32
.cc_top cc_33,.Lxta.call_labels21
	.ascii	"C:/Users/takaaki/git/sw_xSSDAC/module_operation_console/src/display_control.xc"
	.byte	0
	.long	173
	.long	.Lxta.call_labels21
.cc_bottom cc_33
.cc_top cc_34,.Lxta.call_labels23
	.ascii	"C:/Users/takaaki/git/sw_xSSDAC/module_operation_console/src/display_control.xc"
	.byte	0
	.long	173
	.long	.Lxta.call_labels23
.cc_bottom cc_34
.cc_top cc_35,.Lxta.call_labels49
	.ascii	"C:/Users/takaaki/git/sw_xSSDAC/module_operation_console/src/display_control.xc"
	.byte	0
	.long	177
	.long	.Lxta.call_labels49
.cc_bottom cc_35
.cc_top cc_36,.Lxta.call_labels32
	.ascii	"C:/Users/takaaki/git/sw_xSSDAC/module_operation_console/src/display_control.xc"
	.byte	0
	.long	177
	.long	.Lxta.call_labels32
.cc_bottom cc_36
.cc_top cc_37,.Lxta.call_labels25
	.ascii	"C:/Users/takaaki/git/sw_xSSDAC/module_operation_console/src/display_control.xc"
	.byte	0
	.long	177
	.long	.Lxta.call_labels25
.cc_bottom cc_37
.cc_top cc_38,.Lxta.call_labels59
	.ascii	"C:/Users/takaaki/git/sw_xSSDAC/module_operation_console/src/display_control.xc"
	.byte	0
	.long	177
	.long	.Lxta.call_labels59
.cc_bottom cc_38
.cc_top cc_39,.Lxta.call_labels24
	.ascii	"C:/Users/takaaki/git/sw_xSSDAC/module_operation_console/src/display_control.xc"
	.byte	0
	.long	177
	.long	.Lxta.call_labels24
.cc_bottom cc_39
.cc_top cc_40,.Lxta.call_labels27
	.ascii	"C:/Users/takaaki/git/sw_xSSDAC/module_operation_console/src/display_control.xc"
	.byte	0
	.long	221
	.long	.Lxta.call_labels27
.cc_bottom cc_40
.cc_top cc_41,.Lxta.call_labels26
	.ascii	"C:/Users/takaaki/git/sw_xSSDAC/module_operation_console/src/display_control.xc"
	.byte	0
	.long	221
	.long	.Lxta.call_labels26
.cc_bottom cc_41
.cc_top cc_42,.Lxta.call_labels0
	.ascii	"C:/Users/takaaki/git/sw_xSSDAC/module_operation_console/src/display_control.xc"
	.byte	0
	.long	253
	.long	.Lxta.call_labels0
.cc_bottom cc_42
.cc_top cc_43,.Lxta.call_labels1
	.ascii	"C:/Users/takaaki/git/sw_xSSDAC/module_operation_console/src/display_control.xc"
	.byte	0
	.long	254
	.long	.Lxta.call_labels1
.cc_bottom cc_43
.cc_top cc_44,.Lxta.call_labels2
	.ascii	"C:/Users/takaaki/git/sw_xSSDAC/module_operation_console/src/display_control.xc"
	.byte	0
	.long	256
	.long	.Lxta.call_labels2
.cc_bottom cc_44
.cc_top cc_45,.Lxta.call_labels3
	.ascii	"C:/Users/takaaki/git/sw_xSSDAC/module_operation_console/src/display_control.xc"
	.byte	0
	.long	256
	.long	.Lxta.call_labels3
.cc_bottom cc_45
.cc_top cc_46,.Lxta.call_labels4
	.ascii	"C:/Users/takaaki/git/sw_xSSDAC/module_operation_console/src/display_control.xc"
	.byte	0
	.long	256
	.long	.Lxta.call_labels4
.cc_bottom cc_46
.cc_top cc_47,.Lxta.call_labels34
	.ascii	"C:/Users/takaaki/git/sw_xSSDAC/module_operation_console/src/display_control.xc"
	.byte	0
	.long	284
	.long	.Lxta.call_labels34
.cc_bottom cc_47
.cc_top cc_48,.Lxta.call_labels69
	.ascii	"C:/Users/takaaki/git/sw_xSSDAC/module_operation_console/src/display_control.xc"
	.byte	0
	.long	284
	.long	.Lxta.call_labels69
.cc_bottom cc_48
.cc_top cc_49,.Lxta.call_labels35
	.ascii	"C:/Users/takaaki/git/sw_xSSDAC/module_operation_console/src/display_control.xc"
	.byte	0
	.long	285
	.long	.Lxta.call_labels35
.cc_bottom cc_49
.cc_top cc_50,.Lxta.call_labels70
	.ascii	"C:/Users/takaaki/git/sw_xSSDAC/module_operation_console/src/display_control.xc"
	.byte	0
	.long	285
	.long	.Lxta.call_labels70
.cc_bottom cc_50
.cc_top cc_51,.Lxta.call_labels36
	.ascii	"C:/Users/takaaki/git/sw_xSSDAC/module_operation_console/src/display_control.xc"
	.byte	0
	.long	286
	.long	.Lxta.call_labels36
.cc_bottom cc_51
.cc_top cc_52,.Lxta.call_labels71
	.ascii	"C:/Users/takaaki/git/sw_xSSDAC/module_operation_console/src/display_control.xc"
	.byte	0
	.long	286
	.long	.Lxta.call_labels71
.cc_bottom cc_52
.cc_top cc_53,.Lxta.call_labels79
	.ascii	"C:/Users/takaaki/git/sw_xSSDAC/module_operation_console/src/display_control.xc"
	.byte	0
	.long	287
	.long	.Lxta.call_labels79
.cc_bottom cc_53
.cc_top cc_54,.Lxta.call_labels72
	.ascii	"C:/Users/takaaki/git/sw_xSSDAC/module_operation_console/src/display_control.xc"
	.byte	0
	.long	291
	.long	.Lxta.call_labels72
.cc_bottom cc_54
.cc_top cc_55,.Lxta.call_labels37
	.ascii	"C:/Users/takaaki/git/sw_xSSDAC/module_operation_console/src/display_control.xc"
	.byte	0
	.long	291
	.long	.Lxta.call_labels37
.cc_bottom cc_55
.cc_top cc_56,.Lxta.call_labels38
	.ascii	"C:/Users/takaaki/git/sw_xSSDAC/module_operation_console/src/display_control.xc"
	.byte	0
	.long	292
	.long	.Lxta.call_labels38
.cc_bottom cc_56
.cc_top cc_57,.Lxta.call_labels73
	.ascii	"C:/Users/takaaki/git/sw_xSSDAC/module_operation_console/src/display_control.xc"
	.byte	0
	.long	292
	.long	.Lxta.call_labels73
.cc_bottom cc_57
.cc_top cc_58,.Lxta.call_labels39
	.ascii	"C:/Users/takaaki/git/sw_xSSDAC/module_operation_console/src/display_control.xc"
	.byte	0
	.long	293
	.long	.Lxta.call_labels39
.cc_bottom cc_58
.cc_top cc_59,.Lxta.call_labels74
	.ascii	"C:/Users/takaaki/git/sw_xSSDAC/module_operation_console/src/display_control.xc"
	.byte	0
	.long	293
	.long	.Lxta.call_labels74
.cc_bottom cc_59
.cc_top cc_60,.Lxta.call_labels40
	.ascii	"C:/Users/takaaki/git/sw_xSSDAC/module_operation_console/src/display_control.xc"
	.byte	0
	.long	294
	.long	.Lxta.call_labels40
.cc_bottom cc_60
.cc_top cc_61,.Lxta.call_labels75
	.ascii	"C:/Users/takaaki/git/sw_xSSDAC/module_operation_console/src/display_control.xc"
	.byte	0
	.long	294
	.long	.Lxta.call_labels75
.cc_bottom cc_61
.cc_top cc_62,.Lxta.call_labels41
	.ascii	"C:/Users/takaaki/git/sw_xSSDAC/module_operation_console/src/display_control.xc"
	.byte	0
	.long	298
	.long	.Lxta.call_labels41
.cc_bottom cc_62
.cc_top cc_63,.Lxta.call_labels76
	.ascii	"C:/Users/takaaki/git/sw_xSSDAC/module_operation_console/src/display_control.xc"
	.byte	0
	.long	298
	.long	.Lxta.call_labels76
.cc_bottom cc_63
.cc_top cc_64,.Lxta.call_labels42
	.ascii	"C:/Users/takaaki/git/sw_xSSDAC/module_operation_console/src/display_control.xc"
	.byte	0
	.long	299
	.long	.Lxta.call_labels42
.cc_bottom cc_64
.cc_top cc_65,.Lxta.call_labels77
	.ascii	"C:/Users/takaaki/git/sw_xSSDAC/module_operation_console/src/display_control.xc"
	.byte	0
	.long	299
	.long	.Lxta.call_labels77
.cc_bottom cc_65
.cc_top cc_66,.Lxta.call_labels78
	.ascii	"C:/Users/takaaki/git/sw_xSSDAC/module_operation_console/src/display_control.xc"
	.byte	0
	.long	300
	.long	.Lxta.call_labels78
.cc_bottom cc_66
.cc_top cc_67,.Lxta.call_labels43
	.ascii	"C:/Users/takaaki/git/sw_xSSDAC/module_operation_console/src/display_control.xc"
	.byte	0
	.long	300
	.long	.Lxta.call_labels43
.cc_bottom cc_67
.cc_top cc_68,.Lxta.call_labels52
	.ascii	"C:/Users/takaaki/git/sw_xSSDAC/module_operation_console/src/display_control.xc"
	.byte	0
	.long	330
	.long	.Lxta.call_labels52
.cc_bottom cc_68
.cc_top cc_69,.Lxta.call_labels62
	.ascii	"C:/Users/takaaki/git/sw_xSSDAC/module_operation_console/src/display_control.xc"
	.byte	0
	.long	330
	.long	.Lxta.call_labels62
.cc_bottom cc_69
.cc_top cc_70,.Lxta.call_labels53
	.ascii	"C:/Users/takaaki/git/sw_xSSDAC/module_operation_console/src/display_control.xc"
	.byte	0
	.long	337
	.long	.Lxta.call_labels53
.cc_bottom cc_70
.cc_top cc_71,.Lxta.call_labels63
	.ascii	"C:/Users/takaaki/git/sw_xSSDAC/module_operation_console/src/display_control.xc"
	.byte	0
	.long	337
	.long	.Lxta.call_labels63
.cc_bottom cc_71
.cc_top cc_72,.Lxta.call_labels54
	.ascii	"C:/Users/takaaki/git/sw_xSSDAC/module_operation_console/src/display_control.xc"
	.byte	0
	.long	341
	.long	.Lxta.call_labels54
.cc_bottom cc_72
.cc_top cc_73,.Lxta.call_labels64
	.ascii	"C:/Users/takaaki/git/sw_xSSDAC/module_operation_console/src/display_control.xc"
	.byte	0
	.long	341
	.long	.Lxta.call_labels64
.cc_bottom cc_73
.cc_top cc_74,.Lxta.call_labels65
	.ascii	"C:/Users/takaaki/git/sw_xSSDAC/module_operation_console/src/display_control.xc"
	.byte	0
	.long	347
	.long	.Lxta.call_labels65
.cc_bottom cc_74
.cc_top cc_75,.Lxta.call_labels55
	.ascii	"C:/Users/takaaki/git/sw_xSSDAC/module_operation_console/src/display_control.xc"
	.byte	0
	.long	347
	.long	.Lxta.call_labels55
.cc_bottom cc_75
.cc_top cc_76,.Lxta.call_labels56
	.ascii	"C:/Users/takaaki/git/sw_xSSDAC/module_operation_console/src/display_control.xc"
	.byte	0
	.long	351
	.long	.Lxta.call_labels56
.cc_bottom cc_76
.cc_top cc_77,.Lxta.call_labels66
	.ascii	"C:/Users/takaaki/git/sw_xSSDAC/module_operation_console/src/display_control.xc"
	.byte	0
	.long	351
	.long	.Lxta.call_labels66
.cc_bottom cc_77
.cc_top cc_78,.Lxta.call_labels57
	.ascii	"C:/Users/takaaki/git/sw_xSSDAC/module_operation_console/src/display_control.xc"
	.byte	0
	.long	365
	.long	.Lxta.call_labels57
.cc_bottom cc_78
.cc_top cc_79,.Lxta.call_labels67
	.ascii	"C:/Users/takaaki/git/sw_xSSDAC/module_operation_console/src/display_control.xc"
	.byte	0
	.long	365
	.long	.Lxta.call_labels67
.cc_bottom cc_79
.cc_top cc_80,.Lxta.call_labels68
	.ascii	"C:/Users/takaaki/git/sw_xSSDAC/module_operation_console/src/display_control.xc"
	.byte	0
	.long	368
	.long	.Lxta.call_labels68
.cc_bottom cc_80
.cc_top cc_81,.Lxta.call_labels58
	.ascii	"C:/Users/takaaki/git/sw_xSSDAC/module_operation_console/src/display_control.xc"
	.byte	0
	.long	368
	.long	.Lxta.call_labels58
.cc_bottom cc_81
.cc_top cc_82,.Lxta.call_labels82
	.ascii	"C:/Users/takaaki/git/sw_xSSDAC/module_operation_console/src/display_control.xc"
	.byte	0
	.long	392
	.long	.Lxta.call_labels82
.cc_bottom cc_82
.cc_top cc_83,.Lxta.call_labels84
	.ascii	"C:/Users/takaaki/git/sw_xSSDAC/module_operation_console/src/display_control.xc"
	.byte	0
	.long	392
	.long	.Lxta.call_labels84
.cc_bottom cc_83
.cc_top cc_84,.Lxta.call_labels83
	.ascii	"C:/Users/takaaki/git/sw_xSSDAC/module_operation_console/src/display_control.xc"
	.byte	0
	.long	399
	.long	.Lxta.call_labels83
.cc_bottom cc_84
.cc_top cc_85,.Lxta.call_labels85
	.ascii	"C:/Users/takaaki/git/sw_xSSDAC/module_operation_console/src/display_control.xc"
	.byte	0
	.long	399
	.long	.Lxta.call_labels85
.cc_bottom cc_85
.Lentries_end1:
	.section	.xtaendpointtable,"",@progbits
.Lentries_start2:
	.long	.Lentries_end3-.Lentries_start2
	.long	0
	.ascii	"C:\\Users\\takaaki\\git\\sw_xSSDAC\\app_usb_simple_ssdac_xSSDAC-SD-V2\\.build_Release"
	.byte	0
.cc_top cc_86,.Lxta.endpoint_labels0
	.ascii	"C:/Users/takaaki/git/sw_xSSDAC/module_operation_console/src/display_control.xc"
	.byte	0
	.long	401
	.long	.Lxta.endpoint_labels0
.cc_bottom cc_86
.cc_top cc_87,.Lxta.endpoint_labels1
	.ascii	"C:/Users/takaaki/git/sw_xSSDAC/module_operation_console/src/display_control.xc"
	.byte	0
	.long	401
	.long	.Lxta.endpoint_labels1
.cc_bottom cc_87
.Lentries_end3:
	.section	.xtalabeltable,"",@progbits
.Lentries_start4:
	.long	.Lentries_end5-.Lentries_start4
	.long	0
	.ascii	"C:\\Users\\takaaki\\git\\sw_xSSDAC\\app_usb_simple_ssdac_xSSDAC-SD-V2\\.build_Release"
	.byte	0
.cc_top cc_88,.Lxtalabel0
	.ascii	"C:/Users/takaaki/git/sw_xSSDAC/module_operation_console/src/display_control.xc"
	.byte	0
	.long	65
	.long	70
	.long	.Lxtalabel0
.cc_bottom cc_88
.cc_top cc_89,.Lxtalabel58
	.ascii	"C:/Users/takaaki/git/sw_xSSDAC/module_operation_console/src/display_control.xc"
	.byte	0
	.long	73
	.long	78
	.long	.Lxtalabel58
.cc_bottom cc_89
.cc_top cc_90,.Lxtalabel87
	.ascii	"C:/Users/takaaki/git/sw_xSSDAC/module_operation_console/src/display_control.xc"
	.byte	0
	.long	73
	.long	78
	.long	.Lxtalabel87
.cc_bottom cc_90
.cc_top cc_91,.Lxtalabel99
	.ascii	"C:/Users/takaaki/git/sw_xSSDAC/module_operation_console/src/display_control.xc"
	.byte	0
	.long	73
	.long	78
	.long	.Lxtalabel99
.cc_bottom cc_91
.cc_top cc_92,.Lxtalabel66
	.ascii	"C:/Users/takaaki/git/sw_xSSDAC/module_operation_console/src/display_control.xc"
	.byte	0
	.long	73
	.long	78
	.long	.Lxtalabel66
.cc_bottom cc_92
.cc_top cc_93,.Lxtalabel95
	.ascii	"C:/Users/takaaki/git/sw_xSSDAC/module_operation_console/src/display_control.xc"
	.byte	0
	.long	73
	.long	78
	.long	.Lxtalabel95
.cc_bottom cc_93
.cc_top cc_94,.Lxtalabel70
	.ascii	"C:/Users/takaaki/git/sw_xSSDAC/module_operation_console/src/display_control.xc"
	.byte	0
	.long	73
	.long	78
	.long	.Lxtalabel70
.cc_bottom cc_94
.cc_top cc_95,.Lxtalabel97
	.ascii	"C:/Users/takaaki/git/sw_xSSDAC/module_operation_console/src/display_control.xc"
	.byte	0
	.long	73
	.long	78
	.long	.Lxtalabel97
.cc_bottom cc_95
.cc_top cc_96,.Lxtalabel68
	.ascii	"C:/Users/takaaki/git/sw_xSSDAC/module_operation_console/src/display_control.xc"
	.byte	0
	.long	73
	.long	78
	.long	.Lxtalabel68
.cc_bottom cc_96
.cc_top cc_97,.Lxtalabel60
	.ascii	"C:/Users/takaaki/git/sw_xSSDAC/module_operation_console/src/display_control.xc"
	.byte	0
	.long	73
	.long	78
	.long	.Lxtalabel60
.cc_bottom cc_97
.cc_top cc_98,.Lxtalabel101
	.ascii	"C:/Users/takaaki/git/sw_xSSDAC/module_operation_console/src/display_control.xc"
	.byte	0
	.long	73
	.long	78
	.long	.Lxtalabel101
.cc_bottom cc_98
.cc_top cc_99,.Lxtalabel93
	.ascii	"C:/Users/takaaki/git/sw_xSSDAC/module_operation_console/src/display_control.xc"
	.byte	0
	.long	73
	.long	78
	.long	.Lxtalabel93
.cc_bottom cc_99
.cc_top cc_100,.Lxtalabel7
	.ascii	"C:/Users/takaaki/git/sw_xSSDAC/module_operation_console/src/display_control.xc"
	.byte	0
	.long	73
	.long	78
	.long	.Lxtalabel7
.cc_bottom cc_100
.cc_top cc_101,.Lxtalabel92
	.ascii	"C:/Users/takaaki/git/sw_xSSDAC/module_operation_console/src/display_control.xc"
	.byte	0
	.long	73
	.long	78
	.long	.Lxtalabel92
.cc_bottom cc_101
.cc_top cc_102,.Lxtalabel72
	.ascii	"C:/Users/takaaki/git/sw_xSSDAC/module_operation_console/src/display_control.xc"
	.byte	0
	.long	73
	.long	78
	.long	.Lxtalabel72
.cc_bottom cc_102
.cc_top cc_103,.Lxtalabel62
	.ascii	"C:/Users/takaaki/git/sw_xSSDAC/module_operation_console/src/display_control.xc"
	.byte	0
	.long	73
	.long	78
	.long	.Lxtalabel62
.cc_bottom cc_103
.cc_top cc_104,.Lxtalabel91
	.ascii	"C:/Users/takaaki/git/sw_xSSDAC/module_operation_console/src/display_control.xc"
	.byte	0
	.long	73
	.long	78
	.long	.Lxtalabel91
.cc_bottom cc_104
.cc_top cc_105,.Lxtalabel103
	.ascii	"C:/Users/takaaki/git/sw_xSSDAC/module_operation_console/src/display_control.xc"
	.byte	0
	.long	73
	.long	78
	.long	.Lxtalabel103
.cc_bottom cc_105
.cc_top cc_106,.Lxtalabel47
	.ascii	"C:/Users/takaaki/git/sw_xSSDAC/module_operation_console/src/display_control.xc"
	.byte	0
	.long	73
	.long	78
	.long	.Lxtalabel47
.cc_bottom cc_106
.cc_top cc_107,.Lxtalabel64
	.ascii	"C:/Users/takaaki/git/sw_xSSDAC/module_operation_console/src/display_control.xc"
	.byte	0
	.long	73
	.long	78
	.long	.Lxtalabel64
.cc_bottom cc_107
.cc_top cc_108,.Lxtalabel125
	.ascii	"C:/Users/takaaki/git/sw_xSSDAC/module_operation_console/src/display_control.xc"
	.byte	0
	.long	81
	.long	86
	.long	.Lxtalabel125
.cc_bottom cc_108
.cc_top cc_109,.Lxtalabel63
	.ascii	"C:/Users/takaaki/git/sw_xSSDAC/module_operation_console/src/display_control.xc"
	.byte	0
	.long	81
	.long	86
	.long	.Lxtalabel63
.cc_bottom cc_109
.cc_top cc_110,.Lxtalabel98
	.ascii	"C:/Users/takaaki/git/sw_xSSDAC/module_operation_console/src/display_control.xc"
	.byte	0
	.long	81
	.long	86
	.long	.Lxtalabel98
.cc_bottom cc_110
.cc_top cc_111,.Lxtalabel67
	.ascii	"C:/Users/takaaki/git/sw_xSSDAC/module_operation_console/src/display_control.xc"
	.byte	0
	.long	81
	.long	86
	.long	.Lxtalabel67
.cc_bottom cc_111
.cc_top cc_112,.Lxtalabel73
	.ascii	"C:/Users/takaaki/git/sw_xSSDAC/module_operation_console/src/display_control.xc"
	.byte	0
	.long	81
	.long	86
	.long	.Lxtalabel73
.cc_bottom cc_112
.cc_top cc_113,.Lxtalabel102
	.ascii	"C:/Users/takaaki/git/sw_xSSDAC/module_operation_console/src/display_control.xc"
	.byte	0
	.long	81
	.long	86
	.long	.Lxtalabel102
.cc_bottom cc_113
.cc_top cc_114,.Lxtalabel123
	.ascii	"C:/Users/takaaki/git/sw_xSSDAC/module_operation_console/src/display_control.xc"
	.byte	0
	.long	81
	.long	86
	.long	.Lxtalabel123
.cc_bottom cc_114
.cc_top cc_115,.Lxtalabel8
	.ascii	"C:/Users/takaaki/git/sw_xSSDAC/module_operation_console/src/display_control.xc"
	.byte	0
	.long	81
	.long	86
	.long	.Lxtalabel8
.cc_bottom cc_115
.cc_top cc_116,.Lxtalabel48
	.ascii	"C:/Users/takaaki/git/sw_xSSDAC/module_operation_console/src/display_control.xc"
	.byte	0
	.long	81
	.long	86
	.long	.Lxtalabel48
.cc_bottom cc_116
.cc_top cc_117,.Lxtalabel104
	.ascii	"C:/Users/takaaki/git/sw_xSSDAC/module_operation_console/src/display_control.xc"
	.byte	0
	.long	81
	.long	86
	.long	.Lxtalabel104
.cc_bottom cc_117
.cc_top cc_118,.Lxtalabel61
	.ascii	"C:/Users/takaaki/git/sw_xSSDAC/module_operation_console/src/display_control.xc"
	.byte	0
	.long	81
	.long	86
	.long	.Lxtalabel61
.cc_bottom cc_118
.cc_top cc_119,.Lxtalabel88
	.ascii	"C:/Users/takaaki/git/sw_xSSDAC/module_operation_console/src/display_control.xc"
	.byte	0
	.long	81
	.long	86
	.long	.Lxtalabel88
.cc_bottom cc_119
.cc_top cc_120,.Lxtalabel118
	.ascii	"C:/Users/takaaki/git/sw_xSSDAC/module_operation_console/src/display_control.xc"
	.byte	0
	.long	81
	.long	86
	.long	.Lxtalabel118
.cc_bottom cc_120
.cc_top cc_121,.Lxtalabel59
	.ascii	"C:/Users/takaaki/git/sw_xSSDAC/module_operation_console/src/display_control.xc"
	.byte	0
	.long	81
	.long	86
	.long	.Lxtalabel59
.cc_bottom cc_121
.cc_top cc_122,.Lxtalabel69
	.ascii	"C:/Users/takaaki/git/sw_xSSDAC/module_operation_console/src/display_control.xc"
	.byte	0
	.long	81
	.long	86
	.long	.Lxtalabel69
.cc_bottom cc_122
.cc_top cc_123,.Lxtalabel96
	.ascii	"C:/Users/takaaki/git/sw_xSSDAC/module_operation_console/src/display_control.xc"
	.byte	0
	.long	81
	.long	86
	.long	.Lxtalabel96
.cc_bottom cc_123
.cc_top cc_124,.Lxtalabel94
	.ascii	"C:/Users/takaaki/git/sw_xSSDAC/module_operation_console/src/display_control.xc"
	.byte	0
	.long	81
	.long	86
	.long	.Lxtalabel94
.cc_bottom cc_124
.cc_top cc_125,.Lxtalabel71
	.ascii	"C:/Users/takaaki/git/sw_xSSDAC/module_operation_console/src/display_control.xc"
	.byte	0
	.long	81
	.long	86
	.long	.Lxtalabel71
.cc_bottom cc_125
.cc_top cc_126,.Lxtalabel106
	.ascii	"C:/Users/takaaki/git/sw_xSSDAC/module_operation_console/src/display_control.xc"
	.byte	0
	.long	81
	.long	86
	.long	.Lxtalabel106
.cc_bottom cc_126
.cc_top cc_127,.Lxtalabel75
	.ascii	"C:/Users/takaaki/git/sw_xSSDAC/module_operation_console/src/display_control.xc"
	.byte	0
	.long	81
	.long	86
	.long	.Lxtalabel75
.cc_bottom cc_127
.cc_top cc_128,.Lxtalabel100
	.ascii	"C:/Users/takaaki/git/sw_xSSDAC/module_operation_console/src/display_control.xc"
	.byte	0
	.long	81
	.long	86
	.long	.Lxtalabel100
.cc_bottom cc_128
.cc_top cc_129,.Lxtalabel65
	.ascii	"C:/Users/takaaki/git/sw_xSSDAC/module_operation_console/src/display_control.xc"
	.byte	0
	.long	81
	.long	86
	.long	.Lxtalabel65
.cc_bottom cc_129
.cc_top cc_130,.Lxtalabel49
	.ascii	"C:/Users/takaaki/git/sw_xSSDAC/module_operation_console/src/display_control.xc"
	.byte	0
	.long	81
	.long	86
	.long	.Lxtalabel49
.cc_bottom cc_130
.cc_top cc_131,.Lxtalabel89
	.ascii	"C:/Users/takaaki/git/sw_xSSDAC/module_operation_console/src/display_control.xc"
	.byte	0
	.long	91
	.long	96
	.long	.Lxtalabel89
.cc_bottom cc_131
.cc_top cc_132,.Lxtalabel57
	.ascii	"C:/Users/takaaki/git/sw_xSSDAC/module_operation_console/src/display_control.xc"
	.byte	0
	.long	91
	.long	96
	.long	.Lxtalabel57
.cc_bottom cc_132
.cc_top cc_133,.Lxtalabel122
	.ascii	"C:/Users/takaaki/git/sw_xSSDAC/module_operation_console/src/display_control.xc"
	.byte	0
	.long	91
	.long	96
	.long	.Lxtalabel122
.cc_bottom cc_133
.cc_top cc_134,.Lxtalabel56
	.ascii	"C:/Users/takaaki/git/sw_xSSDAC/module_operation_console/src/display_control.xc"
	.byte	0
	.long	91
	.long	96
	.long	.Lxtalabel56
.cc_bottom cc_134
.cc_top cc_135,.Lxtalabel118
	.ascii	"C:/Users/takaaki/git/sw_xSSDAC/module_operation_console/src/display_control.xc"
	.byte	0
	.long	91
	.long	96
	.long	.Lxtalabel118
.cc_bottom cc_135
.cc_top cc_136,.Lxtalabel88
	.ascii	"C:/Users/takaaki/git/sw_xSSDAC/module_operation_console/src/display_control.xc"
	.byte	0
	.long	91
	.long	96
	.long	.Lxtalabel88
.cc_bottom cc_136
.cc_top cc_137,.Lxtalabel4
	.ascii	"C:/Users/takaaki/git/sw_xSSDAC/module_operation_console/src/display_control.xc"
	.byte	0
	.long	91
	.long	96
	.long	.Lxtalabel4
.cc_bottom cc_137
.cc_top cc_138,.Lxtalabel48
	.ascii	"C:/Users/takaaki/git/sw_xSSDAC/module_operation_console/src/display_control.xc"
	.byte	0
	.long	91
	.long	96
	.long	.Lxtalabel48
.cc_bottom cc_138
.cc_top cc_139,.Lxtalabel54
	.ascii	"C:/Users/takaaki/git/sw_xSSDAC/module_operation_console/src/display_control.xc"
	.byte	0
	.long	91
	.long	96
	.long	.Lxtalabel54
.cc_bottom cc_139
.cc_top cc_140,.Lxtalabel55
	.ascii	"C:/Users/takaaki/git/sw_xSSDAC/module_operation_console/src/display_control.xc"
	.byte	0
	.long	91
	.long	96
	.long	.Lxtalabel55
.cc_bottom cc_140
.cc_top cc_141,.Lxtalabel49
	.ascii	"C:/Users/takaaki/git/sw_xSSDAC/module_operation_console/src/display_control.xc"
	.byte	0
	.long	91
	.long	96
	.long	.Lxtalabel49
.cc_bottom cc_141
.cc_top cc_142,.Lxtalabel90
	.ascii	"C:/Users/takaaki/git/sw_xSSDAC/module_operation_console/src/display_control.xc"
	.byte	0
	.long	91
	.long	96
	.long	.Lxtalabel90
.cc_bottom cc_142
.cc_top cc_143,.Lxtalabel5
	.ascii	"C:/Users/takaaki/git/sw_xSSDAC/module_operation_console/src/display_control.xc"
	.byte	0
	.long	99
	.long	104
	.long	.Lxtalabel5
.cc_bottom cc_143
.cc_top cc_144,.Lxtalabel6
	.ascii	"C:/Users/takaaki/git/sw_xSSDAC/module_operation_console/src/display_control.xc"
	.byte	0
	.long	99
	.long	104
	.long	.Lxtalabel6
.cc_bottom cc_144
.cc_top cc_145,.Lxtalabel1
	.ascii	"C:/Users/takaaki/git/sw_xSSDAC/module_operation_console/src/display_control.xc"
	.byte	0
	.long	112
	.long	117
	.long	.Lxtalabel1
.cc_bottom cc_145
.cc_top cc_146,.Lxtalabel2
	.ascii	"C:/Users/takaaki/git/sw_xSSDAC/module_operation_console/src/display_control.xc"
	.byte	0
	.long	121
	.long	127
	.long	.Lxtalabel2
.cc_bottom cc_146
.cc_top cc_147,.Lxtalabel9
	.ascii	"C:/Users/takaaki/git/sw_xSSDAC/module_operation_console/src/display_control.xc"
	.byte	0
	.long	130
	.long	138
	.long	.Lxtalabel9
.cc_bottom cc_147
.cc_top cc_148,.Lxtalabel10
	.ascii	"C:/Users/takaaki/git/sw_xSSDAC/module_operation_console/src/display_control.xc"
	.byte	0
	.long	130
	.long	138
	.long	.Lxtalabel10
.cc_bottom cc_148
.cc_top cc_149,.Lxtalabel11
	.ascii	"C:/Users/takaaki/git/sw_xSSDAC/module_operation_console/src/display_control.xc"
	.byte	0
	.long	141
	.long	145
	.long	.Lxtalabel11
.cc_bottom cc_149
.cc_top cc_150,.Lxtalabel13
	.ascii	"C:/Users/takaaki/git/sw_xSSDAC/module_operation_console/src/display_control.xc"
	.byte	0
	.long	151
	.long	156
	.long	.Lxtalabel13
.cc_bottom cc_150
.cc_top cc_151,.Lxtalabel50
	.ascii	"C:/Users/takaaki/git/sw_xSSDAC/module_operation_console/src/display_control.xc"
	.byte	0
	.long	151
	.long	156
	.long	.Lxtalabel50
.cc_bottom cc_151
.cc_top cc_152,.Lxtalabel124
	.ascii	"C:/Users/takaaki/git/sw_xSSDAC/module_operation_console/src/display_control.xc"
	.byte	0
	.long	151
	.long	156
	.long	.Lxtalabel124
.cc_bottom cc_152
.cc_top cc_153,.Lxtalabel12
	.ascii	"C:/Users/takaaki/git/sw_xSSDAC/module_operation_console/src/display_control.xc"
	.byte	0
	.long	151
	.long	156
	.long	.Lxtalabel12
.cc_bottom cc_153
.cc_top cc_154,.Lxtalabel96
	.ascii	"C:/Users/takaaki/git/sw_xSSDAC/module_operation_console/src/display_control.xc"
	.byte	0
	.long	151
	.long	156
	.long	.Lxtalabel96
.cc_bottom cc_154
.cc_top cc_155,.Lxtalabel65
	.ascii	"C:/Users/takaaki/git/sw_xSSDAC/module_operation_console/src/display_control.xc"
	.byte	0
	.long	151
	.long	156
	.long	.Lxtalabel65
.cc_bottom cc_155
.cc_top cc_156,.Lxtalabel14
	.ascii	"C:/Users/takaaki/git/sw_xSSDAC/module_operation_console/src/display_control.xc"
	.byte	0
	.long	159
	.long	162
	.long	.Lxtalabel14
.cc_bottom cc_156
.cc_top cc_157,.Lxtalabel59
	.ascii	"C:/Users/takaaki/git/sw_xSSDAC/module_operation_console/src/display_control.xc"
	.byte	0
	.long	159
	.long	162
	.long	.Lxtalabel59
.cc_bottom cc_157
.cc_top cc_158,.Lxtalabel15
	.ascii	"C:/Users/takaaki/git/sw_xSSDAC/module_operation_console/src/display_control.xc"
	.byte	0
	.long	159
	.long	162
	.long	.Lxtalabel15
.cc_bottom cc_158
.cc_top cc_159,.Lxtalabel123
	.ascii	"C:/Users/takaaki/git/sw_xSSDAC/module_operation_console/src/display_control.xc"
	.byte	0
	.long	159
	.long	162
	.long	.Lxtalabel123
.cc_bottom cc_159
.cc_top cc_160,.Lxtalabel124
	.ascii	"C:/Users/takaaki/git/sw_xSSDAC/module_operation_console/src/display_control.xc"
	.byte	0
	.long	159
	.long	162
	.long	.Lxtalabel124
.cc_bottom cc_160
.cc_top cc_161,.Lxtalabel50
	.ascii	"C:/Users/takaaki/git/sw_xSSDAC/module_operation_console/src/display_control.xc"
	.byte	0
	.long	159
	.long	162
	.long	.Lxtalabel50
.cc_bottom cc_161
.cc_top cc_162,.Lxtalabel123
	.ascii	"C:/Users/takaaki/git/sw_xSSDAC/module_operation_console/src/display_control.xc"
	.byte	0
	.long	164
	.long	165
	.long	.Lxtalabel123
.cc_bottom cc_162
.cc_top cc_163,.Lxtalabel59
	.ascii	"C:/Users/takaaki/git/sw_xSSDAC/module_operation_console/src/display_control.xc"
	.byte	0
	.long	164
	.long	165
	.long	.Lxtalabel59
.cc_bottom cc_163
.cc_top cc_164,.Lxtalabel14
	.ascii	"C:/Users/takaaki/git/sw_xSSDAC/module_operation_console/src/display_control.xc"
	.byte	0
	.long	164
	.long	165
	.long	.Lxtalabel14
.cc_bottom cc_164
.cc_top cc_165,.Lxtalabel15
	.ascii	"C:/Users/takaaki/git/sw_xSSDAC/module_operation_console/src/display_control.xc"
	.byte	0
	.long	164
	.long	165
	.long	.Lxtalabel15
.cc_bottom cc_165
.cc_top cc_166,.Lxtalabel50
	.ascii	"C:/Users/takaaki/git/sw_xSSDAC/module_operation_console/src/display_control.xc"
	.byte	0
	.long	164
	.long	165
	.long	.Lxtalabel50
.cc_bottom cc_166
.cc_top cc_167,.Lxtalabel124
	.ascii	"C:/Users/takaaki/git/sw_xSSDAC/module_operation_console/src/display_control.xc"
	.byte	0
	.long	164
	.long	165
	.long	.Lxtalabel124
.cc_bottom cc_167
.cc_top cc_168,.Lxtalabel124
	.ascii	"C:/Users/takaaki/git/sw_xSSDAC/module_operation_console/src/display_control.xc"
	.byte	0
	.long	168
	.long	171
	.long	.Lxtalabel124
.cc_bottom cc_168
.cc_top cc_169,.Lxtalabel16
	.ascii	"C:/Users/takaaki/git/sw_xSSDAC/module_operation_console/src/display_control.xc"
	.byte	0
	.long	168
	.long	171
	.long	.Lxtalabel16
.cc_bottom cc_169
.cc_top cc_170,.Lxtalabel17
	.ascii	"C:/Users/takaaki/git/sw_xSSDAC/module_operation_console/src/display_control.xc"
	.byte	0
	.long	168
	.long	171
	.long	.Lxtalabel17
.cc_bottom cc_170
.cc_top cc_171,.Lxtalabel61
	.ascii	"C:/Users/takaaki/git/sw_xSSDAC/module_operation_console/src/display_control.xc"
	.byte	0
	.long	168
	.long	171
	.long	.Lxtalabel61
.cc_bottom cc_171
.cc_top cc_172,.Lxtalabel50
	.ascii	"C:/Users/takaaki/git/sw_xSSDAC/module_operation_console/src/display_control.xc"
	.byte	0
	.long	168
	.long	171
	.long	.Lxtalabel50
.cc_bottom cc_172
.cc_top cc_173,.Lxtalabel125
	.ascii	"C:/Users/takaaki/git/sw_xSSDAC/module_operation_console/src/display_control.xc"
	.byte	0
	.long	168
	.long	171
	.long	.Lxtalabel125
.cc_bottom cc_173
.cc_top cc_174,.Lxtalabel16
	.ascii	"C:/Users/takaaki/git/sw_xSSDAC/module_operation_console/src/display_control.xc"
	.byte	0
	.long	173
	.long	174
	.long	.Lxtalabel16
.cc_bottom cc_174
.cc_top cc_175,.Lxtalabel124
	.ascii	"C:/Users/takaaki/git/sw_xSSDAC/module_operation_console/src/display_control.xc"
	.byte	0
	.long	173
	.long	174
	.long	.Lxtalabel124
.cc_bottom cc_175
.cc_top cc_176,.Lxtalabel61
	.ascii	"C:/Users/takaaki/git/sw_xSSDAC/module_operation_console/src/display_control.xc"
	.byte	0
	.long	173
	.long	174
	.long	.Lxtalabel61
.cc_bottom cc_176
.cc_top cc_177,.Lxtalabel125
	.ascii	"C:/Users/takaaki/git/sw_xSSDAC/module_operation_console/src/display_control.xc"
	.byte	0
	.long	173
	.long	174
	.long	.Lxtalabel125
.cc_bottom cc_177
.cc_top cc_178,.Lxtalabel17
	.ascii	"C:/Users/takaaki/git/sw_xSSDAC/module_operation_console/src/display_control.xc"
	.byte	0
	.long	173
	.long	174
	.long	.Lxtalabel17
.cc_bottom cc_178
.cc_top cc_179,.Lxtalabel50
	.ascii	"C:/Users/takaaki/git/sw_xSSDAC/module_operation_console/src/display_control.xc"
	.byte	0
	.long	173
	.long	174
	.long	.Lxtalabel50
.cc_bottom cc_179
.cc_top cc_180,.Lxtalabel19
	.ascii	"C:/Users/takaaki/git/sw_xSSDAC/module_operation_console/src/display_control.xc"
	.byte	0
	.long	177
	.long	181
	.long	.Lxtalabel19
.cc_bottom cc_180
.cc_top cc_181,.Lxtalabel94
	.ascii	"C:/Users/takaaki/git/sw_xSSDAC/module_operation_console/src/display_control.xc"
	.byte	0
	.long	177
	.long	181
	.long	.Lxtalabel94
.cc_bottom cc_181
.cc_top cc_182,.Lxtalabel124
	.ascii	"C:/Users/takaaki/git/sw_xSSDAC/module_operation_console/src/display_control.xc"
	.byte	0
	.long	177
	.long	181
	.long	.Lxtalabel124
.cc_bottom cc_182
.cc_top cc_183,.Lxtalabel50
	.ascii	"C:/Users/takaaki/git/sw_xSSDAC/module_operation_console/src/display_control.xc"
	.byte	0
	.long	177
	.long	181
	.long	.Lxtalabel50
.cc_bottom cc_183
.cc_top cc_184,.Lxtalabel63
	.ascii	"C:/Users/takaaki/git/sw_xSSDAC/module_operation_console/src/display_control.xc"
	.byte	0
	.long	177
	.long	181
	.long	.Lxtalabel63
.cc_bottom cc_184
.cc_top cc_185,.Lxtalabel18
	.ascii	"C:/Users/takaaki/git/sw_xSSDAC/module_operation_console/src/display_control.xc"
	.byte	0
	.long	177
	.long	181
	.long	.Lxtalabel18
.cc_bottom cc_185
.cc_top cc_186,.Lxtalabel20
	.ascii	"C:/Users/takaaki/git/sw_xSSDAC/module_operation_console/src/display_control.xc"
	.byte	0
	.long	187
	.long	191
	.long	.Lxtalabel20
.cc_bottom cc_186
.cc_top cc_187,.Lxtalabel69
	.ascii	"C:/Users/takaaki/git/sw_xSSDAC/module_operation_console/src/display_control.xc"
	.byte	0
	.long	187
	.long	191
	.long	.Lxtalabel69
.cc_bottom cc_187
.cc_top cc_188,.Lxtalabel100
	.ascii	"C:/Users/takaaki/git/sw_xSSDAC/module_operation_console/src/display_control.xc"
	.byte	0
	.long	187
	.long	191
	.long	.Lxtalabel100
.cc_bottom cc_188
.cc_top cc_189,.Lxtalabel71
	.ascii	"C:/Users/takaaki/git/sw_xSSDAC/module_operation_console/src/display_control.xc"
	.byte	0
	.long	196
	.long	200
	.long	.Lxtalabel71
.cc_bottom cc_189
.cc_top cc_190,.Lxtalabel21
	.ascii	"C:/Users/takaaki/git/sw_xSSDAC/module_operation_console/src/display_control.xc"
	.byte	0
	.long	196
	.long	200
	.long	.Lxtalabel21
.cc_bottom cc_190
.cc_top cc_191,.Lxtalabel120
	.ascii	"C:/Users/takaaki/git/sw_xSSDAC/module_operation_console/src/display_control.xc"
	.byte	0
	.long	196
	.long	200
	.long	.Lxtalabel120
.cc_bottom cc_191
.cc_top cc_192,.Lxtalabel52
	.ascii	"C:/Users/takaaki/git/sw_xSSDAC/module_operation_console/src/display_control.xc"
	.byte	0
	.long	196
	.long	200
	.long	.Lxtalabel52
.cc_bottom cc_192
.cc_top cc_193,.Lxtalabel102
	.ascii	"C:/Users/takaaki/git/sw_xSSDAC/module_operation_console/src/display_control.xc"
	.byte	0
	.long	196
	.long	200
	.long	.Lxtalabel102
.cc_bottom cc_193
.cc_top cc_194,.Lxtalabel22
	.ascii	"C:/Users/takaaki/git/sw_xSSDAC/module_operation_console/src/display_control.xc"
	.byte	0
	.long	204
	.long	205
	.long	.Lxtalabel22
.cc_bottom cc_194
.cc_top cc_195,.Lxtalabel25
	.ascii	"C:/Users/takaaki/git/sw_xSSDAC/module_operation_console/src/display_control.xc"
	.byte	0
	.long	204
	.long	205
	.long	.Lxtalabel25
.cc_bottom cc_195
.cc_top cc_196,.Lxtalabel32
	.ascii	"C:/Users/takaaki/git/sw_xSSDAC/module_operation_console/src/display_control.xc"
	.byte	0
	.long	204
	.long	205
	.long	.Lxtalabel32
.cc_bottom cc_196
.cc_top cc_197,.Lxtalabel35
	.ascii	"C:/Users/takaaki/git/sw_xSSDAC/module_operation_console/src/display_control.xc"
	.byte	0
	.long	204
	.long	205
	.long	.Lxtalabel35
.cc_bottom cc_197
.cc_top cc_198,.Lxtalabel26
	.ascii	"C:/Users/takaaki/git/sw_xSSDAC/module_operation_console/src/display_control.xc"
	.byte	0
	.long	206
	.long	208
	.long	.Lxtalabel26
.cc_bottom cc_198
.cc_top cc_199,.Lxtalabel36
	.ascii	"C:/Users/takaaki/git/sw_xSSDAC/module_operation_console/src/display_control.xc"
	.byte	0
	.long	206
	.long	208
	.long	.Lxtalabel36
.cc_bottom cc_199
.cc_top cc_200,.Lxtalabel37
	.ascii	"C:/Users/takaaki/git/sw_xSSDAC/module_operation_console/src/display_control.xc"
	.byte	0
	.long	209
	.long	211
	.long	.Lxtalabel37
.cc_bottom cc_200
.cc_top cc_201,.Lxtalabel27
	.ascii	"C:/Users/takaaki/git/sw_xSSDAC/module_operation_console/src/display_control.xc"
	.byte	0
	.long	209
	.long	211
	.long	.Lxtalabel27
.cc_bottom cc_201
.cc_top cc_202,.Lxtalabel38
	.ascii	"C:/Users/takaaki/git/sw_xSSDAC/module_operation_console/src/display_control.xc"
	.byte	0
	.long	212
	.long	214
	.long	.Lxtalabel38
.cc_bottom cc_202
.cc_top cc_203,.Lxtalabel28
	.ascii	"C:/Users/takaaki/git/sw_xSSDAC/module_operation_console/src/display_control.xc"
	.byte	0
	.long	212
	.long	214
	.long	.Lxtalabel28
.cc_bottom cc_203
.cc_top cc_204,.Lxtalabel29
	.ascii	"C:/Users/takaaki/git/sw_xSSDAC/module_operation_console/src/display_control.xc"
	.byte	0
	.long	215
	.long	217
	.long	.Lxtalabel29
.cc_bottom cc_204
.cc_top cc_205,.Lxtalabel39
	.ascii	"C:/Users/takaaki/git/sw_xSSDAC/module_operation_console/src/display_control.xc"
	.byte	0
	.long	215
	.long	217
	.long	.Lxtalabel39
.cc_bottom cc_205
.cc_top cc_206,.Lxtalabel30
	.ascii	"C:/Users/takaaki/git/sw_xSSDAC/module_operation_console/src/display_control.xc"
	.byte	0
	.long	218
	.long	220
	.long	.Lxtalabel30
.cc_bottom cc_206
.cc_top cc_207,.Lxtalabel40
	.ascii	"C:/Users/takaaki/git/sw_xSSDAC/module_operation_console/src/display_control.xc"
	.byte	0
	.long	218
	.long	220
	.long	.Lxtalabel40
.cc_bottom cc_207
.cc_top cc_208,.Lxtalabel31
	.ascii	"C:/Users/takaaki/git/sw_xSSDAC/module_operation_console/src/display_control.xc"
	.byte	0
	.long	221
	.long	223
	.long	.Lxtalabel31
.cc_bottom cc_208
.cc_top cc_209,.Lxtalabel41
	.ascii	"C:/Users/takaaki/git/sw_xSSDAC/module_operation_console/src/display_control.xc"
	.byte	0
	.long	221
	.long	223
	.long	.Lxtalabel41
.cc_bottom cc_209
.cc_top cc_210,.Lxtalabel23
	.ascii	"C:/Users/takaaki/git/sw_xSSDAC/module_operation_console/src/display_control.xc"
	.byte	0
	.long	224
	.long	226
	.long	.Lxtalabel23
.cc_bottom cc_210
.cc_top cc_211,.Lxtalabel33
	.ascii	"C:/Users/takaaki/git/sw_xSSDAC/module_operation_console/src/display_control.xc"
	.byte	0
	.long	224
	.long	226
	.long	.Lxtalabel33
.cc_bottom cc_211
.cc_top cc_212,.Lxtalabel24
	.ascii	"C:/Users/takaaki/git/sw_xSSDAC/module_operation_console/src/display_control.xc"
	.byte	0
	.long	227
	.long	227
	.long	.Lxtalabel24
.cc_bottom cc_212
.cc_top cc_213,.Lxtalabel34
	.ascii	"C:/Users/takaaki/git/sw_xSSDAC/module_operation_console/src/display_control.xc"
	.byte	0
	.long	227
	.long	227
	.long	.Lxtalabel34
.cc_bottom cc_213
.cc_top cc_214,.Lxtalabel106
	.ascii	"C:/Users/takaaki/git/sw_xSSDAC/module_operation_console/src/display_control.xc"
	.byte	0
	.long	232
	.long	236
	.long	.Lxtalabel106
.cc_bottom cc_214
.cc_top cc_215,.Lxtalabel77
	.ascii	"C:/Users/takaaki/git/sw_xSSDAC/module_operation_console/src/display_control.xc"
	.byte	0
	.long	232
	.long	236
	.long	.Lxtalabel77
.cc_bottom cc_215
.cc_top cc_216,.Lxtalabel108
	.ascii	"C:/Users/takaaki/git/sw_xSSDAC/module_operation_console/src/display_control.xc"
	.byte	0
	.long	232
	.long	236
	.long	.Lxtalabel108
.cc_bottom cc_216
.cc_top cc_217,.Lxtalabel73
	.ascii	"C:/Users/takaaki/git/sw_xSSDAC/module_operation_console/src/display_control.xc"
	.byte	0
	.long	232
	.long	236
	.long	.Lxtalabel73
.cc_bottom cc_217
.cc_top cc_218,.Lxtalabel75
	.ascii	"C:/Users/takaaki/git/sw_xSSDAC/module_operation_console/src/display_control.xc"
	.byte	0
	.long	232
	.long	236
	.long	.Lxtalabel75
.cc_bottom cc_218
.cc_top cc_219,.Lxtalabel104
	.ascii	"C:/Users/takaaki/git/sw_xSSDAC/module_operation_console/src/display_control.xc"
	.byte	0
	.long	232
	.long	236
	.long	.Lxtalabel104
.cc_bottom cc_219
.cc_top cc_220,.Lxtalabel42
	.ascii	"C:/Users/takaaki/git/sw_xSSDAC/module_operation_console/src/display_control.xc"
	.byte	0
	.long	232
	.long	236
	.long	.Lxtalabel42
.cc_bottom cc_220
.cc_top cc_221,.Lxtalabel106
	.ascii	"C:/Users/takaaki/git/sw_xSSDAC/module_operation_console/src/display_control.xc"
	.byte	0
	.long	239
	.long	240
	.long	.Lxtalabel106
.cc_bottom cc_221
.cc_top cc_222,.Lxtalabel43
	.ascii	"C:/Users/takaaki/git/sw_xSSDAC/module_operation_console/src/display_control.xc"
	.byte	0
	.long	239
	.long	240
	.long	.Lxtalabel43
.cc_bottom cc_222
.cc_top cc_223,.Lxtalabel73
	.ascii	"C:/Users/takaaki/git/sw_xSSDAC/module_operation_console/src/display_control.xc"
	.byte	0
	.long	239
	.long	240
	.long	.Lxtalabel73
.cc_bottom cc_223
.cc_top cc_224,.Lxtalabel75
	.ascii	"C:/Users/takaaki/git/sw_xSSDAC/module_operation_console/src/display_control.xc"
	.byte	0
	.long	239
	.long	240
	.long	.Lxtalabel75
.cc_bottom cc_224
.cc_top cc_225,.Lxtalabel104
	.ascii	"C:/Users/takaaki/git/sw_xSSDAC/module_operation_console/src/display_control.xc"
	.byte	0
	.long	239
	.long	240
	.long	.Lxtalabel104
.cc_bottom cc_225
.cc_top cc_226,.Lxtalabel45
	.ascii	"C:/Users/takaaki/git/sw_xSSDAC/module_operation_console/src/display_control.xc"
	.byte	0
	.long	239
	.long	240
	.long	.Lxtalabel45
.cc_bottom cc_226
.cc_top cc_227,.Lxtalabel107
	.ascii	"C:/Users/takaaki/git/sw_xSSDAC/module_operation_console/src/display_control.xc"
	.byte	0
	.long	241
	.long	242
	.long	.Lxtalabel107
.cc_bottom cc_227
.cc_top cc_228,.Lxtalabel76
	.ascii	"C:/Users/takaaki/git/sw_xSSDAC/module_operation_console/src/display_control.xc"
	.byte	0
	.long	241
	.long	242
	.long	.Lxtalabel76
.cc_bottom cc_228
.cc_top cc_229,.Lxtalabel46
	.ascii	"C:/Users/takaaki/git/sw_xSSDAC/module_operation_console/src/display_control.xc"
	.byte	0
	.long	241
	.long	242
	.long	.Lxtalabel46
.cc_bottom cc_229
.cc_top cc_230,.Lxtalabel105
	.ascii	"C:/Users/takaaki/git/sw_xSSDAC/module_operation_console/src/display_control.xc"
	.byte	0
	.long	243
	.long	244
	.long	.Lxtalabel105
.cc_bottom cc_230
.cc_top cc_231,.Lxtalabel74
	.ascii	"C:/Users/takaaki/git/sw_xSSDAC/module_operation_console/src/display_control.xc"
	.byte	0
	.long	243
	.long	244
	.long	.Lxtalabel74
.cc_bottom cc_231
.cc_top cc_232,.Lxtalabel44
	.ascii	"C:/Users/takaaki/git/sw_xSSDAC/module_operation_console/src/display_control.xc"
	.byte	0
	.long	243
	.long	244
	.long	.Lxtalabel44
.cc_bottom cc_232
.cc_top cc_233,.Lxtalabel45
	.ascii	"C:/Users/takaaki/git/sw_xSSDAC/module_operation_console/src/display_control.xc"
	.byte	0
	.long	245
	.long	246
	.long	.Lxtalabel45
.cc_bottom cc_233
.cc_top cc_234,.Lxtalabel75
	.ascii	"C:/Users/takaaki/git/sw_xSSDAC/module_operation_console/src/display_control.xc"
	.byte	0
	.long	245
	.long	246
	.long	.Lxtalabel75
.cc_bottom cc_234
.cc_top cc_235,.Lxtalabel73
	.ascii	"C:/Users/takaaki/git/sw_xSSDAC/module_operation_console/src/display_control.xc"
	.byte	0
	.long	245
	.long	246
	.long	.Lxtalabel73
.cc_bottom cc_235
.cc_top cc_236,.Lxtalabel43
	.ascii	"C:/Users/takaaki/git/sw_xSSDAC/module_operation_console/src/display_control.xc"
	.byte	0
	.long	245
	.long	246
	.long	.Lxtalabel43
.cc_bottom cc_236
.cc_top cc_237,.Lxtalabel106
	.ascii	"C:/Users/takaaki/git/sw_xSSDAC/module_operation_console/src/display_control.xc"
	.byte	0
	.long	245
	.long	246
	.long	.Lxtalabel106
.cc_bottom cc_237
.cc_top cc_238,.Lxtalabel104
	.ascii	"C:/Users/takaaki/git/sw_xSSDAC/module_operation_console/src/display_control.xc"
	.byte	0
	.long	245
	.long	246
	.long	.Lxtalabel104
.cc_bottom cc_238
.cc_top cc_239,.Lxtalabel3
	.ascii	"C:/Users/takaaki/git/sw_xSSDAC/module_operation_console/src/display_control.xc"
	.byte	0
	.long	253
	.long	255
	.long	.Lxtalabel3
.cc_bottom cc_239
.cc_top cc_240,.Lxtalabel3
	.ascii	"C:/Users/takaaki/git/sw_xSSDAC/module_operation_console/src/display_control.xc"
	.byte	0
	.long	256
	.long	257
	.long	.Lxtalabel3
.cc_bottom cc_240
.cc_top cc_241,.Lxtalabel3
	.ascii	"C:/Users/takaaki/git/sw_xSSDAC/module_operation_console/src/display_control.xc"
	.byte	0
	.long	256
	.long	257
	.long	.Lxtalabel3
.cc_bottom cc_241
.cc_top cc_242,.Lxtalabel3
	.ascii	"C:/Users/takaaki/git/sw_xSSDAC/module_operation_console/src/display_control.xc"
	.byte	0
	.long	256
	.long	257
	.long	.Lxtalabel3
.cc_bottom cc_242
.cc_top cc_243,.Lxtalabel3
	.ascii	"C:/Users/takaaki/git/sw_xSSDAC/module_operation_console/src/display_control.xc"
	.byte	0
	.long	258
	.long	260
	.long	.Lxtalabel3
.cc_bottom cc_243
.cc_top cc_244,.Lxtalabel3
	.ascii	"C:/Users/takaaki/git/sw_xSSDAC/module_operation_console/src/display_control.xc"
	.byte	0
	.long	262
	.long	262
	.long	.Lxtalabel3
.cc_bottom cc_244
.cc_top cc_245,.Lxtalabel87
	.ascii	"C:/Users/takaaki/git/sw_xSSDAC/module_operation_console/src/display_control.xc"
	.byte	0
	.long	271
	.long	271
	.long	.Lxtalabel87
.cc_bottom cc_245
.cc_top cc_246,.Lxtalabel47
	.ascii	"C:/Users/takaaki/git/sw_xSSDAC/module_operation_console/src/display_control.xc"
	.byte	0
	.long	271
	.long	271
	.long	.Lxtalabel47
.cc_bottom cc_246
.cc_top cc_247,.Lxtalabel49
	.ascii	"C:/Users/takaaki/git/sw_xSSDAC/module_operation_console/src/display_control.xc"
	.byte	0
	.long	272
	.long	272
	.long	.Lxtalabel49
.cc_bottom cc_247
.cc_top cc_248,.Lxtalabel48
	.ascii	"C:/Users/takaaki/git/sw_xSSDAC/module_operation_console/src/display_control.xc"
	.byte	0
	.long	272
	.long	272
	.long	.Lxtalabel48
.cc_bottom cc_248
.cc_top cc_249,.Lxtalabel118
	.ascii	"C:/Users/takaaki/git/sw_xSSDAC/module_operation_console/src/display_control.xc"
	.byte	0
	.long	272
	.long	272
	.long	.Lxtalabel118
.cc_bottom cc_249
.cc_top cc_250,.Lxtalabel88
	.ascii	"C:/Users/takaaki/git/sw_xSSDAC/module_operation_console/src/display_control.xc"
	.byte	0
	.long	272
	.long	272
	.long	.Lxtalabel88
.cc_bottom cc_250
.cc_top cc_251,.Lxtalabel49
	.ascii	"C:/Users/takaaki/git/sw_xSSDAC/module_operation_console/src/display_control.xc"
	.byte	0
	.long	274
	.long	274
	.long	.Lxtalabel49
.cc_bottom cc_251
.cc_top cc_252,.Lxtalabel48
	.ascii	"C:/Users/takaaki/git/sw_xSSDAC/module_operation_console/src/display_control.xc"
	.byte	0
	.long	274
	.long	274
	.long	.Lxtalabel48
.cc_bottom cc_252
.cc_top cc_253,.Lxtalabel88
	.ascii	"C:/Users/takaaki/git/sw_xSSDAC/module_operation_console/src/display_control.xc"
	.byte	0
	.long	274
	.long	274
	.long	.Lxtalabel88
.cc_bottom cc_253
.cc_top cc_254,.Lxtalabel118
	.ascii	"C:/Users/takaaki/git/sw_xSSDAC/module_operation_console/src/display_control.xc"
	.byte	0
	.long	274
	.long	274
	.long	.Lxtalabel118
.cc_bottom cc_254
.cc_top cc_255,.Lxtalabel49
	.ascii	"C:/Users/takaaki/git/sw_xSSDAC/module_operation_console/src/display_control.xc"
	.byte	0
	.long	276
	.long	276
	.long	.Lxtalabel49
.cc_bottom cc_255
.cc_top cc_256,.Lxtalabel48
	.ascii	"C:/Users/takaaki/git/sw_xSSDAC/module_operation_console/src/display_control.xc"
	.byte	0
	.long	276
	.long	276
	.long	.Lxtalabel48
.cc_bottom cc_256
.cc_top cc_257,.Lxtalabel118
	.ascii	"C:/Users/takaaki/git/sw_xSSDAC/module_operation_console/src/display_control.xc"
	.byte	0
	.long	276
	.long	276
	.long	.Lxtalabel118
.cc_bottom cc_257
.cc_top cc_258,.Lxtalabel88
	.ascii	"C:/Users/takaaki/git/sw_xSSDAC/module_operation_console/src/display_control.xc"
	.byte	0
	.long	276
	.long	276
	.long	.Lxtalabel88
.cc_bottom cc_258
.cc_top cc_259,.Lxtalabel50
	.ascii	"C:/Users/takaaki/git/sw_xSSDAC/module_operation_console/src/display_control.xc"
	.byte	0
	.long	277
	.long	281
	.long	.Lxtalabel50
.cc_bottom cc_259
.cc_top cc_260,.Lxtalabel124
	.ascii	"C:/Users/takaaki/git/sw_xSSDAC/module_operation_console/src/display_control.xc"
	.byte	0
	.long	277
	.long	281
	.long	.Lxtalabel124
.cc_bottom cc_260
.cc_top cc_261,.Lxtalabel124
	.ascii	"C:/Users/takaaki/git/sw_xSSDAC/module_operation_console/src/display_control.xc"
	.byte	0
	.long	283
	.long	283
	.long	.Lxtalabel124
.cc_bottom cc_261
.cc_top cc_262,.Lxtalabel50
	.ascii	"C:/Users/takaaki/git/sw_xSSDAC/module_operation_console/src/display_control.xc"
	.byte	0
	.long	283
	.long	283
	.long	.Lxtalabel50
.cc_bottom cc_262
.cc_top cc_263,.Lxtalabel119
	.ascii	"C:/Users/takaaki/git/sw_xSSDAC/module_operation_console/src/display_control.xc"
	.byte	0
	.long	284
	.long	288
	.long	.Lxtalabel119
.cc_bottom cc_263
.cc_top cc_264,.Lxtalabel51
	.ascii	"C:/Users/takaaki/git/sw_xSSDAC/module_operation_console/src/display_control.xc"
	.byte	0
	.long	284
	.long	288
	.long	.Lxtalabel51
.cc_bottom cc_264
.cc_top cc_265,.Lxtalabel119
	.ascii	"C:/Users/takaaki/git/sw_xSSDAC/module_operation_console/src/display_control.xc"
	.byte	0
	.long	290
	.long	290
	.long	.Lxtalabel119
.cc_bottom cc_265
.cc_top cc_266,.Lxtalabel51
	.ascii	"C:/Users/takaaki/git/sw_xSSDAC/module_operation_console/src/display_control.xc"
	.byte	0
	.long	290
	.long	290
	.long	.Lxtalabel51
.cc_bottom cc_266
.cc_top cc_267,.Lxtalabel120
	.ascii	"C:/Users/takaaki/git/sw_xSSDAC/module_operation_console/src/display_control.xc"
	.byte	0
	.long	291
	.long	295
	.long	.Lxtalabel120
.cc_bottom cc_267
.cc_top cc_268,.Lxtalabel52
	.ascii	"C:/Users/takaaki/git/sw_xSSDAC/module_operation_console/src/display_control.xc"
	.byte	0
	.long	291
	.long	295
	.long	.Lxtalabel52
.cc_bottom cc_268
.cc_top cc_269,.Lxtalabel120
	.ascii	"C:/Users/takaaki/git/sw_xSSDAC/module_operation_console/src/display_control.xc"
	.byte	0
	.long	297
	.long	297
	.long	.Lxtalabel120
.cc_bottom cc_269
.cc_top cc_270,.Lxtalabel52
	.ascii	"C:/Users/takaaki/git/sw_xSSDAC/module_operation_console/src/display_control.xc"
	.byte	0
	.long	297
	.long	297
	.long	.Lxtalabel52
.cc_bottom cc_270
.cc_top cc_271,.Lxtalabel121
	.ascii	"C:/Users/takaaki/git/sw_xSSDAC/module_operation_console/src/display_control.xc"
	.byte	0
	.long	298
	.long	303
	.long	.Lxtalabel121
.cc_bottom cc_271
.cc_top cc_272,.Lxtalabel53
	.ascii	"C:/Users/takaaki/git/sw_xSSDAC/module_operation_console/src/display_control.xc"
	.byte	0
	.long	298
	.long	303
	.long	.Lxtalabel53
.cc_bottom cc_272
.cc_top cc_273,.Lxtalabel56
	.ascii	"C:/Users/takaaki/git/sw_xSSDAC/module_operation_console/src/display_control.xc"
	.byte	0
	.long	306
	.long	306
	.long	.Lxtalabel56
.cc_bottom cc_273
.cc_top cc_274,.Lxtalabel89
	.ascii	"C:/Users/takaaki/git/sw_xSSDAC/module_operation_console/src/display_control.xc"
	.byte	0
	.long	306
	.long	306
	.long	.Lxtalabel89
.cc_bottom cc_274
.cc_top cc_275,.Lxtalabel122
	.ascii	"C:/Users/takaaki/git/sw_xSSDAC/module_operation_console/src/display_control.xc"
	.byte	0
	.long	306
	.long	306
	.long	.Lxtalabel122
.cc_bottom cc_275
.cc_top cc_276,.Lxtalabel55
	.ascii	"C:/Users/takaaki/git/sw_xSSDAC/module_operation_console/src/display_control.xc"
	.byte	0
	.long	306
	.long	306
	.long	.Lxtalabel55
.cc_bottom cc_276
.cc_top cc_277,.Lxtalabel90
	.ascii	"C:/Users/takaaki/git/sw_xSSDAC/module_operation_console/src/display_control.xc"
	.byte	0
	.long	306
	.long	306
	.long	.Lxtalabel90
.cc_bottom cc_277
.cc_top cc_278,.Lxtalabel54
	.ascii	"C:/Users/takaaki/git/sw_xSSDAC/module_operation_console/src/display_control.xc"
	.byte	0
	.long	306
	.long	306
	.long	.Lxtalabel54
.cc_bottom cc_278
.cc_top cc_279,.Lxtalabel57
	.ascii	"C:/Users/takaaki/git/sw_xSSDAC/module_operation_console/src/display_control.xc"
	.byte	0
	.long	306
	.long	306
	.long	.Lxtalabel57
.cc_bottom cc_279
.cc_top cc_280,.Lxtalabel90
	.ascii	"C:/Users/takaaki/git/sw_xSSDAC/module_operation_console/src/display_control.xc"
	.byte	0
	.long	308
	.long	308
	.long	.Lxtalabel90
.cc_bottom cc_280
.cc_top cc_281,.Lxtalabel122
	.ascii	"C:/Users/takaaki/git/sw_xSSDAC/module_operation_console/src/display_control.xc"
	.byte	0
	.long	308
	.long	308
	.long	.Lxtalabel122
.cc_bottom cc_281
.cc_top cc_282,.Lxtalabel56
	.ascii	"C:/Users/takaaki/git/sw_xSSDAC/module_operation_console/src/display_control.xc"
	.byte	0
	.long	308
	.long	308
	.long	.Lxtalabel56
.cc_bottom cc_282
.cc_top cc_283,.Lxtalabel54
	.ascii	"C:/Users/takaaki/git/sw_xSSDAC/module_operation_console/src/display_control.xc"
	.byte	0
	.long	308
	.long	308
	.long	.Lxtalabel54
.cc_bottom cc_283
.cc_top cc_284,.Lxtalabel89
	.ascii	"C:/Users/takaaki/git/sw_xSSDAC/module_operation_console/src/display_control.xc"
	.byte	0
	.long	308
	.long	308
	.long	.Lxtalabel89
.cc_bottom cc_284
.cc_top cc_285,.Lxtalabel57
	.ascii	"C:/Users/takaaki/git/sw_xSSDAC/module_operation_console/src/display_control.xc"
	.byte	0
	.long	308
	.long	308
	.long	.Lxtalabel57
.cc_bottom cc_285
.cc_top cc_286,.Lxtalabel55
	.ascii	"C:/Users/takaaki/git/sw_xSSDAC/module_operation_console/src/display_control.xc"
	.byte	0
	.long	308
	.long	308
	.long	.Lxtalabel55
.cc_bottom cc_286
.cc_top cc_287,.Lxtalabel58
	.ascii	"C:/Users/takaaki/git/sw_xSSDAC/module_operation_console/src/display_control.xc"
	.byte	0
	.long	309
	.long	309
	.long	.Lxtalabel58
.cc_bottom cc_287
.cc_top cc_288,.Lxtalabel91
	.ascii	"C:/Users/takaaki/git/sw_xSSDAC/module_operation_console/src/display_control.xc"
	.byte	0
	.long	309
	.long	309
	.long	.Lxtalabel91
.cc_bottom cc_288
.cc_top cc_289,.Lxtalabel123
	.ascii	"C:/Users/takaaki/git/sw_xSSDAC/module_operation_console/src/display_control.xc"
	.byte	0
	.long	310
	.long	312
	.long	.Lxtalabel123
.cc_bottom cc_289
.cc_top cc_290,.Lxtalabel59
	.ascii	"C:/Users/takaaki/git/sw_xSSDAC/module_operation_console/src/display_control.xc"
	.byte	0
	.long	310
	.long	312
	.long	.Lxtalabel59
.cc_bottom cc_290
.cc_top cc_291,.Lxtalabel60
	.ascii	"C:/Users/takaaki/git/sw_xSSDAC/module_operation_console/src/display_control.xc"
	.byte	0
	.long	313
	.long	313
	.long	.Lxtalabel60
.cc_bottom cc_291
.cc_top cc_292,.Lxtalabel92
	.ascii	"C:/Users/takaaki/git/sw_xSSDAC/module_operation_console/src/display_control.xc"
	.byte	0
	.long	313
	.long	313
	.long	.Lxtalabel92
.cc_bottom cc_292
.cc_top cc_293,.Lxtalabel61
	.ascii	"C:/Users/takaaki/git/sw_xSSDAC/module_operation_console/src/display_control.xc"
	.byte	0
	.long	314
	.long	316
	.long	.Lxtalabel61
.cc_bottom cc_293
.cc_top cc_294,.Lxtalabel125
	.ascii	"C:/Users/takaaki/git/sw_xSSDAC/module_operation_console/src/display_control.xc"
	.byte	0
	.long	314
	.long	316
	.long	.Lxtalabel125
.cc_bottom cc_294
.cc_top cc_295,.Lxtalabel62
	.ascii	"C:/Users/takaaki/git/sw_xSSDAC/module_operation_console/src/display_control.xc"
	.byte	0
	.long	317
	.long	317
	.long	.Lxtalabel62
.cc_bottom cc_295
.cc_top cc_296,.Lxtalabel93
	.ascii	"C:/Users/takaaki/git/sw_xSSDAC/module_operation_console/src/display_control.xc"
	.byte	0
	.long	317
	.long	317
	.long	.Lxtalabel93
.cc_bottom cc_296
.cc_top cc_297,.Lxtalabel63
	.ascii	"C:/Users/takaaki/git/sw_xSSDAC/module_operation_console/src/display_control.xc"
	.byte	0
	.long	318
	.long	320
	.long	.Lxtalabel63
.cc_bottom cc_297
.cc_top cc_298,.Lxtalabel94
	.ascii	"C:/Users/takaaki/git/sw_xSSDAC/module_operation_console/src/display_control.xc"
	.byte	0
	.long	318
	.long	320
	.long	.Lxtalabel94
.cc_bottom cc_298
.cc_top cc_299,.Lxtalabel64
	.ascii	"C:/Users/takaaki/git/sw_xSSDAC/module_operation_console/src/display_control.xc"
	.byte	0
	.long	321
	.long	321
	.long	.Lxtalabel64
.cc_bottom cc_299
.cc_top cc_300,.Lxtalabel95
	.ascii	"C:/Users/takaaki/git/sw_xSSDAC/module_operation_console/src/display_control.xc"
	.byte	0
	.long	321
	.long	321
	.long	.Lxtalabel95
.cc_bottom cc_300
.cc_top cc_301,.Lxtalabel96
	.ascii	"C:/Users/takaaki/git/sw_xSSDAC/module_operation_console/src/display_control.xc"
	.byte	0
	.long	322
	.long	324
	.long	.Lxtalabel96
.cc_bottom cc_301
.cc_top cc_302,.Lxtalabel65
	.ascii	"C:/Users/takaaki/git/sw_xSSDAC/module_operation_console/src/display_control.xc"
	.byte	0
	.long	322
	.long	324
	.long	.Lxtalabel65
.cc_bottom cc_302
.cc_top cc_303,.Lxtalabel97
	.ascii	"C:/Users/takaaki/git/sw_xSSDAC/module_operation_console/src/display_control.xc"
	.byte	0
	.long	328
	.long	328
	.long	.Lxtalabel97
.cc_bottom cc_303
.cc_top cc_304,.Lxtalabel66
	.ascii	"C:/Users/takaaki/git/sw_xSSDAC/module_operation_console/src/display_control.xc"
	.byte	0
	.long	328
	.long	328
	.long	.Lxtalabel66
.cc_bottom cc_304
.cc_top cc_305,.Lxtalabel67
	.ascii	"C:/Users/takaaki/git/sw_xSSDAC/module_operation_console/src/display_control.xc"
	.byte	0
	.long	329
	.long	331
	.long	.Lxtalabel67
.cc_bottom cc_305
.cc_top cc_306,.Lxtalabel98
	.ascii	"C:/Users/takaaki/git/sw_xSSDAC/module_operation_console/src/display_control.xc"
	.byte	0
	.long	329
	.long	331
	.long	.Lxtalabel98
.cc_bottom cc_306
.cc_top cc_307,.Lxtalabel68
	.ascii	"C:/Users/takaaki/git/sw_xSSDAC/module_operation_console/src/display_control.xc"
	.byte	0
	.long	335
	.long	335
	.long	.Lxtalabel68
.cc_bottom cc_307
.cc_top cc_308,.Lxtalabel99
	.ascii	"C:/Users/takaaki/git/sw_xSSDAC/module_operation_console/src/display_control.xc"
	.byte	0
	.long	335
	.long	335
	.long	.Lxtalabel99
.cc_bottom cc_308
.cc_top cc_309,.Lxtalabel69
	.ascii	"C:/Users/takaaki/git/sw_xSSDAC/module_operation_console/src/display_control.xc"
	.byte	0
	.long	336
	.long	338
	.long	.Lxtalabel69
.cc_bottom cc_309
.cc_top cc_310,.Lxtalabel100
	.ascii	"C:/Users/takaaki/git/sw_xSSDAC/module_operation_console/src/display_control.xc"
	.byte	0
	.long	336
	.long	338
	.long	.Lxtalabel100
.cc_bottom cc_310
.cc_top cc_311,.Lxtalabel101
	.ascii	"C:/Users/takaaki/git/sw_xSSDAC/module_operation_console/src/display_control.xc"
	.byte	0
	.long	339
	.long	339
	.long	.Lxtalabel101
.cc_bottom cc_311
.cc_top cc_312,.Lxtalabel70
	.ascii	"C:/Users/takaaki/git/sw_xSSDAC/module_operation_console/src/display_control.xc"
	.byte	0
	.long	339
	.long	339
	.long	.Lxtalabel70
.cc_bottom cc_312
.cc_top cc_313,.Lxtalabel102
	.ascii	"C:/Users/takaaki/git/sw_xSSDAC/module_operation_console/src/display_control.xc"
	.byte	0
	.long	340
	.long	342
	.long	.Lxtalabel102
.cc_bottom cc_313
.cc_top cc_314,.Lxtalabel71
	.ascii	"C:/Users/takaaki/git/sw_xSSDAC/module_operation_console/src/display_control.xc"
	.byte	0
	.long	340
	.long	342
	.long	.Lxtalabel71
.cc_bottom cc_314
.cc_top cc_315,.Lxtalabel103
	.ascii	"C:/Users/takaaki/git/sw_xSSDAC/module_operation_console/src/display_control.xc"
	.byte	0
	.long	345
	.long	345
	.long	.Lxtalabel103
.cc_bottom cc_315
.cc_top cc_316,.Lxtalabel72
	.ascii	"C:/Users/takaaki/git/sw_xSSDAC/module_operation_console/src/display_control.xc"
	.byte	0
	.long	345
	.long	345
	.long	.Lxtalabel72
.cc_bottom cc_316
.cc_top cc_317,.Lxtalabel75
	.ascii	"C:/Users/takaaki/git/sw_xSSDAC/module_operation_console/src/display_control.xc"
	.byte	0
	.long	346
	.long	352
	.long	.Lxtalabel75
.cc_bottom cc_317
.cc_top cc_318,.Lxtalabel73
	.ascii	"C:/Users/takaaki/git/sw_xSSDAC/module_operation_console/src/display_control.xc"
	.byte	0
	.long	346
	.long	352
	.long	.Lxtalabel73
.cc_bottom cc_318
.cc_top cc_319,.Lxtalabel104
	.ascii	"C:/Users/takaaki/git/sw_xSSDAC/module_operation_console/src/display_control.xc"
	.byte	0
	.long	346
	.long	352
	.long	.Lxtalabel104
.cc_bottom cc_319
.cc_top cc_320,.Lxtalabel106
	.ascii	"C:/Users/takaaki/git/sw_xSSDAC/module_operation_console/src/display_control.xc"
	.byte	0
	.long	346
	.long	352
	.long	.Lxtalabel106
.cc_bottom cc_320
.cc_top cc_321,.Lxtalabel109
	.ascii	"C:/Users/takaaki/git/sw_xSSDAC/module_operation_console/src/display_control.xc"
	.byte	0
	.long	356
	.long	356
	.long	.Lxtalabel109
.cc_bottom cc_321
.cc_top cc_322,.Lxtalabel78
	.ascii	"C:/Users/takaaki/git/sw_xSSDAC/module_operation_console/src/display_control.xc"
	.byte	0
	.long	356
	.long	356
	.long	.Lxtalabel78
.cc_bottom cc_322
.cc_top cc_323,.Lxtalabel81
	.ascii	"C:/Users/takaaki/git/sw_xSSDAC/module_operation_console/src/display_control.xc"
	.byte	0
	.long	356
	.long	356
	.long	.Lxtalabel81
.cc_bottom cc_323
.cc_top cc_324,.Lxtalabel112
	.ascii	"C:/Users/takaaki/git/sw_xSSDAC/module_operation_console/src/display_control.xc"
	.byte	0
	.long	356
	.long	356
	.long	.Lxtalabel112
.cc_bottom cc_324
.cc_top cc_325,.Lxtalabel78
	.ascii	"C:/Users/takaaki/git/sw_xSSDAC/module_operation_console/src/display_control.xc"
	.byte	0
	.long	358
	.long	358
	.long	.Lxtalabel78
.cc_bottom cc_325
.cc_top cc_326,.Lxtalabel81
	.ascii	"C:/Users/takaaki/git/sw_xSSDAC/module_operation_console/src/display_control.xc"
	.byte	0
	.long	358
	.long	358
	.long	.Lxtalabel81
.cc_bottom cc_326
.cc_top cc_327,.Lxtalabel112
	.ascii	"C:/Users/takaaki/git/sw_xSSDAC/module_operation_console/src/display_control.xc"
	.byte	0
	.long	358
	.long	358
	.long	.Lxtalabel112
.cc_bottom cc_327
.cc_top cc_328,.Lxtalabel109
	.ascii	"C:/Users/takaaki/git/sw_xSSDAC/module_operation_console/src/display_control.xc"
	.byte	0
	.long	358
	.long	358
	.long	.Lxtalabel109
.cc_bottom cc_328
.cc_top cc_329,.Lxtalabel79
	.ascii	"C:/Users/takaaki/git/sw_xSSDAC/module_operation_console/src/display_control.xc"
	.byte	0
	.long	359
	.long	360
	.long	.Lxtalabel79
.cc_bottom cc_329
.cc_top cc_330,.Lxtalabel110
	.ascii	"C:/Users/takaaki/git/sw_xSSDAC/module_operation_console/src/display_control.xc"
	.byte	0
	.long	359
	.long	360
	.long	.Lxtalabel110
.cc_bottom cc_330
.cc_top cc_331,.Lxtalabel80
	.ascii	"C:/Users/takaaki/git/sw_xSSDAC/module_operation_console/src/display_control.xc"
	.byte	0
	.long	361
	.long	362
	.long	.Lxtalabel80
.cc_bottom cc_331
.cc_top cc_332,.Lxtalabel111
	.ascii	"C:/Users/takaaki/git/sw_xSSDAC/module_operation_console/src/display_control.xc"
	.byte	0
	.long	361
	.long	362
	.long	.Lxtalabel111
.cc_bottom cc_332
.cc_top cc_333,.Lxtalabel82
	.ascii	"C:/Users/takaaki/git/sw_xSSDAC/module_operation_console/src/display_control.xc"
	.byte	0
	.long	365
	.long	365
	.long	.Lxtalabel82
.cc_bottom cc_333
.cc_top cc_334,.Lxtalabel113
	.ascii	"C:/Users/takaaki/git/sw_xSSDAC/module_operation_console/src/display_control.xc"
	.byte	0
	.long	365
	.long	365
	.long	.Lxtalabel113
.cc_bottom cc_334
.cc_top cc_335,.Lxtalabel116
	.ascii	"C:/Users/takaaki/git/sw_xSSDAC/module_operation_console/src/display_control.xc"
	.byte	0
	.long	366
	.long	367
	.long	.Lxtalabel116
.cc_bottom cc_335
.cc_top cc_336,.Lxtalabel85
	.ascii	"C:/Users/takaaki/git/sw_xSSDAC/module_operation_console/src/display_control.xc"
	.byte	0
	.long	366
	.long	367
	.long	.Lxtalabel85
.cc_bottom cc_336
.cc_top cc_337,.Lxtalabel115
	.ascii	"C:/Users/takaaki/git/sw_xSSDAC/module_operation_console/src/display_control.xc"
	.byte	0
	.long	366
	.long	367
	.long	.Lxtalabel115
.cc_bottom cc_337
.cc_top cc_338,.Lxtalabel114
	.ascii	"C:/Users/takaaki/git/sw_xSSDAC/module_operation_console/src/display_control.xc"
	.byte	0
	.long	366
	.long	367
	.long	.Lxtalabel114
.cc_bottom cc_338
.cc_top cc_339,.Lxtalabel84
	.ascii	"C:/Users/takaaki/git/sw_xSSDAC/module_operation_console/src/display_control.xc"
	.byte	0
	.long	366
	.long	367
	.long	.Lxtalabel84
.cc_bottom cc_339
.cc_top cc_340,.Lxtalabel83
	.ascii	"C:/Users/takaaki/git/sw_xSSDAC/module_operation_console/src/display_control.xc"
	.byte	0
	.long	366
	.long	367
	.long	.Lxtalabel83
.cc_bottom cc_340
.cc_top cc_341,.Lxtalabel116
	.ascii	"C:/Users/takaaki/git/sw_xSSDAC/module_operation_console/src/display_control.xc"
	.byte	0
	.long	368
	.long	371
	.long	.Lxtalabel116
.cc_bottom cc_341
.cc_top cc_342,.Lxtalabel115
	.ascii	"C:/Users/takaaki/git/sw_xSSDAC/module_operation_console/src/display_control.xc"
	.byte	0
	.long	368
	.long	371
	.long	.Lxtalabel115
.cc_bottom cc_342
.cc_top cc_343,.Lxtalabel85
	.ascii	"C:/Users/takaaki/git/sw_xSSDAC/module_operation_console/src/display_control.xc"
	.byte	0
	.long	368
	.long	371
	.long	.Lxtalabel85
.cc_bottom cc_343
.cc_top cc_344,.Lxtalabel114
	.ascii	"C:/Users/takaaki/git/sw_xSSDAC/module_operation_console/src/display_control.xc"
	.byte	0
	.long	368
	.long	371
	.long	.Lxtalabel114
.cc_bottom cc_344
.cc_top cc_345,.Lxtalabel84
	.ascii	"C:/Users/takaaki/git/sw_xSSDAC/module_operation_console/src/display_control.xc"
	.byte	0
	.long	368
	.long	371
	.long	.Lxtalabel84
.cc_bottom cc_345
.cc_top cc_346,.Lxtalabel83
	.ascii	"C:/Users/takaaki/git/sw_xSSDAC/module_operation_console/src/display_control.xc"
	.byte	0
	.long	368
	.long	371
	.long	.Lxtalabel83
.cc_bottom cc_346
.cc_top cc_347,.Lxtalabel117
	.ascii	"C:/Users/takaaki/git/sw_xSSDAC/module_operation_console/src/display_control.xc"
	.byte	0
	.long	374
	.long	374
	.long	.Lxtalabel117
.cc_bottom cc_347
.cc_top cc_348,.Lxtalabel86
	.ascii	"C:/Users/takaaki/git/sw_xSSDAC/module_operation_console/src/display_control.xc"
	.byte	0
	.long	374
	.long	374
	.long	.Lxtalabel86
.cc_bottom cc_348
.cc_top cc_349,.Lxtalabel126
	.ascii	"C:/Users/takaaki/git/sw_xSSDAC/module_operation_console/src/display_control.xc"
	.byte	0
	.long	379
	.long	379
	.long	.Lxtalabel126
.cc_bottom cc_349
.cc_top cc_350,.Lxtalabel128
	.ascii	"C:/Users/takaaki/git/sw_xSSDAC/module_operation_console/src/display_control.xc"
	.byte	0
	.long	379
	.long	379
	.long	.Lxtalabel128
.cc_bottom cc_350
.cc_top cc_351,.Lxtalabel128
	.ascii	"C:/Users/takaaki/git/sw_xSSDAC/module_operation_console/src/display_control.xc"
	.byte	0
	.long	381
	.long	381
	.long	.Lxtalabel128
.cc_bottom cc_351
.cc_top cc_352,.Lxtalabel126
	.ascii	"C:/Users/takaaki/git/sw_xSSDAC/module_operation_console/src/display_control.xc"
	.byte	0
	.long	381
	.long	381
	.long	.Lxtalabel126
.cc_bottom cc_352
.cc_top cc_353,.Lxtalabel128
	.ascii	"C:/Users/takaaki/git/sw_xSSDAC/module_operation_console/src/display_control.xc"
	.byte	0
	.long	386
	.long	386
	.long	.Lxtalabel128
.cc_bottom cc_353
.cc_top cc_354,.Lxtalabel126
	.ascii	"C:/Users/takaaki/git/sw_xSSDAC/module_operation_console/src/display_control.xc"
	.byte	0
	.long	386
	.long	386
	.long	.Lxtalabel126
.cc_bottom cc_354
.cc_top cc_355,.Lxtalabel126
	.ascii	"C:/Users/takaaki/git/sw_xSSDAC/module_operation_console/src/display_control.xc"
	.byte	0
	.long	387
	.long	387
	.long	.Lxtalabel126
.cc_bottom cc_355
.cc_top cc_356,.Lxtalabel128
	.ascii	"C:/Users/takaaki/git/sw_xSSDAC/module_operation_console/src/display_control.xc"
	.byte	0
	.long	387
	.long	387
	.long	.Lxtalabel128
.cc_bottom cc_356
.cc_top cc_357,.Lxtalabel126
	.ascii	"C:/Users/takaaki/git/sw_xSSDAC/module_operation_console/src/display_control.xc"
	.byte	0
	.long	389
	.long	390
	.long	.Lxtalabel126
.cc_bottom cc_357
.cc_top cc_358,.Lxtalabel128
	.ascii	"C:/Users/takaaki/git/sw_xSSDAC/module_operation_console/src/display_control.xc"
	.byte	0
	.long	389
	.long	390
	.long	.Lxtalabel128
.cc_bottom cc_358
.cc_top cc_359,.Lxtalabel126
	.ascii	"C:/Users/takaaki/git/sw_xSSDAC/module_operation_console/src/display_control.xc"
	.byte	0
	.long	392
	.long	392
	.long	.Lxtalabel126
.cc_bottom cc_359
.cc_top cc_360,.Lxtalabel128
	.ascii	"C:/Users/takaaki/git/sw_xSSDAC/module_operation_console/src/display_control.xc"
	.byte	0
	.long	392
	.long	392
	.long	.Lxtalabel128
.cc_bottom cc_360
.cc_top cc_361,.Lxtalabel126
	.ascii	"C:/Users/takaaki/git/sw_xSSDAC/module_operation_console/src/display_control.xc"
	.byte	0
	.long	394
	.long	394
	.long	.Lxtalabel126
.cc_bottom cc_361
.cc_top cc_362,.Lxtalabel128
	.ascii	"C:/Users/takaaki/git/sw_xSSDAC/module_operation_console/src/display_control.xc"
	.byte	0
	.long	394
	.long	394
	.long	.Lxtalabel128
.cc_bottom cc_362
.cc_top cc_363,.Lxtalabel127
	.ascii	"C:/Users/takaaki/git/sw_xSSDAC/module_operation_console/src/display_control.xc"
	.byte	0
	.long	396
	.long	397
	.long	.Lxtalabel127
.cc_bottom cc_363
.cc_top cc_364,.Lxtalabel129
	.ascii	"C:/Users/takaaki/git/sw_xSSDAC/module_operation_console/src/display_control.xc"
	.byte	0
	.long	396
	.long	397
	.long	.Lxtalabel129
.cc_bottom cc_364
.cc_top cc_365,.Lxtalabel127
	.ascii	"C:/Users/takaaki/git/sw_xSSDAC/module_operation_console/src/display_control.xc"
	.byte	0
	.long	399
	.long	399
	.long	.Lxtalabel127
.cc_bottom cc_365
.cc_top cc_366,.Lxtalabel129
	.ascii	"C:/Users/takaaki/git/sw_xSSDAC/module_operation_console/src/display_control.xc"
	.byte	0
	.long	399
	.long	399
	.long	.Lxtalabel129
.cc_bottom cc_366
.cc_top cc_367,.Lxtalabel127
	.ascii	"C:/Users/takaaki/git/sw_xSSDAC/module_operation_console/src/display_control.xc"
	.byte	0
	.long	401
	.long	402
	.long	.Lxtalabel127
.cc_bottom cc_367
.cc_top cc_368,.Lxtalabel129
	.ascii	"C:/Users/takaaki/git/sw_xSSDAC/module_operation_console/src/display_control.xc"
	.byte	0
	.long	401
	.long	402
	.long	.Lxtalabel129
.cc_bottom cc_368
.Lentries_end5:
	.section	.trap_info,"",@progbits
.Ltrap_info_entries_start0:
	.long	.Ltrap_info_entries_end0-.Ltrap_info_entries_start0
	.long	1
.Ltrap_info_entries_end0: