	.text
	.file	"bitreader.c"
	.text
	.globl	FLAC__bitreader_new
	.align	4
	.type	FLAC__bitreader_new,@function
	.cc_top FLAC__bitreader_new.function,FLAC__bitreader_new
FLAC__bitreader_new:
.Lfunc_begin0:
	.loc	2 256 0
	.cfi_startproc
	.issue_mode dual
.Ltmp0:
	.cfi_def_cfa_offset 8
.Ltmp1:
	.cfi_offset 15, 0
	{
		mkmsk r0, 1
		dualentsp 2
	}
	{
		ldc r1, 56
		nop
	}
	.loc	2 257 24 prologue_end
.Ltmp2:
	bl calloc
.Ltmp3:
	{
		nop
		retsp 2
	}
	.loc	2 268 2
	# RETURN_REG_HOLDER
.Ltmp4:
	.cc_bottom FLAC__bitreader_new.function
	.set	FLAC__bitreader_new.nstackwords,(calloc.nstackwords + 2)
	.globl	FLAC__bitreader_new.nstackwords
	.set	FLAC__bitreader_new.maxcores,calloc.maxcores $M 1
	.globl	FLAC__bitreader_new.maxcores
	.set	FLAC__bitreader_new.maxtimers,calloc.maxtimers $M 0
	.globl	FLAC__bitreader_new.maxtimers
	.set	FLAC__bitreader_new.maxchanends,calloc.maxchanends $M 0
	.globl	FLAC__bitreader_new.maxchanends
.Ltmp5:
	.size	FLAC__bitreader_new, .Ltmp5-FLAC__bitreader_new
.Lfunc_end0:
	.cfi_endproc

	.globl	FLAC__bitreader_delete
	.align	4
	.type	FLAC__bitreader_delete,@function
	.cc_top FLAC__bitreader_delete.function,FLAC__bitreader_delete
FLAC__bitreader_delete:
.Lfunc_begin1:
	.loc	2 272 0
	.cfi_startproc
	.issue_mode dual
	{
		nop
		dualentsp 4
	}
.Ltmp6:
	.cfi_def_cfa_offset 16
.Ltmp7:
	.cfi_offset 15, 0
	std r5, r4, sp[1]
.Ltmp8:
	.cfi_offset 4, -8
.Ltmp9:
	.cfi_offset 5, -4
	{
		mov r4, r0
		nop
	}
.Ltmp10:
	.loc	2 273 2 prologue_end
	{
		eq r0, r4, 0
		nop
	}
	{
		eq r5, r0, 0
		nop
	}
	.loc	2 273 2
	{
		mov r0, r5
		nop
	}
	bl assert
.Ltmp11:
	.loc	2 306 2
	{
		mov r0, r5
		nop
	}
	bl assert
	{
		nop
		ldw r0, r4[0]
	}
	bf r0, .LBB1_2
.Ltmp12:
	.loc	2 309 3
	bl free
.Ltmp13:
.LBB1_2:
	.loc	2 276 2
	{
		mov r0, r4
		nop
	}
	bl free
	.loc	2 277 1
	ldd r5, r4, sp[1]
.Ltmp14:
	{
		nop
		retsp 4
	}
	# RETURN_REG_HOLDER
.Ltmp15:
	.cc_bottom FLAC__bitreader_delete.function
	.set	FLAC__bitreader_delete.nstackwords,((assert.nstackwords $M free.nstackwords) + 4)
	.globl	FLAC__bitreader_delete.nstackwords
	.set	FLAC__bitreader_delete.maxcores,free.maxcores $M 1
	.globl	FLAC__bitreader_delete.maxcores
	.set	FLAC__bitreader_delete.maxtimers,free.maxtimers $M 0
	.globl	FLAC__bitreader_delete.maxtimers
	.set	FLAC__bitreader_delete.maxchanends,free.maxchanends $M 0
	.globl	FLAC__bitreader_delete.maxchanends
.Ltmp16:
	.size	FLAC__bitreader_delete, .Ltmp16-FLAC__bitreader_delete
.Lfunc_end1:
	.file	4 "C:\\Program Files (x86)\\XMOS\\xTIMEcomposer\\Community_14.4.1\\target/include/clang\\stddef.h"
	.file	5 "C:/Users/takaaki/git/sw_xSSDAC/module_libFLAC/source/private\\bitreader.h"
	.cfi_endproc

	.globl	FLAC__bitreader_free
	.align	4
	.type	FLAC__bitreader_free,@function
	.cc_top FLAC__bitreader_free.function,FLAC__bitreader_free
FLAC__bitreader_free:
.Lfunc_begin2:
	.loc	2 305 0
	.cfi_startproc
	.issue_mode dual
	{
		nop
		dualentsp 4
	}
.Ltmp17:
	.cfi_def_cfa_offset 16
.Ltmp18:
	.cfi_offset 15, 0
.Ltmp19:
	.cfi_offset 4, -8
.Ltmp20:
	{
		mov r4, r0
		stw r4, sp[2]
	}
.Ltmp21:
	.loc	2 306 2 prologue_end
	{
		eq r0, r4, 0
		nop
	}
	{
		eq r0, r0, 0
		nop
	}
	.loc	2 306 2
	bl assert
	{
		nop
		ldw r0, r4[0]
	}
	bf r0, .LBB2_2
.Ltmp22:
	.loc	2 309 3
	bl free
.Ltmp23:
.LBB2_2:
	{
		ldc r0, 48
		nop
	}
	.loc	2 314 2
	{
		add r0, r4, r0
		ldc r1, 0
	}
	.loc	2 314 2
	{
		ldc r0, 52
		stw r1, r0[0]
	}
	.loc	2 315 2
	{
		add r0, r4, r0
		nop
	}
	{
		nop
		stw r1, r0[0]
	}
	.loc	2 316 2
	{
		ldc r2, 24
		stw r1, r4[9]
	}
	.loc	2 311 2
	{
		mov r0, r4
		nop
	}
	bl memset
	{
		mkmsk r0, 32
		nop
	}
	{
		nop
		stw r0, r4[10]
	}
	{
		nop
		stw r0, r4[11]
	}
	{
		nop
		ldw r4, sp[2]
	}
.Ltmp24:
	{
		nop
		retsp 4
	}
	.loc	2 319 1
	# RETURN_REG_HOLDER
.Ltmp25:
	.cc_bottom FLAC__bitreader_free.function
	.set	FLAC__bitreader_free.nstackwords,((assert.nstackwords $M memset.nstackwords $M free.nstackwords) + 4)
	.globl	FLAC__bitreader_free.nstackwords
	.set	FLAC__bitreader_free.maxcores,free.maxcores $M 1
	.globl	FLAC__bitreader_free.maxcores
	.set	FLAC__bitreader_free.maxtimers,free.maxtimers $M 0
	.globl	FLAC__bitreader_free.maxtimers
	.set	FLAC__bitreader_free.maxchanends,free.maxchanends $M 0
	.globl	FLAC__bitreader_free.maxchanends
.Ltmp26:
	.size	FLAC__bitreader_free, .Ltmp26-FLAC__bitreader_free
.Lfunc_end2:
	.cfi_endproc

	.globl	FLAC__bitreader_init
	.align	4
	.type	FLAC__bitreader_init,@function
	.cc_top FLAC__bitreader_init.function,FLAC__bitreader_init
FLAC__bitreader_init:
.Lfunc_begin3:
	.loc	2 286 0
	.cfi_startproc
	.issue_mode dual
	{
		nop
		dualentsp 6
	}
.Ltmp27:
	.cfi_def_cfa_offset 24
.Ltmp28:
	.cfi_offset 15, 0
	std r5, r4, sp[1]
.Ltmp29:
	.cfi_offset 4, -16
.Ltmp30:
	.cfi_offset 5, -12
	std r7, r6, sp[2]
.Ltmp31:
	.cfi_offset 6, -8
.Ltmp32:
	.cfi_offset 7, -4
.Ltmp33:
	{
		mov r5, r2
		mov r6, r1
	}
.Ltmp34:
	{
		mov r4, r0
		nop
	}
.Ltmp35:
	.loc	2 287 2 prologue_end
	{
		eq r0, r4, 0
		nop
	}
	{
		eq r0, r0, 0
		nop
	}
	.loc	2 287 2
	bl assert
	{
		ldc r7, 0
		nop
	}
	{
		nop
		stw r7, r4[5]
	}
	{
		nop
		stw r7, r4[4]
	}
	{
		nop
		stw r7, r4[3]
	}
	{
		nop
		stw r7, r4[2]
	}
	ldc r0, 2048
	{
		nop
		stw r0, r4[1]
	}
	ldc r0, 8192
	.loc	2 292 15
	bl malloc
	{
		nop
		stw r0, r4[0]
	}
	bf r0, .LBB3_2
.Ltmp36:
	{
		ldc r0, 48
		nop
	}
	.loc	2 295 2
	{
		add r0, r4, r0
		nop
	}
	.loc	2 295 2
	{
		ldc r0, 52
		stw r6, r0[0]
	}
	.loc	2 296 2
	{
		add r0, r4, r0
		nop
	}
	.loc	2 296 2
	{
		ldc r0, 0
		stw r5, r0[0]
	}
	.loc	2 297 2
	{
		mkmsk r0, 32
		stw r0, r4[9]
	}
	{
		nop
		stw r0, r4[10]
	}
	.loc	2 299 2
	{
		mkmsk r7, 1
		stw r0, r4[11]
	}
.Ltmp37:
.LBB3_2:
	.loc	2 302 1
	{
		mov r0, r7
		nop
	}
	ldd r7, r6, sp[2]
	ldd r5, r4, sp[1]
	{
		nop
		retsp 6
	}
	# RETURN_REG_HOLDER
.Ltmp38:
	.cc_bottom FLAC__bitreader_init.function
	.set	FLAC__bitreader_init.nstackwords,((assert.nstackwords $M malloc.nstackwords) + 6)
	.globl	FLAC__bitreader_init.nstackwords
	.set	FLAC__bitreader_init.maxcores,malloc.maxcores $M 1
	.globl	FLAC__bitreader_init.maxcores
	.set	FLAC__bitreader_init.maxtimers,malloc.maxtimers $M 0
	.globl	FLAC__bitreader_init.maxtimers
	.set	FLAC__bitreader_init.maxchanends,malloc.maxchanends $M 0
	.globl	FLAC__bitreader_init.maxchanends
.Ltmp39:
	.size	FLAC__bitreader_init, .Ltmp39-FLAC__bitreader_init
.Lfunc_end3:
	.cfi_endproc

	.globl	FLAC__bitreader_clear
	.align	4
	.type	FLAC__bitreader_clear,@function
	.cc_top FLAC__bitreader_clear.function,FLAC__bitreader_clear
FLAC__bitreader_clear:
.Lfunc_begin4:
	.loc	2 322 0
	.cfi_startproc
	.issue_mode dual
	{
		ldc r1, 0
		dualentsp 0
	}
	{
		nop
		stw r1, r0[9]
	}
	{
		nop
		stw r1, r0[5]
	}
	{
		nop
		stw r1, r0[4]
	}
	{
		nop
		stw r1, r0[3]
	}
	.loc	2 323 2 prologue_end
.Ltmp40:
	{
		mkmsk r1, 32
		stw r1, r0[2]
	}
	{
		nop
		stw r1, r0[10]
	}
	.loc	2 327 2
	{
		mkmsk r0, 1
		stw r1, r0[11]
	}
.Ltmp41:
	{
		nop
		retsp 0
	}
	.loc	2 328 2
	# RETURN_REG_HOLDER
.Ltmp42:
	.cc_bottom FLAC__bitreader_clear.function
	.set	FLAC__bitreader_clear.nstackwords,0
	.globl	FLAC__bitreader_clear.nstackwords
	.set	FLAC__bitreader_clear.maxcores,1
	.globl	FLAC__bitreader_clear.maxcores
	.set	FLAC__bitreader_clear.maxtimers,0
	.globl	FLAC__bitreader_clear.maxtimers
	.set	FLAC__bitreader_clear.maxchanends,0
	.globl	FLAC__bitreader_clear.maxchanends
.Ltmp43:
	.size	FLAC__bitreader_clear, .Ltmp43-FLAC__bitreader_clear
.Lfunc_end4:
	.cfi_endproc

	.globl	FLAC__bitreader_set_framesync_location
	.align	4
	.type	FLAC__bitreader_set_framesync_location,@function
	.cc_top FLAC__bitreader_set_framesync_location.function,FLAC__bitreader_set_framesync_location
FLAC__bitreader_set_framesync_location:
.Lfunc_begin5:
	.loc	2 332 0
	.cfi_startproc
	.issue_mode dual
	{
		nop
		dualentsp 0
	}
	{
		nop
		ldw r1, r0[4]
	}
	{
		nop
		ldw r2, r0[5]
	}
	.loc	2 333 2 prologue_end
.Ltmp44:
	{
		shr r2, r2, 3
		nop
	}
	.loc	2 333 2
	ldaw r1, r2[r1]
	{
		nop
		stw r1, r0[11]
	}
	{
		nop
		retsp 0
	}
	.loc	2 334 1
	# RETURN_REG_HOLDER
.Ltmp45:
	.cc_bottom FLAC__bitreader_set_framesync_location.function
	.set	FLAC__bitreader_set_framesync_location.nstackwords,0
	.globl	FLAC__bitreader_set_framesync_location.nstackwords
	.set	FLAC__bitreader_set_framesync_location.maxcores,1
	.globl	FLAC__bitreader_set_framesync_location.maxcores
	.set	FLAC__bitreader_set_framesync_location.maxtimers,0
	.globl	FLAC__bitreader_set_framesync_location.maxtimers
	.set	FLAC__bitreader_set_framesync_location.maxchanends,0
	.globl	FLAC__bitreader_set_framesync_location.maxchanends
.Ltmp46:
	.size	FLAC__bitreader_set_framesync_location, .Ltmp46-FLAC__bitreader_set_framesync_location
.Lfunc_end5:
	.cfi_endproc

	.globl	FLAC__bitreader_rewind_to_after_last_seen_framesync
	.align	4
	.type	FLAC__bitreader_rewind_to_after_last_seen_framesync,@function
	.cc_top FLAC__bitreader_rewind_to_after_last_seen_framesync.function,FLAC__bitreader_rewind_to_after_last_seen_framesync
FLAC__bitreader_rewind_to_after_last_seen_framesync:
.Lfunc_begin6:
	.loc	2 337 0
	.cfi_startproc
	.issue_mode dual
	{
		nop
		dualentsp 0
	}
	.loc	2 338 5 prologue_end
.Ltmp47:
	{
		mkmsk r2, 32
		ldw r1, r0[11]
	}
	.loc	2 338 5
	{
		eq r2, r1, r2
		nop
	}
	bt r2, .LBB6_1
.Ltmp48:
	.loc	2 343 3
	{
		add r2, r1, 1
		nop
	}
	.loc	2 343 3
	{
		shr r2, r2, 2
		nop
	}
	.loc	2 343 3
	{
		shl r1, r1, 3
		stw r2, r0[4]
	}
	.loc	2 344 3
	{
		add r1, r1, 8
		ldc r2, 24
	}
	.loc	2 344 3
	{
		and r2, r1, r2
		mkmsk r1, 1
	}
	bu .LBB6_3
.Ltmp49:
.LBB6_1:
	{
		ldc r2, 0
		nop
	}
	.loc	2 339 3
.Ltmp50:
	{
		mov r1, r2
		stw r2, r0[4]
	}
.Ltmp51:
.LBB6_3:
	{
		mov r0, r1
		stw r2, r0[5]
	}
.Ltmp52:
	{
		nop
		retsp 0
	}
	.loc	2 347 1
	# RETURN_REG_HOLDER
.Ltmp53:
	.cc_bottom FLAC__bitreader_rewind_to_after_last_seen_framesync.function
	.set	FLAC__bitreader_rewind_to_after_last_seen_framesync.nstackwords,0
	.globl	FLAC__bitreader_rewind_to_after_last_seen_framesync.nstackwords
	.set	FLAC__bitreader_rewind_to_after_last_seen_framesync.maxcores,1
	.globl	FLAC__bitreader_rewind_to_after_last_seen_framesync.maxcores
	.set	FLAC__bitreader_rewind_to_after_last_seen_framesync.maxtimers,0
	.globl	FLAC__bitreader_rewind_to_after_last_seen_framesync.maxtimers
	.set	FLAC__bitreader_rewind_to_after_last_seen_framesync.maxchanends,0
	.globl	FLAC__bitreader_rewind_to_after_last_seen_framesync.maxchanends
.Ltmp54:
	.size	FLAC__bitreader_rewind_to_after_last_seen_framesync, .Ltmp54-FLAC__bitreader_rewind_to_after_last_seen_framesync
.Lfunc_end6:
	.cfi_endproc

	.globl	FLAC__bitreader_reset_read_crc16
	.align	4
	.type	FLAC__bitreader_reset_read_crc16,@function
	.cc_top FLAC__bitreader_reset_read_crc16.function,FLAC__bitreader_reset_read_crc16
FLAC__bitreader_reset_read_crc16:
.Lfunc_begin7:
	.loc	2 350 0
	.cfi_startproc
	.issue_mode dual
	{
		nop
		dualentsp 4
	}
.Ltmp55:
	.cfi_def_cfa_offset 16
.Ltmp56:
	.cfi_offset 15, 0
	std r5, r4, sp[1]
.Ltmp57:
	.cfi_offset 4, -8
.Ltmp58:
	.cfi_offset 5, -4
.Ltmp59:
	{
		mov r5, r1
		mov r4, r0
	}
.Ltmp60:
	.loc	2 351 2 prologue_end
	{
		eq r0, r4, 0
		nop
	}
	{
		eq r0, r0, 0
		nop
	}
	.loc	2 351 2
	bl assert
	{
		nop
		ldw r0, r4[0]
	}
	.loc	2 352 2
	{
		eq r0, r0, 0
		nop
	}
	{
		eq r0, r0, 0
		nop
	}
	.loc	2 352 2
	bl assert
	{
		nop
		ldw r0, r4[5]
	}
	.loc	2 353 2
	{
		zext r0, 3
		nop
	}
	.loc	2 353 2
	{
		eq r0, r0, 0
		nop
	}
	.loc	2 353 2
	bl assert
	{
		nop
		stw r5, r4[6]
	}
	{
		nop
		ldw r0, r4[4]
	}
	{
		nop
		stw r0, r4[7]
	}
	{
		nop
		ldw r0, r4[5]
	}
	{
		nop
		stw r0, r4[8]
	}
	.loc	2 358 1
	ldd r5, r4, sp[1]
	{
		nop
		retsp 4
	}
	# RETURN_REG_HOLDER
.Ltmp61:
	.cc_bottom FLAC__bitreader_reset_read_crc16.function
	.set	FLAC__bitreader_reset_read_crc16.nstackwords,(assert.nstackwords + 4)
	.globl	FLAC__bitreader_reset_read_crc16.nstackwords
	.set	FLAC__bitreader_reset_read_crc16.maxcores,1
	.globl	FLAC__bitreader_reset_read_crc16.maxcores
	.set	FLAC__bitreader_reset_read_crc16.maxtimers,0
	.globl	FLAC__bitreader_reset_read_crc16.maxtimers
	.set	FLAC__bitreader_reset_read_crc16.maxchanends,0
	.globl	FLAC__bitreader_reset_read_crc16.maxchanends
.Ltmp62:
	.size	FLAC__bitreader_reset_read_crc16, .Ltmp62-FLAC__bitreader_reset_read_crc16
.Lfunc_end7:
	.cfi_endproc

	.section	.cp.rodata.cst4,"aMc",@progbits,4
	.cc_top .LCPI8_0.data,.LCPI8_0
	.align	4
	.type	.LCPI8_0,@object
	.size	.LCPI8_0, 4
.LCPI8_0:
	.long	4294967288
	.cc_bottom .LCPI8_0.data
	.text
	.globl	FLAC__bitreader_get_read_crc16
	.align	4
	.type	FLAC__bitreader_get_read_crc16,@function
	.cc_top FLAC__bitreader_get_read_crc16.function,FLAC__bitreader_get_read_crc16
FLAC__bitreader_get_read_crc16:
.Lfunc_begin8:
	.loc	2 361 0
	.cfi_startproc
	.issue_mode dual
	{
		nop
		dualentsp 12
	}
.Ltmp63:
	.cfi_def_cfa_offset 48
.Ltmp64:
	.cfi_offset 15, 0
	std r5, r4, sp[2]
.Ltmp65:
	.cfi_offset 4, -32
.Ltmp66:
	.cfi_offset 5, -28
	std r7, r6, sp[3]
.Ltmp67:
	.cfi_offset 6, -24
.Ltmp68:
	.cfi_offset 7, -20
	std r9, r8, sp[4]
.Ltmp69:
	.cfi_offset 8, -16
.Ltmp70:
	.cfi_offset 9, -12
.Ltmp71:
	.cfi_offset 10, -8
.Ltmp72:
	{
		mov r4, r0
		stw r10, sp[10]
	}
.Ltmp73:
	.loc	2 362 2 prologue_end
	{
		eq r0, r4, 0
		nop
	}
	{
		eq r0, r0, 0
		nop
	}
	.loc	2 362 2
	bl assert
	{
		nop
		ldw r0, r4[0]
	}
	.loc	2 363 2
	{
		eq r0, r0, 0
		nop
	}
	{
		eq r0, r0, 0
		nop
	}
	.loc	2 363 2
	bl assert
.Ltmp74:
	{
		nop
		ldw r1, r4[4]
	}
	{
		nop
		ldw r3, r4[7]
	}
	.loc	2 136 5
.Ltmp75:
	{
		lsu r0, r3, r1
		nop
	}
	bf r0, .LBB8_1
.Ltmp76:
	{
		nop
		ldw r0, r4[8]
	}
	.loc	2 136 5
	bf r0, .LBB8_3
.Ltmp77:
	.loc	2 137 3
	{
		add r2, r3, 1
		nop
	}
	{
		nop
		stw r2, r4[7]
	}
.Ltmp78:
	.loc	2 123 2
	{
		shr r5, r0, 5
		ldw r11, r4[6]
	}
.Ltmp79:
	bt r5, .LBB8_13
.Ltmp80:
	{
		nop
		ldw r5, r4[0]
	}
.Ltmp81:
	.loc	2 137 3
	{
		add r6, r0, 8
		ldw r5, r5[r3]
	}
.Ltmp82:
	{
		ldc r3, 32
		stw r6, sp[2]
	}
	.loc	2 137 3
	{
		lsu r3, r3, r6
		nop
	}
	.loc	2 125 2
.Ltmp83:
	bt r3, .LBB8_6
.Ltmp84:
	{
		mkmsk r3, 5
		nop
	}
	bu .LBB8_8
.Ltmp85:
.LBB8_1:
	.loc	2 366 2
	{
		mov r2, r3
		nop
	}
	bu .LBB8_14
.Ltmp86:
.LBB8_3:
	{
		mov r2, r3
		nop
	}
	bu .LBB8_14
.Ltmp87:
.LBB8_6:
	.loc	2 125 2
	{
		add r3, r0, 7
		nop
	}
.Ltmp88:
.LBB8_8:
	{
		ldc r3, 24
		stw r3, sp[1]
	}
	.loc	2 125 2
	{
		sub r7, r3, r0
		nop
	}
	ldc r8, 65280
	{
		ldc r3, 0
		stw r0, sp[3]
	}
.Ltmp89:
	.loc	2 137 3
	{
		mov r10, r0
		nop
	}
.Ltmp90:
.LBB8_9:
	.loc	2 127 3
	{
		shl r6, r11, 8
		nop
	}
	.loc	2 127 3
	{
		and r6, r6, r8
		shr r11, r11, 8
	}
	.loc	2 127 3
	{
		shr r0, r7, 5
		mov r9, r3
	}
	bt r0, .LBB8_11
.Ltmp91:
	.loc	2 127 3
	{
		shr r9, r5, r7
		nop
	}
	.loc	2 127 3
	{
		zext r9, 8
		nop
	}
.Ltmp92:
.LBB8_11:
	.loc	2 127 3
	xor r0, r9, r11
	.loc	2 127 3
	ldaw r11, cp[FLAC__crc16_table]
	{
		nop
		ld16s r0, r11[r0]
	}
	.loc	2 127 3
	{
		zext r0, 16
		nop
	}
	.loc	2 127 3
	xor r11, r0, r6
.Ltmp93:
	.loc	2 125 50
	{
		add r10, r10, 8
		sub r7, r7, 8
	}
	.loc	2 125 2
	{
		shr r0, r10, 5
		nop
	}
	bf r0, .LBB8_9
.Ltmp94:
	{
		nop
		ldw r0, sp[3]
	}
	{
		nop
		ldw r3, sp[1]
	}
	.loc	2 125 2
	{
		sub r0, r3, r0
		nop
	}
	ldw r3, cp[.LCPI8_0]
	.loc	2 125 2
	{
		and r0, r0, r3
		ldw r3, sp[2]
	}
	.loc	2 125 2
	{
		add r0, r0, r3
		nop
	}
	{
		nop
		stw r0, r4[8]
	}
.Ltmp95:
.LBB8_13:
	.loc	2 130 2
	{
		ldc r0, 0
		stw r11, r4[6]
	}
	{
		nop
		stw r0, r4[8]
	}
.Ltmp96:
.LBB8_14:
	.loc	2 140 6
	{
		lsu r0, r2, r1
		nop
	}
	bf r0, .LBB8_16
.Ltmp97:
	{
		nop
		ldw r0, r4[0]
	}
	.loc	2 142 20
.Ltmp98:
	ldaw r0, r0[r2]
	.loc	2 142 20
	{
		sub r1, r1, r2
		nop
	}
	.loc	2 142 20
	ldaw r2, r4[6]
	.loc	2 142 20
	{
		ldc r3, 0
		nop
	}
	{
		nop
		ld16s r2, r2[r3]
	}
	{
		zext r2, 16
		nop
	}
	bl FLAC__crc16_update_words32
	{
		nop
		stw r0, r4[6]
	}
.Ltmp99:
.LBB8_16:
	{
		ldc r5, 0
		nop
	}
	{
		nop
		stw r5, r4[7]
	}
	{
		nop
		ldw r0, r4[5]
	}
	.loc	2 368 2
	{
		zext r0, 3
		nop
	}
	.loc	2 368 2
	{
		eq r0, r0, 0
		nop
	}
	.loc	2 368 2
	bl assert
	{
		nop
		ldw r0, r4[8]
	}
	{
		nop
		ldw r1, r4[5]
	}
	.loc	2 369 2
	{
		lsu r0, r1, r0
		nop
	}
	{
		eq r0, r0, 0
		nop
	}
	.loc	2 369 2
	bl assert
	{
		nop
		ldw r0, r4[5]
	}
	bf r0, .LBB8_21
.Ltmp100:
	{
		nop
		ldw r1, r4[8]
	}
	.loc	2 374 3
.Ltmp101:
	{
		lsu r2, r1, r0
		nop
	}
	bf r2, .LBB8_21
.Ltmp102:
	{
		nop
		ldw r2, r4[4]
	}
	{
		nop
		ldw r3, r4[0]
	}
	{
		nop
		ldw r2, r3[r2]
	}
.Ltmp103:
	.loc	2 375 4
	{
		ldc r3, 24
		ldw r11, r4[6]
	}
	.loc	2 374 3
	{
		sub r3, r3, r1
		nop
	}
	ldc r6, 65280
.Ltmp104:
.LBB8_19:
	.loc	2 375 4
	{
		shl r7, r11, 8
		nop
	}
	.loc	2 375 4
	{
		and r7, r7, r6
		shr r11, r11, 8
	}
	.loc	2 375 4
	{
		shr r8, r2, r3
		nop
	}
	.loc	2 375 4
	{
		zext r8, 8
		nop
	}
	.loc	2 375 4
	xor r8, r11, r8
	.loc	2 375 4
	ldaw r11, cp[FLAC__crc16_table]
	{
		nop
		ld16s r11, r11[r8]
	}
	.loc	2 375 4
	{
		zext r11, 16
		nop
	}
	.loc	2 375 4
	xor r11, r7, r11
	.loc	2 374 47
	{
		add r1, r1, 8
		sub r3, r3, 8
	}
	.loc	2 374 3
	{
		lsu r7, r1, r0
		nop
	}
	.loc	2 374 3
	bt r7, .LBB8_19
.Ltmp105:
	{
		nop
		stw r11, r4[6]
	}
	{
		nop
		stw r1, r4[8]
	}
.Ltmp106:
.LBB8_21:
	.loc	2 377 2
	ldaw r0, r4[6]
	{
		nop
		ld16s r0, r0[r5]
	}
	.loc	2 377 2
	{
		zext r0, 16
		ldw r10, sp[10]
	}
	ldd r9, r8, sp[4]
	ldd r7, r6, sp[3]
	ldd r5, r4, sp[2]
.Ltmp107:
	{
		nop
		retsp 12
	}
	# RETURN_REG_HOLDER
.Ltmp108:
	.cc_bottom FLAC__bitreader_get_read_crc16.function
	.set	FLAC__bitreader_get_read_crc16.nstackwords,((FLAC__crc16_update_words32.nstackwords $M assert.nstackwords) + 12)
	.globl	FLAC__bitreader_get_read_crc16.nstackwords
	.set	FLAC__bitreader_get_read_crc16.maxcores,FLAC__crc16_update_words32.maxcores $M 1
	.globl	FLAC__bitreader_get_read_crc16.maxcores
	.set	FLAC__bitreader_get_read_crc16.maxtimers,FLAC__crc16_update_words32.maxtimers $M 0
	.globl	FLAC__bitreader_get_read_crc16.maxtimers
	.set	FLAC__bitreader_get_read_crc16.maxchanends,FLAC__crc16_update_words32.maxchanends $M 0
	.globl	FLAC__bitreader_get_read_crc16.maxchanends
.Ltmp109:
	.size	FLAC__bitreader_get_read_crc16, .Ltmp109-FLAC__bitreader_get_read_crc16
.Lfunc_end8:
	.cfi_endproc

	.globl	FLAC__bitreader_is_consumed_byte_aligned
	.align	4
	.type	FLAC__bitreader_is_consumed_byte_aligned,@function
	.cc_top FLAC__bitreader_is_consumed_byte_aligned.function,FLAC__bitreader_is_consumed_byte_aligned
FLAC__bitreader_is_consumed_byte_aligned:
.Lfunc_begin9:
	.loc	2 381 0
	.cfi_startproc
	.issue_mode dual
	{
		ldc r1, 20
		dualentsp 0
	}
	{
		nop
		ld8u r0, r0[r1]
	}
.Ltmp110:
	.loc	2 382 2 prologue_end
	{
		zext r0, 3
		nop
	}
	{
		eq r0, r0, 0
		retsp 0
	}
	.loc	2 382 2
	# RETURN_REG_HOLDER
.Ltmp111:
	.cc_bottom FLAC__bitreader_is_consumed_byte_aligned.function
	.set	FLAC__bitreader_is_consumed_byte_aligned.nstackwords,0
	.globl	FLAC__bitreader_is_consumed_byte_aligned.nstackwords
	.set	FLAC__bitreader_is_consumed_byte_aligned.maxcores,1
	.globl	FLAC__bitreader_is_consumed_byte_aligned.maxcores
	.set	FLAC__bitreader_is_consumed_byte_aligned.maxtimers,0
	.globl	FLAC__bitreader_is_consumed_byte_aligned.maxtimers
	.set	FLAC__bitreader_is_consumed_byte_aligned.maxchanends,0
	.globl	FLAC__bitreader_is_consumed_byte_aligned.maxchanends
.Ltmp112:
	.size	FLAC__bitreader_is_consumed_byte_aligned, .Ltmp112-FLAC__bitreader_is_consumed_byte_aligned
.Lfunc_end9:
	.cfi_endproc

	.globl	FLAC__bitreader_bits_left_for_byte_alignment
	.align	4
	.type	FLAC__bitreader_bits_left_for_byte_alignment,@function
	.cc_top FLAC__bitreader_bits_left_for_byte_alignment.function,FLAC__bitreader_bits_left_for_byte_alignment
FLAC__bitreader_bits_left_for_byte_alignment:
.Lfunc_begin10:
	.loc	2 386 0
	.cfi_startproc
	.issue_mode dual
	{
		nop
		dualentsp 0
	}
	{
		nop
		ldw r0, r0[5]
	}
.Ltmp113:
	.loc	2 387 2 prologue_end
	{
		zext r0, 3
		ldc r1, 8
	}
	.loc	2 387 2
	{
		sub r0, r1, r0
		retsp 0
	}
	.loc	2 387 2
	# RETURN_REG_HOLDER
.Ltmp114:
	.cc_bottom FLAC__bitreader_bits_left_for_byte_alignment.function
	.set	FLAC__bitreader_bits_left_for_byte_alignment.nstackwords,0
	.globl	FLAC__bitreader_bits_left_for_byte_alignment.nstackwords
	.set	FLAC__bitreader_bits_left_for_byte_alignment.maxcores,1
	.globl	FLAC__bitreader_bits_left_for_byte_alignment.maxcores
	.set	FLAC__bitreader_bits_left_for_byte_alignment.maxtimers,0
	.globl	FLAC__bitreader_bits_left_for_byte_alignment.maxtimers
	.set	FLAC__bitreader_bits_left_for_byte_alignment.maxchanends,0
	.globl	FLAC__bitreader_bits_left_for_byte_alignment.maxchanends
.Ltmp115:
	.size	FLAC__bitreader_bits_left_for_byte_alignment, .Ltmp115-FLAC__bitreader_bits_left_for_byte_alignment
.Lfunc_end10:
	.cfi_endproc

	.globl	FLAC__bitreader_get_input_bits_unconsumed
	.align	4
	.type	FLAC__bitreader_get_input_bits_unconsumed,@function
	.cc_top FLAC__bitreader_get_input_bits_unconsumed.function,FLAC__bitreader_get_input_bits_unconsumed
FLAC__bitreader_get_input_bits_unconsumed:
.Lfunc_begin11:
	.loc	2 391 0
	.cfi_startproc
	.issue_mode dual
	{
		nop
		dualentsp 0
	}
	{
		nop
		ldw r1, r0[2]
	}
	{
		nop
		ldw r2, r0[4]
	}
	.loc	2 392 2 prologue_end
.Ltmp116:
	{
		sub r1, r1, r2
		nop
	}
	.loc	2 392 2
	{
		shl r1, r1, 5
		ldw r2, r0[3]
	}
	.loc	2 392 2
	{
		shl r2, r2, 3
		nop
	}
	.loc	2 392 2
	{
		add r1, r1, r2
		ldw r0, r0[5]
	}
.Ltmp117:
	.loc	2 392 2
	{
		sub r0, r1, r0
		retsp 0
	}
	.loc	2 392 2
	# RETURN_REG_HOLDER
.Ltmp118:
	.cc_bottom FLAC__bitreader_get_input_bits_unconsumed.function
	.set	FLAC__bitreader_get_input_bits_unconsumed.nstackwords,0
	.globl	FLAC__bitreader_get_input_bits_unconsumed.nstackwords
	.set	FLAC__bitreader_get_input_bits_unconsumed.maxcores,1
	.globl	FLAC__bitreader_get_input_bits_unconsumed.maxcores
	.set	FLAC__bitreader_get_input_bits_unconsumed.maxtimers,0
	.globl	FLAC__bitreader_get_input_bits_unconsumed.maxtimers
	.set	FLAC__bitreader_get_input_bits_unconsumed.maxchanends,0
	.globl	FLAC__bitreader_get_input_bits_unconsumed.maxchanends
.Ltmp119:
	.size	FLAC__bitreader_get_input_bits_unconsumed, .Ltmp119-FLAC__bitreader_get_input_bits_unconsumed
.Lfunc_end11:
	.cfi_endproc

	.globl	FLAC__bitreader_set_limit
	.align	4
	.type	FLAC__bitreader_set_limit,@function
	.cc_top FLAC__bitreader_set_limit.function,FLAC__bitreader_set_limit
FLAC__bitreader_set_limit:
.Lfunc_begin12:
	.loc	2 396 0
	.cfi_startproc
	.issue_mode dual
	{
		nop
		dualentsp 0
	}
	.loc	2 397 2 prologue_end
.Ltmp120:
	{
		mkmsk r1, 1
		stw r1, r0[10]
	}
.Ltmp121:
	{
		nop
		stw r1, r0[9]
	}
	{
		nop
		retsp 0
	}
	.loc	2 399 1
	# RETURN_REG_HOLDER
.Ltmp122:
	.cc_bottom FLAC__bitreader_set_limit.function
	.set	FLAC__bitreader_set_limit.nstackwords,0
	.globl	FLAC__bitreader_set_limit.nstackwords
	.set	FLAC__bitreader_set_limit.maxcores,1
	.globl	FLAC__bitreader_set_limit.maxcores
	.set	FLAC__bitreader_set_limit.maxtimers,0
	.globl	FLAC__bitreader_set_limit.maxtimers
	.set	FLAC__bitreader_set_limit.maxchanends,0
	.globl	FLAC__bitreader_set_limit.maxchanends
.Ltmp123:
	.size	FLAC__bitreader_set_limit, .Ltmp123-FLAC__bitreader_set_limit
.Lfunc_end12:
	.cfi_endproc

	.globl	FLAC__bitreader_remove_limit
	.align	4
	.type	FLAC__bitreader_remove_limit,@function
	.cc_top FLAC__bitreader_remove_limit.function,FLAC__bitreader_remove_limit
FLAC__bitreader_remove_limit:
.Lfunc_begin13:
	.loc	2 402 0
	.cfi_startproc
	.issue_mode dual
	{
		ldc r1, 0
		dualentsp 0
	}
	.loc	2 403 2 prologue_end
.Ltmp124:
	{
		mkmsk r1, 32
		stw r1, r0[9]
	}
	{
		nop
		stw r1, r0[10]
	}
	{
		nop
		retsp 0
	}
	.loc	2 405 1
	# RETURN_REG_HOLDER
.Ltmp125:
	.cc_bottom FLAC__bitreader_remove_limit.function
	.set	FLAC__bitreader_remove_limit.nstackwords,0
	.globl	FLAC__bitreader_remove_limit.nstackwords
	.set	FLAC__bitreader_remove_limit.maxcores,1
	.globl	FLAC__bitreader_remove_limit.maxcores
	.set	FLAC__bitreader_remove_limit.maxtimers,0
	.globl	FLAC__bitreader_remove_limit.maxtimers
	.set	FLAC__bitreader_remove_limit.maxchanends,0
	.globl	FLAC__bitreader_remove_limit.maxchanends
.Ltmp126:
	.size	FLAC__bitreader_remove_limit, .Ltmp126-FLAC__bitreader_remove_limit
.Lfunc_end13:
	.cfi_endproc

	.globl	FLAC__bitreader_limit_remaining
	.align	4
	.type	FLAC__bitreader_limit_remaining,@function
	.cc_top FLAC__bitreader_limit_remaining.function,FLAC__bitreader_limit_remaining
FLAC__bitreader_limit_remaining:
.Lfunc_begin14:
	.loc	2 408 0
	.cfi_startproc
	.issue_mode dual
	{
		nop
		dualentsp 4
	}
.Ltmp127:
	.cfi_def_cfa_offset 16
.Ltmp128:
	.cfi_offset 15, 0
.Ltmp129:
	.cfi_offset 4, -8
.Ltmp130:
	{
		mov r4, r0
		stw r4, sp[2]
	}
.Ltmp131:
	{
		nop
		ldw r0, r4[9]
	}
	.loc	2 409 2 prologue_end
.Ltmp132:
	bl assert
	{
		nop
		ldw r0, r4[10]
	}
	{
		nop
		ldw r4, sp[2]
	}
	{
		nop
		retsp 4
	}
	.loc	2 410 2
	# RETURN_REG_HOLDER
.Ltmp133:
	.cc_bottom FLAC__bitreader_limit_remaining.function
	.set	FLAC__bitreader_limit_remaining.nstackwords,(assert.nstackwords + 4)
	.globl	FLAC__bitreader_limit_remaining.nstackwords
	.set	FLAC__bitreader_limit_remaining.maxcores,1
	.globl	FLAC__bitreader_limit_remaining.maxcores
	.set	FLAC__bitreader_limit_remaining.maxtimers,0
	.globl	FLAC__bitreader_limit_remaining.maxtimers
	.set	FLAC__bitreader_limit_remaining.maxchanends,0
	.globl	FLAC__bitreader_limit_remaining.maxchanends
.Ltmp134:
	.size	FLAC__bitreader_limit_remaining, .Ltmp134-FLAC__bitreader_limit_remaining
.Lfunc_end14:
	.cfi_endproc

	.globl	FLAC__bitreader_limit_invalidate
	.align	4
	.type	FLAC__bitreader_limit_invalidate,@function
	.cc_top FLAC__bitreader_limit_invalidate.function,FLAC__bitreader_limit_invalidate
FLAC__bitreader_limit_invalidate:
.Lfunc_begin15:
	.loc	2 413 0
	.cfi_startproc
	.issue_mode dual
	{
		mkmsk r1, 32
		dualentsp 0
	}
	{
		nop
		stw r1, r0[10]
	}
	{
		nop
		retsp 0
	}
	.loc	2 415 1 prologue_end
.Ltmp135:
	# RETURN_REG_HOLDER
.Ltmp136:
	.cc_bottom FLAC__bitreader_limit_invalidate.function
	.set	FLAC__bitreader_limit_invalidate.nstackwords,0
	.globl	FLAC__bitreader_limit_invalidate.nstackwords
	.set	FLAC__bitreader_limit_invalidate.maxcores,1
	.globl	FLAC__bitreader_limit_invalidate.maxcores
	.set	FLAC__bitreader_limit_invalidate.maxtimers,0
	.globl	FLAC__bitreader_limit_invalidate.maxtimers
	.set	FLAC__bitreader_limit_invalidate.maxchanends,0
	.globl	FLAC__bitreader_limit_invalidate.maxchanends
.Ltmp137:
	.size	FLAC__bitreader_limit_invalidate, .Ltmp137-FLAC__bitreader_limit_invalidate
.Lfunc_end15:
	.cfi_endproc

	.globl	FLAC__bitreader_read_raw_uint32
	.align	4
	.type	FLAC__bitreader_read_raw_uint32,@function
	.cc_top FLAC__bitreader_read_raw_uint32.function,FLAC__bitreader_read_raw_uint32
FLAC__bitreader_read_raw_uint32:
.Lfunc_begin16:
	.loc	2 418 0
	.cfi_startproc
	.issue_mode dual
	{
		nop
		dualentsp 8
	}
.Ltmp138:
	.cfi_def_cfa_offset 32
.Ltmp139:
	.cfi_offset 15, 0
	std r5, r4, sp[1]
.Ltmp140:
	.cfi_offset 4, -24
.Ltmp141:
	.cfi_offset 5, -20
	std r7, r6, sp[2]
.Ltmp142:
	.cfi_offset 6, -16
.Ltmp143:
	.cfi_offset 7, -12
.Ltmp144:
	.cfi_offset 8, -8
.Ltmp145:
	{
		mov r7, r2
		stw r8, sp[6]
	}
.Ltmp146:
	{
		mov r6, r1
		mov r4, r0
	}
.Ltmp147:
	.loc	2 419 2 prologue_end
	{
		eq r0, r4, 0
		nop
	}
	{
		eq r0, r0, 0
		nop
	}
	.loc	2 419 2
	bl assert
	{
		nop
		ldw r0, r4[0]
	}
	.loc	2 420 2
	{
		eq r0, r0, 0
		nop
	}
	{
		eq r0, r0, 0
		nop
	}
	.loc	2 420 2
	bl assert
	{
		ldc r0, 33
		nop
	}
	.loc	2 422 2
	{
		lsu r0, r7, r0
		nop
	}
	.loc	2 422 2
	bl assert
	{
		nop
		ldw r0, r4[1]
	}
	.loc	2 423 2
	{
		shl r0, r0, 6
		nop
	}
	.loc	2 423 2
	{
		lsu r0, r0, r7
		nop
	}
	{
		eq r0, r0, 0
		nop
	}
	.loc	2 423 2
	bl assert
	{
		nop
		ldw r0, r4[4]
	}
	{
		nop
		ldw r1, r4[2]
	}
	.loc	2 424 2
	{
		lsu r0, r1, r0
		nop
	}
	{
		eq r0, r0, 0
		nop
	}
	.loc	2 424 2
	bl assert
	{
		mkmsk r5, 1
		nop
	}
	.loc	2 427 2
	{
		mov r0, r5
		nop
	}
	bl assert
	.loc	2 429 5
.Ltmp148:
	bf r7, .LBB16_1
.Ltmp149:
	{
		nop
		ldw r0, r4[9]
	}
	bf r0, .LBB16_7
.Ltmp150:
	.loc	2 434 5
	{
		mkmsk r1, 32
		ldw r0, r4[10]
	}
	.loc	2 434 5
	{
		eq r2, r0, r1
		nop
	}
	bt r2, .LBB16_7
.Ltmp151:
	.loc	2 435 6
	{
		lsu r2, r0, r7
		nop
	}
	bf r2, .LBB16_6
.Ltmp152:
	.loc	2 436 4
	{
		ldc r5, 0
		stw r1, r4[10]
	}
	bu .LBB16_34
.Ltmp153:
.LBB16_1:
	{
		ldc r0, 0
		nop
	}
	{
		nop
		stw r0, r6[0]
	}
	bu .LBB16_34
.Ltmp154:
.LBB16_6:
	.loc	2 440 4
	{
		sub r0, r0, r7
		nop
	}
	{
		nop
		stw r0, r4[10]
	}
.Ltmp155:
.LBB16_7:
	{
		ldc r8, 0
		nop
	}
.Ltmp156:
.LBB16_8:
	{
		nop
		ldw r1, r4[2]
	}
	{
		nop
		ldw r3, r4[4]
	}
	.loc	2 443 2
	{
		sub r0, r1, r3
		nop
	}
	.loc	2 443 2
	{
		shl r2, r0, 5
		ldw r0, r4[3]
	}
	.loc	2 443 2
	{
		shl r0, r0, 3
		nop
	}
	.loc	2 443 2
	{
		add r2, r2, r0
		ldw r11, r4[5]
	}
	.loc	2 443 2
	{
		sub r2, r2, r11
		nop
	}
	.loc	2 443 2
	{
		lsu r2, r2, r7
		nop
	}
	bf r2, .LBB16_11
.Ltmp157:
	.loc	2 444 7
	{
		mov r0, r4
		nop
	}
	bl bitreader_read_from_client_
	bt r0, .LBB16_8
.Ltmp158:
	{
		mov r5, r8
		nop
	}
	bu .LBB16_34
.LBB16_11:
.Ltmp159:
	.loc	2 447 5
	{
		lsu r1, r3, r1
		nop
	}
	bf r1, .LBB16_29
.Ltmp160:
	.loc	2 449 6
	bf r11, .LBB16_26
.Ltmp161:
	{
		ldc r1, 32
		nop
	}
.Ltmp162:
	.loc	2 451 4
	{
		sub r2, r1, r11
		ldw r0, r4[0]
	}
.Ltmp163:
	.loc	2 452 4
	{
		shr r8, r11, 5
		ldw r3, r0[r3]
	}
.Ltmp164:
	.loc	2 453 4
	bt r8, .LBB16_14
.Ltmp165:
	{
		mkmsk r8, 32
		nop
	}
	.loc	2 453 4
	{
		shr r11, r8, r11
		nop
	}
	bu .LBB16_16
.Ltmp166:
.LBB16_29:
	.loc	2 492 6
	bf r11, .LBB16_31
.Ltmp167:
	.loc	2 494 4
	{
		add r1, r11, r7
		nop
	}
	.loc	2 494 4
	{
		lsu r0, r0, r1
		nop
	}
	{
		eq r0, r0, 0
		nop
	}
	.loc	2 494 4
	bl assert
	{
		nop
		ldw r0, r4[4]
	}
	{
		nop
		ldw r1, r4[0]
	}
	{
		nop
		ldw r0, r1[r0]
	}
	.loc	2 495 4
	{
		mkmsk r2, 32
		ldw r1, r4[5]
	}
	.loc	2 495 4
	{
		shr r2, r2, r1
		nop
	}
	.loc	2 495 4
	{
		and r0, r2, r0
		ldc r2, 32
	}
	.loc	2 495 4
	{
		sub r2, r2, r7
		nop
	}
	.loc	2 495 4
	{
		sub r1, r2, r1
		nop
	}
	bu .LBB16_32
.Ltmp168:
.LBB16_26:
	{
		nop
		ldw r0, r4[0]
	}
.Ltmp169:
	.loc	2 474 4
	{
		shr r1, r7, 5
		ldw r0, r0[r3]
	}
.Ltmp170:
	.loc	2 475 7
	bt r1, .LBB16_28
.Ltmp171:
	{
		ldc r1, 32
		nop
	}
	.loc	2 476 5
.Ltmp172:
	{
		sub r1, r1, r7
		nop
	}
	.loc	2 476 5
	{
		shr r0, r0, r1
		nop
	}
.Ltmp173:
	{
		nop
		stw r0, r6[0]
	}
	{
		nop
		stw r7, r4[5]
	}
	bu .LBB16_34
.Ltmp174:
.LBB16_31:
	{
		nop
		ldw r0, r4[0]
	}
	.loc	2 500 4
.Ltmp175:
	{
		ldc r1, 32
		ldw r0, r0[r3]
	}
	.loc	2 500 4
	{
		sub r1, r1, r7
		nop
	}
.Ltmp176:
.LBB16_32:
	.loc	2 500 4
	{
		shr r0, r0, r1
		nop
	}
.LBB16_33:
	{
		nop
		stw r0, r6[0]
	}
	{
		nop
		ldw r0, r4[5]
	}
	.loc	2 501 4
	{
		add r0, r0, r7
		nop
	}
	{
		nop
		stw r0, r4[5]
	}
.Ltmp177:
.LBB16_34:
	.loc	2 505 1
	{
		mov r0, r5
		ldw r8, sp[6]
	}
	ldd r7, r6, sp[2]
	ldd r5, r4, sp[1]
	{
		nop
		retsp 8
	}
	# RETURN_REG_HOLDER
.LBB16_14:
.Ltmp178:
	{
		ldc r11, 0
		nop
	}
.Ltmp179:
.LBB16_16:
	.loc	2 454 7
	{
		lsu r8, r7, r2
		nop
	}
	bf r8, .LBB16_20
.Ltmp180:
	.loc	2 455 5
	{
		sub r0, r2, r7
		nop
	}
.Ltmp181:
	.loc	2 456 5
	{
		shr r1, r0, 5
		nop
	}
	bt r1, .LBB16_18
.Ltmp182:
	.loc	2 456 5
	{
		and r1, r3, r11
		nop
	}
	.loc	2 456 5
	{
		shr r0, r1, r0
		nop
	}
.Ltmp183:
	bu .LBB16_33
.Ltmp184:
.LBB16_20:
	.loc	2 461 4
	{
		and r3, r3, r11
		nop
	}
.Ltmp185:
	{
		nop
		stw r3, r6[0]
	}
	{
		nop
		ldw r3, r4[4]
	}
	.loc	2 463 4
	{
		add r3, r3, 1
		nop
	}
	.loc	2 463 4
	{
		ldc r3, 0
		stw r3, r4[4]
	}
	.loc	2 464 4
	{
		eq r11, r2, r7
		stw r3, r4[5]
	}
.Ltmp186:
	bt r11, .LBB16_34
.Ltmp187:
	.loc	2 462 4
	{
		sub r2, r7, r2
		nop
	}
.Ltmp188:
	.loc	2 466 5
	{
		sub r1, r1, r2
		shr r7, r2, 5
	}
.Ltmp189:
	.loc	2 467 5
	{
		mov r11, r3
		nop
	}
	bt r7, .LBB16_23
.Ltmp190:
	{
		nop
		ldw r11, r6[0]
	}
	.loc	2 467 5
	{
		shl r11, r11, r2
		nop
	}
.Ltmp191:
.LBB16_23:
	.loc	2 467 5
	{
		shr r7, r1, 5
		stw r11, r6[0]
	}
	bt r7, .LBB16_25
.Ltmp192:
	{
		nop
		ldw r3, r4[4]
	}
	{
		nop
		ldw r0, r0[r3]
	}
	.loc	2 468 5
	{
		shr r3, r0, r1
		nop
	}
.Ltmp193:
.LBB16_25:
	.loc	2 468 5
	{
		or r0, r11, r3
		nop
	}
	{
		nop
		stw r0, r6[0]
	}
	{
		nop
		stw r2, r4[5]
	}
	bu .LBB16_34
.Ltmp194:
.LBB16_28:
	{
		nop
		stw r0, r6[0]
	}
	{
		nop
		ldw r0, r4[4]
	}
.Ltmp195:
	.loc	2 482 4
	{
		add r0, r0, 1
		nop
	}
	{
		nop
		stw r0, r4[4]
	}
	bu .LBB16_34
.Ltmp196:
.LBB16_18:
	{
		ldc r0, 0
		nop
	}
	bu .LBB16_33
	.cc_bottom FLAC__bitreader_read_raw_uint32.function
	.set	FLAC__bitreader_read_raw_uint32.nstackwords,((bitreader_read_from_client_.nstackwords $M assert.nstackwords) + 8)
	.globl	FLAC__bitreader_read_raw_uint32.nstackwords
	.set	FLAC__bitreader_read_raw_uint32.maxcores,bitreader_read_from_client_.maxcores $M 1
	.globl	FLAC__bitreader_read_raw_uint32.maxcores
	.set	FLAC__bitreader_read_raw_uint32.maxtimers,bitreader_read_from_client_.maxtimers $M 0
	.globl	FLAC__bitreader_read_raw_uint32.maxtimers
	.set	FLAC__bitreader_read_raw_uint32.maxchanends,bitreader_read_from_client_.maxchanends $M 0
	.globl	FLAC__bitreader_read_raw_uint32.maxchanends
.Ltmp197:
	.size	FLAC__bitreader_read_raw_uint32, .Ltmp197-FLAC__bitreader_read_raw_uint32
.Lfunc_end16:
	.cfi_endproc

	.section	.cp.rodata.cst4,"aMc",@progbits,4
	.cc_top .LCPI17_0.data,.LCPI17_0
	.align	4
	.type	.LCPI17_0,@object
	.size	.LCPI17_0, 4
.LCPI17_0:
	.long	4294967288
	.cc_bottom .LCPI17_0.data
	.text
	.align	4
	.type	bitreader_read_from_client_,@function
	.cc_top bitreader_read_from_client_.function,bitreader_read_from_client_
bitreader_read_from_client_:
.Lfunc_begin17:
	.loc	2 157 0
	.cfi_startproc
	.issue_mode dual
	{
		nop
		dualentsp 14
	}
.Ltmp198:
	.cfi_def_cfa_offset 56
.Ltmp199:
	.cfi_offset 15, 0
	std r5, r4, sp[3]
.Ltmp200:
	.cfi_offset 4, -32
.Ltmp201:
	.cfi_offset 5, -28
	std r7, r6, sp[4]
.Ltmp202:
	.cfi_offset 6, -24
.Ltmp203:
	.cfi_offset 7, -20
	std r9, r8, sp[5]
.Ltmp204:
	.cfi_offset 8, -16
.Ltmp205:
	.cfi_offset 9, -12
.Ltmp206:
	.cfi_offset 10, -8
.Ltmp207:
	{
		mov r4, r0
		stw r10, sp[12]
	}
.Ltmp208:
	{
		mkmsk r0, 32
		nop
	}
	{
		nop
		stw r0, r4[11]
	}
	{
		nop
		ldw r5, r4[4]
	}
	.loc	2 170 5 prologue_end
.Ltmp209:
	bf r5, .LBB17_1
.Ltmp210:
	{
		nop
		ldw r2, r4[7]
	}
	.loc	2 136 5
.Ltmp211:
	{
		lsu r0, r2, r5
		nop
	}
	bf r0, .LBB17_3
.Ltmp212:
	{
		nop
		ldw r0, r4[8]
	}
	.loc	2 136 5
	bf r0, .LBB17_5
.Ltmp213:
	.loc	2 137 3
	{
		add r1, r2, 1
		nop
	}
	{
		nop
		stw r1, r4[7]
	}
.Ltmp214:
	.loc	2 123 2
	{
		shr r3, r0, 5
		ldw r11, r4[6]
	}
.Ltmp215:
	bt r3, .LBB17_15
.Ltmp216:
	{
		nop
		ldw r3, r4[0]
	}
.Ltmp217:
	.loc	2 137 3
	{
		add r6, r0, 8
		ldw r3, r3[r2]
	}
.Ltmp218:
	{
		ldc r2, 32
		stw r6, sp[3]
	}
	.loc	2 137 3
	{
		lsu r2, r2, r6
		nop
	}
	.loc	2 125 2
.Ltmp219:
	bt r2, .LBB17_8
.Ltmp220:
	{
		mkmsk r2, 5
		nop
	}
	bu .LBB17_10
.Ltmp221:
.LBB17_1:
	{
		nop
		ldw r1, r4[2]
	}
	.loc	2 184 2
	ldaw r6, r4[3]
	bu .LBB17_19
.Ltmp222:
.LBB17_3:
	.loc	2 171 3
	{
		mov r1, r2
		nop
	}
	bu .LBB17_16
.Ltmp223:
.LBB17_5:
	{
		mov r1, r2
		nop
	}
	bu .LBB17_16
.Ltmp224:
.LBB17_8:
	.loc	2 125 2
	{
		add r2, r0, 7
		nop
	}
.Ltmp225:
.LBB17_10:
	{
		ldc r2, 24
		stw r2, sp[2]
	}
	.loc	2 125 2
	{
		sub r7, r2, r0
		nop
	}
	ldc r8, 65280
	{
		ldc r2, 0
		stw r0, sp[4]
	}
.Ltmp226:
	.loc	2 137 3
	{
		mov r10, r0
		nop
	}
.Ltmp227:
.LBB17_11:
	.loc	2 127 3
	{
		shl r6, r11, 8
		nop
	}
	.loc	2 127 3
	{
		and r6, r6, r8
		shr r11, r11, 8
	}
	.loc	2 127 3
	{
		shr r0, r7, 5
		mov r9, r2
	}
	bt r0, .LBB17_13
.Ltmp228:
	.loc	2 127 3
	{
		shr r9, r3, r7
		nop
	}
	.loc	2 127 3
	{
		zext r9, 8
		nop
	}
.Ltmp229:
.LBB17_13:
	.loc	2 127 3
	xor r0, r9, r11
	.loc	2 127 3
	ldaw r11, cp[FLAC__crc16_table]
	{
		nop
		ld16s r0, r11[r0]
	}
	.loc	2 127 3
	{
		zext r0, 16
		nop
	}
	.loc	2 127 3
	xor r11, r0, r6
.Ltmp230:
	.loc	2 125 50
	{
		add r10, r10, 8
		sub r7, r7, 8
	}
	.loc	2 125 2
	{
		shr r0, r10, 5
		nop
	}
	bf r0, .LBB17_11
.Ltmp231:
	{
		nop
		ldw r0, sp[4]
	}
	{
		nop
		ldw r2, sp[2]
	}
	.loc	2 125 2
	{
		sub r0, r2, r0
		nop
	}
	ldw r2, cp[.LCPI17_0]
	.loc	2 125 2
	{
		and r0, r0, r2
		ldw r2, sp[3]
	}
	.loc	2 125 2
	{
		add r0, r0, r2
		nop
	}
	{
		nop
		stw r0, r4[8]
	}
.Ltmp232:
.LBB17_15:
	.loc	2 130 2
	{
		ldc r0, 0
		stw r11, r4[6]
	}
	{
		nop
		stw r0, r4[8]
	}
.Ltmp233:
.LBB17_16:
	.loc	2 140 6
	{
		lsu r0, r1, r5
		nop
	}
	bf r0, .LBB17_18
.Ltmp234:
	{
		nop
		ldw r0, r4[0]
	}
	.loc	2 142 20
.Ltmp235:
	ldaw r0, r0[r1]
	.loc	2 142 20
	{
		sub r1, r5, r1
		nop
	}
	.loc	2 142 20
	ldaw r2, r4[6]
	.loc	2 142 20
	{
		ldc r3, 0
		nop
	}
	{
		nop
		ld16s r2, r2[r3]
	}
	{
		zext r2, 16
		nop
	}
	bl FLAC__crc16_update_words32
	{
		nop
		stw r0, r4[6]
	}
	{
		nop
		ldw r5, r4[4]
	}
.Ltmp236:
.LBB17_18:
	{
		ldc r7, 0
		nop
	}
	{
		nop
		stw r7, r4[7]
	}
	{
		nop
		ldw r2, r4[2]
	}
	.loc	2 174 3
	ldaw r6, r4[3]
	{
		nop
		ldw r0, r4[3]
	}
	.loc	2 174 3
	{
		eq r0, r0, 0
		nop
	}
	{
		eq r3, r0, 0
		ldw r0, r4[0]
	}
	.loc	2 175 3
	ldaw r1, r0[r5]
	.loc	2 174 3
	{
		sub r2, r2, r5
		nop
	}
.Ltmp237:
	.loc	2 175 3
	{
		add r2, r2, r3
		nop
	}
.Ltmp238:
	.loc	2 175 3
	{
		shl r2, r2, 2
		nop
	}
	.loc	2 175 3
	bl memmove
	{
		nop
		ldw r0, r4[2]
	}
	.loc	2 177 3
	{
		sub r1, r0, r5
		nop
	}
	{
		nop
		stw r1, r4[2]
	}
	{
		nop
		stw r7, r4[4]
	}
.Ltmp239:
.LBB17_19:
	{
		nop
		ldw r0, r4[1]
	}
	.loc	2 184 2
	{
		sub r0, r0, r1
		nop
	}
	.loc	2 184 2
	{
		shl r0, r0, 2
		ldw r2, r4[3]
	}
	.loc	2 184 2
	{
		sub r3, r0, r2
		nop
	}
.Ltmp240:
	.loc	2 184 2
	{
		eq r0, r0, r2
		stw r3, sp[5]
	}
	{
		ldc r5, 0
		nop
	}
	bt r0, .LBB17_29
.Ltmp241:
	{
		nop
		ldw r11, r4[0]
	}
	.loc	2 187 2
	ldaw r3, r11[r1]
.Ltmp242:
	.loc	2 187 2
	{
		add r0, r3, r2
		ldw r7, r11[r1]
	}
.Ltmp243:
	bf r2, .LBB17_22
.Ltmp244:
	.loc	2 201 3
	{
		byterev r1, r7
		nop
	}
	{
		nop
		stw r1, r3[0]
	}
.Ltmp245:
.LBB17_22:
	{
		ldc r1, 48
		nop
	}
	.loc	2 212 6
.Ltmp246:
	{
		add r1, r4, r1
		nop
	}
	.loc	2 212 6
	{
		ldc r1, 52
		ldw r3, r1[0]
	}
	.loc	2 212 6
	{
		add r1, r4, r1
		nop
	}
.Ltmp247:
	.loc	2 212 6
	{
		ldaw r1, sp[5]
		ldw r2, r1[0]
	}
.Ltmp248:
	{
		nop
		bla r3
	}
.Ltmp249:
	{
		nop
		ldw r1, r4[2]
	}
.Ltmp250:
	.loc	2 212 6
	bf r0, .LBB17_23
.Ltmp251:
	.loc	2 231 2
	{
		shl r3, r1, 2
		ldw r2, r6[0]
	}
	.loc	2 231 2
	{
		mkmsk r11, 2
		ldw r0, sp[5]
	}
	.loc	2 231 2
	{
		or r3, r3, r11
		nop
	}
	.loc	2 231 2
	{
		add r3, r3, r2
		nop
	}
	.loc	2 231 2
	{
		add r3, r3, r0
		nop
	}
	.loc	2 231 2
	{
		shr r3, r3, 2
		nop
	}
.Ltmp252:
	.loc	2 232 2
	{
		lsu r11, r1, r3
		nop
	}
	bf r11, .LBB17_28
.Ltmp253:
	{
		nop
		ldw r2, r4[0]
	}
.Ltmp254:
.LBB17_26:
	{
		nop
		ldw r11, r2[r1]
	}
	.loc	2 233 3
	{
		byterev r11, r11
		nop
	}
	.loc	2 233 3
	stw r11, r2[r1]
	.loc	2 232 38
	{
		add r1, r1, 1
		nop
	}
.Ltmp255:
	.loc	2 232 2
	{
		lsu r11, r1, r3
		nop
	}
	.loc	2 232 2
	bt r11, .LBB17_26
.Ltmp256:
	{
		nop
		ldw r1, r4[2]
	}
	{
		nop
		ldw r2, r4[3]
	}
.Ltmp257:
.LBB17_28:
	.loc	2 242 2
	ldaw r1, r2[r1]
	.loc	2 242 2
	{
		add r0, r1, r0
		nop
	}
.Ltmp258:
	.loc	2 243 2
	{
		shr r1, r0, 2
		nop
	}
	.loc	2 243 2
	{
		zext r0, 2
		stw r1, r4[2]
	}
.Ltmp259:
	.loc	2 244 2
	{
		mkmsk r5, 1
		stw r0, r4[3]
	}
	bu .LBB17_29
.Ltmp260:
.LBB17_23:
	{
		nop
		ldw r0, r4[0]
	}
	.loc	2 218 3
.Ltmp261:
	stw r7, r0[r1]
.Ltmp262:
.LBB17_29:
	.loc	2 247 1
	{
		mov r0, r5
		ldw r10, sp[12]
	}
	ldd r9, r8, sp[5]
	ldd r7, r6, sp[4]
	ldd r5, r4, sp[3]
	{
		nop
		retsp 14
	}
	# RETURN_REG_HOLDER
.Ltmp263:
	.cc_bottom bitreader_read_from_client_.function



.Ltmp264:
	.size	bitreader_read_from_client_, .Ltmp264-bitreader_read_from_client_
.Lfunc_end17:
	.cfi_endproc

	.globl	FLAC__bitreader_read_raw_int32
	.align	4
	.type	FLAC__bitreader_read_raw_int32,@function
	.cc_top FLAC__bitreader_read_raw_int32.function,FLAC__bitreader_read_raw_int32
FLAC__bitreader_read_raw_int32:
.Lfunc_begin18:
	.loc	2 508 0
	.cfi_startproc
	.issue_mode dual
	{
		nop
		dualentsp 6
	}
.Ltmp265:
	.cfi_def_cfa_offset 24
.Ltmp266:
	.cfi_offset 15, 0
	std r5, r4, sp[1]
.Ltmp267:
	.cfi_offset 4, -16
.Ltmp268:
	.cfi_offset 5, -12
.Ltmp269:
	.cfi_offset 6, -8
.Ltmp270:
	{
		mov r5, r2
		stw r6, sp[4]
	}
.Ltmp271:
	{
		mov r4, r1
		ldc r6, 0
	}
.Ltmp272:
	bf r5, .LBB18_6
.Ltmp273:
	{
		ldaw r1, sp[1]
		mov r2, r5
	}
.Ltmp274:
	.loc	2 511 20 prologue_end
	bl FLAC__bitreader_read_raw_uint32
.Ltmp275:
	bf r0, .LBB18_6
.Ltmp276:
	{
		ldc r0, 32
		nop
	}
	.loc	2 515 2
	{
		lsu r0, r0, r5
		nop
	}
	.loc	2 515 2
	bf r0, .LBB18_4
.Ltmp277:
	{
		ldc r0, 0
		nop
	}
	bu .LBB18_5
.Ltmp278:
.LBB18_4:
	.loc	2 515 2
	{
		sub r0, r5, 1
		mkmsk r1, 1
	}
	.loc	2 515 2
	{
		shl r0, r1, r0
		nop
	}
.Ltmp279:
.LBB18_5:
	{
		nop
		ldw r1, sp[1]
	}
	.loc	2 516 2
	xor r1, r1, r0
	.loc	2 516 2
	{
		sub r0, r1, r0
		nop
	}
.Ltmp280:
	.loc	2 516 2
	{
		mkmsk r6, 1
		stw r0, r4[0]
	}
.Ltmp281:
.LBB18_6:
	.loc	2 518 1
	{
		mov r0, r6
		ldw r6, sp[4]
	}
	ldd r5, r4, sp[1]
	{
		nop
		retsp 6
	}
	# RETURN_REG_HOLDER
.Ltmp282:
	.cc_bottom FLAC__bitreader_read_raw_int32.function
	.set	FLAC__bitreader_read_raw_int32.nstackwords,(FLAC__bitreader_read_raw_uint32.nstackwords + 6)
	.globl	FLAC__bitreader_read_raw_int32.nstackwords
	.set	FLAC__bitreader_read_raw_int32.maxcores,FLAC__bitreader_read_raw_uint32.maxcores $M 1
	.globl	FLAC__bitreader_read_raw_int32.maxcores
	.set	FLAC__bitreader_read_raw_int32.maxtimers,FLAC__bitreader_read_raw_uint32.maxtimers $M 0
	.globl	FLAC__bitreader_read_raw_int32.maxtimers
	.set	FLAC__bitreader_read_raw_int32.maxchanends,FLAC__bitreader_read_raw_uint32.maxchanends $M 0
	.globl	FLAC__bitreader_read_raw_int32.maxchanends
.Ltmp283:
	.size	FLAC__bitreader_read_raw_int32, .Ltmp283-FLAC__bitreader_read_raw_int32
.Lfunc_end18:
	.cfi_endproc

	.globl	FLAC__bitreader_read_raw_uint64
	.align	4
	.type	FLAC__bitreader_read_raw_uint64,@function
	.cc_top FLAC__bitreader_read_raw_uint64.function,FLAC__bitreader_read_raw_uint64
FLAC__bitreader_read_raw_uint64:
.Lfunc_begin19:
	.loc	2 521 0
	.cfi_startproc
	.issue_mode dual
	{
		nop
		dualentsp 8
	}
.Ltmp284:
	.cfi_def_cfa_offset 32
.Ltmp285:
	.cfi_offset 15, 0
	std r5, r4, sp[2]
.Ltmp286:
	.cfi_offset 4, -16
.Ltmp287:
	.cfi_offset 5, -12
.Ltmp288:
	.cfi_offset 6, -8
.Ltmp289:
	{
		mov r4, r1
		stw r6, sp[6]
	}
.Ltmp290:
	{
		mov r6, r0
		ldc r0, 33
	}
.Ltmp291:
	.loc	2 524 5 prologue_end
	{
		lsu r0, r2, r0
		nop
	}
	bt r0, .LBB19_4
.Ltmp292:
	.loc	2 525 7
	ldaw r2, r2[-8]
.Ltmp293:
	{
		ldaw r1, sp[3]
		mov r0, r6
	}
.Ltmp294:
	.loc	2 525 7
	bl FLAC__bitreader_read_raw_uint32
	{
		ldc r5, 0
		nop
	}
	bf r0, .LBB19_8
.Ltmp295:
	{
		ldaw r1, sp[2]
		ldc r2, 32
	}
.Ltmp296:
	.loc	2 527 7
	{
		mov r0, r6
		nop
	}
	bl FLAC__bitreader_read_raw_uint32
	bf r0, .LBB19_8
.Ltmp297:
	.loc	2 529 3
	{
		ldc r1, 0
		ldw r0, sp[3]
	}
	.loc	2 530 3
	std r0, r1, r4[0]
	bu .LBB19_7
.Ltmp298:
.LBB19_4:
	{
		ldaw r1, sp[2]
		mov r0, r6
	}
.Ltmp299:
	.loc	2 534 7
	bl FLAC__bitreader_read_raw_uint32
.Ltmp300:
	.loc	2 534 7
	bf r0, .LBB19_5
.Ltmp301:
	{
		ldc r0, 0
		nop
	}
.Ltmp302:
.LBB19_7:
	{
		nop
		ldw r1, sp[2]
	}
.Ltmp303:
	.loc	2 531 3
	std r0, r1, r4[0]
	{
		mkmsk r5, 1
		nop
	}
	bu .LBB19_8
.Ltmp304:
.LBB19_5:
	{
		ldc r5, 0
		nop
	}
.LBB19_8:
	.loc	2 539 1
	{
		mov r0, r5
		ldw r6, sp[6]
	}
	ldd r5, r4, sp[2]
	{
		nop
		retsp 8
	}
	# RETURN_REG_HOLDER
.Ltmp305:
	.cc_bottom FLAC__bitreader_read_raw_uint64.function
	.set	FLAC__bitreader_read_raw_uint64.nstackwords,(FLAC__bitreader_read_raw_uint32.nstackwords + 8)
	.globl	FLAC__bitreader_read_raw_uint64.nstackwords
	.set	FLAC__bitreader_read_raw_uint64.maxcores,FLAC__bitreader_read_raw_uint32.maxcores $M 1
	.globl	FLAC__bitreader_read_raw_uint64.maxcores
	.set	FLAC__bitreader_read_raw_uint64.maxtimers,FLAC__bitreader_read_raw_uint32.maxtimers $M 0
	.globl	FLAC__bitreader_read_raw_uint64.maxtimers
	.set	FLAC__bitreader_read_raw_uint64.maxchanends,FLAC__bitreader_read_raw_uint32.maxchanends $M 0
	.globl	FLAC__bitreader_read_raw_uint64.maxchanends
.Ltmp306:
	.size	FLAC__bitreader_read_raw_uint64, .Ltmp306-FLAC__bitreader_read_raw_uint64
.Lfunc_end19:
	.cfi_endproc

	.globl	FLAC__bitreader_read_raw_int64
	.align	4
	.type	FLAC__bitreader_read_raw_int64,@function
	.cc_top FLAC__bitreader_read_raw_int64.function,FLAC__bitreader_read_raw_int64
FLAC__bitreader_read_raw_int64:
.Lfunc_begin20:
	.loc	2 542 0
	.cfi_startproc
	.issue_mode dual
	{
		nop
		dualentsp 8
	}
.Ltmp307:
	.cfi_def_cfa_offset 32
.Ltmp308:
	.cfi_offset 15, 0
	std r5, r4, sp[2]
.Ltmp309:
	.cfi_offset 4, -16
.Ltmp310:
	.cfi_offset 5, -12
	std r7, r6, sp[3]
.Ltmp311:
	.cfi_offset 6, -8
.Ltmp312:
	.cfi_offset 7, -4
.Ltmp313:
	{
		mov r5, r2
		mov r4, r1
	}
.Ltmp314:
	{
		mov r7, r0
		ldc r6, 0
	}
.Ltmp315:
	bf r5, .LBB20_9
.Ltmp316:
	{
		ldc r0, 33
		nop
	}
	.loc	2 524 5 prologue_end
.Ltmp317:
	{
		lsu r0, r5, r0
		nop
	}
	bt r0, .LBB20_5
.Ltmp318:
	.loc	2 525 7
	ldaw r2, r5[-8]
.Ltmp319:
	{
		ldaw r1, sp[3]
		mov r0, r7
	}
.Ltmp320:
	.loc	2 525 7
	bl FLAC__bitreader_read_raw_uint32
	bf r0, .LBB20_9
.Ltmp321:
	{
		ldaw r1, sp[2]
		ldc r2, 32
	}
.Ltmp322:
	.loc	2 527 7
	{
		mov r0, r7
		nop
	}
	bl FLAC__bitreader_read_raw_uint32
	bf r0, .LBB20_9
.Ltmp323:
	{
		nop
		ldw r6, sp[3]
	}
	{
		nop
		ldw r7, sp[2]
	}
	ldc r0, 64
	.loc	2 549 2
	{
		lsu r2, r0, r5
		ldc r0, 0
	}
	.loc	2 549 2
	{
		mov r1, r0
		nop
	}
	bf r2, .LBB20_7
	bu .LBB20_8
.Ltmp324:
.LBB20_5:
	{
		ldaw r1, sp[2]
		mov r0, r7
	}
.Ltmp325:
	.loc	2 534 7
	{
		mov r2, r5
		nop
	}
	bl FLAC__bitreader_read_raw_uint32
	bf r0, .LBB20_9
.Ltmp326:
	{
		ldc r6, 0
		ldw r7, sp[2]
	}
.Ltmp327:
.LBB20_7:
	.loc	2 549 2
	{
		sub r2, r5, 1
		mkmsk r0, 1
	}
	{
		ldc r1, 0
		nop
	}
	.loc	2 549 2
	bl __ashldi3
.Ltmp328:
.LBB20_8:
	.loc	2 550 2
	xor r2, r1, r6
	xor r3, r0, r7
	{
		ldc r11, 0
		nop
	}
	.loc	2 550 2
	lsub r3, r0, r3, r0, r11
	lsub r2, r1, r2, r1, r3
	.loc	2 550 2
	std r1, r0, r4[0]
	{
		mkmsk r6, 1
		nop
	}
.Ltmp329:
.LBB20_9:
	.loc	2 552 1
	{
		mov r0, r6
		nop
	}
	ldd r7, r6, sp[3]
	ldd r5, r4, sp[2]
	{
		nop
		retsp 8
	}
	# RETURN_REG_HOLDER
.Ltmp330:
	.cc_bottom FLAC__bitreader_read_raw_int64.function
	.set	FLAC__bitreader_read_raw_int64.nstackwords,((__ashldi3.nstackwords $M FLAC__bitreader_read_raw_uint32.nstackwords) + 8)
	.globl	FLAC__bitreader_read_raw_int64.nstackwords
	.set	FLAC__bitreader_read_raw_int64.maxcores,FLAC__bitreader_read_raw_uint32.maxcores $M 1
	.globl	FLAC__bitreader_read_raw_int64.maxcores
	.set	FLAC__bitreader_read_raw_int64.maxtimers,FLAC__bitreader_read_raw_uint32.maxtimers $M 0
	.globl	FLAC__bitreader_read_raw_int64.maxtimers
	.set	FLAC__bitreader_read_raw_int64.maxchanends,FLAC__bitreader_read_raw_uint32.maxchanends $M 0
	.globl	FLAC__bitreader_read_raw_int64.maxchanends
.Ltmp331:
	.size	FLAC__bitreader_read_raw_int64, .Ltmp331-FLAC__bitreader_read_raw_int64
.Lfunc_end20:
	.cfi_endproc

	.globl	FLAC__bitreader_read_uint32_little_endian
	.align	4
	.type	FLAC__bitreader_read_uint32_little_endian,@function
	.cc_top FLAC__bitreader_read_uint32_little_endian.function,FLAC__bitreader_read_uint32_little_endian
FLAC__bitreader_read_uint32_little_endian:
.Lfunc_begin21:
	.loc	2 555 0
	.cfi_startproc
	.issue_mode dual
	{
		nop
		dualentsp 8
	}
.Ltmp332:
	.cfi_def_cfa_offset 32
.Ltmp333:
	.cfi_offset 15, 0
	std r5, r4, sp[2]
.Ltmp334:
	.cfi_offset 4, -16
.Ltmp335:
	.cfi_offset 5, -12
	std r7, r6, sp[3]
.Ltmp336:
	.cfi_offset 6, -8
.Ltmp337:
	.cfi_offset 7, -4
.Ltmp338:
	{
		mov r5, r1
		mov r6, r0
	}
.Ltmp339:
	{
		ldc r4, 0
		nop
	}
.Ltmp340:
	.loc	2 556 2 prologue_end
	{
		ldaw r1, sp[2]
		stw r4, sp[2]
	}
.Ltmp341:
	{
		ldc r2, 8
		nop
	}
	.loc	2 560 6
.Ltmp342:
	bl FLAC__bitreader_read_raw_uint32
	bf r0, .LBB21_5
.Ltmp343:
	{
		ldaw r1, sp[3]
		ldc r2, 8
	}
.Ltmp344:
	.loc	2 563 6
	{
		mov r0, r6
		nop
	}
	bl FLAC__bitreader_read_raw_uint32
	bf r0, .LBB21_5
.Ltmp345:
	{
		nop
		ldw r0, sp[3]
	}
	.loc	2 565 2
	{
		shl r0, r0, 8
		ldw r1, sp[2]
	}
	.loc	2 565 2
	{
		or r7, r1, r0
		nop
	}
.Ltmp346:
	.loc	2 565 2
	{
		ldaw r1, sp[3]
		stw r7, sp[2]
	}
.Ltmp347:
	{
		ldc r2, 8
		mov r0, r6
	}
	.loc	2 567 6
.Ltmp348:
	bl FLAC__bitreader_read_raw_uint32
	bf r0, .LBB21_5
.Ltmp349:
	{
		nop
		ldw r0, sp[3]
	}
	.loc	2 569 2
	{
		shl r0, r0, 16
		nop
	}
	.loc	2 569 2
	{
		or r7, r7, r0
		nop
	}
.Ltmp350:
	.loc	2 569 2
	{
		ldaw r1, sp[3]
		stw r7, sp[2]
	}
.Ltmp351:
	{
		ldc r2, 8
		mov r0, r6
	}
	.loc	2 571 6
.Ltmp352:
	bl FLAC__bitreader_read_raw_uint32
	bf r0, .LBB21_5
.Ltmp353:
	{
		nop
		ldw r0, sp[3]
	}
	.loc	2 573 2
	{
		shl r0, r0, 24
		nop
	}
	.loc	2 573 2
	{
		or r0, r7, r0
		nop
	}
.Ltmp354:
	{
		nop
		stw r0, sp[2]
	}
	.loc	2 575 2
	{
		mkmsk r4, 1
		stw r0, r5[0]
	}
.Ltmp355:
.LBB21_5:
	.loc	2 577 1
	{
		mov r0, r4
		nop
	}
	ldd r7, r6, sp[3]
	ldd r5, r4, sp[2]
	{
		nop
		retsp 8
	}
	# RETURN_REG_HOLDER
.Ltmp356:
	.cc_bottom FLAC__bitreader_read_uint32_little_endian.function
	.set	FLAC__bitreader_read_uint32_little_endian.nstackwords,(FLAC__bitreader_read_raw_uint32.nstackwords + 8)
	.globl	FLAC__bitreader_read_uint32_little_endian.nstackwords
	.set	FLAC__bitreader_read_uint32_little_endian.maxcores,FLAC__bitreader_read_raw_uint32.maxcores $M 1
	.globl	FLAC__bitreader_read_uint32_little_endian.maxcores
	.set	FLAC__bitreader_read_uint32_little_endian.maxtimers,FLAC__bitreader_read_raw_uint32.maxtimers $M 0
	.globl	FLAC__bitreader_read_uint32_little_endian.maxtimers
	.set	FLAC__bitreader_read_uint32_little_endian.maxchanends,FLAC__bitreader_read_raw_uint32.maxchanends $M 0
	.globl	FLAC__bitreader_read_uint32_little_endian.maxchanends
.Ltmp357:
	.size	FLAC__bitreader_read_uint32_little_endian, .Ltmp357-FLAC__bitreader_read_uint32_little_endian
.Lfunc_end21:
	.cfi_endproc

	.globl	FLAC__bitreader_skip_bits_no_crc
	.align	4
	.type	FLAC__bitreader_skip_bits_no_crc,@function
	.cc_top FLAC__bitreader_skip_bits_no_crc.function,FLAC__bitreader_skip_bits_no_crc
FLAC__bitreader_skip_bits_no_crc:
.Lfunc_begin22:
	.loc	2 580 0
	.cfi_startproc
	.issue_mode dual
	{
		nop
		dualentsp 6
	}
.Ltmp358:
	.cfi_def_cfa_offset 24
.Ltmp359:
	.cfi_offset 15, 0
	std r5, r4, sp[1]
.Ltmp360:
	.cfi_offset 4, -16
.Ltmp361:
	.cfi_offset 5, -12
.Ltmp362:
	.cfi_offset 6, -8
.Ltmp363:
	{
		mov r4, r1
		stw r6, sp[4]
	}
.Ltmp364:
	{
		mov r5, r0
		nop
	}
.Ltmp365:
	.loc	2 585 2 prologue_end
	{
		eq r0, r5, 0
		nop
	}
	{
		eq r0, r0, 0
		nop
	}
	.loc	2 585 2
	bl assert
	{
		nop
		ldw r0, r5[0]
	}
	.loc	2 586 2
	{
		eq r0, r0, 0
		nop
	}
	{
		eq r0, r0, 0
		nop
	}
	.loc	2 586 2
	bl assert
	bf r4, .LBB22_14
.Ltmp366:
	{
		nop
		ldw r0, r5[5]
	}
	.loc	2 589 3
.Ltmp367:
	{
		zext r0, 3
		nop
	}
.Ltmp368:
	bf r0, .LBB22_7
.Ltmp369:
	{
		ldc r1, 8
		nop
	}
	.loc	2 594 4
.Ltmp370:
	{
		sub r0, r1, r0
		nop
	}
.Ltmp371:
	.loc	2 594 4
	{
		lsu r1, r4, r0
		mov r6, r4
	}
	bt r1, .LBB22_4
.Ltmp372:
	.loc	2 594 4
	{
		mov r6, r0
		nop
	}
.Ltmp373:
.LBB22_4:
	{
		ldaw r1, sp[1]
		mov r0, r5
	}
.Ltmp374:
	.loc	2 595 8
	{
		mov r2, r6
		nop
	}
	bl FLAC__bitreader_read_raw_uint32
	.loc	2 595 8
	bf r0, .LBB22_5
.Ltmp375:
	.loc	2 597 4
	{
		sub r4, r4, r6
		nop
	}
.Ltmp376:
.LBB22_7:
	.loc	2 599 3
	{
		shr r1, r4, 3
		nop
	}
.Ltmp377:
	bf r1, .LBB22_11
.Ltmp378:
	.loc	2 601 8
	{
		mov r0, r5
		nop
	}
	bl FLAC__bitreader_skip_byte_block_aligned_no_crc
.Ltmp379:
	.loc	2 601 8
	bf r0, .LBB22_9
.Ltmp380:
	.loc	2 603 4
	{
		zext r4, 3
		nop
	}
.Ltmp381:
.LBB22_11:
	bf r4, .LBB22_14
.Ltmp382:
	{
		ldaw r1, sp[1]
		mov r0, r5
	}
.Ltmp383:
	.loc	2 606 8
	{
		mov r2, r4
		nop
	}
	bl FLAC__bitreader_read_raw_uint32
	bf r0, .LBB22_13
.Ltmp384:
.LBB22_14:
	{
		mkmsk r0, 1
		nop
	}
	bu .LBB22_15
.LBB22_5:
	{
		ldc r0, 0
		nop
	}
	bu .LBB22_15
.LBB22_9:
	{
		ldc r0, 0
		nop
	}
	bu .LBB22_15
.LBB22_13:
	{
		ldc r0, 0
		nop
	}
.LBB22_15:
	{
		nop
		ldw r6, sp[4]
	}
	.loc	2 612 1
	ldd r5, r4, sp[1]
	{
		nop
		retsp 6
	}
	# RETURN_REG_HOLDER
.Ltmp385:
	.cc_bottom FLAC__bitreader_skip_bits_no_crc.function
	.set	FLAC__bitreader_skip_bits_no_crc.nstackwords,((assert.nstackwords $M FLAC__bitreader_skip_byte_block_aligned_no_crc.nstackwords $M FLAC__bitreader_read_raw_uint32.nstackwords) + 6)
	.globl	FLAC__bitreader_skip_bits_no_crc.nstackwords
	.set	FLAC__bitreader_skip_bits_no_crc.maxcores,FLAC__bitreader_read_raw_uint32.maxcores $M FLAC__bitreader_skip_byte_block_aligned_no_crc.maxcores $M 1
	.globl	FLAC__bitreader_skip_bits_no_crc.maxcores
	.set	FLAC__bitreader_skip_bits_no_crc.maxtimers,FLAC__bitreader_read_raw_uint32.maxtimers $M FLAC__bitreader_skip_byte_block_aligned_no_crc.maxtimers $M 0
	.globl	FLAC__bitreader_skip_bits_no_crc.maxtimers
	.set	FLAC__bitreader_skip_bits_no_crc.maxchanends,FLAC__bitreader_read_raw_uint32.maxchanends $M FLAC__bitreader_skip_byte_block_aligned_no_crc.maxchanends $M 0
	.globl	FLAC__bitreader_skip_bits_no_crc.maxchanends
.Ltmp386:
	.size	FLAC__bitreader_skip_bits_no_crc, .Ltmp386-FLAC__bitreader_skip_bits_no_crc
.Lfunc_end22:
	.cfi_endproc

	.globl	FLAC__bitreader_skip_byte_block_aligned_no_crc
	.align	4
	.type	FLAC__bitreader_skip_byte_block_aligned_no_crc,@function
	.cc_top FLAC__bitreader_skip_byte_block_aligned_no_crc.function,FLAC__bitreader_skip_byte_block_aligned_no_crc
FLAC__bitreader_skip_byte_block_aligned_no_crc:
.Lfunc_begin23:
	.loc	2 615 0
	.cfi_startproc
	.issue_mode dual
	{
		nop
		dualentsp 8
	}
.Ltmp387:
	.cfi_def_cfa_offset 32
.Ltmp388:
	.cfi_offset 15, 0
	std r5, r4, sp[1]
.Ltmp389:
	.cfi_offset 4, -24
.Ltmp390:
	.cfi_offset 5, -20
	std r7, r6, sp[2]
.Ltmp391:
	.cfi_offset 6, -16
.Ltmp392:
	.cfi_offset 7, -12
	std r9, r8, sp[3]
.Ltmp393:
	.cfi_offset 8, -8
.Ltmp394:
	.cfi_offset 9, -4
.Ltmp395:
	{
		mov r5, r1
		mov r4, r0
	}
.Ltmp396:
	.loc	2 618 2 prologue_end
	{
		eq r0, r4, 0
		nop
	}
	{
		eq r0, r0, 0
		nop
	}
	.loc	2 618 2
	bl assert
	{
		nop
		ldw r0, r4[0]
	}
	.loc	2 619 2
	{
		eq r0, r0, 0
		nop
	}
	{
		eq r0, r0, 0
		nop
	}
	.loc	2 619 2
	bl assert
	{
		nop
		ldw r0, r4[5]
	}
	.loc	2 382 2
.Ltmp397:
	{
		zext r0, 3
		nop
	}
	.loc	2 382 2
	{
		eq r0, r0, 0
		nop
	}
.Ltmp398:
	.loc	2 620 2
	bl assert
	{
		nop
		ldw r0, r4[9]
	}
	bf r0, .LBB23_3
.Ltmp399:
	.loc	2 622 5
	{
		mkmsk r0, 32
		ldw r1, r4[10]
	}
	.loc	2 622 5
	{
		eq r2, r1, r0
		nop
	}
	bt r2, .LBB23_3
.Ltmp400:
	{
		shl r2, r5, 3
		nop
	}
	{
		lsu r1, r1, r2
		nop
	}
	bf r1, .LBB23_3
.Ltmp401:
	.loc	2 624 4
	{
		ldc r6, 0
		stw r0, r4[10]
	}
	bu .LBB23_20
.Ltmp402:
.LBB23_3:
	{
		mkmsk r6, 1
		nop
	}
	bf r5, .LBB23_20
.Ltmp403:
	{
		ldaw r7, sp[1]
		ldc r8, 8
	}
	{
		ldc r9, 0
		nop
	}
.Ltmp404:
.LBB23_8:
	{
		nop
		ldw r0, r4[5]
	}
	bf r0, .LBB23_9
.Ltmp405:
	.loc	2 631 7
	{
		mov r0, r4
		mov r1, r7
	}
	{
		mov r2, r8
		nop
	}
	bl FLAC__bitreader_read_raw_uint32
	bf r0, .LBB23_19
.Ltmp406:
	.loc	2 633 3
	{
		sub r5, r5, 1
		nop
	}
.Ltmp407:
	bt r5, .LBB23_8
	bu .LBB23_20
.Ltmp408:
.LBB23_9:
	{
		ldc r7, 4
		nop
	}
	bu .LBB23_14
.Ltmp409:
.LBB23_13:
	{
		nop
		ldw r0, r4[10]
	}
	.loc	2 644 5
.Ltmp410:
	ldaw r0, r0[-8]
	{
		nop
		stw r0, r4[10]
	}
	bu .LBB23_14
.Ltmp411:
.LBB23_12:
	{
		add r0, r0, 1
		nop
	}
.Ltmp412:
	.loc	2 641 4
	{
		sub r5, r5, 4
		stw r0, r4[4]
	}
.Ltmp413:
	{
		nop
		ldw r0, r4[9]
	}
	bt r0, .LBB23_13
.Ltmp414:
.LBB23_14:
	{
		lsu r0, r5, r7
		nop
	}
	bt r0, .LBB23_10
.Ltmp415:
.LBB23_15:
	{
		nop
		ldw r0, r4[4]
	}
	{
		nop
		ldw r1, r4[2]
	}
	.loc	2 640 6
	{
		lsu r1, r0, r1
		nop
	}
	.loc	2 640 6
	bt r1, .LBB23_12
.Ltmp416:
	.loc	2 646 12
	{
		mov r0, r4
		nop
	}
	bl bitreader_read_from_client_
	bt r0, .LBB23_15
	bu .LBB23_19
.Ltmp417:
.LBB23_10:
	bf r5, .LBB23_20
.Ltmp418:
	{
		ldaw r7, sp[1]
		ldc r8, 8
	}
.Ltmp419:
.LBB23_18:
	.loc	2 651 7
	{
		mov r0, r4
		mov r1, r7
	}
	{
		mov r2, r8
		nop
	}
	bl FLAC__bitreader_read_raw_uint32
	.loc	2 651 7
	bf r0, .LBB23_19
.Ltmp420:
	.loc	2 653 3
	{
		sub r5, r5, 1
		nop
	}
.Ltmp421:
	bt r5, .LBB23_18
	bu .LBB23_20
.Ltmp422:
.LBB23_19:
	{
		mov r6, r9
		nop
	}
.LBB23_20:
	.loc	2 657 1
	{
		mov r0, r6
		nop
	}
	ldd r9, r8, sp[3]
	ldd r7, r6, sp[2]
	ldd r5, r4, sp[1]
	{
		nop
		retsp 8
	}
	# RETURN_REG_HOLDER
.Ltmp423:
	.cc_bottom FLAC__bitreader_skip_byte_block_aligned_no_crc.function
	.set	FLAC__bitreader_skip_byte_block_aligned_no_crc.nstackwords,((assert.nstackwords $M bitreader_read_from_client_.nstackwords $M FLAC__bitreader_read_raw_uint32.nstackwords) + 8)
	.globl	FLAC__bitreader_skip_byte_block_aligned_no_crc.nstackwords
	.set	FLAC__bitreader_skip_byte_block_aligned_no_crc.maxcores,FLAC__bitreader_read_raw_uint32.maxcores $M bitreader_read_from_client_.maxcores $M 1
	.globl	FLAC__bitreader_skip_byte_block_aligned_no_crc.maxcores
	.set	FLAC__bitreader_skip_byte_block_aligned_no_crc.maxtimers,FLAC__bitreader_read_raw_uint32.maxtimers $M bitreader_read_from_client_.maxtimers $M 0
	.globl	FLAC__bitreader_skip_byte_block_aligned_no_crc.maxtimers
	.set	FLAC__bitreader_skip_byte_block_aligned_no_crc.maxchanends,FLAC__bitreader_read_raw_uint32.maxchanends $M bitreader_read_from_client_.maxchanends $M 0
	.globl	FLAC__bitreader_skip_byte_block_aligned_no_crc.maxchanends
.Ltmp424:
	.size	FLAC__bitreader_skip_byte_block_aligned_no_crc, .Ltmp424-FLAC__bitreader_skip_byte_block_aligned_no_crc
.Lfunc_end23:
	.cfi_endproc

	.globl	FLAC__bitreader_read_byte_block_aligned_no_crc
	.align	4
	.type	FLAC__bitreader_read_byte_block_aligned_no_crc,@function
	.cc_top FLAC__bitreader_read_byte_block_aligned_no_crc.function,FLAC__bitreader_read_byte_block_aligned_no_crc
FLAC__bitreader_read_byte_block_aligned_no_crc:
.Lfunc_begin24:
	.loc	2 660 0
	.cfi_startproc
	.issue_mode dual
	{
		nop
		dualentsp 10
	}
.Ltmp425:
	.cfi_def_cfa_offset 40
.Ltmp426:
	.cfi_offset 15, 0
	std r5, r4, sp[1]
.Ltmp427:
	.cfi_offset 4, -32
.Ltmp428:
	.cfi_offset 5, -28
	std r7, r6, sp[2]
.Ltmp429:
	.cfi_offset 6, -24
.Ltmp430:
	.cfi_offset 7, -20
	std r9, r8, sp[3]
.Ltmp431:
	.cfi_offset 8, -16
.Ltmp432:
	.cfi_offset 9, -12
.Ltmp433:
	.cfi_offset 10, -8
.Ltmp434:
	{
		mov r4, r2
		stw r10, sp[8]
	}
.Ltmp435:
	{
		mov r6, r1
		mov r5, r0
	}
.Ltmp436:
	.loc	2 663 2 prologue_end
	{
		eq r0, r5, 0
		nop
	}
	{
		eq r0, r0, 0
		nop
	}
	.loc	2 663 2
	bl assert
	{
		nop
		ldw r0, r5[0]
	}
	.loc	2 664 2
	{
		eq r0, r0, 0
		nop
	}
	{
		eq r0, r0, 0
		nop
	}
	.loc	2 664 2
	bl assert
	{
		nop
		ldw r0, r5[5]
	}
	.loc	2 382 2
.Ltmp437:
	{
		zext r0, 3
		nop
	}
	.loc	2 382 2
	{
		eq r0, r0, 0
		nop
	}
.Ltmp438:
	.loc	2 665 2
	bl assert
	{
		nop
		ldw r0, r5[9]
	}
	bf r0, .LBB24_3
.Ltmp439:
	.loc	2 667 5
	{
		mkmsk r0, 32
		ldw r1, r5[10]
	}
	.loc	2 667 5
	{
		eq r2, r1, r0
		nop
	}
	bt r2, .LBB24_3
.Ltmp440:
	{
		shl r2, r4, 3
		nop
	}
	{
		lsu r1, r1, r2
		nop
	}
	bf r1, .LBB24_3
.Ltmp441:
	.loc	2 669 4
	{
		ldc r7, 0
		stw r0, r5[10]
	}
	bu .LBB24_21
.Ltmp442:
.LBB24_3:
	{
		mkmsk r7, 1
		nop
	}
	bf r4, .LBB24_21
.Ltmp443:
	{
		ldaw r8, sp[1]
		ldc r9, 8
	}
	{
		ldc r10, 0
		nop
	}
.Ltmp444:
.LBB24_5:
	{
		nop
		ldw r0, r5[5]
	}
	bf r0, .LBB24_6
.Ltmp445:
	.loc	2 676 7
	{
		mov r0, r5
		mov r1, r8
	}
	{
		mov r2, r9
		nop
	}
	bl FLAC__bitreader_read_raw_uint32
	.loc	2 676 7
	bf r0, .LBB24_8
.Ltmp446:
	.loc	2 678 3
	{
		add r1, r6, 1
		ldw r0, sp[1]
	}
.Ltmp447:
	.loc	2 678 3
	st8 r0, r6[r10]
.Ltmp448:
	.loc	2 679 3
	{
		sub r4, r4, 1
		mov r6, r1
	}
.Ltmp449:
	bt r4, .LBB24_5
	bu .LBB24_21
.Ltmp450:
.LBB24_6:
	{
		ldc r9, 4
		ldc r8, 0
	}
	{
		mkmsk r7, 1
		mkmsk r10, 2
	}
	bu .LBB24_16
.Ltmp451:
.LBB24_8:
	{
		mov r7, r10
		nop
	}
	bu .LBB24_21
.LBB24_15:
.Ltmp452:
	{
		nop
		ldw r0, r5[10]
	}
	.loc	2 708 5
.Ltmp453:
	ldaw r0, r0[-8]
	{
		nop
		stw r0, r5[10]
	}
	bu .LBB24_16
.Ltmp454:
.LBB24_14:
	.loc	2 686 4
	{
		add r1, r0, 1
		nop
	}
	{
		nop
		stw r1, r5[4]
	}
	{
		nop
		ldw r1, r5[0]
	}
	{
		nop
		ldw r0, r1[r0]
	}
.Ltmp455:
	.loc	2 688 4
	{
		shr r1, r0, 24
		nop
	}
	.loc	2 688 4
	st8 r1, r6[r8]
	.loc	2 689 4
	{
		shr r1, r0, 16
		nop
	}
	.loc	2 689 4
	st8 r1, r6[r7]
	.loc	2 690 4
	{
		shr r1, r0, 8
		ldc r2, 2
	}
	.loc	2 690 4
	st8 r1, r6[r2]
	.loc	2 691 4
	st8 r0, r6[r10]
.Ltmp456:
	.loc	2 705 4
	{
		add r6, r6, 4
		sub r4, r4, 4
	}
.Ltmp457:
	{
		nop
		ldw r0, r5[9]
	}
.Ltmp458:
	bt r0, .LBB24_15
.Ltmp459:
.LBB24_16:
	{
		lsu r0, r4, r9
		nop
	}
	bt r0, .LBB24_10
.Ltmp460:
.LBB24_17:
	{
		nop
		ldw r0, r5[4]
	}
	{
		nop
		ldw r1, r5[2]
	}
	.loc	2 685 6
	{
		lsu r1, r0, r1
		nop
	}
	.loc	2 685 6
	bt r1, .LBB24_14
.Ltmp461:
	.loc	2 710 12
	{
		mov r0, r5
		nop
	}
	bl bitreader_read_from_client_
	bt r0, .LBB24_17
.Ltmp462:
	{
		mov r7, r8
		nop
	}
.LBB24_21:
	.loc	2 722 1
	{
		mov r0, r7
		ldw r10, sp[8]
	}
	ldd r9, r8, sp[3]
	ldd r7, r6, sp[2]
	ldd r5, r4, sp[1]
	{
		nop
		retsp 10
	}
	# RETURN_REG_HOLDER
.LBB24_10:
.Ltmp463:
	bf r4, .LBB24_21
.Ltmp464:
	{
		ldaw r8, sp[1]
		ldc r9, 8
	}
	{
		ldc r10, 0
		nop
	}
.Ltmp465:
.LBB24_12:
	.loc	2 715 7
	{
		mov r0, r5
		mov r1, r8
	}
	{
		mov r2, r9
		nop
	}
	bl FLAC__bitreader_read_raw_uint32
	bf r0, .LBB24_13
.Ltmp466:
	.loc	2 717 3
	{
		add r1, r6, 1
		ldw r0, sp[1]
	}
.Ltmp467:
	.loc	2 717 3
	st8 r0, r6[r10]
.Ltmp468:
	.loc	2 718 3
	{
		sub r4, r4, 1
		mov r6, r1
	}
.Ltmp469:
	bt r4, .LBB24_12
	bu .LBB24_21
.Ltmp470:
.LBB24_13:
	{
		mov r7, r10
		nop
	}
	bu .LBB24_21
	.cc_bottom FLAC__bitreader_read_byte_block_aligned_no_crc.function
	.set	FLAC__bitreader_read_byte_block_aligned_no_crc.nstackwords,((assert.nstackwords $M bitreader_read_from_client_.nstackwords $M FLAC__bitreader_read_raw_uint32.nstackwords) + 10)
	.globl	FLAC__bitreader_read_byte_block_aligned_no_crc.nstackwords
	.set	FLAC__bitreader_read_byte_block_aligned_no_crc.maxcores,FLAC__bitreader_read_raw_uint32.maxcores $M bitreader_read_from_client_.maxcores $M 1
	.globl	FLAC__bitreader_read_byte_block_aligned_no_crc.maxcores
	.set	FLAC__bitreader_read_byte_block_aligned_no_crc.maxtimers,FLAC__bitreader_read_raw_uint32.maxtimers $M bitreader_read_from_client_.maxtimers $M 0
	.globl	FLAC__bitreader_read_byte_block_aligned_no_crc.maxtimers
	.set	FLAC__bitreader_read_byte_block_aligned_no_crc.maxchanends,FLAC__bitreader_read_raw_uint32.maxchanends $M bitreader_read_from_client_.maxchanends $M 0
	.globl	FLAC__bitreader_read_byte_block_aligned_no_crc.maxchanends
.Ltmp471:
	.size	FLAC__bitreader_read_byte_block_aligned_no_crc, .Ltmp471-FLAC__bitreader_read_byte_block_aligned_no_crc
.Lfunc_end24:
	.cfi_endproc

	.globl	FLAC__bitreader_read_unary_unsigned
	.align	4
	.type	FLAC__bitreader_read_unary_unsigned,@function
	.cc_top FLAC__bitreader_read_unary_unsigned.function,FLAC__bitreader_read_unary_unsigned
FLAC__bitreader_read_unary_unsigned:
.Lfunc_begin25:
	.loc	2 744 0
	.cfi_startproc
	.issue_mode dual
	{
		nop
		dualentsp 8
	}
.Ltmp472:
	.cfi_def_cfa_offset 32
.Ltmp473:
	.cfi_offset 15, 0
	std r5, r4, sp[1]
.Ltmp474:
	.cfi_offset 4, -24
.Ltmp475:
	.cfi_offset 5, -20
	std r7, r6, sp[2]
.Ltmp476:
	.cfi_offset 6, -16
.Ltmp477:
	.cfi_offset 7, -12
	std r9, r8, sp[3]
.Ltmp478:
	.cfi_offset 8, -8
.Ltmp479:
	.cfi_offset 9, -4
.Ltmp480:
	{
		mov r6, r1
		mov r5, r0
	}
.Ltmp481:
	.loc	2 747 2 prologue_end
	{
		eq r0, r5, 0
		nop
	}
	{
		eq r0, r0, 0
		nop
	}
	.loc	2 747 2
	bl assert
	{
		nop
		ldw r0, r5[0]
	}
	.loc	2 748 2
	{
		eq r0, r0, 0
		nop
	}
	{
		eq r0, r0, 0
		nop
	}
	.loc	2 748 2
	bl assert
	{
		ldc r4, 0
		nop
	}
	.loc	2 750 2
	{
		ldc r7, 32
		stw r4, r6[0]
	}
	{
		mkmsk r8, 32
		nop
	}
	bu .LBB25_1
.LBB25_6:
.Ltmp482:
	.loc	2 766 5
	{
		sub r0, r7, r1
		ldw r1, r6[0]
	}
	.loc	2 766 5
	{
		add r0, r0, r1
		nop
	}
	{
		nop
		stw r0, r6[0]
	}
	{
		nop
		ldw r0, r5[4]
	}
	.loc	2 767 5
	{
		add r0, r0, 1
		nop
	}
	{
		nop
		stw r0, r5[4]
	}
	{
		nop
		stw r4, r5[5]
	}
.Ltmp483:
.LBB25_1:
	{
		nop
		ldw r0, r5[4]
	}
	{
		nop
		ldw r1, r5[2]
	}
	.loc	2 752 3
	{
		lsu r1, r0, r1
		nop
	}
	bf r1, .LBB25_7
.Ltmp484:
	{
		nop
		ldw r1, r5[5]
	}
	.loc	2 753 4
.Ltmp485:
	{
		shr r2, r1, 5
		nop
	}
	bt r2, .LBB25_6
.Ltmp486:
	{
		nop
		ldw r2, r5[0]
	}
	{
		nop
		ldw r0, r2[r0]
	}
	.loc	2 753 4
	{
		shl r9, r0, r1
		nop
	}
	bf r9, .LBB25_6
	bu .LBB25_4
.Ltmp487:
.LBB25_7:
	{
		nop
		ldw r1, r5[3]
	}
.Ltmp488:
	.loc	2 779 6
	{
		shl r1, r1, 3
		ldw r2, r5[5]
	}
.Ltmp489:
	.loc	2 779 6
	{
		lsu r3, r2, r1
		nop
	}
	bf r3, .LBB25_11
.Ltmp490:
	{
		nop
		ldw r3, r5[0]
	}
	.loc	2 781 4
.Ltmp491:
	{
		sub r3, r7, r1
		ldw r0, r3[r0]
	}
	.loc	2 781 4
	{
		shl r3, r8, r3
		nop
	}
	.loc	2 781 4
	{
		and r0, r0, r3
		nop
	}
	.loc	2 781 4
	{
		shl r9, r0, r2
		nop
	}
	.loc	2 782 7
.Ltmp492:
	bt r9, .LBB25_9
.Ltmp493:
	.loc	2 791 5
	{
		sub r0, r1, r2
		ldw r2, r6[0]
	}
	.loc	2 791 5
	{
		add r0, r0, r2
		nop
	}
	{
		nop
		stw r0, r6[0]
	}
	.loc	2 792 5
	{
		shr r0, r1, 5
		stw r1, r5[5]
	}
	.loc	2 793 5
	{
		eq r0, r0, 0
		nop
	}
	.loc	2 793 5
	bl assert
.Ltmp494:
.LBB25_11:
	.loc	2 797 7
	{
		mov r0, r5
		nop
	}
	bl bitreader_read_from_client_
	bt r0, .LBB25_1
	bu .LBB25_12
.Ltmp495:
.LBB25_4:
	{
		mkmsk r4, 1
		nop
	}
	.file	6 "C:/Users/takaaki/git/sw_xSSDAC/module_libFLAC/source/private\\bitmath.h"
	.loc	6 78 2
.Ltmp496:
	{
		mov r0, r4
		nop
	}
	bl assert
.Ltmp497:
	.loc	6 84 9
	{
		clz r0, r9
		ldw r1, r6[0]
	}
.Ltmp498:
	.loc	2 756 5
	{
		add r1, r1, r0
		nop
	}
	{
		nop
		stw r1, r6[0]
	}
	{
		nop
		ldw r1, r5[5]
	}
	.loc	2 757 5
	{
		add r0, r0, r1
		nop
	}
	.loc	2 758 5
	{
		add r0, r0, 1
		nop
	}
	.loc	2 758 5
	{
		shr r0, r0, 5
		stw r0, r5[5]
	}
	bf r0, .LBB25_12
.Ltmp499:
	{
		nop
		ldw r0, r5[4]
	}
	.loc	2 760 6
.Ltmp500:
	{
		add r0, r0, 1
		nop
	}
	.loc	2 760 6
	{
		ldc r0, 0
		stw r0, r5[4]
	}
	{
		nop
		stw r0, r5[5]
	}
	bu .LBB25_12
.Ltmp501:
.LBB25_9:
	{
		mkmsk r4, 1
		nop
	}
	.loc	6 78 2
.Ltmp502:
	{
		mov r0, r4
		nop
	}
	bl assert
.Ltmp503:
	.loc	6 84 9
	{
		clz r0, r9
		ldw r1, r6[0]
	}
.Ltmp504:
	.loc	2 784 5
	{
		add r1, r1, r0
		nop
	}
	{
		nop
		stw r1, r6[0]
	}
	{
		nop
		ldw r1, r5[5]
	}
	.loc	2 785 5
	{
		add r0, r0, r1
		nop
	}
	.loc	2 786 5
	{
		add r0, r0, 1
		nop
	}
	.loc	2 786 5
	{
		shr r0, r0, 5
		stw r0, r5[5]
	}
	.loc	2 787 5
	{
		eq r0, r0, 0
		nop
	}
	.loc	2 787 5
	bl assert
.Ltmp505:
.LBB25_12:
	.loc	2 800 1
	{
		mov r0, r4
		nop
	}
	ldd r9, r8, sp[3]
	ldd r7, r6, sp[2]
	ldd r5, r4, sp[1]
	{
		nop
		retsp 8
	}
	# RETURN_REG_HOLDER
.Ltmp506:
	.cc_bottom FLAC__bitreader_read_unary_unsigned.function
	.set	FLAC__bitreader_read_unary_unsigned.nstackwords,((bitreader_read_from_client_.nstackwords $M assert.nstackwords) + 8)
	.globl	FLAC__bitreader_read_unary_unsigned.nstackwords
	.set	FLAC__bitreader_read_unary_unsigned.maxcores,bitreader_read_from_client_.maxcores $M 1
	.globl	FLAC__bitreader_read_unary_unsigned.maxcores
	.set	FLAC__bitreader_read_unary_unsigned.maxtimers,bitreader_read_from_client_.maxtimers $M 0
	.globl	FLAC__bitreader_read_unary_unsigned.maxtimers
	.set	FLAC__bitreader_read_unary_unsigned.maxchanends,bitreader_read_from_client_.maxchanends $M 0
	.globl	FLAC__bitreader_read_unary_unsigned.maxchanends
.Ltmp507:
	.size	FLAC__bitreader_read_unary_unsigned, .Ltmp507-FLAC__bitreader_read_unary_unsigned
.Lfunc_end25:
	.cfi_endproc

	.globl	FLAC__bitreader_read_rice_signed_block
	.align	4
	.type	FLAC__bitreader_read_rice_signed_block,@function
	.cc_top FLAC__bitreader_read_rice_signed_block.function,FLAC__bitreader_read_rice_signed_block
FLAC__bitreader_read_rice_signed_block:
.Lfunc_begin26:
	.loc	2 834 0
	.cfi_startproc
	.issue_mode dual
	{
		nop
		dualentsp 18
	}
.Ltmp508:
	.cfi_def_cfa_offset 72
.Ltmp509:
	.cfi_offset 15, 0
	std r5, r4, sp[5]
.Ltmp510:
	.cfi_offset 4, -32
.Ltmp511:
	.cfi_offset 5, -28
	std r7, r6, sp[6]
.Ltmp512:
	.cfi_offset 6, -24
.Ltmp513:
	.cfi_offset 7, -20
	std r9, r8, sp[7]
.Ltmp514:
	.cfi_offset 8, -16
.Ltmp515:
	.cfi_offset 9, -12
.Ltmp516:
	.cfi_offset 10, -8
.Ltmp517:
	{
		mov r5, r3
		stw r10, sp[16]
	}
.Ltmp518:
	{
		mov r8, r2
		mov r6, r1
	}
.Ltmp519:
	{
		mov r4, r0
		nop
	}
.Ltmp520:
	.loc	2 843 2 prologue_end
	{
		eq r0, r4, 0
		nop
	}
	{
		eq r0, r0, 0
		nop
	}
	.loc	2 843 2
	bl assert
	{
		nop
		ldw r0, r4[0]
	}
	.loc	2 844 2
	{
		eq r0, r0, 0
		nop
	}
	{
		eq r0, r0, 0
		nop
	}
	.loc	2 844 2
	bl assert
	{
		mkmsk r9, 1
		nop
	}
	.loc	2 846 2
	{
		mov r0, r9
		nop
	}
	bl assert
	.loc	2 847 2
	{
		shr r0, r5, 5
		nop
	}
	{
		eq r0, r0, 0
		nop
	}
	.loc	2 847 2
	bl assert
	.loc	2 853 2
	ldaw r10, r6[r8]
.Ltmp521:
	.loc	2 855 5
	bf r5, .LBB26_1
.Ltmp522:
	{
		mkmsk r0, 32
		stw r10, sp[7]
	}
	.loc	2 850 2
	{
		shr r0, r0, r5
		nop
	}
.Ltmp523:
	{
		nop
		stw r0, sp[5]
	}
.Ltmp524:
	{
		mkmsk r0, 1
		stw r5, sp[6]
	}
	.loc	2 868 2
	bl assert
	{
		nop
		ldw r8, r4[4]
	}
.Ltmp525:
	.loc	2 871 2
	{
		ldc r1, 0
		ldw r10, r4[2]
	}
.Ltmp526:
	.loc	2 874 5
	{
		lsu r0, r8, r10
		nop
	}
	bf r0, .LBB26_7
.Ltmp527:
	{
		nop
		ldw r0, r4[5]
	}
	{
		nop
		ldw r1, r4[0]
	}
	{
		nop
		ldw r1, r1[r8]
	}
	.loc	2 880 2
	{
		shl r9, r1, r0
		nop
	}
.Ltmp528:
.LBB26_9:
	{
		ldc r1, 32
		nop
	}
	.loc	2 879 2
	{
		sub r2, r1, r0
		ldw r0, sp[7]
	}
	.loc	2 882 2
	{
		lsu r0, r6, r0
		nop
	}
	bf r0, .LBB26_29
.Ltmp529:
	{
		nop
		ldw r3, sp[6]
	}
.Ltmp530:
	.loc	2 906 3
	{
		sub r0, r1, r3
		nop
	}
	{
		nop
		stw r0, sp[4]
	}
.Ltmp531:
.LBB26_11:
	.loc	6 123 6
	bf r9, .LBB26_12
.Ltmp532:
	{
		mkmsk r0, 1
		mov r5, r3
	}
.Ltmp533:
	{
		mov r7, r2
		nop
	}
	.loc	6 78 2
.Ltmp534:
	bl assert
.Ltmp535:
	{
		mov r2, r7
		mov r3, r5
	}
.Ltmp536:
	.loc	6 84 9
	{
		clz r7, r9
		nop
	}
.Ltmp537:
	{
		mov r0, r7
		nop
	}
	bu .LBB26_22
.Ltmp538:
.LBB26_12:
	.loc	2 889 5
	{
		add r8, r8, 1
		nop
	}
	.loc	2 890 9
.Ltmp539:
	{
		lsu r0, r8, r10
		nop
	}
	bf r0, .LBB26_13
.Ltmp540:
	.loc	2 892 5
	{
		mov r7, r2
		ldw r0, r4[0]
	}
.Ltmp541:
.LBB26_20:
	{
		nop
		ldw r9, r0[r8]
	}
	.loc	6 123 6
.Ltmp542:
	bt r9, .LBB26_21
.Ltmp543:
	.loc	2 894 5
	ldaw r7, r7[8]
	.loc	2 889 5
	{
		add r8, r8, 1
		nop
	}
	.loc	2 890 9
.Ltmp544:
	{
		lsu r1, r8, r10
		nop
	}
.Ltmp545:
	bt r1, .LBB26_20
	bu .LBB26_14
.Ltmp546:
.LBB26_21:
	{
		mkmsk r0, 1
		mov r5, r2
	}
	.loc	6 78 2
.Ltmp547:
	bl assert
.Ltmp548:
	{
		mov r2, r5
		clz r0, r9
	}
.Ltmp549:
	.loc	2 894 5
	{
		add r7, r0, r7
		ldw r3, sp[6]
	}
.Ltmp550:
.LBB26_22:
	{
		nop
		stw r7, sp[8]
	}
	{
		nop
		ldw r1, sp[5]
	}
	.loc	2 902 6
.Ltmp551:
	{
		lsu r1, r1, r7
		nop
	}
	.loc	2 902 6
	bt r1, .LBB26_23
.Ltmp552:
	.loc	2 897 3
	{
		shl r0, r9, r0
		nop
	}
.Ltmp553:
	.loc	2 898 3
	{
		shl r1, r0, 1
		mkmsk r0, 5
	}
.Ltmp554:
	.loc	2 899 3
	{
		add r0, r2, r0
		nop
	}
	.loc	2 899 3
	{
		sub r0, r0, r7
		nop
	}
	.loc	2 899 3
	{
		zext r0, 5
		ldw r2, sp[4]
	}
	.loc	2 906 3
	{
		shr r5, r1, r2
		lsu r2, r0, r3
	}
	.loc	2 907 6
.Ltmp555:
	bf r2, .LBB26_25
.Ltmp556:
	.loc	2 912 4
	{
		add r8, r8, 1
		nop
	}
	.loc	2 913 8
.Ltmp557:
	{
		lsu r1, r8, r10
		nop
	}
	bf r1, .LBB26_32
.Ltmp558:
	{
		nop
		ldw r1, r4[0]
	}
	{
		nop
		ldw r1, r1[r8]
	}
.Ltmp559:
	{
		nop
		ldw r2, sp[4]
	}
	.loc	2 916 4
	{
		add r2, r0, r2
		nop
	}
.Ltmp560:
	.loc	2 917 4
	{
		shr r0, r1, r2
		nop
	}
.Ltmp561:
	.loc	2 917 4
	{
		or r5, r0, r5
		ldc r0, 32
	}
.Ltmp562:
	.loc	2 918 4
	{
		sub r0, r0, r2
		nop
	}
	.loc	2 918 4
	{
		shl r9, r1, r0
		nop
	}
.Ltmp563:
	bu .LBB26_28
.Ltmp564:
.LBB26_25:
	.loc	2 908 4
	{
		sub r2, r0, r3
		shl r9, r1, r3
	}
.Ltmp565:
.LBB26_28:
	.loc	2 920 3
	{
		shl r0, r7, r3
		stw r5, sp[9]
	}
	.loc	2 923 3
	{
		or r0, r0, r5
		nop
	}
.Ltmp566:
	.loc	2 924 3
	{
		shr r1, r0, 1
		zext r0, 1
	}
.Ltmp567:
	.loc	2 924 3
	{
		neg r0, r0
		nop
	}
	.loc	2 924 3
	xor r0, r1, r0
.Ltmp568:
	.loc	2 924 3
	{
		add r1, r6, 4
		stw r0, r6[0]
	}
.Ltmp569:
	{
		nop
		ldw r0, sp[7]
	}
.Ltmp570:
	.loc	2 882 2
	{
		lsu r0, r1, r0
		mov r6, r1
	}
.Ltmp571:
	bt r0, .LBB26_11
.Ltmp572:
.LBB26_29:
	.loc	2 966 5
	{
		eq r0, r2, 0
		lsu r1, r8, r10
	}
	.loc	2 966 5
	{
		and r1, r0, r1
		nop
	}
.Ltmp573:
	.loc	2 966 5
	{
		add r0, r1, r8
		nop
	}
	bt r1, .LBB26_30
.Ltmp574:
	{
		ldc r1, 32
		nop
	}
	.loc	2 972 2
	{
		sub r1, r1, r2
		nop
	}
	bu .LBB26_41
.Ltmp575:
.LBB26_1:
	.loc	2 856 3
	{
		lss r0, r8, r9
		nop
	}
	bt r0, .LBB26_42
.Ltmp576:
	{
		ldaw r7, sp[8]
		ldc r5, 0
	}
.Ltmp577:
.LBB26_3:
	.loc	2 858 8
	{
		mov r0, r4
		mov r1, r7
	}
	bl FLAC__bitreader_read_unary_unsigned
	.loc	2 858 8
	bf r0, .LBB26_4
.Ltmp578:
	{
		nop
		ldw r0, sp[8]
	}
	.loc	2 862 4
	{
		shr r1, r0, 1
		zext r0, 1
	}
	.loc	2 862 4
	{
		neg r0, r0
		nop
	}
	.loc	2 862 4
	xor r0, r1, r0
.Ltmp579:
	.loc	2 862 4
	{
		add r1, r6, 4
		stw r0, r6[0]
	}
.Ltmp580:
	.loc	2 856 3
	{
		lsu r0, r1, r10
		mov r6, r1
	}
.Ltmp581:
	bt r0, .LBB26_3
	bu .LBB26_42
.Ltmp582:
.LBB26_7:
	{
		mov r7, r1
		nop
	}
	bu .LBB26_15
.Ltmp583:
.LBB26_30:
	{
		ldc r1, 0
		nop
	}
.Ltmp584:
.LBB26_41:
	{
		mkmsk r9, 1
		stw r1, r4[5]
	}
	{
		nop
		stw r0, r4[4]
	}
	bu .LBB26_42
.Ltmp585:
.LBB26_4:
	{
		mov r9, r5
		nop
	}
	bu .LBB26_42
.LBB26_23:
	{
		ldc r9, 0
		nop
	}
	bu .LBB26_42
.LBB26_13:
.Ltmp586:
	{
		mov r7, r2
		nop
	}
.Ltmp587:
.LBB26_14:
	{
		ldc r0, 0
		nop
	}
	{
		nop
		stw r0, r4[5]
	}
	{
		nop
		stw r8, r4[4]
	}
	bu .LBB26_15
.Ltmp588:
.LBB26_32:
	{
		ldc r1, 0
		nop
	}
	{
		nop
		stw r1, r4[5]
	}
	{
		nop
		stw r8, r4[4]
	}
	bu .LBB26_33
.Ltmp589:
.LBB26_15:
	{
		ldaw r1, sp[8]
		mov r0, r4
	}
.Ltmp590:
	.loc	2 938 8
	bl FLAC__bitreader_read_unary_unsigned
	bf r0, .LBB26_16
.Ltmp591:
	{
		nop
		ldw r0, sp[8]
	}
	.loc	2 940 4
	{
		add r7, r0, r7
		nop
	}
.Ltmp592:
	.loc	2 940 4
	{
		ldc r5, 0
		stw r7, sp[8]
	}
.Ltmp593:
	{
		mov r0, r5
		ldw r3, sp[6]
	}
.Ltmp594:
.LBB26_33:
	.loc	2 950 8
	{
		sub r2, r3, r0
		ldaw r1, sp[9]
	}
.Ltmp595:
	.loc	2 950 8
	{
		mov r0, r4
		mov r8, r3
	}
.Ltmp596:
	bl FLAC__bitreader_read_raw_uint32
	.loc	2 950 8
	bf r0, .LBB26_34
.Ltmp597:
	{
		nop
		ldw r0, sp[9]
	}
	.loc	2 952 4
	{
		or r0, r0, r5
		nop
	}
.Ltmp598:
	.loc	2 952 4
	{
		shl r1, r7, r8
		stw r0, sp[9]
	}
	.loc	2 955 4
	{
		or r0, r1, r0
		nop
	}
.Ltmp599:
	.loc	2 956 4
	{
		shr r1, r0, 1
		zext r0, 1
	}
.Ltmp600:
	.loc	2 956 4
	{
		neg r0, r0
		nop
	}
	.loc	2 956 4
	xor r0, r1, r0
.Ltmp601:
	.loc	2 956 4
	{
		mov r2, r8
		stw r0, r6[0]
	}
.Ltmp602:
	{
		nop
		ldw r8, r4[4]
	}
.Ltmp603:
	{
		nop
		ldw r10, r4[2]
	}
.Ltmp604:
	{
		nop
		ldw r0, r4[5]
	}
	.loc	2 962 4
	{
		ldc r7, 0
		ldw r1, r4[1]
	}
	.loc	2 962 4
	{
		lsu r1, r8, r1
		mov r9, r7
	}
	bf r1, .LBB26_37
.Ltmp605:
	{
		nop
		ldw r1, r4[0]
	}
	{
		nop
		ldw r1, r1[r8]
	}
	.loc	2 962 4
	{
		shl r9, r1, r0
		nop
	}
.Ltmp606:
.LBB26_37:
	.loc	2 956 4
	{
		add r6, r6, 4
		lsu r1, r8, r10
	}
.Ltmp607:
	.loc	2 963 3
	bt r1, .LBB26_38
.Ltmp608:
	{
		nop
		stw r2, sp[6]
	}
.Ltmp609:
	{
		nop
		ldw r1, sp[7]
	}
	{
		lsu r1, r6, r1
		nop
	}
	bt r1, .LBB26_15
	bu .LBB26_9
.Ltmp610:
.LBB26_16:
	{
		ldc r9, 0
		nop
	}
	bu .LBB26_42
.LBB26_34:
	{
		ldc r9, 0
		nop
	}
.LBB26_42:
	.loc	2 976 1
	{
		mov r0, r9
		ldw r10, sp[16]
	}
	ldd r9, r8, sp[7]
	ldd r7, r6, sp[6]
	ldd r5, r4, sp[5]
	{
		nop
		retsp 18
	}
	# RETURN_REG_HOLDER
.Ltmp611:
.LBB26_38:
	{
		nop
		stw r2, sp[6]
	}
.Ltmp612:
	bu .LBB26_9
	.cc_bottom FLAC__bitreader_read_rice_signed_block.function
	.set	FLAC__bitreader_read_rice_signed_block.nstackwords,((FLAC__bitreader_read_unary_unsigned.nstackwords $M FLAC__bitreader_read_raw_uint32.nstackwords $M assert.nstackwords) + 18)
	.globl	FLAC__bitreader_read_rice_signed_block.nstackwords
	.set	FLAC__bitreader_read_rice_signed_block.maxcores,FLAC__bitreader_read_raw_uint32.maxcores $M FLAC__bitreader_read_unary_unsigned.maxcores $M 1
	.globl	FLAC__bitreader_read_rice_signed_block.maxcores
	.set	FLAC__bitreader_read_rice_signed_block.maxtimers,FLAC__bitreader_read_raw_uint32.maxtimers $M FLAC__bitreader_read_unary_unsigned.maxtimers $M 0
	.globl	FLAC__bitreader_read_rice_signed_block.maxtimers
	.set	FLAC__bitreader_read_rice_signed_block.maxchanends,FLAC__bitreader_read_raw_uint32.maxchanends $M FLAC__bitreader_read_unary_unsigned.maxchanends $M 0
	.globl	FLAC__bitreader_read_rice_signed_block.maxchanends
.Ltmp613:
	.size	FLAC__bitreader_read_rice_signed_block, .Ltmp613-FLAC__bitreader_read_rice_signed_block
.Lfunc_end26:
	.cfi_endproc

	.globl	FLAC__bitreader_read_utf8_uint32
	.align	4
	.type	FLAC__bitreader_read_utf8_uint32,@function
	.cc_top FLAC__bitreader_read_utf8_uint32.function,FLAC__bitreader_read_utf8_uint32
FLAC__bitreader_read_utf8_uint32:
.Lfunc_begin27:
	.loc	2 1064 0
	.cfi_startproc
	.issue_mode dual
	{
		nop
		dualentsp 12
	}
.Ltmp614:
	.cfi_def_cfa_offset 48
.Ltmp615:
	.cfi_offset 15, 0
	std r5, r4, sp[2]
.Ltmp616:
	.cfi_offset 4, -32
.Ltmp617:
	.cfi_offset 5, -28
	std r7, r6, sp[3]
.Ltmp618:
	.cfi_offset 6, -24
.Ltmp619:
	.cfi_offset 7, -20
	std r9, r8, sp[4]
.Ltmp620:
	.cfi_offset 8, -16
.Ltmp621:
	.cfi_offset 9, -12
.Ltmp622:
	.cfi_offset 10, -8
.Ltmp623:
	{
		mov r7, r3
		stw r10, sp[10]
	}
.Ltmp624:
	{
		mov r8, r2
		mov r4, r1
	}
.Ltmp625:
	{
		mov r6, r0
		ldaw r1, sp[3]
	}
.Ltmp626:
	{
		ldc r5, 8
		nop
	}
	.loc	2 1069 6 prologue_end
.Ltmp627:
	{
		mov r2, r5
		nop
	}
	bl FLAC__bitreader_read_raw_uint32
	{
		ldc r1, 0
		nop
	}
	bf r0, .LBB27_32
.Ltmp628:
	{
		nop
		stw r4, sp[2]
	}
.Ltmp629:
	{
		nop
		ldw r4, sp[3]
	}
	bf r8, .LBB27_3
.Ltmp630:
	{
		nop
		ldw r0, r7[0]
	}
	.loc	2 1072 3
.Ltmp631:
	{
		add r1, r0, 1
		nop
	}
	{
		nop
		stw r1, r7[0]
	}
	.loc	2 1072 3
	st8 r4, r8[r0]
.Ltmp632:
.LBB27_3:
	ldc r9, 128
	.loc	2 1073 5
.Ltmp633:
	{
		and r0, r4, r9
		nop
	}
	bf r0, .LBB27_30
.Ltmp634:
	ldc r10, 192
	.loc	2 1077 10
.Ltmp635:
	{
		and r0, r4, r10
		nop
	}
	bf r0, .LBB27_15
.Ltmp636:
	{
		ldc r0, 32
		nop
	}
	{
		and r0, r4, r0
		nop
	}
	bt r0, .LBB27_15
.Ltmp637:
	.loc	2 1078 3
	{
		zext r4, 5
		mkmsk r5, 1
	}
.Ltmp638:
	bu .LBB27_7
.Ltmp639:
.LBB27_15:
	ldc r0, 224
	.loc	2 1081 10
.Ltmp640:
	{
		and r0, r4, r0
		nop
	}
	bf r0, .LBB27_18
.Ltmp641:
	{
		ldc r0, 16
		nop
	}
	{
		and r0, r4, r0
		nop
	}
	bt r0, .LBB27_18
.Ltmp642:
	.loc	2 1082 3
	{
		zext r4, 4
		ldc r5, 2
	}
.Ltmp643:
	bu .LBB27_7
.Ltmp644:
.LBB27_18:
	ldc r0, 240
	.loc	2 1085 10
.Ltmp645:
	{
		and r0, r4, r0
		nop
	}
	bf r0, .LBB27_21
.Ltmp646:
	{
		and r0, r4, r5
		nop
	}
	bt r0, .LBB27_21
.Ltmp647:
	.loc	2 1086 3
	{
		zext r4, 3
		mkmsk r5, 2
	}
.Ltmp648:
	bu .LBB27_7
.Ltmp649:
.LBB27_21:
	ldc r0, 248
	.loc	2 1089 10
.Ltmp650:
	{
		and r0, r4, r0
		nop
	}
	bf r0, .LBB27_24
.Ltmp651:
	{
		ldc r5, 4
		nop
	}
	{
		and r0, r4, r5
		nop
	}
	bt r0, .LBB27_24
.Ltmp652:
	.loc	2 1090 3
	{
		zext r4, 2
		nop
	}
.Ltmp653:
	bu .LBB27_7
.Ltmp654:
.LBB27_24:
	ldc r0, 252
	.loc	2 1093 10
.Ltmp655:
	{
		and r0, r4, r0
		nop
	}
	bf r0, .LBB27_28
.Ltmp656:
	{
		ldc r0, 2
		nop
	}
	{
		and r0, r4, r0
		nop
	}
	bt r0, .LBB27_28
.Ltmp657:
	.loc	2 1094 3
	{
		zext r4, 1
		ldc r5, 5
	}
.Ltmp658:
.LBB27_7:
	bf r8, .LBB27_8
.Ltmp659:
.LBB27_11:
	.loc	2 1102 7
	{
		mov r0, r6
		ldaw r1, sp[3]
	}
	{
		ldc r2, 8
		nop
	}
	bl FLAC__bitreader_read_raw_uint32
	.loc	2 1102 7
	bf r0, .LBB27_12
.Ltmp660:
	{
		nop
		ldw r0, sp[3]
	}
	{
		nop
		ldw r1, r7[0]
	}
	.loc	2 1105 4
.Ltmp661:
	{
		add r2, r1, 1
		nop
	}
	{
		nop
		stw r2, r7[0]
	}
	.loc	2 1105 4
	st8 r0, r8[r1]
.Ltmp662:
	.loc	2 1106 6
	{
		and r1, r0, r10
		nop
	}
	.loc	2 1106 6
	{
		eq r1, r1, r9
		nop
	}
	bf r1, .LBB27_28
.Ltmp663:
	.loc	2 1110 3
	{
		shl r1, r4, 6
		zext r0, 6
	}
.Ltmp664:
	.loc	2 1111 3
	{
		or r4, r0, r1
		sub r5, r5, 1
	}
.Ltmp665:
	bt r5, .LBB27_11
	bu .LBB27_30
.Ltmp666:
.LBB27_8:
	{
		ldaw r7, sp[3]
		ldc r8, 8
	}
.Ltmp667:
.LBB27_9:
	.loc	2 1102 7
	{
		mov r0, r6
		mov r1, r7
	}
	{
		mov r2, r8
		nop
	}
	bl FLAC__bitreader_read_raw_uint32
	bf r0, .LBB27_10
.Ltmp668:
	{
		nop
		ldw r0, sp[3]
	}
	.loc	2 1106 6
.Ltmp669:
	{
		and r1, r0, r10
		nop
	}
	.loc	2 1106 6
	{
		eq r1, r1, r9
		nop
	}
	bf r1, .LBB27_28
.Ltmp670:
	.loc	2 1110 3
	{
		shl r1, r4, 6
		zext r0, 6
	}
.Ltmp671:
	.loc	2 1111 3
	{
		or r4, r0, r1
		sub r5, r5, 1
	}
.Ltmp672:
	bt r5, .LBB27_9
.Ltmp673:
.LBB27_30:
	{
		nop
		ldw r0, sp[2]
	}
	{
		nop
		stw r4, r0[0]
	}
	bu .LBB27_31
.Ltmp674:
.LBB27_28:
	{
		mkmsk r0, 32
		ldw r1, sp[2]
	}
	{
		nop
		stw r0, r1[0]
	}
.Ltmp675:
.LBB27_31:
	{
		mkmsk r1, 1
		nop
	}
.LBB27_32:
	.loc	2 1115 1
	{
		mov r0, r1
		ldw r10, sp[10]
	}
	ldd r9, r8, sp[4]
	ldd r7, r6, sp[3]
	ldd r5, r4, sp[2]
	{
		nop
		retsp 12
	}
	# RETURN_REG_HOLDER
.Ltmp676:
.LBB27_12:
	{
		ldc r2, 0
		nop
	}
	{
		mov r1, r2
		nop
	}
	bu .LBB27_32
.LBB27_10:
	{
		ldc r1, 0
		nop
	}
	bu .LBB27_32
	.cc_bottom FLAC__bitreader_read_utf8_uint32.function
	.set	FLAC__bitreader_read_utf8_uint32.nstackwords,(FLAC__bitreader_read_raw_uint32.nstackwords + 12)
	.globl	FLAC__bitreader_read_utf8_uint32.nstackwords
	.set	FLAC__bitreader_read_utf8_uint32.maxcores,FLAC__bitreader_read_raw_uint32.maxcores $M 1
	.globl	FLAC__bitreader_read_utf8_uint32.maxcores
	.set	FLAC__bitreader_read_utf8_uint32.maxtimers,FLAC__bitreader_read_raw_uint32.maxtimers $M 0
	.globl	FLAC__bitreader_read_utf8_uint32.maxtimers
	.set	FLAC__bitreader_read_utf8_uint32.maxchanends,FLAC__bitreader_read_raw_uint32.maxchanends $M 0
	.globl	FLAC__bitreader_read_utf8_uint32.maxchanends
.Ltmp677:
	.size	FLAC__bitreader_read_utf8_uint32, .Ltmp677-FLAC__bitreader_read_utf8_uint32
.Lfunc_end27:
	.cfi_endproc

	.globl	FLAC__bitreader_read_utf8_uint64
	.align	4
	.type	FLAC__bitreader_read_utf8_uint64,@function
	.cc_top FLAC__bitreader_read_utf8_uint64.function,FLAC__bitreader_read_utf8_uint64
FLAC__bitreader_read_utf8_uint64:
.Lfunc_begin28:
	.loc	2 1119 0
	.cfi_startproc
	.issue_mode dual
	{
		nop
		dualentsp 12
	}
.Ltmp678:
	.cfi_def_cfa_offset 48
.Ltmp679:
	.cfi_offset 15, 0
	std r5, r4, sp[2]
.Ltmp680:
	.cfi_offset 4, -32
.Ltmp681:
	.cfi_offset 5, -28
	std r7, r6, sp[3]
.Ltmp682:
	.cfi_offset 6, -24
.Ltmp683:
	.cfi_offset 7, -20
	std r9, r8, sp[4]
.Ltmp684:
	.cfi_offset 8, -16
.Ltmp685:
	.cfi_offset 9, -12
.Ltmp686:
	.cfi_offset 10, -8
.Ltmp687:
	{
		mov r7, r3
		stw r10, sp[10]
	}
.Ltmp688:
	{
		mov r8, r2
		mov r4, r1
	}
.Ltmp689:
	{
		mov r6, r0
		ldaw r1, sp[3]
	}
.Ltmp690:
	{
		ldc r9, 8
		nop
	}
	.loc	2 1124 6 prologue_end
.Ltmp691:
	{
		mov r2, r9
		nop
	}
	bl FLAC__bitreader_read_raw_uint32
	{
		ldc r1, 0
		nop
	}
	bf r0, .LBB28_37
.Ltmp692:
	{
		nop
		ldw r5, sp[3]
	}
	bf r8, .LBB28_3
.Ltmp693:
	{
		nop
		ldw r0, r7[0]
	}
	.loc	2 1127 3
.Ltmp694:
	{
		add r1, r0, 1
		nop
	}
	{
		nop
		stw r1, r7[0]
	}
	.loc	2 1127 3
	st8 r5, r8[r0]
.Ltmp695:
.LBB28_3:
	ldc r0, 128
	.loc	2 1128 5
.Ltmp696:
	{
		and r0, r5, r0
		nop
	}
	.loc	2 1128 5
	bf r0, .LBB28_38
.Ltmp697:
	ldc r0, 192
	.loc	2 1132 10
.Ltmp698:
	{
		and r0, r5, r0
		nop
	}
	bf r0, .LBB28_7
.Ltmp699:
	{
		ldc r0, 32
		nop
	}
	{
		and r0, r5, r0
		nop
	}
	bt r0, .LBB28_7
.Ltmp700:
	{
		zext r5, 5
		stw r4, sp[2]
	}
.Ltmp701:
	{
		ldc r4, 0
		mkmsk r9, 1
	}
	bu .LBB28_22
.Ltmp702:
.LBB28_38:
	{
		ldc r4, 0
		stw r4, sp[2]
	}
	bu .LBB28_35
.Ltmp703:
.LBB28_7:
	ldc r0, 224
	.loc	2 1136 10
.Ltmp704:
	{
		and r0, r5, r0
		nop
	}
	bf r0, .LBB28_10
.Ltmp705:
	{
		ldc r0, 16
		nop
	}
	{
		and r0, r5, r0
		nop
	}
	bt r0, .LBB28_10
.Ltmp706:
	{
		zext r5, 4
		stw r4, sp[2]
	}
.Ltmp707:
	{
		ldc r4, 0
		ldc r9, 2
	}
	bu .LBB28_22
.Ltmp708:
.LBB28_10:
	ldc r0, 240
	.loc	2 1140 10
.Ltmp709:
	{
		and r0, r5, r0
		nop
	}
	bf r0, .LBB28_13
.Ltmp710:
	{
		and r0, r5, r9
		nop
	}
	bt r0, .LBB28_13
.Ltmp711:
	{
		zext r5, 3
		stw r4, sp[2]
	}
.Ltmp712:
	{
		ldc r4, 0
		mkmsk r9, 2
	}
	bu .LBB28_22
.Ltmp713:
.LBB28_13:
	ldc r0, 248
	.loc	2 1144 10
.Ltmp714:
	{
		and r0, r5, r0
		nop
	}
	bf r0, .LBB28_16
.Ltmp715:
	{
		ldc r9, 4
		nop
	}
	{
		and r0, r5, r9
		nop
	}
	bt r0, .LBB28_16
.Ltmp716:
	{
		zext r5, 2
		stw r4, sp[2]
	}
	{
		ldc r4, 0
		nop
	}
.Ltmp717:
	bu .LBB28_22
.Ltmp718:
.LBB28_16:
	ldc r0, 252
	.loc	2 1148 10
.Ltmp719:
	{
		and r0, r5, r0
		nop
	}
	bf r0, .LBB28_19
.Ltmp720:
	{
		ldc r0, 2
		nop
	}
	{
		and r0, r5, r0
		nop
	}
	bt r0, .LBB28_19
.Ltmp721:
	{
		zext r5, 1
		stw r4, sp[2]
	}
.Ltmp722:
	{
		ldc r4, 0
		ldc r9, 5
	}
	bu .LBB28_22
.Ltmp723:
.LBB28_19:
	ldc r0, 254
	.loc	2 1152 10
.Ltmp724:
	{
		and r0, r5, r0
		nop
	}
	bf r0, .LBB28_28
.Ltmp725:
	{
		zext r5, 1
		nop
	}
	bt r5, .LBB28_28
.Ltmp726:
	{
		ldc r5, 0
		stw r4, sp[2]
	}
	{
		ldc r9, 6
		mov r4, r5
	}
.Ltmp727:
.LBB28_22:
	bf r8, .LBB28_29
.Ltmp728:
	{
		ldc r10, 8
		nop
	}
.Ltmp729:
.LBB28_24:
	.loc	2 1161 7
	{
		mov r0, r6
		ldaw r1, sp[3]
	}
	{
		mov r2, r10
		nop
	}
	bl FLAC__bitreader_read_raw_uint32
	.loc	2 1161 7
	bf r0, .LBB28_25
.Ltmp730:
	{
		nop
		ldw r0, sp[3]
	}
	{
		nop
		ldw r1, r7[0]
	}
	.loc	2 1164 4
.Ltmp731:
	{
		add r2, r1, 1
		nop
	}
	{
		nop
		stw r2, r7[0]
	}
	.loc	2 1164 4
	st8 r0, r8[r1]
	ldc r1, 192
.Ltmp732:
	.loc	2 1165 6
	{
		and r1, r0, r1
		nop
	}
	ldc r2, 128
	.loc	2 1165 6
	{
		eq r1, r1, r2
		nop
	}
	bf r1, .LBB28_33
.Ltmp733:
	{
		ldc r1, 26
		nop
	}
	.loc	2 1169 3
	{
		shr r1, r5, r1
		shl r2, r4, 6
	}
	{
		or r4, r2, r1
		shl r1, r5, 6
	}
	.loc	2 1170 3
	{
		zext r0, 6
		nop
	}
.Ltmp734:
	.loc	2 1170 3
	{
		or r5, r0, r1
		sub r9, r9, 1
	}
.Ltmp735:
	bt r9, .LBB28_24
	bu .LBB28_35
.Ltmp736:
.LBB28_29:
	{
		ldaw r7, sp[3]
		ldc r8, 8
	}
	{
		ldc r10, 26
		nop
	}
.Ltmp737:
.LBB28_30:
	.loc	2 1161 7
	{
		mov r0, r6
		mov r1, r7
	}
	{
		mov r2, r8
		nop
	}
	bl FLAC__bitreader_read_raw_uint32
	.loc	2 1161 7
	bf r0, .LBB28_31
.Ltmp738:
	{
		nop
		ldw r0, sp[3]
	}
	ldc r1, 192
	.loc	2 1165 6
.Ltmp739:
	{
		and r1, r0, r1
		nop
	}
	ldc r2, 128
	.loc	2 1165 6
	{
		eq r1, r1, r2
		nop
	}
	bf r1, .LBB28_33
.Ltmp740:
	.loc	2 1169 3
	{
		shr r1, r5, r10
		shl r2, r4, 6
	}
	{
		or r4, r2, r1
		shl r1, r5, 6
	}
	.loc	2 1170 3
	{
		zext r0, 6
		nop
	}
.Ltmp741:
	.loc	2 1170 3
	{
		or r5, r0, r1
		sub r9, r9, 1
	}
.Ltmp742:
	bt r9, .LBB28_30
.Ltmp743:
.LBB28_35:
	{
		nop
		ldw r0, sp[2]
	}
	.loc	2 1172 2
	std r4, r5, r0[0]
	bu .LBB28_36
.Ltmp744:
.LBB28_33:
	{
		mkmsk r0, 32
		ldw r1, sp[2]
	}
	.loc	2 1166 4
.Ltmp745:
	std r0, r0, r1[0]
.Ltmp746:
.LBB28_36:
	{
		mkmsk r1, 1
		nop
	}
.LBB28_37:
	.loc	2 1174 1
	{
		mov r0, r1
		ldw r10, sp[10]
	}
	ldd r9, r8, sp[4]
	ldd r7, r6, sp[3]
	ldd r5, r4, sp[2]
	{
		nop
		retsp 12
	}
	# RETURN_REG_HOLDER
.LBB28_25:
	{
		ldc r1, 0
		nop
	}
	bu .LBB28_37
.LBB28_31:
	{
		ldc r1, 0
		nop
	}
	bu .LBB28_37
.LBB28_28:
.Ltmp747:
	{
		mkmsk r0, 32
		nop
	}
	.loc	2 1157 3
.Ltmp748:
	std r0, r0, r4[0]
	bu .LBB28_36
.Ltmp749:
	.cc_bottom FLAC__bitreader_read_utf8_uint64.function
	.set	FLAC__bitreader_read_utf8_uint64.nstackwords,(FLAC__bitreader_read_raw_uint32.nstackwords + 12)
	.globl	FLAC__bitreader_read_utf8_uint64.nstackwords
	.set	FLAC__bitreader_read_utf8_uint64.maxcores,FLAC__bitreader_read_raw_uint32.maxcores $M 1
	.globl	FLAC__bitreader_read_utf8_uint64.maxcores
	.set	FLAC__bitreader_read_utf8_uint64.maxtimers,FLAC__bitreader_read_raw_uint32.maxtimers $M 0
	.globl	FLAC__bitreader_read_utf8_uint64.maxtimers
	.set	FLAC__bitreader_read_utf8_uint64.maxchanends,FLAC__bitreader_read_raw_uint32.maxchanends $M 0
	.globl	FLAC__bitreader_read_utf8_uint64.maxchanends
.Ltmp750:
	.size	FLAC__bitreader_read_utf8_uint64, .Ltmp750-FLAC__bitreader_read_utf8_uint64
.Lfunc_end28:
	.cfi_endproc

.Ldebug_end0:
	.section	.trap_info,"",@progbits
.Ltrap_info_entries_start0:
	.long	.Ltrap_info_entries_end0-.Ltrap_info_entries_start0
	.long	1
.Ltrap_info_entries_end0: