	.text
	.file	"bitwriter.c"
	.text
	.globl	FLAC__bitwriter_new
	.align	4
	.type	FLAC__bitwriter_new,@function
	.cc_top FLAC__bitwriter_new.function,FLAC__bitwriter_new
FLAC__bitwriter_new:
.Lfunc_begin0:
	.loc	2 152 0
	.cfi_startproc
	.issue_mode dual
.Ltmp0:
	.cfi_def_cfa_offset 8
.Ltmp1:
	.cfi_offset 15, 0
	{
		mkmsk r0, 1
		dualentsp 2
	}
	{
		ldc r1, 20
		nop
	}
	.loc	2 153 24 prologue_end
.Ltmp2:
	bl calloc
.Ltmp3:
	{
		nop
		retsp 2
	}
	.loc	2 155 2
	# RETURN_REG_HOLDER
.Ltmp4:
	.cc_bottom FLAC__bitwriter_new.function
	.set	FLAC__bitwriter_new.nstackwords,(calloc.nstackwords + 2)
	.globl	FLAC__bitwriter_new.nstackwords
	.set	FLAC__bitwriter_new.maxcores,calloc.maxcores $M 1
	.globl	FLAC__bitwriter_new.maxcores
	.set	FLAC__bitwriter_new.maxtimers,calloc.maxtimers $M 0
	.globl	FLAC__bitwriter_new.maxtimers
	.set	FLAC__bitwriter_new.maxchanends,calloc.maxchanends $M 0
	.globl	FLAC__bitwriter_new.maxchanends
.Ltmp5:
	.size	FLAC__bitwriter_new, .Ltmp5-FLAC__bitwriter_new
.Lfunc_end0:
	.cfi_endproc

	.globl	FLAC__bitwriter_delete
	.align	4
	.type	FLAC__bitwriter_delete,@function
	.cc_top FLAC__bitwriter_delete.function,FLAC__bitwriter_delete
FLAC__bitwriter_delete:
.Lfunc_begin1:
	.loc	2 159 0
	.cfi_startproc
	.issue_mode dual
	{
		nop
		dualentsp 4
	}
.Ltmp6:
	.cfi_def_cfa_offset 16
.Ltmp7:
	.cfi_offset 15, 0
	std r5, r4, sp[1]
.Ltmp8:
	.cfi_offset 4, -8
.Ltmp9:
	.cfi_offset 5, -4
	{
		mov r4, r0
		nop
	}
.Ltmp10:
	.loc	2 160 2 prologue_end
	{
		eq r0, r4, 0
		nop
	}
	{
		eq r5, r0, 0
		nop
	}
	.loc	2 160 2
	{
		mov r0, r5
		nop
	}
	bl assert
.Ltmp11:
	.loc	2 187 2
	{
		mov r0, r5
		nop
	}
	bl assert
	{
		nop
		ldw r0, r4[0]
	}
	bf r0, .LBB1_2
.Ltmp12:
	.loc	2 190 3
	bl free
.Ltmp13:
.LBB1_2:
	.loc	2 163 2
	{
		mov r0, r4
		nop
	}
	bl free
	.loc	2 164 1
	ldd r5, r4, sp[1]
.Ltmp14:
	{
		nop
		retsp 4
	}
	# RETURN_REG_HOLDER
.Ltmp15:
	.cc_bottom FLAC__bitwriter_delete.function
	.set	FLAC__bitwriter_delete.nstackwords,((assert.nstackwords $M free.nstackwords) + 4)
	.globl	FLAC__bitwriter_delete.nstackwords
	.set	FLAC__bitwriter_delete.maxcores,free.maxcores $M 1
	.globl	FLAC__bitwriter_delete.maxcores
	.set	FLAC__bitwriter_delete.maxtimers,free.maxtimers $M 0
	.globl	FLAC__bitwriter_delete.maxtimers
	.set	FLAC__bitwriter_delete.maxchanends,free.maxchanends $M 0
	.globl	FLAC__bitwriter_delete.maxchanends
.Ltmp16:
	.size	FLAC__bitwriter_delete, .Ltmp16-FLAC__bitwriter_delete
.Lfunc_end1:
	.file	4 "C:/Users/takaaki/git/sw_xSSDAC/module_libFLAC/source/private\\bitwriter.h"
	.cfi_endproc

	.globl	FLAC__bitwriter_free
	.align	4
	.type	FLAC__bitwriter_free,@function
	.cc_top FLAC__bitwriter_free.function,FLAC__bitwriter_free
FLAC__bitwriter_free:
.Lfunc_begin2:
	.loc	2 186 0
	.cfi_startproc
	.issue_mode dual
	{
		nop
		dualentsp 4
	}
.Ltmp17:
	.cfi_def_cfa_offset 16
.Ltmp18:
	.cfi_offset 15, 0
.Ltmp19:
	.cfi_offset 4, -8
.Ltmp20:
	{
		mov r4, r0
		stw r4, sp[2]
	}
.Ltmp21:
	.loc	2 187 2 prologue_end
	{
		eq r0, r4, 0
		nop
	}
	{
		eq r0, r0, 0
		nop
	}
	.loc	2 187 2
	bl assert
	{
		nop
		ldw r0, r4[0]
	}
	bf r0, .LBB2_2
.Ltmp22:
	.loc	2 190 3
	bl free
.Ltmp23:
.LBB2_2:
	{
		ldc r0, 0
		nop
	}
	{
		nop
		stw r0, r4[0]
	}
	{
		nop
		stw r0, r4[2]
	}
	{
		nop
		stw r0, r4[4]
	}
	{
		nop
		stw r0, r4[3]
	}
	{
		nop
		ldw r4, sp[2]
	}
.Ltmp24:
	{
		nop
		retsp 4
	}
	.loc	2 194 1
	# RETURN_REG_HOLDER
.Ltmp25:
	.cc_bottom FLAC__bitwriter_free.function
	.set	FLAC__bitwriter_free.nstackwords,((assert.nstackwords $M free.nstackwords) + 4)
	.globl	FLAC__bitwriter_free.nstackwords
	.set	FLAC__bitwriter_free.maxcores,free.maxcores $M 1
	.globl	FLAC__bitwriter_free.maxcores
	.set	FLAC__bitwriter_free.maxtimers,free.maxtimers $M 0
	.globl	FLAC__bitwriter_free.maxtimers
	.set	FLAC__bitwriter_free.maxchanends,free.maxchanends $M 0
	.globl	FLAC__bitwriter_free.maxchanends
.Ltmp26:
	.size	FLAC__bitwriter_free, .Ltmp26-FLAC__bitwriter_free
.Lfunc_end2:
	.cfi_endproc

	.globl	FLAC__bitwriter_init
	.align	4
	.type	FLAC__bitwriter_init,@function
	.cc_top FLAC__bitwriter_init.function,FLAC__bitwriter_init
FLAC__bitwriter_init:
.Lfunc_begin3:
	.loc	2 173 0
	.cfi_startproc
	.issue_mode dual
	{
		nop
		dualentsp 4
	}
.Ltmp27:
	.cfi_def_cfa_offset 16
.Ltmp28:
	.cfi_offset 15, 0
.Ltmp29:
	.cfi_offset 4, -8
.Ltmp30:
	{
		mov r4, r0
		stw r4, sp[2]
	}
.Ltmp31:
	.loc	2 174 2 prologue_end
	{
		eq r0, r4, 0
		nop
	}
	{
		eq r0, r0, 0
		nop
	}
	.loc	2 174 2
	bl assert
	{
		ldc r0, 0
		nop
	}
	{
		nop
		stw r0, r4[4]
	}
	{
		nop
		stw r0, r4[3]
	}
	ldc r0, 8192
	{
		nop
		stw r0, r4[2]
	}
	ldc r0, 32768
	.loc	2 178 15
	bl malloc
	.loc	2 178 15
	{
		eq r0, r0, 0
		stw r0, r4[0]
	}
	.loc	2 180 3
.Ltmp32:
	{
		eq r0, r0, 0
		ldw r4, sp[2]
	}
	{
		nop
		retsp 4
	}
.Ltmp33:
	.loc	2 183 1
	# RETURN_REG_HOLDER
.Ltmp34:
	.cc_bottom FLAC__bitwriter_init.function
	.set	FLAC__bitwriter_init.nstackwords,((assert.nstackwords $M malloc.nstackwords) + 4)
	.globl	FLAC__bitwriter_init.nstackwords
	.set	FLAC__bitwriter_init.maxcores,malloc.maxcores $M 1
	.globl	FLAC__bitwriter_init.maxcores
	.set	FLAC__bitwriter_init.maxtimers,malloc.maxtimers $M 0
	.globl	FLAC__bitwriter_init.maxtimers
	.set	FLAC__bitwriter_init.maxchanends,malloc.maxchanends $M 0
	.globl	FLAC__bitwriter_init.maxchanends
.Ltmp35:
	.size	FLAC__bitwriter_init, .Ltmp35-FLAC__bitwriter_init
.Lfunc_end3:
	.cfi_endproc

	.globl	FLAC__bitwriter_clear
	.align	4
	.type	FLAC__bitwriter_clear,@function
	.cc_top FLAC__bitwriter_clear.function,FLAC__bitwriter_clear
FLAC__bitwriter_clear:
.Lfunc_begin4:
	.loc	2 197 0
	.cfi_startproc
	.issue_mode dual
	{
		ldc r1, 0
		dualentsp 0
	}
	{
		nop
		stw r1, r0[4]
	}
	{
		nop
		stw r1, r0[3]
	}
	{
		nop
		retsp 0
	}
	.loc	2 199 1 prologue_end
.Ltmp36:
	# RETURN_REG_HOLDER
.Ltmp37:
	.cc_bottom FLAC__bitwriter_clear.function
	.set	FLAC__bitwriter_clear.nstackwords,0
	.globl	FLAC__bitwriter_clear.nstackwords
	.set	FLAC__bitwriter_clear.maxcores,1
	.globl	FLAC__bitwriter_clear.maxcores
	.set	FLAC__bitwriter_clear.maxtimers,0
	.globl	FLAC__bitwriter_clear.maxtimers
	.set	FLAC__bitwriter_clear.maxchanends,0
	.globl	FLAC__bitwriter_clear.maxchanends
.Ltmp38:
	.size	FLAC__bitwriter_clear, .Ltmp38-FLAC__bitwriter_clear
.Lfunc_end4:
	.cfi_endproc

	.globl	FLAC__bitwriter_get_write_crc16
	.align	4
	.type	FLAC__bitwriter_get_write_crc16,@function
	.cc_top FLAC__bitwriter_get_write_crc16.function,FLAC__bitwriter_get_write_crc16
FLAC__bitwriter_get_write_crc16:
.Lfunc_begin5:
	.loc	2 202 0
	.cfi_startproc
	.issue_mode dual
	{
		nop
		dualentsp 6
	}
.Ltmp39:
	.cfi_def_cfa_offset 24
.Ltmp40:
	.cfi_offset 15, 0
	std r5, r4, sp[1]
.Ltmp41:
	.cfi_offset 4, -16
.Ltmp42:
	.cfi_offset 5, -12
	std r7, r6, sp[2]
.Ltmp43:
	.cfi_offset 6, -8
.Ltmp44:
	.cfi_offset 7, -4
.Ltmp45:
	{
		mov r4, r1
		mov r5, r0
	}
.Ltmp46:
	{
		nop
		ldw r0, r5[4]
	}
	.loc	2 206 2 prologue_end
.Ltmp47:
	{
		zext r0, 3
		nop
	}
	.loc	2 206 2
	{
		eq r0, r0, 0
		nop
	}
	.loc	2 206 2
	bl assert
	{
		nop
		ldw r0, r5[4]
	}
	.loc	2 243 2
.Ltmp48:
	{
		zext r0, 3
		nop
	}
	.loc	2 243 2
	{
		eq r0, r0, 0
		nop
	}
	.loc	2 243 2
	bl assert
	{
		nop
		ldw r0, r5[4]
	}
	.loc	2 245 5
.Ltmp49:
	{
		mov r1, r0
		nop
	}
	{
		zext r1, 3
		ldc r6, 0
	}
	bt r1, .LBB5_8
.Ltmp50:
	.loc	2 248 5
	bf r0, .LBB5_2
.Ltmp51:
	.loc	2 249 3
	ldaw r7, r5[3]
	{
		nop
		ldw r0, r5[3]
	}
	{
		nop
		ldw r1, r5[2]
	}
	.loc	2 249 3
	{
		lsu r0, r1, r0
		nop
	}
	{
		eq r0, r0, 0
		nop
	}
	.loc	2 249 3
	bl assert
	{
		nop
		ldw r1, r5[3]
	}
	{
		nop
		ldw r0, r5[2]
	}
	.loc	2 250 6
.Ltmp52:
	{
		eq r0, r1, r0
		nop
	}
	bf r0, .LBB5_6
.Ltmp53:
	{
		ldc r1, 32
		mov r0, r5
	}
	.loc	2 250 36
	bl bitwriter_grow_
	bf r0, .LBB5_8
.Ltmp54:
	{
		nop
		ldw r1, r7[0]
	}
.Ltmp55:
.LBB5_6:
	{
		nop
		ldw r0, r5[1]
	}
	.loc	2 253 3
	{
		ldc r3, 32
		ldw r2, r5[4]
	}
	.loc	2 253 3
	{
		sub r2, r3, r2
		nop
	}
	.loc	2 253 3
	{
		shl r0, r0, r2
		nop
	}
	.loc	2 253 3
	{
		byterev r2, r0
		ldw r0, r5[0]
	}
	.loc	2 253 3
	stw r2, r0[r1]
	{
		nop
		ldw r1, r5[4]
	}
	.loc	2 254 2
	{
		shr r1, r1, 3
		nop
	}
	bu .LBB5_7
.Ltmp56:
.LBB5_2:
	{
		nop
		ldw r0, r5[0]
	}
	.loc	2 257 2
	ldaw r7, r5[3]
	{
		ldc r1, 0
		nop
	}
.Ltmp57:
.LBB5_7:
	{
		nop
		ldw r2, r7[0]
	}
	.loc	2 257 2
	ldaw r1, r1[r2]
.Ltmp58:
	.loc	2 211 23
	bl FLAC__crc16
.Ltmp59:
	.loc	2 211 23
	{
		ldc r1, 0
		nop
	}
	st16 r0, r4[r1]
	{
		mkmsk r6, 1
		nop
	}
.Ltmp60:
.LBB5_8:
	.loc	2 214 1
	{
		mov r0, r6
		nop
	}
	ldd r7, r6, sp[2]
	ldd r5, r4, sp[1]
	{
		nop
		retsp 6
	}
	# RETURN_REG_HOLDER
.Ltmp61:
	.cc_bottom FLAC__bitwriter_get_write_crc16.function
	.set	FLAC__bitwriter_get_write_crc16.nstackwords,((FLAC__crc16.nstackwords $M assert.nstackwords $M bitwriter_grow_.nstackwords) + 6)
	.globl	FLAC__bitwriter_get_write_crc16.nstackwords
	.set	FLAC__bitwriter_get_write_crc16.maxcores,FLAC__crc16.maxcores $M bitwriter_grow_.maxcores $M 1
	.globl	FLAC__bitwriter_get_write_crc16.maxcores
	.set	FLAC__bitwriter_get_write_crc16.maxtimers,FLAC__crc16.maxtimers $M bitwriter_grow_.maxtimers $M 0
	.globl	FLAC__bitwriter_get_write_crc16.maxtimers
	.set	FLAC__bitwriter_get_write_crc16.maxchanends,FLAC__crc16.maxchanends $M bitwriter_grow_.maxchanends $M 0
	.globl	FLAC__bitwriter_get_write_crc16.maxchanends
.Ltmp62:
	.size	FLAC__bitwriter_get_write_crc16, .Ltmp62-FLAC__bitwriter_get_write_crc16
.Lfunc_end5:
	.file	5 "C:\\Program Files (x86)\\XMOS\\xTIMEcomposer\\Community_14.4.1\\target/include/clang\\stddef.h"
	.cfi_endproc

	.globl	FLAC__bitwriter_get_buffer
	.align	4
	.type	FLAC__bitwriter_get_buffer,@function
	.cc_top FLAC__bitwriter_get_buffer.function,FLAC__bitwriter_get_buffer
FLAC__bitwriter_get_buffer:
.Lfunc_begin6:
	.loc	2 242 0
	.cfi_startproc
	.issue_mode dual
	{
		nop
		dualentsp 8
	}
.Ltmp63:
	.cfi_def_cfa_offset 32
.Ltmp64:
	.cfi_offset 15, 0
	std r5, r4, sp[1]
.Ltmp65:
	.cfi_offset 4, -24
.Ltmp66:
	.cfi_offset 5, -20
	std r7, r6, sp[2]
.Ltmp67:
	.cfi_offset 6, -16
.Ltmp68:
	.cfi_offset 7, -12
.Ltmp69:
	.cfi_offset 8, -8
.Ltmp70:
	{
		mov r4, r2
		stw r8, sp[6]
	}
.Ltmp71:
	{
		mov r5, r1
		mov r6, r0
	}
.Ltmp72:
	{
		nop
		ldw r0, r6[4]
	}
	.loc	2 243 2 prologue_end
.Ltmp73:
	{
		zext r0, 3
		nop
	}
	.loc	2 243 2
	{
		eq r0, r0, 0
		nop
	}
	.loc	2 243 2
	bl assert
	{
		nop
		ldw r0, r6[4]
	}
	.loc	2 245 5
.Ltmp74:
	{
		mov r1, r0
		nop
	}
	{
		zext r1, 3
		ldc r7, 0
	}
	bt r1, .LBB6_8
.Ltmp75:
	.loc	2 248 5
	bf r0, .LBB6_2
.Ltmp76:
	.loc	2 249 3
	ldaw r8, r6[3]
	{
		nop
		ldw r0, r6[3]
	}
	{
		nop
		ldw r1, r6[2]
	}
	.loc	2 249 3
	{
		lsu r0, r1, r0
		nop
	}
	{
		eq r0, r0, 0
		nop
	}
	.loc	2 249 3
	bl assert
	{
		nop
		ldw r1, r6[3]
	}
	{
		nop
		ldw r0, r6[2]
	}
	.loc	2 250 6
.Ltmp77:
	{
		eq r0, r1, r0
		nop
	}
	bf r0, .LBB6_6
.Ltmp78:
	{
		ldc r1, 32
		mov r0, r6
	}
	.loc	2 250 36
	bl bitwriter_grow_
	bf r0, .LBB6_8
.Ltmp79:
	{
		nop
		ldw r1, r8[0]
	}
.Ltmp80:
.LBB6_6:
	{
		nop
		ldw r0, r6[1]
	}
	.loc	2 253 3
	{
		ldc r3, 32
		ldw r2, r6[4]
	}
	.loc	2 253 3
	{
		sub r2, r3, r2
		nop
	}
	.loc	2 253 3
	{
		shl r0, r0, r2
		nop
	}
	.loc	2 253 3
	{
		byterev r2, r0
		ldw r0, r6[0]
	}
	.loc	2 253 3
	stw r2, r0[r1]
	{
		nop
		ldw r1, r6[4]
	}
	.loc	2 254 2
	{
		shr r1, r1, 3
		nop
	}
	bu .LBB6_7
.Ltmp81:
.LBB6_2:
	{
		nop
		ldw r0, r6[0]
	}
	.loc	2 257 2
	ldaw r8, r6[3]
	{
		ldc r1, 0
		nop
	}
.Ltmp82:
.LBB6_7:
	{
		nop
		stw r0, r5[0]
	}
	{
		nop
		ldw r0, r8[0]
	}
	.loc	2 257 2
	ldaw r0, r1[r0]
	.loc	2 257 2
	{
		mkmsk r7, 1
		stw r0, r4[0]
	}
.Ltmp83:
.LBB6_8:
	.loc	2 259 1
	{
		mov r0, r7
		ldw r8, sp[6]
	}
	ldd r7, r6, sp[2]
	ldd r5, r4, sp[1]
	{
		nop
		retsp 8
	}
	# RETURN_REG_HOLDER
.Ltmp84:
	.cc_bottom FLAC__bitwriter_get_buffer.function
	.set	FLAC__bitwriter_get_buffer.nstackwords,((assert.nstackwords $M bitwriter_grow_.nstackwords) + 8)
	.globl	FLAC__bitwriter_get_buffer.nstackwords
	.set	FLAC__bitwriter_get_buffer.maxcores,bitwriter_grow_.maxcores $M 1
	.globl	FLAC__bitwriter_get_buffer.maxcores
	.set	FLAC__bitwriter_get_buffer.maxtimers,bitwriter_grow_.maxtimers $M 0
	.globl	FLAC__bitwriter_get_buffer.maxtimers
	.set	FLAC__bitwriter_get_buffer.maxchanends,bitwriter_grow_.maxchanends $M 0
	.globl	FLAC__bitwriter_get_buffer.maxchanends
.Ltmp85:
	.size	FLAC__bitwriter_get_buffer, .Ltmp85-FLAC__bitwriter_get_buffer
.Lfunc_end6:
	.cfi_endproc

	.globl	FLAC__bitwriter_release_buffer
	.align	4
	.type	FLAC__bitwriter_release_buffer,@function
	.cc_top FLAC__bitwriter_release_buffer.function,FLAC__bitwriter_release_buffer
FLAC__bitwriter_release_buffer:
.Lfunc_begin7:
	.loc	2 262 0
	.cfi_startproc
	.issue_mode dual
	{
		nop
		dualentsp 0
	}
	{
		nop
		retsp 0
	}
	.loc	2 267 1 prologue_end
.Ltmp86:
	# RETURN_REG_HOLDER
.Ltmp87:
	.cc_bottom FLAC__bitwriter_release_buffer.function
	.set	FLAC__bitwriter_release_buffer.nstackwords,0
	.globl	FLAC__bitwriter_release_buffer.nstackwords
	.set	FLAC__bitwriter_release_buffer.maxcores,1
	.globl	FLAC__bitwriter_release_buffer.maxcores
	.set	FLAC__bitwriter_release_buffer.maxtimers,0
	.globl	FLAC__bitwriter_release_buffer.maxtimers
	.set	FLAC__bitwriter_release_buffer.maxchanends,0
	.globl	FLAC__bitwriter_release_buffer.maxchanends
.Ltmp88:
	.size	FLAC__bitwriter_release_buffer, .Ltmp88-FLAC__bitwriter_release_buffer
.Lfunc_end7:
	.cfi_endproc

	.globl	FLAC__bitwriter_get_write_crc8
	.align	4
	.type	FLAC__bitwriter_get_write_crc8,@function
	.cc_top FLAC__bitwriter_get_write_crc8.function,FLAC__bitwriter_get_write_crc8
FLAC__bitwriter_get_write_crc8:
.Lfunc_begin8:
	.loc	2 217 0
	.cfi_startproc
	.issue_mode dual
	{
		nop
		dualentsp 6
	}
.Ltmp89:
	.cfi_def_cfa_offset 24
.Ltmp90:
	.cfi_offset 15, 0
	std r5, r4, sp[1]
.Ltmp91:
	.cfi_offset 4, -16
.Ltmp92:
	.cfi_offset 5, -12
	std r7, r6, sp[2]
.Ltmp93:
	.cfi_offset 6, -8
.Ltmp94:
	.cfi_offset 7, -4
.Ltmp95:
	{
		mov r4, r1
		mov r5, r0
	}
.Ltmp96:
	{
		nop
		ldw r0, r5[4]
	}
	.loc	2 221 2 prologue_end
.Ltmp97:
	{
		zext r0, 3
		nop
	}
	.loc	2 221 2
	{
		eq r0, r0, 0
		nop
	}
	.loc	2 221 2
	bl assert
	{
		nop
		ldw r0, r5[4]
	}
	.loc	2 243 2
.Ltmp98:
	{
		zext r0, 3
		nop
	}
	.loc	2 243 2
	{
		eq r0, r0, 0
		nop
	}
	.loc	2 243 2
	bl assert
	{
		nop
		ldw r0, r5[4]
	}
	.loc	2 245 5
.Ltmp99:
	{
		mov r1, r0
		nop
	}
	{
		zext r1, 3
		ldc r6, 0
	}
	bt r1, .LBB8_8
.Ltmp100:
	.loc	2 248 5
	bf r0, .LBB8_2
.Ltmp101:
	.loc	2 249 3
	ldaw r7, r5[3]
	{
		nop
		ldw r0, r5[3]
	}
	{
		nop
		ldw r1, r5[2]
	}
	.loc	2 249 3
	{
		lsu r0, r1, r0
		nop
	}
	{
		eq r0, r0, 0
		nop
	}
	.loc	2 249 3
	bl assert
	{
		nop
		ldw r1, r5[3]
	}
	{
		nop
		ldw r0, r5[2]
	}
	.loc	2 250 6
.Ltmp102:
	{
		eq r0, r1, r0
		nop
	}
	bf r0, .LBB8_6
.Ltmp103:
	{
		ldc r1, 32
		mov r0, r5
	}
	.loc	2 250 36
	bl bitwriter_grow_
	bf r0, .LBB8_8
.Ltmp104:
	{
		nop
		ldw r1, r7[0]
	}
.Ltmp105:
.LBB8_6:
	{
		nop
		ldw r0, r5[1]
	}
	.loc	2 253 3
	{
		ldc r3, 32
		ldw r2, r5[4]
	}
	.loc	2 253 3
	{
		sub r2, r3, r2
		nop
	}
	.loc	2 253 3
	{
		shl r0, r0, r2
		nop
	}
	.loc	2 253 3
	{
		byterev r2, r0
		ldw r0, r5[0]
	}
	.loc	2 253 3
	stw r2, r0[r1]
	{
		nop
		ldw r1, r5[4]
	}
	.loc	2 254 2
	{
		shr r1, r1, 3
		nop
	}
	bu .LBB8_7
.Ltmp106:
.LBB8_2:
	{
		nop
		ldw r0, r5[0]
	}
	.loc	2 257 2
	ldaw r7, r5[3]
	{
		ldc r1, 0
		nop
	}
.Ltmp107:
.LBB8_7:
	{
		nop
		ldw r2, r7[0]
	}
	.loc	2 257 2
	ldaw r1, r1[r2]
.Ltmp108:
	.loc	2 226 9
	bl FLAC__crc8
.Ltmp109:
	.loc	2 226 9
	{
		ldc r1, 0
		nop
	}
	st8 r0, r4[r1]
	{
		mkmsk r6, 1
		nop
	}
.Ltmp110:
.LBB8_8:
	.loc	2 229 1
	{
		mov r0, r6
		nop
	}
	ldd r7, r6, sp[2]
	ldd r5, r4, sp[1]
	{
		nop
		retsp 6
	}
	# RETURN_REG_HOLDER
.Ltmp111:
	.cc_bottom FLAC__bitwriter_get_write_crc8.function
	.set	FLAC__bitwriter_get_write_crc8.nstackwords,((FLAC__crc8.nstackwords $M assert.nstackwords $M bitwriter_grow_.nstackwords) + 6)
	.globl	FLAC__bitwriter_get_write_crc8.nstackwords
	.set	FLAC__bitwriter_get_write_crc8.maxcores,FLAC__crc8.maxcores $M bitwriter_grow_.maxcores $M 1
	.globl	FLAC__bitwriter_get_write_crc8.maxcores
	.set	FLAC__bitwriter_get_write_crc8.maxtimers,FLAC__crc8.maxtimers $M bitwriter_grow_.maxtimers $M 0
	.globl	FLAC__bitwriter_get_write_crc8.maxtimers
	.set	FLAC__bitwriter_get_write_crc8.maxchanends,FLAC__crc8.maxchanends $M bitwriter_grow_.maxchanends $M 0
	.globl	FLAC__bitwriter_get_write_crc8.maxchanends
.Ltmp112:
	.size	FLAC__bitwriter_get_write_crc8, .Ltmp112-FLAC__bitwriter_get_write_crc8
.Lfunc_end8:
	.cfi_endproc

	.globl	FLAC__bitwriter_is_byte_aligned
	.align	4
	.type	FLAC__bitwriter_is_byte_aligned,@function
	.cc_top FLAC__bitwriter_is_byte_aligned.function,FLAC__bitwriter_is_byte_aligned
FLAC__bitwriter_is_byte_aligned:
.Lfunc_begin9:
	.loc	2 232 0
	.cfi_startproc
	.issue_mode dual
	{
		ldc r1, 16
		dualentsp 0
	}
	{
		nop
		ld8u r0, r0[r1]
	}
.Ltmp113:
	.loc	2 233 2 prologue_end
	{
		zext r0, 3
		nop
	}
	{
		eq r0, r0, 0
		retsp 0
	}
	.loc	2 233 2
	# RETURN_REG_HOLDER
.Ltmp114:
	.cc_bottom FLAC__bitwriter_is_byte_aligned.function
	.set	FLAC__bitwriter_is_byte_aligned.nstackwords,0
	.globl	FLAC__bitwriter_is_byte_aligned.nstackwords
	.set	FLAC__bitwriter_is_byte_aligned.maxcores,1
	.globl	FLAC__bitwriter_is_byte_aligned.maxcores
	.set	FLAC__bitwriter_is_byte_aligned.maxtimers,0
	.globl	FLAC__bitwriter_is_byte_aligned.maxtimers
	.set	FLAC__bitwriter_is_byte_aligned.maxchanends,0
	.globl	FLAC__bitwriter_is_byte_aligned.maxchanends
.Ltmp115:
	.size	FLAC__bitwriter_is_byte_aligned, .Ltmp115-FLAC__bitwriter_is_byte_aligned
.Lfunc_end9:
	.cfi_endproc

	.globl	FLAC__bitwriter_get_input_bits_unconsumed
	.align	4
	.type	FLAC__bitwriter_get_input_bits_unconsumed,@function
	.cc_top FLAC__bitwriter_get_input_bits_unconsumed.function,FLAC__bitwriter_get_input_bits_unconsumed
FLAC__bitwriter_get_input_bits_unconsumed:
.Lfunc_begin10:
	.loc	2 237 0
	.cfi_startproc
	.issue_mode dual
	{
		nop
		dualentsp 0
	}
	{
		nop
		ldw r1, r0[3]
	}
	.loc	2 238 2 prologue_end
.Ltmp116:
	{
		shl r1, r1, 5
		ldw r0, r0[4]
	}
.Ltmp117:
	.loc	2 238 2
	{
		add r0, r1, r0
		retsp 0
	}
	.loc	2 238 2
	# RETURN_REG_HOLDER
.Ltmp118:
	.cc_bottom FLAC__bitwriter_get_input_bits_unconsumed.function
	.set	FLAC__bitwriter_get_input_bits_unconsumed.nstackwords,0
	.globl	FLAC__bitwriter_get_input_bits_unconsumed.nstackwords
	.set	FLAC__bitwriter_get_input_bits_unconsumed.maxcores,1
	.globl	FLAC__bitwriter_get_input_bits_unconsumed.maxcores
	.set	FLAC__bitwriter_get_input_bits_unconsumed.maxtimers,0
	.globl	FLAC__bitwriter_get_input_bits_unconsumed.maxtimers
	.set	FLAC__bitwriter_get_input_bits_unconsumed.maxchanends,0
	.globl	FLAC__bitwriter_get_input_bits_unconsumed.maxchanends
.Ltmp119:
	.size	FLAC__bitwriter_get_input_bits_unconsumed, .Ltmp119-FLAC__bitwriter_get_input_bits_unconsumed
.Lfunc_end10:
	.cfi_endproc

	.align	4
	.type	bitwriter_grow_,@function
	.cc_top bitwriter_grow_.function,bitwriter_grow_
bitwriter_grow_:
.Lfunc_begin11:
	.loc	2 105 0
	.cfi_startproc
	.issue_mode dual
	{
		nop
		dualentsp 8
	}
.Ltmp120:
	.cfi_def_cfa_offset 32
.Ltmp121:
	.cfi_offset 15, 0
	std r5, r4, sp[1]
.Ltmp122:
	.cfi_offset 4, -24
.Ltmp123:
	.cfi_offset 5, -20
	std r7, r6, sp[2]
.Ltmp124:
	.cfi_offset 6, -16
.Ltmp125:
	.cfi_offset 7, -12
.Ltmp126:
	.cfi_offset 8, -8
.Ltmp127:
	{
		mov r5, r1
		stw r8, sp[6]
	}
.Ltmp128:
	{
		mov r4, r0
		nop
	}
.Ltmp129:
	.loc	2 109 2 prologue_end
	{
		eq r0, r4, 0
		nop
	}
	{
		eq r0, r0, 0
		nop
	}
	.loc	2 109 2
	bl assert
	{
		nop
		ldw r0, r4[0]
	}
	.loc	2 110 2
	{
		eq r0, r0, 0
		nop
	}
	{
		eq r0, r0, 0
		nop
	}
	.loc	2 110 2
	bl assert
	{
		nop
		ldw r0, r4[3]
	}
	.loc	2 113 2
	{
		mkmsk r2, 5
		ldw r1, r4[4]
	}
	.loc	2 113 2
	{
		add r8, r5, r2
		nop
	}
	.loc	2 113 2
	{
		add r1, r8, r1
		nop
	}
	.loc	2 113 2
	{
		shr r1, r1, 5
		nop
	}
.Ltmp130:
	.loc	2 113 2
	{
		add r6, r1, r0
		ldw r0, r4[2]
	}
.Ltmp131:
	.loc	2 118 5
	{
		lsu r1, r0, r6
		nop
	}
	bf r1, .LBB11_1
.Ltmp132:
	.loc	2 121 5
	{
		shl r1, r6, 2
		nop
	}
	.loc	2 121 5
	ldw r2, cp[FLAC__STREAM_METADATA_LENGTH_LEN]
	{
		mkmsk r7, 1
		nop
	}
	.loc	2 121 5
	{
		shl r2, r7, r2
		nop
	}
	.loc	2 121 5
	{
		lsu r1, r2, r1
		ldc r5, 0
	}
	bt r1, .LBB11_11
.Ltmp133:
	.loc	2 129 5
	{
		sub r2, r6, r0
		nop
	}
	ldc r1, 1023
	.loc	2 129 5
	{
		and r2, r2, r1
		nop
	}
	bf r2, .LBB11_5
.Ltmp134:
	ldc r3, 1024
	.loc	2 130 3
	{
		add r3, r6, r3
		nop
	}
	.loc	2 130 3
	{
		sub r6, r3, r2
		nop
	}
.Ltmp135:
.LBB11_5:
	.loc	2 132 2
	{
		sub r0, r6, r0
		nop
	}
	.loc	2 132 2
	{
		and r0, r0, r1
		nop
	}
	.loc	2 132 2
	{
		eq r0, r0, 0
		nop
	}
	.loc	2 132 2
	bl assert
	{
		nop
		ldw r0, r4[2]
	}
	.loc	2 133 2
	{
		lsu r0, r0, r6
		nop
	}
	.loc	2 133 2
	bl assert
	{
		nop
		ldw r0, r4[3]
	}
	{
		nop
		ldw r1, r4[4]
	}
	.loc	2 134 2
	{
		add r1, r8, r1
		nop
	}
	.loc	2 134 2
	{
		shr r1, r1, 5
		nop
	}
	.loc	2 134 2
	{
		add r0, r1, r0
		nop
	}
	.loc	2 134 2
	{
		lsu r0, r6, r0
		nop
	}
	{
		eq r0, r0, 0
		nop
	}
	.loc	2 134 2
	bl assert
.Ltmp136:
	{
		nop
		ldw r0, r4[0]
	}
	.file	6 "C:/Users/takaaki/git/sw_xSSDAC/module_libFLAC/source/share\\alloc.h"
	.loc	6 286 5
.Ltmp137:
	bf r6, .LBB11_6
.Ltmp138:
	{
		mkmsk r1, 32
		nop
	}
	.loc	6 288 5
.Ltmp139:
	divu r1, r1, r6
	{
		ldc r2, 4
		nop
	}
	.loc	6 288 5
	{
		lsu r1, r1, r2
		nop
	}
	bt r1, .LBB11_11
.Ltmp140:
	.loc	6 290 9
	{
		shl r1, r6, 2
		nop
	}
	bu .LBB11_9
.Ltmp141:
.LBB11_1:
	{
		mkmsk r5, 1
		nop
	}
	bu .LBB11_11
.LBB11_6:
.Ltmp142:
	{
		ldc r1, 0
		nop
	}
.Ltmp143:
.LBB11_9:
	.loc	6 290 9
	bl realloc
.Ltmp144:
	bf r0, .LBB11_11
.Ltmp145:
	{
		nop
		stw r0, r4[0]
	}
	.loc	2 140 2
	{
		mov r5, r7
		stw r6, r4[2]
	}
.Ltmp146:
.LBB11_11:
	.loc	2 142 1
	{
		mov r0, r5
		ldw r8, sp[6]
	}
	ldd r7, r6, sp[2]
	ldd r5, r4, sp[1]
	{
		nop
		retsp 8
	}
	# RETURN_REG_HOLDER
.Ltmp147:
	.cc_bottom bitwriter_grow_.function
	.set	bitwriter_grow_.nstackwords,((assert.nstackwords $M realloc.nstackwords) + 8)
	.set	bitwriter_grow_.maxcores,realloc.maxcores $M 1
	.set	bitwriter_grow_.maxtimers,realloc.maxtimers $M 0
	.set	bitwriter_grow_.maxchanends,realloc.maxchanends $M 0
.Ltmp148:
	.size	bitwriter_grow_, .Ltmp148-bitwriter_grow_
.Lfunc_end11:
	.cfi_endproc

	.globl	FLAC__bitwriter_write_zeroes
	.align	4
	.type	FLAC__bitwriter_write_zeroes,@function
	.cc_top FLAC__bitwriter_write_zeroes.function,FLAC__bitwriter_write_zeroes
FLAC__bitwriter_write_zeroes:
.Lfunc_begin12:
	.loc	2 270 0
	.cfi_startproc
	.issue_mode dual
	{
		nop
		dualentsp 6
	}
.Ltmp149:
	.cfi_def_cfa_offset 24
.Ltmp150:
	.cfi_offset 15, 0
	std r5, r4, sp[1]
.Ltmp151:
	.cfi_offset 4, -16
.Ltmp152:
	.cfi_offset 5, -12
.Ltmp153:
	.cfi_offset 6, -8
.Ltmp154:
	{
		mov r5, r1
		stw r6, sp[4]
	}
.Ltmp155:
	{
		mov r6, r0
		nop
	}
.Ltmp156:
	.loc	2 273 2 prologue_end
	{
		eq r0, r6, 0
		nop
	}
	{
		eq r0, r0, 0
		nop
	}
	.loc	2 273 2
	bl assert
	{
		nop
		ldw r0, r6[0]
	}
	.loc	2 274 2
	{
		eq r0, r0, 0
		nop
	}
	{
		eq r0, r0, 0
		nop
	}
	.loc	2 274 2
	bl assert
	{
		mkmsk r4, 1
		nop
	}
	bf r5, .LBB12_15
.Ltmp157:
	{
		nop
		ldw r0, r6[2]
	}
	{
		nop
		ldw r1, r6[3]
	}
	.loc	2 279 5
.Ltmp158:
	{
		add r1, r1, r5
		nop
	}
	.loc	2 279 5
	{
		lsu r0, r1, r0
		nop
	}
	bt r0, .LBB12_4
.Ltmp159:
	.loc	2 279 42
	{
		mov r0, r6
		mov r1, r5
	}
	bl bitwriter_grow_
	bf r0, .LBB12_3
.Ltmp160:
.LBB12_4:
	{
		nop
		ldw r0, r6[4]
	}
	bf r0, .LBB12_9
.Ltmp161:
	{
		ldc r1, 32
		nop
	}
	.loc	2 283 3
.Ltmp162:
	{
		sub r3, r1, r0
		nop
	}
	.loc	2 283 3
	{
		lsu r11, r5, r3
		mov r2, r5
	}
	bt r11, .LBB12_7
.Ltmp163:
	.loc	2 283 3
	{
		mov r2, r3
		nop
	}
.Ltmp164:
.LBB12_7:
	{
		nop
		ldw r3, r6[1]
	}
	.loc	2 284 3
	{
		shl r3, r3, r2
		nop
	}
	.loc	2 284 3
	{
		add r0, r0, r2
		stw r3, r6[1]
	}
	.loc	2 286 3
	{
		eq r0, r0, r1
		stw r0, r6[4]
	}
	bf r0, .LBB12_15
.Ltmp165:
	.loc	2 285 3
	{
		sub r5, r5, r2
		byterev r0, r3
	}
.Ltmp166:
	{
		nop
		ldw r1, r6[3]
	}
	.loc	2 288 4
.Ltmp167:
	{
		add r2, r1, 1
		nop
	}
.Ltmp168:
	{
		nop
		stw r2, r6[3]
	}
	{
		nop
		ldw r2, r6[0]
	}
	.loc	2 288 4
	stw r0, r2[r1]
	{
		ldc r0, 0
		nop
	}
	{
		nop
		stw r0, r6[4]
	}
.Ltmp169:
.LBB12_9:
	.loc	2 295 2
	{
		shr r0, r5, 5
		nop
	}
	bf r0, .LBB12_13
.Ltmp170:
	.loc	2 296 3
	{
		ldc r1, 0
		ldw r0, r6[0]
	}
	{
		mov r2, r5
		nop
	}
.Ltmp171:
.LBB12_11:
	{
		nop
		ldw r3, r6[3]
	}
	.loc	2 296 3
	{
		add r11, r3, 1
		nop
	}
	{
		nop
		stw r11, r6[3]
	}
	.loc	2 296 3
	stw r1, r0[r3]
	.loc	2 297 3
	ldaw r2, r2[-8]
.Ltmp172:
	.loc	2 295 2
	{
		shr r3, r2, 5
		nop
	}
	.loc	2 295 2
	bt r3, .LBB12_11
.Ltmp173:
	.loc	2 295 2
	{
		zext r5, 5
		nop
	}
.Ltmp174:
.LBB12_13:
	bf r5, .LBB12_15
.Ltmp175:
	{
		ldc r0, 0
		nop
	}
	{
		nop
		stw r0, r6[1]
	}
	{
		nop
		stw r5, r6[4]
	}
	bu .LBB12_15
.Ltmp176:
.LBB12_3:
	{
		ldc r4, 0
		nop
	}
.LBB12_15:
	.loc	2 305 1
	{
		mov r0, r4
		ldw r6, sp[4]
	}
	ldd r5, r4, sp[1]
	{
		nop
		retsp 6
	}
	# RETURN_REG_HOLDER
.Ltmp177:
	.cc_bottom FLAC__bitwriter_write_zeroes.function
	.set	FLAC__bitwriter_write_zeroes.nstackwords,((assert.nstackwords $M bitwriter_grow_.nstackwords) + 6)
	.globl	FLAC__bitwriter_write_zeroes.nstackwords
	.set	FLAC__bitwriter_write_zeroes.maxcores,bitwriter_grow_.maxcores $M 1
	.globl	FLAC__bitwriter_write_zeroes.maxcores
	.set	FLAC__bitwriter_write_zeroes.maxtimers,bitwriter_grow_.maxtimers $M 0
	.globl	FLAC__bitwriter_write_zeroes.maxtimers
	.set	FLAC__bitwriter_write_zeroes.maxchanends,bitwriter_grow_.maxchanends $M 0
	.globl	FLAC__bitwriter_write_zeroes.maxchanends
.Ltmp178:
	.size	FLAC__bitwriter_write_zeroes, .Ltmp178-FLAC__bitwriter_write_zeroes
.Lfunc_end12:
	.cfi_endproc

	.globl	FLAC__bitwriter_write_raw_uint32
	.align	4
	.type	FLAC__bitwriter_write_raw_uint32,@function
	.cc_top FLAC__bitwriter_write_raw_uint32.function,FLAC__bitwriter_write_raw_uint32
FLAC__bitwriter_write_raw_uint32:
.Lfunc_begin13:
	.loc	2 349 0
	.cfi_startproc
	.issue_mode dual
.Ltmp179:
	.cfi_def_cfa_offset 8
.Ltmp180:
	.cfi_offset 15, 0
	{
		shr r3, r2, 5
		dualentsp 2
	}
	bt r3, .LBB13_3
.Ltmp181:
	{
		shr r3, r1, r2
		nop
	}
	bf r3, .LBB13_3
.Ltmp182:
	{
		ldc r0, 0
		retsp 2
	}
	.loc	2 355 1 prologue_end
.Ltmp183:
	# RETURN_REG_HOLDER
.LBB13_3:
.Ltmp184:
	.loc	2 354 9
	bl FLAC__bitwriter_write_raw_uint32_nocheck
.Ltmp185:
	{
		nop
		retsp 2
	}
	.loc	2 355 1
	# RETURN_REG_HOLDER
.Ltmp186:
	.cc_bottom FLAC__bitwriter_write_raw_uint32.function
	.set	FLAC__bitwriter_write_raw_uint32.nstackwords,(FLAC__bitwriter_write_raw_uint32_nocheck.nstackwords + 2)
	.globl	FLAC__bitwriter_write_raw_uint32.nstackwords
	.set	FLAC__bitwriter_write_raw_uint32.maxcores,FLAC__bitwriter_write_raw_uint32_nocheck.maxcores $M 1
	.globl	FLAC__bitwriter_write_raw_uint32.maxcores
	.set	FLAC__bitwriter_write_raw_uint32.maxtimers,FLAC__bitwriter_write_raw_uint32_nocheck.maxtimers $M 0
	.globl	FLAC__bitwriter_write_raw_uint32.maxtimers
	.set	FLAC__bitwriter_write_raw_uint32.maxchanends,FLAC__bitwriter_write_raw_uint32_nocheck.maxchanends $M 0
	.globl	FLAC__bitwriter_write_raw_uint32.maxchanends
.Ltmp187:
	.size	FLAC__bitwriter_write_raw_uint32, .Ltmp187-FLAC__bitwriter_write_raw_uint32
.Lfunc_end13:
	.cfi_endproc

	.section	.cp.rodata.cst4,"aMc",@progbits,4
	.cc_top .LCPI14_0.data,.LCPI14_0
	.align	4
	.type	.LCPI14_0,@object
	.size	.LCPI14_0, 4
.LCPI14_0:
	.long	16711680
	.cc_bottom .LCPI14_0.data
	.text
	.align	4
	.type	FLAC__bitwriter_write_raw_uint32_nocheck,@function
	.cc_top FLAC__bitwriter_write_raw_uint32_nocheck.function,FLAC__bitwriter_write_raw_uint32_nocheck
FLAC__bitwriter_write_raw_uint32_nocheck:
.Lfunc_begin14:
	.loc	2 308 0
	.cfi_startproc
	.issue_mode dual
	{
		nop
		dualentsp 8
	}
.Ltmp188:
	.cfi_def_cfa_offset 32
.Ltmp189:
	.cfi_offset 15, 0
	std r5, r4, sp[1]
.Ltmp190:
	.cfi_offset 4, -24
.Ltmp191:
	.cfi_offset 5, -20
	std r7, r6, sp[2]
.Ltmp192:
	.cfi_offset 6, -16
.Ltmp193:
	.cfi_offset 7, -12
	std r9, r8, sp[3]
.Ltmp194:
	.cfi_offset 8, -8
.Ltmp195:
	.cfi_offset 9, -4
.Ltmp196:
	{
		mov r7, r2
		mov r6, r1
	}
.Ltmp197:
	{
		mov r5, r0
		mkmsk r4, 1
	}
.Ltmp198:
	.loc	2 312 2 prologue_end
	{
		mov r0, r4
		nop
	}
	bl assert
	{
		ldc r8, 0
		nop
	}
	bf r5, .LBB14_14
.Ltmp199:
	{
		nop
		ldw r0, r5[0]
	}
	bf r0, .LBB14_14
.Ltmp200:
	{
		ldc r9, 32
		nop
	}
	{
		lsu r0, r9, r7
		nop
	}
	bt r0, .LBB14_14
.Ltmp201:
	bf r7, .LBB14_13
.Ltmp202:
	{
		eq r1, r7, r9
		mov r0, r4
	}
	bt r1, .LBB14_6
.Ltmp203:
	.loc	2 323 2
	{
		shr r0, r6, r7
		nop
	}
	.loc	2 323 2
	{
		eq r0, r0, 0
		nop
	}
.Ltmp204:
.LBB14_6:
	.loc	2 323 2
	bl assert
	{
		nop
		ldw r0, r5[2]
	}
	{
		nop
		ldw r1, r5[3]
	}
	.loc	2 326 5
.Ltmp205:
	{
		add r1, r1, r7
		nop
	}
	.loc	2 326 5
	{
		lsu r0, r1, r0
		nop
	}
	bt r0, .LBB14_8
.Ltmp206:
	.loc	2 326 42
	{
		mov r0, r5
		mov r1, r7
	}
	bl bitwriter_grow_
	bf r0, .LBB14_14
.Ltmp207:
.LBB14_8:
	{
		nop
		ldw r0, r5[4]
	}
	.loc	2 329 2
	{
		sub r1, r9, r0
		nop
	}
.Ltmp208:
	.loc	2 330 5
	{
		lsu r2, r7, r1
		nop
	}
	bf r2, .LBB14_10
.Ltmp209:
	{
		nop
		ldw r1, r5[1]
	}
	.loc	2 331 3
.Ltmp210:
	{
		shl r1, r1, r7
		nop
	}
	.loc	2 332 3
	{
		or r1, r1, r6
		nop
	}
	.loc	2 332 3
	{
		add r0, r0, r7
		stw r1, r5[1]
	}
	{
		nop
		stw r0, r5[4]
	}
	bu .LBB14_13
.Ltmp211:
.LBB14_10:
	.loc	2 335 10
	bf r0, .LBB14_12
.Ltmp212:
	{
		nop
		ldw r0, r5[1]
	}
	.loc	2 336 3
.Ltmp213:
	{
		shl r0, r0, r1
		sub r1, r7, r1
	}
.Ltmp214:
	.loc	2 337 3
	{
		shr r1, r6, r1
		stw r1, r5[4]
	}
	.loc	2 337 3
	{
		or r0, r0, r1
		nop
	}
	.loc	2 338 3
	{
		shr r1, r0, 24
		shr r2, r0, 8
	}
	ldc r3, 65280
	.loc	2 338 3
	{
		and r2, r2, r3
		shl r3, r0, 8
	}
	ldw r11, cp[.LCPI14_0]
	.loc	2 338 3
	{
		and r3, r3, r11
		shl r0, r0, 24
	}
	.loc	2 338 3
	{
		or r0, r0, r1
		nop
	}
	.loc	2 338 3
	{
		or r0, r0, r2
		nop
	}
	.loc	2 338 3
	{
		or r0, r0, r3
		ldw r1, r5[3]
	}
	.loc	2 338 3
	{
		add r2, r1, 1
		nop
	}
	{
		nop
		stw r2, r5[3]
	}
	{
		nop
		ldw r2, r5[0]
	}
	.loc	2 338 3
	stw r0, r2[r1]
	{
		nop
		stw r6, r5[1]
	}
	bu .LBB14_13
.Ltmp215:
.LBB14_12:
	.loc	2 342 3
	{
		byterev r0, r6
		ldw r1, r5[3]
	}
	.loc	2 342 3
	{
		add r2, r1, 1
		nop
	}
	{
		nop
		stw r2, r5[3]
	}
	{
		nop
		ldw r2, r5[0]
	}
	.loc	2 342 3
	stw r0, r2[r1]
.Ltmp216:
.LBB14_13:
	{
		mov r8, r4
		nop
	}
.LBB14_14:
	.loc	2 346 1
	{
		mov r0, r8
		nop
	}
	ldd r9, r8, sp[3]
	ldd r7, r6, sp[2]
	ldd r5, r4, sp[1]
	{
		nop
		retsp 8
	}
	# RETURN_REG_HOLDER
.Ltmp217:
	.cc_bottom FLAC__bitwriter_write_raw_uint32_nocheck.function
	.set	FLAC__bitwriter_write_raw_uint32_nocheck.nstackwords,((assert.nstackwords $M bitwriter_grow_.nstackwords) + 8)
	.set	FLAC__bitwriter_write_raw_uint32_nocheck.maxcores,bitwriter_grow_.maxcores $M 1
	.set	FLAC__bitwriter_write_raw_uint32_nocheck.maxtimers,bitwriter_grow_.maxtimers $M 0
	.set	FLAC__bitwriter_write_raw_uint32_nocheck.maxchanends,bitwriter_grow_.maxchanends $M 0
.Ltmp218:
	.size	FLAC__bitwriter_write_raw_uint32_nocheck, .Ltmp218-FLAC__bitwriter_write_raw_uint32_nocheck
.Lfunc_end14:
	.cfi_endproc

	.globl	FLAC__bitwriter_write_raw_int32
	.align	4
	.type	FLAC__bitwriter_write_raw_int32,@function
	.cc_top FLAC__bitwriter_write_raw_int32.function,FLAC__bitwriter_write_raw_int32
FLAC__bitwriter_write_raw_int32:
.Lfunc_begin15:
	.loc	2 358 0
	.cfi_startproc
	.issue_mode dual
.Ltmp219:
	.cfi_def_cfa_offset 8
.Ltmp220:
	.cfi_offset 15, 0
	{
		shr r3, r2, 5
		dualentsp 2
	}
	bt r3, .LBB15_2
.Ltmp221:
	{
		mkmsk r3, 32
		nop
	}
	.loc	2 361 3 prologue_end
.Ltmp222:
	{
		shl r3, r3, r2
		nop
	}
	.loc	2 361 3
	{
		andnot r1, r3
		nop
	}
.Ltmp223:
.LBB15_2:
	.loc	2 363 9
	bl FLAC__bitwriter_write_raw_uint32_nocheck
.Ltmp224:
	{
		nop
		retsp 2
	}
	.loc	2 363 9
	# RETURN_REG_HOLDER
.Ltmp225:
	.cc_bottom FLAC__bitwriter_write_raw_int32.function
	.set	FLAC__bitwriter_write_raw_int32.nstackwords,(FLAC__bitwriter_write_raw_uint32_nocheck.nstackwords + 2)
	.globl	FLAC__bitwriter_write_raw_int32.nstackwords
	.set	FLAC__bitwriter_write_raw_int32.maxcores,FLAC__bitwriter_write_raw_uint32_nocheck.maxcores $M 1
	.globl	FLAC__bitwriter_write_raw_int32.maxcores
	.set	FLAC__bitwriter_write_raw_int32.maxtimers,FLAC__bitwriter_write_raw_uint32_nocheck.maxtimers $M 0
	.globl	FLAC__bitwriter_write_raw_int32.maxtimers
	.set	FLAC__bitwriter_write_raw_int32.maxchanends,FLAC__bitwriter_write_raw_uint32_nocheck.maxchanends $M 0
	.globl	FLAC__bitwriter_write_raw_int32.maxchanends
.Ltmp226:
	.size	FLAC__bitwriter_write_raw_int32, .Ltmp226-FLAC__bitwriter_write_raw_int32
.Lfunc_end15:
	.cfi_endproc

	.section	.cp.rodata.cst4,"aMc",@progbits,4
	.cc_top .LCPI16_0.data,.LCPI16_0
	.align	4
	.type	.LCPI16_0,@object
	.size	.LCPI16_0, 4
.LCPI16_0:
	.long	16711680
	.cc_bottom .LCPI16_0.data
	.text
	.globl	FLAC__bitwriter_write_raw_uint64
	.align	4
	.type	FLAC__bitwriter_write_raw_uint64,@function
	.cc_top FLAC__bitwriter_write_raw_uint64.function,FLAC__bitwriter_write_raw_uint64
FLAC__bitwriter_write_raw_uint64:
.Lfunc_begin16:
	.loc	2 367 0
	.cfi_startproc
	.issue_mode dual
	{
		nop
		dualentsp 8
	}
.Ltmp227:
	.cfi_def_cfa_offset 32
.Ltmp228:
	.cfi_offset 15, 0
	std r5, r4, sp[1]
.Ltmp229:
	.cfi_offset 4, -24
.Ltmp230:
	.cfi_offset 5, -20
	std r7, r6, sp[2]
.Ltmp231:
	.cfi_offset 6, -16
.Ltmp232:
	.cfi_offset 7, -12
.Ltmp233:
	.cfi_offset 8, -8
	{
		mov r5, r1
		stw r8, sp[6]
	}
.Ltmp234:
	{
		mov r4, r0
		ldc r8, 33
	}
.Ltmp235:
	.loc	2 369 5 prologue_end
	{
		lsu r0, r3, r8
		nop
	}
	bt r0, .LBB16_13
.Ltmp236:
	.loc	2 371 4
	ldaw r3, r3[-8]
.Ltmp237:
	.loc	2 351 5
	{
		shr r0, r3, 5
		ldc r6, 0
	}
	bt r0, .LBB16_3
.Ltmp238:
	.loc	2 371 4
	{
		shr r0, r2, r3
		nop
	}
	bt r0, .LBB16_17
.Ltmp239:
.LBB16_3:
	.loc	2 354 9
	{
		mov r0, r4
		mov r1, r2
	}
	{
		mov r2, r3
		nop
	}
	bl FLAC__bitwriter_write_raw_uint32_nocheck
.Ltmp240:
	bf r0, .LBB16_17
.Ltmp241:
	{
		mkmsk r0, 1
		nop
	}
	.loc	2 312 2
.Ltmp242:
	bl assert
.Ltmp243:
	bf r4, .LBB16_17
.Ltmp244:
	{
		nop
		ldw r0, r4[0]
	}
	bf r0, .LBB16_17
.Ltmp245:
	{
		mkmsk r7, 1
		nop
	}
	.loc	2 323 2
	{
		mov r0, r7
		nop
	}
	bl assert
	{
		nop
		ldw r0, r4[2]
	}
	{
		nop
		ldw r1, r4[3]
	}
	.loc	2 326 5
.Ltmp246:
	ldaw r1, r1[8]
	.loc	2 326 5
	{
		lsu r0, r1, r0
		nop
	}
	bt r0, .LBB16_8
.Ltmp247:
	{
		ldc r1, 32
		mov r0, r4
	}
	.loc	2 326 42
	bl bitwriter_grow_
	bf r0, .LBB16_17
.Ltmp248:
.LBB16_8:
	.loc	2 329 2
	{
		ldc r1, 32
		ldw r0, r4[4]
	}
	.loc	2 329 2
	{
		sub r1, r1, r0
		nop
	}
.Ltmp249:
	.loc	2 330 5
	{
		lsu r2, r1, r8
		nop
	}
	bt r2, .LBB16_10
.Ltmp250:
	{
		mkmsk r1, 32
		nop
	}
	{
		nop
		stw r1, r4[1]
	}
	.loc	2 333 3
.Ltmp251:
	ldaw r0, r0[8]
	.loc	2 333 3
	{
		mov r6, r7
		stw r0, r4[4]
	}
	bu .LBB16_17
.Ltmp252:
.LBB16_13:
	.loc	2 351 5
	{
		shr r0, r3, 5
		nop
	}
	bt r0, .LBB16_16
.Ltmp253:
	.loc	2 375 10
	{
		shr r0, r5, r3
		nop
	}
	bf r0, .LBB16_16
.Ltmp254:
	{
		ldc r6, 0
		nop
	}
	bu .LBB16_17
.LBB16_16:
.Ltmp255:
	.loc	2 354 9
	{
		mov r0, r4
		mov r1, r5
	}
	{
		mov r2, r3
		nop
	}
	bl FLAC__bitwriter_write_raw_uint32_nocheck
.Ltmp256:
	{
		mov r6, r0
		nop
	}
.Ltmp257:
.LBB16_17:
	.loc	2 376 1
	{
		mov r0, r6
		ldw r8, sp[6]
	}
	ldd r7, r6, sp[2]
	ldd r5, r4, sp[1]
	{
		nop
		retsp 8
	}
	# RETURN_REG_HOLDER
.LBB16_10:
.Ltmp258:
	.loc	2 335 10
	bf r0, .LBB16_12
.Ltmp259:
	{
		nop
		ldw r2, r4[1]
	}
	.loc	2 336 3
.Ltmp260:
	{
		shl r1, r2, r1
		stw r0, r4[4]
	}
.Ltmp261:
	.loc	2 337 3
	{
		shr r0, r5, r0
		nop
	}
	.loc	2 337 3
	{
		or r0, r1, r0
		nop
	}
	.loc	2 338 3
	{
		shr r1, r0, 24
		shr r2, r0, 8
	}
	ldc r3, 65280
	.loc	2 338 3
	{
		and r2, r2, r3
		shl r3, r0, 8
	}
	ldw r11, cp[.LCPI16_0]
	.loc	2 338 3
	{
		and r3, r3, r11
		shl r0, r0, 24
	}
	.loc	2 338 3
	{
		or r0, r0, r1
		nop
	}
	.loc	2 338 3
	{
		or r0, r0, r2
		nop
	}
	.loc	2 338 3
	{
		or r0, r0, r3
		ldw r1, r4[3]
	}
	.loc	2 338 3
	{
		add r2, r1, 1
		nop
	}
	{
		nop
		stw r2, r4[3]
	}
	{
		nop
		ldw r2, r4[0]
	}
	.loc	2 338 3
	stw r0, r2[r1]
	.loc	2 339 3
	{
		mov r6, r7
		stw r5, r4[1]
	}
	bu .LBB16_17
.Ltmp262:
.LBB16_12:
	.loc	2 342 3
	{
		byterev r0, r5
		ldw r1, r4[3]
	}
	.loc	2 342 3
	{
		add r2, r1, 1
		nop
	}
	{
		nop
		stw r2, r4[3]
	}
	{
		nop
		ldw r2, r4[0]
	}
	.loc	2 342 3
	stw r0, r2[r1]
	{
		mov r6, r7
		nop
	}
	bu .LBB16_17
.Ltmp263:
	.cc_bottom FLAC__bitwriter_write_raw_uint64.function
	.set	FLAC__bitwriter_write_raw_uint64.nstackwords,((assert.nstackwords $M bitwriter_grow_.nstackwords $M FLAC__bitwriter_write_raw_uint32_nocheck.nstackwords) + 8)
	.globl	FLAC__bitwriter_write_raw_uint64.nstackwords
	.set	FLAC__bitwriter_write_raw_uint64.maxcores,FLAC__bitwriter_write_raw_uint32_nocheck.maxcores $M bitwriter_grow_.maxcores $M 1
	.globl	FLAC__bitwriter_write_raw_uint64.maxcores
	.set	FLAC__bitwriter_write_raw_uint64.maxtimers,FLAC__bitwriter_write_raw_uint32_nocheck.maxtimers $M bitwriter_grow_.maxtimers $M 0
	.globl	FLAC__bitwriter_write_raw_uint64.maxtimers
	.set	FLAC__bitwriter_write_raw_uint64.maxchanends,FLAC__bitwriter_write_raw_uint32_nocheck.maxchanends $M bitwriter_grow_.maxchanends $M 0
	.globl	FLAC__bitwriter_write_raw_uint64.maxchanends
.Ltmp264:
	.size	FLAC__bitwriter_write_raw_uint64, .Ltmp264-FLAC__bitwriter_write_raw_uint64
.Lfunc_end16:
	.cfi_endproc

	.globl	FLAC__bitwriter_write_raw_int64
	.align	4
	.type	FLAC__bitwriter_write_raw_int64,@function
	.cc_top FLAC__bitwriter_write_raw_int64.function,FLAC__bitwriter_write_raw_int64
FLAC__bitwriter_write_raw_int64:
.Lfunc_begin17:
	.loc	2 379 0
	.cfi_startproc
	.issue_mode dual
	{
		nop
		dualentsp 6
	}
.Ltmp265:
	.cfi_def_cfa_offset 24
.Ltmp266:
	.cfi_offset 15, 0
	std r5, r4, sp[1]
.Ltmp267:
	.cfi_offset 4, -16
.Ltmp268:
	.cfi_offset 5, -12
	std r7, r6, sp[2]
.Ltmp269:
	.cfi_offset 6, -8
.Ltmp270:
	.cfi_offset 7, -4
.Ltmp271:
	{
		mov r4, r3
		mov r5, r2
	}
.Ltmp272:
	{
		mov r6, r1
		mov r7, r0
	}
.Ltmp273:
	.loc	2 382 5 prologue_end
	{
		shr r0, r4, 6
		nop
	}
	bt r0, .LBB17_2
.Ltmp274:
	{
		mkmsk r0, 32
		nop
	}
	.loc	2 383 3
	{
		mov r1, r0
		mov r2, r4
	}
	bl __ashldi3
	.loc	2 383 3
	{
		andnot r5, r1
		andnot r6, r0
	}
.Ltmp275:
.LBB17_2:
	.loc	2 384 9
	{
		mov r0, r7
		mov r1, r6
	}
	{
		mov r2, r5
		mov r3, r4
	}
	bl FLAC__bitwriter_write_raw_uint64
	.loc	2 384 9
	ldd r7, r6, sp[2]
.Ltmp276:
	ldd r5, r4, sp[1]
.Ltmp277:
	{
		nop
		retsp 6
	}
	# RETURN_REG_HOLDER
.Ltmp278:
	.cc_bottom FLAC__bitwriter_write_raw_int64.function
	.set	FLAC__bitwriter_write_raw_int64.nstackwords,((__ashldi3.nstackwords $M FLAC__bitwriter_write_raw_uint64.nstackwords) + 6)
	.globl	FLAC__bitwriter_write_raw_int64.nstackwords
	.set	FLAC__bitwriter_write_raw_int64.maxcores,FLAC__bitwriter_write_raw_uint64.maxcores $M 1
	.globl	FLAC__bitwriter_write_raw_int64.maxcores
	.set	FLAC__bitwriter_write_raw_int64.maxtimers,FLAC__bitwriter_write_raw_uint64.maxtimers $M 0
	.globl	FLAC__bitwriter_write_raw_int64.maxtimers
	.set	FLAC__bitwriter_write_raw_int64.maxchanends,FLAC__bitwriter_write_raw_uint64.maxchanends $M 0
	.globl	FLAC__bitwriter_write_raw_int64.maxchanends
.Ltmp279:
	.size	FLAC__bitwriter_write_raw_int64, .Ltmp279-FLAC__bitwriter_write_raw_int64
.Lfunc_end17:
	.cfi_endproc

	.globl	FLAC__bitwriter_write_raw_uint32_little_endian
	.align	4
	.type	FLAC__bitwriter_write_raw_uint32_little_endian,@function
	.cc_top FLAC__bitwriter_write_raw_uint32_little_endian.function,FLAC__bitwriter_write_raw_uint32_little_endian
FLAC__bitwriter_write_raw_uint32_little_endian:
.Lfunc_begin18:
	.loc	2 388 0
	.cfi_startproc
	.issue_mode dual
	{
		nop
		dualentsp 6
	}
.Ltmp280:
	.cfi_def_cfa_offset 24
.Ltmp281:
	.cfi_offset 15, 0
	std r5, r4, sp[1]
.Ltmp282:
	.cfi_offset 4, -16
.Ltmp283:
	.cfi_offset 5, -12
.Ltmp284:
	.cfi_offset 6, -8
.Ltmp285:
	{
		mov r5, r1
		stw r6, sp[4]
	}
.Ltmp286:
	{
		mov r4, r0
		zext r1, 8
	}
.Ltmp287:
	{
		ldc r2, 8
		nop
	}
	.loc	2 391 6 prologue_end
.Ltmp288:
	bl FLAC__bitwriter_write_raw_uint32_nocheck
	{
		ldc r6, 0
		nop
	}
	bf r0, .LBB18_4
.Ltmp289:
	.loc	2 393 6
	{
		shr r1, r5, 8
		nop
	}
	.loc	2 393 6
	{
		zext r1, 8
		ldc r2, 8
	}
	.loc	2 393 6
	{
		mov r0, r4
		nop
	}
	bl FLAC__bitwriter_write_raw_uint32_nocheck
	bf r0, .LBB18_4
.Ltmp290:
	.loc	2 395 6
	{
		shr r1, r5, 16
		nop
	}
	.loc	2 395 6
	{
		zext r1, 8
		ldc r2, 8
	}
	.loc	2 395 6
	{
		mov r0, r4
		nop
	}
	bl FLAC__bitwriter_write_raw_uint32_nocheck
	bf r0, .LBB18_4
.Ltmp291:
	.loc	2 397 6
	{
		shr r1, r5, 24
		ldc r2, 8
	}
	.loc	2 397 6
	{
		mov r0, r4
		nop
	}
	bl FLAC__bitwriter_write_raw_uint32_nocheck
	.loc	2 398 3
	{
		eq r0, r0, 0
		nop
	}
	{
		eq r6, r0, 0
		nop
	}
.Ltmp292:
.LBB18_4:
	.loc	2 401 1
	{
		mov r0, r6
		ldw r6, sp[4]
	}
	ldd r5, r4, sp[1]
	{
		nop
		retsp 6
	}
	# RETURN_REG_HOLDER
.Ltmp293:
	.cc_bottom FLAC__bitwriter_write_raw_uint32_little_endian.function
	.set	FLAC__bitwriter_write_raw_uint32_little_endian.nstackwords,(FLAC__bitwriter_write_raw_uint32_nocheck.nstackwords + 6)
	.globl	FLAC__bitwriter_write_raw_uint32_little_endian.nstackwords
	.set	FLAC__bitwriter_write_raw_uint32_little_endian.maxcores,FLAC__bitwriter_write_raw_uint32_nocheck.maxcores $M 1
	.globl	FLAC__bitwriter_write_raw_uint32_little_endian.maxcores
	.set	FLAC__bitwriter_write_raw_uint32_little_endian.maxtimers,FLAC__bitwriter_write_raw_uint32_nocheck.maxtimers $M 0
	.globl	FLAC__bitwriter_write_raw_uint32_little_endian.maxtimers
	.set	FLAC__bitwriter_write_raw_uint32_little_endian.maxchanends,FLAC__bitwriter_write_raw_uint32_nocheck.maxchanends $M 0
	.globl	FLAC__bitwriter_write_raw_uint32_little_endian.maxchanends
.Ltmp294:
	.size	FLAC__bitwriter_write_raw_uint32_little_endian, .Ltmp294-FLAC__bitwriter_write_raw_uint32_little_endian
.Lfunc_end18:
	.cfi_endproc

	.globl	FLAC__bitwriter_write_byte_block
	.align	4
	.type	FLAC__bitwriter_write_byte_block,@function
	.cc_top FLAC__bitwriter_write_byte_block.function,FLAC__bitwriter_write_byte_block
FLAC__bitwriter_write_byte_block:
.Lfunc_begin19:
	.loc	2 404 0
	.cfi_startproc
	.issue_mode dual
	{
		nop
		dualentsp 10
	}
.Ltmp295:
	.cfi_def_cfa_offset 40
.Ltmp296:
	.cfi_offset 15, 0
	std r5, r4, sp[1]
.Ltmp297:
	.cfi_offset 4, -32
.Ltmp298:
	.cfi_offset 5, -28
	std r7, r6, sp[2]
.Ltmp299:
	.cfi_offset 6, -24
.Ltmp300:
	.cfi_offset 7, -20
	std r9, r8, sp[3]
.Ltmp301:
	.cfi_offset 8, -16
.Ltmp302:
	.cfi_offset 9, -12
.Ltmp303:
	.cfi_offset 10, -8
.Ltmp304:
	{
		mov r4, r2
		stw r10, sp[8]
	}
.Ltmp305:
	{
		mov r5, r1
		mov r6, r0
	}
.Ltmp306:
	{
		nop
		ldw r0, r6[2]
	}
	.loc	2 408 5 prologue_end
.Ltmp307:
	{
		shr r2, r4, 2
		ldw r1, r6[3]
	}
	.loc	2 408 5
	{
		add r1, r2, r1
		nop
	}
	.loc	2 408 5
	{
		add r1, r1, 1
		nop
	}
	.loc	2 408 5
	{
		lsu r0, r1, r0
		nop
	}
	bt r0, .LBB19_3
.Ltmp308:
	.loc	2 408 75
	{
		shl r1, r4, 3
		mov r0, r6
	}
	.loc	2 408 75
	bl bitwriter_grow_
	bf r0, .LBB19_2
.Ltmp309:
.LBB19_3:
	{
		mkmsk r7, 1
		nop
	}
	bf r4, .LBB19_8
.Ltmp310:
	{
		ldc r9, 0
		ldc r8, 8
	}
	{
		ldc r10, 0
		nop
	}
.Ltmp311:
.LBB19_6:
	.loc	2 413 7
	{
		mov r0, r6
		ld8u r1, r5[r9]
	}
	.loc	2 413 7
	{
		mov r2, r8
		nop
	}
	bl FLAC__bitwriter_write_raw_uint32_nocheck
	.loc	2 413 7
	bf r0, .LBB19_7
.Ltmp312:
	.loc	2 412 24
	{
		add r9, r9, 1
		nop
	}
.Ltmp313:
	.loc	2 412 2
	{
		lsu r0, r9, r4
		nop
	}
	bt r0, .LBB19_6
	bu .LBB19_8
.Ltmp314:
.LBB19_7:
	{
		mov r7, r10
		nop
	}
	bu .LBB19_8
.LBB19_2:
	{
		ldc r7, 0
		nop
	}
.LBB19_8:
	.loc	2 418 1
	{
		mov r0, r7
		ldw r10, sp[8]
	}
	ldd r9, r8, sp[3]
	ldd r7, r6, sp[2]
	ldd r5, r4, sp[1]
	{
		nop
		retsp 10
	}
	# RETURN_REG_HOLDER
.Ltmp315:
	.cc_bottom FLAC__bitwriter_write_byte_block.function
	.set	FLAC__bitwriter_write_byte_block.nstackwords,((FLAC__bitwriter_write_raw_uint32_nocheck.nstackwords $M bitwriter_grow_.nstackwords) + 10)
	.globl	FLAC__bitwriter_write_byte_block.nstackwords
	.set	FLAC__bitwriter_write_byte_block.maxcores,FLAC__bitwriter_write_raw_uint32_nocheck.maxcores $M bitwriter_grow_.maxcores $M 1
	.globl	FLAC__bitwriter_write_byte_block.maxcores
	.set	FLAC__bitwriter_write_byte_block.maxtimers,FLAC__bitwriter_write_raw_uint32_nocheck.maxtimers $M bitwriter_grow_.maxtimers $M 0
	.globl	FLAC__bitwriter_write_byte_block.maxtimers
	.set	FLAC__bitwriter_write_byte_block.maxchanends,FLAC__bitwriter_write_raw_uint32_nocheck.maxchanends $M bitwriter_grow_.maxchanends $M 0
	.globl	FLAC__bitwriter_write_byte_block.maxchanends
.Ltmp316:
	.size	FLAC__bitwriter_write_byte_block, .Ltmp316-FLAC__bitwriter_write_byte_block
.Lfunc_end19:
	.cfi_endproc

	.section	.cp.rodata.cst4,"aMc",@progbits,4
	.cc_top .LCPI20_0.data,.LCPI20_0
	.align	4
	.type	.LCPI20_0,@object
	.size	.LCPI20_0, 4
.LCPI20_0:
	.long	16711680
	.cc_bottom .LCPI20_0.data
	.cc_top .LCPI20_1.data,.LCPI20_1
	.align	4
	.type	.LCPI20_1,@object
	.size	.LCPI20_1, 4
.LCPI20_1:
	.long	16777216
	.cc_bottom .LCPI20_1.data
	.text
	.globl	FLAC__bitwriter_write_unary_unsigned
	.align	4
	.type	FLAC__bitwriter_write_unary_unsigned,@function
	.cc_top FLAC__bitwriter_write_unary_unsigned.function,FLAC__bitwriter_write_unary_unsigned
FLAC__bitwriter_write_unary_unsigned:
.Lfunc_begin20:
	.loc	2 421 0
	.cfi_startproc
	.issue_mode dual
	{
		nop
		dualentsp 6
	}
.Ltmp317:
	.cfi_def_cfa_offset 24
.Ltmp318:
	.cfi_offset 15, 0
	std r5, r4, sp[1]
.Ltmp319:
	.cfi_offset 4, -16
.Ltmp320:
	.cfi_offset 5, -12
.Ltmp321:
	.cfi_offset 6, -8
.Ltmp322:
	{
		mov r5, r1
		stw r6, sp[4]
	}
.Ltmp323:
	{
		mov r4, r0
		shr r0, r5, 5
	}
.Ltmp324:
	.loc	2 422 5 prologue_end
	bt r0, .LBB20_2
.Ltmp325:
	.loc	2 423 10
	{
		add r2, r5, 1
		mkmsk r1, 1
	}
.Ltmp326:
	.loc	2 423 10
	{
		mov r0, r4
		nop
	}
	bl FLAC__bitwriter_write_raw_uint32_nocheck
	{
		mov r6, r0
		nop
	}
	bu .LBB20_25
.Ltmp327:
.LBB20_2:
	.loc	2 273 2
	{
		eq r0, r4, 0
		nop
	}
	{
		eq r0, r0, 0
		nop
	}
	.loc	2 273 2
	bl assert
	{
		nop
		ldw r0, r4[0]
	}
	.loc	2 274 2
	{
		eq r0, r0, 0
		nop
	}
	{
		eq r0, r0, 0
		nop
	}
	.loc	2 274 2
	bl assert
	{
		nop
		ldw r0, r4[2]
	}
	{
		nop
		ldw r1, r4[3]
	}
	.loc	2 279 5
.Ltmp328:
	{
		add r1, r1, r5
		nop
	}
	.loc	2 279 5
	{
		lsu r0, r1, r0
		nop
	}
	bt r0, .LBB20_5
.Ltmp329:
	.loc	2 279 42
	{
		mov r0, r4
		mov r1, r5
	}
	bl bitwriter_grow_
	bf r0, .LBB20_4
.Ltmp330:
.LBB20_5:
	{
		nop
		ldw r0, r4[4]
	}
	.loc	2 282 5
.Ltmp331:
	bf r0, .LBB20_6
.Ltmp332:
	{
		ldc r1, 32
		nop
	}
	.loc	2 283 3
.Ltmp333:
	{
		sub r3, r1, r0
		nop
	}
	.loc	2 283 3
	{
		lsu r11, r5, r3
		mov r2, r5
	}
	bt r11, .LBB20_9
.Ltmp334:
	.loc	2 283 3
	{
		mov r2, r3
		nop
	}
.Ltmp335:
.LBB20_9:
	{
		nop
		ldw r3, r4[1]
	}
	.loc	2 284 3
	{
		shl r3, r3, r2
		nop
	}
	.loc	2 284 3
	{
		add r0, r2, r0
		stw r3, r4[1]
	}
	.loc	2 286 3
	{
		eq r0, r0, r1
		stw r0, r4[4]
	}
	bf r0, .LBB20_16
.Ltmp336:
	.loc	2 285 3
	{
		sub r5, r5, r2
		byterev r1, r3
	}
.Ltmp337:
	{
		nop
		ldw r2, r4[3]
	}
.Ltmp338:
	.loc	2 288 4
	{
		add r0, r2, 1
		nop
	}
	{
		nop
		stw r0, r4[3]
	}
	{
		nop
		ldw r0, r4[0]
	}
	.loc	2 288 4
	stw r1, r0[r2]
	{
		ldc r1, 0
		nop
	}
	.loc	2 289 4
	{
		shr r1, r5, 5
		stw r1, r4[4]
	}
	bf r1, .LBB20_14
	bu .LBB20_11
.Ltmp339:
.LBB20_6:
	{
		nop
		ldw r0, r4[0]
	}
.Ltmp340:
.LBB20_11:
	{
		ldc r1, 0
		mov r2, r5
	}
.Ltmp341:
.LBB20_12:
	{
		nop
		ldw r3, r4[3]
	}
	.loc	2 296 3
.Ltmp342:
	{
		add r11, r3, 1
		nop
	}
	{
		nop
		stw r11, r4[3]
	}
	.loc	2 296 3
	stw r1, r0[r3]
	.loc	2 297 3
	ldaw r2, r2[-8]
.Ltmp343:
	.loc	2 295 2
	{
		shr r3, r2, 5
		nop
	}
	.loc	2 295 2
	bt r3, .LBB20_12
.Ltmp344:
	.loc	2 295 2
	{
		zext r5, 5
		nop
	}
.Ltmp345:
.LBB20_14:
	bf r5, .LBB20_16
.Ltmp346:
	{
		ldc r0, 0
		nop
	}
	{
		nop
		stw r0, r4[1]
	}
	{
		nop
		stw r5, r4[4]
	}
.Ltmp347:
.LBB20_16:
	{
		mkmsk r0, 1
		nop
	}
	.loc	2 312 2
.Ltmp348:
	bl assert
	.loc	2 314 5
.Ltmp349:
	{
		ldc r6, 0
		ldw r0, r4[0]
	}
	bf r0, .LBB20_25
.Ltmp350:
	{
		mkmsk r5, 1
		nop
	}
	.loc	2 323 2
	{
		mov r0, r5
		nop
	}
	bl assert
	{
		nop
		ldw r0, r4[2]
	}
	{
		nop
		ldw r1, r4[3]
	}
	.loc	2 326 5
.Ltmp351:
	{
		add r1, r1, 1
		nop
	}
	.loc	2 326 5
	{
		lsu r0, r1, r0
		nop
	}
	bt r0, .LBB20_19
.Ltmp352:
	{
		mkmsk r1, 1
		mov r0, r4
	}
	.loc	2 326 42
	bl bitwriter_grow_
	bf r0, .LBB20_25
.Ltmp353:
.LBB20_19:
	.loc	2 329 2
	{
		ldc r1, 32
		ldw r0, r4[4]
	}
.Ltmp354:
	.loc	2 329 2
	{
		sub r1, r1, r0
		ldc r2, 2
	}
.Ltmp355:
	.loc	2 330 5
	{
		lsu r2, r1, r2
		nop
	}
	bt r2, .LBB20_21
.Ltmp356:
	{
		nop
		ldw r1, r4[1]
	}
	.loc	2 331 3
.Ltmp357:
	{
		shl r1, r1, 1
		mkmsk r6, 1
	}
	.loc	2 332 3
	{
		or r1, r1, r6
		nop
	}
	.loc	2 332 3
	{
		add r0, r0, 1
		stw r1, r4[1]
	}
	{
		nop
		stw r0, r4[4]
	}
	bu .LBB20_25
.Ltmp358:
.LBB20_21:
	.loc	2 335 10
	bf r0, .LBB20_23
.Ltmp359:
	{
		nop
		ldw r0, r4[1]
	}
	.loc	2 336 3
.Ltmp360:
	{
		shl r0, r0, r1
		sub r1, r5, r1
	}
.Ltmp361:
	.loc	2 337 3
	{
		shr r1, r5, r1
		stw r1, r4[4]
	}
	.loc	2 337 3
	{
		or r0, r0, r1
		nop
	}
	.loc	2 338 3
	{
		shr r1, r0, 24
		shr r2, r0, 8
	}
	ldc r3, 65280
	.loc	2 338 3
	{
		and r2, r2, r3
		shl r3, r0, 8
	}
	ldw r11, cp[.LCPI20_0]
	.loc	2 338 3
	{
		and r3, r3, r11
		shl r0, r0, 24
	}
	.loc	2 338 3
	{
		or r0, r0, r1
		nop
	}
	.loc	2 338 3
	{
		or r0, r0, r2
		nop
	}
	.loc	2 338 3
	{
		or r0, r0, r3
		ldw r1, r4[3]
	}
	.loc	2 338 3
	{
		add r2, r1, 1
		nop
	}
	{
		nop
		stw r2, r4[3]
	}
	{
		nop
		ldw r2, r4[0]
	}
	.loc	2 338 3
	stw r0, r2[r1]
	{
		nop
		stw r5, r4[1]
	}
	bu .LBB20_24
.Ltmp362:
.LBB20_4:
	{
		ldc r6, 0
		nop
	}
	bu .LBB20_25
.LBB20_23:
.Ltmp363:
	{
		nop
		ldw r0, r4[3]
	}
	.loc	2 342 3
.Ltmp364:
	{
		add r1, r0, 1
		nop
	}
	{
		nop
		stw r1, r4[3]
	}
	{
		nop
		ldw r1, r4[0]
	}
	ldw r2, cp[.LCPI20_1]
	.loc	2 342 3
	stw r2, r1[r0]
.Ltmp365:
.LBB20_24:
	{
		mov r6, r5
		nop
	}
.LBB20_25:
	.loc	2 428 1
	{
		mov r0, r6
		ldw r6, sp[4]
	}
	ldd r5, r4, sp[1]
	{
		nop
		retsp 6
	}
	# RETURN_REG_HOLDER
.Ltmp366:
	.cc_bottom FLAC__bitwriter_write_unary_unsigned.function
	.set	FLAC__bitwriter_write_unary_unsigned.nstackwords,((FLAC__bitwriter_write_raw_uint32_nocheck.nstackwords $M assert.nstackwords $M bitwriter_grow_.nstackwords) + 6)
	.globl	FLAC__bitwriter_write_unary_unsigned.nstackwords
	.set	FLAC__bitwriter_write_unary_unsigned.maxcores,FLAC__bitwriter_write_raw_uint32_nocheck.maxcores $M bitwriter_grow_.maxcores $M 1
	.globl	FLAC__bitwriter_write_unary_unsigned.maxcores
	.set	FLAC__bitwriter_write_unary_unsigned.maxtimers,FLAC__bitwriter_write_raw_uint32_nocheck.maxtimers $M bitwriter_grow_.maxtimers $M 0
	.globl	FLAC__bitwriter_write_unary_unsigned.maxtimers
	.set	FLAC__bitwriter_write_unary_unsigned.maxchanends,FLAC__bitwriter_write_raw_uint32_nocheck.maxchanends $M bitwriter_grow_.maxchanends $M 0
	.globl	FLAC__bitwriter_write_unary_unsigned.maxchanends
.Ltmp367:
	.size	FLAC__bitwriter_write_unary_unsigned, .Ltmp367-FLAC__bitwriter_write_unary_unsigned
.Lfunc_end20:
	.cfi_endproc

	.section	.cp.rodata.cst4,"aMc",@progbits,4
	.cc_top .LCPI21_0.data,.LCPI21_0
	.align	4
	.type	.LCPI21_0,@object
	.size	.LCPI21_0, 4
.LCPI21_0:
	.long	16711680
	.cc_bottom .LCPI21_0.data
	.text
	.globl	FLAC__bitwriter_write_rice_signed_block
	.align	4
	.type	FLAC__bitwriter_write_rice_signed_block,@function
	.cc_top FLAC__bitwriter_write_rice_signed_block.function,FLAC__bitwriter_write_rice_signed_block
FLAC__bitwriter_write_rice_signed_block:
.Lfunc_begin21:
	.loc	2 537 0
	.cfi_startproc
	.issue_mode dual
	{
		nop
		dualentsp 12
	}
.Ltmp368:
	.cfi_def_cfa_offset 48
.Ltmp369:
	.cfi_offset 15, 0
	std r5, r4, sp[2]
.Ltmp370:
	.cfi_offset 4, -32
.Ltmp371:
	.cfi_offset 5, -28
	std r7, r6, sp[3]
.Ltmp372:
	.cfi_offset 6, -24
.Ltmp373:
	.cfi_offset 7, -20
	std r9, r8, sp[4]
.Ltmp374:
	.cfi_offset 8, -16
.Ltmp375:
	.cfi_offset 9, -12
.Ltmp376:
	.cfi_offset 10, -8
.Ltmp377:
	{
		mov r8, r3
		stw r10, sp[10]
	}
.Ltmp378:
	{
		mov r5, r2
		mov r6, r1
	}
.Ltmp379:
	{
		mov r7, r0
		mkmsk r4, 5
	}
.Ltmp380:
	.loc	2 545 2 prologue_end
	{
		eq r0, r7, 0
		nop
	}
	{
		eq r0, r0, 0
		nop
	}
	.loc	2 545 2
	bl assert
	{
		nop
		ldw r0, r7[0]
	}
	.loc	2 546 2
	{
		eq r0, r0, 0
		nop
	}
	{
		eq r0, r0, 0
		nop
	}
	.loc	2 546 2
	bl assert
	.loc	2 547 2
	{
		lsu r0, r8, r4
		nop
	}
	.loc	2 547 2
	bl assert
	{
		mkmsk r9, 1
		nop
	}
	.loc	2 549 2
	{
		mov r0, r9
		nop
	}
	bl assert
	bf r5, .LBB21_23
.Ltmp381:
	{
		mkmsk r0, 32
		nop
	}
	.loc	2 538 2
	{
		shl r1, r0, r8
		nop
	}
.Ltmp382:
	.loc	2 539 2
	{
		sub r1, r4, r8
		stw r1, sp[2]
	}
	.loc	2 539 2
	{
		shr r0, r0, r1
		nop
	}
.Ltmp383:
	{
		nop
		stw r0, sp[1]
	}
.Ltmp384:
	.loc	2 542 2
	{
		add r8, r8, 1
		stw r8, sp[3]
	}
.Ltmp385:
	{
		ldc r9, 0
		nop
	}
.Ltmp386:
.LBB21_2:
	{
		nop
		ldw r0, r6[0]
	}
.Ltmp387:
	.loc	2 554 3
	{
		shl r1, r0, 1
		nop
	}
.Ltmp388:
	.loc	2 555 3
	ashr r0, r0, 32
	.loc	2 555 3
	xor r10, r1, r0
.Ltmp389:
	{
		nop
		ldw r0, sp[3]
	}
	.loc	2 557 3
	{
		shr r4, r10, r0
		nop
	}
.Ltmp390:
	.loc	2 558 3
	{
		add r1, r4, r8
		ldw r0, r7[4]
	}
.Ltmp391:
	bf r0, .LBB21_5
.Ltmp392:
	.loc	2 560 6
	{
		add r2, r1, r0
		nop
	}
	.loc	2 560 6
	{
		shr r3, r2, 5
		nop
	}
	bt r3, .LBB21_5
.Ltmp393:
	{
		nop
		stw r2, r7[4]
	}
	{
		nop
		ldw r0, sp[2]
	}
.Ltmp394:
	.loc	2 563 4
	{
		or r0, r10, r0
		ldw r2, sp[1]
	}
.Ltmp395:
	.loc	2 564 4
	{
		and r0, r0, r2
		ldw r2, r7[1]
	}
	.loc	2 565 4
	{
		shl r1, r2, r1
		nop
	}
.Ltmp396:
	.loc	2 566 4
	{
		or r0, r1, r0
		nop
	}
	{
		nop
		stw r0, r7[1]
	}
	bu .LBB21_21
.Ltmp397:
.LBB21_5:
	{
		nop
		ldw r2, r7[2]
	}
	{
		nop
		ldw r3, r7[3]
	}
	.loc	2 571 7
.Ltmp398:
	{
		add r3, r4, r3
		nop
	}
	.loc	2 571 7
	{
		add r0, r3, r0
		nop
	}
	.loc	2 571 7
	{
		add r0, r0, 1
		nop
	}
	.loc	2 571 7
	{
		lsu r0, r0, r2
		nop
	}
	bt r0, .LBB21_7
.Ltmp399:
	.loc	2 571 97
	{
		mov r0, r7
		nop
	}
	bl bitwriter_grow_
.Ltmp400:
	bf r0, .LBB21_23
.Ltmp401:
.LBB21_7:
	bf r4, .LBB21_18
.Ltmp402:
	{
		nop
		ldw r0, r7[4]
	}
	bf r0, .LBB21_12
.Ltmp403:
	{
		ldc r1, 32
		nop
	}
.Ltmp404:
	.loc	2 577 6
	{
		sub r1, r1, r0
		ldw r2, r7[1]
	}
.Ltmp405:
	.loc	2 578 9
	{
		lsu r3, r4, r1
		nop
	}
	bf r3, .LBB21_11
.Ltmp406:
	.loc	2 579 7
	{
		shl r1, r2, r4
		nop
	}
	.loc	2 579 7
	{
		add r0, r0, r4
		stw r1, r7[1]
	}
	{
		nop
		stw r0, r7[4]
	}
	bu .LBB21_18
.Ltmp407:
.LBB21_11:
	.loc	2 584 7
	{
		shl r0, r2, r1
		nop
	}
	.loc	2 584 7
	{
		sub r4, r4, r1
		stw r0, r7[1]
	}
.Ltmp408:
	.loc	2 586 7
	{
		byterev r0, r0
		ldw r1, r7[3]
	}
.Ltmp409:
	.loc	2 586 7
	{
		add r2, r1, 1
		nop
	}
	{
		nop
		stw r2, r7[3]
	}
	{
		nop
		ldw r2, r7[0]
	}
	.loc	2 586 7
	stw r0, r2[r1]
	{
		nop
		stw r9, r7[4]
	}
.Ltmp410:
.LBB21_12:
	.loc	2 591 5
	{
		shr r0, r4, 5
		nop
	}
	bf r0, .LBB21_16
.Ltmp411:
	.loc	2 592 6
	{
		mov r1, r4
		ldw r0, r7[0]
	}
.Ltmp412:
.LBB21_14:
	{
		nop
		ldw r2, r7[3]
	}
	.loc	2 592 6
	{
		add r3, r2, 1
		nop
	}
	{
		nop
		stw r3, r7[3]
	}
	.loc	2 592 6
	stw r9, r0[r2]
	.loc	2 593 6
	ldaw r1, r1[-8]
.Ltmp413:
	.loc	2 591 5
	{
		shr r2, r1, 5
		nop
	}
	.loc	2 591 5
	bt r2, .LBB21_14
.Ltmp414:
	.loc	2 591 5
	{
		zext r4, 5
		nop
	}
.Ltmp415:
.LBB21_16:
	bf r4, .LBB21_18
.Ltmp416:
	{
		nop
		stw r9, r7[1]
	}
	{
		nop
		stw r4, r7[4]
	}
.Ltmp417:
.LBB21_18:
	{
		nop
		ldw r0, sp[2]
	}
.Ltmp418:
	.loc	2 602 4
	{
		or r0, r10, r0
		ldw r1, sp[1]
	}
.Ltmp419:
	.loc	2 603 4
	{
		and r4, r0, r1
		ldw r0, r7[4]
	}
.Ltmp420:
	{
		ldc r1, 32
		nop
	}
	.loc	2 605 4
	{
		sub r10, r1, r0
		nop
	}
.Ltmp421:
	.loc	2 606 7
	{
		lsu r1, r8, r10
		nop
	}
	bf r1, .LBB21_20
.Ltmp422:
	{
		nop
		ldw r1, r7[1]
	}
	.loc	2 607 5
.Ltmp423:
	{
		shl r1, r1, r8
		nop
	}
	.loc	2 608 5
	{
		or r1, r1, r4
		nop
	}
	.loc	2 608 5
	{
		add r0, r0, r8
		stw r1, r7[1]
	}
	{
		nop
		stw r0, r7[4]
	}
	bu .LBB21_21
.Ltmp424:
.LBB21_20:
	.loc	2 616 5
	bl assert
	.loc	2 617 5
	{
		shr r0, r10, 5
		nop
	}
	{
		eq r0, r0, 0
		nop
	}
	.loc	2 617 5
	bl assert
	{
		nop
		ldw r0, r7[1]
	}
	.loc	2 618 5
	{
		shl r0, r0, r10
		sub r1, r8, r10
	}
	.loc	2 619 5
	{
		shr r1, r4, r1
		stw r1, r7[4]
	}
	.loc	2 619 5
	{
		or r0, r0, r1
		nop
	}
	.loc	2 620 5
	{
		shr r1, r0, 24
		shr r2, r0, 8
	}
	ldc r3, 65280
	.loc	2 620 5
	{
		and r2, r2, r3
		shl r3, r0, 8
	}
	ldw r11, cp[.LCPI21_0]
	.loc	2 620 5
	{
		and r3, r3, r11
		shl r0, r0, 24
	}
	.loc	2 620 5
	{
		or r0, r0, r1
		nop
	}
	.loc	2 620 5
	{
		or r0, r0, r2
		nop
	}
	.loc	2 620 5
	{
		or r0, r0, r3
		ldw r1, r7[3]
	}
	.loc	2 620 5
	{
		add r2, r1, 1
		nop
	}
	{
		nop
		stw r2, r7[3]
	}
	{
		nop
		ldw r2, r7[0]
	}
	.loc	2 620 5
	stw r0, r2[r1]
	{
		nop
		stw r4, r7[1]
	}
.Ltmp425:
.LBB21_21:
	.loc	2 624 3
	{
		add r6, r6, 4
		sub r5, r5, 1
	}
.Ltmp426:
	bt r5, .LBB21_2
.Ltmp427:
	{
		mkmsk r9, 1
		nop
	}
.LBB21_23:
	.loc	2 628 1
	{
		mov r0, r9
		ldw r10, sp[10]
	}
	ldd r9, r8, sp[4]
	ldd r7, r6, sp[3]
	ldd r5, r4, sp[2]
	{
		nop
		retsp 12
	}
	# RETURN_REG_HOLDER
.Ltmp428:
	.cc_bottom FLAC__bitwriter_write_rice_signed_block.function
	.set	FLAC__bitwriter_write_rice_signed_block.nstackwords,((assert.nstackwords $M bitwriter_grow_.nstackwords) + 12)
	.globl	FLAC__bitwriter_write_rice_signed_block.nstackwords
	.set	FLAC__bitwriter_write_rice_signed_block.maxcores,bitwriter_grow_.maxcores $M 1
	.globl	FLAC__bitwriter_write_rice_signed_block.maxcores
	.set	FLAC__bitwriter_write_rice_signed_block.maxtimers,bitwriter_grow_.maxtimers $M 0
	.globl	FLAC__bitwriter_write_rice_signed_block.maxtimers
	.set	FLAC__bitwriter_write_rice_signed_block.maxchanends,bitwriter_grow_.maxchanends $M 0
	.globl	FLAC__bitwriter_write_rice_signed_block.maxchanends
.Ltmp429:
	.size	FLAC__bitwriter_write_rice_signed_block, .Ltmp429-FLAC__bitwriter_write_rice_signed_block
.Lfunc_end21:
	.cfi_endproc

	.globl	FLAC__bitwriter_write_utf8_uint32
	.align	4
	.type	FLAC__bitwriter_write_utf8_uint32,@function
	.cc_top FLAC__bitwriter_write_utf8_uint32.function,FLAC__bitwriter_write_utf8_uint32
FLAC__bitwriter_write_utf8_uint32:
.Lfunc_begin22:
	.loc	2 755 0
	.cfi_startproc
	.issue_mode dual
	{
		nop
		dualentsp 8
	}
.Ltmp430:
	.cfi_def_cfa_offset 32
.Ltmp431:
	.cfi_offset 15, 0
	std r5, r4, sp[1]
.Ltmp432:
	.cfi_offset 4, -24
.Ltmp433:
	.cfi_offset 5, -20
	std r7, r6, sp[2]
.Ltmp434:
	.cfi_offset 6, -16
.Ltmp435:
	.cfi_offset 7, -12
.Ltmp436:
	.cfi_offset 8, -8
.Ltmp437:
	{
		mov r5, r1
		stw r8, sp[6]
	}
.Ltmp438:
	{
		mov r4, r0
		nop
	}
.Ltmp439:
	.loc	2 758 2 prologue_end
	{
		eq r0, r4, 0
		nop
	}
	{
		eq r0, r0, 0
		nop
	}
	.loc	2 758 2
	bl assert
	{
		nop
		ldw r0, r4[0]
	}
	.loc	2 759 2
	{
		eq r0, r0, 0
		nop
	}
	{
		eq r0, r0, 0
		nop
	}
	.loc	2 759 2
	bl assert
	.loc	2 761 5
.Ltmp440:
	ashr r0, r5, 32
	bt r0, .LBB22_1
.Ltmp441:
	.loc	2 764 5
	{
		shr r0, r5, 7
		nop
	}
	bt r0, .LBB22_4
.Ltmp442:
	{
		ldc r2, 8
		mov r0, r4
	}
	.loc	2 765 10
.Ltmp443:
	{
		mov r1, r5
		nop
	}
	bl FLAC__bitwriter_write_raw_uint32_nocheck
	bu .LBB22_17
.Ltmp444:
.LBB22_1:
	{
		ldc r0, 0
		nop
	}
	bu .LBB22_17
.LBB22_4:
.Ltmp445:
	{
		ldc r0, 11
		nop
	}
	.loc	2 767 10
.Ltmp446:
	{
		shr r0, r5, r0
		nop
	}
	bt r0, .LBB22_6
.Ltmp447:
	.loc	2 768 9
	{
		shr r0, r5, 6
		nop
	}
	ldc r1, 192
	.loc	2 768 9
	{
		or r1, r0, r1
		ldc r6, 8
	}
	.loc	2 768 9
	{
		mov r0, r4
		mov r2, r6
	}
	bl FLAC__bitwriter_write_raw_uint32_nocheck
	{
		mov r7, r0
		zext r5, 6
	}
.Ltmp448:
	ldc r0, 128
	.loc	2 769 9
	{
		or r1, r5, r0
		nop
	}
	bu .LBB22_16
.Ltmp449:
.LBB22_6:
	.loc	2 771 10
	{
		shr r0, r5, 16
		nop
	}
	bt r0, .LBB22_8
.Ltmp450:
	{
		ldc r0, 12
		nop
	}
	.loc	2 772 9
.Ltmp451:
	{
		shr r0, r5, r0
		nop
	}
	ldc r1, 224
	.loc	2 772 9
	{
		or r1, r0, r1
		ldc r6, 8
	}
	.loc	2 772 9
	{
		mov r0, r4
		mov r2, r6
	}
	bl FLAC__bitwriter_write_raw_uint32_nocheck
	{
		mov r7, r0
		shr r0, r5, 6
	}
	.loc	2 773 9
	{
		zext r0, 6
		nop
	}
	ldc r8, 128
	bu .LBB22_15
.Ltmp452:
.LBB22_8:
	{
		ldc r0, 21
		nop
	}
	.loc	2 776 10
.Ltmp453:
	{
		shr r0, r5, r0
		nop
	}
	bt r0, .LBB22_10
.Ltmp454:
	{
		ldc r0, 18
		nop
	}
	.loc	2 777 9
.Ltmp455:
	{
		shr r0, r5, r0
		nop
	}
	ldc r1, 240
	.loc	2 777 9
	{
		or r1, r0, r1
		ldc r6, 8
	}
	.loc	2 777 9
	{
		mov r0, r4
		mov r2, r6
	}
	bl FLAC__bitwriter_write_raw_uint32_nocheck
	{
		mov r7, r0
		ldc r0, 12
	}
	.loc	2 778 9
	{
		shr r0, r5, r0
		nop
	}
	.loc	2 778 9
	{
		zext r0, 6
		nop
	}
	ldc r8, 128
	bu .LBB22_14
.Ltmp456:
.LBB22_10:
	{
		ldc r0, 26
		nop
	}
	.loc	2 782 10
.Ltmp457:
	{
		shr r0, r5, r0
		nop
	}
	bt r0, .LBB22_12
.Ltmp458:
	.loc	2 783 9
	{
		shr r0, r5, 24
		nop
	}
	ldc r1, 248
	.loc	2 783 9
	{
		or r1, r0, r1
		ldc r6, 8
	}
	.loc	2 783 9
	{
		mov r0, r4
		mov r2, r6
	}
	bl FLAC__bitwriter_write_raw_uint32_nocheck
	{
		mov r7, r0
		ldc r0, 18
	}
	.loc	2 784 9
	{
		shr r0, r5, r0
		nop
	}
	.loc	2 784 9
	{
		zext r0, 6
		nop
	}
	ldc r8, 128
	bu .LBB22_13
.Ltmp459:
.LBB22_12:
	{
		ldc r0, 30
		nop
	}
	.loc	2 790 9
.Ltmp460:
	{
		shr r0, r5, r0
		nop
	}
	ldc r1, 252
	.loc	2 790 9
	{
		or r1, r0, r1
		ldc r6, 8
	}
	.loc	2 790 9
	{
		mov r0, r4
		mov r2, r6
	}
	bl FLAC__bitwriter_write_raw_uint32_nocheck
	{
		mov r7, r0
		shr r0, r5, 24
	}
	.loc	2 791 9
	{
		zext r0, 6
		nop
	}
	ldc r8, 128
	.loc	2 791 9
	{
		or r1, r0, r8
		mov r0, r4
	}
	.loc	2 791 9
	{
		mov r2, r6
		nop
	}
	bl FLAC__bitwriter_write_raw_uint32_nocheck
	.loc	2 790 9
	{
		and r7, r7, r0
		ldc r0, 18
	}
	.loc	2 792 9
	{
		shr r0, r5, r0
		nop
	}
	.loc	2 792 9
	{
		zext r0, 6
		nop
	}
.Ltmp461:
.LBB22_13:
	.loc	2 792 9
	{
		or r1, r0, r8
		mov r0, r4
	}
	.loc	2 792 9
	{
		mov r2, r6
		nop
	}
	bl FLAC__bitwriter_write_raw_uint32_nocheck
	.loc	2 791 9
	{
		and r7, r7, r0
		ldc r0, 12
	}
	.loc	2 793 9
	{
		shr r0, r5, r0
		nop
	}
	.loc	2 793 9
	{
		zext r0, 6
		nop
	}
.LBB22_14:
	.loc	2 793 9
	{
		or r1, r0, r8
		mov r0, r4
	}
	.loc	2 793 9
	{
		mov r2, r6
		nop
	}
	bl FLAC__bitwriter_write_raw_uint32_nocheck
	.loc	2 792 9
	{
		and r7, r7, r0
		shr r0, r5, 6
	}
	.loc	2 794 9
	{
		zext r0, 6
		nop
	}
.LBB22_15:
	.loc	2 794 9
	{
		or r1, r0, r8
		mov r0, r4
	}
	.loc	2 794 9
	{
		mov r2, r6
		nop
	}
	bl FLAC__bitwriter_write_raw_uint32_nocheck
	.loc	2 793 9
	{
		and r7, r7, r0
		zext r5, 6
	}
	.loc	2 795 9
	{
		or r1, r5, r8
		nop
	}
.LBB22_16:
	.loc	2 795 9
	{
		mov r0, r4
		mov r2, r6
	}
	bl FLAC__bitwriter_write_raw_uint32_nocheck
	.loc	2 794 9
	{
		and r0, r7, r0
		nop
	}
	.loc	2 795 9
	{
		zext r0, 1
		nop
	}
.Ltmp462:
.LBB22_17:
	{
		nop
		ldw r8, sp[6]
	}
	.loc	2 799 1
	ldd r7, r6, sp[2]
	ldd r5, r4, sp[1]
	{
		nop
		retsp 8
	}
	# RETURN_REG_HOLDER
.Ltmp463:
	.cc_bottom FLAC__bitwriter_write_utf8_uint32.function
	.set	FLAC__bitwriter_write_utf8_uint32.nstackwords,((assert.nstackwords $M FLAC__bitwriter_write_raw_uint32_nocheck.nstackwords) + 8)
	.globl	FLAC__bitwriter_write_utf8_uint32.nstackwords
	.set	FLAC__bitwriter_write_utf8_uint32.maxcores,FLAC__bitwriter_write_raw_uint32_nocheck.maxcores $M 1
	.globl	FLAC__bitwriter_write_utf8_uint32.maxcores
	.set	FLAC__bitwriter_write_utf8_uint32.maxtimers,FLAC__bitwriter_write_raw_uint32_nocheck.maxtimers $M 0
	.globl	FLAC__bitwriter_write_utf8_uint32.maxtimers
	.set	FLAC__bitwriter_write_utf8_uint32.maxchanends,FLAC__bitwriter_write_raw_uint32_nocheck.maxchanends $M 0
	.globl	FLAC__bitwriter_write_utf8_uint32.maxchanends
.Ltmp464:
	.size	FLAC__bitwriter_write_utf8_uint32, .Ltmp464-FLAC__bitwriter_write_utf8_uint32
.Lfunc_end22:
	.cfi_endproc

	.section	.cp.rodata.cst4,"aMc",@progbits,4
	.cc_top .LCPI23_0.data,.LCPI23_0
	.align	4
	.type	.LCPI23_0,@object
	.size	.LCPI23_0, 4
.LCPI23_0:
	.long	16711680
	.cc_bottom .LCPI23_0.data
	.cc_top .LCPI23_1.data,.LCPI23_1
	.align	4
	.type	.LCPI23_1,@object
	.size	.LCPI23_1, 4
.LCPI23_1:
	.long	4261412864
	.cc_bottom .LCPI23_1.data
	.text
	.globl	FLAC__bitwriter_write_utf8_uint64
	.align	4
	.type	FLAC__bitwriter_write_utf8_uint64,@function
	.cc_top FLAC__bitwriter_write_utf8_uint64.function,FLAC__bitwriter_write_utf8_uint64
FLAC__bitwriter_write_utf8_uint64:
.Lfunc_begin23:
	.loc	2 802 0
	.cfi_startproc
	.issue_mode dual
	{
		nop
		dualentsp 8
	}
.Ltmp465:
	.cfi_def_cfa_offset 32
.Ltmp466:
	.cfi_offset 15, 0
	std r5, r4, sp[1]
.Ltmp467:
	.cfi_offset 4, -24
.Ltmp468:
	.cfi_offset 5, -20
	std r7, r6, sp[2]
.Ltmp469:
	.cfi_offset 6, -16
.Ltmp470:
	.cfi_offset 7, -12
.Ltmp471:
	.cfi_offset 8, -8
	{
		mov r6, r2
		stw r8, sp[6]
	}
.Ltmp472:
	{
		mov r5, r1
		mov r4, r0
	}
.Ltmp473:
	.loc	2 805 2 prologue_end
	{
		eq r0, r4, 0
		nop
	}
	{
		eq r0, r0, 0
		nop
	}
	.loc	2 805 2
	bl assert
	{
		nop
		ldw r0, r4[0]
	}
	.loc	2 806 2
	{
		eq r0, r0, 0
		nop
	}
	{
		eq r0, r0, 0
		nop
	}
	.loc	2 806 2
	bl assert
	.loc	2 808 5
.Ltmp474:
	{
		shr r0, r6, 4
		nop
	}
	.loc	2 808 5
	bf r0, .LBB23_2
.Ltmp475:
	{
		ldc r0, 0
		nop
	}
	bu .LBB23_28
.LBB23_2:
.Ltmp476:
	{
		ldc r0, 25
		nop
	}
	.loc	2 811 5
.Ltmp477:
	{
		shl r0, r6, r0
		shr r1, r5, 7
	}
	{
		or r0, r1, r0
		shr r1, r6, 7
	}
	{
		or r0, r0, r1
		nop
	}
	bt r0, .LBB23_4
.Ltmp478:
	{
		ldc r2, 8
		mov r0, r4
	}
	.loc	2 812 10
.Ltmp479:
	{
		mov r1, r5
		nop
	}
	bl FLAC__bitwriter_write_raw_uint32_nocheck
	bu .LBB23_28
.Ltmp480:
.LBB23_4:
	{
		ldc r0, 11
		nop
	}
	.loc	2 814 10
.Ltmp481:
	{
		shr r2, r5, r0
		ldc r1, 21
	}
	{
		shl r3, r6, r1
		nop
	}
	{
		or r2, r2, r3
		shr r3, r6, r0
	}
	{
		or r2, r2, r3
		nop
	}
	bt r2, .LBB23_6
.Ltmp482:
	{
		ldc r0, 26
		nop
	}
	.loc	2 815 9
.Ltmp483:
	{
		shl r0, r6, r0
		shr r1, r5, 6
	}
	{
		or r0, r1, r0
		nop
	}
	ldc r1, 192
	.loc	2 815 9
	{
		or r1, r0, r1
		ldc r6, 8
	}
	.loc	2 815 9
	{
		mov r0, r4
		mov r2, r6
	}
	bl FLAC__bitwriter_write_raw_uint32_nocheck
	{
		mov r7, r0
		zext r5, 6
	}
	ldc r0, 128
	.loc	2 816 9
	{
		or r1, r5, r0
		nop
	}
	bu .LBB23_15
.Ltmp484:
.LBB23_6:
	.loc	2 818 10
	{
		shr r2, r5, 16
		shl r3, r6, 16
	}
	{
		or r2, r2, r3
		shr r3, r6, 16
	}
	{
		or r2, r2, r3
		nop
	}
	bt r2, .LBB23_8
.Ltmp485:
	{
		ldc r0, 12
		nop
	}
	.loc	2 819 9
.Ltmp486:
	{
		shr r0, r5, r0
		ldc r1, 20
	}
	{
		shl r1, r6, r1
		nop
	}
	{
		or r0, r0, r1
		nop
	}
	ldc r1, 224
	.loc	2 819 9
	{
		or r1, r0, r1
		ldc r6, 8
	}
	.loc	2 819 9
	{
		mov r0, r4
		mov r2, r6
	}
	bl FLAC__bitwriter_write_raw_uint32_nocheck
	{
		mov r7, r0
		shr r0, r5, 6
	}
	.loc	2 820 9
	{
		zext r0, 6
		nop
	}
	ldc r8, 128
	bu .LBB23_14
.Ltmp487:
.LBB23_8:
	.loc	2 823 10
	{
		shr r2, r5, r1
		shl r0, r6, r0
	}
	{
		or r0, r2, r0
		shr r1, r6, r1
	}
	{
		or r0, r0, r1
		nop
	}
	bt r0, .LBB23_10
.Ltmp488:
	{
		ldc r0, 18
		nop
	}
	.loc	2 824 9
.Ltmp489:
	{
		shr r0, r5, r0
		ldc r1, 14
	}
	{
		shl r1, r6, r1
		nop
	}
	{
		or r0, r0, r1
		nop
	}
	ldc r1, 240
	.loc	2 824 9
	{
		or r1, r0, r1
		ldc r6, 8
	}
	.loc	2 824 9
	{
		mov r0, r4
		mov r2, r6
	}
	bl FLAC__bitwriter_write_raw_uint32_nocheck
	{
		mov r7, r0
		ldc r0, 12
	}
	.loc	2 825 9
	{
		shr r0, r5, r0
		nop
	}
	.loc	2 825 9
	{
		zext r0, 6
		nop
	}
	ldc r8, 128
	bu .LBB23_13
.Ltmp490:
.LBB23_10:
	{
		ldc r0, 26
		nop
	}
	.loc	2 829 10
.Ltmp491:
	{
		shr r1, r6, r0
		shr r0, r5, r0
	}
	{
		shl r2, r6, 6
		nop
	}
	{
		or r0, r0, r2
		nop
	}
	{
		or r0, r0, r1
		nop
	}
	bt r0, .LBB23_16
.Ltmp492:
	.loc	2 830 9
	{
		shr r0, r5, 24
		shl r1, r6, 8
	}
	{
		or r0, r0, r1
		nop
	}
	ldc r1, 248
	.loc	2 830 9
	{
		or r1, r0, r1
		ldc r6, 8
	}
	.loc	2 830 9
	{
		mov r0, r4
		mov r2, r6
	}
	bl FLAC__bitwriter_write_raw_uint32_nocheck
	{
		mov r7, r0
		ldc r0, 18
	}
	.loc	2 831 9
	{
		shr r0, r5, r0
		nop
	}
	.loc	2 831 9
	{
		zext r0, 6
		nop
	}
	ldc r8, 128
	bu .LBB23_12
.Ltmp493:
.LBB23_16:
	{
		mkmsk r0, 5
		nop
	}
	.loc	2 836 10
.Ltmp494:
	{
		shr r1, r6, r0
		shr r0, r5, r0
	}
	{
		shl r2, r6, 1
		nop
	}
	{
		or r0, r0, r2
		nop
	}
	{
		or r0, r0, r1
		nop
	}
	bt r0, .LBB23_18
.Ltmp495:
	{
		ldc r0, 30
		nop
	}
	.loc	2 837 9
.Ltmp496:
	{
		shr r0, r5, r0
		shl r1, r6, 2
	}
	{
		or r0, r0, r1
		nop
	}
	ldc r1, 252
	.loc	2 837 9
	{
		or r1, r0, r1
		ldc r6, 8
	}
	.loc	2 837 9
	{
		mov r0, r4
		mov r2, r6
	}
	bl FLAC__bitwriter_write_raw_uint32_nocheck
	{
		mov r7, r0
		shr r0, r5, 24
	}
	.loc	2 838 9
	{
		zext r0, 6
		nop
	}
	ldc r8, 128
	.loc	2 838 9
	{
		or r1, r0, r8
		mov r0, r4
	}
	.loc	2 838 9
	{
		mov r2, r6
		nop
	}
	bl FLAC__bitwriter_write_raw_uint32_nocheck
	.loc	2 837 9
	{
		and r7, r7, r0
		ldc r0, 18
	}
	.loc	2 839 9
	{
		shr r0, r5, r0
		nop
	}
	.loc	2 839 9
	{
		zext r0, 6
		nop
	}
.Ltmp497:
.LBB23_12:
	.loc	2 831 9
	{
		or r1, r0, r8
		mov r0, r4
	}
	.loc	2 831 9
	{
		mov r2, r6
		nop
	}
	bl FLAC__bitwriter_write_raw_uint32_nocheck
	.loc	2 830 9
	{
		and r7, r7, r0
		ldc r0, 12
	}
	.loc	2 832 9
	{
		shr r0, r5, r0
		nop
	}
	.loc	2 832 9
	{
		zext r0, 6
		nop
	}
.LBB23_13:
	.loc	2 832 9
	{
		or r1, r0, r8
		mov r0, r4
	}
	.loc	2 832 9
	{
		mov r2, r6
		nop
	}
	bl FLAC__bitwriter_write_raw_uint32_nocheck
	.loc	2 831 9
	{
		and r7, r7, r0
		shr r0, r5, 6
	}
	.loc	2 833 9
	{
		zext r0, 6
		nop
	}
.LBB23_14:
	.loc	2 833 9
	{
		or r1, r0, r8
		mov r0, r4
	}
	.loc	2 833 9
	{
		mov r2, r6
		nop
	}
	bl FLAC__bitwriter_write_raw_uint32_nocheck
	.loc	2 832 9
	{
		and r7, r7, r0
		zext r5, 6
	}
	.loc	2 834 9
	{
		or r1, r5, r8
		nop
	}
.LBB23_15:
	.loc	2 834 9
	{
		mov r0, r4
		mov r2, r6
	}
	bl FLAC__bitwriter_write_raw_uint32_nocheck
	.loc	2 833 9
	{
		and r0, r7, r0
		nop
	}
	.loc	2 834 9
	{
		zext r0, 1
		nop
	}
.Ltmp498:
.LBB23_28:
	{
		nop
		ldw r8, sp[6]
	}
	.loc	2 855 1
	ldd r7, r6, sp[2]
	ldd r5, r4, sp[1]
	{
		nop
		retsp 8
	}
	# RETURN_REG_HOLDER
.LBB23_18:
.Ltmp499:
	{
		mkmsk r0, 1
		nop
	}
	.loc	2 312 2
.Ltmp500:
	bl assert
	.loc	2 314 5
.Ltmp501:
	{
		ldc r8, 0
		ldw r0, r4[0]
	}
	bf r0, .LBB23_27
.Ltmp502:
	{
		mkmsk r7, 1
		nop
	}
	.loc	2 323 2
	{
		mov r0, r7
		nop
	}
	bl assert
	{
		nop
		ldw r0, r4[2]
	}
	{
		nop
		ldw r1, r4[3]
	}
	.loc	2 326 5
.Ltmp503:
	{
		add r1, r1, 8
		nop
	}
	.loc	2 326 5
	{
		lsu r0, r1, r0
		nop
	}
	bt r0, .LBB23_21
.Ltmp504:
	{
		ldc r1, 8
		mov r0, r4
	}
	.loc	2 326 42
	bl bitwriter_grow_
	bf r0, .LBB23_27
.Ltmp505:
.LBB23_21:
	.loc	2 329 2
	{
		ldc r1, 32
		ldw r0, r4[4]
	}
.Ltmp506:
	.loc	2 329 2
	{
		sub r1, r1, r0
		ldc r2, 9
	}
.Ltmp507:
	.loc	2 330 5
	{
		lsu r2, r1, r2
		nop
	}
	bt r2, .LBB23_23
.Ltmp508:
	{
		nop
		ldw r1, r4[1]
	}
	.loc	2 331 3
.Ltmp509:
	{
		shl r1, r1, 8
		nop
	}
	ldc r2, 254
	.loc	2 332 3
	{
		or r1, r1, r2
		nop
	}
	.loc	2 332 3
	{
		add r0, r0, 8
		stw r1, r4[1]
	}
	{
		nop
		stw r0, r4[4]
	}
	bu .LBB23_26
.Ltmp510:
.LBB23_23:
	.loc	2 335 10
	bf r0, .LBB23_25
.Ltmp511:
	{
		nop
		ldw r0, r4[1]
	}
	.loc	2 336 3
.Ltmp512:
	{
		shl r0, r0, r1
		ldc r2, 8
	}
	.loc	2 337 3
	{
		sub r1, r2, r1
		nop
	}
.Ltmp513:
	{
		nop
		stw r1, r4[4]
	}
	ldc r2, 254
	.loc	2 337 3
	{
		shr r1, r2, r1
		nop
	}
	.loc	2 337 3
	{
		or r0, r0, r1
		nop
	}
	.loc	2 338 3
	{
		shr r1, r0, 24
		shr r3, r0, 8
	}
	ldc r11, 65280
	.loc	2 338 3
	{
		and r3, r3, r11
		shl r11, r0, 8
	}
	ldw r8, cp[.LCPI23_0]
	.loc	2 338 3
	{
		and r11, r11, r8
		shl r0, r0, 24
	}
	.loc	2 338 3
	{
		or r0, r0, r1
		nop
	}
	.loc	2 338 3
	{
		or r0, r0, r3
		nop
	}
	.loc	2 338 3
	{
		or r0, r0, r11
		ldw r1, r4[3]
	}
	.loc	2 338 3
	{
		add r3, r1, 1
		nop
	}
	{
		nop
		stw r3, r4[3]
	}
	{
		nop
		ldw r3, r4[0]
	}
	.loc	2 338 3
	stw r0, r3[r1]
	{
		nop
		stw r2, r4[1]
	}
	bu .LBB23_26
.Ltmp514:
.LBB23_25:
	{
		nop
		ldw r0, r4[3]
	}
	.loc	2 342 3
.Ltmp515:
	{
		add r1, r0, 1
		nop
	}
	{
		nop
		stw r1, r4[3]
	}
	{
		nop
		ldw r1, r4[0]
	}
	ldw r2, cp[.LCPI23_1]
	.loc	2 342 3
	stw r2, r1[r0]
.Ltmp516:
.LBB23_26:
	.loc	2 845 9
	{
		mov r8, r7
		nop
	}
.LBB23_27:
.Ltmp517:
	{
		ldc r0, 30
		nop
	}
	.loc	2 846 9
	{
		shr r0, r5, r0
		shl r1, r6, 2
	}
	{
		or r0, r0, r1
		nop
	}
	.loc	2 846 9
	{
		zext r0, 6
		nop
	}
	ldc r7, 128
	.loc	2 846 9
	{
		or r1, r0, r7
		ldc r6, 8
	}
	.loc	2 846 9
	{
		mov r0, r4
		mov r2, r6
	}
	bl FLAC__bitwriter_write_raw_uint32_nocheck
.Ltmp518:
	.loc	2 846 9
	{
		and r8, r0, r8
		shr r0, r5, 24
	}
.Ltmp519:
	.loc	2 847 9
	{
		zext r0, 6
		nop
	}
	.loc	2 847 9
	{
		or r1, r0, r7
		mov r0, r4
	}
	.loc	2 847 9
	{
		mov r2, r6
		nop
	}
	bl FLAC__bitwriter_write_raw_uint32_nocheck
	.loc	2 847 9
	{
		and r8, r8, r0
		ldc r0, 18
	}
	.loc	2 848 9
	{
		shr r0, r5, r0
		nop
	}
	.loc	2 848 9
	{
		zext r0, 6
		nop
	}
	.loc	2 848 9
	{
		or r1, r0, r7
		mov r0, r4
	}
	.loc	2 848 9
	{
		mov r2, r6
		nop
	}
	bl FLAC__bitwriter_write_raw_uint32_nocheck
	.loc	2 848 9
	{
		and r8, r8, r0
		ldc r0, 12
	}
	.loc	2 849 9
	{
		shr r0, r5, r0
		nop
	}
	.loc	2 849 9
	{
		zext r0, 6
		nop
	}
	.loc	2 849 9
	{
		or r1, r0, r7
		mov r0, r4
	}
	.loc	2 849 9
	{
		mov r2, r6
		nop
	}
	bl FLAC__bitwriter_write_raw_uint32_nocheck
	.loc	2 849 9
	{
		and r8, r8, r0
		shr r0, r5, 6
	}
	.loc	2 850 9
	{
		zext r0, 6
		nop
	}
	.loc	2 850 9
	{
		or r1, r0, r7
		mov r0, r4
	}
	.loc	2 850 9
	{
		mov r2, r6
		nop
	}
	bl FLAC__bitwriter_write_raw_uint32_nocheck
	.loc	2 850 9
	{
		and r8, r8, r0
		zext r5, 6
	}
	.loc	2 851 9
	{
		or r1, r5, r7
		mov r0, r4
	}
	.loc	2 851 9
	{
		mov r2, r6
		nop
	}
	bl FLAC__bitwriter_write_raw_uint32_nocheck
	.loc	2 851 9
	{
		and r0, r8, r0
		nop
	}
.Ltmp520:
	bu .LBB23_28
.Ltmp521:
	.cc_bottom FLAC__bitwriter_write_utf8_uint64.function
	.set	FLAC__bitwriter_write_utf8_uint64.nstackwords,((FLAC__bitwriter_write_raw_uint32_nocheck.nstackwords $M assert.nstackwords $M bitwriter_grow_.nstackwords) + 8)
	.globl	FLAC__bitwriter_write_utf8_uint64.nstackwords
	.set	FLAC__bitwriter_write_utf8_uint64.maxcores,FLAC__bitwriter_write_raw_uint32_nocheck.maxcores $M bitwriter_grow_.maxcores $M 1
	.globl	FLAC__bitwriter_write_utf8_uint64.maxcores
	.set	FLAC__bitwriter_write_utf8_uint64.maxtimers,FLAC__bitwriter_write_raw_uint32_nocheck.maxtimers $M bitwriter_grow_.maxtimers $M 0
	.globl	FLAC__bitwriter_write_utf8_uint64.maxtimers
	.set	FLAC__bitwriter_write_utf8_uint64.maxchanends,FLAC__bitwriter_write_raw_uint32_nocheck.maxchanends $M bitwriter_grow_.maxchanends $M 0
	.globl	FLAC__bitwriter_write_utf8_uint64.maxchanends
.Ltmp522:
	.size	FLAC__bitwriter_write_utf8_uint64, .Ltmp522-FLAC__bitwriter_write_utf8_uint64
.Lfunc_end23:
	.cfi_endproc

	.globl	FLAC__bitwriter_zero_pad_to_byte_boundary
	.align	4
	.type	FLAC__bitwriter_zero_pad_to_byte_boundary,@function
	.cc_top FLAC__bitwriter_zero_pad_to_byte_boundary.function,FLAC__bitwriter_zero_pad_to_byte_boundary
FLAC__bitwriter_zero_pad_to_byte_boundary:
.Lfunc_begin24:
	.loc	2 858 0
	.cfi_startproc
	.issue_mode dual
	{
		nop
		dualentsp 6
	}
.Ltmp523:
	.cfi_def_cfa_offset 24
.Ltmp524:
	.cfi_offset 15, 0
	std r5, r4, sp[1]
.Ltmp525:
	.cfi_offset 4, -16
.Ltmp526:
	.cfi_offset 5, -12
.Ltmp527:
	.cfi_offset 6, -8
.Ltmp528:
	{
		mov r5, r0
		stw r6, sp[4]
	}
.Ltmp529:
	{
		nop
		ldw r0, r5[4]
	}
	.loc	2 860 5 prologue_end
.Ltmp530:
	{
		zext r0, 3
		nop
	}
	.loc	2 860 5
	bf r0, .LBB24_1
.Ltmp531:
	{
		ldc r1, 8
		nop
	}
.Ltmp532:
	.loc	2 861 10
	{
		sub r6, r1, r0
		mkmsk r4, 1
	}
.Ltmp533:
	.loc	2 273 2
	{
		mov r0, r4
		nop
	}
	bl assert
	{
		nop
		ldw r0, r5[0]
	}
	.loc	2 274 2
	{
		eq r0, r0, 0
		nop
	}
	{
		eq r0, r0, 0
		nop
	}
	.loc	2 274 2
	bl assert
	{
		nop
		ldw r0, r5[2]
	}
	{
		nop
		ldw r1, r5[3]
	}
	.loc	2 279 5
.Ltmp534:
	{
		add r1, r1, r6
		nop
	}
	.loc	2 279 5
	{
		lsu r0, r1, r0
		nop
	}
.Ltmp535:
	bt r0, .LBB24_5
.Ltmp536:
	.loc	2 279 42
	{
		mov r0, r5
		mov r1, r6
	}
	bl bitwriter_grow_
	bf r0, .LBB24_4
.Ltmp537:
.LBB24_5:
	{
		nop
		ldw r0, r5[4]
	}
	bf r0, .LBB24_10
.Ltmp538:
	{
		ldc r1, 32
		nop
	}
	.loc	2 283 3
.Ltmp539:
	{
		sub r3, r1, r0
		nop
	}
	.loc	2 283 3
	{
		lsu r11, r6, r3
		mov r2, r6
	}
	bt r11, .LBB24_8
.Ltmp540:
	.loc	2 283 3
	{
		mov r2, r3
		nop
	}
.Ltmp541:
.LBB24_8:
	{
		nop
		ldw r3, r5[1]
	}
	.loc	2 284 3
	{
		shl r3, r3, r2
		nop
	}
	.loc	2 284 3
	{
		add r0, r2, r0
		stw r3, r5[1]
	}
	.loc	2 286 3
	{
		eq r0, r0, r1
		stw r0, r5[4]
	}
	bf r0, .LBB24_16
.Ltmp542:
	.loc	2 285 3
	{
		sub r6, r6, r2
		byterev r0, r3
	}
.Ltmp543:
	{
		nop
		ldw r1, r5[3]
	}
	.loc	2 288 4
.Ltmp544:
	{
		add r2, r1, 1
		nop
	}
.Ltmp545:
	{
		nop
		stw r2, r5[3]
	}
	{
		nop
		ldw r2, r5[0]
	}
	.loc	2 288 4
	stw r0, r2[r1]
	{
		ldc r0, 0
		nop
	}
	{
		nop
		stw r0, r5[4]
	}
.Ltmp546:
.LBB24_10:
	.loc	2 295 2
	{
		shr r0, r6, 5
		nop
	}
	bf r0, .LBB24_14
.Ltmp547:
	.loc	2 296 3
	{
		ldc r1, 0
		ldw r0, r5[0]
	}
.Ltmp548:
	.loc	2 861 10
	{
		mov r2, r6
		nop
	}
.Ltmp549:
.LBB24_12:
	{
		nop
		ldw r3, r5[3]
	}
	.loc	2 296 3
.Ltmp550:
	{
		add r11, r3, 1
		nop
	}
	{
		nop
		stw r11, r5[3]
	}
	.loc	2 296 3
	stw r1, r0[r3]
	.loc	2 297 3
	ldaw r2, r2[-8]
.Ltmp551:
	.loc	2 295 2
	{
		shr r3, r2, 5
		nop
	}
	.loc	2 295 2
	bt r3, .LBB24_12
.Ltmp552:
	.loc	2 295 2
	{
		zext r6, 5
		nop
	}
.Ltmp553:
.LBB24_14:
	bf r6, .LBB24_16
.Ltmp554:
	{
		ldc r0, 0
		nop
	}
	{
		nop
		stw r0, r5[1]
	}
	{
		nop
		stw r6, r5[4]
	}
	bu .LBB24_16
.Ltmp555:
.LBB24_1:
	{
		mkmsk r4, 1
		nop
	}
	bu .LBB24_16
.LBB24_4:
	{
		ldc r4, 0
		nop
	}
.LBB24_16:
	.loc	2 864 1
	{
		mov r0, r4
		ldw r6, sp[4]
	}
	ldd r5, r4, sp[1]
	{
		nop
		retsp 6
	}
	# RETURN_REG_HOLDER
.Ltmp556:
	.cc_bottom FLAC__bitwriter_zero_pad_to_byte_boundary.function
	.set	FLAC__bitwriter_zero_pad_to_byte_boundary.nstackwords,((assert.nstackwords $M bitwriter_grow_.nstackwords) + 6)
	.globl	FLAC__bitwriter_zero_pad_to_byte_boundary.nstackwords
	.set	FLAC__bitwriter_zero_pad_to_byte_boundary.maxcores,bitwriter_grow_.maxcores $M 1
	.globl	FLAC__bitwriter_zero_pad_to_byte_boundary.maxcores
	.set	FLAC__bitwriter_zero_pad_to_byte_boundary.maxtimers,bitwriter_grow_.maxtimers $M 0
	.globl	FLAC__bitwriter_zero_pad_to_byte_boundary.maxtimers
	.set	FLAC__bitwriter_zero_pad_to_byte_boundary.maxchanends,bitwriter_grow_.maxchanends $M 0
	.globl	FLAC__bitwriter_zero_pad_to_byte_boundary.maxchanends
.Ltmp557:
	.size	FLAC__bitwriter_zero_pad_to_byte_boundary, .Ltmp557-FLAC__bitwriter_zero_pad_to_byte_boundary
.Lfunc_end24:
	.cfi_endproc

.Ldebug_end0:
	.section	.trap_info,"",@progbits
.Ltrap_info_entries_start0:
	.long	.Ltrap_info_entries_end0-.Ltrap_info_entries_start0
	.long	1
.Ltrap_info_entries_end0: