	.text
	.file	"lpc.c"
	.section	.cp.rodata.cst4,"aMc",@progbits,4
	.cc_top .LCPI0_0.data,.LCPI0_0
	.align	4
	.type	.LCPI0_0,@object
	.size	.LCPI0_0, 4
.LCPI0_0:
	.long	2147483648
	.cc_bottom .LCPI0_0.data
	.cc_top .LCPI0_1.data,.LCPI0_1
	.align	4
	.type	.LCPI0_1,@object
	.size	.LCPI0_1, 4
.LCPI0_1:
	.long	1071644672
	.cc_bottom .LCPI0_1.data
	.text
	.globl	lround
	.align	4
	.type	lround,@function
	.cc_top lround.function,lround
lround:
.Lfunc_begin0:
	.file	4 "C:/Users/takaaki/git/sw_xSSDAC/module_libFLAC/source\\lpc.c"
	.loc	4 63 0
	.cfi_startproc
	.issue_mode dual
.Ltmp0:
	.cfi_def_cfa_offset 8
.Ltmp1:
	.cfi_offset 15, 0
	{
		mov r3, r1
		dualentsp 2
	}
	{
		mov r2, r0
		nop
	}
	ldw r0, cp[.LCPI0_0]
	.loc	4 64 20 prologue_end
.Ltmp2:
	{
		and r0, r3, r0
		nop
	}
	ldw r1, cp[.LCPI0_1]
	{
		or r1, r0, r1
		ldc r0, 0
	}
	.loc	4 64 20
	bl __adddf3
	.loc	4 64 20
	bl __fixdfsi
	{
		nop
		retsp 2
	}
	.loc	4 64 20
	# RETURN_REG_HOLDER
.Ltmp3:
	.cc_bottom lround.function
	.set	lround.nstackwords,((__adddf3.nstackwords $M __fixdfsi.nstackwords) + 2)
	.globl	lround.nstackwords
	.set	lround.maxcores,copysign.maxcores $M 1
	.globl	lround.maxcores
	.set	lround.maxtimers,copysign.maxtimers $M 0
	.globl	lround.maxtimers
	.set	lround.maxchanends,copysign.maxchanends $M 0
	.globl	lround.maxchanends
.Ltmp4:
	.size	lround, .Ltmp4-lround
.Lfunc_end0:
	.cfi_endproc

	.globl	FLAC__lpc_window_data
	.align	4
	.type	FLAC__lpc_window_data,@function
	.cc_top FLAC__lpc_window_data.function,FLAC__lpc_window_data
FLAC__lpc_window_data:
.Lfunc_begin1:
	.loc	4 70 0
	.cfi_startproc
	.issue_mode dual
	{
		nop
		dualentsp 6
	}
.Ltmp5:
	.cfi_def_cfa_offset 24
.Ltmp6:
	.cfi_offset 15, 0
	std r5, r4, sp[1]
.Ltmp7:
	.cfi_offset 4, -16
.Ltmp8:
	.cfi_offset 5, -12
	std r7, r6, sp[2]
.Ltmp9:
	.cfi_offset 6, -8
.Ltmp10:
	.cfi_offset 7, -4
.Ltmp11:
	{
		mov r4, r3
		mov r5, r2
	}
.Ltmp12:
	{
		mov r6, r1
		mov r7, r0
	}
.Ltmp13:
	bf r4, .LBB1_2
.LBB1_1:
	{
		nop
		ldw r0, r7[0]
	}
	.loc	4 73 3 prologue_end
.Ltmp14:
	bl __floatsisf
	{
		nop
		ldw r1, r6[0]
	}
	.loc	4 73 3
	bl __mulsf3
	.loc	4 73 3
	{
		add r7, r7, 4
		stw r0, r5[0]
	}
	.loc	4 72 2
	{
		add r6, r6, 4
		add r5, r5, 4
	}
	.loc	4 72 2
	{
		sub r4, r4, 1
		nop
	}
	bt r4, .LBB1_1
.Ltmp15:
.LBB1_2:
	.loc	4 74 1
	ldd r7, r6, sp[2]
	ldd r5, r4, sp[1]
	{
		nop
		retsp 6
	}
	# RETURN_REG_HOLDER
.Ltmp16:
	.cc_bottom FLAC__lpc_window_data.function
	.set	FLAC__lpc_window_data.nstackwords,((__floatsisf.nstackwords $M __mulsf3.nstackwords) + 6)
	.globl	FLAC__lpc_window_data.nstackwords
	.set	FLAC__lpc_window_data.maxcores,1
	.globl	FLAC__lpc_window_data.maxcores
	.set	FLAC__lpc_window_data.maxtimers,0
	.globl	FLAC__lpc_window_data.maxtimers
	.set	FLAC__lpc_window_data.maxchanends,0
	.globl	FLAC__lpc_window_data.maxchanends
.Ltmp17:
	.size	FLAC__lpc_window_data, .Ltmp17-FLAC__lpc_window_data
.Lfunc_end1:
	.cfi_endproc

	.globl	FLAC__lpc_window_data_wide
	.align	4
	.type	FLAC__lpc_window_data_wide,@function
	.cc_top FLAC__lpc_window_data_wide.function,FLAC__lpc_window_data_wide
FLAC__lpc_window_data_wide:
.Lfunc_begin2:
	.loc	4 77 0
	.cfi_startproc
	.issue_mode dual
	{
		nop
		dualentsp 6
	}
.Ltmp18:
	.cfi_def_cfa_offset 24
.Ltmp19:
	.cfi_offset 15, 0
	std r5, r4, sp[1]
.Ltmp20:
	.cfi_offset 4, -16
.Ltmp21:
	.cfi_offset 5, -12
	std r7, r6, sp[2]
.Ltmp22:
	.cfi_offset 6, -8
.Ltmp23:
	.cfi_offset 7, -4
.Ltmp24:
	{
		mov r4, r3
		mov r5, r2
	}
.Ltmp25:
	{
		mov r6, r1
		mov r7, r0
	}
.Ltmp26:
	bf r4, .LBB2_2
.LBB2_1:
	.loc	4 80 3 prologue_end
.Ltmp27:
	ldd r1, r0, r7[0]
	.loc	4 80 3
	bl __floatdisf
	{
		nop
		ldw r1, r6[0]
	}
	.loc	4 80 3
	bl __mulsf3
	.loc	4 80 3
	{
		add r7, r7, 8
		stw r0, r5[0]
	}
	.loc	4 79 2
	{
		add r6, r6, 4
		add r5, r5, 4
	}
	.loc	4 79 2
	{
		sub r4, r4, 1
		nop
	}
	bt r4, .LBB2_1
.Ltmp28:
.LBB2_2:
	.loc	4 81 1
	ldd r7, r6, sp[2]
	ldd r5, r4, sp[1]
	{
		nop
		retsp 6
	}
	# RETURN_REG_HOLDER
.Ltmp29:
	.cc_bottom FLAC__lpc_window_data_wide.function
	.set	FLAC__lpc_window_data_wide.nstackwords,((__floatdisf.nstackwords $M __mulsf3.nstackwords) + 6)
	.globl	FLAC__lpc_window_data_wide.nstackwords
	.set	FLAC__lpc_window_data_wide.maxcores,1
	.globl	FLAC__lpc_window_data_wide.maxcores
	.set	FLAC__lpc_window_data_wide.maxtimers,0
	.globl	FLAC__lpc_window_data_wide.maxtimers
	.set	FLAC__lpc_window_data_wide.maxchanends,0
	.globl	FLAC__lpc_window_data_wide.maxchanends
.Ltmp30:
	.size	FLAC__lpc_window_data_wide, .Ltmp30-FLAC__lpc_window_data_wide
.Lfunc_end2:
	.cfi_endproc

	.globl	FLAC__lpc_window_data_partial
	.align	4
	.type	FLAC__lpc_window_data_partial,@function
	.cc_top FLAC__lpc_window_data_partial.function,FLAC__lpc_window_data_partial
FLAC__lpc_window_data_partial:
.Lfunc_begin3:
	.loc	4 84 0
	.cfi_startproc
	.issue_mode dual
	{
		nop
		dualentsp 12
	}
.Ltmp31:
	.cfi_def_cfa_offset 48
.Ltmp32:
	.cfi_offset 15, 0
	std r5, r4, sp[2]
.Ltmp33:
	.cfi_offset 4, -32
.Ltmp34:
	.cfi_offset 5, -28
	std r7, r6, sp[3]
.Ltmp35:
	.cfi_offset 6, -24
.Ltmp36:
	.cfi_offset 7, -20
	std r9, r8, sp[4]
.Ltmp37:
	.cfi_offset 8, -16
.Ltmp38:
	.cfi_offset 9, -12
.Ltmp39:
	.cfi_offset 10, -8
.Ltmp40:
	{
		mov r5, r3
		stw r10, sp[10]
	}
.Ltmp41:
	{
		mov r4, r2
		mov r7, r1
	}
.Ltmp42:
	{
		nop
		ldw r11, sp[14]
	}
	{
		nop
		ldw r8, sp[13]
	}
.Ltmp43:
	.loc	4 86 5 prologue_end
	{
		add r10, r11, r8
		nop
	}
	.loc	4 86 5
	{
		lsu r1, r10, r5
		nop
	}
	bf r1, .LBB3_18
.Ltmp44:
	.loc	4 87 3
	bf r8, .LBB3_2
.Ltmp45:
	ldaw r9, r0[r11]
.Ltmp46:
	{
		ldc r6, 0
		stw r0, sp[3]
	}
.Ltmp47:
.LBB3_4:
	{
		nop
		ldw r0, r9[r6]
	}
	.loc	4 88 4
	bl __floatsisf
	{
		nop
		ldw r1, r7[r6]
	}
	.loc	4 88 4
	bl __mulsf3
	.loc	4 88 4
	stw r0, r4[r6]
	.loc	4 87 29
	{
		add r6, r6, 1
		nop
	}
	.loc	4 87 3
	{
		eq r0, r8, r6
		nop
	}
	bf r0, .LBB3_4
.Ltmp48:
	{
		mov r0, r8
		ldw r11, sp[14]
	}
.Ltmp49:
	bu .LBB3_6
.Ltmp50:
.LBB3_2:
	{
		ldc r0, 0
		stw r0, sp[3]
	}
.Ltmp51:
.LBB3_6:
	.loc	4 89 3
	{
		sub r2, r5, r8
		nop
	}
.Ltmp52:
	.loc	4 89 3
	{
		sub r1, r2, r11
		nop
	}
	.loc	4 89 3
	{
		lsu r3, r1, r0
		nop
	}
	bt r3, .LBB3_8
.Ltmp53:
	.loc	4 89 3
	{
		mov r1, r0
		nop
	}
.Ltmp54:
.LBB3_8:
	.loc	4 90 3
	{
		lsu r2, r2, r5
		nop
	}
.Ltmp55:
	bf r2, .LBB3_16
.Ltmp56:
	.loc	4 90 3
	{
		sub r1, r10, 1
		nop
	}
	.loc	4 90 3
	{
		sub r1, r1, r5
		not r0, r0
	}
	{
		lsu r2, r0, r1
		mov r3, r1
	}
	bt r2, .LBB3_11
.Ltmp57:
	{
		mov r3, r0
		nop
	}
.Ltmp58:
.LBB3_11:
	{
		nop
		stw r3, sp[2]
	}
	bt r2, .LBB3_13
.Ltmp59:
	{
		mov r1, r0
		nop
	}
.Ltmp60:
.LBB3_13:
	ldaw r7, r7[r5]
.Ltmp61:
	.loc	4 90 3
	{
		neg r10, r8
		not r0, r1
	}
	ldaw r9, r4[r0]
	.loc	4 90 3
	{
		sub r0, r11, 1
		nop
	}
	.loc	4 90 3
	{
		sub r0, r0, r1
		ldw r1, sp[3]
	}
	ldaw r6, r1[r0]
.Ltmp62:
.LBB3_14:
	{
		nop
		ldw r0, r6[0]
	}
	.loc	4 91 4
	bl __floatsisf
	{
		nop
		ldw r1, r7[r10]
	}
	.loc	4 91 4
	bl __mulsf3
	.loc	4 91 4
	{
		add r10, r10, 1
		stw r0, r9[0]
	}
	.loc	4 90 3
	{
		add r9, r9, 4
		add r6, r6, 4
	}
	.loc	4 90 3
	bt r10, .LBB3_14
.Ltmp63:
	.loc	4 90 3
	{
		sub r0, r8, 1
		ldw r1, sp[2]
	}
	.loc	4 90 3
	{
		sub r1, r0, r1
		nop
	}
.Ltmp64:
.LBB3_16:
	.loc	4 92 6
	{
		lsu r0, r1, r5
		nop
	}
	bf r0, .LBB3_18
.Ltmp65:
	{
		ldc r0, 0
		nop
	}
	.loc	4 93 4
	stw r0, r4[r1]
.Ltmp66:
.LBB3_18:
	{
		nop
		ldw r10, sp[10]
	}
	.loc	4 95 1
	ldd r9, r8, sp[4]
	ldd r7, r6, sp[3]
	ldd r5, r4, sp[2]
	{
		nop
		retsp 12
	}
	# RETURN_REG_HOLDER
.Ltmp67:
	.cc_bottom FLAC__lpc_window_data_partial.function
	.set	FLAC__lpc_window_data_partial.nstackwords,((__floatsisf.nstackwords $M __mulsf3.nstackwords) + 12)
	.globl	FLAC__lpc_window_data_partial.nstackwords
	.set	FLAC__lpc_window_data_partial.maxcores,1
	.globl	FLAC__lpc_window_data_partial.maxcores
	.set	FLAC__lpc_window_data_partial.maxtimers,0
	.globl	FLAC__lpc_window_data_partial.maxtimers
	.set	FLAC__lpc_window_data_partial.maxchanends,0
	.globl	FLAC__lpc_window_data_partial.maxchanends
.Ltmp68:
	.size	FLAC__lpc_window_data_partial, .Ltmp68-FLAC__lpc_window_data_partial
.Lfunc_end3:
	.cfi_endproc

	.globl	FLAC__lpc_window_data_partial_wide
	.align	4
	.type	FLAC__lpc_window_data_partial_wide,@function
	.cc_top FLAC__lpc_window_data_partial_wide.function,FLAC__lpc_window_data_partial_wide
FLAC__lpc_window_data_partial_wide:
.Lfunc_begin4:
	.loc	4 98 0
	.cfi_startproc
	.issue_mode dual
	{
		nop
		dualentsp 12
	}
.Ltmp69:
	.cfi_def_cfa_offset 48
.Ltmp70:
	.cfi_offset 15, 0
	std r5, r4, sp[2]
.Ltmp71:
	.cfi_offset 4, -32
.Ltmp72:
	.cfi_offset 5, -28
	std r7, r6, sp[3]
.Ltmp73:
	.cfi_offset 6, -24
.Ltmp74:
	.cfi_offset 7, -20
	std r9, r8, sp[4]
.Ltmp75:
	.cfi_offset 8, -16
.Ltmp76:
	.cfi_offset 9, -12
.Ltmp77:
	.cfi_offset 10, -8
.Ltmp78:
	{
		mov r5, r3
		stw r10, sp[10]
	}
.Ltmp79:
	{
		mov r4, r2
		mov r7, r1
	}
.Ltmp80:
	{
		nop
		ldw r11, sp[14]
	}
	{
		nop
		ldw r8, sp[13]
	}
.Ltmp81:
	.loc	4 100 5 prologue_end
	{
		add r10, r11, r8
		nop
	}
	.loc	4 100 5
	{
		lsu r1, r10, r5
		nop
	}
	bf r1, .LBB4_18
.Ltmp82:
	.loc	4 101 3
	bf r8, .LBB4_2
.Ltmp83:
	{
		shl r1, r11, 3
		nop
	}
.Ltmp84:
	{
		add r6, r0, r1
		stw r0, sp[3]
	}
	{
		ldc r9, 0
		nop
	}
.Ltmp85:
.LBB4_4:
	.loc	4 102 4
	ldd r1, r0, r6[0]
	.loc	4 102 4
	bl __floatdisf
	{
		nop
		ldw r1, r7[r9]
	}
	.loc	4 102 4
	bl __mulsf3
	.loc	4 102 4
	stw r0, r4[r9]
	.loc	4 101 29
	{
		add r9, r9, 1
		add r6, r6, 8
	}
	.loc	4 101 3
	{
		eq r0, r8, r9
		nop
	}
	bf r0, .LBB4_4
.Ltmp86:
	{
		mov r0, r8
		ldw r11, sp[14]
	}
.Ltmp87:
	bu .LBB4_6
.Ltmp88:
.LBB4_2:
	{
		ldc r0, 0
		stw r0, sp[3]
	}
.Ltmp89:
.LBB4_6:
	.loc	4 103 3
	{
		sub r2, r5, r8
		nop
	}
.Ltmp90:
	.loc	4 103 3
	{
		sub r1, r2, r11
		nop
	}
	.loc	4 103 3
	{
		lsu r3, r1, r0
		nop
	}
	bt r3, .LBB4_8
.Ltmp91:
	.loc	4 103 3
	{
		mov r1, r0
		nop
	}
.Ltmp92:
.LBB4_8:
	.loc	4 104 3
	{
		lsu r2, r2, r5
		nop
	}
.Ltmp93:
	bf r2, .LBB4_16
.Ltmp94:
	.loc	4 104 3
	{
		sub r1, r10, 1
		nop
	}
	.loc	4 104 3
	{
		sub r1, r1, r5
		not r0, r0
	}
	{
		lsu r2, r0, r1
		mov r3, r1
	}
	bt r2, .LBB4_11
.Ltmp95:
	{
		mov r3, r0
		nop
	}
.Ltmp96:
.LBB4_11:
	{
		nop
		stw r3, sp[2]
	}
	bt r2, .LBB4_13
.Ltmp97:
	{
		mov r1, r0
		nop
	}
.Ltmp98:
.LBB4_13:
	ldaw r7, r7[r5]
.Ltmp99:
	.loc	4 104 3
	{
		neg r10, r8
		not r0, r1
	}
	ldaw r6, r4[r0]
	.loc	4 104 3
	{
		sub r0, r11, 1
		nop
	}
	.loc	4 104 3
	{
		sub r0, r0, r1
		nop
	}
	{
		shl r0, r0, 3
		ldw r1, sp[3]
	}
	{
		add r9, r1, r0
		nop
	}
.Ltmp100:
.LBB4_14:
	.loc	4 105 4
	ldd r1, r0, r9[0]
	.loc	4 105 4
	bl __floatdisf
	{
		nop
		ldw r1, r7[r10]
	}
	.loc	4 105 4
	bl __mulsf3
	.loc	4 105 4
	{
		add r10, r10, 1
		stw r0, r6[0]
	}
	.loc	4 104 3
	{
		add r6, r6, 4
		add r9, r9, 8
	}
	.loc	4 104 3
	bt r10, .LBB4_14
.Ltmp101:
	.loc	4 104 3
	{
		sub r0, r8, 1
		ldw r1, sp[2]
	}
	.loc	4 104 3
	{
		sub r1, r0, r1
		nop
	}
.Ltmp102:
.LBB4_16:
	.loc	4 106 6
	{
		lsu r0, r1, r5
		nop
	}
	bf r0, .LBB4_18
.Ltmp103:
	{
		ldc r0, 0
		nop
	}
	.loc	4 107 4
	stw r0, r4[r1]
.Ltmp104:
.LBB4_18:
	{
		nop
		ldw r10, sp[10]
	}
	.loc	4 109 1
	ldd r9, r8, sp[4]
	ldd r7, r6, sp[3]
	ldd r5, r4, sp[2]
	{
		nop
		retsp 12
	}
	# RETURN_REG_HOLDER
.Ltmp105:
	.cc_bottom FLAC__lpc_window_data_partial_wide.function
	.set	FLAC__lpc_window_data_partial_wide.nstackwords,((__floatdisf.nstackwords $M __mulsf3.nstackwords) + 12)
	.globl	FLAC__lpc_window_data_partial_wide.nstackwords
	.set	FLAC__lpc_window_data_partial_wide.maxcores,1
	.globl	FLAC__lpc_window_data_partial_wide.maxcores
	.set	FLAC__lpc_window_data_partial_wide.maxtimers,0
	.globl	FLAC__lpc_window_data_partial_wide.maxtimers
	.set	FLAC__lpc_window_data_partial_wide.maxchanends,0
	.globl	FLAC__lpc_window_data_partial_wide.maxchanends
.Ltmp106:
	.size	FLAC__lpc_window_data_partial_wide, .Ltmp106-FLAC__lpc_window_data_partial_wide
.Lfunc_end4:
	.cfi_endproc

	.globl	FLAC__lpc_compute_autocorrelation
	.align	4
	.type	FLAC__lpc_compute_autocorrelation,@function
	.cc_top FLAC__lpc_compute_autocorrelation.function,FLAC__lpc_compute_autocorrelation
FLAC__lpc_compute_autocorrelation:
.Lfunc_begin5:
	.loc	4 112 0
	.cfi_startproc
	.issue_mode dual
	{
		nop
		dualentsp 14
	}
.Ltmp107:
	.cfi_def_cfa_offset 56
.Ltmp108:
	.cfi_offset 15, 0
	std r5, r4, sp[3]
.Ltmp109:
	.cfi_offset 4, -32
.Ltmp110:
	.cfi_offset 5, -28
	std r7, r6, sp[4]
.Ltmp111:
	.cfi_offset 6, -24
.Ltmp112:
	.cfi_offset 7, -20
	std r9, r8, sp[5]
.Ltmp113:
	.cfi_offset 8, -16
.Ltmp114:
	.cfi_offset 9, -12
	{
		nop
		stw r10, sp[12]
	}
.Ltmp115:
	.cfi_offset 10, -8
.Ltmp116:
	{
		mov r4, r2
		stw r3, sp[5]
	}
.Ltmp117:
	{
		mov r6, r1
		mov r10, r0
	}
.Ltmp118:
	.loc	4 134 6 prologue_end
	{
		shr r0, r6, 5
		nop
	}
	bf r0, .LBB5_2
.Ltmp119:
	{
		ldc r0, 17
		nop
	}
	{
		lsu r0, r4, r0
		nop
	}
	bf r0, .LBB5_2
.Ltmp120:
	{
		ldc r0, 8
		nop
	}
	.loc	4 159 10
.Ltmp121:
	{
		lsu r0, r0, r4
		nop
	}
	bt r0, .LBB5_23
.Ltmp122:
	{
		mkmsk r0, 1
		nop
	}
	.file	5 "C:/Users/takaaki/git/sw_xSSDAC/module_libFLAC/source/deduplication\\lpc_compute_autocorrelation_intrin.inc"
	.loc	5 3 2
.Ltmp123:
	bl assert
.Ltmp124:
	{
		ldc r7, 0
		nop
	}
	ldc r2, 64
	.loc	5 6 17
.Ltmp125:
	{
		mov r1, r7
		ldw r0, sp[5]
	}
	bl memset
.Ltmp126:
.LBB5_15:
	{
		nop
		ldw r0, r10[r7]
	}
	.loc	5 10 25
.Ltmp127:
	bl __extendsfdf2
	{
		mov r8, r0
		mov r9, r1
	}
	{
		mov r0, r7
		ldw r4, sp[5]
	}
.Ltmp128:
.LBB5_16:
	{
		mov r5, r0
		nop
	}
	{
		nop
		ldw r0, r10[r5]
	}
	.loc	5 10 25
	bl __extendsfdf2
	{
		mov r2, r0
		mov r3, r1
	}
	.loc	5 10 25
	{
		mov r0, r8
		mov r1, r9
	}
	bl __muldf3
	{
		mov r2, r0
		mov r3, r1
	}
	.loc	5 10 25
	ldd r1, r0, r4[0]
	.loc	5 10 25
	bl __adddf3
	.loc	5 10 25
	std r1, r0, r4[0]
	.loc	5 9 17
	{
		sub r0, r5, 1
		add r4, r4, 8
	}
	bt r5, .LBB5_16
.Ltmp129:
	.loc	5 8 9
	{
		add r0, r7, 1
		eq r1, r7, 7
	}
.Ltmp130:
.xtaloop 8
	# LOOPMARKER 4
	{
		mov r7, r0
		nop
	}
.Ltmp131:
	bf r1, .LBB5_15
.Ltmp132:
	{
		nop
		stw r10, sp[3]
	}
.Ltmp133:
	{
		ldc r0, 9
		ldw r9, sp[5]
	}
.Ltmp134:
	.loc	5 12 9
	{
		lss r0, r6, r0
		ldc r2, 8
	}
	bt r0, .LBB5_43
.Ltmp135:
	.loc	5 12 9
	{
		sub r0, r6, 1
		nop
	}
	{
		nop
		stw r0, sp[2]
	}
	{
		nop
		ldw r0, sp[3]
	}
	ldaw r4, r0[8]
	{
		ldc r8, 16
		nop
	}
.Ltmp136:
.LBB5_20:
	{
		nop
		stw r4, sp[4]
	}
	{
		nop
		stw r2, sp[5]
	}
	{
		nop
		ldw r0, sp[3]
	}
	{
		nop
		ldw r0, r0[r2]
	}
	.loc	5 14 18
.Ltmp137:
	bl __extendsfdf2
	{
		mov r6, r0
		mov r7, r1
	}
	{
		ldc r5, 0
		nop
	}
.Ltmp138:
.LBB5_21:
	{
		nop
		ldw r0, r4[0]
	}
	.loc	5 14 18
	bl __extendsfdf2
	{
		mov r2, r0
		mov r3, r1
	}
	.loc	5 14 18
	{
		mov r0, r6
		mov r1, r7
	}
	bl __muldf3
	{
		mov r2, r0
		mov r3, r1
	}
	ldaw r10, r9[r5]
	.loc	5 14 18
	ldd r1, r0, r10[0]
	.loc	5 14 18
	bl __adddf3
	.loc	5 14 18
	std r1, r0, r10[0]
	.loc	5 13 3
	{
		add r5, r5, 2
		sub r4, r4, 4
	}
.xtaloop 8
	# LOOPMARKER 5
	.loc	5 13 3
	{
		eq r0, r5, r8
		nop
	}
	bf r0, .LBB5_21
.Ltmp139:
	{
		nop
		ldw r1, sp[5]
	}
.Ltmp140:
	.loc	5 12 45
	{
		add r0, r1, 1
		ldw r4, sp[4]
	}
.Ltmp141:
	.loc	5 12 9
	{
		add r4, r4, 4
		ldw r2, sp[2]
	}
.Ltmp142:
	.loc	5 12 9
	{
		eq r1, r1, r2
		mov r2, r0
	}
.Ltmp143:
	bf r1, .LBB5_20
	bu .LBB5_43
.Ltmp144:
.LBB5_2:
	{
		sub r5, r6, r4
		stw r10, sp[3]
	}
.Ltmp145:
	.loc	4 143 3
	{
		eq r0, r4, 0
		stw r5, sp[4]
	}
	{
		eq r0, r0, 0
		nop
	}
	.loc	4 143 3
	bl assert
.Ltmp146:
	.loc	4 144 3
	{
		lsu r0, r6, r4
		stw r6, sp[1]
	}
	{
		eq r0, r0, 0
		nop
	}
	.loc	4 144 3
	bl assert
.Ltmp147:
	.loc	4 146 3
	bf r4, .LBB5_3
.Ltmp148:
	.loc	4 146 3
	{
		shl r2, r4, 3
		stw r4, sp[2]
	}
.Ltmp149:
	{
		ldc r7, 0
		ldw r0, sp[5]
	}
	.loc	4 147 4
	{
		mov r1, r7
		nop
	}
	bl memset
	{
		nop
		ldw r4, sp[3]
	}
.Ltmp150:
.LBB5_12:
	{
		nop
		ldw r0, r4[r7]
	}
	.loc	4 149 4
.Ltmp151:
	bl __extendsfdf2
	{
		mov r9, r0
		mov r10, r1
	}
.Ltmp152:
	{
		mov r5, r4
		ldw r8, sp[5]
	}
	{
		nop
		ldw r6, sp[2]
	}
.Ltmp153:
.LBB5_5:
	{
		nop
		ldw r0, r5[r7]
	}
	.loc	4 151 5
.Ltmp154:
	bl __extendsfdf2
	{
		mov r2, r0
		mov r3, r1
	}
	.loc	4 151 5
	{
		mov r0, r9
		mov r1, r10
	}
	bl __muldf3
	{
		mov r2, r0
		mov r3, r1
	}
	.loc	4 151 5
	ldd r1, r0, r8[0]
	.loc	4 151 5
	bl __adddf3
	.loc	4 151 5
	std r1, r0, r8[0]
	.loc	4 150 4
	{
		sub r6, r6, 1
		add r8, r8, 8
	}
	.loc	4 150 4
	{
		add r5, r5, 4
		nop
	}
	.loc	4 150 4
	bt r6, .LBB5_5
.Ltmp155:
	.loc	4 148 36
	{
		add r7, r7, 1
		ldw r0, sp[4]
	}
	.loc	4 148 3
	{
		lsu r0, r0, r7
		nop
	}
	bf r0, .LBB5_12
	bu .LBB5_7
.Ltmp156:
.LBB5_23:
	{
		ldc r10, 12
		stw r10, sp[3]
	}
	.loc	4 164 10
.Ltmp157:
	{
		lsu r0, r10, r4
		nop
	}
	bt r0, .LBB5_33
.Ltmp158:
	{
		mkmsk r0, 1
		stw r6, sp[1]
	}
	.loc	5 3 2
.Ltmp159:
	bl assert
.Ltmp160:
	{
		ldc r7, 0
		nop
	}
	ldc r2, 96
	.loc	5 6 17
.Ltmp161:
	{
		mov r1, r7
		ldw r0, sp[5]
	}
	bl memset
	{
		nop
		ldw r6, sp[3]
	}
.Ltmp162:
.LBB5_25:
	{
		nop
		ldw r0, r6[r7]
	}
	.loc	5 10 25
.Ltmp163:
	bl __extendsfdf2
	{
		mov r8, r0
		mov r9, r1
	}
	{
		mov r0, r7
		ldw r4, sp[5]
	}
.Ltmp164:
.LBB5_26:
	{
		mov r5, r0
		nop
	}
	{
		nop
		ldw r0, r6[r5]
	}
	.loc	5 10 25
	bl __extendsfdf2
	{
		mov r2, r0
		mov r3, r1
	}
	.loc	5 10 25
	{
		mov r0, r8
		mov r1, r9
	}
	bl __muldf3
	{
		mov r2, r0
		mov r3, r1
	}
	.loc	5 10 25
	ldd r1, r0, r4[0]
	.loc	5 10 25
	bl __adddf3
	.loc	5 10 25
	std r1, r0, r4[0]
	.loc	5 9 17
	{
		sub r0, r5, 1
		add r4, r4, 8
	}
	bt r5, .LBB5_26
.Ltmp165:
	.loc	5 8 9
	{
		add r0, r7, 1
		eq r1, r7, 11
	}
.Ltmp166:
.xtaloop 12
	# LOOPMARKER 2
	{
		mov r7, r0
		nop
	}
.Ltmp167:
	bf r1, .LBB5_25
.Ltmp168:
	{
		ldc r0, 13
		ldw r9, sp[5]
	}
.Ltmp169:
	{
		nop
		ldw r1, sp[1]
	}
.Ltmp170:
	.loc	5 12 9
	{
		lss r0, r1, r0
		nop
	}
	bt r0, .LBB5_43
.Ltmp171:
	.loc	5 12 9
	{
		sub r0, r1, 1
		nop
	}
	{
		ldc r8, 24
		stw r0, sp[4]
	}
.Ltmp172:
.LBB5_30:
	{
		nop
		ldw r4, sp[3]
	}
.Ltmp173:
	{
		nop
		ldw r0, r4[r10]
	}
	.loc	5 14 18
.Ltmp174:
	bl __extendsfdf2
	{
		mov r7, r1
		stw r0, sp[5]
	}
	{
		ldc r5, 0
		nop
	}
.Ltmp175:
.LBB5_31:
	{
		nop
		ldw r0, r4[r10]
	}
	.loc	5 14 18
	bl __extendsfdf2
	{
		mov r2, r0
		mov r3, r1
	}
	.loc	5 14 18
	{
		mov r1, r7
		ldw r0, sp[5]
	}
	bl __muldf3
	{
		mov r2, r0
		mov r3, r1
	}
	{
		mov r6, r10
		mov r10, r8
	}
	ldaw r8, r9[r5]
	.loc	5 14 18
	ldd r1, r0, r8[0]
	.loc	5 14 18
	bl __adddf3
	.loc	5 14 18
	std r1, r0, r8[0]
	{
		mov r8, r10
		mov r10, r6
	}
	.loc	5 13 3
	{
		add r5, r5, 2
		sub r4, r4, 4
	}
.xtaloop 12
	# LOOPMARKER 3
	.loc	5 13 3
	{
		eq r0, r5, r8
		nop
	}
	bf r0, .LBB5_31
.Ltmp176:
	.loc	5 12 45
	{
		add r0, r10, 1
		ldw r1, sp[4]
	}
.Ltmp177:
	.loc	5 12 9
	{
		eq r1, r10, r1
		mov r10, r0
	}
.Ltmp178:
	bf r1, .LBB5_30
	bu .LBB5_43
.Ltmp179:
.LBB5_3:
	{
		ldc r7, 0
		nop
	}
.Ltmp180:
.LBB5_4:
	.loc	4 148 36
	{
		add r7, r7, 1
		nop
	}
	.loc	4 148 3
	{
		lsu r0, r5, r7
		nop
	}
	bf r0, .LBB5_4
	bu .LBB5_7
.Ltmp181:
.LBB5_10:
	.loc	4 153 28
	{
		add r7, r7, 1
		nop
	}
.Ltmp182:
.LBB5_7:
	{
		nop
		ldw r5, sp[1]
	}
.Ltmp183:
	.loc	4 153 3
	{
		lsu r0, r7, r5
		nop
	}
	bf r0, .LBB5_43
.Ltmp184:
	{
		nop
		ldw r4, sp[3]
	}
.Ltmp185:
	{
		nop
		ldw r0, r4[r7]
	}
	.loc	4 154 4
.Ltmp186:
	bl __extendsfdf2
	{
		mov r8, r0
		mov r9, r1
	}
.Ltmp187:
	.loc	4 155 4
	{
		sub r10, r5, r7
		mov r5, r4
	}
	{
		ldc r4, 0
		ldw r6, sp[5]
	}
.Ltmp188:
.LBB5_9:
	{
		nop
		ldw r0, r5[r7]
	}
	.loc	4 156 5
	bl __extendsfdf2
	{
		mov r2, r0
		mov r3, r1
	}
	.loc	4 156 5
	{
		mov r0, r8
		mov r1, r9
	}
	bl __muldf3
	{
		mov r2, r0
		mov r3, r1
	}
	.loc	4 156 5
	ldd r1, r0, r6[0]
	.loc	4 156 5
	bl __adddf3
	.loc	4 156 5
	std r1, r0, r6[0]
.Ltmp189:
	.loc	4 155 46
	{
		add r4, r4, 1
		add r6, r6, 8
	}
.Ltmp190:
	.loc	4 155 4
	{
		add r5, r5, 4
		lsu r0, r4, r10
	}
	bt r0, .LBB5_9
	bu .LBB5_10
.Ltmp191:
.LBB5_33:
	{
		ldc r10, 16
		nop
	}
	.loc	4 169 10
.Ltmp192:
	{
		lsu r0, r10, r4
		nop
	}
	bt r0, .LBB5_43
.Ltmp193:
	{
		mkmsk r0, 1
		stw r6, sp[1]
	}
	.loc	5 3 2
.Ltmp194:
	bl assert
.Ltmp195:
	{
		ldc r7, 0
		nop
	}
	ldc r2, 128
	.loc	5 6 17
.Ltmp196:
	{
		mov r1, r7
		ldw r0, sp[5]
	}
	bl memset
	{
		nop
		ldw r6, sp[3]
	}
.Ltmp197:
.LBB5_35:
	{
		nop
		ldw r0, r6[r7]
	}
	.loc	5 10 25
.Ltmp198:
	bl __extendsfdf2
	{
		mov r8, r0
		mov r9, r1
	}
	{
		mov r0, r7
		ldw r4, sp[5]
	}
.Ltmp199:
.LBB5_36:
	{
		mov r5, r0
		nop
	}
	{
		nop
		ldw r0, r6[r5]
	}
	.loc	5 10 25
	bl __extendsfdf2
	{
		mov r2, r0
		mov r3, r1
	}
	.loc	5 10 25
	{
		mov r0, r8
		mov r1, r9
	}
	bl __muldf3
	{
		mov r2, r0
		mov r3, r1
	}
	.loc	5 10 25
	ldd r1, r0, r4[0]
	.loc	5 10 25
	bl __adddf3
	.loc	5 10 25
	std r1, r0, r4[0]
	.loc	5 9 17
	{
		sub r0, r5, 1
		add r4, r4, 8
	}
	bt r5, .LBB5_36
.Ltmp200:
	.loc	5 8 9
	{
		add r0, r7, 1
		mkmsk r1, 4
	}
.Ltmp201:
	.loc	5 8 9
	{
		eq r1, r7, r1
		nop
	}
.xtaloop 16
	# LOOPMARKER 0
	{
		mov r7, r0
		nop
	}
.Ltmp202:
	bf r1, .LBB5_35
.Ltmp203:
	{
		ldc r0, 17
		ldw r1, sp[1]
	}
.Ltmp204:
	.loc	5 12 9
	{
		lss r0, r1, r0
		nop
	}
	bt r0, .LBB5_43
.Ltmp205:
	.loc	5 12 9
	{
		sub r0, r1, 1
		nop
	}
	{
		ldc r8, 32
		stw r0, sp[2]
	}
	{
		nop
		ldw r9, sp[5]
	}
.Ltmp206:
.LBB5_40:
	{
		nop
		ldw r4, sp[3]
	}
.Ltmp207:
	{
		nop
		ldw r0, r4[r10]
	}
	.loc	5 14 18
.Ltmp208:
	bl __extendsfdf2
	{
		mov r7, r1
		stw r0, sp[4]
	}
	{
		ldc r5, 0
		nop
	}
.Ltmp209:
.LBB5_41:
	{
		nop
		ldw r0, r4[r10]
	}
	.loc	5 14 18
	bl __extendsfdf2
	{
		mov r2, r0
		mov r3, r1
	}
	.loc	5 14 18
	{
		mov r1, r7
		ldw r0, sp[4]
	}
	bl __muldf3
	{
		mov r2, r0
		mov r3, r1
	}
	{
		mov r6, r10
		mov r10, r8
	}
	ldaw r8, r9[r5]
	.loc	5 14 18
	ldd r1, r0, r8[0]
	.loc	5 14 18
	bl __adddf3
	.loc	5 14 18
	std r1, r0, r8[0]
	{
		mov r8, r10
		mov r10, r6
	}
	.loc	5 13 3
	{
		add r5, r5, 2
		sub r4, r4, 4
	}
.xtaloop 16
	# LOOPMARKER 1
	.loc	5 13 3
	{
		eq r0, r5, r8
		nop
	}
	bf r0, .LBB5_41
.Ltmp210:
	.loc	5 12 45
	{
		add r0, r10, 1
		ldw r1, sp[2]
	}
.Ltmp211:
	.loc	5 12 9
	{
		eq r1, r10, r1
		mov r10, r0
	}
.Ltmp212:
	bf r1, .LBB5_40
.Ltmp213:
.LBB5_43:
	{
		nop
		ldw r10, sp[12]
	}
	.loc	4 175 1
	ldd r9, r8, sp[5]
	ldd r7, r6, sp[4]
	ldd r5, r4, sp[3]
	{
		nop
		retsp 14
	}
	# RETURN_REG_HOLDER
.Ltmp214:
	.cc_bottom FLAC__lpc_compute_autocorrelation.function
	.set	FLAC__lpc_compute_autocorrelation.nstackwords,((assert.nstackwords $M memset.nstackwords $M __extendsfdf2.nstackwords $M __muldf3.nstackwords $M __adddf3.nstackwords) + 14)
	.globl	FLAC__lpc_compute_autocorrelation.nstackwords
	.set	FLAC__lpc_compute_autocorrelation.maxcores,1
	.globl	FLAC__lpc_compute_autocorrelation.maxcores
	.set	FLAC__lpc_compute_autocorrelation.maxtimers,0
	.globl	FLAC__lpc_compute_autocorrelation.maxtimers
	.set	FLAC__lpc_compute_autocorrelation.maxchanends,0
	.globl	FLAC__lpc_compute_autocorrelation.maxchanends
.Ltmp215:
	.size	FLAC__lpc_compute_autocorrelation, .Ltmp215-FLAC__lpc_compute_autocorrelation
.Lfunc_end5:
	.cfi_endproc

	.section	.cp.rodata.cst4,"aMc",@progbits,4
	.cc_top .LCPI6_0.data,.LCPI6_0
	.align	4
	.type	.LCPI6_0,@object
	.size	.LCPI6_0, 4
.LCPI6_0:
	.long	2147483648
	.cc_bottom .LCPI6_0.data
	.cc_top .LCPI6_1.data,.LCPI6_1
	.align	4
	.type	.LCPI6_1,@object
	.size	.LCPI6_1, 4
.LCPI6_1:
	.long	1072693248
	.cc_bottom .LCPI6_1.data
	.text
	.globl	FLAC__lpc_compute_lp_coefficients
	.align	4
	.type	FLAC__lpc_compute_lp_coefficients,@function
	.cc_top FLAC__lpc_compute_lp_coefficients.function,FLAC__lpc_compute_lp_coefficients
FLAC__lpc_compute_lp_coefficients:
.Lfunc_begin6:
	.loc	4 178 0
	.cfi_startproc
	.issue_mode dual
	DUALENTSP_lu6 86
.Ltmp216:
	.cfi_def_cfa_offset 344
.Ltmp217:
	.cfi_offset 15, 0
	stw r4, sp[78]
	stw r5, sp[79]
.Ltmp218:
	.cfi_offset 4, -32
.Ltmp219:
	.cfi_offset 5, -28
	stw r6, sp[80]
	stw r7, sp[81]
.Ltmp220:
	.cfi_offset 6, -24
.Ltmp221:
	.cfi_offset 7, -20
	stw r8, sp[82]
	stw r9, sp[83]
.Ltmp222:
	.cfi_offset 8, -16
.Ltmp223:
	.cfi_offset 9, -12
	stw r10, sp[84]
.Ltmp224:
	.cfi_offset 10, -8
.Ltmp225:
	{
		mov r9, r2
		stw r3, sp[3]
	}
.Ltmp226:
	{
		mov r4, r1
		nop
	}
.Ltmp227:
	{
		mov r5, r0
		stw r4, sp[1]
	}
.Ltmp228:
	.loc	4 182 2 prologue_end
	{
		eq r0, r4, 0
		stw r5, sp[2]
	}
	{
		eq r0, r0, 0
		nop
	}
	.loc	4 182 2
	bl assert
	{
		nop
		ldw r0, r4[0]
	}
	.loc	4 183 2
	{
		eq r0, r0, 0
		nop
	}
	{
		eq r0, r0, 0
		nop
	}
	.loc	4 183 2
	bl assert
	.loc	4 184 2
	{
		ldc r1, 33
		ldw r0, r4[0]
	}
	.loc	4 184 2
	{
		lsu r0, r0, r1
		nop
	}
	.loc	4 184 2
	bl assert
	.loc	4 185 2
	ldd r1, r0, r5[0]
	{
		ldc r8, 0
		nop
	}
	.loc	4 185 2
	{
		mov r2, r8
		mov r3, r8
	}
	bl __nedf2
	{
		eq r0, r0, 0
		nop
	}
	{
		eq r0, r0, 0
		nop
	}
	.loc	4 185 2
	bl assert
	.loc	4 187 2
	ldd r1, r0, r5[0]
.Ltmp229:
	{
		nop
		stw r1, sp[10]
	}
	{
		nop
		stw r0, sp[11]
	}
	{
		nop
		ldw r0, r4[0]
	}
.Ltmp230:
	{
		ldaw r0, sp[14]
		stw r0, sp[4]
	}
.Ltmp231:
	{
		sub r0, r0, 8
		nop
	}
	{
		nop
		stw r0, sp[12]
	}
.Ltmp232:
	ldw r2, cp[.LCPI6_0]
.Ltmp233:
	{
		mov r3, r8
		nop
	}
.Ltmp234:
.LBB6_1:
	{
		nop
		ldw r0, sp[4]
	}
	.loc	4 189 2
.Ltmp235:
	{
		lsu r0, r3, r0
		nop
	}
	bf r0, .LBB6_13
.Ltmp236:
	{
		shr r0, r3, 1
		stw r9, sp[8]
	}
	.loc	4 214 6
.Ltmp237:
	{
		add r0, r3, 1
		stw r0, sp[13]
	}
.Ltmp238:
	.loc	4 191 3
	{
		shl r0, r0, 3
		stw r0, sp[6]
	}
	{
		nop
		ldw r1, sp[2]
	}
	{
		add r0, r1, r0
		nop
	}
	.loc	4 191 3
	ldd r0, r4, r0[0]
	xor r7, r0, r2
.Ltmp239:
	{
		ldaw r9, sp[14]
		stw r5, sp[7]
	}
.Ltmp240:
	{
		mov r6, r9
		mov r10, r3
	}
	bf r10, .LBB6_4
.Ltmp241:
.LBB6_3:
	.loc	4 193 4
	ldd r1, r0, r6[0]
	.loc	4 193 4
	ldd r3, r2, r5[0]
	.loc	4 193 4
	bl __muldf3
	{
		mov r2, r0
		mov r3, r1
	}
	.loc	4 193 4
	{
		mov r0, r4
		mov r1, r7
	}
	bl __subdf3
	{
		mov r4, r0
		mov r7, r1
	}
.Ltmp242:
	.loc	4 192 21
	{
		add r8, r8, 1
		add r6, r6, 8
	}
.Ltmp243:
	.loc	4 192 3
	{
		sub r5, r5, 8
		eq r0, r10, r8
	}
	bf r0, .LBB6_3
.Ltmp244:
.LBB6_4:
	.loc	4 194 3
	{
		mov r0, r4
		mov r1, r7
	}
	{
		nop
		ldw r2, sp[11]
	}
	{
		nop
		ldw r3, sp[10]
	}
	bl __divdf3
	{
		mov r11, r0
		mov r7, r1
	}
	.loc	4 197 3
	{
		shl r0, r10, 3
		nop
	}
	{
		nop
		stw r0, sp[5]
	}
	{
		add r0, r9, r0
		stw r10, sp[9]
	}
	.loc	4 197 3
	std r7, r11, r0[0]
.Ltmp245:
	{
		ldc r0, 0
		ldw r5, sp[12]
	}
	{
		mov r10, r0
		ldw r1, sp[13]
	}
	bf r1, .LBB6_7
.Ltmp246:
.LBB6_5:
	.loc	4 199 4
	ldd r8, r6, r9[0]
	.loc	4 200 4
	ldd r3, r2, r5[0]
	.loc	4 200 4
	{
		mov r0, r11
		mov r1, r7
	}
	{
		mov r4, r7
		mov r7, r11
	}
	bl __muldf3
	{
		mov r2, r0
		mov r3, r1
	}
	.loc	4 200 4
	{
		mov r0, r6
		mov r1, r8
	}
	bl __adddf3
	.loc	4 200 4
	std r1, r0, r9[0]
	.loc	4 201 4
	{
		mov r0, r7
		mov r1, r4
	}
	{
		mov r2, r6
		mov r3, r8
	}
	bl __muldf3
	.loc	4 201 4
	ldd r3, r2, r5[0]
	.loc	4 201 4
	bl __adddf3
	{
		mov r11, r7
		mov r7, r4
	}
	.loc	4 201 4
	std r1, r0, r5[0]
	{
		add r10, r10, 1
		ldw r1, sp[13]
	}
.Ltmp247:
	.loc	4 198 3
	{
		sub r5, r5, 8
		add r9, r9, 8
	}
	.loc	4 198 3
	{
		lsu r0, r10, r1
		nop
	}
	.loc	4 198 3
	bt r0, .LBB6_5
.Ltmp248:
	{
		mov r0, r1
		nop
	}
.Ltmp249:
.LBB6_7:
	{
		nop
		ldw r1, sp[9]
	}
	.loc	4 203 6
.Ltmp250:
	{
		zext r1, 1
		ldaw r2, sp[14]
	}
.Ltmp251:
	{
		mov r6, r2
		mov r4, r11
	}
.Ltmp252:
	bf r1, .LBB6_9
.Ltmp253:
	.loc	4 204 4
	{
		shl r0, r0, 3
		nop
	}
.Ltmp254:
	{
		add r5, r6, r0
		mov r9, r6
	}
.Ltmp255:
	.loc	4 204 4
	ldd r8, r6, r5[0]
	.loc	4 204 4
	{
		mov r0, r4
		mov r1, r7
	}
	{
		mov r2, r6
		mov r3, r8
	}
	bl __muldf3
	{
		mov r2, r0
		mov r3, r1
	}
.Ltmp256:
	.loc	4 204 4
	{
		mov r0, r6
		mov r6, r9
	}
.Ltmp257:
	{
		mov r1, r8
		nop
	}
	bl __adddf3
	.loc	4 204 4
	std r1, r0, r5[0]
.Ltmp258:
.LBB6_9:
	.loc	4 206 3
	{
		mov r0, r4
		mov r1, r7
	}
	{
		mov r2, r4
		mov r3, r7
	}
	bl __muldf3
	{
		mov r2, r0
		mov r3, r1
	}
	{
		ldc r10, 0
		nop
	}
	{
		mov r4, r10
		nop
	}
	.loc	4 206 3
	{
		mov r0, r4
		nop
	}
	ldw r1, cp[.LCPI6_1]
	bl __subdf3
	{
		mov r7, r1
		stw r0, sp[13]
	}
	{
		nop
		ldw r9, sp[8]
	}
.Ltmp259:
	{
		mov r5, r9
		mov r8, r4
	}
	ldw r4, cp[.LCPI6_0]
	{
		nop
		ldw r10, sp[9]
	}
.Ltmp260:
.LBB6_10:
	.loc	4 210 4
	ldd r1, r0, r6[0]
	.loc	4 210 4
	bl __truncdfsf2
	{
		mov r1, r0
		mov r0, r4
	}
	.loc	4 210 4
	bl __subsf3
.Ltmp261:
	.loc	4 210 4
	{
		add r8, r8, 1
		stw r0, r5[0]
	}
.Ltmp262:
	.loc	4 209 3
	{
		add r6, r6, 8
		add r5, r5, 4
	}
	.loc	4 209 3
	{
		lsu r0, r10, r8
		nop
	}
	bf r0, .LBB6_10
.Ltmp263:
	{
		nop
		ldw r0, sp[11]
	}
	{
		nop
		ldw r1, sp[10]
	}
	.loc	4 206 3
	{
		mov r3, r7
		ldw r2, sp[13]
	}
	bl __muldf3
	{
		mov r2, r0
		nop
	}
	{
		nop
		stw r2, sp[11]
	}
	{
		nop
		stw r1, sp[10]
	}
	{
		nop
		ldw r0, sp[3]
	}
	{
		nop
		ldw r3, sp[5]
	}
	.loc	4 211 3
	{
		add r0, r0, r3
		nop
	}
	.loc	4 211 3
	std r1, r2, r0[0]
	{
		nop
		ldw r5, sp[7]
	}
	.loc	4 214 6
.Ltmp264:
	{
		add r5, r5, 8
		ldw r0, sp[12]
	}
	.loc	4 214 6
	{
		add r0, r0, 8
		nop
	}
	{
		nop
		stw r0, sp[12]
	}
	ldc r0, 128
	.loc	4 214 6
	{
		add r9, r9, r0
		mov r0, r2
	}
	{
		ldc r8, 0
		nop
	}
	.loc	4 214 6
	{
		mov r2, r8
		mov r3, r8
	}
	bl __nedf2
	{
		nop
		ldw r1, sp[6]
	}
	{
		mov r3, r1
		mov r2, r4
	}
	bt r0, .LBB6_1
.Ltmp265:
	{
		nop
		ldw r0, sp[1]
	}
	{
		nop
		stw r1, r0[0]
	}
.Ltmp266:
.LBB6_13:
	.loc	4 219 1
	ldw r10, sp[84]
	ldw r8, sp[82]
	ldw r9, sp[83]
	ldw r6, sp[80]
	ldw r7, sp[81]
	ldw r4, sp[78]
	ldw r5, sp[79]
	retsp 86
	# RETURN_REG_HOLDER
.Ltmp267:
	.cc_bottom FLAC__lpc_compute_lp_coefficients.function
	.set	FLAC__lpc_compute_lp_coefficients.nstackwords,((assert.nstackwords $M __divdf3.nstackwords $M __truncdfsf2.nstackwords $M __subsf3.nstackwords $M __nedf2.nstackwords $M __adddf3.nstackwords $M __muldf3.nstackwords $M __subdf3.nstackwords) + 86)
	.globl	FLAC__lpc_compute_lp_coefficients.nstackwords
	.set	FLAC__lpc_compute_lp_coefficients.maxcores,1
	.globl	FLAC__lpc_compute_lp_coefficients.maxcores
	.set	FLAC__lpc_compute_lp_coefficients.maxtimers,0
	.globl	FLAC__lpc_compute_lp_coefficients.maxtimers
	.set	FLAC__lpc_compute_lp_coefficients.maxchanends,0
	.globl	FLAC__lpc_compute_lp_coefficients.maxchanends
.Ltmp268:
	.size	FLAC__lpc_compute_lp_coefficients, .Ltmp268-FLAC__lpc_compute_lp_coefficients
.Lfunc_end6:
	.cfi_endproc

	.section	.cp.rodata.cst4,"aMc",@progbits,4
	.cc_top .LCPI7_0.data,.LCPI7_0
	.align	4
	.type	.LCPI7_0,@object
	.size	.LCPI7_0, 4
.LCPI7_0:
	.long	2147483647
	.cc_bottom .LCPI7_0.data
	.cc_top .LCPI7_1.data,.LCPI7_1
	.align	4
	.type	.LCPI7_1,@object
	.size	.LCPI7_1, 4
.LCPI7_1:
	.long	2147483648
	.cc_bottom .LCPI7_1.data
	.cc_top .LCPI7_2.data,.LCPI7_2
	.align	4
	.type	.LCPI7_2,@object
	.size	.LCPI7_2, 4
.LCPI7_2:
	.long	1071644672
	.cc_bottom .LCPI7_2.data
	.text
	.globl	FLAC__lpc_quantize_coefficients
	.align	4
	.type	FLAC__lpc_quantize_coefficients,@function
	.cc_top FLAC__lpc_quantize_coefficients.function,FLAC__lpc_quantize_coefficients
FLAC__lpc_quantize_coefficients:
.Lfunc_begin7:
	.loc	4 222 0
	.cfi_startproc
	.issue_mode dual
	{
		nop
		dualentsp 20
	}
.Ltmp269:
	.cfi_def_cfa_offset 80
.Ltmp270:
	.cfi_offset 15, 0
	std r5, r4, sp[6]
.Ltmp271:
	.cfi_offset 4, -32
.Ltmp272:
	.cfi_offset 5, -28
	std r7, r6, sp[7]
.Ltmp273:
	.cfi_offset 6, -24
.Ltmp274:
	.cfi_offset 7, -20
	std r9, r8, sp[8]
.Ltmp275:
	.cfi_offset 8, -16
.Ltmp276:
	.cfi_offset 9, -12
.Ltmp277:
	.cfi_offset 10, -8
.Ltmp278:
	{
		mov r4, r3
		stw r10, sp[18]
	}
.Ltmp279:
	{
		mov r7, r2
		mov r5, r1
	}
.Ltmp280:
	{
		mov r6, r0
		eq r0, r7, 0
	}
.Ltmp281:
	.loc	4 227 2 prologue_end
	{
		eq r0, r0, 0
		nop
	}
	.loc	4 227 2
	bl assert
	{
		ldc r0, 4
		nop
	}
	.loc	4 228 2
	{
		lsu r0, r0, r7
		nop
	}
	.loc	4 228 2
	bl assert
.Ltmp282:
	{
		ldc r0, 2
		nop
	}
	{
		nop
		stw r0, sp[7]
	}
	{
		nop
		stw r5, sp[10]
	}
.Ltmp283:
	bf r5, .LBB7_26
.Ltmp284:
	{
		nop
		stw r6, sp[9]
	}
.Ltmp285:
	{
		sub r1, r7, 1
		stw r4, sp[4]
	}
.Ltmp286:
	{
		mkmsk r0, 1
		stw r1, sp[5]
	}
	.loc	4 232 2
	{
		shl r0, r0, r1
		nop
	}
.Ltmp287:
	.loc	4 233 2
	{
		neg r0, r0
		nop
	}
.Ltmp288:
	.loc	4 234 2
	{
		mkmsk r0, r1
		stw r0, sp[6]
	}
	{
		ldc r8, 0
		stw r0, sp[8]
	}
	ldw r6, cp[.LCPI7_0]
	{
		ldc r5, 0
		mov r4, r8
	}
	{
		mov r7, r8
		nop
	}
.Ltmp289:
.LBB7_2:
	{
		nop
		ldw r0, sp[9]
	}
	{
		nop
		ldw r0, r0[r8]
	}
	.loc	4 239 20
.Ltmp290:
	{
		and r0, r0, r6
		nop
	}
	.loc	4 239 20
	bl __extendsfdf2
	{
		mov r9, r0
		mov r10, r1
	}
	.loc	4 240 6
.Ltmp291:
	{
		mov r2, r4
		mov r3, r7
	}
	bl __gtdf2
	{
		lss r0, r5, r0
		nop
	}
	bt r0, .LBB7_4
.Ltmp292:
	.loc	4 240 6
	{
		mov r10, r7
		nop
	}
.Ltmp293:
.LBB7_4:
	bt r0, .LBB7_6
.Ltmp294:
	{
		mov r9, r4
		nop
	}
.Ltmp295:
.LBB7_6:
	.loc	4 238 24
	{
		add r8, r8, 1
		ldw r0, sp[10]
	}
.Ltmp296:
	.loc	4 238 2
	{
		eq r0, r0, r8
		mov r4, r9
	}
	{
		mov r7, r10
		nop
	}
	bf r0, .LBB7_2
.Ltmp297:
	{
		ldc r2, 0
		mov r0, r9
	}
	.loc	4 244 5
.Ltmp298:
	{
		mov r1, r10
		mov r3, r2
	}
	bl __ledf2
	{
		mkmsk r8, 1
		nop
	}
.Ltmp299:
	{
		lss r0, r0, r8
		ldw r7, sp[21]
	}
.Ltmp300:
	bt r0, .LBB7_26
.Ltmp301:
	.loc	4 249 3
	ldw r0, cp[FLAC__SUBFRAME_LPC_QLP_SHIFT_LEN]
	.loc	4 249 3
	{
		sub r6, r0, 1
		nop
	}
.Ltmp302:
	.loc	4 249 3
	{
		mkmsk r5, r6
		ldaw r2, sp[11]
	}
.Ltmp303:
	.loc	4 253 9
	{
		mov r0, r9
		mov r1, r10
	}
	bl frexp
	{
		nop
		ldw r0, sp[11]
	}
	.loc	4 254 3
	{
		sub r0, r0, 1
		nop
	}
.Ltmp304:
	{
		nop
		stw r0, sp[11]
	}
	{
		nop
		ldw r1, sp[5]
	}
	.loc	4 255 3
	{
		sub r0, r1, r0
		nop
	}
.Ltmp305:
	.loc	4 255 3
	{
		sub r4, r0, 1
		nop
	}
	.loc	4 255 3
	{
		lss r1, r5, r4
		stw r4, r7[0]
	}
	.loc	4 257 6
.Ltmp306:
	bf r1, .LBB7_10
.Ltmp307:
	.loc	4 258 4
	{
		mov r4, r5
		stw r5, r7[0]
	}
.Ltmp308:
	bu .LBB7_11
.Ltmp309:
.LBB7_10:
	.loc	4 249 3
	{
		shl r1, r8, r6
		nop
	}
	.loc	4 250 3
	{
		neg r1, r1
		nop
	}
.Ltmp310:
	.loc	4 259 11
	{
		lss r0, r1, r0
		stw r8, sp[7]
	}
	bf r0, .LBB7_26
.Ltmp311:
.LBB7_11:
	.loc	4 263 5
	ashr r0, r4, 32
	bt r0, .LBB7_19
.Ltmp312:
	{
		nop
		ldw r0, sp[10]
	}
	.loc	4 266 3
.Ltmp313:
	bf r0, .LBB7_13
.Ltmp314:
	{
		mkmsk r0, 1
		nop
	}
	.loc	4 267 4
.Ltmp315:
	{
		shl r0, r0, r4
		nop
	}
	.loc	4 267 4
	bl __floatsisf
	{
		mov r8, r0
		ldc r0, 0
	}
	{
		mov r9, r0
		stw r0, sp[7]
	}
.Ltmp316:
	{
		mov r10, r0
		ldw r4, sp[4]
	}
.Ltmp317:
	{
		nop
		ldw r5, sp[9]
	}
.Ltmp318:
	{
		nop
		ldw r6, sp[6]
	}
.Ltmp319:
.LBB7_15:
	.loc	4 267 4
	{
		mov r1, r8
		ldw r0, r5[0]
	}
	.loc	4 267 4
	bl __mulsf3
	.loc	4 267 4
	bl __extendsfdf2
	{
		mov r2, r0
		mov r3, r1
	}
	.loc	4 267 4
	{
		mov r0, r9
		mov r1, r10
	}
	bl __adddf3
	{
		mov r9, r0
		mov r10, r1
	}
	ldw r0, cp[.LCPI7_1]
	.loc	4 64 20
.Ltmp320:
	{
		and r0, r10, r0
		nop
	}
	ldw r1, cp[.LCPI7_2]
	{
		or r1, r0, r1
		ldc r0, 0
	}
	.loc	4 64 20
	{
		mov r2, r9
		mov r3, r10
	}
	bl __adddf3
	.loc	4 64 20
	bl __fixdfsi
	{
		nop
		ldw r2, sp[8]
	}
.Ltmp321:
	.loc	4 276 7
	{
		lss r1, r2, r0
		mov r7, r2
	}
	bt r1, .LBB7_18
.Ltmp322:
	.loc	4 278 12
	{
		lss r1, r0, r6
		mov r7, r6
	}
	bt r1, .LBB7_18
.Ltmp323:
	.loc	4 278 12
	{
		mov r7, r0
		nop
	}
.Ltmp324:
.LBB7_18:
	.loc	4 280 4
	{
		mov r0, r7
		nop
	}
	bl __floatsidf
	{
		mov r2, r0
		mov r3, r1
	}
	.loc	4 280 4
	{
		mov r0, r9
		mov r1, r10
	}
	bl __subdf3
	{
		mov r9, r0
		mov r10, r1
	}
	.loc	4 281 4
	{
		add r5, r5, 4
		stw r7, r4[0]
	}
.Ltmp325:
	.loc	4 266 3
	{
		add r4, r4, 4
		ldw r0, sp[10]
	}
	.loc	4 266 3
	{
		sub r0, r0, 1
		nop
	}
	{
		nop
		stw r0, sp[10]
	}
	bt r0, .LBB7_15
	bu .LBB7_26
.Ltmp326:
.LBB7_19:
	.loc	4 293 11
	bl __getstderr
	{
		nop
		ldw r2, r7[0]
	}
.Ltmp327:
	{
		nop
		stw r10, sp[2]
	}
	{
		nop
		stw r9, sp[1]
	}
	.loc	4 293 3
	ldaw r11, cp[.L.str]
.Ltmp328:
	{
		mov r1, r11
		ldw r8, sp[10]
	}
.Ltmp329:
	{
		mov r3, r8
		nop
	}
	bl fprintf
.Ltmp330:
	{
		mov r6, r8
		ldw r5, sp[4]
	}
.Ltmp331:
	{
		nop
		ldw r7, sp[9]
	}
.Ltmp332:
	bf r8, .LBB7_25
.Ltmp333:
	.loc	4 289 3
	{
		neg r0, r4
		mkmsk r1, 1
	}
.Ltmp334:
	.loc	4 296 4
	{
		shl r0, r1, r0
		nop
	}
	.loc	4 296 4
	bl __floatsisf
	{
		ldc r0, 0
		stw r0, sp[7]
	}
	{
		mov r9, r0
		mov r10, r0
	}
	{
		mov r4, r0
		nop
	}
.Ltmp335:
.LBB7_21:
	{
		nop
		ldw r0, r7[0]
	}
	{
		nop
		ldw r1, sp[7]
	}
	.loc	4 296 4
	bl __divsf3
	.loc	4 296 4
	bl __extendsfdf2
	{
		mov r2, r0
		mov r3, r1
	}
	.loc	4 296 4
	{
		mov r0, r9
		mov r1, r10
	}
	bl __adddf3
	{
		mov r9, r0
		mov r10, r1
	}
	ldw r0, cp[.LCPI7_1]
	.loc	4 64 20
.Ltmp336:
	{
		and r0, r10, r0
		nop
	}
	ldw r1, cp[.LCPI7_2]
	{
		or r1, r0, r1
		mov r0, r4
	}
	.loc	4 64 20
	{
		mov r2, r9
		mov r3, r10
	}
	bl __adddf3
	.loc	4 64 20
	bl __fixdfsi
	{
		nop
		ldw r2, sp[8]
	}
.Ltmp337:
	.loc	4 304 7
	{
		lss r1, r2, r0
		mov r8, r2
	}
	bt r1, .LBB7_24
.Ltmp338:
	{
		nop
		ldw r2, sp[6]
	}
.Ltmp339:
	.loc	4 306 12
	{
		lss r1, r0, r2
		mov r8, r2
	}
	bt r1, .LBB7_24
.Ltmp340:
	.loc	4 306 12
	{
		mov r8, r0
		nop
	}
.Ltmp341:
.LBB7_24:
	.loc	4 308 4
	{
		mov r0, r8
		nop
	}
	bl __floatsidf
	{
		mov r2, r0
		mov r3, r1
	}
	.loc	4 308 4
	{
		mov r0, r9
		mov r1, r10
	}
	bl __subdf3
	{
		mov r9, r0
		mov r10, r1
	}
	.loc	4 309 4
	{
		add r7, r7, 4
		stw r8, r5[0]
	}
.Ltmp342:
	.loc	4 295 3
	{
		add r5, r5, 4
		mov r0, r6
	}
	.loc	4 295 3
	{
		sub r0, r0, 1
		nop
	}
	{
		mov r6, r0
		nop
	}
	bt r0, .LBB7_21
.Ltmp343:
.LBB7_25:
	{
		ldc r1, 0
		nop
	}
	{
		nop
		stw r1, sp[7]
	}
	{
		nop
		ldw r0, sp[21]
	}
	{
		nop
		stw r1, r0[0]
	}
	bu .LBB7_26
.LBB7_13:
	{
		ldc r0, 0
		nop
	}
	{
		nop
		stw r0, sp[7]
	}
.LBB7_26:
	{
		nop
		ldw r0, sp[7]
	}
	{
		nop
		ldw r10, sp[18]
	}
	.loc	4 315 1
	ldd r9, r8, sp[8]
	ldd r7, r6, sp[7]
	ldd r5, r4, sp[6]
	{
		nop
		retsp 20
	}
	# RETURN_REG_HOLDER
.Ltmp344:
	.cc_bottom FLAC__lpc_quantize_coefficients.function
	.set	FLAC__lpc_quantize_coefficients.nstackwords,((assert.nstackwords $M __gtdf2.nstackwords $M __ledf2.nstackwords $M frexp.nstackwords $M __mulsf3.nstackwords $M __getstderr.nstackwords $M fprintf.nstackwords $M __floatsisf.nstackwords $M __divsf3.nstackwords $M __extendsfdf2.nstackwords $M __adddf3.nstackwords $M __fixdfsi.nstackwords $M __floatsidf.nstackwords $M __subdf3.nstackwords) + 20)
	.globl	FLAC__lpc_quantize_coefficients.nstackwords
	.set	FLAC__lpc_quantize_coefficients.maxcores,__getstderr.maxcores $M copysign.maxcores $M fabsf.maxcores $M fprintf.maxcores $M frexp.maxcores $M 1
	.globl	FLAC__lpc_quantize_coefficients.maxcores
	.set	FLAC__lpc_quantize_coefficients.maxtimers,__getstderr.maxtimers $M copysign.maxtimers $M fabsf.maxtimers $M fprintf.maxtimers $M frexp.maxtimers $M 0
	.globl	FLAC__lpc_quantize_coefficients.maxtimers
	.set	FLAC__lpc_quantize_coefficients.maxchanends,__getstderr.maxchanends $M copysign.maxchanends $M fabsf.maxchanends $M fprintf.maxchanends $M frexp.maxchanends $M 0
	.globl	FLAC__lpc_quantize_coefficients.maxchanends
.Ltmp345:
	.size	FLAC__lpc_quantize_coefficients, .Ltmp345-FLAC__lpc_quantize_coefficients
.Lfunc_end7:
	.cfi_endproc

	.section	.cp.rodata.cst4,"aMc",@progbits,4
	.cc_top .LCPI8_0.data,.LCPI8_0
	.align	4
	.type	.LCPI8_0,@object
	.size	.LCPI8_0, 4
.LCPI8_0:
	.long	4294967232
	.cc_bottom .LCPI8_0.data
	.cc_top .LCPI8_1.data,.LCPI8_1
	.align	4
	.type	.LCPI8_1,@object
	.size	.LCPI8_1, 4
.LCPI8_1:
	.long	4294967228
	.cc_bottom .LCPI8_1.data
	.cc_top .LCPI8_2.data,.LCPI8_2
	.align	4
	.type	.LCPI8_2,@object
	.size	.LCPI8_2, 4
.LCPI8_2:
	.long	4294967224
	.cc_bottom .LCPI8_2.data
	.cc_top .LCPI8_3.data,.LCPI8_3
	.align	4
	.type	.LCPI8_3,@object
	.size	.LCPI8_3, 4
.LCPI8_3:
	.long	4294967220
	.cc_bottom .LCPI8_3.data
	.cc_top .LCPI8_4.data,.LCPI8_4
	.align	4
	.type	.LCPI8_4,@object
	.size	.LCPI8_4, 4
.LCPI8_4:
	.long	4294967216
	.cc_bottom .LCPI8_4.data
	.cc_top .LCPI8_5.data,.LCPI8_5
	.align	4
	.type	.LCPI8_5,@object
	.size	.LCPI8_5, 4
.LCPI8_5:
	.long	4294967168
	.cc_bottom .LCPI8_5.data
	.cc_top .LCPI8_6.data,.LCPI8_6
	.align	4
	.type	.LCPI8_6,@object
	.size	.LCPI8_6, 4
.LCPI8_6:
	.long	4294967283
	.cc_bottom .LCPI8_6.data
	.cc_top .LCPI8_7.data,.LCPI8_7
	.align	4
	.type	.LCPI8_7,@object
	.size	.LCPI8_7, 4
.LCPI8_7:
	.long	4294967248
	.cc_bottom .LCPI8_7.data
	.text
	.globl	FLAC__lpc_compute_residual_from_qlp_coefficients
	.align	4
	.type	FLAC__lpc_compute_residual_from_qlp_coefficients,@function
	.cc_top FLAC__lpc_compute_residual_from_qlp_coefficients.function,FLAC__lpc_compute_residual_from_qlp_coefficients
FLAC__lpc_compute_residual_from_qlp_coefficients:
.Lfunc_begin8:
	.loc	4 361 0
	.cfi_startproc
	.issue_mode dual
	{
		nop
		dualentsp 50
	}
.Ltmp346:
	.cfi_def_cfa_offset 200
.Ltmp347:
	.cfi_offset 15, 0
	{
		nop
		stw r4, sp[42]
	}
	{
		nop
		stw r5, sp[43]
	}
.Ltmp348:
	.cfi_offset 4, -32
.Ltmp349:
	.cfi_offset 5, -28
	{
		nop
		stw r6, sp[44]
	}
	{
		nop
		stw r7, sp[45]
	}
.Ltmp350:
	.cfi_offset 6, -24
.Ltmp351:
	.cfi_offset 7, -20
	{
		nop
		stw r8, sp[46]
	}
	{
		nop
		stw r9, sp[47]
	}
.Ltmp352:
	.cfi_offset 8, -16
.Ltmp353:
	.cfi_offset 9, -12
.Ltmp354:
	.cfi_offset 10, -8
.Ltmp355:
	{
		mov r4, r3
		stw r10, sp[48]
	}
.Ltmp356:
	{
		mov r9, r2
		mov r8, r1
	}
.Ltmp357:
	{
		mov r5, r0
		nop
	}
.Ltmp358:
	{
		nop
		stw r5, sp[29]
	}
	{
		nop
		ldw r6, sp[52]
	}
	{
		eq r0, r4, 0
		ldw r7, sp[51]
	}
.Ltmp359:
	.loc	4 365 2 prologue_end
	{
		eq r0, r0, 0
		nop
	}
	.loc	4 365 2
	bl assert
	{
		ldc r0, 33
		nop
	}
	.loc	4 366 2
	{
		lsu r0, r4, r0
		nop
	}
	.loc	4 366 2
	bl assert
	{
		ldc r0, 13
		nop
	}
	.loc	4 373 5
.Ltmp360:
	{
		lsu r0, r4, r0
		nop
	}
	.loc	4 373 5
	bf r0, .LBB8_1
.Ltmp361:
	{
		ldc r0, 9
		nop
	}
	.loc	4 374 6
.Ltmp362:
	{
		lsu r0, r4, r0
		nop
	}
	bt r0, .LBB8_21
.Ltmp363:
	{
		ldc r0, 11
		nop
	}
	.loc	4 375 7
.Ltmp364:
	{
		lsu r0, r4, r0
		nop
	}
	bt r0, .LBB8_14
.Ltmp365:
	{
		ldc r0, 12
		nop
	}
	.loc	4 376 8
.Ltmp366:
	{
		eq r0, r4, r0
		nop
	}
	.loc	4 376 8
	bf r0, .LBB8_8
.Ltmp367:
	{
		mkmsk r0, 1
		nop
	}
.Ltmp368:
	.loc	4 377 6
	{
		lss r0, r8, r0
		mov r10, r6
	}
.Ltmp369:
	bt r0, .LBB8_73
.Ltmp370:
	{
		nop
		ldw r0, r9[11]
	}
	{
		nop
		stw r0, sp[31]
	}
	{
		nop
		ldw r0, r9[10]
	}
	{
		nop
		stw r0, sp[30]
	}
	{
		nop
		ldw r0, r9[9]
	}
	{
		nop
		stw r0, sp[28]
	}
	{
		nop
		ldw r0, r9[8]
	}
	{
		nop
		stw r0, sp[26]
	}
	{
		nop
		ldw r0, r9[7]
	}
	{
		nop
		stw r0, sp[25]
	}
	{
		nop
		ldw r0, r9[6]
	}
	{
		nop
		stw r0, sp[24]
	}
	{
		nop
		ldw r0, r9[5]
	}
	{
		nop
		stw r0, sp[23]
	}
	{
		nop
		ldw r0, r9[4]
	}
	{
		nop
		stw r0, sp[22]
	}
	{
		nop
		ldw r0, r9[3]
	}
	{
		nop
		stw r0, sp[21]
	}
	{
		nop
		ldw r0, r9[2]
	}
	{
		nop
		stw r0, sp[20]
	}
	{
		nop
		ldw r0, r9[1]
	}
	{
		nop
		stw r0, sp[19]
	}
	{
		nop
		ldw r0, r9[0]
	}
	{
		nop
		stw r0, sp[27]
	}
	ldw r0, cp[.LCPI8_7]
	{
		add r0, r5, r0
		nop
	}
	{
		nop
		ldw r11, r0[0]
	}
	ldaw r0, r5[-11]
	{
		nop
		ldw r9, r0[0]
	}
.Ltmp371:
	ldaw r0, r5[-10]
	{
		nop
		ldw r4, r0[0]
	}
	ldaw r0, r5[-9]
	{
		nop
		ldw r0, r0[0]
	}
	{
		nop
		stw r0, sp[40]
	}
	ldaw r0, r5[-8]
	{
		nop
		ldw r0, r0[0]
	}
	{
		nop
		stw r0, sp[39]
	}
	ldaw r0, r5[-7]
	{
		nop
		ldw r2, r0[0]
	}
	ldaw r0, r5[-6]
	{
		nop
		ldw r0, r0[0]
	}
	{
		nop
		stw r0, sp[38]
	}
	ldaw r1, r5[-5]
	.loc	4 386 7
.Ltmp372:
	{
		mov r1, r2
		ldw r0, r1[0]
	}
	ldaw r2, r5[-4]
	{
		nop
		ldw r2, r2[0]
	}
	{
		mov r2, r0
		stw r2, sp[37]
	}
	ldaw r3, r5[-3]
	{
		nop
		ldw r0, r3[0]
	}
	{
		sub r3, r5, 8
		stw r0, sp[36]
	}
	.loc	4 389 7
	{
		sub r3, r5, 4
		ldw r7, r3[0]
	}
	{
		nop
		ldw r3, r3[0]
	}
.Ltmp373:
.LBB8_13:
	{
		nop
		stw r10, sp[41]
	}
	{
		nop
		stw r9, sp[35]
	}
	{
		nop
		ldw r0, sp[40]
	}
	{
		nop
		ldw r10, sp[39]
	}
	{
		nop
		stw r10, sp[40]
	}
	{
		nop
		stw r1, sp[39]
	}
	{
		nop
		ldw r6, sp[38]
	}
	{
		nop
		stw r6, sp[32]
	}
	{
		nop
		stw r2, sp[38]
	}
	{
		nop
		ldw r6, sp[37]
	}
	{
		nop
		stw r6, sp[33]
	}
	{
		nop
		ldw r6, sp[36]
	}
	{
		nop
		stw r6, sp[37]
	}
	{
		nop
		stw r7, sp[36]
	}
	{
		nop
		stw r3, sp[34]
	}
	{
		nop
		ldw r3, sp[31]
	}
	.loc	4 379 7
	mul r3, r11, r3
.Ltmp374:
	{
		nop
		ldw r11, sp[30]
	}
	.loc	4 380 7
	mul r11, r9, r11
	.loc	4 380 7
	{
		add r3, r11, r3
		ldw r11, sp[28]
	}
.Ltmp375:
	.loc	4 381 7
	mul r11, r4, r11
	.loc	4 381 7
	{
		add r3, r3, r11
		ldw r11, sp[26]
	}
	.loc	4 382 7
	mul r11, r0, r11
	.loc	4 382 7
	{
		add r3, r3, r11
		ldw r11, sp[25]
	}
	.loc	4 383 7
	mul r11, r10, r11
	{
		add r3, r3, r11
		ldw r10, sp[41]
	}
	{
		nop
		ldw r11, sp[24]
	}
	.loc	4 384 7
	mul r11, r1, r11
	{
		add r3, r3, r11
		ldw r1, sp[32]
	}
	{
		nop
		ldw r11, sp[23]
	}
	.loc	4 385 7
	mul r11, r1, r11
	.loc	4 385 7
	{
		add r3, r3, r11
		ldw r11, sp[22]
	}
	.loc	4 386 7
	mul r11, r2, r11
	{
		add r3, r3, r11
		ldw r2, sp[33]
	}
	{
		nop
		ldw r11, sp[21]
	}
	.loc	4 387 7
	mul r11, r2, r11
	.loc	4 387 7
	{
		add r3, r3, r11
		ldw r11, sp[20]
	}
	.loc	4 388 7
	mul r11, r6, r11
	.loc	4 388 7
	{
		add r3, r3, r11
		ldw r11, sp[19]
	}
	.loc	4 389 7
	mul r11, r7, r11
	.loc	4 389 7
	{
		add r3, r3, r11
		ldw r11, sp[27]
	}
	{
		nop
		ldw r7, sp[34]
	}
	.loc	4 390 7
	mul r11, r7, r11
.Ltmp376:
	.loc	4 390 7
	{
		add r11, r3, r11
		ldw r3, r5[0]
	}
.Ltmp377:
	{
		nop
		ldw r9, sp[51]
	}
	.loc	4 391 7
	ashr r11, r11, r9
	{
		mov r9, r4
		mov r4, r0
	}
	.loc	4 391 7
	{
		sub r11, r3, r11
		nop
	}
	.loc	4 391 7
	{
		sub r8, r8, 1
		stw r11, r10[0]
	}
.Ltmp378:
	.loc	4 377 6
	{
		add r5, r5, 4
		add r10, r10, 4
	}
	{
		nop
		ldw r11, sp[35]
	}
	bt r8, .LBB8_13
	bu .LBB8_73
.Ltmp379:
.LBB8_1:
	{
		mkmsk r0, 1
		nop
	}
	.loc	4 541 3
.Ltmp380:
	{
		lss r0, r8, r0
		nop
	}
.Ltmp381:
	bt r0, .LBB8_73
.Ltmp382:
	ldc r0, 124
	{
		mov r10, r9
		nop
	}
.Ltmp383:
	.loc	4 544 14
	{
		add r0, r10, r0
		stw r10, sp[27]
	}
	{
		nop
		stw r0, sp[2]
	}
	ldc r0, 120
	.loc	4 545 14
	{
		add r0, r10, r0
		nop
	}
	{
		nop
		stw r0, sp[3]
	}
	ldc r0, 116
	.loc	4 546 14
	{
		add r0, r10, r0
		nop
	}
	{
		nop
		stw r0, sp[4]
	}
	ldc r0, 112
	.loc	4 547 14
	{
		add r0, r10, r0
		nop
	}
	{
		nop
		stw r0, sp[5]
	}
	ldc r0, 108
	.loc	4 548 14
	{
		add r0, r10, r0
		nop
	}
	{
		nop
		stw r0, sp[6]
	}
	ldc r0, 104
	.loc	4 549 14
	{
		add r0, r10, r0
		nop
	}
	{
		nop
		stw r0, sp[7]
	}
	ldc r0, 100
	.loc	4 550 14
	{
		add r0, r10, r0
		nop
	}
	{
		nop
		stw r0, sp[8]
	}
	ldc r0, 96
	.loc	4 551 14
	{
		add r0, r10, r0
		nop
	}
	{
		nop
		stw r0, sp[9]
	}
	ldc r0, 92
	.loc	4 552 14
	{
		add r0, r10, r0
		nop
	}
	{
		nop
		stw r0, sp[10]
	}
	ldc r0, 88
	.loc	4 553 14
	{
		add r0, r10, r0
		nop
	}
	{
		nop
		stw r0, sp[11]
	}
	ldc r0, 84
	.loc	4 554 14
	{
		add r0, r10, r0
		nop
	}
	{
		nop
		stw r0, sp[12]
	}
	ldc r0, 80
	.loc	4 555 14
	{
		add r0, r10, r0
		nop
	}
	{
		nop
		stw r0, sp[13]
	}
	ldc r0, 76
	.loc	4 556 14
	{
		add r0, r10, r0
		nop
	}
	{
		nop
		stw r0, sp[15]
	}
	ldc r0, 72
	.loc	4 557 14
	{
		add r0, r10, r0
		nop
	}
	{
		nop
		stw r0, sp[17]
	}
	ldc r0, 68
	.loc	4 558 14
	{
		add r0, r10, r0
		nop
	}
	{
		nop
		stw r0, sp[19]
	}
	ldc r0, 64
	.loc	4 559 14
	{
		add r0, r10, r0
		nop
	}
	{
		ldc r0, 60
		stw r0, sp[21]
	}
	.loc	4 560 14
	{
		add r0, r10, r0
		nop
	}
	{
		ldc r0, 56
		stw r0, sp[22]
	}
	.loc	4 561 14
	{
		add r0, r10, r0
		nop
	}
	{
		ldc r0, 52
		stw r0, sp[23]
	}
	.loc	4 562 14
	{
		add r0, r10, r0
		nop
	}
	{
		ldc r0, 48
		stw r0, sp[24]
	}
	.loc	4 563 14
	{
		add r0, r10, r0
		nop
	}
.Ltmp384:
	{
		sub r0, r5, 4
		stw r0, sp[26]
	}
	{
		nop
		stw r0, sp[25]
	}
	ldw r0, cp[.LCPI8_0]
	{
		add r0, r5, r0
		nop
	}
	{
		nop
		stw r0, sp[40]
	}
	ldw r0, cp[.LCPI8_1]
	{
		add r0, r5, r0
		nop
	}
	{
		nop
		stw r0, sp[20]
	}
	ldw r0, cp[.LCPI8_2]
	{
		add r0, r5, r0
		nop
	}
	{
		nop
		stw r0, sp[18]
	}
	ldw r0, cp[.LCPI8_3]
	{
		add r0, r5, r0
		nop
	}
	{
		nop
		stw r0, sp[16]
	}
	ldw r0, cp[.LCPI8_4]
	{
		add r0, r5, r0
		nop
	}
	{
		nop
		stw r0, sp[14]
	}
	ldw r0, cp[.LCPI8_5]
	{
		add r0, r5, r0
		nop
	}
	{
		ldc r11, 0
		stw r0, sp[41]
	}
	ldw r0, cp[.LCPI8_6]
.Ltmp385:
	.loc	4 543 4
	{
		add r0, r4, r0
		nop
	}
	{
		ldc r4, 4
		stw r0, sp[39]
	}
.Ltmp386:
	{
		mov r3, r11
		nop
	}
.Ltmp387:
.LBB8_3:
	{
		nop
		ldw r0, sp[39]
	}
	{
		shr r0, r0, 2
		nop
	}
	{
		lsu r1, r4, r0
		mov r0, r11
	}
	bt r1, .LBB8_72
.Ltmp388:
	{
		nop
		stw r8, sp[38]
	}
	{
		nop
		stw r11, sp[28]
	}
	{
		nop
		stw r11, sp[30]
	}
	{
		nop
		stw r11, sp[31]
	}
	{
		nop
		stw r11, sp[32]
	}
	{
		nop
		stw r11, sp[33]
	}
	{
		nop
		stw r11, sp[34]
	}
	{
		nop
		stw r11, sp[35]
	}
	{
		nop
		stw r11, sp[36]
	}
	{
		mov r4, r11
		stw r11, sp[37]
	}
	{
		mov r1, r11
		mov r6, r11
	}
	{
		mov r5, r11
		nop
	}
	{
		mov r7, r5
		mov r8, r5
	}
	{
		mov r9, r5
		mov r0, r5
	}
	{
		mov r10, r5
		ldw r2, sp[39]
	}

	.xtabranch .Ljumptable0+4,.Ljumptable0+8,.Ljumptable0+12,.Ljumptable0+16,.Ljumptable0+20,.Ljumptable0+24,.Ljumptable0+28,.Ljumptable0+32,.Ljumptable0+36,.Ljumptable0+40,.Ljumptable0+44,.Ljumptable0+48,.Ljumptable0+52,.Ljumptable0+56,.Ljumptable0+60,.Ljumptable0+64,.Ljumptable0+68,.Ljumptable0+72,.Ljumptable0+76,.Ljumptable0+80
.Ljumptable0:
		
	{
		nop
		bru r2
	}
	.jmptable32 .LBB8_71,.LBB8_70,.LBB8_69,.LBB8_68,.LBB8_67,.LBB8_66,.LBB8_65,.LBB8_64,.LBB8_63,.LBB8_62,.LBB8_61,.LBB8_60,.LBB8_59,.LBB8_58,.LBB8_57,.LBB8_56,.LBB8_55,.LBB8_54,.LBB8_53,.LBB8_52
.Ltmp389:
.LBB8_52:
	{
		nop
		ldw r0, sp[2]
	}
	{
		nop
		ldw r0, r0[0]
	}
	{
		nop
		ldw r1, sp[41]
	}
	{
		add r1, r1, r3
		nop
	}
	{
		nop
		ldw r1, r1[0]
	}
	.loc	4 544 14
.Ltmp390:
	mul r0, r1, r0
.Ltmp391:
	{
		nop
		stw r0, sp[28]
	}
.Ltmp392:
.LBB8_53:
	{
		nop
		ldw r0, sp[3]
	}
	{
		nop
		ldw r0, r0[0]
	}
	{
		nop
		ldw r1, sp[41]
	}
	{
		add r1, r1, r3
		nop
	}
	{
		nop
		ldw r1, r1[1]
	}
	.loc	4 545 14
	mul r0, r1, r0
	{
		nop
		ldw r1, sp[28]
	}
	.loc	4 545 14
	{
		add r0, r0, r1
		nop
	}
.Ltmp393:
	{
		nop
		stw r0, sp[30]
	}
.Ltmp394:
.LBB8_54:
	{
		nop
		ldw r0, sp[4]
	}
	{
		nop
		ldw r0, r0[0]
	}
	{
		nop
		ldw r1, sp[41]
	}
	{
		add r1, r1, r3
		nop
	}
	{
		nop
		ldw r1, r1[2]
	}
	.loc	4 546 14
	mul r0, r1, r0
	{
		nop
		ldw r1, sp[30]
	}
	.loc	4 546 14
	{
		add r0, r0, r1
		nop
	}
.Ltmp395:
	{
		nop
		stw r0, sp[31]
	}
.Ltmp396:
.LBB8_55:
	{
		nop
		ldw r0, sp[5]
	}
	{
		nop
		ldw r0, r0[0]
	}
	{
		nop
		ldw r1, sp[41]
	}
	{
		add r1, r1, r3
		nop
	}
	{
		nop
		ldw r1, r1[3]
	}
	.loc	4 547 14
	mul r0, r1, r0
	{
		nop
		ldw r1, sp[31]
	}
	.loc	4 547 14
	{
		add r0, r0, r1
		nop
	}
.Ltmp397:
	{
		nop
		stw r0, sp[32]
	}
.Ltmp398:
.LBB8_56:
	{
		nop
		ldw r0, sp[6]
	}
	{
		nop
		ldw r0, r0[0]
	}
	{
		nop
		ldw r1, sp[41]
	}
	{
		add r1, r1, r3
		nop
	}
	{
		nop
		ldw r1, r1[4]
	}
	.loc	4 548 14
	mul r0, r1, r0
	{
		nop
		ldw r1, sp[32]
	}
	.loc	4 548 14
	{
		add r0, r0, r1
		nop
	}
.Ltmp399:
	{
		nop
		stw r0, sp[33]
	}
.Ltmp400:
.LBB8_57:
	{
		nop
		ldw r0, sp[7]
	}
	{
		nop
		ldw r0, r0[0]
	}
	{
		nop
		ldw r1, sp[41]
	}
	{
		add r1, r1, r3
		nop
	}
	{
		nop
		ldw r1, r1[5]
	}
	.loc	4 549 14
	mul r0, r1, r0
	{
		nop
		ldw r1, sp[33]
	}
	.loc	4 549 14
	{
		add r0, r0, r1
		nop
	}
.Ltmp401:
	{
		nop
		stw r0, sp[34]
	}
.Ltmp402:
.LBB8_58:
	{
		nop
		ldw r0, sp[8]
	}
	{
		nop
		ldw r0, r0[0]
	}
	{
		nop
		ldw r1, sp[41]
	}
	{
		add r1, r1, r3
		nop
	}
	{
		nop
		ldw r1, r1[6]
	}
	.loc	4 550 14
	mul r0, r1, r0
	{
		nop
		ldw r1, sp[34]
	}
	.loc	4 550 14
	{
		add r0, r0, r1
		nop
	}
.Ltmp403:
	{
		nop
		stw r0, sp[35]
	}
.Ltmp404:
.LBB8_59:
	{
		nop
		ldw r0, sp[9]
	}
	{
		nop
		ldw r0, r0[0]
	}
	{
		nop
		ldw r1, sp[41]
	}
	{
		add r1, r1, r3
		nop
	}
	{
		nop
		ldw r1, r1[7]
	}
	.loc	4 551 14
	mul r0, r1, r0
	{
		nop
		ldw r1, sp[35]
	}
	.loc	4 551 14
	{
		add r0, r0, r1
		nop
	}
.Ltmp405:
	{
		nop
		stw r0, sp[36]
	}
.Ltmp406:
.LBB8_60:
	{
		nop
		ldw r0, sp[10]
	}
	{
		nop
		ldw r0, r0[0]
	}
	{
		nop
		ldw r1, sp[41]
	}
	{
		add r1, r1, r3
		nop
	}
	{
		nop
		ldw r1, r1[8]
	}
	.loc	4 552 14
	mul r0, r1, r0
	{
		nop
		ldw r1, sp[36]
	}
	.loc	4 552 14
	{
		add r0, r0, r1
		nop
	}
.Ltmp407:
	{
		nop
		stw r0, sp[37]
	}
.Ltmp408:
.LBB8_61:
	{
		nop
		ldw r0, sp[11]
	}
	{
		nop
		ldw r0, r0[0]
	}
	{
		nop
		ldw r1, sp[41]
	}
	{
		add r1, r1, r3
		nop
	}
	{
		nop
		ldw r1, r1[9]
	}
	.loc	4 553 14
	mul r0, r1, r0
	{
		nop
		ldw r1, sp[37]
	}
	.loc	4 553 14
	{
		add r4, r0, r1
		nop
	}
.Ltmp409:
.LBB8_62:
	{
		nop
		ldw r0, sp[12]
	}
	{
		nop
		ldw r0, r0[0]
	}
	{
		nop
		ldw r1, sp[41]
	}
	{
		add r1, r1, r3
		nop
	}
	{
		nop
		ldw r1, r1[10]
	}
	.loc	4 554 14
	mul r0, r1, r0
	.loc	4 554 14
	{
		add r1, r0, r4
		nop
	}
.Ltmp410:
.LBB8_63:
	{
		nop
		ldw r0, sp[13]
	}
	{
		nop
		ldw r0, r0[0]
	}
	{
		nop
		ldw r2, sp[41]
	}
	{
		add r2, r2, r3
		nop
	}
	{
		nop
		ldw r2, r2[11]
	}
	.loc	4 555 14
	mul r0, r2, r0
	.loc	4 555 14
	{
		add r6, r0, r1
		nop
	}
.Ltmp411:
.LBB8_64:
	{
		nop
		ldw r0, sp[15]
	}
	{
		nop
		ldw r0, r0[0]
	}
	{
		nop
		ldw r1, sp[14]
	}
	{
		add r1, r1, r3
		nop
	}
	{
		nop
		ldw r1, r1[0]
	}
	.loc	4 556 14
	mul r0, r1, r0
	.loc	4 556 14
	{
		add r11, r0, r6
		nop
	}
.Ltmp412:
.LBB8_65:
	{
		nop
		ldw r0, sp[17]
	}
	{
		nop
		ldw r0, r0[0]
	}
	{
		nop
		ldw r1, sp[16]
	}
	{
		add r1, r1, r3
		nop
	}
	{
		nop
		ldw r1, r1[0]
	}
	.loc	4 557 14
	mul r0, r1, r0
	.loc	4 557 14
	{
		add r7, r0, r11
		nop
	}
.Ltmp413:
.LBB8_66:
	{
		nop
		ldw r0, sp[19]
	}
	{
		nop
		ldw r0, r0[0]
	}
	{
		nop
		ldw r1, sp[18]
	}
	{
		add r1, r1, r3
		nop
	}
	{
		nop
		ldw r1, r1[0]
	}
	.loc	4 558 14
	mul r0, r1, r0
	.loc	4 558 14
	{
		add r8, r0, r7
		nop
	}
.Ltmp414:
.LBB8_67:
	{
		nop
		ldw r0, sp[21]
	}
	{
		nop
		ldw r0, r0[0]
	}
	{
		nop
		ldw r1, sp[20]
	}
	{
		add r1, r1, r3
		nop
	}
	{
		nop
		ldw r1, r1[0]
	}
	.loc	4 559 14
	mul r0, r1, r0
	.loc	4 559 14
	{
		add r9, r0, r8
		nop
	}
.Ltmp415:
.LBB8_68:
	{
		nop
		ldw r0, sp[22]
	}
	{
		nop
		ldw r0, r0[0]
	}
	{
		nop
		ldw r1, sp[40]
	}
	{
		add r1, r1, r3
		nop
	}
	{
		nop
		ldw r1, r1[0]
	}
	.loc	4 560 14
	mul r0, r1, r0
	.loc	4 560 14
	{
		add r0, r0, r9
		nop
	}
.Ltmp416:
.LBB8_69:
	{
		nop
		ldw r1, sp[23]
	}
	{
		nop
		ldw r1, r1[0]
	}
	{
		nop
		ldw r2, sp[40]
	}
	{
		add r2, r2, r3
		nop
	}
	{
		nop
		ldw r2, r2[1]
	}
	.loc	4 561 14
	mul r1, r2, r1
	.loc	4 561 14
	{
		add r10, r1, r0
		nop
	}
.Ltmp417:
.LBB8_70:
	{
		nop
		ldw r0, sp[24]
	}
	{
		nop
		ldw r0, r0[0]
	}
	{
		nop
		ldw r1, sp[40]
	}
	{
		add r1, r1, r3
		nop
	}
	{
		nop
		ldw r1, r1[2]
	}
	.loc	4 562 14
	mul r0, r1, r0
	.loc	4 562 14
	{
		add r5, r0, r10
		nop
	}
.Ltmp418:
.LBB8_71:
	{
		nop
		ldw r0, sp[26]
	}
	{
		nop
		ldw r1, r0[0]
	}
	{
		nop
		ldw r0, sp[40]
	}
	{
		add r0, r0, r3
		nop
	}
	{
		nop
		ldw r2, r0[3]
	}
	.loc	4 563 14
	mul r1, r2, r1
.Ltmp419:
	.loc	4 563 14
	{
		add r1, r1, r5
		ldw r4, sp[27]
	}
.Ltmp420:
	{
		nop
		ldw r2, r4[11]
	}
	{
		nop
		ldw r11, r0[4]
	}
	.loc	4 564 14
	mul r2, r11, r2
	.loc	4 564 14
	{
		add r1, r1, r2
		ldw r2, r4[10]
	}
	{
		nop
		ldw r11, r0[5]
	}
	.loc	4 565 14
	mul r2, r11, r2
	.loc	4 565 14
	{
		add r1, r1, r2
		ldw r2, r4[9]
	}
	{
		nop
		ldw r11, r0[6]
	}
	.loc	4 566 14
	mul r2, r11, r2
	.loc	4 566 14
	{
		add r1, r1, r2
		ldw r2, r4[8]
	}
	{
		nop
		ldw r11, r0[7]
	}
	.loc	4 567 14
	mul r2, r11, r2
	.loc	4 567 14
	{
		add r1, r1, r2
		ldw r2, r4[7]
	}
	{
		nop
		ldw r11, r0[8]
	}
	.loc	4 568 14
	mul r2, r11, r2
	.loc	4 568 14
	{
		add r1, r1, r2
		ldw r2, r4[6]
	}
	{
		nop
		ldw r11, r0[9]
	}
	.loc	4 569 14
	mul r2, r11, r2
	.loc	4 569 14
	{
		add r1, r1, r2
		ldw r2, r4[5]
	}
	{
		nop
		ldw r11, r0[10]
	}
	.loc	4 570 14
	mul r2, r11, r2
	.loc	4 570 14
	{
		add r1, r1, r2
		ldw r2, r4[4]
	}
	{
		nop
		ldw r0, r0[11]
	}
	.loc	4 571 14
	mul r0, r0, r2
.Ltmp421:
	.loc	4 571 14
	{
		add r0, r1, r0
		ldw r1, r4[3]
	}
.Ltmp422:
	{
		nop
		ldw r2, sp[25]
	}
	{
		add r2, r2, r3
		nop
	}
	ldaw r11, r2[-3]
	{
		nop
		ldw r11, r11[0]
	}
	.loc	4 572 14
	mul r1, r11, r1
	.loc	4 572 14
	{
		add r0, r0, r1
		ldw r1, r4[2]
	}
	{
		sub r11, r2, 8
		nop
	}
	{
		nop
		ldw r11, r11[0]
	}
	.loc	4 573 14
	mul r1, r11, r1
	.loc	4 573 14
	{
		add r0, r0, r1
		ldw r1, r4[1]
	}
	{
		sub r11, r2, 4
		nop
	}
	{
		nop
		ldw r11, r11[0]
	}
	.loc	4 574 14
	mul r1, r11, r1
.Ltmp423:
	.loc	4 574 14
	{
		add r0, r0, r1
		ldw r1, r4[0]
	}
	{
		nop
		ldw r2, r2[0]
	}
	.loc	4 575 14
	mul r1, r2, r1
	.loc	4 575 14
	{
		add r0, r0, r1
		ldw r8, sp[38]
	}
.Ltmp424:
	{
		ldc r11, 0
		ldw r5, sp[29]
	}
.Ltmp425:
	{
		ldc r4, 4
		nop
	}
.Ltmp426:
.LBB8_72:
	{
		add r1, r5, r3
		nop
	}
	{
		nop
		ldw r1, r1[0]
	}
	{
		nop
		ldw r2, sp[51]
	}
	.loc	4 577 4
	ashr r0, r0, r2
	.loc	4 577 4
	{
		sub r0, r1, r0
		ldw r1, sp[52]
	}
	{
		add r1, r1, r3
		nop
	}
	.loc	4 577 4
	{
		sub r8, r8, 1
		stw r0, r1[0]
	}
.Ltmp427:
	.loc	4 541 3
	{
		add r3, r3, 4
		nop
	}
	bt r8, .LBB8_3
	bu .LBB8_73
.Ltmp428:
.LBB8_21:
	{
		ldc r0, 5
		nop
	}
	.loc	4 446 11
.Ltmp429:
	{
		lsu r0, r4, r0
		nop
	}
	bt r0, .LBB8_37
.Ltmp430:
	{
		mkmsk r0, 3
		nop
	}
	.loc	4 447 7
.Ltmp431:
	{
		lsu r0, r4, r0
		nop
	}
	bt r0, .LBB8_30
.Ltmp432:
	.loc	4 448 8
	{
		eq r0, r4, 8
		nop
	}
	.loc	4 448 8
	bf r0, .LBB8_24
.Ltmp433:
	{
		mkmsk r0, 1
		nop
	}
	.loc	4 449 6
.Ltmp434:
	{
		lss r0, r8, r0
		nop
	}
.Ltmp435:
	bt r0, .LBB8_73
.Ltmp436:
	{
		mov r10, r9
		nop
	}
.Ltmp437:
	{
		nop
		ldw r0, r10[7]
	}
	{
		nop
		stw r0, sp[37]
	}
	{
		nop
		ldw r0, r10[6]
	}
	{
		nop
		stw r0, sp[36]
	}
	{
		nop
		ldw r0, r10[5]
	}
	{
		nop
		stw r0, sp[35]
	}
	{
		nop
		ldw r0, r10[4]
	}
	{
		nop
		stw r0, sp[34]
	}
	{
		nop
		ldw r0, r10[3]
	}
	{
		nop
		stw r0, sp[33]
	}
	{
		nop
		ldw r0, r10[2]
	}
	{
		nop
		stw r0, sp[32]
	}
	{
		nop
		ldw r0, r10[1]
	}
	{
		nop
		stw r0, sp[31]
	}
	{
		nop
		ldw r0, r10[0]
	}
	{
		nop
		stw r0, sp[30]
	}
	ldaw r0, r5[-8]
	{
		nop
		ldw r7, r0[0]
	}
	ldaw r0, r5[-7]
	{
		nop
		ldw r10, r0[0]
	}
.Ltmp438:
	ldaw r0, r5[-6]
	{
		nop
		ldw r4, r0[0]
	}
	ldaw r1, r5[-5]
	{
		nop
		ldw r1, r1[0]
	}
	ldaw r2, r5[-4]
	{
		nop
		ldw r2, r2[0]
	}
	ldaw r3, r5[-3]
	.loc	4 456 7
.Ltmp439:
	{
		sub r11, r5, 8
		ldw r9, r3[0]
	}
	{
		nop
		ldw r3, r11[0]
	}
	{
		sub r11, r5, 4
		stw r3, sp[41]
	}
	{
		nop
		ldw r11, r11[0]
	}
.Ltmp440:
.LBB8_29:
	.loc	4 363 14
	{
		mov r0, r10
		nop
	}
	{
		mov r3, r4
		stw r0, sp[40]
	}
	{
		mov r10, r9
		stw r2, sp[39]
	}
	{
		nop
		stw r10, sp[38]
	}
	{
		mov r2, r11
		ldw r9, sp[41]
	}
	{
		nop
		stw r2, sp[41]
	}
	{
		nop
		ldw r11, sp[37]
	}
	.loc	4 451 7
.Ltmp441:
	mul r11, r7, r11
.Ltmp442:
	{
		nop
		ldw r4, sp[36]
	}
	.loc	4 452 7
	mul r4, r0, r4
	.loc	4 452 7
	{
		add r11, r4, r11
		ldw r4, sp[35]
	}
.Ltmp443:
	.loc	4 453 7
	mul r4, r3, r4
	.loc	4 453 7
	{
		add r11, r11, r4
		ldw r4, sp[34]
	}
	.loc	4 454 7
	mul r4, r1, r4
	.loc	4 454 7
	{
		add r11, r11, r4
		ldw r4, sp[33]
	}
	{
		nop
		ldw r0, sp[39]
	}
	.loc	4 455 7
	mul r4, r0, r4
	.loc	4 455 7
	{
		add r11, r11, r4
		ldw r4, sp[32]
	}
	.loc	4 456 7
	mul r4, r10, r4
	.loc	4 456 7
	{
		add r11, r11, r4
		ldw r4, sp[31]
	}
	.loc	4 457 7
	mul r4, r9, r4
	.loc	4 457 7
	{
		add r11, r11, r4
		ldw r4, sp[30]
	}
	.loc	4 458 7
	mul r4, r2, r4
.Ltmp444:
	.loc	4 458 7
	{
		add r4, r11, r4
		ldw r11, r5[0]
	}
.Ltmp445:
	{
		nop
		ldw r7, sp[51]
	}
	.loc	4 459 7
	ashr r4, r4, r7
	.loc	4 459 7
	{
		sub r4, r11, r4
		nop
	}
	.loc	4 459 7
	{
		mov r10, r3
		stw r4, r6[0]
	}
	{
		mov r4, r1
		mov r1, r0
	}
	{
		sub r8, r8, 1
		ldw r2, sp[38]
	}
.Ltmp446:
	.loc	4 449 6
	{
		add r5, r5, 4
		add r6, r6, 4
	}
	{
		nop
		ldw r7, sp[40]
	}
	bt r8, .LBB8_29
	bu .LBB8_73
.Ltmp447:
.LBB8_14:
	.loc	4 413 8
	{
		eq r0, r4, 10
		nop
	}
	.loc	4 413 8
	bf r0, .LBB8_15
.Ltmp448:
	{
		mkmsk r0, 1
		nop
	}
	.loc	4 414 6
.Ltmp449:
	{
		lss r0, r8, r0
		nop
	}
.Ltmp450:
	bt r0, .LBB8_73
.Ltmp451:
	{
		mov r10, r9
		nop
	}
.Ltmp452:
	{
		nop
		ldw r0, r10[9]
	}
	{
		nop
		stw r0, sp[35]
	}
	{
		nop
		ldw r0, r10[8]
	}
	{
		nop
		stw r0, sp[34]
	}
	{
		nop
		ldw r0, r10[7]
	}
	{
		nop
		stw r0, sp[33]
	}
	{
		nop
		ldw r0, r10[6]
	}
	{
		nop
		stw r0, sp[32]
	}
	{
		nop
		ldw r0, r10[5]
	}
	{
		nop
		stw r0, sp[31]
	}
	{
		nop
		ldw r0, r10[4]
	}
	{
		nop
		stw r0, sp[30]
	}
	{
		nop
		ldw r0, r10[3]
	}
	{
		nop
		stw r0, sp[28]
	}
	{
		nop
		ldw r0, r10[2]
	}
	{
		nop
		stw r0, sp[26]
	}
	{
		nop
		ldw r0, r10[1]
	}
	{
		nop
		stw r0, sp[25]
	}
	{
		nop
		ldw r0, r10[0]
	}
	{
		nop
		stw r0, sp[27]
	}
	ldaw r0, r5[-10]
	{
		nop
		ldw r4, r0[0]
	}
	ldaw r0, r5[-9]
	{
		nop
		ldw r0, r0[0]
	}
	{
		nop
		stw r0, sp[39]
	}
	ldaw r0, r5[-8]
	{
		nop
		ldw r0, r0[0]
	}
	{
		nop
		stw r0, sp[40]
	}
	ldaw r0, r5[-7]
	{
		nop
		ldw r2, r0[0]
	}
	ldaw r0, r5[-6]
	{
		nop
		ldw r0, r0[0]
	}
	{
		nop
		stw r0, sp[38]
	}
	ldaw r0, r5[-5]
	{
		nop
		ldw r9, r0[0]
	}
	ldaw r0, r5[-4]
	{
		nop
		ldw r10, r0[0]
	}
.Ltmp453:
	ldaw r0, r5[-3]
	.loc	4 423 7
.Ltmp454:
	{
		sub r0, r5, 8
		ldw r1, r0[0]
	}
	{
		nop
		ldw r0, r0[0]
	}
	{
		sub r0, r5, 4
		stw r0, sp[37]
	}
	{
		nop
		ldw r0, r0[0]
	}
.Ltmp455:
.LBB8_20:
	{
		nop
		stw r6, sp[41]
	}
	{
		nop
		ldw r11, sp[39]
	}
	{
		nop
		ldw r3, sp[40]
	}
	.loc	4 363 14
	{
		mov r7, r3
		stw r3, sp[39]
	}
	{
		nop
		stw r2, sp[40]
	}
	{
		nop
		ldw r2, sp[38]
	}
	{
		nop
		stw r2, sp[36]
	}
	{
		mov r6, r1
		stw r9, sp[38]
	}
	{
		mov r1, r0
		ldw r3, sp[37]
	}
	{
		nop
		stw r1, sp[37]
	}
	{
		nop
		ldw r0, sp[35]
	}
	.loc	4 416 7
.Ltmp456:
	mul r0, r4, r0
.Ltmp457:
	{
		nop
		ldw r2, sp[34]
	}
	.loc	4 417 7
	mul r4, r11, r2
	.loc	4 417 7
	{
		add r0, r4, r0
		ldw r2, sp[33]
	}
.Ltmp458:
	.loc	4 418 7
	mul r4, r7, r2
	.loc	4 418 7
	{
		add r0, r0, r4
		ldw r2, sp[32]
	}
	{
		nop
		ldw r4, sp[40]
	}
	.loc	4 419 7
	mul r4, r4, r2
	.loc	4 419 7
	{
		add r0, r0, r4
		ldw r2, sp[31]
	}
	{
		nop
		ldw r7, sp[36]
	}
	.loc	4 420 7
	mul r4, r7, r2
	.loc	4 420 7
	{
		add r0, r0, r4
		ldw r2, sp[30]
	}
	.loc	4 421 7
	mul r4, r9, r2
	.loc	4 421 7
	{
		add r0, r0, r4
		ldw r2, sp[28]
	}
	.loc	4 422 7
	mul r4, r10, r2
	.loc	4 422 7
	{
		add r0, r0, r4
		ldw r2, sp[26]
	}
	.loc	4 423 7
	mul r4, r6, r2
	.loc	4 423 7
	{
		add r0, r0, r4
		ldw r2, sp[25]
	}
	.loc	4 424 7
	mul r4, r3, r2
	.loc	4 424 7
	{
		add r0, r0, r4
		ldw r2, sp[27]
	}
	.loc	4 425 7
	mul r4, r1, r2
.Ltmp459:
	.loc	4 425 7
	{
		add r4, r0, r4
		ldw r0, r5[0]
	}
.Ltmp460:
	{
		nop
		ldw r2, sp[51]
	}
	.loc	4 426 7
	ashr r4, r4, r2
	{
		mov r2, r7
		mov r9, r10
	}
	{
		mov r10, r6
		ldw r6, sp[41]
	}
	{
		mov r1, r3
		sub r4, r0, r4
	}
	.loc	4 426 7
	{
		sub r8, r8, 1
		stw r4, r6[0]
	}
.Ltmp461:
	.loc	4 414 6
	{
		add r5, r5, 4
		add r6, r6, 4
	}
.Ltmp462:
	.loc	4 363 14
	{
		mov r4, r11
		nop
	}
	bt r8, .LBB8_20
	bu .LBB8_73
.LBB8_37:
.Ltmp463:
	{
		mkmsk r0, 2
		nop
	}
	.loc	4 503 7
.Ltmp464:
	{
		lsu r0, r4, r0
		nop
	}
	bt r0, .LBB8_45
.Ltmp465:
	.loc	4 504 8
	{
		eq r0, r4, 4
		nop
	}
	.loc	4 504 8
	bf r0, .LBB8_39
.Ltmp466:
	{
		mkmsk r0, 1
		nop
	}
	.loc	4 505 6
.Ltmp467:
	{
		lss r0, r8, r0
		nop
	}
.Ltmp468:
	bt r0, .LBB8_73
.Ltmp469:
	{
		mov r10, r9
		nop
	}
.Ltmp470:
	{
		nop
		ldw r0, r10[3]
	}
	{
		nop
		stw r0, sp[41]
	}
	{
		nop
		ldw r1, r10[2]
	}
	{
		nop
		ldw r2, r10[1]
	}
	{
		nop
		ldw r3, r10[0]
	}
	ldaw r11, r5[-4]
	{
		nop
		ldw r10, r11[0]
	}
.Ltmp471:
	ldaw r11, r5[-3]
	.loc	4 508 7
.Ltmp472:
	{
		sub r4, r5, 8
		ldw r11, r11[0]
	}
	.loc	4 509 7
	{
		sub r4, r5, 4
		ldw r0, r4[0]
	}
	{
		nop
		ldw r7, r4[0]
	}
.Ltmp473:
.LBB8_44:
	.loc	4 363 14
	{
		mov r9, r11
		mov r11, r0
	}
	{
		mov r0, r7
		ldw r4, sp[41]
	}
	.loc	4 507 7
.Ltmp474:
	mul r4, r10, r4
.Ltmp475:
	{
		mov r7, r5
		nop
	}
	.loc	4 508 7
	mul r5, r9, r1
	.loc	4 508 7
	{
		add r4, r5, r4
		nop
	}
.Ltmp476:
	.loc	4 509 7
	mul r5, r11, r2
	.loc	4 509 7
	{
		add r4, r4, r5
		nop
	}
	.loc	4 510 7
	mul r5, r0, r3
	.loc	4 510 7
	{
		add r4, r4, r5
		mov r5, r7
	}
	{
		nop
		ldw r7, r5[0]
	}
	{
		nop
		ldw r10, sp[51]
	}
	.loc	4 511 7
	ashr r4, r4, r10
	.loc	4 511 7
	{
		sub r4, r7, r4
		nop
	}
	.loc	4 511 7
	{
		sub r8, r8, 1
		stw r4, r6[0]
	}
.Ltmp477:
	.loc	4 505 6
	{
		add r5, r5, 4
		add r6, r6, 4
	}
.Ltmp478:
	.loc	4 363 14
	{
		mov r10, r9
		nop
	}
	bt r8, .LBB8_44
	bu .LBB8_73
.LBB8_8:
.Ltmp479:
	{
		mkmsk r0, 1
		nop
	}
.Ltmp480:
	.loc	4 395 6
	{
		lss r0, r8, r0
		stw r6, sp[41]
	}
	bt r0, .LBB8_73
.Ltmp481:
	{
		nop
		ldw r0, r9[10]
	}
	{
		nop
		stw r0, sp[34]
	}
	{
		nop
		ldw r0, r9[9]
	}
	{
		nop
		stw r0, sp[33]
	}
	{
		nop
		ldw r0, r9[8]
	}
	{
		nop
		stw r0, sp[32]
	}
	{
		nop
		ldw r0, r9[7]
	}
	{
		nop
		stw r0, sp[31]
	}
	{
		nop
		ldw r0, r9[6]
	}
	{
		nop
		stw r0, sp[30]
	}
	{
		nop
		ldw r0, r9[5]
	}
	{
		nop
		stw r0, sp[28]
	}
	{
		nop
		ldw r0, r9[4]
	}
	{
		nop
		stw r0, sp[26]
	}
	{
		nop
		ldw r0, r9[3]
	}
	{
		nop
		stw r0, sp[25]
	}
	{
		nop
		ldw r0, r9[2]
	}
	{
		nop
		stw r0, sp[24]
	}
	{
		nop
		ldw r0, r9[1]
	}
	{
		nop
		stw r0, sp[23]
	}
	{
		nop
		ldw r0, r9[0]
	}
	{
		nop
		stw r0, sp[27]
	}
	ldaw r0, r5[-11]
	{
		nop
		ldw r2, r0[0]
	}
	ldaw r0, r5[-10]
	{
		nop
		ldw r0, r0[0]
	}
	{
		nop
		stw r0, sp[39]
	}
	ldaw r0, r5[-9]
	{
		nop
		ldw r7, r0[0]
	}
	ldaw r0, r5[-8]
	{
		nop
		ldw r0, r0[0]
	}
	{
		nop
		stw r0, sp[40]
	}
	ldaw r0, r5[-7]
	{
		nop
		ldw r0, r0[0]
	}
	{
		nop
		stw r0, sp[38]
	}
	ldaw r0, r5[-6]
	{
		nop
		ldw r1, r0[0]
	}
	ldaw r0, r5[-5]
	{
		nop
		ldw r3, r0[0]
	}
	ldaw r0, r5[-4]
	.loc	4 404 7
.Ltmp482:
	{
		mov r10, r1
		ldw r4, r0[0]
	}
	ldaw r1, r5[-3]
	.loc	4 405 7
	{
		mov r1, r3
		ldw r11, r1[0]
	}
	{
		sub r3, r5, 8
		nop
	}
	.loc	4 406 7
	{
		mov r3, r4
		ldw r9, r3[0]
	}
.Ltmp483:
	{
		sub r4, r5, 4
		nop
	}
	{
		nop
		ldw r6, r4[0]
	}
.Ltmp484:
.LBB8_10:
	{
		nop
		ldw r0, sp[39]
	}
	{
		nop
		stw r0, sp[37]
	}
	{
		nop
		stw r7, sp[39]
	}
	{
		nop
		ldw r4, sp[40]
	}
	{
		nop
		stw r4, sp[35]
	}
	{
		nop
		ldw r4, sp[38]
	}
	{
		nop
		stw r4, sp[40]
	}
	{
		nop
		stw r10, sp[38]
	}
	{
		nop
		stw r6, sp[36]
	}
	{
		nop
		ldw r4, sp[34]
	}
	.loc	4 397 7
	mul r2, r2, r4
.Ltmp485:
	{
		nop
		ldw r4, sp[33]
	}
	.loc	4 398 7
	mul r4, r0, r4
	.loc	4 398 7
	{
		add r2, r4, r2
		ldw r4, sp[32]
	}
.Ltmp486:
	.loc	4 399 7
	mul r4, r7, r4
	{
		mov r0, r10
		ldw r7, sp[35]
	}
	{
		mov r10, r1
		mov r1, r3
	}
	{
		mov r3, r11
		add r2, r2, r4
	}
	{
		nop
		ldw r4, sp[31]
	}
	.loc	4 400 7
	mul r4, r7, r4
	.loc	4 400 7
	{
		add r2, r2, r4
		ldw r4, sp[30]
	}
	{
		nop
		ldw r11, sp[40]
	}
	.loc	4 401 7
	mul r4, r11, r4
	.loc	4 401 7
	{
		add r2, r2, r4
		ldw r4, sp[28]
	}
	.loc	4 402 7
	mul r4, r0, r4
	.loc	4 402 7
	{
		add r2, r2, r4
		ldw r4, sp[26]
	}
	.loc	4 403 7
	mul r4, r10, r4
	.loc	4 403 7
	{
		add r2, r2, r4
		ldw r4, sp[25]
	}
	.loc	4 404 7
	mul r4, r1, r4
	.loc	4 404 7
	{
		add r2, r2, r4
		ldw r4, sp[24]
	}
	.loc	4 405 7
	mul r4, r3, r4
	.loc	4 405 7
	{
		add r2, r2, r4
		ldw r4, sp[23]
	}
	.loc	4 406 7
	mul r4, r9, r4
	{
		mov r11, r9
		ldw r9, sp[36]
	}
	.loc	4 406 7
	{
		add r2, r2, r4
		ldw r4, sp[27]
	}
	.loc	4 407 7
	mul r4, r9, r4
	.loc	4 407 7
	{
		add r2, r2, r4
		ldw r6, r5[0]
	}
	{
		nop
		ldw r4, sp[51]
	}
	.loc	4 408 7
	ashr r2, r2, r4
	.loc	4 408 7
	{
		sub r2, r6, r2
		ldw r0, sp[41]
	}
	.loc	4 408 7
	{
		sub r8, r8, 1
		stw r2, r0[0]
	}
.Ltmp487:
	.loc	4 395 6
	{
		add r5, r5, 4
		add r0, r0, 4
	}
	{
		nop
		stw r0, sp[41]
	}
	{
		nop
		ldw r2, sp[37]
	}
	bt r8, .LBB8_10
	bu .LBB8_73
.Ltmp488:
.LBB8_30:
	.loc	4 477 8
	{
		eq r0, r4, 6
		nop
	}
	.loc	4 477 8
	bf r0, .LBB8_31
.Ltmp489:
	{
		mkmsk r0, 1
		nop
	}
.Ltmp490:
	.loc	4 478 6
	{
		lss r0, r8, r0
		mov r4, r6
	}
.Ltmp491:
	bt r0, .LBB8_73
.Ltmp492:
	{
		mov r10, r9
		nop
	}
.Ltmp493:
	{
		nop
		ldw r0, r10[5]
	}
	{
		nop
		stw r0, sp[41]
	}
	{
		nop
		ldw r0, r10[4]
	}
	{
		nop
		stw r0, sp[40]
	}
	{
		nop
		ldw r0, r10[3]
	}
	{
		nop
		stw r0, sp[39]
	}
	{
		nop
		ldw r0, r10[2]
	}
	{
		nop
		stw r0, sp[38]
	}
	{
		nop
		ldw r0, r10[1]
	}
	{
		nop
		stw r0, sp[37]
	}
	{
		nop
		ldw r6, r10[0]
	}
	ldaw r0, r5[-6]
	{
		nop
		ldw r1, r0[0]
	}
	ldaw r0, r5[-5]
	{
		nop
		ldw r7, r0[0]
	}
	ldaw r0, r5[-4]
	{
		nop
		ldw r9, r0[0]
	}
	ldaw r0, r5[-3]
	.loc	4 483 7
.Ltmp494:
	{
		sub r0, r5, 8
		ldw r10, r0[0]
	}
.Ltmp495:
	.loc	4 484 7
	{
		sub r0, r5, 4
		ldw r2, r0[0]
	}
	{
		nop
		ldw r0, r0[0]
	}
.Ltmp496:
.LBB8_36:
	.loc	4 363 14
	{
		mov r3, r7
		mov r7, r9
	}
	{
		mov r9, r10
		mov r10, r2
	}
	{
		mov r2, r0
		ldw r0, sp[41]
	}
	.loc	4 480 7
.Ltmp497:
	mul r0, r1, r0
.Ltmp498:
	{
		nop
		ldw r1, sp[40]
	}
	.loc	4 481 7
	mul r1, r3, r1
	.loc	4 481 7
	{
		add r0, r1, r0
		ldw r1, sp[39]
	}
.Ltmp499:
	.loc	4 482 7
	mul r1, r7, r1
	.loc	4 482 7
	{
		add r0, r0, r1
		ldw r1, sp[38]
	}
	.loc	4 483 7
	mul r1, r9, r1
	.loc	4 483 7
	{
		add r0, r0, r1
		ldw r1, sp[37]
	}
	.loc	4 484 7
	mul r1, r10, r1
	.loc	4 484 7
	{
		add r0, r0, r1
		nop
	}
	.loc	4 485 7
	mul r1, r2, r6
.Ltmp500:
	.loc	4 485 7
	{
		add r1, r0, r1
		ldw r0, r5[0]
	}
.Ltmp501:
	{
		nop
		ldw r11, sp[51]
	}
	.loc	4 486 7
	ashr r1, r1, r11
	.loc	4 486 7
	{
		sub r1, r0, r1
		nop
	}
	.loc	4 486 7
	{
		sub r8, r8, 1
		stw r1, r4[0]
	}
.Ltmp502:
	.loc	4 478 6
	{
		add r5, r5, 4
		add r4, r4, 4
	}
.Ltmp503:
	.loc	4 363 14
	{
		mov r1, r3
		nop
	}
	bt r8, .LBB8_36
	bu .LBB8_73
.LBB8_15:
.Ltmp504:
	{
		mkmsk r0, 1
		nop
	}
	.loc	4 430 6
.Ltmp505:
	{
		lss r0, r8, r0
		nop
	}
.Ltmp506:
	bt r0, .LBB8_73
.Ltmp507:
	{
		mov r10, r9
		nop
	}
.Ltmp508:
	{
		nop
		ldw r0, r10[8]
	}
	{
		nop
		stw r0, sp[38]
	}
	{
		nop
		ldw r0, r10[7]
	}
	{
		nop
		stw r0, sp[37]
	}
	{
		nop
		ldw r0, r10[6]
	}
	{
		nop
		stw r0, sp[36]
	}
	{
		nop
		ldw r0, r10[5]
	}
	{
		nop
		stw r0, sp[35]
	}
	{
		nop
		ldw r0, r10[4]
	}
	{
		nop
		stw r0, sp[34]
	}
	{
		nop
		ldw r0, r10[3]
	}
	{
		nop
		stw r0, sp[33]
	}
	{
		nop
		ldw r0, r10[2]
	}
	{
		nop
		stw r0, sp[32]
	}
	{
		nop
		ldw r0, r10[1]
	}
	{
		nop
		stw r0, sp[31]
	}
	{
		nop
		ldw r0, r10[0]
	}
	{
		nop
		stw r0, sp[30]
	}
	ldaw r0, r5[-9]
	{
		nop
		ldw r10, r0[0]
	}
.Ltmp509:
	ldaw r0, r5[-8]
	{
		nop
		ldw r0, r0[0]
	}
	{
		nop
		stw r0, sp[41]
	}
	ldaw r1, r5[-7]
	{
		nop
		ldw r1, r1[0]
	}
	ldaw r2, r5[-6]
	{
		nop
		ldw r2, r2[0]
	}
	ldaw r3, r5[-5]
	{
		nop
		ldw r3, r3[0]
	}
	ldaw r11, r5[-4]
	{
		nop
		ldw r7, r11[0]
	}
	ldaw r4, r5[-3]
	{
		nop
		ldw r0, r4[0]
	}
	{
		sub r4, r5, 8
		stw r0, sp[40]
	}
	.loc	4 439 7
.Ltmp510:
	{
		sub r4, r5, 4
		ldw r0, r4[0]
	}
	{
		nop
		ldw r9, r4[0]
	}
.Ltmp511:
.LBB8_17:
	{
		nop
		ldw r11, sp[41]
	}
	{
		nop
		stw r1, sp[41]
	}
	.loc	4 363 14
	{
		mov r2, r3
		stw r2, sp[39]
	}
	{
		mov r3, r7
		ldw r7, sp[40]
	}
	{
		nop
		stw r0, sp[40]
	}
	{
		nop
		ldw r4, sp[38]
	}
	.loc	4 432 7
.Ltmp512:
	mul r4, r10, r4
.Ltmp513:
	{
		mov r10, r5
		ldw r5, sp[37]
	}
	.loc	4 433 7
	mul r5, r11, r5
	.loc	4 433 7
	{
		add r4, r5, r4
		ldw r5, sp[36]
	}
.Ltmp514:
	.loc	4 434 7
	mul r5, r1, r5
	{
		add r4, r4, r5
		ldw r1, sp[39]
	}
	{
		nop
		ldw r5, sp[35]
	}
	.loc	4 435 7
	mul r5, r1, r5
	.loc	4 435 7
	{
		add r4, r4, r5
		ldw r5, sp[34]
	}
	.loc	4 436 7
	mul r5, r2, r5
	.loc	4 436 7
	{
		add r4, r4, r5
		ldw r5, sp[33]
	}
	.loc	4 437 7
	mul r5, r3, r5
	.loc	4 437 7
	{
		add r4, r4, r5
		ldw r5, sp[32]
	}
	.loc	4 438 7
	mul r5, r7, r5
	.loc	4 438 7
	{
		add r4, r4, r5
		ldw r5, sp[31]
	}
	.loc	4 439 7
	mul r5, r0, r5
	.loc	4 439 7
	{
		add r4, r4, r5
		ldw r5, sp[30]
	}
	.loc	4 440 7
	mul r5, r9, r5
	{
		mov r0, r9
		add r4, r4, r5
	}
	{
		mov r5, r10
		nop
	}
	{
		nop
		ldw r9, r5[0]
	}
	{
		nop
		ldw r10, sp[51]
	}
	.loc	4 441 7
	ashr r4, r4, r10
	.loc	4 441 7
	{
		sub r4, r9, r4
		nop
	}
	.loc	4 441 7
	{
		sub r8, r8, 1
		stw r4, r6[0]
	}
.Ltmp515:
	.loc	4 430 6
	{
		add r5, r5, 4
		add r6, r6, 4
	}
.Ltmp516:
	.loc	4 363 14
	{
		mov r10, r11
		nop
	}
	bt r8, .LBB8_17
	bu .LBB8_73
.LBB8_45:
.Ltmp517:
	.loc	4 525 8
	{
		eq r0, r4, 2
		nop
	}
	.loc	4 525 8
	bf r0, .LBB8_46
.Ltmp518:
	{
		mkmsk r0, 1
		nop
	}
	.loc	4 526 6
.Ltmp519:
	{
		lss r0, r8, r0
		nop
	}
	bt r0, .LBB8_73
.Ltmp520:
	{
		mov r10, r9
		nop
	}
.Ltmp521:
	{
		nop
		ldw r0, r10[1]
	}
	.loc	4 529 7
.Ltmp522:
	{
		sub r2, r5, 8
		ldw r1, r10[0]
	}
	.loc	4 528 7
	{
		sub r2, r5, 4
		ldw r3, r2[0]
	}
	{
		nop
		ldw r2, r2[0]
	}
.Ltmp523:
.LBB8_51:
	.loc	4 363 14
	{
		mov r11, r2
		nop
	}
	.loc	4 528 7
.Ltmp524:
	mul r2, r3, r0
.Ltmp525:
	.loc	4 529 7
	mul r3, r11, r1
.Ltmp526:
	.loc	4 529 7
	{
		add r3, r3, r2
		ldw r2, r5[0]
	}
.Ltmp527:
	.loc	4 530 7
	ashr r3, r3, r7
	.loc	4 530 7
	{
		sub r3, r2, r3
		nop
	}
	.loc	4 530 7
	{
		sub r8, r8, 1
		stw r3, r6[0]
	}
.Ltmp528:
	.loc	4 526 6
	{
		add r5, r5, 4
		add r6, r6, 4
	}
.Ltmp529:
	.loc	4 363 14
	{
		mov r3, r11
		nop
	}
	bt r8, .LBB8_51
	bu .LBB8_73
.Ltmp530:
.LBB8_24:
	{
		mkmsk r0, 1
		nop
	}
.Ltmp531:
	.loc	4 463 6
	{
		lss r0, r8, r0
		mov r4, r6
	}
.Ltmp532:
	bt r0, .LBB8_73
.Ltmp533:
	{
		mov r10, r9
		nop
	}
.Ltmp534:
	{
		nop
		ldw r0, r10[6]
	}
	{
		nop
		stw r0, sp[41]
	}
	{
		nop
		ldw r0, r10[5]
	}
	{
		nop
		stw r0, sp[40]
	}
	{
		nop
		ldw r0, r10[4]
	}
	{
		nop
		stw r0, sp[39]
	}
	{
		nop
		ldw r0, r10[3]
	}
	{
		nop
		stw r0, sp[38]
	}
	{
		nop
		ldw r0, r10[2]
	}
	{
		nop
		stw r0, sp[37]
	}
	{
		nop
		ldw r0, r10[1]
	}
	{
		nop
		stw r0, sp[36]
	}
	{
		nop
		ldw r0, r10[0]
	}
	{
		nop
		stw r0, sp[35]
	}
	ldaw r0, r5[-7]
	{
		nop
		ldw r3, r0[0]
	}
	ldaw r0, r5[-6]
	{
		nop
		ldw r9, r0[0]
	}
	ldaw r0, r5[-5]
	{
		nop
		ldw r10, r0[0]
	}
.Ltmp535:
	ldaw r0, r5[-4]
	{
		nop
		ldw r0, r0[0]
	}
	ldaw r1, r5[-3]
	.loc	4 469 7
.Ltmp536:
	{
		sub r2, r5, 8
		ldw r1, r1[0]
	}
	.loc	4 470 7
	{
		sub r2, r5, 4
		ldw r11, r2[0]
	}
	{
		nop
		ldw r2, r2[0]
	}
.Ltmp537:
.LBB8_26:
	.loc	4 363 14
	{
		mov r7, r9
		mov r9, r10
	}
	{
		mov r10, r0
		mov r0, r1
	}
	{
		mov r1, r11
		mov r11, r2
	}
	{
		nop
		ldw r2, sp[41]
	}
	.loc	4 465 7
.Ltmp538:
	mul r2, r3, r2
.Ltmp539:
	{
		nop
		ldw r3, sp[40]
	}
	.loc	4 466 7
	mul r3, r7, r3
	.loc	4 466 7
	{
		add r2, r3, r2
		ldw r3, sp[39]
	}
.Ltmp540:
	.loc	4 467 7
	mul r3, r9, r3
	.loc	4 467 7
	{
		add r2, r2, r3
		ldw r3, sp[38]
	}
	.loc	4 468 7
	mul r3, r10, r3
	.loc	4 468 7
	{
		add r2, r2, r3
		ldw r3, sp[37]
	}
	.loc	4 469 7
	mul r3, r0, r3
	.loc	4 469 7
	{
		add r2, r2, r3
		ldw r3, sp[36]
	}
	.loc	4 470 7
	mul r3, r1, r3
	.loc	4 470 7
	{
		add r2, r2, r3
		ldw r3, sp[35]
	}
	.loc	4 471 7
	mul r3, r11, r3
.Ltmp541:
	.loc	4 471 7
	{
		add r3, r2, r3
		ldw r2, r5[0]
	}
.Ltmp542:
	{
		nop
		ldw r6, sp[51]
	}
	.loc	4 472 7
	ashr r3, r3, r6
	.loc	4 472 7
	{
		sub r3, r2, r3
		nop
	}
	.loc	4 472 7
	{
		sub r8, r8, 1
		stw r3, r4[0]
	}
.Ltmp543:
	.loc	4 463 6
	{
		add r5, r5, 4
		add r4, r4, 4
	}
.Ltmp544:
	.loc	4 363 14
	{
		mov r3, r7
		nop
	}
	bt r8, .LBB8_26
	bu .LBB8_73
.LBB8_39:
.Ltmp545:
	{
		mkmsk r0, 1
		nop
	}
.Ltmp546:
	.loc	4 515 6
	{
		lss r0, r8, r0
		mov r10, r7
	}
.Ltmp547:
	{
		mov r7, r6
		nop
	}
.Ltmp548:
	bt r0, .LBB8_73
.Ltmp549:
	{
		nop
		ldw r0, r9[2]
	}
	{
		nop
		ldw r1, r9[1]
	}
	{
		nop
		ldw r2, r9[0]
	}
	ldaw r3, r5[-3]
	.loc	4 517 7
.Ltmp550:
	{
		sub r3, r5, 8
		ldw r6, r3[0]
	}
	.loc	4 518 7
	{
		sub r11, r5, 4
		ldw r3, r3[0]
	}
	{
		nop
		ldw r11, r11[0]
	}
.Ltmp551:
.LBB8_41:
	.loc	4 363 14
	{
		mov r4, r3
		mov r3, r11
	}
	.loc	4 517 7
.Ltmp552:
	mul r11, r6, r0
.Ltmp553:
	{
		mov r6, r5
		nop
	}
	.loc	4 518 7
	mul r5, r4, r1
	.loc	4 518 7
	{
		add r11, r5, r11
		nop
	}
.Ltmp554:
	.loc	4 519 7
	mul r5, r3, r2
.Ltmp555:
	.loc	4 519 7
	{
		add r5, r11, r5
		ldw r11, r6[0]
	}
.Ltmp556:
	.loc	4 520 7
	ashr r5, r5, r10
	.loc	4 520 7
	{
		sub r5, r11, r5
		nop
	}
	.loc	4 520 7
	{
		mov r5, r6
		stw r5, r7[0]
	}
.Ltmp557:
	.loc	4 515 6
	{
		sub r8, r8, 1
		add r5, r5, 4
	}
	.loc	4 515 6
	{
		add r7, r7, 4
		mov r6, r4
	}
	bt r8, .LBB8_41
	bu .LBB8_73
.Ltmp558:
.LBB8_31:
	{
		mkmsk r0, 1
		nop
	}
.Ltmp559:
	.loc	4 490 6
	{
		lss r0, r8, r0
		mov r4, r7
	}
.Ltmp560:
	bt r0, .LBB8_73
.Ltmp561:
	{
		mov r10, r9
		nop
	}
.Ltmp562:
	{
		nop
		ldw r0, r10[4]
	}
	{
		nop
		stw r0, sp[41]
	}
	{
		nop
		ldw r0, r10[3]
	}
	{
		nop
		stw r0, sp[40]
	}
	{
		nop
		ldw r0, r10[2]
	}
	{
		nop
		stw r0, sp[39]
	}
	{
		nop
		ldw r3, r10[1]
	}
	{
		nop
		ldw r11, r10[0]
	}
	ldaw r0, r5[-5]
	{
		nop
		ldw r0, r0[0]
	}
	ldaw r1, r5[-4]
	{
		nop
		ldw r2, r1[0]
	}
	ldaw r1, r5[-3]
	.loc	4 494 7
.Ltmp563:
	{
		sub r1, r5, 8
		ldw r7, r1[0]
	}
	.loc	4 495 7
	{
		sub r1, r5, 4
		ldw r9, r1[0]
	}
	{
		nop
		ldw r10, r1[0]
	}
.Ltmp564:
.LBB8_33:
	.loc	4 363 14
	{
		mov r1, r2
		mov r2, r7
	}
	{
		mov r7, r9
		mov r9, r10
	}
	{
		nop
		ldw r10, sp[41]
	}
	.loc	4 492 7
.Ltmp565:
	mul r0, r0, r10
.Ltmp566:
	{
		mov r10, r4
		ldw r4, sp[40]
	}
.Ltmp567:
	.loc	4 493 7
	mul r4, r1, r4
	.loc	4 493 7
	{
		add r0, r4, r0
		ldw r4, sp[39]
	}
.Ltmp568:
	.loc	4 494 7
	mul r4, r2, r4
	.loc	4 494 7
	{
		add r0, r0, r4
		nop
	}
	.loc	4 495 7
	mul r4, r7, r3
	.loc	4 495 7
	{
		add r0, r0, r4
		nop
	}
	.loc	4 496 7
	mul r4, r9, r11
.Ltmp569:
	.loc	4 496 7
	{
		add r0, r0, r4
		mov r4, r10
	}
.Ltmp570:
	{
		nop
		ldw r10, r5[0]
	}
	.loc	4 497 7
	ashr r0, r0, r4
	.loc	4 497 7
	{
		sub r0, r10, r0
		nop
	}
	.loc	4 497 7
	{
		sub r8, r8, 1
		stw r0, r6[0]
	}
.Ltmp571:
	.loc	4 490 6
	{
		add r5, r5, 4
		add r6, r6, 4
	}
.Ltmp572:
	.loc	4 363 14
	{
		mov r0, r1
		nop
	}
	bt r8, .LBB8_33
	bu .LBB8_73
.LBB8_46:
.Ltmp573:
	{
		mkmsk r0, 1
		nop
	}
	.loc	4 534 6
.Ltmp574:
	{
		lss r0, r8, r0
		nop
	}
	bt r0, .LBB8_73
.Ltmp575:
	.loc	4 535 7
	{
		sub r1, r5, 4
		ldw r0, r9[0]
	}
	{
		nop
		ldw r1, r1[0]
	}
.Ltmp576:
.LBB8_48:
	{
		nop
		ldw r2, r5[0]
	}
	.loc	4 535 7
	mul r1, r1, r0
	.loc	4 535 7
	ashr r1, r1, r7
	.loc	4 535 7
	{
		sub r1, r2, r1
		nop
	}
	.loc	4 535 7
	{
		sub r8, r8, 1
		stw r1, r6[0]
	}
	.loc	4 534 6
	{
		add r5, r5, 4
		add r6, r6, 4
	}
	.loc	4 535 7
	{
		mov r1, r2
		nop
	}
	bt r8, .LBB8_48
.Ltmp577:
.LBB8_73:
	{
		nop
		ldw r10, sp[48]
	}
	{
		nop
		ldw r8, sp[46]
	}
	{
		nop
		ldw r9, sp[47]
	}
	{
		nop
		ldw r6, sp[44]
	}
	{
		nop
		ldw r7, sp[45]
	}
	{
		nop
		ldw r4, sp[42]
	}
	{
		nop
		ldw r5, sp[43]
	}
	{
		nop
		retsp 50
	}
	.loc	4 580 1
	# RETURN_REG_HOLDER
.Ltmp578:
	.cc_bottom FLAC__lpc_compute_residual_from_qlp_coefficients.function
	.set	FLAC__lpc_compute_residual_from_qlp_coefficients.nstackwords,(assert.nstackwords + 50)
	.globl	FLAC__lpc_compute_residual_from_qlp_coefficients.nstackwords
	.set	FLAC__lpc_compute_residual_from_qlp_coefficients.maxcores,1
	.globl	FLAC__lpc_compute_residual_from_qlp_coefficients.maxcores
	.set	FLAC__lpc_compute_residual_from_qlp_coefficients.maxtimers,0
	.globl	FLAC__lpc_compute_residual_from_qlp_coefficients.maxtimers
	.set	FLAC__lpc_compute_residual_from_qlp_coefficients.maxchanends,0
	.globl	FLAC__lpc_compute_residual_from_qlp_coefficients.maxchanends
.Ltmp579:
	.size	FLAC__lpc_compute_residual_from_qlp_coefficients, .Ltmp579-FLAC__lpc_compute_residual_from_qlp_coefficients
.Lfunc_end8:
	.cfi_endproc

	.section	.cp.rodata.cst4,"aMc",@progbits,4
	.cc_top .LCPI9_0.data,.LCPI9_0
	.align	4
	.type	.LCPI9_0,@object
	.size	.LCPI9_0, 4
.LCPI9_0:
	.long	4294967232
	.cc_bottom .LCPI9_0.data
	.cc_top .LCPI9_1.data,.LCPI9_1
	.align	4
	.type	.LCPI9_1,@object
	.size	.LCPI9_1, 4
.LCPI9_1:
	.long	4294967228
	.cc_bottom .LCPI9_1.data
	.cc_top .LCPI9_2.data,.LCPI9_2
	.align	4
	.type	.LCPI9_2,@object
	.size	.LCPI9_2, 4
.LCPI9_2:
	.long	4294967224
	.cc_bottom .LCPI9_2.data
	.cc_top .LCPI9_3.data,.LCPI9_3
	.align	4
	.type	.LCPI9_3,@object
	.size	.LCPI9_3, 4
.LCPI9_3:
	.long	4294967220
	.cc_bottom .LCPI9_3.data
	.cc_top .LCPI9_4.data,.LCPI9_4
	.align	4
	.type	.LCPI9_4,@object
	.size	.LCPI9_4, 4
.LCPI9_4:
	.long	4294967216
	.cc_bottom .LCPI9_4.data
	.cc_top .LCPI9_5.data,.LCPI9_5
	.align	4
	.type	.LCPI9_5,@object
	.size	.LCPI9_5, 4
.LCPI9_5:
	.long	4294967168
	.cc_bottom .LCPI9_5.data
	.cc_top .LCPI9_6.data,.LCPI9_6
	.align	4
	.type	.LCPI9_6,@object
	.size	.LCPI9_6, 4
.LCPI9_6:
	.long	4294967283
	.cc_bottom .LCPI9_6.data
	.cc_top .LCPI9_7.data,.LCPI9_7
	.align	4
	.type	.LCPI9_7,@object
	.size	.LCPI9_7, 4
.LCPI9_7:
	.long	4294967248
	.cc_bottom .LCPI9_7.data
	.text
	.globl	FLAC__lpc_compute_residual_from_qlp_coefficients_wide
	.align	4
	.type	FLAC__lpc_compute_residual_from_qlp_coefficients_wide,@function
	.cc_top FLAC__lpc_compute_residual_from_qlp_coefficients_wide.function,FLAC__lpc_compute_residual_from_qlp_coefficients_wide
FLAC__lpc_compute_residual_from_qlp_coefficients_wide:
.Lfunc_begin9:
	.loc	4 611 0
	.cfi_startproc
	.issue_mode dual
	{
		nop
		dualentsp 40
	}
.Ltmp580:
	.cfi_def_cfa_offset 160
.Ltmp581:
	.cfi_offset 15, 0
	{
		nop
		stw r4, sp[32]
	}
	{
		nop
		stw r5, sp[33]
	}
.Ltmp582:
	.cfi_offset 4, -32
.Ltmp583:
	.cfi_offset 5, -28
	{
		nop
		stw r6, sp[34]
	}
	{
		nop
		stw r7, sp[35]
	}
.Ltmp584:
	.cfi_offset 6, -24
.Ltmp585:
	.cfi_offset 7, -20
	{
		nop
		stw r8, sp[36]
	}
	{
		nop
		stw r9, sp[37]
	}
.Ltmp586:
	.cfi_offset 8, -16
.Ltmp587:
	.cfi_offset 9, -12
.Ltmp588:
	.cfi_offset 10, -8
.Ltmp589:
	{
		mov r8, r3
		stw r10, sp[38]
	}
.Ltmp590:
	{
		mov r7, r2
		mov r4, r1
	}
.Ltmp591:
	{
		mov r5, r0
		ldw r10, sp[42]
	}
.Ltmp592:
	{
		eq r0, r8, 0
		ldw r9, sp[41]
	}
.Ltmp593:
	.loc	4 615 2 prologue_end
	{
		eq r0, r0, 0
		nop
	}
	.loc	4 615 2
	bl assert
	{
		ldc r0, 33
		nop
	}
	.loc	4 616 2
	{
		lsu r0, r8, r0
		nop
	}
	.loc	4 616 2
	bl assert
	{
		ldc r0, 13
		nop
	}
	.loc	4 623 5
.Ltmp594:
	{
		lsu r0, r8, r0
		nop
	}
	.loc	4 623 5
	bf r0, .LBB9_1
.Ltmp595:
	{
		ldc r0, 9
		nop
	}
	.loc	4 624 6
.Ltmp596:
	{
		lsu r0, r8, r0
		nop
	}
	bt r0, .LBB9_21
.Ltmp597:
	{
		ldc r0, 11
		nop
	}
	.loc	4 625 7
.Ltmp598:
	{
		lsu r0, r8, r0
		nop
	}
	bt r0, .LBB9_14
.Ltmp599:
	{
		ldc r0, 12
		nop
	}
	.loc	4 626 8
.Ltmp600:
	{
		eq r0, r8, r0
		nop
	}
	.loc	4 626 8
	bf r0, .LBB9_8
.Ltmp601:
	{
		mkmsk r0, 1
		nop
	}
.Ltmp602:
	.loc	4 627 6
	{
		lss r0, r4, r0
		stw r10, sp[30]
	}
	bt r0, .LBB9_74
.Ltmp603:
	{
		nop
		ldw r0, r7[11]
	}
	{
		nop
		stw r0, sp[18]
	}
	{
		nop
		ldw r0, r7[10]
	}
	{
		nop
		stw r0, sp[17]
	}
	{
		nop
		ldw r0, r7[9]
	}
	{
		nop
		stw r0, sp[16]
	}
	{
		nop
		ldw r0, r7[8]
	}
	{
		nop
		stw r0, sp[15]
	}
	{
		nop
		ldw r0, r7[7]
	}
	{
		nop
		stw r0, sp[14]
	}
	{
		nop
		ldw r0, r7[6]
	}
	{
		nop
		stw r0, sp[13]
	}
	{
		nop
		ldw r0, r7[5]
	}
	{
		nop
		stw r0, sp[12]
	}
	{
		nop
		ldw r0, r7[4]
	}
	{
		nop
		stw r0, sp[11]
	}
	{
		nop
		ldw r0, r7[3]
	}
	{
		nop
		stw r0, sp[10]
	}
	{
		nop
		ldw r0, r7[2]
	}
	{
		nop
		stw r0, sp[9]
	}
	{
		nop
		ldw r0, r7[1]
	}
	{
		nop
		stw r0, sp[8]
	}
	{
		nop
		ldw r0, r7[0]
	}
	{
		nop
		stw r0, sp[7]
	}
	ldw r0, cp[.LCPI9_7]
	{
		add r0, r5, r0
		stw r5, sp[29]
	}
	{
		nop
		ldw r3, r0[0]
	}
	ldaw r0, r5[-11]
	{
		nop
		ldw r1, r0[0]
	}
	ldaw r0, r5[-10]
	{
		nop
		ldw r0, r0[0]
	}
	{
		nop
		stw r0, sp[31]
	}
	ldaw r0, r5[-9]
	{
		nop
		ldw r0, r0[0]
	}
	{
		nop
		stw r0, sp[28]
	}
	ldaw r0, r5[-8]
	{
		nop
		ldw r0, r0[0]
	}
	{
		nop
		stw r0, sp[26]
	}
	ldaw r0, r5[-7]
	{
		nop
		ldw r0, r0[0]
	}
	{
		nop
		stw r0, sp[25]
	}
	ldaw r0, r5[-6]
	{
		nop
		ldw r10, r0[0]
	}
	ldaw r0, r5[-5]
	{
		nop
		ldw r0, r0[0]
	}
	{
		nop
		stw r0, sp[27]
	}
	ldaw r0, r5[-4]
	{
		nop
		ldw r8, r0[0]
	}
	ldaw r0, r5[-3]
	{
		nop
		ldw r0, r0[0]
	}
	{
		sub r0, r5, 8
		stw r0, sp[24]
	}
	{
		nop
		ldw r0, r0[0]
	}
.Ltmp604:
	{
		sub r0, r5, 4
		stw r0, sp[23]
	}
	.loc	4 640 7
.Ltmp605:
	{
		ldc r11, 0
		ldw r9, r0[0]
	}
.Ltmp606:
.LBB9_13:
	.loc	4 613 14
	{
		mov r2, r1
		nop
	}
	{
		nop
		stw r2, sp[22]
	}
	{
		nop
		ldw r6, sp[31]
	}
	{
		nop
		stw r6, sp[21]
	}
	{
		nop
		ldw r0, sp[28]
	}
	{
		nop
		stw r0, sp[31]
	}
	{
		nop
		ldw r0, sp[26]
	}
	{
		nop
		stw r0, sp[28]
	}
	{
		nop
		ldw r7, sp[25]
	}
	{
		nop
		stw r7, sp[26]
	}
	{
		nop
		stw r10, sp[25]
	}
	{
		nop
		ldw r0, sp[27]
	}
	{
		nop
		stw r0, sp[19]
	}
	{
		nop
		stw r8, sp[27]
	}
	{
		nop
		ldw r0, sp[24]
	}
	{
		nop
		stw r0, sp[20]
	}
	{
		nop
		ldw r8, sp[23]
	}
	{
		nop
		stw r8, sp[24]
	}
	{
		mov r5, r11
		stw r9, sp[23]
	}
	.loc	4 629 7
.Ltmp607:
	{
		mov r1, r5
		mov r0, r5
	}
	{
		nop
		ldw r11, sp[18]
	}
	maccs r1, r0, r3, r11
	{
		nop
		ldw r3, sp[17]
	}
	.loc	4 630 7
	maccs r1, r0, r2, r3
	{
		nop
		ldw r3, sp[16]
	}
	.loc	4 631 7
	maccs r1, r0, r6, r3
	{
		nop
		ldw r3, sp[15]
	}
	{
		nop
		ldw r2, sp[31]
	}
	.loc	4 632 7
	maccs r1, r0, r2, r3
	{
		nop
		ldw r3, sp[14]
	}
	{
		nop
		ldw r2, sp[28]
	}
	.loc	4 633 7
	maccs r1, r0, r2, r3
	{
		nop
		ldw r3, sp[13]
	}
	.loc	4 634 7
	maccs r1, r0, r7, r3
	{
		nop
		ldw r3, sp[12]
	}
	.loc	4 635 7
	maccs r1, r0, r10, r3
	{
		nop
		ldw r10, sp[19]
	}
	{
		nop
		ldw r3, sp[11]
	}
	.loc	4 636 7
	maccs r1, r0, r10, r3
	{
		nop
		ldw r3, sp[10]
	}
	{
		nop
		ldw r2, sp[27]
	}
	.loc	4 637 7
	maccs r1, r0, r2, r3
	{
		nop
		ldw r3, sp[9]
	}
	{
		nop
		ldw r6, sp[20]
	}
	.loc	4 638 7
	maccs r1, r0, r6, r3
	{
		nop
		ldw r3, sp[8]
	}
	.loc	4 639 7
	maccs r1, r0, r8, r3
	{
		nop
		ldw r3, sp[7]
	}
	.loc	4 640 7
	maccs r1, r0, r9, r3
	{
		nop
		ldw r7, sp[29]
	}
	{
		nop
		ldw r9, r7[0]
	}
	{
		nop
		ldw r2, sp[41]
	}
.Ltmp608:
	.loc	4 641 7
	bl __ashrdi3
.Ltmp609:
	{
		mov r8, r6
		nop
	}
.Ltmp610:
	.loc	4 641 7
	lsub r1, r0, r9, r0, r5
	{
		mov r11, r5
		ldw r1, sp[21]
	}
	{
		nop
		ldw r3, sp[30]
	}
	.loc	4 641 7
	{
		sub r4, r4, 1
		stw r0, r3[0]
	}
.Ltmp611:
	.loc	4 627 6
	{
		add r7, r7, 4
		nop
	}
	{
		add r3, r3, 4
		stw r7, sp[29]
	}
	{
		nop
		stw r3, sp[30]
	}
	{
		nop
		ldw r3, sp[22]
	}
	bt r4, .LBB9_13
	bu .LBB9_74
.Ltmp612:
.LBB9_1:
	{
		mkmsk r0, 1
		nop
	}
.Ltmp613:
	.loc	4 791 3
	{
		lss r0, r4, r0
		mov r6, r9
	}
.Ltmp614:
	{
		mov r9, r5
		nop
	}
.Ltmp615:
	bt r0, .LBB9_74
.Ltmp616:
	ldc r0, 124
	.loc	4 794 14
.Ltmp617:
	{
		add r0, r7, r0
		nop
	}
	{
		nop
		stw r0, sp[2]
	}
	ldc r0, 120
	.loc	4 795 14
	{
		add r0, r7, r0
		nop
	}
	{
		nop
		stw r0, sp[3]
	}
	ldc r0, 116
	.loc	4 796 14
	{
		add r0, r7, r0
		nop
	}
	{
		nop
		stw r0, sp[4]
	}
	ldc r0, 112
	.loc	4 797 14
	{
		add r0, r7, r0
		nop
	}
	{
		nop
		stw r0, sp[5]
	}
	ldc r0, 108
	.loc	4 798 14
	{
		add r0, r7, r0
		nop
	}
	{
		nop
		stw r0, sp[6]
	}
	ldc r0, 104
	.loc	4 799 14
	{
		add r0, r7, r0
		nop
	}
	{
		nop
		stw r0, sp[7]
	}
	ldc r0, 100
	.loc	4 800 14
	{
		add r0, r7, r0
		nop
	}
	{
		nop
		stw r0, sp[8]
	}
	ldc r0, 96
	.loc	4 801 14
	{
		add r0, r7, r0
		nop
	}
	{
		nop
		stw r0, sp[9]
	}
	ldc r0, 92
	.loc	4 802 14
	{
		add r0, r7, r0
		nop
	}
	{
		nop
		stw r0, sp[10]
	}
	ldc r0, 88
	.loc	4 803 14
	{
		add r0, r7, r0
		nop
	}
	{
		nop
		stw r0, sp[11]
	}
	ldc r0, 84
	.loc	4 804 14
	{
		add r0, r7, r0
		nop
	}
	{
		nop
		stw r0, sp[12]
	}
	ldc r0, 80
	.loc	4 805 14
	{
		add r0, r7, r0
		nop
	}
	{
		nop
		stw r0, sp[13]
	}
	ldc r0, 76
	.loc	4 806 14
	{
		add r0, r7, r0
		nop
	}
	{
		nop
		stw r0, sp[15]
	}
	ldc r0, 72
	.loc	4 807 14
	{
		add r0, r7, r0
		nop
	}
	{
		nop
		stw r0, sp[17]
	}
	ldc r0, 68
	.loc	4 808 14
	{
		add r0, r7, r0
		nop
	}
	{
		nop
		stw r0, sp[19]
	}
	ldc r0, 64
	.loc	4 809 14
	{
		add r0, r7, r0
		nop
	}
	{
		ldc r0, 60
		stw r0, sp[21]
	}
	.loc	4 810 14
	{
		add r0, r7, r0
		nop
	}
	{
		ldc r0, 56
		stw r0, sp[22]
	}
	.loc	4 811 14
	{
		add r0, r7, r0
		nop
	}
	{
		ldc r0, 52
		stw r0, sp[23]
	}
	.loc	4 812 14
	{
		add r0, r7, r0
		nop
	}
	{
		ldc r0, 48
		stw r0, sp[24]
	}
	.loc	4 813 14
	{
		add r0, r7, r0
		nop
	}
	{
		sub r0, r9, 4
		stw r0, sp[28]
	}
	{
		nop
		stw r0, sp[27]
	}
	ldw r0, cp[.LCPI9_0]
	{
		add r0, r9, r0
		nop
	}
	{
		nop
		stw r0, sp[26]
	}
	ldw r0, cp[.LCPI9_1]
	{
		add r0, r9, r0
		nop
	}
	{
		nop
		stw r0, sp[20]
	}
	ldw r0, cp[.LCPI9_2]
	{
		add r0, r9, r0
		nop
	}
	{
		nop
		stw r0, sp[18]
	}
	ldw r0, cp[.LCPI9_3]
	{
		add r0, r9, r0
		nop
	}
	{
		nop
		stw r0, sp[16]
	}
	ldw r0, cp[.LCPI9_4]
	{
		add r0, r9, r0
		nop
	}
	{
		nop
		stw r0, sp[14]
	}
	ldw r0, cp[.LCPI9_5]
	{
		add r0, r9, r0
		nop
	}
	{
		ldc r2, 0
		stw r0, sp[25]
	}
	ldw r0, cp[.LCPI9_6]
.Ltmp618:
	.loc	4 793 4
	{
		add r3, r8, r0
		nop
	}
	{
		mov r8, r2
		stw r3, sp[30]
	}
.Ltmp619:
.LBB9_3:
	{
		mov r5, r9
		mov r0, r2
	}
.Ltmp620:
	{
		shr r1, r3, 2
		ldc r11, 4
	}
	{
		lsu r1, r11, r1
		nop
	}
	bf r1, .LBB9_52
.Ltmp621:
	{
		mov r1, r2
		stw r4, sp[31]
	}
.Ltmp622:
	{
		mov r9, r5
		mov r4, r2
	}
.Ltmp623:
	bu .LBB9_73
.Ltmp624:
.LBB9_52:
	{
		mov r1, r2
		stw r4, sp[31]
	}
	{
		nop
		ldw r11, sp[26]
	}
	{
		nop
		ldw r9, sp[25]
	}

	.xtabranch .Ljumptable1+4,.Ljumptable1+8,.Ljumptable1+12,.Ljumptable1+16,.Ljumptable1+20,.Ljumptable1+24,.Ljumptable1+28,.Ljumptable1+32,.Ljumptable1+36,.Ljumptable1+40,.Ljumptable1+44,.Ljumptable1+48,.Ljumptable1+52,.Ljumptable1+56,.Ljumptable1+60,.Ljumptable1+64,.Ljumptable1+68,.Ljumptable1+72,.Ljumptable1+76,.Ljumptable1+80
.Ljumptable1:
		
	{
		nop
		bru r3
	}
	.jmptable32 .LBB9_72,.LBB9_71,.LBB9_70,.LBB9_69,.LBB9_68,.LBB9_67,.LBB9_66,.LBB9_65,.LBB9_64,.LBB9_63,.LBB9_62,.LBB9_61,.LBB9_60,.LBB9_59,.LBB9_58,.LBB9_57,.LBB9_56,.LBB9_55,.LBB9_54,.LBB9_53
.Ltmp625:
.LBB9_53:
	{
		nop
		ldw r0, sp[2]
	}
	.loc	4 794 14
.Ltmp626:
	{
		add r0, r9, r8
		ldw r2, r0[0]
	}
	.loc	4 794 14
	{
		ldc r0, 0
		ldw r3, r0[0]
	}
	.loc	4 794 14
	{
		mov r1, r0
		nop
	}
	maccs r1, r0, r3, r2
.Ltmp627:
.LBB9_54:
	{
		nop
		ldw r2, sp[3]
	}
	.loc	4 795 14
	{
		add r3, r9, r8
		ldw r2, r2[0]
	}
	{
		nop
		ldw r3, r3[1]
	}
	.loc	4 795 14
	maccs r1, r0, r3, r2
.Ltmp628:
.LBB9_55:
	{
		nop
		ldw r2, sp[4]
	}
	.loc	4 796 14
	{
		add r3, r9, r8
		ldw r2, r2[0]
	}
	{
		nop
		ldw r3, r3[2]
	}
	.loc	4 796 14
	maccs r1, r0, r3, r2
.Ltmp629:
.LBB9_56:
	{
		nop
		ldw r2, sp[5]
	}
	.loc	4 797 14
	{
		add r3, r9, r8
		ldw r2, r2[0]
	}
	{
		nop
		ldw r3, r3[3]
	}
	.loc	4 797 14
	maccs r1, r0, r3, r2
.Ltmp630:
.LBB9_57:
	{
		nop
		ldw r2, sp[6]
	}
	.loc	4 798 14
	{
		add r3, r9, r8
		ldw r2, r2[0]
	}
	{
		nop
		ldw r3, r3[4]
	}
	.loc	4 798 14
	maccs r1, r0, r3, r2
.Ltmp631:
.LBB9_58:
	{
		nop
		ldw r2, sp[7]
	}
	.loc	4 799 14
	{
		add r3, r9, r8
		ldw r2, r2[0]
	}
	{
		nop
		ldw r3, r3[5]
	}
	.loc	4 799 14
	maccs r1, r0, r3, r2
.Ltmp632:
.LBB9_59:
	{
		nop
		ldw r2, sp[8]
	}
	.loc	4 800 14
	{
		add r3, r9, r8
		ldw r2, r2[0]
	}
	{
		nop
		ldw r3, r3[6]
	}
	.loc	4 800 14
	maccs r1, r0, r3, r2
.Ltmp633:
.LBB9_60:
	{
		nop
		ldw r2, sp[9]
	}
	.loc	4 801 14
	{
		add r3, r9, r8
		ldw r2, r2[0]
	}
	{
		nop
		ldw r3, r3[7]
	}
	.loc	4 801 14
	maccs r1, r0, r3, r2
.Ltmp634:
.LBB9_61:
	{
		nop
		ldw r2, sp[10]
	}
	.loc	4 802 14
	{
		add r3, r9, r8
		ldw r2, r2[0]
	}
	{
		nop
		ldw r3, r3[8]
	}
	.loc	4 802 14
	maccs r1, r0, r3, r2
.Ltmp635:
.LBB9_62:
	{
		nop
		ldw r2, sp[11]
	}
	.loc	4 803 14
	{
		add r3, r9, r8
		ldw r2, r2[0]
	}
	{
		nop
		ldw r3, r3[9]
	}
	.loc	4 803 14
	maccs r1, r0, r3, r2
.Ltmp636:
.LBB9_63:
	{
		nop
		ldw r2, sp[12]
	}
	.loc	4 804 14
	{
		add r3, r9, r8
		ldw r2, r2[0]
	}
	{
		nop
		ldw r3, r3[10]
	}
	.loc	4 804 14
	maccs r1, r0, r3, r2
.Ltmp637:
.LBB9_64:
	{
		nop
		ldw r2, sp[13]
	}
	.loc	4 805 14
	{
		add r3, r9, r8
		ldw r2, r2[0]
	}
	{
		nop
		ldw r3, r3[11]
	}
	.loc	4 805 14
	maccs r1, r0, r3, r2
.Ltmp638:
.LBB9_65:
	{
		nop
		ldw r2, sp[15]
	}
	{
		nop
		ldw r2, r2[0]
	}
	{
		nop
		ldw r3, sp[14]
	}
	{
		add r3, r3, r8
		nop
	}
	{
		nop
		ldw r3, r3[0]
	}
	.loc	4 806 14
	maccs r1, r0, r3, r2
.Ltmp639:
.LBB9_66:
	{
		nop
		ldw r2, sp[17]
	}
	{
		nop
		ldw r2, r2[0]
	}
	{
		nop
		ldw r3, sp[16]
	}
	{
		add r3, r3, r8
		nop
	}
	{
		nop
		ldw r3, r3[0]
	}
	.loc	4 807 14
	maccs r1, r0, r3, r2
.Ltmp640:
.LBB9_67:
	{
		nop
		ldw r2, sp[19]
	}
	{
		nop
		ldw r2, r2[0]
	}
	{
		nop
		ldw r3, sp[18]
	}
	{
		add r3, r3, r8
		nop
	}
	{
		nop
		ldw r3, r3[0]
	}
	.loc	4 808 14
	maccs r1, r0, r3, r2
.Ltmp641:
.LBB9_68:
	{
		nop
		ldw r2, sp[21]
	}
	{
		nop
		ldw r2, r2[0]
	}
	{
		nop
		ldw r3, sp[20]
	}
	{
		add r3, r3, r8
		nop
	}
	{
		nop
		ldw r3, r3[0]
	}
	.loc	4 809 14
	maccs r1, r0, r3, r2
.Ltmp642:
.LBB9_69:
	{
		nop
		ldw r2, sp[22]
	}
	.loc	4 810 14
	{
		add r3, r11, r8
		ldw r2, r2[0]
	}
	{
		nop
		ldw r3, r3[0]
	}
	.loc	4 810 14
	maccs r1, r0, r3, r2
.Ltmp643:
.LBB9_70:
	{
		nop
		ldw r2, sp[23]
	}
	.loc	4 811 14
	{
		add r3, r11, r8
		ldw r2, r2[0]
	}
	{
		nop
		ldw r3, r3[1]
	}
	.loc	4 811 14
	maccs r1, r0, r3, r2
.Ltmp644:
.LBB9_71:
	{
		nop
		ldw r2, sp[24]
	}
	.loc	4 812 14
	{
		add r3, r11, r8
		ldw r2, r2[0]
	}
	{
		nop
		ldw r3, r3[2]
	}
	.loc	4 812 14
	maccs r1, r0, r3, r2
.Ltmp645:
.LBB9_72:
	{
		nop
		ldw r2, sp[28]
	}
	.loc	4 813 14
	{
		add r2, r11, r8
		ldw r3, r2[0]
	}
	{
		nop
		ldw r11, r2[3]
	}
	.loc	4 813 14
	maccs r1, r0, r11, r3
	{
		nop
		ldw r3, r7[11]
	}
	{
		nop
		ldw r11, r2[4]
	}
	.loc	4 814 14
	maccs r1, r0, r11, r3
	{
		nop
		ldw r3, r7[10]
	}
	{
		nop
		ldw r11, r2[5]
	}
	.loc	4 815 14
	maccs r1, r0, r11, r3
	{
		nop
		ldw r3, r7[9]
	}
	{
		nop
		ldw r11, r2[6]
	}
	.loc	4 816 14
	maccs r1, r0, r11, r3
	{
		nop
		ldw r3, r7[8]
	}
	{
		nop
		ldw r11, r2[7]
	}
	.loc	4 817 14
	maccs r1, r0, r11, r3
	{
		nop
		ldw r3, r7[7]
	}
	{
		nop
		ldw r11, r2[8]
	}
	.loc	4 818 14
	maccs r1, r0, r11, r3
	{
		nop
		ldw r3, r7[6]
	}
	{
		nop
		ldw r11, r2[9]
	}
	.loc	4 819 14
	maccs r1, r0, r11, r3
	{
		nop
		ldw r3, r7[5]
	}
	{
		nop
		ldw r11, r2[10]
	}
	.loc	4 820 14
	maccs r1, r0, r11, r3
	{
		nop
		ldw r3, r7[4]
	}
	{
		nop
		ldw r2, r2[11]
	}
	.loc	4 821 14
	maccs r1, r0, r2, r3
	{
		nop
		ldw r2, r7[3]
	}
	{
		nop
		ldw r3, sp[27]
	}
	{
		add r3, r3, r8
		nop
	}
	ldaw r11, r3[-3]
	{
		nop
		ldw r11, r11[0]
	}
	.loc	4 822 14
	maccs r1, r0, r11, r2
	.loc	4 823 14
	{
		sub r11, r3, 8
		ldw r2, r7[2]
	}
	{
		nop
		ldw r11, r11[0]
	}
	.loc	4 823 14
	maccs r1, r0, r11, r2
	.loc	4 824 14
	{
		sub r11, r3, 4
		ldw r2, r7[1]
	}
	{
		nop
		ldw r11, r11[0]
	}
	.loc	4 824 14
	maccs r1, r0, r11, r2
	{
		nop
		ldw r2, r7[0]
	}
	{
		nop
		ldw r3, r3[0]
	}
	.loc	4 825 14
	maccs r1, r0, r3, r2
.Ltmp646:
	{
		mov r9, r5
		ldc r4, 0
	}
.Ltmp647:
.LBB9_73:
	{
		add r2, r9, r8
		nop
	}
	.loc	4 827 4
	{
		mov r2, r6
		ldw r5, r2[0]
	}
	.loc	4 827 4
	bl __ashrdi3
	.loc	4 827 4
	lsub r1, r0, r5, r0, r4
	{
		add r1, r10, r8
		nop
	}
	{
		nop
		stw r0, r1[0]
	}
	{
		nop
		ldw r0, sp[31]
	}
.Ltmp648:
	.loc	4 791 3
	{
		sub r0, r0, 1
		add r8, r8, 4
	}
	{
		mov r2, r4
		mov r4, r0
	}
	{
		nop
		ldw r3, sp[30]
	}
	bt r4, .LBB9_3
	bu .LBB9_74
.Ltmp649:
.LBB9_21:
	{
		ldc r0, 5
		nop
	}
	.loc	4 696 11
.Ltmp650:
	{
		lsu r0, r8, r0
		nop
	}
	bt r0, .LBB9_37
.Ltmp651:
	{
		mkmsk r0, 3
		nop
	}
	.loc	4 697 7
.Ltmp652:
	{
		lsu r0, r8, r0
		nop
	}
	bt r0, .LBB9_30
.Ltmp653:
	.loc	4 698 8
	{
		eq r0, r8, 8
		nop
	}
	.loc	4 698 8
	bf r0, .LBB9_24
.Ltmp654:
	{
		mkmsk r0, 1
		nop
	}
.Ltmp655:
	.loc	4 699 6
	{
		lss r0, r4, r0
		stw r10, sp[30]
	}
	bt r0, .LBB9_74
.Ltmp656:
	{
		nop
		ldw r0, r7[7]
	}
	{
		nop
		stw r0, sp[23]
	}
	{
		nop
		ldw r0, r7[6]
	}
	{
		nop
		stw r0, sp[22]
	}
	{
		nop
		ldw r0, r7[5]
	}
	{
		nop
		stw r0, sp[21]
	}
	{
		nop
		ldw r0, r7[4]
	}
	{
		nop
		stw r0, sp[20]
	}
	{
		nop
		ldw r0, r7[3]
	}
	{
		nop
		stw r0, sp[19]
	}
	{
		nop
		ldw r0, r7[2]
	}
	{
		nop
		stw r0, sp[18]
	}
	{
		nop
		ldw r0, r7[1]
	}
	{
		nop
		stw r0, sp[17]
	}
	{
		nop
		ldw r0, r7[0]
	}
	{
		nop
		stw r0, sp[16]
	}
	{
		nop
		stw r5, sp[29]
	}
	ldaw r0, r5[-8]
	{
		nop
		ldw r3, r0[0]
	}
	ldaw r0, r5[-7]
	{
		nop
		ldw r1, r0[0]
	}
	ldaw r0, r5[-6]
	{
		nop
		ldw r11, r0[0]
	}
	ldaw r0, r5[-5]
	{
		nop
		ldw r10, r0[0]
	}
	ldaw r0, r5[-4]
	{
		nop
		ldw r0, r0[0]
	}
	{
		nop
		stw r0, sp[31]
	}
	ldaw r0, r5[-3]
	{
		nop
		ldw r0, r0[0]
	}
	{
		sub r0, r5, 8
		stw r0, sp[28]
	}
	{
		nop
		ldw r0, r0[0]
	}
.Ltmp657:
	{
		sub r0, r5, 4
		stw r0, sp[27]
	}
	.loc	4 708 7
.Ltmp658:
	{
		ldc r8, 0
		ldw r7, r0[0]
	}
.Ltmp659:
.LBB9_29:
	.loc	4 613 14
	{
		mov r5, r1
		nop
	}
	{
		mov r6, r11
		stw r5, sp[26]
	}
	{
		nop
		stw r10, sp[25]
	}
	{
		nop
		ldw r2, sp[31]
	}
	{
		nop
		stw r2, sp[24]
	}
	{
		nop
		ldw r10, sp[28]
	}
	{
		nop
		stw r10, sp[31]
	}
	{
		nop
		ldw r9, sp[27]
	}
	{
		nop
		stw r9, sp[28]
	}
	{
		mov r1, r8
		stw r7, sp[27]
	}
	.loc	4 701 7
.Ltmp660:
	{
		mov r0, r8
		ldw r11, sp[23]
	}
	maccs r1, r0, r3, r11
	{
		nop
		ldw r3, sp[22]
	}
	.loc	4 702 7
	maccs r1, r0, r5, r3
	{
		nop
		ldw r3, sp[21]
	}
	.loc	4 703 7
	maccs r1, r0, r6, r3
	{
		nop
		ldw r3, sp[20]
	}
	{
		nop
		ldw r5, sp[25]
	}
	.loc	4 704 7
	maccs r1, r0, r5, r3
	{
		nop
		ldw r3, sp[19]
	}
	.loc	4 705 7
	maccs r1, r0, r2, r3
	{
		nop
		ldw r3, sp[18]
	}
	.loc	4 706 7
	maccs r1, r0, r10, r3
	{
		nop
		ldw r3, sp[17]
	}
	.loc	4 707 7
	maccs r1, r0, r9, r3
	{
		nop
		ldw r3, sp[16]
	}
	.loc	4 708 7
	maccs r1, r0, r7, r3
	{
		nop
		ldw r9, sp[29]
	}
	{
		nop
		ldw r7, r9[0]
	}
	{
		nop
		ldw r2, sp[41]
	}
.Ltmp661:
	.loc	4 709 7
	bl __ashrdi3
.Ltmp662:
	{
		mov r11, r5
		ldw r10, sp[24]
	}
	.loc	4 709 7
	lsub r1, r0, r7, r0, r8
	{
		mov r1, r6
		ldw r3, sp[30]
	}
	.loc	4 709 7
	{
		sub r4, r4, 1
		stw r0, r3[0]
	}
.Ltmp663:
	.loc	4 699 6
	{
		add r9, r9, 4
		nop
	}
	{
		add r3, r3, 4
		stw r9, sp[29]
	}
	{
		nop
		stw r3, sp[30]
	}
	{
		nop
		ldw r3, sp[26]
	}
	bt r4, .LBB9_29
	bu .LBB9_74
.Ltmp664:
.LBB9_14:
	.loc	4 663 8
	{
		eq r0, r8, 10
		nop
	}
	.loc	4 663 8
	bf r0, .LBB9_15
.Ltmp665:
	{
		mkmsk r0, 1
		nop
	}
.Ltmp666:
	.loc	4 664 6
	{
		lss r0, r4, r0
		mov r6, r10
	}
.Ltmp667:
	bt r0, .LBB9_74
.Ltmp668:
	{
		nop
		ldw r0, r7[9]
	}
	{
		nop
		stw r0, sp[20]
	}
	{
		nop
		ldw r0, r7[8]
	}
	{
		nop
		stw r0, sp[19]
	}
	{
		nop
		ldw r0, r7[7]
	}
	{
		nop
		stw r0, sp[18]
	}
	{
		nop
		ldw r0, r7[6]
	}
	{
		nop
		stw r0, sp[17]
	}
	{
		nop
		ldw r0, r7[5]
	}
	{
		nop
		stw r0, sp[16]
	}
	{
		nop
		ldw r0, r7[4]
	}
	{
		nop
		stw r0, sp[15]
	}
	{
		nop
		ldw r0, r7[3]
	}
	{
		nop
		stw r0, sp[14]
	}
	{
		nop
		ldw r0, r7[2]
	}
	{
		nop
		stw r0, sp[13]
	}
	{
		nop
		ldw r0, r7[1]
	}
	{
		nop
		stw r0, sp[12]
	}
	{
		nop
		ldw r0, r7[0]
	}
	{
		nop
		stw r0, sp[11]
	}
	ldaw r0, r5[-10]
	{
		nop
		ldw r3, r0[0]
	}
	ldaw r0, r5[-9]
	{
		nop
		ldw r1, r0[0]
	}
	ldaw r0, r5[-8]
	{
		nop
		ldw r7, r0[0]
	}
.Ltmp669:
	ldaw r0, r5[-7]
	{
		nop
		ldw r9, r0[0]
	}
	ldaw r0, r5[-6]
	{
		nop
		ldw r0, r0[0]
	}
	{
		nop
		stw r0, sp[27]
	}
	ldaw r0, r5[-5]
	{
		nop
		ldw r0, r0[0]
	}
	{
		nop
		stw r0, sp[26]
	}
	ldaw r0, r5[-4]
	{
		nop
		ldw r0, r0[0]
	}
	{
		nop
		stw r0, sp[28]
	}
	ldaw r0, r5[-3]
	{
		nop
		ldw r0, r0[0]
	}
	{
		sub r0, r5, 8
		stw r0, sp[25]
	}
	.loc	4 674 7
.Ltmp670:
	{
		sub r0, r5, 4
		ldw r8, r0[0]
	}
	.loc	4 675 7
	{
		ldc r11, 0
		ldw r10, r0[0]
	}
.Ltmp671:
.LBB9_20:
	{
		nop
		stw r5, sp[29]
	}
	{
		nop
		stw r4, sp[31]
	}
	.loc	4 613 14
	{
		mov r2, r1
		stw r6, sp[30]
	}
	{
		nop
		stw r2, sp[24]
	}
	{
		nop
		stw r7, sp[23]
	}
	{
		nop
		stw r9, sp[21]
	}
	{
		nop
		ldw r5, sp[27]
	}
	{
		nop
		stw r5, sp[22]
	}
	{
		nop
		ldw r9, sp[26]
	}
	{
		nop
		stw r9, sp[27]
	}
	{
		nop
		ldw r6, sp[28]
	}
	{
		nop
		stw r6, sp[26]
	}
	{
		nop
		ldw r0, sp[25]
	}
	{
		nop
		stw r0, sp[28]
	}
	{
		mov r4, r11
		stw r8, sp[25]
	}
	.loc	4 666 7
.Ltmp672:
	{
		mov r1, r4
		mov r0, r4
	}
	{
		nop
		ldw r11, sp[20]
	}
	maccs r1, r0, r3, r11
	{
		nop
		ldw r3, sp[19]
	}
	.loc	4 667 7
	maccs r1, r0, r2, r3
	{
		nop
		ldw r3, sp[18]
	}
	.loc	4 668 7
	maccs r1, r0, r7, r3
	{
		nop
		ldw r3, sp[17]
	}
	{
		nop
		ldw r7, sp[21]
	}
	.loc	4 669 7
	maccs r1, r0, r7, r3
	{
		nop
		ldw r3, sp[16]
	}
	.loc	4 670 7
	maccs r1, r0, r5, r3
	{
		nop
		ldw r3, sp[15]
	}
	.loc	4 671 7
	maccs r1, r0, r9, r3
	{
		nop
		ldw r3, sp[14]
	}
	.loc	4 672 7
	maccs r1, r0, r6, r3
	{
		nop
		ldw r6, sp[30]
	}
	{
		nop
		ldw r3, sp[13]
	}
	{
		nop
		ldw r2, sp[28]
	}
	.loc	4 673 7
	maccs r1, r0, r2, r3
	{
		nop
		ldw r5, sp[29]
	}
	{
		nop
		ldw r3, sp[12]
	}
	.loc	4 674 7
	maccs r1, r0, r8, r3
	{
		mov r8, r10
		ldw r3, sp[11]
	}
	.loc	4 675 7
	maccs r1, r0, r8, r3
	{
		nop
		ldw r10, r5[0]
	}
	{
		nop
		ldw r2, sp[41]
	}
.Ltmp673:
	.loc	4 676 7
	bl __ashrdi3
.Ltmp674:
	{
		nop
		ldw r9, sp[22]
	}
	.loc	4 676 7
	lsub r1, r0, r10, r0, r4
	{
		mov r11, r4
		ldw r4, sp[31]
	}
	{
		nop
		ldw r1, sp[23]
	}
	.loc	4 676 7
	{
		sub r4, r4, 1
		stw r0, r6[0]
	}
.Ltmp675:
	.loc	4 664 6
	{
		add r5, r5, 4
		add r6, r6, 4
	}
	{
		nop
		ldw r3, sp[24]
	}
	bt r4, .LBB9_20
	bu .LBB9_74
.Ltmp676:
.LBB9_37:
	{
		mkmsk r0, 2
		nop
	}
	.loc	4 753 7
.Ltmp677:
	{
		lsu r0, r8, r0
		nop
	}
	bt r0, .LBB9_45
.Ltmp678:
	.loc	4 754 8
	{
		eq r0, r8, 4
		nop
	}
	.loc	4 754 8
	bf r0, .LBB9_39
.Ltmp679:
	{
		mkmsk r0, 1
		nop
	}
.Ltmp680:
	.loc	4 755 6
	{
		lss r0, r4, r0
		mov r6, r10
	}
.Ltmp681:
	{
		mov r2, r9
		nop
	}
.Ltmp682:
	bt r0, .LBB9_74
.Ltmp683:
	{
		nop
		ldw r0, r7[3]
	}
	{
		nop
		stw r0, sp[28]
	}
	{
		nop
		ldw r0, r7[2]
	}
	{
		nop
		stw r0, sp[27]
	}
	{
		nop
		ldw r0, r7[1]
	}
	{
		nop
		stw r0, sp[26]
	}
	{
		nop
		ldw r0, r7[0]
	}
	{
		nop
		stw r0, sp[25]
	}
	ldaw r0, r5[-4]
	{
		nop
		ldw r3, r0[0]
	}
	ldaw r0, r5[-3]
	.loc	4 758 7
.Ltmp684:
	{
		sub r0, r5, 8
		ldw r11, r0[0]
	}
	.loc	4 759 7
	{
		sub r0, r5, 4
		ldw r8, r0[0]
	}
	.loc	4 760 7
	{
		ldc r1, 0
		ldw r10, r0[0]
	}
.Ltmp685:
.LBB9_44:
	.loc	4 613 14
	{
		mov r7, r11
		nop
	}
	{
		nop
		stw r7, sp[31]
	}
	{
		mov r9, r1
		stw r8, sp[30]
	}
	.loc	4 757 7
.Ltmp686:
	{
		mov r0, r9
		ldw r11, sp[28]
	}
	maccs r1, r0, r3, r11
	{
		nop
		ldw r3, sp[27]
	}
	.loc	4 758 7
	maccs r1, r0, r7, r3
	{
		nop
		ldw r3, sp[26]
	}
	.loc	4 759 7
	maccs r1, r0, r8, r3
	{
		nop
		ldw r3, sp[25]
	}
	.loc	4 760 7
	maccs r1, r0, r10, r3
	{
		mov r8, r10
		ldw r10, r5[0]
	}
	{
		mov r7, r2
		nop
	}
.Ltmp687:
	.loc	4 761 7
	bl __ashrdi3
.Ltmp688:
	{
		mov r2, r7
		ldw r11, sp[30]
	}
.Ltmp689:
	.loc	4 761 7
	lsub r1, r0, r10, r0, r9
	{
		mov r1, r9
		stw r0, r6[0]
	}
.Ltmp690:
	.loc	4 755 6
	{
		sub r4, r4, 1
		add r5, r5, 4
	}
	.loc	4 755 6
	{
		add r6, r6, 4
		ldw r3, sp[31]
	}
	bt r4, .LBB9_44
	bu .LBB9_74
.Ltmp691:
.LBB9_8:
	{
		mkmsk r0, 1
		nop
	}
.Ltmp692:
	.loc	4 645 6
	{
		lss r0, r4, r0
		stw r10, sp[30]
	}
	bt r0, .LBB9_74
.Ltmp693:
	{
		nop
		ldw r0, r7[10]
	}
	{
		nop
		stw r0, sp[20]
	}
	{
		nop
		ldw r0, r7[9]
	}
	{
		nop
		stw r0, sp[19]
	}
	{
		nop
		ldw r0, r7[8]
	}
	{
		nop
		stw r0, sp[18]
	}
	{
		nop
		ldw r0, r7[7]
	}
	{
		nop
		stw r0, sp[17]
	}
	{
		nop
		ldw r0, r7[6]
	}
	{
		nop
		stw r0, sp[16]
	}
	{
		nop
		ldw r0, r7[5]
	}
	{
		nop
		stw r0, sp[15]
	}
	{
		nop
		ldw r0, r7[4]
	}
	{
		nop
		stw r0, sp[14]
	}
	{
		nop
		ldw r0, r7[3]
	}
	{
		nop
		stw r0, sp[13]
	}
	{
		nop
		ldw r0, r7[2]
	}
	{
		nop
		stw r0, sp[12]
	}
	{
		nop
		ldw r0, r7[1]
	}
	{
		nop
		stw r0, sp[11]
	}
	{
		nop
		ldw r0, r7[0]
	}
.Ltmp694:
	{
		mov r11, r5
		stw r0, sp[10]
	}
.Ltmp695:
	{
		nop
		stw r11, sp[29]
	}
	ldaw r0, r11[-11]
	{
		nop
		ldw r3, r0[0]
	}
	ldaw r0, r11[-10]
	{
		nop
		ldw r1, r0[0]
	}
	ldaw r0, r11[-9]
	{
		nop
		ldw r0, r0[0]
	}
	{
		nop
		stw r0, sp[31]
	}
	ldaw r0, r11[-8]
	{
		nop
		ldw r6, r0[0]
	}
	ldaw r0, r11[-7]
	{
		nop
		ldw r0, r0[0]
	}
	{
		nop
		stw r0, sp[25]
	}
	ldaw r0, r11[-6]
	{
		nop
		ldw r0, r0[0]
	}
	{
		nop
		stw r0, sp[24]
	}
	ldaw r0, r11[-5]
	{
		nop
		ldw r0, r0[0]
	}
	{
		nop
		stw r0, sp[27]
	}
	ldaw r0, r11[-4]
	{
		nop
		ldw r0, r0[0]
	}
	{
		nop
		stw r0, sp[28]
	}
	ldaw r0, r11[-3]
	{
		nop
		ldw r0, r0[0]
	}
	{
		sub r0, r11, 8
		stw r0, sp[26]
	}
	{
		nop
		ldw r0, r0[0]
	}
.Ltmp696:
	{
		sub r0, r11, 4
		stw r0, sp[23]
	}
	.loc	4 657 7
.Ltmp697:
	{
		ldc r11, 0
		ldw r9, r0[0]
	}
.Ltmp698:
.LBB9_10:
	.loc	4 613 14
	{
		mov r5, r1
		nop
	}
	{
		nop
		stw r5, sp[22]
	}
	{
		nop
		ldw r2, sp[31]
	}
	{
		nop
		stw r2, sp[21]
	}
	{
		nop
		stw r6, sp[31]
	}
	{
		nop
		ldw r6, sp[25]
	}
	{
		nop
		ldw r7, sp[24]
	}
	{
		nop
		stw r7, sp[25]
	}
	{
		nop
		ldw r8, sp[27]
	}
	{
		nop
		stw r8, sp[24]
	}
	{
		nop
		ldw r0, sp[28]
	}
	{
		nop
		stw r0, sp[27]
	}
	{
		nop
		ldw r0, sp[26]
	}
	{
		nop
		stw r0, sp[28]
	}
	{
		nop
		ldw r0, sp[23]
	}
	{
		nop
		stw r0, sp[26]
	}
	{
		mov r10, r11
		stw r9, sp[23]
	}
	.loc	4 647 7
.Ltmp699:
	{
		mov r1, r10
		mov r0, r10
	}
	{
		nop
		ldw r11, sp[20]
	}
	maccs r1, r0, r3, r11
	{
		nop
		ldw r3, sp[19]
	}
	.loc	4 648 7
	maccs r1, r0, r5, r3
	{
		nop
		ldw r3, sp[18]
	}
	.loc	4 649 7
	maccs r1, r0, r2, r3
	{
		nop
		ldw r3, sp[17]
	}
	{
		nop
		ldw r2, sp[31]
	}
	.loc	4 650 7
	maccs r1, r0, r2, r3
	{
		nop
		ldw r3, sp[16]
	}
	.loc	4 651 7
	maccs r1, r0, r6, r3
	{
		nop
		ldw r3, sp[15]
	}
	.loc	4 652 7
	maccs r1, r0, r7, r3
	{
		nop
		ldw r3, sp[14]
	}
	.loc	4 653 7
	maccs r1, r0, r8, r3
	{
		nop
		ldw r3, sp[13]
	}
	{
		nop
		ldw r2, sp[27]
	}
	.loc	4 654 7
	maccs r1, r0, r2, r3
	{
		nop
		ldw r3, sp[12]
	}
	{
		nop
		ldw r2, sp[28]
	}
	.loc	4 655 7
	maccs r1, r0, r2, r3
	{
		nop
		ldw r3, sp[11]
	}
	{
		nop
		ldw r2, sp[26]
	}
	.loc	4 656 7
	maccs r1, r0, r2, r3
	{
		nop
		ldw r3, sp[10]
	}
	.loc	4 657 7
	maccs r1, r0, r9, r3
	{
		nop
		ldw r5, sp[29]
	}
	{
		nop
		ldw r9, r5[0]
	}
	{
		nop
		ldw r2, sp[41]
	}
.Ltmp700:
	.loc	4 658 7
	bl __ashrdi3
.Ltmp701:
	.loc	4 658 7
	lsub r1, r0, r9, r0, r10
	{
		mov r11, r10
		ldw r1, sp[21]
	}
	{
		nop
		ldw r3, sp[30]
	}
	.loc	4 658 7
	{
		sub r4, r4, 1
		stw r0, r3[0]
	}
.Ltmp702:
	.loc	4 645 6
	{
		add r5, r5, 4
		nop
	}
	{
		add r3, r3, 4
		stw r5, sp[29]
	}
	{
		nop
		stw r3, sp[30]
	}
	{
		nop
		ldw r3, sp[22]
	}
	bt r4, .LBB9_10
	bu .LBB9_74
.Ltmp703:
.LBB9_30:
	.loc	4 727 8
	{
		eq r0, r8, 6
		nop
	}
	.loc	4 727 8
	bf r0, .LBB9_31
.Ltmp704:
	{
		mkmsk r0, 1
		nop
	}
.Ltmp705:
	.loc	4 728 6
	{
		lss r0, r4, r0
		mov r6, r10
	}
.Ltmp706:
	bt r0, .LBB9_74
.Ltmp707:
	{
		nop
		ldw r0, r7[5]
	}
	{
		nop
		stw r0, sp[27]
	}
	{
		nop
		ldw r0, r7[4]
	}
	{
		nop
		stw r0, sp[26]
	}
	{
		nop
		ldw r0, r7[3]
	}
	{
		nop
		stw r0, sp[25]
	}
	{
		nop
		ldw r0, r7[2]
	}
	{
		nop
		stw r0, sp[24]
	}
	{
		nop
		ldw r0, r7[1]
	}
	{
		nop
		stw r0, sp[23]
	}
	{
		nop
		ldw r0, r7[0]
	}
	{
		nop
		stw r0, sp[22]
	}
	ldaw r0, r5[-6]
	{
		nop
		ldw r3, r0[0]
	}
	ldaw r0, r5[-5]
	{
		nop
		ldw r1, r0[0]
	}
	ldaw r0, r5[-4]
	{
		nop
		ldw r11, r0[0]
	}
	ldaw r0, r5[-3]
	.loc	4 733 7
.Ltmp708:
	{
		sub r0, r5, 8
		ldw r2, r0[0]
	}
	{
		nop
		ldw r0, r0[0]
	}
	{
		sub r0, r5, 4
		stw r0, sp[31]
	}
	.loc	4 735 7
	{
		ldc r7, 0
		ldw r9, r0[0]
	}
.Ltmp709:
.LBB9_36:
	.loc	4 613 14
	{
		mov r10, r1
		nop
	}
	{
		mov r8, r11
		stw r10, sp[30]
	}
	{
		nop
		stw r2, sp[28]
	}
	{
		nop
		ldw r0, sp[31]
	}
	{
		nop
		stw r0, sp[29]
	}
	{
		mov r1, r7
		stw r9, sp[31]
	}
	.loc	4 730 7
.Ltmp710:
	{
		mov r0, r7
		ldw r11, sp[27]
	}
	maccs r1, r0, r3, r11
	{
		nop
		ldw r3, sp[26]
	}
	.loc	4 731 7
	maccs r1, r0, r10, r3
	{
		nop
		ldw r3, sp[25]
	}
	.loc	4 732 7
	maccs r1, r0, r8, r3
	{
		nop
		ldw r3, sp[24]
	}
	.loc	4 733 7
	maccs r1, r0, r2, r3
	{
		nop
		ldw r3, sp[23]
	}
	{
		nop
		ldw r10, sp[29]
	}
	.loc	4 734 7
	maccs r1, r0, r10, r3
	{
		nop
		ldw r3, sp[22]
	}
	.loc	4 735 7
	maccs r1, r0, r9, r3
	{
		nop
		ldw r9, r5[0]
	}
	{
		nop
		ldw r2, sp[41]
	}
.Ltmp711:
	.loc	4 736 7
	bl __ashrdi3
.Ltmp712:
	{
		mov r2, r10
		ldw r11, sp[28]
	}
	.loc	4 736 7
	lsub r1, r0, r9, r0, r7
	{
		mov r1, r8
		stw r0, r6[0]
	}
.Ltmp713:
	.loc	4 728 6
	{
		sub r4, r4, 1
		add r5, r5, 4
	}
	.loc	4 728 6
	{
		add r6, r6, 4
		ldw r3, sp[30]
	}
	bt r4, .LBB9_36
	bu .LBB9_74
.Ltmp714:
.LBB9_15:
	{
		mkmsk r0, 1
		nop
	}
.Ltmp715:
	.loc	4 680 6
	{
		lss r0, r4, r0
		stw r10, sp[30]
	}
	bt r0, .LBB9_74
.Ltmp716:
	{
		nop
		ldw r0, r7[8]
	}
	{
		nop
		stw r0, sp[23]
	}
	{
		nop
		ldw r0, r7[7]
	}
	{
		nop
		stw r0, sp[22]
	}
	{
		nop
		ldw r0, r7[6]
	}
	{
		nop
		stw r0, sp[21]
	}
	{
		nop
		ldw r0, r7[5]
	}
	{
		nop
		stw r0, sp[20]
	}
	{
		nop
		ldw r0, r7[4]
	}
	{
		nop
		stw r0, sp[19]
	}
	{
		nop
		ldw r0, r7[3]
	}
	{
		nop
		stw r0, sp[18]
	}
	{
		nop
		ldw r0, r7[2]
	}
	{
		nop
		stw r0, sp[17]
	}
	{
		nop
		ldw r0, r7[1]
	}
	{
		nop
		stw r0, sp[16]
	}
	{
		nop
		ldw r0, r7[0]
	}
	{
		nop
		stw r0, sp[15]
	}
	{
		nop
		stw r5, sp[29]
	}
	ldaw r0, r5[-9]
	{
		nop
		ldw r3, r0[0]
	}
	ldaw r0, r5[-8]
	{
		nop
		ldw r1, r0[0]
	}
	ldaw r0, r5[-7]
	{
		nop
		ldw r11, r0[0]
	}
	ldaw r0, r5[-6]
	{
		nop
		ldw r7, r0[0]
	}
.Ltmp717:
	ldaw r0, r5[-5]
	{
		nop
		ldw r0, r0[0]
	}
	{
		nop
		stw r0, sp[28]
	}
	ldaw r0, r5[-4]
	{
		nop
		ldw r0, r0[0]
	}
	{
		nop
		stw r0, sp[27]
	}
	ldaw r0, r5[-3]
	{
		nop
		ldw r0, r0[0]
	}
	{
		sub r0, r5, 8
		stw r0, sp[31]
	}
	{
		nop
		ldw r0, r0[0]
	}
.Ltmp718:
	{
		sub r0, r5, 4
		stw r0, sp[26]
	}
	.loc	4 690 7
.Ltmp719:
	{
		ldc r8, 0
		ldw r5, r0[0]
	}
.Ltmp720:
.LBB9_17:
	.loc	4 613 14
	{
		mov r9, r1
		nop
	}
	{
		mov r6, r11
		stw r9, sp[25]
	}
	{
		nop
		ldw r0, sp[28]
	}
	{
		nop
		stw r0, sp[24]
	}
	{
		nop
		ldw r2, sp[27]
	}
	{
		nop
		stw r2, sp[28]
	}
	{
		nop
		ldw r10, sp[31]
	}
	{
		nop
		stw r10, sp[27]
	}
	{
		nop
		ldw r0, sp[26]
	}
	{
		nop
		stw r0, sp[31]
	}
	{
		mov r1, r8
		stw r5, sp[26]
	}
	.loc	4 682 7
.Ltmp721:
	{
		mov r0, r8
		ldw r11, sp[23]
	}
	maccs r1, r0, r3, r11
	{
		nop
		ldw r3, sp[22]
	}
	.loc	4 683 7
	maccs r1, r0, r9, r3
	.loc	4 684 7
	{
		mov r9, r6
		ldw r3, sp[21]
	}
	maccs r1, r0, r9, r3
	{
		nop
		ldw r3, sp[20]
	}
	.loc	4 685 7
	maccs r1, r0, r7, r3
	{
		nop
		ldw r3, sp[19]
	}
	{
		nop
		ldw r6, sp[24]
	}
	.loc	4 686 7
	maccs r1, r0, r6, r3
	{
		nop
		ldw r3, sp[18]
	}
	.loc	4 687 7
	maccs r1, r0, r2, r3
	{
		nop
		ldw r3, sp[17]
	}
	.loc	4 688 7
	maccs r1, r0, r10, r3
	{
		nop
		ldw r3, sp[16]
	}
	{
		nop
		ldw r2, sp[31]
	}
	.loc	4 689 7
	maccs r1, r0, r2, r3
	{
		nop
		ldw r3, sp[15]
	}
	.loc	4 690 7
	maccs r1, r0, r5, r3
	{
		nop
		ldw r10, sp[29]
	}
	{
		nop
		ldw r5, r10[0]
	}
	{
		nop
		ldw r2, sp[41]
	}
.Ltmp722:
	.loc	4 691 7
	bl __ashrdi3
.Ltmp723:
	{
		mov r11, r7
		mov r7, r6
	}
	.loc	4 691 7
	lsub r1, r0, r5, r0, r8
	{
		mov r1, r9
		ldw r3, sp[30]
	}
	.loc	4 691 7
	{
		sub r4, r4, 1
		stw r0, r3[0]
	}
.Ltmp724:
	.loc	4 680 6
	{
		add r10, r10, 4
		nop
	}
	{
		add r3, r3, 4
		stw r10, sp[29]
	}
	{
		nop
		stw r3, sp[30]
	}
	{
		nop
		ldw r3, sp[25]
	}
	bt r4, .LBB9_17
	bu .LBB9_74
.Ltmp725:
.LBB9_45:
	{
		mov r1, r10
		eq r0, r8, 2
	}
.Ltmp726:
	.loc	4 775 8
	bf r0, .LBB9_46
.Ltmp727:
	{
		mkmsk r0, 1
		nop
	}
.Ltmp728:
	.loc	4 776 6
	{
		lss r0, r4, r0
		mov r10, r5
	}
.Ltmp729:
	{
		mov r6, r1
		mov r2, r9
	}
.Ltmp730:
	bt r0, .LBB9_74
.Ltmp731:
	{
		nop
		ldw r0, r7[1]
	}
	{
		nop
		stw r0, sp[31]
	}
	{
		nop
		ldw r0, r7[0]
	}
	{
		sub r0, r10, 8
		stw r0, sp[30]
	}
	.loc	4 778 7
.Ltmp732:
	{
		sub r0, r10, 4
		ldw r3, r0[0]
	}
	.loc	4 779 7
	{
		ldc r7, 0
		ldw r8, r0[0]
	}
.Ltmp733:
.LBB9_51:
	.loc	4 613 14
	{
		mov r9, r8
		mov r1, r7
	}
	.loc	4 778 7
.Ltmp734:
	{
		mov r0, r7
		ldw r11, sp[31]
	}
	maccs r1, r0, r3, r11
	{
		nop
		ldw r3, sp[30]
	}
	.loc	4 779 7
	maccs r1, r0, r9, r3
.Ltmp735:
	.loc	4 780 7
	{
		mov r5, r2
		ldw r8, r10[0]
	}
.Ltmp736:
	.loc	4 780 7
	bl __ashrdi3
	{
		mov r2, r5
		nop
	}
.Ltmp737:
	.loc	4 780 7
	lsub r1, r0, r8, r0, r7
	.loc	4 780 7
	{
		sub r4, r4, 1
		stw r0, r6[0]
	}
.Ltmp738:
	.loc	4 776 6
	{
		add r10, r10, 4
		add r6, r6, 4
	}
.Ltmp739:
	.loc	4 613 14
	{
		mov r3, r9
		nop
	}
	bt r4, .LBB9_51
	bu .LBB9_74
.Ltmp740:
.LBB9_24:
	{
		mkmsk r0, 1
		nop
	}
.Ltmp741:
	.loc	4 713 6
	{
		lss r0, r4, r0
		stw r10, sp[30]
	}
	bt r0, .LBB9_74
.Ltmp742:
	{
		nop
		ldw r0, r7[6]
	}
	{
		nop
		stw r0, sp[25]
	}
	{
		nop
		ldw r0, r7[5]
	}
	{
		nop
		stw r0, sp[24]
	}
	{
		nop
		ldw r0, r7[4]
	}
	{
		nop
		stw r0, sp[23]
	}
	{
		nop
		ldw r0, r7[3]
	}
	{
		nop
		stw r0, sp[22]
	}
	{
		nop
		ldw r0, r7[2]
	}
	{
		nop
		stw r0, sp[21]
	}
	{
		nop
		ldw r0, r7[1]
	}
	{
		nop
		stw r0, sp[20]
	}
	{
		nop
		ldw r0, r7[0]
	}
.Ltmp743:
	{
		mov r6, r5
		stw r0, sp[19]
	}
.Ltmp744:
	{
		nop
		stw r6, sp[29]
	}
	ldaw r0, r6[-7]
	{
		nop
		ldw r3, r0[0]
	}
	ldaw r0, r6[-6]
	{
		nop
		ldw r1, r0[0]
	}
	ldaw r0, r6[-5]
	{
		nop
		ldw r11, r0[0]
	}
	ldaw r0, r6[-4]
	{
		nop
		ldw r5, r0[0]
	}
	ldaw r0, r6[-3]
	.loc	4 719 7
.Ltmp745:
	{
		sub r0, r6, 8
		ldw r2, r0[0]
	}
	{
		nop
		ldw r0, r0[0]
	}
.Ltmp746:
	{
		sub r0, r6, 4
		stw r0, sp[31]
	}
	.loc	4 721 7
	{
		ldc r7, 0
		ldw r10, r0[0]
	}
.Ltmp747:
.LBB9_26:
	.loc	4 613 14
	{
		mov r6, r1
		nop
	}
	{
		mov r9, r11
		stw r6, sp[28]
	}
	{
		nop
		stw r2, sp[26]
	}
	{
		nop
		ldw r0, sp[31]
	}
	{
		mov r8, r10
		stw r0, sp[27]
	}
	{
		mov r1, r7
		stw r8, sp[31]
	}
	.loc	4 715 7
.Ltmp748:
	{
		mov r0, r7
		ldw r11, sp[25]
	}
	maccs r1, r0, r3, r11
	{
		nop
		ldw r3, sp[24]
	}
	.loc	4 716 7
	maccs r1, r0, r6, r3
	.loc	4 717 7
	{
		mov r6, r9
		ldw r3, sp[23]
	}
	maccs r1, r0, r6, r3
	{
		nop
		ldw r3, sp[22]
	}
	.loc	4 718 7
	maccs r1, r0, r5, r3
	{
		nop
		ldw r3, sp[21]
	}
	.loc	4 719 7
	maccs r1, r0, r2, r3
	{
		nop
		ldw r3, sp[20]
	}
	{
		nop
		ldw r9, sp[27]
	}
	.loc	4 720 7
	maccs r1, r0, r9, r3
	{
		nop
		ldw r3, sp[19]
	}
	.loc	4 721 7
	maccs r1, r0, r8, r3
	{
		nop
		ldw r8, sp[29]
	}
	{
		nop
		ldw r10, r8[0]
	}
	{
		nop
		ldw r2, sp[41]
	}
.Ltmp749:
	.loc	4 722 7
	bl __ashrdi3
.Ltmp750:
	{
		mov r11, r5
		ldw r5, sp[26]
	}
	{
		mov r2, r9
		nop
	}
	.loc	4 722 7
	lsub r1, r0, r10, r0, r7
	{
		mov r1, r6
		ldw r3, sp[30]
	}
	.loc	4 722 7
	{
		sub r4, r4, 1
		stw r0, r3[0]
	}
.Ltmp751:
	.loc	4 713 6
	{
		add r8, r8, 4
		nop
	}
	{
		add r3, r3, 4
		stw r8, sp[29]
	}
	{
		nop
		stw r3, sp[30]
	}
	{
		nop
		ldw r3, sp[28]
	}
	bt r4, .LBB9_26
	bu .LBB9_74
.Ltmp752:
.LBB9_39:
	{
		mkmsk r0, 1
		nop
	}
.Ltmp753:
	.loc	4 765 6
	{
		lss r0, r4, r0
		mov r6, r10
	}
.Ltmp754:
	{
		mov r2, r9
		nop
	}
.Ltmp755:
	bt r0, .LBB9_74
.Ltmp756:
	{
		nop
		ldw r0, r7[2]
	}
	{
		nop
		stw r0, sp[30]
	}
	{
		nop
		ldw r0, r7[1]
	}
	{
		nop
		stw r0, sp[28]
	}
	{
		nop
		ldw r0, r7[0]
	}
	{
		nop
		stw r0, sp[27]
	}
	ldaw r0, r5[-3]
	.loc	4 767 7
.Ltmp757:
	{
		sub r0, r5, 8
		ldw r3, r0[0]
	}
	.loc	4 768 7
	{
		sub r0, r5, 4
		ldw r7, r0[0]
	}
.Ltmp758:
	.loc	4 769 7
	{
		ldc r1, 0
		ldw r10, r0[0]
	}
.Ltmp759:
.LBB9_41:
	.loc	4 613 14
	{
		mov r9, r7
		nop
	}
	{
		mov r7, r10
		stw r9, sp[31]
	}
	{
		mov r8, r1
		nop
	}
	.loc	4 767 7
.Ltmp760:
	{
		mov r0, r8
		ldw r11, sp[30]
	}
	maccs r1, r0, r3, r11
	{
		nop
		ldw r3, sp[28]
	}
	.loc	4 768 7
	maccs r1, r0, r9, r3
	{
		nop
		ldw r3, sp[27]
	}
	.loc	4 769 7
	maccs r1, r0, r7, r3
.Ltmp761:
	.loc	4 770 7
	{
		mov r9, r2
		ldw r10, r5[0]
	}
.Ltmp762:
	.loc	4 770 7
	bl __ashrdi3
	{
		mov r2, r9
		nop
	}
.Ltmp763:
	.loc	4 770 7
	lsub r1, r0, r10, r0, r8
	{
		mov r1, r8
		stw r0, r6[0]
	}
.Ltmp764:
	.loc	4 765 6
	{
		sub r4, r4, 1
		add r5, r5, 4
	}
	.loc	4 765 6
	{
		add r6, r6, 4
		ldw r3, sp[31]
	}
	bt r4, .LBB9_41
	bu .LBB9_74
.Ltmp765:
.LBB9_31:
	{
		mkmsk r0, 1
		nop
	}
.Ltmp766:
	.loc	4 740 6
	{
		lss r0, r4, r0
		mov r2, r9
	}
.Ltmp767:
	{
		mov r9, r10
		nop
	}
.Ltmp768:
	bt r0, .LBB9_74
.Ltmp769:
	{
		nop
		ldw r0, r7[4]
	}
	{
		nop
		stw r0, sp[28]
	}
	{
		nop
		ldw r0, r7[3]
	}
	{
		nop
		stw r0, sp[27]
	}
	{
		nop
		ldw r0, r7[2]
	}
	{
		nop
		stw r0, sp[26]
	}
	{
		nop
		ldw r0, r7[1]
	}
	{
		nop
		stw r0, sp[25]
	}
	{
		nop
		ldw r0, r7[0]
	}
	{
		nop
		stw r0, sp[24]
	}
	ldaw r0, r5[-5]
	{
		nop
		ldw r3, r0[0]
	}
	ldaw r0, r5[-4]
	{
		nop
		ldw r1, r0[0]
	}
	ldaw r0, r5[-3]
	.loc	4 744 7
.Ltmp770:
	{
		sub r0, r5, 8
		ldw r8, r0[0]
	}
	{
		nop
		ldw r0, r0[0]
	}
	{
		sub r0, r5, 4
		stw r0, sp[31]
	}
	.loc	4 746 7
	{
		ldc r11, 0
		ldw r6, r0[0]
	}
.Ltmp771:
.LBB9_33:
	.loc	4 613 14
	{
		mov r10, r1
		stw r9, sp[30]
	}
	{
		mov r7, r8
		stw r10, sp[29]
	}
	{
		nop
		ldw r9, sp[31]
	}
	{
		mov r8, r11
		stw r6, sp[31]
	}
	.loc	4 742 7
.Ltmp772:
	{
		mov r1, r8
		mov r0, r8
	}
	{
		nop
		ldw r11, sp[28]
	}
	maccs r1, r0, r3, r11
	{
		nop
		ldw r3, sp[27]
	}
	.loc	4 743 7
	maccs r1, r0, r10, r3
	{
		nop
		ldw r3, sp[26]
	}
	.loc	4 744 7
	maccs r1, r0, r7, r3
	{
		nop
		ldw r3, sp[25]
	}
	.loc	4 745 7
	maccs r1, r0, r9, r3
	{
		nop
		ldw r3, sp[24]
	}
	.loc	4 746 7
	maccs r1, r0, r6, r3
.Ltmp773:
	.loc	4 747 7
	{
		mov r10, r2
		ldw r6, r5[0]
	}
.Ltmp774:
	.loc	4 747 7
	bl __ashrdi3
	{
		mov r2, r10
		nop
	}
.Ltmp775:
	.loc	4 747 7
	lsub r1, r0, r6, r0, r8
	{
		mov r11, r8
		mov r8, r9
	}
	{
		mov r1, r7
		ldw r9, sp[30]
	}
	.loc	4 747 7
	{
		sub r4, r4, 1
		stw r0, r9[0]
	}
.Ltmp776:
	.loc	4 740 6
	{
		add r5, r5, 4
		add r9, r9, 4
	}
	{
		nop
		ldw r3, sp[29]
	}
	bt r4, .LBB9_33
	bu .LBB9_74
.Ltmp777:
.LBB9_46:
	{
		mkmsk r0, 1
		nop
	}
.Ltmp778:
	.loc	4 784 6
	{
		lss r0, r4, r0
		mov r8, r5
	}
.Ltmp779:
	{
		mov r10, r9
		mov r9, r1
	}
.Ltmp780:
	bt r0, .LBB9_74
.Ltmp781:
	.loc	4 785 7
	{
		sub r0, r8, 4
		ldw r5, r7[0]
	}
	.loc	4 785 7
	{
		ldc r6, 0
		ldw r2, r0[0]
	}
.Ltmp782:
.LBB9_48:
	.loc	4 785 7
	{
		mov r1, r6
		ldw r7, r8[0]
	}
	.loc	4 785 7
	{
		mov r0, r6
		nop
	}
	maccs r1, r0, r2, r5
	.loc	4 785 7
	{
		mov r2, r10
		nop
	}
	bl __ashrdi3
	.loc	4 785 7
	lsub r1, r0, r7, r0, r6
	.loc	4 785 7
	{
		sub r4, r4, 1
		stw r0, r9[0]
	}
	.loc	4 784 6
	{
		add r8, r8, 4
		add r9, r9, 4
	}
	.loc	4 785 7
	{
		mov r2, r7
		nop
	}
	bt r4, .LBB9_48
.Ltmp783:
.LBB9_74:
	{
		nop
		ldw r10, sp[38]
	}
	{
		nop
		ldw r8, sp[36]
	}
	{
		nop
		ldw r9, sp[37]
	}
	{
		nop
		ldw r6, sp[34]
	}
	{
		nop
		ldw r7, sp[35]
	}
	{
		nop
		ldw r4, sp[32]
	}
	{
		nop
		ldw r5, sp[33]
	}
	{
		nop
		retsp 40
	}
	.loc	4 830 1
	# RETURN_REG_HOLDER
.Ltmp784:
	.cc_bottom FLAC__lpc_compute_residual_from_qlp_coefficients_wide.function
	.set	FLAC__lpc_compute_residual_from_qlp_coefficients_wide.nstackwords,((assert.nstackwords $M __ashrdi3.nstackwords) + 40)
	.globl	FLAC__lpc_compute_residual_from_qlp_coefficients_wide.nstackwords
	.set	FLAC__lpc_compute_residual_from_qlp_coefficients_wide.maxcores,1
	.globl	FLAC__lpc_compute_residual_from_qlp_coefficients_wide.maxcores
	.set	FLAC__lpc_compute_residual_from_qlp_coefficients_wide.maxtimers,0
	.globl	FLAC__lpc_compute_residual_from_qlp_coefficients_wide.maxtimers
	.set	FLAC__lpc_compute_residual_from_qlp_coefficients_wide.maxchanends,0
	.globl	FLAC__lpc_compute_residual_from_qlp_coefficients_wide.maxchanends
.Ltmp785:
	.size	FLAC__lpc_compute_residual_from_qlp_coefficients_wide, .Ltmp785-FLAC__lpc_compute_residual_from_qlp_coefficients_wide
.Lfunc_end9:
	.cfi_endproc

	.section	.cp.rodata.cst4,"aMc",@progbits,4
	.cc_top .LCPI10_0.data,.LCPI10_0
	.align	4
	.type	.LCPI10_0,@object
	.size	.LCPI10_0, 4
.LCPI10_0:
	.long	4294967232
	.cc_bottom .LCPI10_0.data
	.cc_top .LCPI10_1.data,.LCPI10_1
	.align	4
	.type	.LCPI10_1,@object
	.size	.LCPI10_1, 4
.LCPI10_1:
	.long	4294967228
	.cc_bottom .LCPI10_1.data
	.cc_top .LCPI10_2.data,.LCPI10_2
	.align	4
	.type	.LCPI10_2,@object
	.size	.LCPI10_2, 4
.LCPI10_2:
	.long	4294967224
	.cc_bottom .LCPI10_2.data
	.cc_top .LCPI10_3.data,.LCPI10_3
	.align	4
	.type	.LCPI10_3,@object
	.size	.LCPI10_3, 4
.LCPI10_3:
	.long	4294967220
	.cc_bottom .LCPI10_3.data
	.cc_top .LCPI10_4.data,.LCPI10_4
	.align	4
	.type	.LCPI10_4,@object
	.size	.LCPI10_4, 4
.LCPI10_4:
	.long	4294967216
	.cc_bottom .LCPI10_4.data
	.cc_top .LCPI10_5.data,.LCPI10_5
	.align	4
	.type	.LCPI10_5,@object
	.size	.LCPI10_5, 4
.LCPI10_5:
	.long	4294967168
	.cc_bottom .LCPI10_5.data
	.cc_top .LCPI10_6.data,.LCPI10_6
	.align	4
	.type	.LCPI10_6,@object
	.size	.LCPI10_6, 4
.LCPI10_6:
	.long	4294967200
	.cc_bottom .LCPI10_6.data
	.cc_top .LCPI10_7.data,.LCPI10_7
	.align	4
	.type	.LCPI10_7,@object
	.size	.LCPI10_7, 4
.LCPI10_7:
	.long	4294967184
	.cc_bottom .LCPI10_7.data
	.cc_top .LCPI10_8.data,.LCPI10_8
	.align	4
	.type	.LCPI10_8,@object
	.size	.LCPI10_8, 4
.LCPI10_8:
	.long	2147483647
	.cc_bottom .LCPI10_8.data
	.text
	.globl	FLAC__lpc_compute_residual_from_qlp_coefficients_limit_residual
	.align	4
	.type	FLAC__lpc_compute_residual_from_qlp_coefficients_limit_residual,@function
	.cc_top FLAC__lpc_compute_residual_from_qlp_coefficients_limit_residual.function,FLAC__lpc_compute_residual_from_qlp_coefficients_limit_residual
FLAC__lpc_compute_residual_from_qlp_coefficients_limit_residual:
.Lfunc_begin10:
	.loc	4 834 0
	.cfi_startproc
	.issue_mode dual
	{
		nop
		dualentsp 40
	}
.Ltmp786:
	.cfi_def_cfa_offset 160
.Ltmp787:
	.cfi_offset 15, 0
	{
		nop
		stw r4, sp[32]
	}
	{
		nop
		stw r5, sp[33]
	}
.Ltmp788:
	.cfi_offset 4, -32
.Ltmp789:
	.cfi_offset 5, -28
	{
		nop
		stw r6, sp[34]
	}
	{
		nop
		stw r7, sp[35]
	}
.Ltmp790:
	.cfi_offset 6, -24
.Ltmp791:
	.cfi_offset 7, -20
	{
		nop
		stw r8, sp[36]
	}
	{
		nop
		stw r9, sp[37]
	}
.Ltmp792:
	.cfi_offset 8, -16
.Ltmp793:
	.cfi_offset 9, -12
.Ltmp794:
	.cfi_offset 10, -8
.Ltmp795:
	{
		mov r4, r3
		stw r10, sp[38]
	}
.Ltmp796:
	{
		mov r5, r2
		stw r4, sp[31]
	}
.Ltmp797:
	{
		mov r6, r1
		nop
	}
.Ltmp798:
	{
		mov r7, r0
		stw r6, sp[30]
	}
.Ltmp799:
	.loc	4 838 2 prologue_end
	{
		eq r0, r4, 0
		nop
	}
	{
		eq r0, r0, 0
		nop
	}
	.loc	4 838 2
	bl assert
	{
		ldc r0, 33
		nop
	}
	.loc	4 839 2
	{
		lsu r0, r4, r0
		nop
	}
.Ltmp800:
	.loc	4 839 2
	bl assert
.Ltmp801:
	{
		mkmsk r0, 1
		nop
	}
	.loc	4 841 2
.Ltmp802:
	{
		lss r1, r6, r0
		nop
	}
.Ltmp803:
	bt r1, .LBB10_44
.Ltmp804:
	ldc r0, 124
	.loc	4 844 13
.Ltmp805:
	{
		add r0, r5, r0
		nop
	}
	{
		nop
		stw r0, sp[1]
	}
	ldc r0, 120
	.loc	4 845 13
	{
		add r0, r5, r0
		nop
	}
	{
		nop
		stw r0, sp[2]
	}
	ldc r0, 116
	.loc	4 846 13
	{
		add r0, r5, r0
		nop
	}
	{
		nop
		stw r0, sp[3]
	}
	ldc r0, 112
	.loc	4 847 13
	{
		add r0, r5, r0
		nop
	}
	{
		nop
		stw r0, sp[4]
	}
	ldc r0, 108
	.loc	4 848 13
	{
		add r0, r5, r0
		nop
	}
	{
		nop
		stw r0, sp[6]
	}
	ldc r0, 104
	.loc	4 849 13
	{
		add r0, r5, r0
		nop
	}
	{
		nop
		stw r0, sp[7]
	}
	ldc r0, 100
	.loc	4 850 13
	{
		add r0, r5, r0
		nop
	}
	{
		nop
		stw r0, sp[8]
	}
	ldc r0, 96
	.loc	4 851 13
	{
		add r0, r5, r0
		nop
	}
	{
		nop
		stw r0, sp[9]
	}
	ldc r0, 92
	.loc	4 852 13
	{
		add r0, r5, r0
		nop
	}
	{
		nop
		stw r0, sp[11]
	}
	ldc r0, 88
	.loc	4 853 13
	{
		add r0, r5, r0
		nop
	}
	{
		nop
		stw r0, sp[12]
	}
	ldc r0, 84
	.loc	4 854 13
	{
		add r0, r5, r0
		nop
	}
	{
		nop
		stw r0, sp[13]
	}
	ldc r0, 80
	.loc	4 855 13
	{
		add r0, r5, r0
		nop
	}
	{
		nop
		stw r0, sp[14]
	}
	ldc r0, 76
	.loc	4 856 13
	{
		add r0, r5, r0
		nop
	}
	{
		nop
		stw r0, sp[16]
	}
	ldc r0, 72
	.loc	4 857 13
	{
		add r0, r5, r0
		nop
	}
	{
		nop
		stw r0, sp[18]
	}
	ldc r0, 68
	.loc	4 858 13
	{
		add r0, r5, r0
		nop
	}
	{
		nop
		stw r0, sp[20]
	}
	ldc r0, 64
	.loc	4 859 13
	{
		add r0, r5, r0
		nop
	}
	{
		ldc r0, 60
		stw r0, sp[22]
	}
	.loc	4 860 13
	{
		add r0, r5, r0
		nop
	}
	{
		ldc r0, 56
		stw r0, sp[23]
	}
	.loc	4 861 13
	{
		add r0, r5, r0
		nop
	}
	{
		ldc r0, 52
		stw r0, sp[24]
	}
	.loc	4 862 13
	{
		add r0, r5, r0
		nop
	}
	{
		ldc r0, 48
		stw r0, sp[25]
	}
.Ltmp806:
	.loc	4 863 13
	{
		add r0, r5, r0
		stw r5, sp[27]
	}
	{
		sub r11, r7, 4
		stw r0, sp[26]
	}
	ldw r0, cp[.LCPI10_0]
	{
		add r0, r7, r0
		nop
	}
	{
		nop
		stw r0, sp[28]
	}
	ldw r0, cp[.LCPI10_1]
	{
		add r0, r7, r0
		nop
	}
	{
		nop
		stw r0, sp[21]
	}
	ldw r0, cp[.LCPI10_2]
	{
		add r0, r7, r0
		nop
	}
	{
		nop
		stw r0, sp[19]
	}
	ldw r0, cp[.LCPI10_3]
	{
		add r0, r7, r0
		nop
	}
	{
		nop
		stw r0, sp[17]
	}
	ldw r0, cp[.LCPI10_4]
	{
		add r0, r7, r0
		nop
	}
	{
		nop
		stw r0, sp[15]
	}
	ldw r0, cp[.LCPI10_5]
	{
		add r0, r7, r0
		nop
	}
	{
		nop
		stw r0, sp[29]
	}
	ldw r0, cp[.LCPI10_6]
	{
		add r0, r7, r0
		nop
	}
	{
		nop
		stw r0, sp[10]
	}
	ldw r0, cp[.LCPI10_7]
	{
		add r0, r7, r0
		nop
	}
	{
		ldc r3, 0
		stw r0, sp[5]
	}
	{
		mov r6, r3
		mov r9, r3
	}
.Ltmp807:
.LBB10_2:
	{
		mov r0, r3
		ldw r1, sp[31]
	}
	.loc	4 843 3
	{
		sub r2, r1, 1
		nop
	}
	{
		shr r1, r2, 5
		nop
	}
	bf r1, .LBB10_4
.Ltmp808:
	{
		mov r10, r11
		mov r1, r3
	}
	{
		mov r5, r3
		nop
	}
	bu .LBB10_37
.Ltmp809:
.LBB10_4:
	{
		mov r1, r3
		mov r8, r3
	}
	{
		nop
		ldw r4, sp[28]
	}
	{
		nop
		ldw r5, sp[27]
	}
.Ltmp810:

	.xtabranch .Ljumptable2+4,.Ljumptable2+8,.Ljumptable2+12,.Ljumptable2+16,.Ljumptable2+20,.Ljumptable2+24,.Ljumptable2+28,.Ljumptable2+32,.Ljumptable2+36,.Ljumptable2+40,.Ljumptable2+44,.Ljumptable2+48,.Ljumptable2+52,.Ljumptable2+56,.Ljumptable2+60,.Ljumptable2+64,.Ljumptable2+68,.Ljumptable2+72,.Ljumptable2+76,.Ljumptable2+80,.Ljumptable2+84,.Ljumptable2+88,.Ljumptable2+92,.Ljumptable2+96,.Ljumptable2+100,.Ljumptable2+104,.Ljumptable2+108,.Ljumptable2+112,.Ljumptable2+116,.Ljumptable2+120,.Ljumptable2+124,.Ljumptable2+128
.Ljumptable2:
		
	{
		nop
		bru r2
	}
	.jmptable32 .LBB10_36,.LBB10_35,.LBB10_34,.LBB10_33,.LBB10_32,.LBB10_31,.LBB10_30,.LBB10_29,.LBB10_28,.LBB10_27,.LBB10_26,.LBB10_25,.LBB10_24,.LBB10_23,.LBB10_22,.LBB10_21,.LBB10_20,.LBB10_19,.LBB10_18,.LBB10_17,.LBB10_16,.LBB10_15,.LBB10_14,.LBB10_13,.LBB10_12,.LBB10_11,.LBB10_10,.LBB10_9,.LBB10_8,.LBB10_7,.LBB10_6,.LBB10_5
.Ltmp811:
.LBB10_5:
	{
		nop
		ldw r0, sp[1]
	}
	{
		nop
		ldw r2, r0[0]
	}
	{
		nop
		ldw r0, sp[29]
	}
	{
		add r0, r0, r6
		nop
	}
	.loc	4 844 13
.Ltmp812:
	{
		ldc r1, 0
		ldw r3, r0[0]
	}
	.loc	4 844 13
	{
		mov r0, r1
		nop
	}
	maccs r1, r0, r3, r2
.Ltmp813:
.LBB10_6:
	{
		nop
		ldw r2, sp[2]
	}
	{
		nop
		ldw r2, r2[0]
	}
	{
		nop
		ldw r3, sp[29]
	}
	{
		add r3, r3, r6
		nop
	}
	{
		nop
		ldw r3, r3[1]
	}
	.loc	4 845 13
	maccs r1, r0, r3, r2
.Ltmp814:
.LBB10_7:
	{
		nop
		ldw r2, sp[3]
	}
	{
		nop
		ldw r2, r2[0]
	}
	{
		nop
		ldw r3, sp[29]
	}
	{
		add r3, r3, r6
		nop
	}
	{
		nop
		ldw r3, r3[2]
	}
	.loc	4 846 13
	maccs r1, r0, r3, r2
.Ltmp815:
.LBB10_8:
	{
		nop
		ldw r2, sp[4]
	}
	{
		nop
		ldw r2, r2[0]
	}
	{
		nop
		ldw r3, sp[29]
	}
	{
		add r3, r3, r6
		nop
	}
	{
		nop
		ldw r3, r3[3]
	}
	.loc	4 847 13
	maccs r1, r0, r3, r2
.Ltmp816:
.LBB10_9:
	{
		nop
		ldw r2, sp[6]
	}
	{
		nop
		ldw r2, r2[0]
	}
	{
		nop
		ldw r3, sp[5]
	}
	{
		add r3, r3, r6
		nop
	}
	{
		nop
		ldw r3, r3[0]
	}
	.loc	4 848 13
	maccs r1, r0, r3, r2
.Ltmp817:
.LBB10_10:
	{
		nop
		ldw r2, sp[7]
	}
	{
		nop
		ldw r2, r2[0]
	}
	{
		nop
		ldw r3, sp[29]
	}
	{
		add r3, r3, r6
		nop
	}
	{
		nop
		ldw r3, r3[5]
	}
	.loc	4 849 13
	maccs r1, r0, r3, r2
.Ltmp818:
.LBB10_11:
	{
		nop
		ldw r2, sp[8]
	}
	{
		nop
		ldw r2, r2[0]
	}
	{
		nop
		ldw r3, sp[29]
	}
	{
		add r3, r3, r6
		nop
	}
	{
		nop
		ldw r3, r3[6]
	}
	.loc	4 850 13
	maccs r1, r0, r3, r2
.Ltmp819:
.LBB10_12:
	{
		nop
		ldw r2, sp[9]
	}
	{
		nop
		ldw r2, r2[0]
	}
	{
		nop
		ldw r3, sp[29]
	}
	{
		add r3, r3, r6
		nop
	}
	{
		nop
		ldw r3, r3[7]
	}
	.loc	4 851 13
	maccs r1, r0, r3, r2
.Ltmp820:
.LBB10_13:
	{
		nop
		ldw r2, sp[11]
	}
	{
		nop
		ldw r2, r2[0]
	}
	{
		nop
		ldw r3, sp[10]
	}
	{
		add r3, r3, r6
		nop
	}
	{
		nop
		ldw r3, r3[0]
	}
	.loc	4 852 13
	maccs r1, r0, r3, r2
.Ltmp821:
.LBB10_14:
	{
		nop
		ldw r2, sp[12]
	}
	{
		nop
		ldw r2, r2[0]
	}
	{
		nop
		ldw r3, sp[29]
	}
	{
		add r3, r3, r6
		nop
	}
	{
		nop
		ldw r3, r3[9]
	}
	.loc	4 853 13
	maccs r1, r0, r3, r2
.Ltmp822:
.LBB10_15:
	{
		nop
		ldw r2, sp[13]
	}
	{
		nop
		ldw r2, r2[0]
	}
	{
		nop
		ldw r3, sp[29]
	}
	{
		add r3, r3, r6
		nop
	}
	{
		nop
		ldw r3, r3[10]
	}
	.loc	4 854 13
	maccs r1, r0, r3, r2
.Ltmp823:
.LBB10_16:
	{
		nop
		ldw r2, sp[14]
	}
	{
		nop
		ldw r2, r2[0]
	}
	{
		nop
		ldw r3, sp[29]
	}
	{
		add r3, r3, r6
		nop
	}
	{
		nop
		ldw r3, r3[11]
	}
	.loc	4 855 13
	maccs r1, r0, r3, r2
.Ltmp824:
.LBB10_17:
	{
		nop
		ldw r2, sp[16]
	}
	{
		nop
		ldw r2, r2[0]
	}
	{
		nop
		ldw r3, sp[15]
	}
	{
		add r3, r3, r6
		nop
	}
	{
		nop
		ldw r3, r3[0]
	}
	.loc	4 856 13
	maccs r1, r0, r3, r2
.Ltmp825:
.LBB10_18:
	{
		nop
		ldw r2, sp[18]
	}
	{
		nop
		ldw r2, r2[0]
	}
	{
		nop
		ldw r3, sp[17]
	}
	{
		add r3, r3, r6
		nop
	}
	{
		nop
		ldw r3, r3[0]
	}
	.loc	4 857 13
	maccs r1, r0, r3, r2
.Ltmp826:
.LBB10_19:
	{
		nop
		ldw r2, sp[20]
	}
	{
		nop
		ldw r2, r2[0]
	}
	{
		nop
		ldw r3, sp[19]
	}
	{
		add r3, r3, r6
		nop
	}
	{
		nop
		ldw r3, r3[0]
	}
	.loc	4 858 13
	maccs r1, r0, r3, r2
.Ltmp827:
.LBB10_20:
	{
		nop
		ldw r2, sp[22]
	}
	{
		nop
		ldw r2, r2[0]
	}
	{
		nop
		ldw r3, sp[21]
	}
	{
		add r3, r3, r6
		nop
	}
	{
		nop
		ldw r3, r3[0]
	}
	.loc	4 859 13
	maccs r1, r0, r3, r2
.Ltmp828:
.LBB10_21:
	{
		nop
		ldw r2, sp[23]
	}
	.loc	4 860 13
	{
		add r3, r4, r6
		ldw r2, r2[0]
	}
	{
		nop
		ldw r3, r3[0]
	}
	.loc	4 860 13
	maccs r1, r0, r3, r2
.Ltmp829:
.LBB10_22:
	{
		nop
		ldw r2, sp[24]
	}
	.loc	4 861 13
	{
		add r3, r4, r6
		ldw r2, r2[0]
	}
	{
		nop
		ldw r3, r3[1]
	}
	.loc	4 861 13
	maccs r1, r0, r3, r2
.Ltmp830:
.LBB10_23:
	{
		nop
		ldw r2, sp[25]
	}
	.loc	4 862 13
	{
		add r3, r4, r6
		ldw r2, r2[0]
	}
	{
		nop
		ldw r3, r3[2]
	}
	.loc	4 862 13
	maccs r1, r0, r3, r2
.Ltmp831:
.LBB10_24:
	{
		nop
		ldw r2, sp[26]
	}
	.loc	4 863 13
	{
		add r3, r4, r6
		ldw r2, r2[0]
	}
	{
		nop
		ldw r3, r3[3]
	}
	.loc	4 863 13
	maccs r1, r0, r3, r2
.Ltmp832:
.LBB10_25:
	.loc	4 864 13
	{
		add r3, r11, r6
		ldw r2, r5[11]
	}
	ldaw r3, r3[-11]
	{
		nop
		ldw r3, r3[0]
	}
	.loc	4 864 13
	maccs r1, r0, r3, r2
.Ltmp833:
.LBB10_26:
	.loc	4 865 13
	{
		add r3, r4, r6
		ldw r2, r5[10]
	}
	{
		nop
		ldw r3, r3[5]
	}
	.loc	4 865 13
	maccs r1, r0, r3, r2
.Ltmp834:
.LBB10_27:
	.loc	4 866 13
	{
		add r3, r4, r6
		ldw r2, r5[9]
	}
	{
		nop
		ldw r3, r3[6]
	}
	.loc	4 866 13
	maccs r1, r0, r3, r2
.Ltmp835:
.LBB10_28:
	.loc	4 867 13
	{
		add r3, r4, r6
		ldw r2, r5[8]
	}
	{
		nop
		ldw r3, r3[7]
	}
	.loc	4 867 13
	maccs r1, r0, r3, r2
.Ltmp836:
.LBB10_29:
	.loc	4 868 13
	{
		add r3, r11, r6
		ldw r2, r5[7]
	}
	ldaw r3, r3[-7]
	{
		nop
		ldw r3, r3[0]
	}
	.loc	4 868 13
	maccs r1, r0, r3, r2
.Ltmp837:
.LBB10_30:
	.loc	4 869 13
	{
		add r3, r4, r6
		ldw r2, r5[6]
	}
	{
		nop
		ldw r3, r3[9]
	}
	.loc	4 869 13
	maccs r1, r0, r3, r2
.Ltmp838:
.LBB10_31:
	.loc	4 870 13
	{
		add r3, r4, r6
		ldw r2, r5[5]
	}
	{
		nop
		ldw r3, r3[10]
	}
	.loc	4 870 13
	maccs r1, r0, r3, r2
.Ltmp839:
.LBB10_32:
	.loc	4 871 13
	{
		add r3, r4, r6
		ldw r2, r5[4]
	}
	{
		nop
		ldw r3, r3[11]
	}
	.loc	4 871 13
	maccs r1, r0, r3, r2
.Ltmp840:
.LBB10_33:
	.loc	4 872 13
	{
		add r3, r11, r6
		ldw r2, r5[3]
	}
	ldaw r3, r3[-3]
	{
		nop
		ldw r3, r3[0]
	}
	.loc	4 872 13
	maccs r1, r0, r3, r2
.Ltmp841:
.LBB10_34:
	.loc	4 873 13
	{
		add r3, r11, r6
		ldw r2, r5[2]
	}
	{
		sub r3, r3, 8
		nop
	}
	{
		nop
		ldw r3, r3[0]
	}
	.loc	4 873 13
	maccs r1, r0, r3, r2
.Ltmp842:
.LBB10_35:
	.loc	4 874 13
	{
		add r3, r11, r6
		ldw r2, r5[1]
	}
	{
		sub r3, r3, 4
		nop
	}
	{
		nop
		ldw r3, r3[0]
	}
	.loc	4 874 13
	maccs r1, r0, r3, r2
.Ltmp843:
.LBB10_36:
	.loc	4 875 13
	{
		add r3, r11, r6
		ldw r2, r5[0]
	}
	{
		mov r10, r11
		ldw r3, r3[0]
	}
	.loc	4 875 13
	maccs r1, r0, r3, r2
	{
		mov r5, r8
		nop
	}
.Ltmp844:
.LBB10_37:
	{
		add r2, r7, r6
		mov r8, r7
	}
.Ltmp845:
	{
		nop
		ldw r7, r2[0]
	}
	.loc	4 877 3
	ashr r4, r7, 32
	{
		nop
		ldw r2, sp[41]
	}
	.loc	4 877 3
	bl __ashrdi3
	.loc	4 877 3
	lsub r2, r0, r7, r0, r5
	lsub r1, r2, r4, r1, r2
	ldw r1, cp[.LCPI10_8]
	.loc	4 879 6
.Ltmp846:
	ladd r3, r1, r0, r1, r5
	{
		add r2, r2, r3
		mov r3, r5
	}
	.loc	4 879 6
	bt r2, .LBB10_38
.Ltmp847:
	{
		mkmsk r2, 32
		nop
	}
	{
		eq r1, r1, r2
		nop
	}
	bu .LBB10_40
.Ltmp848:
.LBB10_38:
	{
		eq r1, r2, 0
		nop
	}
	{
		eq r1, r1, 0
		nop
	}
.Ltmp849:
.LBB10_40:
	{
		mov r7, r8
		nop
	}
.Ltmp850:
	.loc	4 879 6
	bt r1, .LBB10_41
.Ltmp851:
	{
		nop
		ldw r1, sp[42]
	}
	{
		add r1, r1, r6
		nop
	}
.Ltmp852:
	.loc	4 882 4
	{
		add r9, r9, 1
		stw r0, r1[0]
	}
.Ltmp853:
	.loc	4 841 2
	{
		add r6, r6, 4
		ldw r0, sp[30]
	}
	.loc	4 841 2
	{
		lss r0, r9, r0
		mov r11, r10
	}
	bt r0, .LBB10_2
.Ltmp854:
	{
		mkmsk r0, 1
		nop
	}
	bu .LBB10_44
.LBB10_41:
.Ltmp855:
	{
		mov r0, r3
		nop
	}
.LBB10_44:
	{
		nop
		ldw r10, sp[38]
	}
	{
		nop
		ldw r8, sp[36]
	}
	{
		nop
		ldw r9, sp[37]
	}
	{
		nop
		ldw r6, sp[34]
	}
	{
		nop
		ldw r7, sp[35]
	}
	{
		nop
		ldw r4, sp[32]
	}
	{
		nop
		ldw r5, sp[33]
	}
	{
		nop
		retsp 40
	}
	.loc	4 885 1
	# RETURN_REG_HOLDER
.Ltmp856:
	.cc_bottom FLAC__lpc_compute_residual_from_qlp_coefficients_limit_residual.function
	.set	FLAC__lpc_compute_residual_from_qlp_coefficients_limit_residual.nstackwords,((assert.nstackwords $M __ashrdi3.nstackwords) + 40)
	.globl	FLAC__lpc_compute_residual_from_qlp_coefficients_limit_residual.nstackwords
	.set	FLAC__lpc_compute_residual_from_qlp_coefficients_limit_residual.maxcores,1
	.globl	FLAC__lpc_compute_residual_from_qlp_coefficients_limit_residual.maxcores
	.set	FLAC__lpc_compute_residual_from_qlp_coefficients_limit_residual.maxtimers,0
	.globl	FLAC__lpc_compute_residual_from_qlp_coefficients_limit_residual.maxtimers
	.set	FLAC__lpc_compute_residual_from_qlp_coefficients_limit_residual.maxchanends,0
	.globl	FLAC__lpc_compute_residual_from_qlp_coefficients_limit_residual.maxchanends
.Ltmp857:
	.size	FLAC__lpc_compute_residual_from_qlp_coefficients_limit_residual, .Ltmp857-FLAC__lpc_compute_residual_from_qlp_coefficients_limit_residual
.Lfunc_end10:
	.cfi_endproc

	.section	.cp.rodata.cst4,"aMc",@progbits,4
	.cc_top .LCPI11_0.data,.LCPI11_0
	.align	4
	.type	.LCPI11_0,@object
	.size	.LCPI11_0, 4
.LCPI11_0:
	.long	4294967040
	.cc_bottom .LCPI11_0.data
	.cc_top .LCPI11_1.data,.LCPI11_1
	.align	4
	.type	.LCPI11_1,@object
	.size	.LCPI11_1, 4
.LCPI11_1:
	.long	4294967048
	.cc_bottom .LCPI11_1.data
	.cc_top .LCPI11_2.data,.LCPI11_2
	.align	4
	.type	.LCPI11_2,@object
	.size	.LCPI11_2, 4
.LCPI11_2:
	.long	4294967056
	.cc_bottom .LCPI11_2.data
	.cc_top .LCPI11_3.data,.LCPI11_3
	.align	4
	.type	.LCPI11_3,@object
	.size	.LCPI11_3, 4
.LCPI11_3:
	.long	4294967064
	.cc_bottom .LCPI11_3.data
	.cc_top .LCPI11_4.data,.LCPI11_4
	.align	4
	.type	.LCPI11_4,@object
	.size	.LCPI11_4, 4
.LCPI11_4:
	.long	4294967072
	.cc_bottom .LCPI11_4.data
	.cc_top .LCPI11_5.data,.LCPI11_5
	.align	4
	.type	.LCPI11_5,@object
	.size	.LCPI11_5, 4
.LCPI11_5:
	.long	4294967080
	.cc_bottom .LCPI11_5.data
	.cc_top .LCPI11_6.data,.LCPI11_6
	.align	4
	.type	.LCPI11_6,@object
	.size	.LCPI11_6, 4
.LCPI11_6:
	.long	4294967088
	.cc_bottom .LCPI11_6.data
	.cc_top .LCPI11_7.data,.LCPI11_7
	.align	4
	.type	.LCPI11_7,@object
	.size	.LCPI11_7, 4
.LCPI11_7:
	.long	4294967096
	.cc_bottom .LCPI11_7.data
	.cc_top .LCPI11_8.data,.LCPI11_8
	.align	4
	.type	.LCPI11_8,@object
	.size	.LCPI11_8, 4
.LCPI11_8:
	.long	4294967104
	.cc_bottom .LCPI11_8.data
	.cc_top .LCPI11_9.data,.LCPI11_9
	.align	4
	.type	.LCPI11_9,@object
	.size	.LCPI11_9, 4
.LCPI11_9:
	.long	4294967112
	.cc_bottom .LCPI11_9.data
	.cc_top .LCPI11_10.data,.LCPI11_10
	.align	4
	.type	.LCPI11_10,@object
	.size	.LCPI11_10, 4
.LCPI11_10:
	.long	4294967120
	.cc_bottom .LCPI11_10.data
	.cc_top .LCPI11_11.data,.LCPI11_11
	.align	4
	.type	.LCPI11_11,@object
	.size	.LCPI11_11, 4
.LCPI11_11:
	.long	4294967128
	.cc_bottom .LCPI11_11.data
	.cc_top .LCPI11_12.data,.LCPI11_12
	.align	4
	.type	.LCPI11_12,@object
	.size	.LCPI11_12, 4
.LCPI11_12:
	.long	4294967136
	.cc_bottom .LCPI11_12.data
	.cc_top .LCPI11_13.data,.LCPI11_13
	.align	4
	.type	.LCPI11_13,@object
	.size	.LCPI11_13, 4
.LCPI11_13:
	.long	4294967144
	.cc_bottom .LCPI11_13.data
	.cc_top .LCPI11_14.data,.LCPI11_14
	.align	4
	.type	.LCPI11_14,@object
	.size	.LCPI11_14, 4
.LCPI11_14:
	.long	4294967152
	.cc_bottom .LCPI11_14.data
	.cc_top .LCPI11_15.data,.LCPI11_15
	.align	4
	.type	.LCPI11_15,@object
	.size	.LCPI11_15, 4
.LCPI11_15:
	.long	4294967160
	.cc_bottom .LCPI11_15.data
	.cc_top .LCPI11_16.data,.LCPI11_16
	.align	4
	.type	.LCPI11_16,@object
	.size	.LCPI11_16, 4
.LCPI11_16:
	.long	4294967168
	.cc_bottom .LCPI11_16.data
	.cc_top .LCPI11_17.data,.LCPI11_17
	.align	4
	.type	.LCPI11_17,@object
	.size	.LCPI11_17, 4
.LCPI11_17:
	.long	4294967176
	.cc_bottom .LCPI11_17.data
	.cc_top .LCPI11_18.data,.LCPI11_18
	.align	4
	.type	.LCPI11_18,@object
	.size	.LCPI11_18, 4
.LCPI11_18:
	.long	4294967184
	.cc_bottom .LCPI11_18.data
	.cc_top .LCPI11_19.data,.LCPI11_19
	.align	4
	.type	.LCPI11_19,@object
	.size	.LCPI11_19, 4
.LCPI11_19:
	.long	4294967192
	.cc_bottom .LCPI11_19.data
	.cc_top .LCPI11_20.data,.LCPI11_20
	.align	4
	.type	.LCPI11_20,@object
	.size	.LCPI11_20, 4
.LCPI11_20:
	.long	4294967200
	.cc_bottom .LCPI11_20.data
	.cc_top .LCPI11_21.data,.LCPI11_21
	.align	4
	.type	.LCPI11_21,@object
	.size	.LCPI11_21, 4
.LCPI11_21:
	.long	4294967208
	.cc_bottom .LCPI11_21.data
	.cc_top .LCPI11_22.data,.LCPI11_22
	.align	4
	.type	.LCPI11_22,@object
	.size	.LCPI11_22, 4
.LCPI11_22:
	.long	4294967216
	.cc_bottom .LCPI11_22.data
	.cc_top .LCPI11_23.data,.LCPI11_23
	.align	4
	.type	.LCPI11_23,@object
	.size	.LCPI11_23, 4
.LCPI11_23:
	.long	4294967224
	.cc_bottom .LCPI11_23.data
	.cc_top .LCPI11_24.data,.LCPI11_24
	.align	4
	.type	.LCPI11_24,@object
	.size	.LCPI11_24, 4
.LCPI11_24:
	.long	4294967232
	.cc_bottom .LCPI11_24.data
	.cc_top .LCPI11_25.data,.LCPI11_25
	.align	4
	.type	.LCPI11_25,@object
	.size	.LCPI11_25, 4
.LCPI11_25:
	.long	4294967240
	.cc_bottom .LCPI11_25.data
	.cc_top .LCPI11_26.data,.LCPI11_26
	.align	4
	.type	.LCPI11_26,@object
	.size	.LCPI11_26, 4
.LCPI11_26:
	.long	4294967248
	.cc_bottom .LCPI11_26.data
	.cc_top .LCPI11_27.data,.LCPI11_27
	.align	4
	.type	.LCPI11_27,@object
	.size	.LCPI11_27, 4
.LCPI11_27:
	.long	2147483647
	.cc_bottom .LCPI11_27.data
	.text
	.globl	FLAC__lpc_compute_residual_from_qlp_coefficients_limit_residual_33bit
	.align	4
	.type	FLAC__lpc_compute_residual_from_qlp_coefficients_limit_residual_33bit,@function
	.cc_top FLAC__lpc_compute_residual_from_qlp_coefficients_limit_residual_33bit.function,FLAC__lpc_compute_residual_from_qlp_coefficients_limit_residual_33bit
FLAC__lpc_compute_residual_from_qlp_coefficients_limit_residual_33bit:
.Lfunc_begin11:
	.loc	4 888 0
	.cfi_startproc
	.issue_mode dual
	{
		nop
		dualentsp 56
	}
.Ltmp858:
	.cfi_def_cfa_offset 224
.Ltmp859:
	.cfi_offset 15, 0
	{
		nop
		stw r4, sp[48]
	}
	{
		nop
		stw r5, sp[49]
	}
.Ltmp860:
	.cfi_offset 4, -32
.Ltmp861:
	.cfi_offset 5, -28
	{
		nop
		stw r6, sp[50]
	}
	{
		nop
		stw r7, sp[51]
	}
.Ltmp862:
	.cfi_offset 6, -24
.Ltmp863:
	.cfi_offset 7, -20
	{
		nop
		stw r8, sp[52]
	}
	{
		nop
		stw r9, sp[53]
	}
.Ltmp864:
	.cfi_offset 8, -16
.Ltmp865:
	.cfi_offset 9, -12
.Ltmp866:
	.cfi_offset 10, -8
.Ltmp867:
	{
		mov r6, r3
		stw r10, sp[54]
	}
.Ltmp868:
	{
		mov r4, r2
		stw r6, sp[23]
	}
.Ltmp869:
	{
		mov r5, r1
		stw r4, sp[46]
	}
.Ltmp870:
	{
		mov r8, r0
		stw r5, sp[40]
	}
.Ltmp871:
	.loc	4 892 2 prologue_end
	{
		eq r0, r6, 0
		nop
	}
	{
		eq r0, r0, 0
		nop
	}
	.loc	4 892 2
	bl assert
	{
		ldc r0, 33
		nop
	}
	.loc	4 893 2
	{
		lsu r0, r6, r0
		nop
	}
	.loc	4 893 2
	bl assert
.Ltmp872:
	{
		mkmsk r0, 1
		nop
	}
	.loc	4 895 2
.Ltmp873:
	{
		lss r1, r5, r0
		nop
	}
.Ltmp874:
	bt r1, .LBB11_44
.Ltmp875:
	{
		nop
		ldw r9, sp[58]
	}
	{
		nop
		ldw r10, sp[57]
	}
	ldc r0, 124
	.loc	4 898 13
.Ltmp876:
	{
		add r0, r4, r0
		nop
	}
	{
		nop
		stw r0, sp[1]
	}
	ldc r0, 120
	.loc	4 899 13
	{
		add r0, r4, r0
		nop
	}
	{
		nop
		stw r0, sp[2]
	}
	ldc r0, 116
	.loc	4 900 13
	{
		add r0, r4, r0
		nop
	}
	{
		nop
		stw r0, sp[3]
	}
	ldc r0, 112
	.loc	4 901 13
	{
		add r0, r4, r0
		nop
	}
	{
		nop
		stw r0, sp[4]
	}
	ldc r0, 108
	.loc	4 902 13
	{
		add r0, r4, r0
		nop
	}
	{
		nop
		stw r0, sp[5]
	}
	ldc r0, 104
	.loc	4 903 13
	{
		add r0, r4, r0
		nop
	}
	{
		nop
		stw r0, sp[6]
	}
	ldc r0, 100
	.loc	4 904 13
	{
		add r0, r4, r0
		nop
	}
	{
		nop
		stw r0, sp[7]
	}
	ldc r0, 96
	.loc	4 905 13
	{
		add r0, r4, r0
		nop
	}
	{
		nop
		stw r0, sp[8]
	}
	ldc r0, 92
	.loc	4 906 13
	{
		add r0, r4, r0
		nop
	}
	{
		nop
		stw r0, sp[9]
	}
	ldc r0, 88
	.loc	4 907 13
	{
		add r0, r4, r0
		nop
	}
	{
		nop
		stw r0, sp[10]
	}
	ldc r0, 84
	.loc	4 908 13
	{
		add r0, r4, r0
		nop
	}
	{
		nop
		stw r0, sp[11]
	}
	ldc r0, 80
	.loc	4 909 13
	{
		add r0, r4, r0
		nop
	}
	{
		nop
		stw r0, sp[12]
	}
	ldc r0, 76
	.loc	4 910 13
	{
		add r0, r4, r0
		nop
	}
	{
		nop
		stw r0, sp[13]
	}
	ldc r0, 72
	.loc	4 911 13
	{
		add r0, r4, r0
		nop
	}
	{
		nop
		stw r0, sp[14]
	}
	ldc r0, 68
	.loc	4 912 13
	{
		add r0, r4, r0
		nop
	}
	{
		nop
		stw r0, sp[15]
	}
	ldc r0, 64
	.loc	4 913 13
	{
		add r0, r4, r0
		nop
	}
	{
		ldc r0, 60
		stw r0, sp[16]
	}
	.loc	4 914 13
	{
		add r0, r4, r0
		nop
	}
	{
		ldc r0, 56
		stw r0, sp[17]
	}
	.loc	4 915 13
	{
		add r0, r4, r0
		nop
	}
	{
		ldc r0, 52
		stw r0, sp[18]
	}
	.loc	4 916 13
	{
		add r0, r4, r0
		nop
	}
	{
		ldc r0, 48
		stw r0, sp[19]
	}
	.loc	4 917 13
	{
		add r0, r4, r0
		nop
	}
	{
		ldc r11, 0
		stw r0, sp[20]
	}
	{
		mov r1, r11
		nop
	}
.Ltmp877:
.LBB11_2:
	{
		mov r0, r11
		stw r1, sp[45]
	}
	.loc	4 897 3
	{
		sub r2, r6, 1
		nop
	}
	{
		shr r1, r2, 5
		nop
	}
	bf r1, .LBB11_4
.Ltmp878:
	{
		mov r1, r11
		mov r7, r11
	}
	bu .LBB11_37
.Ltmp879:
.LBB11_4:
	{
		nop
		stw r11, sp[21]
	}
	{
		nop
		stw r11, sp[22]
	}
	{
		nop
		stw r11, sp[24]
	}
	{
		nop
		stw r11, sp[25]
	}
	{
		nop
		stw r11, sp[26]
	}
	{
		nop
		stw r11, sp[27]
	}
	{
		nop
		stw r11, sp[28]
	}
	{
		nop
		stw r11, sp[29]
	}
	{
		nop
		stw r11, sp[30]
	}
	{
		nop
		stw r11, sp[31]
	}
	{
		nop
		stw r11, sp[32]
	}
	{
		nop
		stw r11, sp[33]
	}
	{
		nop
		stw r11, sp[34]
	}
	{
		nop
		stw r11, sp[35]
	}
	{
		nop
		stw r11, sp[36]
	}
	{
		nop
		stw r11, sp[38]
	}
	{
		nop
		stw r11, sp[39]
	}
	{
		nop
		stw r11, sp[41]
	}
	{
		nop
		stw r11, sp[42]
	}
	{
		nop
		stw r11, sp[43]
	}
	{
		mov r10, r11
		stw r11, sp[44]
	}
	{
		mov r6, r11
		stw r8, sp[47]
	}
	{
		mov r9, r11
		mov r7, r11
	}
	{
		mov r1, r11
		stw r2, sp[37]
	}
	{
		mov r2, r11
		mov r3, r11
	}
	{
		mov r8, r11
		nop
	}
	{
		mov r4, r8
		ldw r5, sp[37]
	}

	.xtabranch .Ljumptable3+4,.Ljumptable3+8,.Ljumptable3+12,.Ljumptable3+16,.Ljumptable3+20,.Ljumptable3+24,.Ljumptable3+28,.Ljumptable3+32,.Ljumptable3+36,.Ljumptable3+40,.Ljumptable3+44,.Ljumptable3+48,.Ljumptable3+52,.Ljumptable3+56,.Ljumptable3+60,.Ljumptable3+64,.Ljumptable3+68,.Ljumptable3+72,.Ljumptable3+76,.Ljumptable3+80,.Ljumptable3+84,.Ljumptable3+88,.Ljumptable3+92,.Ljumptable3+96,.Ljumptable3+100,.Ljumptable3+104,.Ljumptable3+108,.Ljumptable3+112,.Ljumptable3+116,.Ljumptable3+120,.Ljumptable3+124,.Ljumptable3+128
.Ljumptable3:
		
	{
		nop
		bru r5
	}
	.jmptable32 .LBB11_36,.LBB11_35,.LBB11_34,.LBB11_33,.LBB11_32,.LBB11_31,.LBB11_30,.LBB11_29,.LBB11_28,.LBB11_27,.LBB11_26,.LBB11_25,.LBB11_24,.LBB11_23,.LBB11_22,.LBB11_21,.LBB11_20,.LBB11_19,.LBB11_18,.LBB11_17,.LBB11_16,.LBB11_15,.LBB11_14,.LBB11_13,.LBB11_12,.LBB11_11,.LBB11_10,.LBB11_9,.LBB11_8,.LBB11_7,.LBB11_6,.LBB11_5
.Ltmp880:
.LBB11_5:
	{
		nop
		ldw r0, sp[1]
	}
	{
		nop
		ldw r1, r0[0]
	}
	.loc	4 898 13
.Ltmp881:
	ashr r2, r1, 32
	ldw r0, cp[.LCPI11_0]
	{
		nop
		ldw r3, sp[47]
	}
	{
		add r0, r3, r0
		nop
	}
	.loc	4 898 13
	ldd r11, r3, r0[0]
	{
		ldc r0, 0
		nop
	}
	.loc	4 898 13
	lmul r4, r0, r1, r3, r0, r0
	mul r1, r1, r11
	{
		add r1, r4, r1
		nop
	}
	mul r2, r2, r3
	{
		add r1, r1, r2
		nop
	}
	{
		nop
		stw r1, sp[21]
	}
.Ltmp882:
.LBB11_6:
	{
		nop
		ldw r1, sp[2]
	}
	{
		nop
		ldw r1, r1[0]
	}
	.loc	4 899 13
	ashr r2, r1, 32
	ldw r3, cp[.LCPI11_1]
	{
		nop
		ldw r11, sp[47]
	}
	{
		add r3, r11, r3
		nop
	}
	.loc	4 899 13
	ldd r11, r3, r3[0]
	.loc	4 899 13
	mul r2, r2, r3
	mul r11, r1, r11
	{
		nop
		ldw r4, sp[21]
	}
	.loc	4 899 13
	maccu r4, r0, r1, r3
	{
		add r1, r4, r11
		nop
	}
	{
		add r1, r1, r2
		nop
	}
	{
		nop
		stw r1, sp[22]
	}
.Ltmp883:
.LBB11_7:
	{
		nop
		ldw r1, sp[3]
	}
	{
		nop
		ldw r1, r1[0]
	}
	.loc	4 900 13
	ashr r2, r1, 32
	ldw r3, cp[.LCPI11_2]
	{
		nop
		ldw r11, sp[47]
	}
	{
		add r3, r11, r3
		nop
	}
	.loc	4 900 13
	ldd r11, r3, r3[0]
	.loc	4 900 13
	mul r2, r2, r3
	mul r11, r1, r11
	{
		nop
		ldw r4, sp[22]
	}
	.loc	4 900 13
	maccu r4, r0, r1, r3
	{
		add r1, r4, r11
		nop
	}
	{
		add r1, r1, r2
		nop
	}
	{
		nop
		stw r1, sp[24]
	}
.Ltmp884:
.LBB11_8:
	{
		nop
		ldw r1, sp[4]
	}
	{
		nop
		ldw r1, r1[0]
	}
	.loc	4 901 13
	ashr r2, r1, 32
	ldw r3, cp[.LCPI11_3]
	{
		nop
		ldw r11, sp[47]
	}
	{
		add r3, r11, r3
		nop
	}
	.loc	4 901 13
	ldd r11, r3, r3[0]
	.loc	4 901 13
	mul r2, r2, r3
	mul r11, r1, r11
	{
		nop
		ldw r4, sp[24]
	}
	.loc	4 901 13
	maccu r4, r0, r1, r3
	{
		add r1, r4, r11
		nop
	}
	{
		add r1, r1, r2
		nop
	}
	{
		nop
		stw r1, sp[25]
	}
.Ltmp885:
.LBB11_9:
	{
		nop
		ldw r1, sp[5]
	}
	{
		nop
		ldw r1, r1[0]
	}
	.loc	4 902 13
	ashr r2, r1, 32
	ldw r3, cp[.LCPI11_4]
	{
		nop
		ldw r11, sp[47]
	}
	{
		add r3, r11, r3
		nop
	}
	.loc	4 902 13
	ldd r11, r3, r3[0]
	.loc	4 902 13
	mul r2, r2, r3
	mul r11, r1, r11
	{
		nop
		ldw r4, sp[25]
	}
	.loc	4 902 13
	maccu r4, r0, r1, r3
	{
		add r1, r4, r11
		nop
	}
	{
		add r1, r1, r2
		nop
	}
	{
		nop
		stw r1, sp[26]
	}
.Ltmp886:
.LBB11_10:
	{
		nop
		ldw r1, sp[6]
	}
	{
		nop
		ldw r1, r1[0]
	}
	.loc	4 903 13
	ashr r2, r1, 32
	ldw r3, cp[.LCPI11_5]
	{
		nop
		ldw r11, sp[47]
	}
	{
		add r3, r11, r3
		nop
	}
	.loc	4 903 13
	ldd r11, r3, r3[0]
	.loc	4 903 13
	mul r2, r2, r3
	mul r11, r1, r11
	{
		nop
		ldw r4, sp[26]
	}
	.loc	4 903 13
	maccu r4, r0, r1, r3
	{
		add r1, r4, r11
		nop
	}
	{
		add r1, r1, r2
		nop
	}
	{
		nop
		stw r1, sp[27]
	}
.Ltmp887:
.LBB11_11:
	{
		nop
		ldw r1, sp[7]
	}
	{
		nop
		ldw r1, r1[0]
	}
	.loc	4 904 13
	ashr r2, r1, 32
	ldw r3, cp[.LCPI11_6]
	{
		nop
		ldw r11, sp[47]
	}
	{
		add r3, r11, r3
		nop
	}
	.loc	4 904 13
	ldd r11, r3, r3[0]
	.loc	4 904 13
	mul r2, r2, r3
	mul r11, r1, r11
	{
		nop
		ldw r4, sp[27]
	}
	.loc	4 904 13
	maccu r4, r0, r1, r3
	{
		add r1, r4, r11
		nop
	}
	{
		add r1, r1, r2
		nop
	}
	{
		nop
		stw r1, sp[28]
	}
.Ltmp888:
.LBB11_12:
	{
		nop
		ldw r1, sp[8]
	}
	{
		nop
		ldw r1, r1[0]
	}
	.loc	4 905 13
	ashr r2, r1, 32
	ldw r3, cp[.LCPI11_7]
	{
		nop
		ldw r11, sp[47]
	}
	{
		add r3, r11, r3
		nop
	}
	.loc	4 905 13
	ldd r11, r3, r3[0]
	.loc	4 905 13
	mul r2, r2, r3
	mul r11, r1, r11
	{
		nop
		ldw r4, sp[28]
	}
	.loc	4 905 13
	maccu r4, r0, r1, r3
	{
		add r1, r4, r11
		nop
	}
	{
		add r1, r1, r2
		nop
	}
	{
		nop
		stw r1, sp[29]
	}
.Ltmp889:
.LBB11_13:
	{
		nop
		ldw r1, sp[9]
	}
	{
		nop
		ldw r1, r1[0]
	}
	.loc	4 906 13
	ashr r2, r1, 32
	ldw r3, cp[.LCPI11_8]
	{
		nop
		ldw r11, sp[47]
	}
	{
		add r3, r11, r3
		nop
	}
	.loc	4 906 13
	ldd r11, r3, r3[0]
	.loc	4 906 13
	mul r2, r2, r3
	mul r11, r1, r11
	{
		nop
		ldw r4, sp[29]
	}
	.loc	4 906 13
	maccu r4, r0, r1, r3
	{
		add r1, r4, r11
		nop
	}
	{
		add r1, r1, r2
		nop
	}
	{
		nop
		stw r1, sp[30]
	}
.Ltmp890:
.LBB11_14:
	{
		nop
		ldw r1, sp[10]
	}
	{
		nop
		ldw r1, r1[0]
	}
	.loc	4 907 13
	ashr r2, r1, 32
	ldw r3, cp[.LCPI11_9]
	{
		nop
		ldw r11, sp[47]
	}
	{
		add r3, r11, r3
		nop
	}
	.loc	4 907 13
	ldd r11, r3, r3[0]
	.loc	4 907 13
	mul r2, r2, r3
	mul r11, r1, r11
	{
		nop
		ldw r4, sp[30]
	}
	.loc	4 907 13
	maccu r4, r0, r1, r3
	{
		add r1, r4, r11
		nop
	}
	{
		add r1, r1, r2
		nop
	}
	{
		nop
		stw r1, sp[31]
	}
.Ltmp891:
.LBB11_15:
	{
		nop
		ldw r1, sp[11]
	}
	{
		nop
		ldw r1, r1[0]
	}
	.loc	4 908 13
	ashr r2, r1, 32
	ldw r3, cp[.LCPI11_10]
	{
		nop
		ldw r11, sp[47]
	}
	{
		add r3, r11, r3
		nop
	}
	.loc	4 908 13
	ldd r11, r3, r3[0]
	.loc	4 908 13
	mul r2, r2, r3
	mul r11, r1, r11
	{
		nop
		ldw r4, sp[31]
	}
	.loc	4 908 13
	maccu r4, r0, r1, r3
	{
		add r1, r4, r11
		nop
	}
	{
		add r1, r1, r2
		nop
	}
	{
		nop
		stw r1, sp[32]
	}
.Ltmp892:
.LBB11_16:
	{
		nop
		ldw r1, sp[12]
	}
	{
		nop
		ldw r1, r1[0]
	}
	.loc	4 909 13
	ashr r2, r1, 32
	ldw r3, cp[.LCPI11_11]
	{
		nop
		ldw r11, sp[47]
	}
	{
		add r3, r11, r3
		nop
	}
	.loc	4 909 13
	ldd r11, r3, r3[0]
	.loc	4 909 13
	mul r2, r2, r3
	mul r11, r1, r11
	{
		nop
		ldw r4, sp[32]
	}
	.loc	4 909 13
	maccu r4, r0, r1, r3
	{
		add r1, r4, r11
		nop
	}
	{
		add r1, r1, r2
		nop
	}
	{
		nop
		stw r1, sp[33]
	}
.Ltmp893:
.LBB11_17:
	{
		nop
		ldw r1, sp[13]
	}
	{
		nop
		ldw r1, r1[0]
	}
	.loc	4 910 13
	ashr r2, r1, 32
	ldw r3, cp[.LCPI11_12]
	{
		nop
		ldw r11, sp[47]
	}
	{
		add r3, r11, r3
		nop
	}
	.loc	4 910 13
	ldd r11, r3, r3[0]
	.loc	4 910 13
	mul r2, r2, r3
	mul r11, r1, r11
	{
		nop
		ldw r4, sp[33]
	}
	.loc	4 910 13
	maccu r4, r0, r1, r3
	{
		add r1, r4, r11
		nop
	}
	{
		add r1, r1, r2
		nop
	}
	{
		nop
		stw r1, sp[34]
	}
.Ltmp894:
.LBB11_18:
	{
		nop
		ldw r1, sp[14]
	}
	{
		nop
		ldw r1, r1[0]
	}
	.loc	4 911 13
	ashr r2, r1, 32
	ldw r3, cp[.LCPI11_13]
	{
		nop
		ldw r11, sp[47]
	}
	{
		add r3, r11, r3
		nop
	}
	.loc	4 911 13
	ldd r11, r3, r3[0]
	.loc	4 911 13
	mul r2, r2, r3
	mul r11, r1, r11
	{
		nop
		ldw r4, sp[34]
	}
	.loc	4 911 13
	maccu r4, r0, r1, r3
	{
		add r1, r4, r11
		nop
	}
	{
		add r1, r1, r2
		nop
	}
	{
		nop
		stw r1, sp[35]
	}
.Ltmp895:
.LBB11_19:
	{
		nop
		ldw r1, sp[15]
	}
	{
		nop
		ldw r1, r1[0]
	}
	.loc	4 912 13
	ashr r2, r1, 32
	ldw r3, cp[.LCPI11_14]
	{
		nop
		ldw r11, sp[47]
	}
	{
		add r3, r11, r3
		nop
	}
	.loc	4 912 13
	ldd r11, r3, r3[0]
	.loc	4 912 13
	mul r2, r2, r3
	mul r11, r1, r11
	{
		nop
		ldw r4, sp[35]
	}
	.loc	4 912 13
	maccu r4, r0, r1, r3
	{
		add r1, r4, r11
		nop
	}
	{
		add r1, r1, r2
		nop
	}
	{
		nop
		stw r1, sp[36]
	}
.Ltmp896:
.LBB11_20:
	{
		nop
		ldw r1, sp[16]
	}
	{
		nop
		ldw r1, r1[0]
	}
	.loc	4 913 13
	ashr r2, r1, 32
	ldw r3, cp[.LCPI11_15]
	{
		nop
		ldw r11, sp[47]
	}
	{
		add r3, r11, r3
		nop
	}
	.loc	4 913 13
	ldd r11, r3, r3[0]
	.loc	4 913 13
	mul r2, r2, r3
	mul r11, r1, r11
	{
		nop
		ldw r4, sp[36]
	}
	.loc	4 913 13
	maccu r4, r0, r1, r3
	{
		add r1, r4, r11
		nop
	}
	{
		add r1, r1, r2
		nop
	}
	{
		nop
		stw r1, sp[38]
	}
.Ltmp897:
.LBB11_21:
	{
		nop
		ldw r1, sp[17]
	}
	{
		nop
		ldw r1, r1[0]
	}
	.loc	4 914 13
	ashr r2, r1, 32
	ldw r3, cp[.LCPI11_16]
	{
		nop
		ldw r11, sp[47]
	}
	{
		add r3, r11, r3
		nop
	}
	.loc	4 914 13
	ldd r11, r3, r3[0]
	.loc	4 914 13
	mul r2, r2, r3
	mul r11, r1, r11
	{
		nop
		ldw r4, sp[38]
	}
	.loc	4 914 13
	maccu r4, r0, r1, r3
	{
		add r1, r4, r11
		nop
	}
	{
		add r1, r1, r2
		nop
	}
	{
		nop
		stw r1, sp[39]
	}
.Ltmp898:
.LBB11_22:
	{
		nop
		ldw r1, sp[18]
	}
	{
		nop
		ldw r1, r1[0]
	}
	.loc	4 915 13
	ashr r2, r1, 32
	ldw r3, cp[.LCPI11_17]
	{
		nop
		ldw r11, sp[47]
	}
	{
		add r3, r11, r3
		nop
	}
	.loc	4 915 13
	ldd r11, r3, r3[0]
	.loc	4 915 13
	mul r2, r2, r3
	mul r11, r1, r11
	{
		nop
		ldw r4, sp[39]
	}
	.loc	4 915 13
	maccu r4, r0, r1, r3
	{
		add r1, r4, r11
		nop
	}
	{
		add r1, r1, r2
		nop
	}
	{
		nop
		stw r1, sp[41]
	}
.Ltmp899:
.LBB11_23:
	{
		nop
		ldw r1, sp[19]
	}
	{
		nop
		ldw r1, r1[0]
	}
	.loc	4 916 13
	ashr r2, r1, 32
	ldw r3, cp[.LCPI11_18]
	{
		nop
		ldw r11, sp[47]
	}
	{
		add r3, r11, r3
		nop
	}
	.loc	4 916 13
	ldd r11, r3, r3[0]
	.loc	4 916 13
	mul r2, r2, r3
	mul r11, r1, r11
	{
		nop
		ldw r4, sp[41]
	}
	.loc	4 916 13
	maccu r4, r0, r1, r3
	{
		add r1, r4, r11
		nop
	}
	{
		add r1, r1, r2
		nop
	}
	{
		nop
		stw r1, sp[42]
	}
.Ltmp900:
.LBB11_24:
	{
		nop
		ldw r1, sp[20]
	}
	{
		nop
		ldw r1, r1[0]
	}
	.loc	4 917 13
	ashr r2, r1, 32
	ldw r3, cp[.LCPI11_19]
	{
		nop
		ldw r11, sp[47]
	}
	{
		add r3, r11, r3
		nop
	}
	.loc	4 917 13
	ldd r11, r3, r3[0]
	.loc	4 917 13
	mul r2, r2, r3
	mul r11, r1, r11
	{
		nop
		ldw r4, sp[42]
	}
	.loc	4 917 13
	maccu r4, r0, r1, r3
	{
		add r1, r4, r11
		nop
	}
	{
		add r1, r1, r2
		nop
	}
	{
		nop
		stw r1, sp[43]
	}
.Ltmp901:
.LBB11_25:
	{
		nop
		ldw r1, sp[46]
	}
	{
		nop
		ldw r1, r1[11]
	}
	.loc	4 918 13
	ashr r2, r1, 32
	ldw r3, cp[.LCPI11_20]
	{
		nop
		ldw r11, sp[47]
	}
	{
		add r3, r11, r3
		nop
	}
	.loc	4 918 13
	ldd r11, r3, r3[0]
	.loc	4 918 13
	mul r2, r2, r3
	mul r11, r1, r11
	{
		nop
		ldw r4, sp[43]
	}
	.loc	4 918 13
	maccu r4, r0, r1, r3
	{
		add r1, r4, r11
		nop
	}
	{
		add r1, r1, r2
		nop
	}
	{
		nop
		stw r1, sp[44]
	}
.Ltmp902:
.LBB11_26:
	{
		nop
		ldw r1, sp[46]
	}
	{
		nop
		ldw r1, r1[10]
	}
	.loc	4 919 13
	ashr r2, r1, 32
	ldw r3, cp[.LCPI11_21]
	{
		nop
		ldw r11, sp[47]
	}
	{
		add r3, r11, r3
		nop
	}
	.loc	4 919 13
	ldd r11, r3, r3[0]
	.loc	4 919 13
	mul r2, r2, r3
	mul r11, r1, r11
	{
		nop
		ldw r4, sp[44]
	}
	.loc	4 919 13
	maccu r4, r0, r1, r3
	{
		add r1, r4, r11
		nop
	}
	{
		add r10, r1, r2
		nop
	}
.Ltmp903:
.LBB11_27:
	{
		nop
		ldw r1, sp[46]
	}
	{
		nop
		ldw r1, r1[9]
	}
	.loc	4 920 13
	ashr r2, r1, 32
	ldw r3, cp[.LCPI11_22]
	{
		nop
		ldw r11, sp[47]
	}
	{
		add r3, r11, r3
		nop
	}
	.loc	4 920 13
	ldd r11, r3, r3[0]
	.loc	4 920 13
	mul r2, r2, r3
	mul r11, r1, r11
	.loc	4 920 13
	maccu r10, r0, r1, r3
	{
		add r1, r10, r11
		nop
	}
	{
		add r6, r1, r2
		nop
	}
.Ltmp904:
.LBB11_28:
	{
		nop
		ldw r1, sp[46]
	}
	{
		nop
		ldw r1, r1[8]
	}
	.loc	4 921 13
	ashr r2, r1, 32
	ldw r3, cp[.LCPI11_23]
	{
		nop
		ldw r11, sp[47]
	}
	{
		add r3, r11, r3
		nop
	}
	.loc	4 921 13
	ldd r11, r3, r3[0]
	.loc	4 921 13
	mul r2, r2, r3
	mul r11, r1, r11
	.loc	4 921 13
	maccu r6, r0, r1, r3
	{
		add r1, r6, r11
		nop
	}
	{
		add r9, r1, r2
		nop
	}
.Ltmp905:
.LBB11_29:
	{
		nop
		ldw r1, sp[46]
	}
	{
		nop
		ldw r1, r1[7]
	}
	.loc	4 922 13
	ashr r2, r1, 32
	ldw r3, cp[.LCPI11_24]
	{
		nop
		ldw r11, sp[47]
	}
	{
		add r3, r11, r3
		nop
	}
	.loc	4 922 13
	ldd r11, r3, r3[0]
	.loc	4 922 13
	mul r2, r2, r3
	mul r11, r1, r11
	.loc	4 922 13
	maccu r9, r0, r1, r3
	{
		add r1, r9, r11
		nop
	}
	{
		add r7, r1, r2
		nop
	}
.Ltmp906:
.LBB11_30:
	{
		nop
		ldw r1, sp[46]
	}
	{
		nop
		ldw r1, r1[6]
	}
	.loc	4 923 13
	ashr r2, r1, 32
	ldw r3, cp[.LCPI11_25]
	{
		nop
		ldw r11, sp[47]
	}
	{
		add r3, r11, r3
		nop
	}
	.loc	4 923 13
	ldd r11, r3, r3[0]
	.loc	4 923 13
	mul r2, r2, r3
	mul r11, r1, r11
	.loc	4 923 13
	maccu r7, r0, r1, r3
	{
		add r1, r7, r11
		nop
	}
	{
		add r1, r1, r2
		nop
	}
.Ltmp907:
.LBB11_31:
	{
		nop
		ldw r2, sp[46]
	}
	{
		nop
		ldw r2, r2[5]
	}
	.loc	4 924 13
	ashr r3, r2, 32
	ldw r11, cp[.LCPI11_26]
	{
		nop
		ldw r4, sp[47]
	}
	{
		add r11, r4, r11
		nop
	}
	.loc	4 924 13
	ldd r4, r11, r11[0]
	.loc	4 924 13
	mul r3, r3, r11
	mul r4, r2, r4
	.loc	4 924 13
	maccu r1, r0, r2, r11
	{
		add r1, r1, r4
		nop
	}
	{
		add r2, r1, r3
		nop
	}
.Ltmp908:
.LBB11_32:
	{
		nop
		ldw r1, sp[46]
	}
	{
		nop
		ldw r1, r1[4]
	}
	.loc	4 925 13
	ashr r3, r1, 32
	{
		nop
		ldw r11, sp[47]
	}
	ldaw r11, r11[-10]
	.loc	4 925 13
	ldd r4, r11, r11[0]
	.loc	4 925 13
	mul r3, r3, r11
	mul r4, r1, r4
	.loc	4 925 13
	maccu r2, r0, r1, r11
	{
		add r1, r2, r4
		nop
	}
	{
		add r3, r1, r3
		nop
	}
.Ltmp909:
.LBB11_33:
	{
		nop
		ldw r1, sp[46]
	}
	{
		nop
		ldw r1, r1[3]
	}
	.loc	4 926 13
	ashr r2, r1, 32
	{
		nop
		ldw r11, sp[47]
	}
	ldaw r11, r11[-8]
	.loc	4 926 13
	ldd r4, r11, r11[0]
	.loc	4 926 13
	mul r2, r2, r11
	mul r4, r1, r4
	.loc	4 926 13
	maccu r3, r0, r1, r11
	{
		add r1, r3, r4
		nop
	}
	{
		add r11, r1, r2
		nop
	}
.Ltmp910:
.LBB11_34:
	{
		nop
		ldw r1, sp[46]
	}
	{
		nop
		ldw r1, r1[2]
	}
	.loc	4 927 13
	ashr r2, r1, 32
	{
		nop
		ldw r3, sp[47]
	}
	ldaw r3, r3[-6]
	.loc	4 927 13
	ldd r4, r3, r3[0]
	.loc	4 927 13
	mul r2, r2, r3
	mul r4, r1, r4
	.loc	4 927 13
	maccu r11, r0, r1, r3
	{
		add r1, r11, r4
		nop
	}
	{
		add r4, r1, r2
		nop
	}
.Ltmp911:
.LBB11_35:
	{
		nop
		ldw r1, sp[46]
	}
	{
		nop
		ldw r1, r1[1]
	}
	.loc	4 928 13
	ashr r2, r1, 32
	{
		nop
		ldw r3, sp[47]
	}
	ldaw r3, r3[-4]
	.loc	4 928 13
	ldd r11, r3, r3[0]
	.loc	4 928 13
	mul r2, r2, r3
	mul r11, r1, r11
	.loc	4 928 13
	maccu r4, r0, r1, r3
	{
		add r1, r4, r11
		nop
	}
	{
		add r8, r1, r2
		nop
	}
.Ltmp912:
.LBB11_36:
	{
		nop
		ldw r1, sp[46]
	}
.Ltmp913:
	{
		nop
		ldw r1, r1[0]
	}
	.loc	4 929 13
	ashr r2, r1, 32
	{
		nop
		ldw r4, sp[47]
	}
.Ltmp914:
	{
		sub r3, r4, 8
		nop
	}
	.loc	4 929 13
	ldd r11, r3, r3[0]
	.loc	4 929 13
	mul r2, r2, r3
	mul r11, r1, r11
	.loc	4 929 13
	maccu r8, r0, r1, r3
	{
		add r1, r8, r11
		nop
	}
.Ltmp915:
	{
		add r1, r1, r2
		ldw r6, sp[23]
	}
.Ltmp916:
	{
		mov r8, r4
		ldw r9, sp[58]
	}
.Ltmp917:
	{
		ldc r7, 0
		ldw r10, sp[57]
	}
.Ltmp918:
.LBB11_37:
	.loc	4 931 3
	ldd r5, r4, r8[0]
.Ltmp919:
	.loc	4 931 3
	{
		mov r2, r10
		nop
	}
	bl __ashrdi3
	.loc	4 931 3
	lsub r2, r0, r4, r0, r7
	lsub r1, r2, r5, r1, r2
	ldw r1, cp[.LCPI11_27]
	.loc	4 933 6
.Ltmp920:
	ladd r3, r1, r0, r1, r7
	{
		add r2, r2, r3
		mov r11, r7
	}
	.loc	4 933 6
	bt r2, .LBB11_38
.Ltmp921:
	{
		mkmsk r2, 32
		nop
	}
	{
		eq r1, r1, r2
		nop
	}
	bu .LBB11_40
.Ltmp922:
.LBB11_38:
	{
		eq r1, r2, 0
		nop
	}
	{
		eq r1, r1, 0
		nop
	}
.Ltmp923:
.LBB11_40:
	.loc	4 933 6
	bt r1, .LBB11_41
.Ltmp924:
	{
		nop
		ldw r1, sp[45]
	}
	.loc	4 936 4
	stw r0, r9[r1]
.Ltmp925:
	.loc	4 895 32
	{
		add r1, r1, 1
		add r8, r8, 8
	}
.Ltmp926:
	{
		nop
		ldw r0, sp[40]
	}
	.loc	4 895 2
	{
		lss r0, r1, r0
		nop
	}
	bt r0, .LBB11_2
.Ltmp927:
	{
		mkmsk r0, 1
		nop
	}
	bu .LBB11_44
.LBB11_41:
.Ltmp928:
	{
		mov r0, r11
		nop
	}
.LBB11_44:
	{
		nop
		ldw r10, sp[54]
	}
	{
		nop
		ldw r8, sp[52]
	}
	{
		nop
		ldw r9, sp[53]
	}
	{
		nop
		ldw r6, sp[50]
	}
	{
		nop
		ldw r7, sp[51]
	}
	{
		nop
		ldw r4, sp[48]
	}
	{
		nop
		ldw r5, sp[49]
	}
	{
		nop
		retsp 56
	}
	.loc	4 939 1
	# RETURN_REG_HOLDER
.Ltmp929:
	.cc_bottom FLAC__lpc_compute_residual_from_qlp_coefficients_limit_residual_33bit.function
	.set	FLAC__lpc_compute_residual_from_qlp_coefficients_limit_residual_33bit.nstackwords,((assert.nstackwords $M __ashrdi3.nstackwords) + 56)
	.globl	FLAC__lpc_compute_residual_from_qlp_coefficients_limit_residual_33bit.nstackwords
	.set	FLAC__lpc_compute_residual_from_qlp_coefficients_limit_residual_33bit.maxcores,1
	.globl	FLAC__lpc_compute_residual_from_qlp_coefficients_limit_residual_33bit.maxcores
	.set	FLAC__lpc_compute_residual_from_qlp_coefficients_limit_residual_33bit.maxtimers,0
	.globl	FLAC__lpc_compute_residual_from_qlp_coefficients_limit_residual_33bit.maxtimers
	.set	FLAC__lpc_compute_residual_from_qlp_coefficients_limit_residual_33bit.maxchanends,0
	.globl	FLAC__lpc_compute_residual_from_qlp_coefficients_limit_residual_33bit.maxchanends
.Ltmp930:
	.size	FLAC__lpc_compute_residual_from_qlp_coefficients_limit_residual_33bit, .Ltmp930-FLAC__lpc_compute_residual_from_qlp_coefficients_limit_residual_33bit
.Lfunc_end11:
	.cfi_endproc

	.globl	FLAC__lpc_max_prediction_before_shift_bps
	.align	4
	.type	FLAC__lpc_max_prediction_before_shift_bps,@function
	.cc_top FLAC__lpc_max_prediction_before_shift_bps.function,FLAC__lpc_max_prediction_before_shift_bps
FLAC__lpc_max_prediction_before_shift_bps:
.Lfunc_begin12:
	.loc	4 944 0
	.cfi_startproc
	.issue_mode dual
	{
		nop
		dualentsp 4
	}
.Ltmp931:
	.cfi_def_cfa_offset 16
.Ltmp932:
	.cfi_offset 15, 0
	std r5, r4, sp[1]
.Ltmp933:
	.cfi_offset 4, -8
.Ltmp934:
	.cfi_offset 5, -4
.Ltmp935:
	{
		mov r3, r1
		mov r4, r0
	}
.Ltmp936:
	{
		ldc r1, 0
		nop
	}
	{
		mov r0, r1
		nop
	}
	bf r2, .LBB12_3
.Ltmp937:
	{
		mov r0, r1
		nop
	}
.Ltmp938:
.LBB12_2:
	{
		nop
		ldw r11, r3[0]
	}
	.loc	4 952 27 prologue_end
.Ltmp939:
	ashr r5, r11, 32
	{
		add r11, r11, r5
		nop
	}
	.loc	4 952 27
	xor r11, r11, r5
	.loc	4 952 27
	{
		add r0, r11, r0
		add r3, r3, 4
	}
	.loc	4 951 2
	{
		sub r2, r2, 1
		nop
	}
	bt r2, .LBB12_2
.Ltmp940:
.LBB12_3:
	bf r0, .LBB12_5
.Ltmp941:
	.loc	4 955 24
	ashr r1, r0, 32
.Ltmp942:
.LBB12_5:
	bt r0, .LBB12_7
.Ltmp943:
	{
		mkmsk r0, 1
		nop
	}
.Ltmp944:
.LBB12_7:
	.loc	4 955 24
	bl FLAC__bitmath_silog2
	.loc	4 955 24
	{
		add r0, r0, r4
		nop
	}
	.loc	4 955 24
	ldd r5, r4, sp[1]
.Ltmp945:
	{
		nop
		retsp 4
	}
	# RETURN_REG_HOLDER
.Ltmp946:
	.cc_bottom FLAC__lpc_max_prediction_before_shift_bps.function
	.set	FLAC__lpc_max_prediction_before_shift_bps.nstackwords,(FLAC__bitmath_silog2.nstackwords + 4)
	.globl	FLAC__lpc_max_prediction_before_shift_bps.nstackwords
	.set	FLAC__lpc_max_prediction_before_shift_bps.maxcores,FLAC__bitmath_silog2.maxcores $M 1
	.globl	FLAC__lpc_max_prediction_before_shift_bps.maxcores
	.set	FLAC__lpc_max_prediction_before_shift_bps.maxtimers,FLAC__bitmath_silog2.maxtimers $M 0
	.globl	FLAC__lpc_max_prediction_before_shift_bps.maxtimers
	.set	FLAC__lpc_max_prediction_before_shift_bps.maxchanends,FLAC__bitmath_silog2.maxchanends $M 0
	.globl	FLAC__lpc_max_prediction_before_shift_bps.maxchanends
.Ltmp947:
	.size	FLAC__lpc_max_prediction_before_shift_bps, .Ltmp947-FLAC__lpc_max_prediction_before_shift_bps
.Lfunc_end12:
	.cfi_endproc

	.globl	FLAC__lpc_max_residual_bps
	.align	4
	.type	FLAC__lpc_max_residual_bps,@function
	.cc_top FLAC__lpc_max_residual_bps.function,FLAC__lpc_max_residual_bps
FLAC__lpc_max_residual_bps:
.Lfunc_begin13:
	.loc	4 960 0
	.cfi_startproc
	.issue_mode dual
	{
		nop
		dualentsp 6
	}
.Ltmp948:
	.cfi_def_cfa_offset 24
.Ltmp949:
	.cfi_offset 15, 0
	std r5, r4, sp[1]
.Ltmp950:
	.cfi_offset 4, -16
.Ltmp951:
	.cfi_offset 5, -12
.Ltmp952:
	.cfi_offset 6, -8
.Ltmp953:
	{
		mov r5, r3
		stw r6, sp[4]
	}
.Ltmp954:
	{
		mov r3, r1
		mov r4, r0
	}
.Ltmp955:
	{
		ldc r1, 0
		nop
	}
	.loc	4 961 34 prologue_end
.Ltmp956:
	{
		mov r0, r1
		nop
	}
	bf r2, .LBB13_3
.Ltmp957:
	{
		mov r0, r1
		nop
	}
.Ltmp958:
.LBB13_2:
	{
		nop
		ldw r11, r3[0]
	}
	.loc	4 952 27
.Ltmp959:
	ashr r6, r11, 32
	{
		add r11, r11, r6
		nop
	}
	.loc	4 952 27
	xor r11, r11, r6
	.loc	4 952 27
	{
		add r0, r11, r0
		sub r2, r2, 1
	}
	.loc	4 951 2
	{
		add r3, r3, 4
		nop
	}
	bt r2, .LBB13_2
.Ltmp960:
.LBB13_3:
	bf r0, .LBB13_5
.Ltmp961:
	.loc	4 955 24
	ashr r1, r0, 32
.Ltmp962:
.LBB13_5:
	bt r0, .LBB13_7
.Ltmp963:
	{
		mkmsk r0, 1
		nop
	}
.Ltmp964:
.LBB13_7:
	.loc	4 955 24
	bl FLAC__bitmath_silog2
	.loc	4 955 24
	{
		sub r1, r4, r5
		nop
	}
.Ltmp965:
	.loc	4 961 34
	{
		add r0, r1, r0
		nop
	}
.Ltmp966:
	.loc	4 962 5
	{
		lss r1, r0, r4
		nop
	}
	bt r1, .LBB13_9
.Ltmp967:
	.loc	4 963 3
	{
		mov r4, r0
		nop
	}
.Ltmp968:
.LBB13_9:
	.loc	4 963 3
	{
		add r0, r4, 1
		ldw r6, sp[4]
	}
.Ltmp969:
	.loc	4 966 1
	ldd r5, r4, sp[1]
	{
		nop
		retsp 6
	}
	# RETURN_REG_HOLDER
.Ltmp970:
	.cc_bottom FLAC__lpc_max_residual_bps.function
	.set	FLAC__lpc_max_residual_bps.nstackwords,(FLAC__bitmath_silog2.nstackwords + 6)
	.globl	FLAC__lpc_max_residual_bps.nstackwords
	.set	FLAC__lpc_max_residual_bps.maxcores,FLAC__bitmath_silog2.maxcores $M 1
	.globl	FLAC__lpc_max_residual_bps.maxcores
	.set	FLAC__lpc_max_residual_bps.maxtimers,FLAC__bitmath_silog2.maxtimers $M 0
	.globl	FLAC__lpc_max_residual_bps.maxtimers
	.set	FLAC__lpc_max_residual_bps.maxchanends,FLAC__bitmath_silog2.maxchanends $M 0
	.globl	FLAC__lpc_max_residual_bps.maxchanends
.Ltmp971:
	.size	FLAC__lpc_max_residual_bps, .Ltmp971-FLAC__lpc_max_residual_bps
.Lfunc_end13:
	.cfi_endproc

	.section	.cp.rodata.cst4,"aMc",@progbits,4
	.cc_top .LCPI14_0.data,.LCPI14_0
	.align	4
	.type	.LCPI14_0,@object
	.size	.LCPI14_0, 4
.LCPI14_0:
	.long	4294967232
	.cc_bottom .LCPI14_0.data
	.cc_top .LCPI14_1.data,.LCPI14_1
	.align	4
	.type	.LCPI14_1,@object
	.size	.LCPI14_1, 4
.LCPI14_1:
	.long	4294967228
	.cc_bottom .LCPI14_1.data
	.cc_top .LCPI14_2.data,.LCPI14_2
	.align	4
	.type	.LCPI14_2,@object
	.size	.LCPI14_2, 4
.LCPI14_2:
	.long	4294967224
	.cc_bottom .LCPI14_2.data
	.cc_top .LCPI14_3.data,.LCPI14_3
	.align	4
	.type	.LCPI14_3,@object
	.size	.LCPI14_3, 4
.LCPI14_3:
	.long	4294967220
	.cc_bottom .LCPI14_3.data
	.cc_top .LCPI14_4.data,.LCPI14_4
	.align	4
	.type	.LCPI14_4,@object
	.size	.LCPI14_4, 4
.LCPI14_4:
	.long	4294967216
	.cc_bottom .LCPI14_4.data
	.cc_top .LCPI14_5.data,.LCPI14_5
	.align	4
	.type	.LCPI14_5,@object
	.size	.LCPI14_5, 4
.LCPI14_5:
	.long	4294967168
	.cc_bottom .LCPI14_5.data
	.cc_top .LCPI14_6.data,.LCPI14_6
	.align	4
	.type	.LCPI14_6,@object
	.size	.LCPI14_6, 4
.LCPI14_6:
	.long	4294967283
	.cc_bottom .LCPI14_6.data
	.cc_top .LCPI14_7.data,.LCPI14_7
	.align	4
	.type	.LCPI14_7,@object
	.size	.LCPI14_7, 4
.LCPI14_7:
	.long	4294967248
	.cc_bottom .LCPI14_7.data
	.text
	.globl	FLAC__lpc_restore_signal
	.align	4
	.type	FLAC__lpc_restore_signal,@function
	.cc_top FLAC__lpc_restore_signal.function,FLAC__lpc_restore_signal
FLAC__lpc_restore_signal:
.Lfunc_begin14:
	.loc	4 1017 0
	.cfi_startproc
	.issue_mode dual
	{
		nop
		dualentsp 50
	}
.Ltmp972:
	.cfi_def_cfa_offset 200
.Ltmp973:
	.cfi_offset 15, 0
	{
		nop
		stw r4, sp[42]
	}
	{
		nop
		stw r5, sp[43]
	}
.Ltmp974:
	.cfi_offset 4, -32
.Ltmp975:
	.cfi_offset 5, -28
	{
		nop
		stw r6, sp[44]
	}
	{
		nop
		stw r7, sp[45]
	}
.Ltmp976:
	.cfi_offset 6, -24
.Ltmp977:
	.cfi_offset 7, -20
	{
		nop
		stw r8, sp[46]
	}
	{
		nop
		stw r9, sp[47]
	}
.Ltmp978:
	.cfi_offset 8, -16
.Ltmp979:
	.cfi_offset 9, -12
.Ltmp980:
	.cfi_offset 10, -8
.Ltmp981:
	{
		mov r4, r3
		stw r10, sp[48]
	}
.Ltmp982:
	{
		mov r8, r1
		stw r2, sp[29]
	}
.Ltmp983:
	{
		mov r5, r0
		ldw r9, sp[52]
	}
.Ltmp984:
	{
		eq r0, r4, 0
		ldw r6, sp[51]
	}
.Ltmp985:
	.loc	4 1021 2 prologue_end
	{
		eq r0, r0, 0
		nop
	}
	.loc	4 1021 2
	bl assert
	{
		ldc r0, 33
		nop
	}
	.loc	4 1022 2
	{
		lsu r0, r4, r0
		nop
	}
	.loc	4 1022 2
	bl assert
	{
		ldc r0, 13
		nop
	}
	.loc	4 1029 5
.Ltmp986:
	{
		lsu r0, r4, r0
		nop
	}
	.loc	4 1029 5
	bf r0, .LBB14_1
.Ltmp987:
	{
		ldc r0, 9
		nop
	}
	.loc	4 1030 6
.Ltmp988:
	{
		lsu r0, r4, r0
		nop
	}
	bt r0, .LBB14_21
.Ltmp989:
	{
		ldc r0, 11
		nop
	}
	.loc	4 1031 7
.Ltmp990:
	{
		lsu r0, r4, r0
		nop
	}
	bt r0, .LBB14_14
.Ltmp991:
	{
		ldc r0, 12
		nop
	}
	.loc	4 1032 8
.Ltmp992:
	{
		eq r0, r4, r0
		nop
	}
	.loc	4 1032 8
	bf r0, .LBB14_8
.Ltmp993:
	{
		mkmsk r0, 1
		nop
	}
.Ltmp994:
	.loc	4 1033 6
	{
		lss r0, r8, r0
		mov r10, r5
	}
.Ltmp995:
	{
		mov r5, r9
		nop
	}
.Ltmp996:
	bt r0, .LBB14_73
.Ltmp997:
	{
		nop
		ldw r1, sp[29]
	}
.Ltmp998:
	{
		nop
		ldw r0, r1[11]
	}
	{
		nop
		stw r0, sp[32]
	}
	{
		nop
		ldw r0, r1[10]
	}
	{
		nop
		stw r0, sp[31]
	}
	{
		nop
		ldw r0, r1[9]
	}
	{
		nop
		stw r0, sp[30]
	}
	{
		nop
		ldw r0, r1[8]
	}
	{
		nop
		stw r0, sp[28]
	}
	{
		nop
		ldw r0, r1[7]
	}
	{
		nop
		stw r0, sp[27]
	}
	{
		nop
		ldw r0, r1[6]
	}
	{
		nop
		stw r0, sp[26]
	}
	{
		nop
		ldw r0, r1[5]
	}
	{
		nop
		stw r0, sp[25]
	}
	{
		nop
		ldw r0, r1[4]
	}
	{
		nop
		stw r0, sp[24]
	}
	{
		nop
		ldw r0, r1[3]
	}
	{
		nop
		stw r0, sp[23]
	}
	{
		nop
		ldw r0, r1[2]
	}
	{
		nop
		stw r0, sp[22]
	}
	{
		nop
		ldw r0, r1[1]
	}
	{
		nop
		stw r0, sp[21]
	}
	{
		nop
		ldw r0, r1[0]
	}
	{
		nop
		stw r0, sp[29]
	}
	ldw r0, cp[.LCPI14_7]
	{
		add r0, r5, r0
		nop
	}
	{
		nop
		ldw r11, r0[0]
	}
	ldaw r0, r5[-11]
	{
		nop
		ldw r9, r0[0]
	}
	ldaw r0, r5[-10]
	{
		nop
		ldw r4, r0[0]
	}
	ldaw r0, r5[-9]
	{
		nop
		ldw r0, r0[0]
	}
	{
		nop
		stw r0, sp[41]
	}
	ldaw r0, r5[-8]
	{
		nop
		ldw r0, r0[0]
	}
	{
		nop
		stw r0, sp[40]
	}
	ldaw r0, r5[-7]
	{
		nop
		ldw r2, r0[0]
	}
	ldaw r0, r5[-6]
	{
		nop
		ldw r0, r0[0]
	}
	{
		nop
		stw r0, sp[38]
	}
	ldaw r1, r5[-5]
.Ltmp999:
	.loc	4 1042 7
	{
		mov r1, r2
		ldw r0, r1[0]
	}
	ldaw r2, r5[-4]
	.loc	4 1043 7
	{
		mov r2, r0
		ldw r6, r2[0]
	}
	ldaw r3, r5[-3]
	.loc	4 1044 7
	{
		sub r3, r5, 8
		ldw r7, r3[0]
	}
	.loc	4 1045 7
	{
		sub r3, r5, 4
		ldw r0, r3[0]
	}
	{
		nop
		ldw r3, r3[0]
	}
.Ltmp1000:
.LBB14_13:
	{
		nop
		stw r5, sp[36]
	}
	{
		nop
		stw r10, sp[39]
	}
	{
		nop
		stw r9, sp[37]
	}
	{
		nop
		ldw r5, sp[41]
	}
	{
		nop
		stw r5, sp[33]
	}
	{
		nop
		ldw r10, sp[40]
	}
	{
		nop
		stw r10, sp[41]
	}
	.loc	4 1019 14
	{
		mov r5, r11
		stw r1, sp[40]
	}
	{
		nop
		ldw r11, sp[38]
	}
	{
		nop
		stw r11, sp[34]
	}
	{
		nop
		stw r2, sp[38]
	}
	{
		mov r6, r7
		stw r6, sp[35]
	}
	{
		mov r7, r0
		mov r0, r3
	}
	{
		nop
		ldw r3, sp[32]
	}
	.loc	4 1035 7
.Ltmp1001:
	mul r3, r5, r3
.Ltmp1002:
	{
		nop
		ldw r11, sp[31]
	}
	.loc	4 1036 7
	mul r11, r9, r11
	.loc	4 1036 7
	{
		add r3, r11, r3
		ldw r11, sp[30]
	}
.Ltmp1003:
	.loc	4 1037 7
	mul r11, r4, r11
	.loc	4 1037 7
	{
		add r3, r3, r11
		ldw r11, sp[28]
	}
	{
		nop
		ldw r5, sp[33]
	}
	.loc	4 1038 7
	mul r11, r5, r11
	.loc	4 1038 7
	{
		add r3, r3, r11
		ldw r11, sp[27]
	}
	.loc	4 1039 7
	mul r11, r10, r11
	{
		add r3, r3, r11
		ldw r10, sp[39]
	}
	{
		nop
		ldw r11, sp[26]
	}
	.loc	4 1040 7
	mul r11, r1, r11
	{
		add r3, r3, r11
		ldw r1, sp[34]
	}
	{
		nop
		ldw r11, sp[25]
	}
	.loc	4 1041 7
	mul r11, r1, r11
	.loc	4 1041 7
	{
		add r3, r3, r11
		ldw r11, sp[24]
	}
	.loc	4 1042 7
	mul r11, r2, r11
	{
		add r3, r3, r11
		ldw r2, sp[35]
	}
	{
		nop
		ldw r11, sp[23]
	}
	.loc	4 1043 7
	mul r11, r2, r11
	.loc	4 1043 7
	{
		add r3, r3, r11
		ldw r11, sp[22]
	}
	.loc	4 1044 7
	mul r11, r6, r11
	.loc	4 1044 7
	{
		add r3, r3, r11
		ldw r11, sp[21]
	}
	.loc	4 1045 7
	mul r11, r7, r11
	.loc	4 1045 7
	{
		add r3, r3, r11
		ldw r11, sp[29]
	}
	.loc	4 1046 7
	mul r11, r0, r11
	.loc	4 1046 7
	{
		add r3, r3, r11
		ldw r11, r10[0]
	}
	{
		nop
		ldw r9, sp[51]
	}
	.loc	4 1047 7
	ashr r3, r3, r9
	{
		mov r9, r4
		mov r4, r5
	}
	{
		add r3, r3, r11
		ldw r5, sp[36]
	}
	.loc	4 1047 7
	{
		sub r8, r8, 1
		stw r3, r5[0]
	}
.Ltmp1004:
	.loc	4 1033 6
	{
		add r10, r10, 4
		add r5, r5, 4
	}
	{
		nop
		ldw r11, sp[37]
	}
	bt r8, .LBB14_13
	bu .LBB14_73
.Ltmp1005:
.LBB14_1:
	{
		mkmsk r0, 1
		nop
	}
.Ltmp1006:
	.loc	4 1197 3
	{
		lss r0, r8, r0
		mov r1, r5
	}
.Ltmp1007:
	{
		mov r1, r9
		stw r1, sp[39]
	}
.Ltmp1008:
	bt r0, .LBB14_73
.Ltmp1009:
	ldc r0, 124
	{
		nop
		ldw r10, sp[29]
	}
.Ltmp1010:
	.loc	4 1200 14
	{
		add r0, r10, r0
		nop
	}
	{
		nop
		stw r0, sp[2]
	}
	ldc r0, 120
	.loc	4 1201 14
	{
		add r0, r10, r0
		nop
	}
	{
		nop
		stw r0, sp[3]
	}
	ldc r0, 116
	.loc	4 1202 14
	{
		add r0, r10, r0
		nop
	}
	{
		nop
		stw r0, sp[4]
	}
	ldc r0, 112
	.loc	4 1203 14
	{
		add r0, r10, r0
		nop
	}
	{
		nop
		stw r0, sp[5]
	}
	ldc r0, 108
	.loc	4 1204 14
	{
		add r0, r10, r0
		nop
	}
	{
		nop
		stw r0, sp[6]
	}
	ldc r0, 104
	.loc	4 1205 14
	{
		add r0, r10, r0
		nop
	}
	{
		nop
		stw r0, sp[7]
	}
	ldc r0, 100
	.loc	4 1206 14
	{
		add r0, r10, r0
		nop
	}
	{
		nop
		stw r0, sp[8]
	}
	ldc r0, 96
	.loc	4 1207 14
	{
		add r0, r10, r0
		nop
	}
	{
		nop
		stw r0, sp[9]
	}
	ldc r0, 92
	.loc	4 1208 14
	{
		add r0, r10, r0
		nop
	}
	{
		nop
		stw r0, sp[10]
	}
	ldc r0, 88
	.loc	4 1209 14
	{
		add r0, r10, r0
		nop
	}
	{
		nop
		stw r0, sp[11]
	}
	ldc r0, 84
	.loc	4 1210 14
	{
		add r0, r10, r0
		nop
	}
	{
		nop
		stw r0, sp[12]
	}
	ldc r0, 80
	.loc	4 1211 14
	{
		add r0, r10, r0
		nop
	}
	{
		nop
		stw r0, sp[13]
	}
	ldc r0, 76
	.loc	4 1212 14
	{
		add r0, r10, r0
		nop
	}
	{
		nop
		stw r0, sp[15]
	}
	ldc r0, 72
	.loc	4 1213 14
	{
		add r0, r10, r0
		nop
	}
	{
		nop
		stw r0, sp[17]
	}
	ldc r0, 68
	.loc	4 1214 14
	{
		add r0, r10, r0
		nop
	}
	{
		nop
		stw r0, sp[19]
	}
	ldc r0, 64
	.loc	4 1215 14
	{
		add r0, r10, r0
		nop
	}
	{
		ldc r0, 60
		stw r0, sp[21]
	}
	.loc	4 1216 14
	{
		add r0, r10, r0
		nop
	}
	{
		ldc r0, 56
		stw r0, sp[22]
	}
	.loc	4 1217 14
	{
		add r0, r10, r0
		nop
	}
	{
		ldc r0, 52
		stw r0, sp[23]
	}
	.loc	4 1218 14
	{
		add r0, r10, r0
		nop
	}
	{
		ldc r0, 48
		stw r0, sp[24]
	}
	.loc	4 1219 14
	{
		add r0, r10, r0
		nop
	}
.Ltmp1011:
	{
		sub r0, r1, 4
		stw r0, sp[26]
	}
	{
		nop
		stw r0, sp[25]
	}
	ldw r0, cp[.LCPI14_0]
	{
		add r0, r1, r0
		nop
	}
	{
		nop
		stw r0, sp[40]
	}
	ldw r0, cp[.LCPI14_1]
	{
		add r0, r1, r0
		nop
	}
	{
		nop
		stw r0, sp[20]
	}
	ldw r0, cp[.LCPI14_2]
	{
		add r0, r1, r0
		nop
	}
	{
		nop
		stw r0, sp[18]
	}
	ldw r0, cp[.LCPI14_3]
	{
		add r0, r1, r0
		nop
	}
	{
		nop
		stw r0, sp[16]
	}
	ldw r0, cp[.LCPI14_4]
	{
		add r0, r1, r0
		nop
	}
	{
		nop
		stw r0, sp[14]
	}
	ldw r0, cp[.LCPI14_5]
	{
		add r0, r1, r0
		nop
	}
	{
		ldc r11, 0
		stw r0, sp[41]
	}
	ldw r0, cp[.LCPI14_6]
.Ltmp1012:
	.loc	4 1199 4
	{
		add r0, r4, r0
		nop
	}
	{
		ldc r4, 4
		stw r0, sp[38]
	}
.Ltmp1013:
	{
		mov r3, r11
		nop
	}
.Ltmp1014:
.LBB14_3:
	{
		nop
		ldw r0, sp[38]
	}
.Ltmp1015:
	{
		shr r0, r0, 2
		nop
	}
	{
		lsu r1, r4, r0
		mov r0, r11
	}
	bt r1, .LBB14_72
.Ltmp1016:
	{
		nop
		stw r8, sp[37]
	}
	{
		nop
		stw r11, sp[27]
	}
	{
		nop
		stw r11, sp[28]
	}
	{
		nop
		stw r11, sp[30]
	}
	{
		nop
		stw r11, sp[31]
	}
	{
		nop
		stw r11, sp[32]
	}
	{
		nop
		stw r11, sp[33]
	}
	{
		nop
		stw r11, sp[34]
	}
	{
		nop
		stw r11, sp[35]
	}
	{
		mov r4, r11
		stw r11, sp[36]
	}
	{
		mov r1, r11
		mov r6, r11
	}
	{
		mov r8, r11
		nop
	}
	{
		mov r7, r8
		mov r5, r8
	}
	{
		mov r9, r8
		mov r0, r8
	}
	{
		mov r10, r8
		ldw r2, sp[38]
	}

	.xtabranch .Ljumptable4+4,.Ljumptable4+8,.Ljumptable4+12,.Ljumptable4+16,.Ljumptable4+20,.Ljumptable4+24,.Ljumptable4+28,.Ljumptable4+32,.Ljumptable4+36,.Ljumptable4+40,.Ljumptable4+44,.Ljumptable4+48,.Ljumptable4+52,.Ljumptable4+56,.Ljumptable4+60,.Ljumptable4+64,.Ljumptable4+68,.Ljumptable4+72,.Ljumptable4+76,.Ljumptable4+80
.Ljumptable4:
		
	{
		nop
		bru r2
	}
	.jmptable32 .LBB14_71,.LBB14_70,.LBB14_69,.LBB14_68,.LBB14_67,.LBB14_66,.LBB14_65,.LBB14_64,.LBB14_63,.LBB14_62,.LBB14_61,.LBB14_60,.LBB14_59,.LBB14_58,.LBB14_57,.LBB14_56,.LBB14_55,.LBB14_54,.LBB14_53,.LBB14_52
.Ltmp1017:
.LBB14_52:
	{
		nop
		ldw r0, sp[2]
	}
	{
		nop
		ldw r0, r0[0]
	}
	{
		nop
		ldw r1, sp[41]
	}
	{
		add r1, r1, r3
		nop
	}
	{
		nop
		ldw r1, r1[0]
	}
	.loc	4 1200 14
.Ltmp1018:
	mul r0, r1, r0
.Ltmp1019:
	{
		nop
		stw r0, sp[27]
	}
.Ltmp1020:
.LBB14_53:
	{
		nop
		ldw r0, sp[3]
	}
	{
		nop
		ldw r0, r0[0]
	}
	{
		nop
		ldw r1, sp[41]
	}
	{
		add r1, r1, r3
		nop
	}
	{
		nop
		ldw r1, r1[1]
	}
	.loc	4 1201 14
	mul r0, r1, r0
	{
		nop
		ldw r1, sp[27]
	}
	.loc	4 1201 14
	{
		add r0, r0, r1
		nop
	}
.Ltmp1021:
	{
		nop
		stw r0, sp[28]
	}
.Ltmp1022:
.LBB14_54:
	{
		nop
		ldw r0, sp[4]
	}
	{
		nop
		ldw r0, r0[0]
	}
	{
		nop
		ldw r1, sp[41]
	}
	{
		add r1, r1, r3
		nop
	}
	{
		nop
		ldw r1, r1[2]
	}
	.loc	4 1202 14
	mul r0, r1, r0
	{
		nop
		ldw r1, sp[28]
	}
	.loc	4 1202 14
	{
		add r0, r0, r1
		nop
	}
.Ltmp1023:
	{
		nop
		stw r0, sp[30]
	}
.Ltmp1024:
.LBB14_55:
	{
		nop
		ldw r0, sp[5]
	}
	{
		nop
		ldw r0, r0[0]
	}
	{
		nop
		ldw r1, sp[41]
	}
	{
		add r1, r1, r3
		nop
	}
	{
		nop
		ldw r1, r1[3]
	}
	.loc	4 1203 14
	mul r0, r1, r0
	{
		nop
		ldw r1, sp[30]
	}
	.loc	4 1203 14
	{
		add r0, r0, r1
		nop
	}
.Ltmp1025:
	{
		nop
		stw r0, sp[31]
	}
.Ltmp1026:
.LBB14_56:
	{
		nop
		ldw r0, sp[6]
	}
	{
		nop
		ldw r0, r0[0]
	}
	{
		nop
		ldw r1, sp[41]
	}
	{
		add r1, r1, r3
		nop
	}
	{
		nop
		ldw r1, r1[4]
	}
	.loc	4 1204 14
	mul r0, r1, r0
	{
		nop
		ldw r1, sp[31]
	}
	.loc	4 1204 14
	{
		add r0, r0, r1
		nop
	}
.Ltmp1027:
	{
		nop
		stw r0, sp[32]
	}
.Ltmp1028:
.LBB14_57:
	{
		nop
		ldw r0, sp[7]
	}
	{
		nop
		ldw r0, r0[0]
	}
	{
		nop
		ldw r1, sp[41]
	}
	{
		add r1, r1, r3
		nop
	}
	{
		nop
		ldw r1, r1[5]
	}
	.loc	4 1205 14
	mul r0, r1, r0
	{
		nop
		ldw r1, sp[32]
	}
	.loc	4 1205 14
	{
		add r0, r0, r1
		nop
	}
.Ltmp1029:
	{
		nop
		stw r0, sp[33]
	}
.Ltmp1030:
.LBB14_58:
	{
		nop
		ldw r0, sp[8]
	}
	{
		nop
		ldw r0, r0[0]
	}
	{
		nop
		ldw r1, sp[41]
	}
	{
		add r1, r1, r3
		nop
	}
	{
		nop
		ldw r1, r1[6]
	}
	.loc	4 1206 14
	mul r0, r1, r0
	{
		nop
		ldw r1, sp[33]
	}
	.loc	4 1206 14
	{
		add r0, r0, r1
		nop
	}
.Ltmp1031:
	{
		nop
		stw r0, sp[34]
	}
.Ltmp1032:
.LBB14_59:
	{
		nop
		ldw r0, sp[9]
	}
	{
		nop
		ldw r0, r0[0]
	}
	{
		nop
		ldw r1, sp[41]
	}
	{
		add r1, r1, r3
		nop
	}
	{
		nop
		ldw r1, r1[7]
	}
	.loc	4 1207 14
	mul r0, r1, r0
	{
		nop
		ldw r1, sp[34]
	}
	.loc	4 1207 14
	{
		add r0, r0, r1
		nop
	}
.Ltmp1033:
	{
		nop
		stw r0, sp[35]
	}
.Ltmp1034:
.LBB14_60:
	{
		nop
		ldw r0, sp[10]
	}
	{
		nop
		ldw r0, r0[0]
	}
	{
		nop
		ldw r1, sp[41]
	}
	{
		add r1, r1, r3
		nop
	}
	{
		nop
		ldw r1, r1[8]
	}
	.loc	4 1208 14
	mul r0, r1, r0
	{
		nop
		ldw r1, sp[35]
	}
	.loc	4 1208 14
	{
		add r0, r0, r1
		nop
	}
.Ltmp1035:
	{
		nop
		stw r0, sp[36]
	}
.Ltmp1036:
.LBB14_61:
	{
		nop
		ldw r0, sp[11]
	}
	{
		nop
		ldw r0, r0[0]
	}
	{
		nop
		ldw r1, sp[41]
	}
	{
		add r1, r1, r3
		nop
	}
	{
		nop
		ldw r1, r1[9]
	}
	.loc	4 1209 14
	mul r0, r1, r0
	{
		nop
		ldw r1, sp[36]
	}
	.loc	4 1209 14
	{
		add r4, r0, r1
		nop
	}
.Ltmp1037:
.LBB14_62:
	{
		nop
		ldw r0, sp[12]
	}
	{
		nop
		ldw r0, r0[0]
	}
	{
		nop
		ldw r1, sp[41]
	}
	{
		add r1, r1, r3
		nop
	}
	{
		nop
		ldw r1, r1[10]
	}
	.loc	4 1210 14
	mul r0, r1, r0
	.loc	4 1210 14
	{
		add r1, r0, r4
		nop
	}
.Ltmp1038:
.LBB14_63:
	{
		nop
		ldw r0, sp[13]
	}
	{
		nop
		ldw r0, r0[0]
	}
	{
		nop
		ldw r2, sp[41]
	}
	{
		add r2, r2, r3
		nop
	}
	{
		nop
		ldw r2, r2[11]
	}
	.loc	4 1211 14
	mul r0, r2, r0
	.loc	4 1211 14
	{
		add r6, r0, r1
		nop
	}
.Ltmp1039:
.LBB14_64:
	{
		nop
		ldw r0, sp[15]
	}
	{
		nop
		ldw r0, r0[0]
	}
	{
		nop
		ldw r1, sp[14]
	}
	{
		add r1, r1, r3
		nop
	}
	{
		nop
		ldw r1, r1[0]
	}
	.loc	4 1212 14
	mul r0, r1, r0
	.loc	4 1212 14
	{
		add r11, r0, r6
		nop
	}
.Ltmp1040:
.LBB14_65:
	{
		nop
		ldw r0, sp[17]
	}
	{
		nop
		ldw r0, r0[0]
	}
	{
		nop
		ldw r1, sp[16]
	}
	{
		add r1, r1, r3
		nop
	}
	{
		nop
		ldw r1, r1[0]
	}
	.loc	4 1213 14
	mul r0, r1, r0
	.loc	4 1213 14
	{
		add r7, r0, r11
		nop
	}
.Ltmp1041:
.LBB14_66:
	{
		nop
		ldw r0, sp[19]
	}
	{
		nop
		ldw r0, r0[0]
	}
	{
		nop
		ldw r1, sp[18]
	}
	{
		add r1, r1, r3
		nop
	}
	{
		nop
		ldw r1, r1[0]
	}
	.loc	4 1214 14
	mul r0, r1, r0
	.loc	4 1214 14
	{
		add r5, r0, r7
		nop
	}
.Ltmp1042:
.LBB14_67:
	{
		nop
		ldw r0, sp[21]
	}
	{
		nop
		ldw r0, r0[0]
	}
	{
		nop
		ldw r1, sp[20]
	}
	{
		add r1, r1, r3
		nop
	}
	{
		nop
		ldw r1, r1[0]
	}
	.loc	4 1215 14
	mul r0, r1, r0
	.loc	4 1215 14
	{
		add r9, r0, r5
		nop
	}
.Ltmp1043:
.LBB14_68:
	{
		nop
		ldw r0, sp[22]
	}
	{
		nop
		ldw r0, r0[0]
	}
	{
		nop
		ldw r1, sp[40]
	}
	{
		add r1, r1, r3
		nop
	}
	{
		nop
		ldw r1, r1[0]
	}
	.loc	4 1216 14
	mul r0, r1, r0
	.loc	4 1216 14
	{
		add r0, r0, r9
		nop
	}
.Ltmp1044:
.LBB14_69:
	{
		nop
		ldw r1, sp[23]
	}
	{
		nop
		ldw r1, r1[0]
	}
	{
		nop
		ldw r2, sp[40]
	}
	{
		add r2, r2, r3
		nop
	}
	{
		nop
		ldw r2, r2[1]
	}
	.loc	4 1217 14
	mul r1, r2, r1
	.loc	4 1217 14
	{
		add r10, r1, r0
		nop
	}
.Ltmp1045:
.LBB14_70:
	{
		nop
		ldw r0, sp[24]
	}
	{
		nop
		ldw r0, r0[0]
	}
	{
		nop
		ldw r1, sp[40]
	}
	{
		add r1, r1, r3
		nop
	}
	{
		nop
		ldw r1, r1[2]
	}
	.loc	4 1218 14
	mul r0, r1, r0
	.loc	4 1218 14
	{
		add r8, r0, r10
		nop
	}
.Ltmp1046:
.LBB14_71:
	{
		nop
		ldw r0, sp[26]
	}
	{
		nop
		ldw r1, r0[0]
	}
	{
		nop
		ldw r0, sp[40]
	}
	{
		add r0, r0, r3
		nop
	}
	{
		nop
		ldw r2, r0[3]
	}
	.loc	4 1219 14
	mul r1, r2, r1
.Ltmp1047:
	.loc	4 1219 14
	{
		add r1, r1, r8
		ldw r4, sp[29]
	}
.Ltmp1048:
	{
		nop
		ldw r2, r4[11]
	}
	{
		nop
		ldw r11, r0[4]
	}
	.loc	4 1220 14
	mul r2, r11, r2
	.loc	4 1220 14
	{
		add r1, r1, r2
		ldw r2, r4[10]
	}
	{
		nop
		ldw r11, r0[5]
	}
	.loc	4 1221 14
	mul r2, r11, r2
	.loc	4 1221 14
	{
		add r1, r1, r2
		ldw r2, r4[9]
	}
	{
		nop
		ldw r11, r0[6]
	}
	.loc	4 1222 14
	mul r2, r11, r2
	.loc	4 1222 14
	{
		add r1, r1, r2
		ldw r2, r4[8]
	}
	{
		nop
		ldw r11, r0[7]
	}
	.loc	4 1223 14
	mul r2, r11, r2
	.loc	4 1223 14
	{
		add r1, r1, r2
		ldw r2, r4[7]
	}
	{
		nop
		ldw r11, r0[8]
	}
	.loc	4 1224 14
	mul r2, r11, r2
	.loc	4 1224 14
	{
		add r1, r1, r2
		ldw r2, r4[6]
	}
	{
		nop
		ldw r11, r0[9]
	}
	.loc	4 1225 14
	mul r2, r11, r2
	.loc	4 1225 14
	{
		add r1, r1, r2
		ldw r2, r4[5]
	}
	{
		nop
		ldw r11, r0[10]
	}
	.loc	4 1226 14
	mul r2, r11, r2
	.loc	4 1226 14
	{
		add r1, r1, r2
		ldw r2, r4[4]
	}
	{
		nop
		ldw r0, r0[11]
	}
	.loc	4 1227 14
	mul r0, r0, r2
.Ltmp1049:
	.loc	4 1227 14
	{
		add r0, r1, r0
		ldw r1, r4[3]
	}
.Ltmp1050:
	{
		nop
		ldw r2, sp[25]
	}
	{
		add r2, r2, r3
		nop
	}
	ldaw r11, r2[-3]
	{
		nop
		ldw r11, r11[0]
	}
	.loc	4 1228 14
	mul r1, r11, r1
	.loc	4 1228 14
	{
		add r0, r0, r1
		ldw r1, r4[2]
	}
	{
		sub r11, r2, 8
		nop
	}
	{
		nop
		ldw r11, r11[0]
	}
	.loc	4 1229 14
	mul r1, r11, r1
	.loc	4 1229 14
	{
		add r0, r0, r1
		ldw r1, r4[1]
	}
	{
		sub r11, r2, 4
		nop
	}
	{
		nop
		ldw r11, r11[0]
	}
	.loc	4 1230 14
	mul r1, r11, r1
.Ltmp1051:
	.loc	4 1230 14
	{
		add r0, r0, r1
		ldw r1, r4[0]
	}
	{
		nop
		ldw r2, r2[0]
	}
	.loc	4 1231 14
	mul r1, r2, r1
	.loc	4 1231 14
	{
		add r0, r0, r1
		ldw r8, sp[37]
	}
	{
		ldc r11, 0
		ldc r4, 4
	}
.Ltmp1052:
.LBB14_72:
	{
		nop
		ldw r1, sp[39]
	}
.Ltmp1053:
	{
		add r1, r1, r3
		nop
	}
.Ltmp1054:
	{
		nop
		ldw r1, r1[0]
	}
	{
		nop
		ldw r2, sp[51]
	}
	.loc	4 1233 4
	ashr r0, r0, r2
.Ltmp1055:
	.loc	4 1233 4
	{
		add r0, r1, r0
		ldw r1, sp[52]
	}
.Ltmp1056:
	{
		add r1, r1, r3
		nop
	}
	.loc	4 1233 4
	{
		sub r8, r8, 1
		stw r0, r1[0]
	}
.Ltmp1057:
	.loc	4 1197 3
	{
		add r3, r3, 4
		nop
	}
	bt r8, .LBB14_3
	bu .LBB14_73
.Ltmp1058:
.LBB14_21:
	{
		ldc r0, 5
		nop
	}
	.loc	4 1102 11
.Ltmp1059:
	{
		lsu r0, r4, r0
		nop
	}
	bt r0, .LBB14_37
.Ltmp1060:
	{
		mkmsk r0, 3
		nop
	}
	.loc	4 1103 7
.Ltmp1061:
	{
		lsu r0, r4, r0
		nop
	}
	bt r0, .LBB14_30
.Ltmp1062:
	.loc	4 1104 8
	{
		eq r0, r4, 8
		nop
	}
	.loc	4 1104 8
	bf r0, .LBB14_24
.Ltmp1063:
	{
		mkmsk r0, 1
		nop
	}
	.loc	4 1105 6
.Ltmp1064:
	{
		lss r0, r8, r0
		nop
	}
.Ltmp1065:
	bt r0, .LBB14_73
.Ltmp1066:
	{
		nop
		ldw r10, sp[29]
	}
.Ltmp1067:
	{
		nop
		ldw r0, r10[7]
	}
	{
		nop
		stw r0, sp[38]
	}
	{
		nop
		ldw r0, r10[6]
	}
	{
		nop
		stw r0, sp[37]
	}
	{
		nop
		ldw r0, r10[5]
	}
	{
		nop
		stw r0, sp[36]
	}
	{
		nop
		ldw r0, r10[4]
	}
	{
		nop
		stw r0, sp[35]
	}
	{
		nop
		ldw r0, r10[3]
	}
	{
		nop
		stw r0, sp[34]
	}
	{
		nop
		ldw r0, r10[2]
	}
	{
		nop
		stw r0, sp[33]
	}
	{
		nop
		ldw r0, r10[1]
	}
	{
		nop
		stw r0, sp[32]
	}
	{
		nop
		ldw r0, r10[0]
	}
	{
		nop
		stw r0, sp[31]
	}
	ldaw r0, r9[-8]
	{
		nop
		ldw r7, r0[0]
	}
	ldaw r0, r9[-7]
	{
		nop
		ldw r10, r0[0]
	}
.Ltmp1068:
	ldaw r0, r9[-6]
	{
		nop
		ldw r4, r0[0]
	}
	ldaw r1, r9[-5]
	{
		nop
		ldw r1, r1[0]
	}
	ldaw r2, r9[-4]
	{
		nop
		ldw r2, r2[0]
	}
	ldaw r3, r9[-3]
	.loc	4 1112 7
.Ltmp1069:
	{
		sub r11, r9, 8
		ldw r6, r3[0]
	}
	{
		nop
		ldw r3, r11[0]
	}
	{
		sub r11, r9, 4
		stw r3, sp[41]
	}
	{
		nop
		ldw r11, r11[0]
	}
.Ltmp1070:
.LBB14_29:
	.loc	4 1019 14
	{
		mov r0, r10
		nop
	}
	{
		mov r10, r4
		stw r0, sp[40]
	}
	{
		mov r3, r6
		stw r2, sp[39]
	}
	{
		mov r2, r11
		ldw r6, sp[41]
	}
	{
		nop
		stw r2, sp[41]
	}
	{
		nop
		ldw r11, sp[38]
	}
	.loc	4 1107 7
.Ltmp1071:
	mul r11, r7, r11
.Ltmp1072:
	{
		nop
		ldw r4, sp[37]
	}
	.loc	4 1108 7
	mul r4, r0, r4
	.loc	4 1108 7
	{
		add r11, r4, r11
		ldw r4, sp[36]
	}
.Ltmp1073:
	.loc	4 1109 7
	mul r4, r10, r4
	.loc	4 1109 7
	{
		add r11, r11, r4
		ldw r4, sp[35]
	}
	.loc	4 1110 7
	mul r4, r1, r4
	.loc	4 1110 7
	{
		add r11, r11, r4
		ldw r4, sp[34]
	}
	{
		nop
		ldw r0, sp[39]
	}
	.loc	4 1111 7
	mul r4, r0, r4
	.loc	4 1111 7
	{
		add r11, r11, r4
		ldw r4, sp[33]
	}
	.loc	4 1112 7
	mul r4, r3, r4
	.loc	4 1112 7
	{
		add r11, r11, r4
		ldw r4, sp[32]
	}
	.loc	4 1113 7
	mul r4, r6, r4
	.loc	4 1113 7
	{
		add r11, r11, r4
		ldw r4, sp[31]
	}
	.loc	4 1114 7
	mul r4, r2, r4
	.loc	4 1114 7
	{
		add r11, r11, r4
		ldw r4, r5[0]
	}
	{
		nop
		ldw r7, sp[51]
	}
	.loc	4 1115 7
	ashr r11, r11, r7
	.loc	4 1115 7
	{
		add r11, r11, r4
		mov r4, r1
	}
	{
		mov r1, r0
		mov r2, r3
	}
	.loc	4 1115 7
	{
		sub r8, r8, 1
		stw r11, r9[0]
	}
.Ltmp1074:
	.loc	4 1105 6
	{
		add r5, r5, 4
		add r9, r9, 4
	}
	{
		nop
		ldw r7, sp[40]
	}
	bt r8, .LBB14_29
	bu .LBB14_73
.Ltmp1075:
.LBB14_14:
	.loc	4 1069 8
	{
		eq r0, r4, 10
		nop
	}
	.loc	4 1069 8
	bf r0, .LBB14_15
.Ltmp1076:
	{
		mkmsk r0, 1
		nop
	}
	.loc	4 1070 6
.Ltmp1077:
	{
		lss r0, r8, r0
		nop
	}
.Ltmp1078:
	bt r0, .LBB14_73
.Ltmp1079:
	{
		nop
		ldw r10, sp[29]
	}
.Ltmp1080:
	{
		nop
		ldw r0, r10[9]
	}
	{
		nop
		stw r0, sp[37]
	}
	{
		nop
		ldw r0, r10[8]
	}
	{
		nop
		stw r0, sp[36]
	}
	{
		nop
		ldw r0, r10[7]
	}
	{
		nop
		stw r0, sp[35]
	}
	{
		nop
		ldw r0, r10[6]
	}
	{
		nop
		stw r0, sp[34]
	}
	{
		nop
		ldw r0, r10[5]
	}
	{
		nop
		stw r0, sp[33]
	}
	{
		nop
		ldw r0, r10[4]
	}
	{
		nop
		stw r0, sp[32]
	}
	{
		nop
		ldw r0, r10[3]
	}
	{
		nop
		stw r0, sp[31]
	}
	{
		nop
		ldw r0, r10[2]
	}
	{
		nop
		stw r0, sp[30]
	}
	{
		nop
		ldw r0, r10[1]
	}
	{
		nop
		stw r0, sp[28]
	}
	{
		nop
		ldw r0, r10[0]
	}
	{
		nop
		stw r0, sp[29]
	}
	ldaw r0, r9[-10]
	{
		nop
		ldw r4, r0[0]
	}
	ldaw r0, r9[-9]
	{
		nop
		ldw r0, r0[0]
	}
	{
		nop
		stw r0, sp[41]
	}
	ldaw r0, r9[-8]
	{
		nop
		ldw r0, r0[0]
	}
	{
		nop
		stw r0, sp[40]
	}
	ldaw r0, r9[-7]
	{
		nop
		ldw r6, r0[0]
	}
	ldaw r0, r9[-6]
	{
		nop
		ldw r7, r0[0]
	}
	ldaw r0, r9[-5]
	{
		nop
		ldw r2, r0[0]
	}
	ldaw r0, r9[-4]
	{
		nop
		ldw r10, r0[0]
	}
.Ltmp1081:
	ldaw r0, r9[-3]
	.loc	4 1079 7
.Ltmp1082:
	{
		sub r0, r9, 8
		ldw r1, r0[0]
	}
	{
		nop
		ldw r0, r0[0]
	}
	{
		sub r0, r9, 4
		stw r0, sp[38]
	}
	{
		nop
		ldw r0, r0[0]
	}
.Ltmp1083:
.LBB14_20:
	{
		nop
		ldw r11, sp[41]
	}
	{
		nop
		ldw r3, sp[40]
	}
	{
		nop
		stw r3, sp[41]
	}
	{
		nop
		stw r6, sp[40]
	}
	.loc	4 1019 14
	{
		mov r3, r1
		stw r7, sp[39]
	}
	{
		mov r6, r0
		ldw r1, sp[38]
	}
	{
		nop
		stw r6, sp[38]
	}
	{
		nop
		ldw r0, sp[37]
	}
	.loc	4 1072 7
.Ltmp1084:
	mul r0, r4, r0
.Ltmp1085:
	{
		nop
		ldw r4, sp[36]
	}
	.loc	4 1073 7
	mul r4, r11, r4
	.loc	4 1073 7
	{
		add r0, r4, r0
		ldw r4, sp[35]
	}
.Ltmp1086:
	{
		nop
		ldw r7, sp[41]
	}
	.loc	4 1074 7
	mul r4, r7, r4
	.loc	4 1074 7
	{
		add r0, r0, r4
		ldw r4, sp[34]
	}
	{
		nop
		ldw r7, sp[40]
	}
	.loc	4 1075 7
	mul r4, r7, r4
	.loc	4 1075 7
	{
		add r0, r0, r4
		ldw r4, sp[33]
	}
	{
		nop
		ldw r7, sp[39]
	}
	.loc	4 1076 7
	mul r4, r7, r4
	.loc	4 1076 7
	{
		add r0, r0, r4
		ldw r4, sp[32]
	}
	.loc	4 1077 7
	mul r4, r2, r4
	.loc	4 1077 7
	{
		add r0, r0, r4
		ldw r4, sp[31]
	}
	.loc	4 1078 7
	mul r4, r10, r4
	.loc	4 1078 7
	{
		add r0, r0, r4
		ldw r4, sp[30]
	}
	.loc	4 1079 7
	mul r4, r3, r4
	.loc	4 1079 7
	{
		add r0, r0, r4
		ldw r4, sp[28]
	}
	.loc	4 1080 7
	mul r4, r1, r4
	.loc	4 1080 7
	{
		add r0, r0, r4
		ldw r4, sp[29]
	}
	.loc	4 1081 7
	mul r4, r6, r4
	.loc	4 1081 7
	{
		add r0, r0, r4
		ldw r4, r5[0]
	}
	{
		nop
		ldw r6, sp[51]
	}
	.loc	4 1082 7
	ashr r0, r0, r6
	.loc	4 1082 7
	{
		add r0, r0, r4
		mov r6, r7
	}
	{
		mov r7, r2
		mov r2, r10
	}
	{
		mov r10, r3
		stw r0, r9[0]
	}
.Ltmp1087:
	.loc	4 1070 6
	{
		sub r8, r8, 1
		add r5, r5, 4
	}
	.loc	4 1070 6
	{
		add r9, r9, 4
		mov r4, r11
	}
	bt r8, .LBB14_20
	bu .LBB14_73
.Ltmp1088:
.LBB14_37:
	{
		mkmsk r0, 2
		nop
	}
	.loc	4 1159 7
.Ltmp1089:
	{
		lsu r0, r4, r0
		nop
	}
	bt r0, .LBB14_45
.Ltmp1090:
	.loc	4 1160 8
	{
		eq r0, r4, 4
		nop
	}
	.loc	4 1160 8
	bf r0, .LBB14_39
.Ltmp1091:
	{
		mkmsk r0, 1
		nop
	}
.Ltmp1092:
	.loc	4 1161 6
	{
		lss r0, r8, r0
		mov r1, r5
	}
.Ltmp1093:
	{
		mov r2, r9
		nop
	}
.Ltmp1094:
	bt r0, .LBB14_73
.Ltmp1095:
	{
		nop
		ldw r10, sp[29]
	}
.Ltmp1096:
	{
		nop
		ldw r0, r10[3]
	}
	{
		nop
		stw r0, sp[41]
	}
	{
		nop
		ldw r0, r10[2]
	}
	{
		nop
		stw r0, sp[40]
	}
	{
		nop
		ldw r0, r10[1]
	}
	{
		nop
		ldw r3, r10[0]
	}
	ldaw r11, r2[-4]
	{
		nop
		ldw r10, r11[0]
	}
.Ltmp1097:
	ldaw r11, r2[-3]
	.loc	4 1164 7
.Ltmp1098:
	{
		sub r4, r2, 8
		ldw r11, r11[0]
	}
	.loc	4 1165 7
	{
		sub r4, r2, 4
		ldw r6, r4[0]
	}
	{
		nop
		ldw r9, r4[0]
	}
.Ltmp1099:
.LBB14_44:
	.loc	4 1019 14
	{
		mov r7, r11
		mov r11, r6
	}
	{
		mov r6, r9
		ldw r4, sp[41]
	}
	.loc	4 1163 7
.Ltmp1100:
	mul r4, r10, r4
.Ltmp1101:
	{
		nop
		ldw r5, sp[40]
	}
	.loc	4 1164 7
	mul r5, r7, r5
	.loc	4 1164 7
	{
		add r4, r5, r4
		nop
	}
.Ltmp1102:
	.loc	4 1165 7
	mul r5, r11, r0
	.loc	4 1165 7
	{
		add r4, r4, r5
		nop
	}
	.loc	4 1166 7
	mul r5, r6, r3
	.loc	4 1166 7
	{
		add r4, r4, r5
		ldw r5, r1[0]
	}
	{
		nop
		ldw r9, sp[51]
	}
	.loc	4 1167 7
	ashr r4, r4, r9
	.loc	4 1167 7
	{
		add r9, r4, r5
		nop
	}
	.loc	4 1167 7
	{
		sub r8, r8, 1
		stw r9, r2[0]
	}
.Ltmp1103:
	.loc	4 1161 6
	{
		add r1, r1, 4
		add r2, r2, 4
	}
.Ltmp1104:
	.loc	4 1019 14
	{
		mov r10, r7
		nop
	}
	bt r8, .LBB14_44
	bu .LBB14_73
.LBB14_8:
.Ltmp1105:
	{
		mkmsk r0, 1
		nop
	}
	.loc	4 1051 6
.Ltmp1106:
	{
		lss r0, r8, r0
		nop
	}
.Ltmp1107:
	bt r0, .LBB14_73
.Ltmp1108:
	{
		nop
		ldw r1, sp[29]
	}
.Ltmp1109:
	{
		nop
		ldw r0, r1[10]
	}
	{
		nop
		stw r0, sp[33]
	}
	{
		nop
		ldw r0, r1[9]
	}
	{
		nop
		stw r0, sp[32]
	}
	{
		nop
		ldw r0, r1[8]
	}
	{
		nop
		stw r0, sp[31]
	}
	{
		nop
		ldw r0, r1[7]
	}
	{
		nop
		stw r0, sp[30]
	}
	{
		nop
		ldw r0, r1[6]
	}
	{
		nop
		stw r0, sp[28]
	}
	{
		nop
		ldw r0, r1[5]
	}
	{
		nop
		stw r0, sp[27]
	}
	{
		nop
		ldw r0, r1[4]
	}
	{
		nop
		stw r0, sp[26]
	}
	{
		nop
		ldw r0, r1[3]
	}
	{
		nop
		stw r0, sp[25]
	}
	{
		nop
		ldw r0, r1[2]
	}
	{
		nop
		stw r0, sp[24]
	}
	{
		nop
		ldw r0, r1[1]
	}
	{
		nop
		stw r0, sp[23]
	}
	{
		nop
		ldw r0, r1[0]
	}
	{
		nop
		stw r0, sp[29]
	}
	ldaw r0, r9[-11]
	{
		nop
		ldw r2, r0[0]
	}
	ldaw r0, r9[-10]
	{
		nop
		ldw r0, r0[0]
	}
	{
		nop
		stw r0, sp[40]
	}
	ldaw r0, r9[-9]
	{
		nop
		ldw r7, r0[0]
	}
	ldaw r0, r9[-8]
	{
		nop
		ldw r0, r0[0]
	}
	{
		nop
		stw r0, sp[41]
	}
	ldaw r0, r9[-7]
	{
		nop
		ldw r0, r0[0]
	}
	{
		nop
		stw r0, sp[37]
	}
	ldaw r0, r9[-6]
	{
		nop
		ldw r1, r0[0]
	}
.Ltmp1110:
	ldaw r0, r9[-5]
	{
		nop
		ldw r3, r0[0]
	}
	ldaw r0, r9[-4]
	.loc	4 1060 7
.Ltmp1111:
	{
		mov r0, r1
		ldw r4, r0[0]
	}
	ldaw r1, r9[-3]
	{
		nop
		ldw r1, r1[0]
	}
	{
		mov r1, r3
		stw r1, sp[38]
	}
	{
		sub r3, r9, 8
		nop
	}
	.loc	4 1062 7
	{
		mov r3, r4
		ldw r11, r3[0]
	}
	{
		sub r4, r9, 4
		nop
	}
	{
		nop
		ldw r4, r4[0]
	}
.Ltmp1112:
.LBB14_10:
	{
		nop
		stw r5, sp[39]
	}
	{
		nop
		ldw r6, sp[40]
	}
	{
		nop
		stw r6, sp[36]
	}
	.loc	4 1019 14
	{
		mov r5, r2
		stw r7, sp[40]
	}
	{
		nop
		ldw r2, sp[41]
	}
	{
		nop
		stw r2, sp[34]
	}
	{
		nop
		ldw r2, sp[37]
	}
	{
		nop
		stw r2, sp[41]
	}
	{
		mov r10, r1
		stw r0, sp[37]
	}
	{
		mov r1, r3
		ldw r3, sp[38]
	}
	{
		nop
		stw r11, sp[38]
	}
	{
		nop
		stw r4, sp[35]
	}
	{
		nop
		ldw r4, sp[33]
	}
	.loc	4 1053 7
.Ltmp1113:
	mul r2, r5, r4
.Ltmp1114:
	{
		nop
		ldw r4, sp[32]
	}
	.loc	4 1054 7
	mul r4, r6, r4
	.loc	4 1054 7
	{
		add r2, r4, r2
		ldw r4, sp[31]
	}
.Ltmp1115:
	.loc	4 1055 7
	mul r4, r7, r4
	{
		mov r5, r0
		ldw r7, sp[34]
	}
	{
		mov r0, r10
		add r2, r2, r4
	}
	{
		nop
		ldw r4, sp[30]
	}
	.loc	4 1056 7
	mul r4, r7, r4
	.loc	4 1056 7
	{
		add r2, r2, r4
		ldw r4, sp[28]
	}
	{
		nop
		ldw r6, sp[41]
	}
	.loc	4 1057 7
	mul r4, r6, r4
	.loc	4 1057 7
	{
		add r2, r2, r4
		ldw r4, sp[27]
	}
	.loc	4 1058 7
	mul r4, r5, r4
	{
		add r2, r2, r4
		ldw r5, sp[39]
	}
	{
		nop
		ldw r4, sp[26]
	}
	.loc	4 1059 7
	mul r4, r0, r4
	.loc	4 1059 7
	{
		add r2, r2, r4
		ldw r4, sp[25]
	}
	.loc	4 1060 7
	mul r4, r1, r4
	.loc	4 1060 7
	{
		add r2, r2, r4
		ldw r4, sp[24]
	}
	.loc	4 1061 7
	mul r4, r3, r4
	.loc	4 1061 7
	{
		add r2, r2, r4
		ldw r4, sp[23]
	}
	.loc	4 1062 7
	mul r4, r11, r4
	{
		add r2, r2, r4
		ldw r11, sp[35]
	}
	{
		nop
		ldw r4, sp[29]
	}
	.loc	4 1063 7
	mul r4, r11, r4
	.loc	4 1063 7
	{
		add r2, r2, r4
		ldw r4, r5[0]
	}
	{
		nop
		ldw r6, sp[51]
	}
	.loc	4 1064 7
	ashr r2, r2, r6
	.loc	4 1064 7
	{
		add r4, r2, r4
		nop
	}
	.loc	4 1064 7
	{
		sub r8, r8, 1
		stw r4, r9[0]
	}
.Ltmp1116:
	.loc	4 1051 6
	{
		add r5, r5, 4
		add r9, r9, 4
	}
	{
		nop
		ldw r2, sp[36]
	}
	bt r8, .LBB14_10
	bu .LBB14_73
.Ltmp1117:
.LBB14_30:
	.loc	4 1133 8
	{
		eq r0, r4, 6
		nop
	}
	.loc	4 1133 8
	bf r0, .LBB14_31
.Ltmp1118:
	{
		mkmsk r0, 1
		nop
	}
.Ltmp1119:
	.loc	4 1134 6
	{
		lss r0, r8, r0
		mov r4, r9
	}
.Ltmp1120:
	bt r0, .LBB14_73
.Ltmp1121:
	{
		nop
		ldw r10, sp[29]
	}
.Ltmp1122:
	{
		nop
		ldw r0, r10[5]
	}
	{
		nop
		stw r0, sp[41]
	}
	{
		nop
		ldw r0, r10[4]
	}
	{
		nop
		stw r0, sp[40]
	}
	{
		nop
		ldw r0, r10[3]
	}
	{
		nop
		stw r0, sp[38]
	}
	{
		nop
		ldw r0, r10[2]
	}
	{
		nop
		stw r0, sp[37]
	}
	{
		nop
		ldw r0, r10[1]
	}
	{
		nop
		stw r0, sp[36]
	}
	{
		nop
		ldw r6, r10[0]
	}
	ldaw r0, r4[-6]
	{
		nop
		ldw r1, r0[0]
	}
	ldaw r0, r4[-5]
	{
		nop
		ldw r7, r0[0]
	}
	ldaw r0, r4[-4]
	{
		nop
		ldw r9, r0[0]
	}
	ldaw r0, r4[-3]
	.loc	4 1139 7
.Ltmp1123:
	{
		sub r0, r4, 8
		ldw r10, r0[0]
	}
.Ltmp1124:
	.loc	4 1140 7
	{
		sub r0, r4, 4
		ldw r3, r0[0]
	}
	{
		nop
		ldw r0, r0[0]
	}
.Ltmp1125:
.LBB14_36:
	.loc	4 1019 14
	{
		mov r2, r7
		mov r7, r9
	}
	{
		mov r9, r10
		mov r10, r3
	}
	{
		mov r3, r0
		ldw r0, sp[41]
	}
	.loc	4 1136 7
.Ltmp1126:
	mul r0, r1, r0
.Ltmp1127:
	{
		nop
		ldw r1, sp[40]
	}
	.loc	4 1137 7
	mul r1, r2, r1
	.loc	4 1137 7
	{
		add r0, r1, r0
		ldw r1, sp[38]
	}
.Ltmp1128:
	.loc	4 1138 7
	mul r1, r7, r1
	.loc	4 1138 7
	{
		add r0, r0, r1
		ldw r1, sp[37]
	}
	.loc	4 1139 7
	mul r1, r9, r1
	.loc	4 1139 7
	{
		add r0, r0, r1
		ldw r1, sp[36]
	}
	.loc	4 1140 7
	mul r1, r10, r1
	.loc	4 1140 7
	{
		add r0, r0, r1
		nop
	}
	.loc	4 1141 7
	mul r1, r3, r6
	.loc	4 1141 7
	{
		add r0, r0, r1
		ldw r1, r5[0]
	}
	{
		nop
		ldw r11, sp[51]
	}
	.loc	4 1142 7
	ashr r0, r0, r11
	.loc	4 1142 7
	{
		add r0, r0, r1
		nop
	}
	.loc	4 1142 7
	{
		sub r8, r8, 1
		stw r0, r4[0]
	}
.Ltmp1129:
	.loc	4 1134 6
	{
		add r5, r5, 4
		add r4, r4, 4
	}
.Ltmp1130:
	.loc	4 1019 14
	{
		mov r1, r2
		nop
	}
	bt r8, .LBB14_36
	bu .LBB14_73
.LBB14_15:
.Ltmp1131:
	{
		mkmsk r0, 1
		nop
	}
.Ltmp1132:
	.loc	4 1086 6
	{
		lss r0, r8, r0
		mov r7, r5
	}
.Ltmp1133:
	{
		mov r6, r9
		nop
	}
.Ltmp1134:
	bt r0, .LBB14_73
.Ltmp1135:
	{
		nop
		ldw r10, sp[29]
	}
.Ltmp1136:
	{
		nop
		ldw r0, r10[8]
	}
	{
		nop
		stw r0, sp[36]
	}
	{
		nop
		ldw r0, r10[7]
	}
	{
		nop
		stw r0, sp[35]
	}
	{
		nop
		ldw r0, r10[6]
	}
	{
		nop
		stw r0, sp[34]
	}
	{
		nop
		ldw r0, r10[5]
	}
	{
		nop
		stw r0, sp[33]
	}
	{
		nop
		ldw r0, r10[4]
	}
	{
		nop
		stw r0, sp[32]
	}
	{
		nop
		ldw r0, r10[3]
	}
	{
		nop
		stw r0, sp[31]
	}
	{
		nop
		ldw r0, r10[2]
	}
	{
		nop
		stw r0, sp[30]
	}
	{
		nop
		ldw r0, r10[1]
	}
	{
		nop
		stw r0, sp[28]
	}
	{
		nop
		ldw r0, r10[0]
	}
	{
		nop
		stw r0, sp[29]
	}
	ldaw r0, r6[-9]
	{
		nop
		ldw r10, r0[0]
	}
.Ltmp1137:
	ldaw r0, r6[-8]
	{
		nop
		ldw r5, r0[0]
	}
	ldaw r1, r6[-7]
	{
		nop
		ldw r0, r1[0]
	}
	{
		nop
		stw r0, sp[41]
	}
	ldaw r2, r6[-6]
	{
		nop
		ldw r0, r2[0]
	}
	ldaw r3, r6[-5]
	{
		nop
		ldw r1, r3[0]
	}
	{
		mov r3, r0
		stw r1, sp[40]
	}
	ldaw r11, r6[-4]
	{
		nop
		ldw r11, r11[0]
	}
	ldaw r4, r6[-3]
	.loc	4 1094 7
.Ltmp1138:
	{
		sub r4, r6, 8
		ldw r1, r4[0]
	}
	.loc	4 1095 7
	{
		sub r4, r6, 4
		ldw r2, r4[0]
	}
	{
		nop
		ldw r9, r4[0]
	}
.Ltmp1139:
.LBB14_17:
	.loc	4 1019 14
	{
		mov r0, r5
		ldw r4, sp[41]
	}
	{
		nop
		stw r4, sp[37]
	}
	{
		nop
		stw r3, sp[41]
	}
	{
		nop
		ldw r4, sp[40]
	}
	{
		nop
		stw r4, sp[38]
	}
	{
		nop
		stw r11, sp[40]
	}
	{
		mov r1, r2
		stw r1, sp[39]
	}
	{
		mov r2, r9
		ldw r4, sp[36]
	}
	.loc	4 1088 7
.Ltmp1140:
	mul r4, r10, r4
.Ltmp1141:
	{
		nop
		ldw r5, sp[35]
	}
	.loc	4 1089 7
	mul r5, r0, r5
	.loc	4 1089 7
	{
		add r4, r5, r4
		ldw r5, sp[34]
	}
.Ltmp1142:
	{
		nop
		ldw r10, sp[37]
	}
	.loc	4 1090 7
	mul r5, r10, r5
	.loc	4 1090 7
	{
		add r4, r4, r5
		ldw r5, sp[33]
	}
	.loc	4 1091 7
	mul r5, r3, r5
	{
		add r4, r4, r5
		ldw r3, sp[38]
	}
	{
		nop
		ldw r5, sp[32]
	}
	.loc	4 1092 7
	mul r5, r3, r5
	.loc	4 1092 7
	{
		add r4, r4, r5
		ldw r5, sp[31]
	}
	.loc	4 1093 7
	mul r5, r11, r5
	{
		add r4, r4, r5
		ldw r11, sp[39]
	}
	{
		nop
		ldw r5, sp[30]
	}
	.loc	4 1094 7
	mul r5, r11, r5
	.loc	4 1094 7
	{
		add r4, r4, r5
		ldw r5, sp[28]
	}
	.loc	4 1095 7
	mul r5, r1, r5
	.loc	4 1095 7
	{
		add r4, r4, r5
		ldw r5, sp[29]
	}
	.loc	4 1096 7
	mul r5, r2, r5
	.loc	4 1096 7
	{
		add r4, r4, r5
		ldw r5, r7[0]
	}
	{
		nop
		ldw r9, sp[51]
	}
	.loc	4 1097 7
	ashr r4, r4, r9
	.loc	4 1097 7
	{
		add r9, r4, r5
		mov r5, r10
	}
	.loc	4 1097 7
	{
		sub r8, r8, 1
		stw r9, r6[0]
	}
.Ltmp1143:
	.loc	4 1086 6
	{
		add r7, r7, 4
		add r6, r6, 4
	}
.Ltmp1144:
	.loc	4 1019 14
	{
		mov r10, r0
		nop
	}
	bt r8, .LBB14_17
	bu .LBB14_73
.LBB14_45:
.Ltmp1145:
	.loc	4 1181 8
	{
		eq r0, r4, 2
		nop
	}
	.loc	4 1181 8
	bf r0, .LBB14_46
.Ltmp1146:
	{
		mkmsk r0, 1
		nop
	}
	.loc	4 1182 6
.Ltmp1147:
	{
		lss r0, r8, r0
		nop
	}
	bt r0, .LBB14_73
.Ltmp1148:
	{
		nop
		ldw r10, sp[29]
	}
.Ltmp1149:
	{
		nop
		ldw r0, r10[1]
	}
	.loc	4 1185 7
.Ltmp1150:
	{
		sub r2, r9, 8
		ldw r1, r10[0]
	}
	.loc	4 1184 7
	{
		sub r2, r9, 4
		ldw r3, r2[0]
	}
	{
		nop
		ldw r2, r2[0]
	}
.Ltmp1151:
.LBB14_51:
	.loc	4 1019 14
	{
		mov r11, r2
		nop
	}
	.loc	4 1184 7
.Ltmp1152:
	mul r2, r3, r0
.Ltmp1153:
	.loc	4 1185 7
	mul r3, r11, r1
	.loc	4 1185 7
	{
		add r2, r3, r2
		ldw r3, r5[0]
	}
.Ltmp1154:
	.loc	4 1186 7
	ashr r2, r2, r6
	.loc	4 1186 7
	{
		add r2, r2, r3
		nop
	}
	.loc	4 1186 7
	{
		sub r8, r8, 1
		stw r2, r9[0]
	}
.Ltmp1155:
	.loc	4 1182 6
	{
		add r5, r5, 4
		add r9, r9, 4
	}
.Ltmp1156:
	.loc	4 1019 14
	{
		mov r3, r11
		nop
	}
	bt r8, .LBB14_51
	bu .LBB14_73
.Ltmp1157:
.LBB14_24:
	{
		mkmsk r0, 1
		nop
	}
.Ltmp1158:
	.loc	4 1119 6
	{
		lss r0, r8, r0
		mov r4, r9
	}
.Ltmp1159:
	bt r0, .LBB14_73
.Ltmp1160:
	{
		nop
		ldw r10, sp[29]
	}
.Ltmp1161:
	{
		nop
		ldw r0, r10[6]
	}
	{
		nop
		stw r0, sp[41]
	}
	{
		nop
		ldw r0, r10[5]
	}
	{
		nop
		stw r0, sp[40]
	}
	{
		nop
		ldw r0, r10[4]
	}
	{
		nop
		stw r0, sp[38]
	}
	{
		nop
		ldw r0, r10[3]
	}
	{
		nop
		stw r0, sp[37]
	}
	{
		nop
		ldw r0, r10[2]
	}
	{
		nop
		stw r0, sp[36]
	}
	{
		nop
		ldw r0, r10[1]
	}
	{
		nop
		stw r0, sp[35]
	}
	{
		nop
		ldw r0, r10[0]
	}
	{
		nop
		stw r0, sp[34]
	}
	ldaw r0, r4[-7]
	{
		nop
		ldw r3, r0[0]
	}
	ldaw r0, r4[-6]
	{
		nop
		ldw r9, r0[0]
	}
	ldaw r0, r4[-5]
	{
		nop
		ldw r10, r0[0]
	}
.Ltmp1162:
	ldaw r0, r4[-4]
	{
		nop
		ldw r0, r0[0]
	}
	ldaw r1, r4[-3]
	.loc	4 1125 7
.Ltmp1163:
	{
		sub r2, r4, 8
		ldw r1, r1[0]
	}
	.loc	4 1126 7
	{
		sub r2, r4, 4
		ldw r7, r2[0]
	}
	{
		nop
		ldw r2, r2[0]
	}
.Ltmp1164:
.LBB14_26:
	.loc	4 1019 14
	{
		mov r11, r9
		mov r9, r10
	}
	{
		mov r10, r0
		mov r0, r1
	}
	{
		mov r1, r7
		mov r7, r2
	}
	{
		nop
		ldw r2, sp[41]
	}
	.loc	4 1121 7
.Ltmp1165:
	mul r2, r3, r2
.Ltmp1166:
	{
		nop
		ldw r3, sp[40]
	}
	.loc	4 1122 7
	mul r3, r11, r3
	.loc	4 1122 7
	{
		add r2, r3, r2
		ldw r3, sp[38]
	}
.Ltmp1167:
	.loc	4 1123 7
	mul r3, r9, r3
	.loc	4 1123 7
	{
		add r2, r2, r3
		ldw r3, sp[37]
	}
	.loc	4 1124 7
	mul r3, r10, r3
	.loc	4 1124 7
	{
		add r2, r2, r3
		ldw r3, sp[36]
	}
	.loc	4 1125 7
	mul r3, r0, r3
	.loc	4 1125 7
	{
		add r2, r2, r3
		ldw r3, sp[35]
	}
	.loc	4 1126 7
	mul r3, r1, r3
	.loc	4 1126 7
	{
		add r2, r2, r3
		ldw r3, sp[34]
	}
	.loc	4 1127 7
	mul r3, r7, r3
	.loc	4 1127 7
	{
		add r2, r2, r3
		ldw r3, r5[0]
	}
	{
		nop
		ldw r6, sp[51]
	}
	.loc	4 1128 7
	ashr r2, r2, r6
	.loc	4 1128 7
	{
		add r2, r2, r3
		nop
	}
	.loc	4 1128 7
	{
		sub r8, r8, 1
		stw r2, r4[0]
	}
.Ltmp1168:
	.loc	4 1119 6
	{
		add r5, r5, 4
		add r4, r4, 4
	}
.Ltmp1169:
	.loc	4 1019 14
	{
		mov r3, r11
		nop
	}
	bt r8, .LBB14_26
	bu .LBB14_73
.LBB14_39:
.Ltmp1170:
	{
		mkmsk r0, 1
		nop
	}
.Ltmp1171:
	.loc	4 1171 6
	{
		lss r0, r8, r0
		mov r7, r6
	}
.Ltmp1172:
	{
		mov r6, r5
		nop
	}
.Ltmp1173:
	bt r0, .LBB14_73
.Ltmp1174:
	{
		nop
		ldw r10, sp[29]
	}
.Ltmp1175:
	{
		nop
		ldw r0, r10[2]
	}
	{
		nop
		ldw r1, r10[1]
	}
	{
		nop
		ldw r2, r10[0]
	}
	ldaw r3, r9[-3]
	.loc	4 1173 7
.Ltmp1176:
	{
		sub r3, r9, 8
		ldw r5, r3[0]
	}
	.loc	4 1174 7
	{
		sub r11, r9, 4
		ldw r3, r3[0]
	}
	{
		nop
		ldw r11, r11[0]
	}
.Ltmp1177:
.LBB14_41:
	.loc	4 1019 14
	{
		mov r4, r3
		mov r3, r11
	}
	.loc	4 1173 7
.Ltmp1178:
	mul r11, r5, r0
.Ltmp1179:
	.loc	4 1174 7
	mul r5, r4, r1
	.loc	4 1174 7
	{
		add r11, r5, r11
		nop
	}
.Ltmp1180:
	.loc	4 1175 7
	mul r5, r3, r2
	.loc	4 1175 7
	{
		add r11, r11, r5
		ldw r5, r6[0]
	}
	.loc	4 1176 7
	ashr r11, r11, r7
	.loc	4 1176 7
	{
		add r11, r11, r5
		nop
	}
	.loc	4 1176 7
	{
		sub r8, r8, 1
		stw r11, r9[0]
	}
.Ltmp1181:
	.loc	4 1171 6
	{
		add r6, r6, 4
		add r9, r9, 4
	}
.Ltmp1182:
	.loc	4 1019 14
	{
		mov r5, r4
		nop
	}
	bt r8, .LBB14_41
	bu .LBB14_73
.Ltmp1183:
.LBB14_31:
	{
		mkmsk r0, 1
		nop
	}
.Ltmp1184:
	.loc	4 1146 6
	{
		lss r0, r8, r0
		mov r2, r5
	}
.Ltmp1185:
	{
		mov r3, r9
		nop
	}
.Ltmp1186:
	bt r0, .LBB14_73
.Ltmp1187:
	{
		nop
		ldw r10, sp[29]
	}
.Ltmp1188:
	{
		nop
		ldw r0, r10[4]
	}
	{
		nop
		stw r0, sp[41]
	}
	{
		nop
		ldw r0, r10[3]
	}
	{
		nop
		stw r0, sp[40]
	}
	{
		nop
		ldw r0, r10[2]
	}
	{
		nop
		stw r0, sp[38]
	}
	{
		nop
		ldw r0, r10[1]
	}
	{
		nop
		stw r0, sp[37]
	}
	{
		nop
		ldw r11, r10[0]
	}
	ldaw r0, r3[-5]
	{
		nop
		ldw r10, r0[0]
	}
.Ltmp1189:
	ldaw r0, r3[-4]
	{
		nop
		ldw r6, r0[0]
	}
	ldaw r0, r3[-3]
	.loc	4 1150 7
.Ltmp1190:
	{
		sub r0, r3, 8
		ldw r7, r0[0]
	}
	.loc	4 1151 7
	{
		sub r1, r3, 4
		ldw r0, r0[0]
	}
	{
		nop
		ldw r9, r1[0]
	}
.Ltmp1191:
.LBB14_33:
	.loc	4 1019 14
	{
		mov r1, r6
		mov r6, r7
	}
	{
		mov r7, r0
		mov r0, r9
	}
	{
		nop
		ldw r4, sp[41]
	}
	.loc	4 1148 7
.Ltmp1192:
	mul r4, r10, r4
.Ltmp1193:
	{
		nop
		ldw r5, sp[40]
	}
	.loc	4 1149 7
	mul r5, r1, r5
	.loc	4 1149 7
	{
		add r4, r5, r4
		ldw r5, sp[38]
	}
.Ltmp1194:
	.loc	4 1150 7
	mul r5, r6, r5
	.loc	4 1150 7
	{
		add r4, r4, r5
		ldw r5, sp[37]
	}
	.loc	4 1151 7
	mul r5, r7, r5
	.loc	4 1151 7
	{
		add r4, r4, r5
		nop
	}
	.loc	4 1152 7
	mul r5, r0, r11
	.loc	4 1152 7
	{
		add r4, r4, r5
		ldw r5, r2[0]
	}
	{
		nop
		ldw r9, sp[51]
	}
	.loc	4 1153 7
	ashr r4, r4, r9
	.loc	4 1153 7
	{
		add r9, r4, r5
		nop
	}
	.loc	4 1153 7
	{
		sub r8, r8, 1
		stw r9, r3[0]
	}
.Ltmp1195:
	.loc	4 1146 6
	{
		add r2, r2, 4
		add r3, r3, 4
	}
.Ltmp1196:
	.loc	4 1019 14
	{
		mov r10, r1
		nop
	}
	bt r8, .LBB14_33
	bu .LBB14_73
.LBB14_46:
.Ltmp1197:
	{
		mkmsk r0, 1
		nop
	}
	.loc	4 1190 6
.Ltmp1198:
	{
		lss r0, r8, r0
		nop
	}
	bt r0, .LBB14_73
.Ltmp1199:
	{
		nop
		ldw r0, sp[29]
	}
	.loc	4 1191 7
	{
		sub r1, r9, 4
		ldw r0, r0[0]
	}
	{
		nop
		ldw r1, r1[0]
	}
.Ltmp1200:
.LBB14_48:
	{
		nop
		ldw r2, r5[0]
	}
	.loc	4 1191 7
	mul r1, r1, r0
	.loc	4 1191 7
	ashr r1, r1, r6
	.loc	4 1191 7
	{
		add r1, r1, r2
		nop
	}
	.loc	4 1191 7
	{
		sub r8, r8, 1
		stw r1, r9[0]
	}
	.loc	4 1190 6
	{
		add r5, r5, 4
		add r9, r9, 4
	}
	bt r8, .LBB14_48
.Ltmp1201:
.LBB14_73:
	{
		nop
		ldw r10, sp[48]
	}
	{
		nop
		ldw r8, sp[46]
	}
	{
		nop
		ldw r9, sp[47]
	}
	{
		nop
		ldw r6, sp[44]
	}
	{
		nop
		ldw r7, sp[45]
	}
	{
		nop
		ldw r4, sp[42]
	}
	{
		nop
		ldw r5, sp[43]
	}
	{
		nop
		retsp 50
	}
	.loc	4 1236 1
	# RETURN_REG_HOLDER
.Ltmp1202:
	.cc_bottom FLAC__lpc_restore_signal.function
	.set	FLAC__lpc_restore_signal.nstackwords,(assert.nstackwords + 50)
	.globl	FLAC__lpc_restore_signal.nstackwords
	.set	FLAC__lpc_restore_signal.maxcores,1
	.globl	FLAC__lpc_restore_signal.maxcores
	.set	FLAC__lpc_restore_signal.maxtimers,0
	.globl	FLAC__lpc_restore_signal.maxtimers
	.set	FLAC__lpc_restore_signal.maxchanends,0
	.globl	FLAC__lpc_restore_signal.maxchanends
.Ltmp1203:
	.size	FLAC__lpc_restore_signal, .Ltmp1203-FLAC__lpc_restore_signal
.Lfunc_end14:
	.cfi_endproc

	.section	.cp.rodata.cst4,"aMc",@progbits,4
	.cc_top .LCPI15_0.data,.LCPI15_0
	.align	4
	.type	.LCPI15_0,@object
	.size	.LCPI15_0, 4
.LCPI15_0:
	.long	4294967232
	.cc_bottom .LCPI15_0.data
	.cc_top .LCPI15_1.data,.LCPI15_1
	.align	4
	.type	.LCPI15_1,@object
	.size	.LCPI15_1, 4
.LCPI15_1:
	.long	4294967228
	.cc_bottom .LCPI15_1.data
	.cc_top .LCPI15_2.data,.LCPI15_2
	.align	4
	.type	.LCPI15_2,@object
	.size	.LCPI15_2, 4
.LCPI15_2:
	.long	4294967224
	.cc_bottom .LCPI15_2.data
	.cc_top .LCPI15_3.data,.LCPI15_3
	.align	4
	.type	.LCPI15_3,@object
	.size	.LCPI15_3, 4
.LCPI15_3:
	.long	4294967220
	.cc_bottom .LCPI15_3.data
	.cc_top .LCPI15_4.data,.LCPI15_4
	.align	4
	.type	.LCPI15_4,@object
	.size	.LCPI15_4, 4
.LCPI15_4:
	.long	4294967216
	.cc_bottom .LCPI15_4.data
	.cc_top .LCPI15_5.data,.LCPI15_5
	.align	4
	.type	.LCPI15_5,@object
	.size	.LCPI15_5, 4
.LCPI15_5:
	.long	4294967168
	.cc_bottom .LCPI15_5.data
	.cc_top .LCPI15_6.data,.LCPI15_6
	.align	4
	.type	.LCPI15_6,@object
	.size	.LCPI15_6, 4
.LCPI15_6:
	.long	4294967283
	.cc_bottom .LCPI15_6.data
	.cc_top .LCPI15_7.data,.LCPI15_7
	.align	4
	.type	.LCPI15_7,@object
	.size	.LCPI15_7, 4
.LCPI15_7:
	.long	4294967248
	.cc_bottom .LCPI15_7.data
	.text
	.globl	FLAC__lpc_restore_signal_wide
	.align	4
	.type	FLAC__lpc_restore_signal_wide,@function
	.cc_top FLAC__lpc_restore_signal_wide.function,FLAC__lpc_restore_signal_wide
FLAC__lpc_restore_signal_wide:
.Lfunc_begin15:
	.loc	4 1269 0
	.cfi_startproc
	.issue_mode dual
	{
		nop
		dualentsp 40
	}
.Ltmp1204:
	.cfi_def_cfa_offset 160
.Ltmp1205:
	.cfi_offset 15, 0
	{
		nop
		stw r4, sp[32]
	}
	{
		nop
		stw r5, sp[33]
	}
.Ltmp1206:
	.cfi_offset 4, -32
.Ltmp1207:
	.cfi_offset 5, -28
	{
		nop
		stw r6, sp[34]
	}
	{
		nop
		stw r7, sp[35]
	}
.Ltmp1208:
	.cfi_offset 6, -24
.Ltmp1209:
	.cfi_offset 7, -20
	{
		nop
		stw r8, sp[36]
	}
	{
		nop
		stw r9, sp[37]
	}
.Ltmp1210:
	.cfi_offset 8, -16
.Ltmp1211:
	.cfi_offset 9, -12
.Ltmp1212:
	.cfi_offset 10, -8
.Ltmp1213:
	{
		mov r8, r3
		stw r10, sp[38]
	}
.Ltmp1214:
	{
		mov r7, r2
		mov r4, r1
	}
.Ltmp1215:
	{
		mov r5, r0
		ldw r10, sp[42]
	}
.Ltmp1216:
	{
		eq r0, r8, 0
		ldw r6, sp[41]
	}
.Ltmp1217:
	.loc	4 1273 2 prologue_end
	{
		eq r0, r0, 0
		nop
	}
	.loc	4 1273 2
	bl assert
	{
		ldc r0, 33
		nop
	}
	.loc	4 1274 2
	{
		lsu r0, r8, r0
		nop
	}
	.loc	4 1274 2
	bl assert
	{
		ldc r0, 13
		nop
	}
	.loc	4 1281 5
.Ltmp1218:
	{
		lsu r0, r8, r0
		nop
	}
	.loc	4 1281 5
	bf r0, .LBB15_1
.Ltmp1219:
	{
		ldc r0, 9
		nop
	}
	.loc	4 1282 6
.Ltmp1220:
	{
		lsu r0, r8, r0
		nop
	}
	bt r0, .LBB15_21
.Ltmp1221:
	{
		ldc r0, 11
		nop
	}
.Ltmp1222:
	.loc	4 1283 7
	{
		lsu r0, r8, r0
		mov r3, r10
	}
.Ltmp1223:
	bt r0, .LBB15_14
.Ltmp1224:
	{
		ldc r0, 12
		nop
	}
	.loc	4 1284 8
.Ltmp1225:
	{
		eq r0, r8, r0
		nop
	}
	.loc	4 1284 8
	bf r0, .LBB15_8
.Ltmp1226:
	{
		mkmsk r0, 1
		nop
	}
.Ltmp1227:
	.loc	4 1285 6
	{
		lss r0, r4, r0
		mov r2, r5
	}
.Ltmp1228:
	bt r0, .LBB15_74
.Ltmp1229:
	{
		nop
		ldw r0, r7[11]
	}
	{
		nop
		stw r0, sp[19]
	}
	{
		nop
		ldw r0, r7[10]
	}
	{
		nop
		stw r0, sp[18]
	}
	{
		nop
		ldw r0, r7[9]
	}
	{
		nop
		stw r0, sp[17]
	}
	{
		nop
		ldw r0, r7[8]
	}
	{
		nop
		stw r0, sp[16]
	}
	{
		nop
		ldw r0, r7[7]
	}
	{
		nop
		stw r0, sp[15]
	}
	{
		nop
		ldw r0, r7[6]
	}
	{
		nop
		stw r0, sp[14]
	}
	{
		nop
		ldw r0, r7[5]
	}
	{
		nop
		stw r0, sp[13]
	}
	{
		nop
		ldw r0, r7[4]
	}
	{
		nop
		stw r0, sp[12]
	}
	{
		nop
		ldw r0, r7[3]
	}
	{
		nop
		stw r0, sp[11]
	}
	{
		nop
		ldw r0, r7[2]
	}
	{
		nop
		stw r0, sp[10]
	}
	{
		nop
		ldw r0, r7[1]
	}
	{
		nop
		stw r0, sp[9]
	}
	{
		nop
		ldw r0, r7[0]
	}
	{
		nop
		stw r0, sp[8]
	}
	ldw r0, cp[.LCPI15_7]
	{
		add r0, r3, r0
		nop
	}
	{
		nop
		ldw r11, r0[0]
	}
	ldaw r0, r3[-11]
	{
		nop
		ldw r1, r0[0]
	}
	ldaw r0, r3[-10]
	{
		nop
		ldw r5, r0[0]
	}
	ldaw r0, r3[-9]
	{
		nop
		ldw r8, r0[0]
	}
	ldaw r0, r3[-8]
	{
		nop
		ldw r9, r0[0]
	}
	ldaw r0, r3[-7]
	{
		nop
		ldw r0, r0[0]
	}
	{
		nop
		stw r0, sp[26]
	}
	ldaw r0, r3[-6]
	{
		nop
		ldw r0, r0[0]
	}
	{
		nop
		stw r0, sp[25]
	}
	ldaw r0, r3[-5]
	{
		nop
		ldw r0, r0[0]
	}
	{
		nop
		stw r0, sp[29]
	}
	ldaw r0, r3[-4]
	{
		nop
		ldw r0, r0[0]
	}
	{
		nop
		stw r0, sp[30]
	}
	ldaw r0, r3[-3]
	{
		nop
		ldw r0, r0[0]
	}
	{
		sub r0, r3, 8
		stw r0, sp[28]
	}
	{
		nop
		ldw r0, r0[0]
	}
	{
		sub r0, r3, 4
		stw r0, sp[27]
	}
	.loc	4 1298 7
.Ltmp1230:
	{
		ldc r7, 0
		ldw r0, r0[0]
	}
.Ltmp1231:
.LBB15_13:
	.loc	4 1271 14
	{
		mov r2, r1
		stw r2, sp[31]
	}
	{
		mov r6, r5
		stw r2, sp[24]
	}
	{
		nop
		stw r6, sp[23]
	}
	{
		nop
		stw r8, sp[20]
	}
	{
		nop
		stw r9, sp[22]
	}
	{
		nop
		ldw r1, sp[26]
	}
	{
		nop
		stw r1, sp[21]
	}
	{
		nop
		ldw r8, sp[25]
	}
	{
		nop
		stw r8, sp[26]
	}
	{
		nop
		ldw r5, sp[29]
	}
	{
		nop
		stw r5, sp[25]
	}
	{
		nop
		ldw r1, sp[30]
	}
	{
		nop
		stw r1, sp[29]
	}
	{
		nop
		ldw r1, sp[28]
	}
	{
		nop
		stw r1, sp[30]
	}
	{
		nop
		ldw r1, sp[27]
	}
	{
		nop
		stw r1, sp[28]
	}
	{
		mov r10, r7
		stw r0, sp[27]
	}
	.loc	4 1287 7
.Ltmp1232:
	{
		mov r1, r10
		mov r0, r10
	}
	{
		nop
		ldw r7, sp[19]
	}
	maccs r1, r0, r11, r7
	{
		nop
		ldw r11, sp[18]
	}
	.loc	4 1288 7
	maccs r1, r0, r2, r11
	{
		nop
		ldw r11, sp[17]
	}
	.loc	4 1289 7
	maccs r1, r0, r6, r11
	{
		nop
		ldw r11, sp[16]
	}
	{
		nop
		ldw r7, sp[20]
	}
	.loc	4 1290 7
	maccs r1, r0, r7, r11
	{
		nop
		ldw r11, sp[15]
	}
	.loc	4 1291 7
	maccs r1, r0, r9, r11
	{
		nop
		ldw r11, sp[14]
	}
	{
		nop
		ldw r6, sp[21]
	}
	.loc	4 1292 7
	maccs r1, r0, r6, r11
	{
		nop
		ldw r11, sp[13]
	}
	.loc	4 1293 7
	maccs r1, r0, r8, r11
	{
		nop
		ldw r11, sp[12]
	}
	.loc	4 1294 7
	maccs r1, r0, r5, r11
	{
		nop
		ldw r11, sp[11]
	}
	{
		nop
		ldw r2, sp[29]
	}
	.loc	4 1295 7
	maccs r1, r0, r2, r11
	{
		nop
		ldw r11, sp[10]
	}
	{
		nop
		ldw r2, sp[30]
	}
	.loc	4 1296 7
	maccs r1, r0, r2, r11
	{
		nop
		ldw r11, sp[9]
	}
	{
		nop
		ldw r2, sp[28]
	}
	.loc	4 1297 7
	maccs r1, r0, r2, r11
	{
		nop
		ldw r11, sp[8]
	}
	{
		nop
		ldw r2, sp[27]
	}
	.loc	4 1298 7
	maccs r1, r0, r2, r11
	{
		nop
		ldw r2, sp[31]
	}
	{
		nop
		ldw r9, r2[0]
	}
.Ltmp1233:
	{
		mov r8, r3
		ldw r2, sp[41]
	}
	.loc	4 1299 7
	bl __ashrdi3
.Ltmp1234:
	{
		mov r5, r7
		ldw r2, sp[31]
	}
	{
		mov r3, r8
		ldw r8, sp[22]
	}
	.loc	4 1299 7
	ladd r1, r0, r0, r9, r10
	{
		mov r7, r10
		mov r9, r6
	}
	{
		nop
		ldw r1, sp[23]
	}
	.loc	4 1299 7
	{
		sub r4, r4, 1
		stw r0, r3[0]
	}
.Ltmp1235:
	.loc	4 1285 6
	{
		add r2, r2, 4
		add r3, r3, 4
	}
	{
		nop
		ldw r11, sp[24]
	}
	bt r4, .LBB15_13
	bu .LBB15_74
.Ltmp1236:
.LBB15_1:
	{
		mkmsk r0, 1
		nop
	}
.Ltmp1237:
	.loc	4 1449 3
	{
		lss r0, r4, r0
		mov r9, r5
	}
.Ltmp1238:
	bt r0, .LBB15_74
.Ltmp1239:
	ldc r0, 124
	.loc	4 1452 14
.Ltmp1240:
	{
		add r0, r7, r0
		nop
	}
	{
		nop
		stw r0, sp[3]
	}
	ldc r0, 120
	.loc	4 1453 14
	{
		add r0, r7, r0
		nop
	}
	{
		nop
		stw r0, sp[4]
	}
	ldc r0, 116
	.loc	4 1454 14
	{
		add r0, r7, r0
		nop
	}
	{
		nop
		stw r0, sp[5]
	}
	ldc r0, 112
	.loc	4 1455 14
	{
		add r0, r7, r0
		nop
	}
	{
		nop
		stw r0, sp[6]
	}
	ldc r0, 108
	.loc	4 1456 14
	{
		add r0, r7, r0
		nop
	}
	{
		nop
		stw r0, sp[7]
	}
	ldc r0, 104
	.loc	4 1457 14
	{
		add r0, r7, r0
		nop
	}
	{
		nop
		stw r0, sp[8]
	}
	ldc r0, 100
	.loc	4 1458 14
	{
		add r0, r7, r0
		nop
	}
	{
		nop
		stw r0, sp[9]
	}
	ldc r0, 96
	.loc	4 1459 14
	{
		add r0, r7, r0
		nop
	}
	{
		nop
		stw r0, sp[10]
	}
	ldc r0, 92
	.loc	4 1460 14
	{
		add r0, r7, r0
		nop
	}
	{
		nop
		stw r0, sp[11]
	}
	ldc r0, 88
	.loc	4 1461 14
	{
		add r0, r7, r0
		nop
	}
	{
		nop
		stw r0, sp[12]
	}
	ldc r0, 84
	.loc	4 1462 14
	{
		add r0, r7, r0
		nop
	}
	{
		nop
		stw r0, sp[13]
	}
	ldc r0, 80
	.loc	4 1463 14
	{
		add r0, r7, r0
		nop
	}
	{
		nop
		stw r0, sp[14]
	}
	ldc r0, 76
	.loc	4 1464 14
	{
		add r0, r7, r0
		nop
	}
	{
		nop
		stw r0, sp[16]
	}
	ldc r0, 72
	.loc	4 1465 14
	{
		add r0, r7, r0
		nop
	}
	{
		nop
		stw r0, sp[18]
	}
	ldc r0, 68
	.loc	4 1466 14
	{
		add r0, r7, r0
		nop
	}
	{
		nop
		stw r0, sp[20]
	}
	ldc r0, 64
	.loc	4 1467 14
	{
		add r0, r7, r0
		nop
	}
	{
		ldc r0, 60
		stw r0, sp[22]
	}
	.loc	4 1468 14
	{
		add r0, r7, r0
		nop
	}
	{
		ldc r0, 56
		stw r0, sp[23]
	}
	.loc	4 1469 14
	{
		add r0, r7, r0
		nop
	}
	{
		ldc r0, 52
		stw r0, sp[24]
	}
	.loc	4 1470 14
	{
		add r0, r7, r0
		nop
	}
	{
		ldc r0, 48
		stw r0, sp[25]
	}
	.loc	4 1471 14
	{
		add r0, r7, r0
		nop
	}
	{
		sub r0, r10, 4
		stw r0, sp[29]
	}
	{
		nop
		stw r0, sp[28]
	}
	ldw r0, cp[.LCPI15_0]
	{
		add r0, r10, r0
		nop
	}
	{
		nop
		stw r0, sp[27]
	}
	ldw r0, cp[.LCPI15_1]
	{
		add r0, r10, r0
		nop
	}
	{
		nop
		stw r0, sp[21]
	}
	ldw r0, cp[.LCPI15_2]
	{
		add r0, r10, r0
		nop
	}
	{
		nop
		stw r0, sp[19]
	}
	ldw r0, cp[.LCPI15_3]
	{
		add r0, r10, r0
		nop
	}
	{
		nop
		stw r0, sp[17]
	}
	ldw r0, cp[.LCPI15_4]
	{
		add r0, r10, r0
		nop
	}
	{
		nop
		stw r0, sp[15]
	}
	ldw r0, cp[.LCPI15_5]
	{
		add r0, r10, r0
		nop
	}
	{
		ldc r2, 0
		stw r0, sp[26]
	}
	ldw r0, cp[.LCPI15_6]
.Ltmp1241:
	.loc	4 1451 4
	{
		add r3, r8, r0
		nop
	}
	{
		mov r8, r2
		stw r3, sp[30]
	}
.Ltmp1242:
.LBB15_3:
	{
		mov r5, r9
		mov r0, r2
	}
.Ltmp1243:
	{
		shr r1, r3, 2
		ldc r11, 4
	}
	{
		lsu r1, r11, r1
		nop
	}
	bf r1, .LBB15_52
.Ltmp1244:
	{
		mov r1, r2
		stw r4, sp[31]
	}
.Ltmp1245:
	{
		mov r9, r5
		mov r4, r2
	}
.Ltmp1246:
	bu .LBB15_73
.Ltmp1247:
.LBB15_52:
	{
		mov r1, r2
		stw r4, sp[31]
	}
	{
		nop
		ldw r11, sp[27]
	}
	{
		nop
		ldw r9, sp[26]
	}

	.xtabranch .Ljumptable5+4,.Ljumptable5+8,.Ljumptable5+12,.Ljumptable5+16,.Ljumptable5+20,.Ljumptable5+24,.Ljumptable5+28,.Ljumptable5+32,.Ljumptable5+36,.Ljumptable5+40,.Ljumptable5+44,.Ljumptable5+48,.Ljumptable5+52,.Ljumptable5+56,.Ljumptable5+60,.Ljumptable5+64,.Ljumptable5+68,.Ljumptable5+72,.Ljumptable5+76,.Ljumptable5+80
.Ljumptable5:
		
	{
		nop
		bru r3
	}
	.jmptable32 .LBB15_72,.LBB15_71,.LBB15_70,.LBB15_69,.LBB15_68,.LBB15_67,.LBB15_66,.LBB15_65,.LBB15_64,.LBB15_63,.LBB15_62,.LBB15_61,.LBB15_60,.LBB15_59,.LBB15_58,.LBB15_57,.LBB15_56,.LBB15_55,.LBB15_54,.LBB15_53
.Ltmp1248:
.LBB15_53:
	{
		nop
		ldw r0, sp[3]
	}
	.loc	4 1452 14
.Ltmp1249:
	{
		add r0, r9, r8
		ldw r2, r0[0]
	}
	.loc	4 1452 14
	{
		ldc r0, 0
		ldw r3, r0[0]
	}
	.loc	4 1452 14
	{
		mov r1, r0
		nop
	}
	maccs r1, r0, r3, r2
.Ltmp1250:
.LBB15_54:
	{
		nop
		ldw r2, sp[4]
	}
	.loc	4 1453 14
	{
		add r3, r9, r8
		ldw r2, r2[0]
	}
	{
		nop
		ldw r3, r3[1]
	}
	.loc	4 1453 14
	maccs r1, r0, r3, r2
.Ltmp1251:
.LBB15_55:
	{
		nop
		ldw r2, sp[5]
	}
	.loc	4 1454 14
	{
		add r3, r9, r8
		ldw r2, r2[0]
	}
	{
		nop
		ldw r3, r3[2]
	}
	.loc	4 1454 14
	maccs r1, r0, r3, r2
.Ltmp1252:
.LBB15_56:
	{
		nop
		ldw r2, sp[6]
	}
	.loc	4 1455 14
	{
		add r3, r9, r8
		ldw r2, r2[0]
	}
	{
		nop
		ldw r3, r3[3]
	}
	.loc	4 1455 14
	maccs r1, r0, r3, r2
.Ltmp1253:
.LBB15_57:
	{
		nop
		ldw r2, sp[7]
	}
	.loc	4 1456 14
	{
		add r3, r9, r8
		ldw r2, r2[0]
	}
	{
		nop
		ldw r3, r3[4]
	}
	.loc	4 1456 14
	maccs r1, r0, r3, r2
.Ltmp1254:
.LBB15_58:
	{
		nop
		ldw r2, sp[8]
	}
	.loc	4 1457 14
	{
		add r3, r9, r8
		ldw r2, r2[0]
	}
	{
		nop
		ldw r3, r3[5]
	}
	.loc	4 1457 14
	maccs r1, r0, r3, r2
.Ltmp1255:
.LBB15_59:
	{
		nop
		ldw r2, sp[9]
	}
	.loc	4 1458 14
	{
		add r3, r9, r8
		ldw r2, r2[0]
	}
	{
		nop
		ldw r3, r3[6]
	}
	.loc	4 1458 14
	maccs r1, r0, r3, r2
.Ltmp1256:
.LBB15_60:
	{
		nop
		ldw r2, sp[10]
	}
	.loc	4 1459 14
	{
		add r3, r9, r8
		ldw r2, r2[0]
	}
	{
		nop
		ldw r3, r3[7]
	}
	.loc	4 1459 14
	maccs r1, r0, r3, r2
.Ltmp1257:
.LBB15_61:
	{
		nop
		ldw r2, sp[11]
	}
	.loc	4 1460 14
	{
		add r3, r9, r8
		ldw r2, r2[0]
	}
	{
		nop
		ldw r3, r3[8]
	}
	.loc	4 1460 14
	maccs r1, r0, r3, r2
.Ltmp1258:
.LBB15_62:
	{
		nop
		ldw r2, sp[12]
	}
	.loc	4 1461 14
	{
		add r3, r9, r8
		ldw r2, r2[0]
	}
	{
		nop
		ldw r3, r3[9]
	}
	.loc	4 1461 14
	maccs r1, r0, r3, r2
.Ltmp1259:
.LBB15_63:
	{
		nop
		ldw r2, sp[13]
	}
	.loc	4 1462 14
	{
		add r3, r9, r8
		ldw r2, r2[0]
	}
	{
		nop
		ldw r3, r3[10]
	}
	.loc	4 1462 14
	maccs r1, r0, r3, r2
.Ltmp1260:
.LBB15_64:
	{
		nop
		ldw r2, sp[14]
	}
	.loc	4 1463 14
	{
		add r3, r9, r8
		ldw r2, r2[0]
	}
	{
		nop
		ldw r3, r3[11]
	}
	.loc	4 1463 14
	maccs r1, r0, r3, r2
.Ltmp1261:
.LBB15_65:
	{
		nop
		ldw r2, sp[16]
	}
	{
		nop
		ldw r2, r2[0]
	}
	{
		nop
		ldw r3, sp[15]
	}
	{
		add r3, r3, r8
		nop
	}
	{
		nop
		ldw r3, r3[0]
	}
	.loc	4 1464 14
	maccs r1, r0, r3, r2
.Ltmp1262:
.LBB15_66:
	{
		nop
		ldw r2, sp[18]
	}
	{
		nop
		ldw r2, r2[0]
	}
	{
		nop
		ldw r3, sp[17]
	}
	{
		add r3, r3, r8
		nop
	}
	{
		nop
		ldw r3, r3[0]
	}
	.loc	4 1465 14
	maccs r1, r0, r3, r2
.Ltmp1263:
.LBB15_67:
	{
		nop
		ldw r2, sp[20]
	}
	{
		nop
		ldw r2, r2[0]
	}
	{
		nop
		ldw r3, sp[19]
	}
	{
		add r3, r3, r8
		nop
	}
	{
		nop
		ldw r3, r3[0]
	}
	.loc	4 1466 14
	maccs r1, r0, r3, r2
.Ltmp1264:
.LBB15_68:
	{
		nop
		ldw r2, sp[22]
	}
	{
		nop
		ldw r2, r2[0]
	}
	{
		nop
		ldw r3, sp[21]
	}
	{
		add r3, r3, r8
		nop
	}
	{
		nop
		ldw r3, r3[0]
	}
	.loc	4 1467 14
	maccs r1, r0, r3, r2
.Ltmp1265:
.LBB15_69:
	{
		nop
		ldw r2, sp[23]
	}
	.loc	4 1468 14
	{
		add r3, r11, r8
		ldw r2, r2[0]
	}
	{
		nop
		ldw r3, r3[0]
	}
	.loc	4 1468 14
	maccs r1, r0, r3, r2
.Ltmp1266:
.LBB15_70:
	{
		nop
		ldw r2, sp[24]
	}
	.loc	4 1469 14
	{
		add r3, r11, r8
		ldw r2, r2[0]
	}
	{
		nop
		ldw r3, r3[1]
	}
	.loc	4 1469 14
	maccs r1, r0, r3, r2
.Ltmp1267:
.LBB15_71:
	{
		nop
		ldw r2, sp[25]
	}
	.loc	4 1470 14
	{
		add r3, r11, r8
		ldw r2, r2[0]
	}
	{
		nop
		ldw r3, r3[2]
	}
	.loc	4 1470 14
	maccs r1, r0, r3, r2
.Ltmp1268:
.LBB15_72:
	{
		nop
		ldw r2, sp[29]
	}
	.loc	4 1471 14
	{
		add r2, r11, r8
		ldw r3, r2[0]
	}
	{
		nop
		ldw r11, r2[3]
	}
	.loc	4 1471 14
	maccs r1, r0, r11, r3
	{
		nop
		ldw r3, r7[11]
	}
	{
		nop
		ldw r11, r2[4]
	}
	.loc	4 1472 14
	maccs r1, r0, r11, r3
	{
		nop
		ldw r3, r7[10]
	}
	{
		nop
		ldw r11, r2[5]
	}
	.loc	4 1473 14
	maccs r1, r0, r11, r3
	{
		nop
		ldw r3, r7[9]
	}
	{
		nop
		ldw r11, r2[6]
	}
	.loc	4 1474 14
	maccs r1, r0, r11, r3
	{
		nop
		ldw r3, r7[8]
	}
	{
		nop
		ldw r11, r2[7]
	}
	.loc	4 1475 14
	maccs r1, r0, r11, r3
	{
		nop
		ldw r3, r7[7]
	}
	{
		nop
		ldw r11, r2[8]
	}
	.loc	4 1476 14
	maccs r1, r0, r11, r3
	{
		nop
		ldw r3, r7[6]
	}
	{
		nop
		ldw r11, r2[9]
	}
	.loc	4 1477 14
	maccs r1, r0, r11, r3
	{
		nop
		ldw r3, r7[5]
	}
	{
		nop
		ldw r11, r2[10]
	}
	.loc	4 1478 14
	maccs r1, r0, r11, r3
	{
		nop
		ldw r3, r7[4]
	}
	{
		nop
		ldw r2, r2[11]
	}
	.loc	4 1479 14
	maccs r1, r0, r2, r3
	{
		nop
		ldw r2, r7[3]
	}
	{
		nop
		ldw r3, sp[28]
	}
	{
		add r3, r3, r8
		nop
	}
	ldaw r11, r3[-3]
	{
		nop
		ldw r11, r11[0]
	}
	.loc	4 1480 14
	maccs r1, r0, r11, r2
	.loc	4 1481 14
	{
		sub r11, r3, 8
		ldw r2, r7[2]
	}
	{
		nop
		ldw r11, r11[0]
	}
	.loc	4 1481 14
	maccs r1, r0, r11, r2
	.loc	4 1482 14
	{
		sub r11, r3, 4
		ldw r2, r7[1]
	}
	{
		nop
		ldw r11, r11[0]
	}
	.loc	4 1482 14
	maccs r1, r0, r11, r2
	{
		nop
		ldw r2, r7[0]
	}
	{
		nop
		ldw r3, r3[0]
	}
	.loc	4 1483 14
	maccs r1, r0, r3, r2
.Ltmp1269:
	{
		mov r9, r5
		ldc r4, 0
	}
.Ltmp1270:
.LBB15_73:
	{
		add r2, r9, r8
		nop
	}
	.loc	4 1485 4
	{
		mov r2, r6
		ldw r5, r2[0]
	}
	.loc	4 1485 4
	bl __ashrdi3
	.loc	4 1485 4
	ladd r1, r0, r5, r0, r4
	{
		add r1, r10, r8
		nop
	}
	{
		nop
		stw r0, r1[0]
	}
	{
		nop
		ldw r0, sp[31]
	}
.Ltmp1271:
	.loc	4 1449 3
	{
		sub r0, r0, 1
		add r8, r8, 4
	}
	{
		mov r2, r4
		mov r4, r0
	}
	{
		nop
		ldw r3, sp[30]
	}
	bt r4, .LBB15_3
	bu .LBB15_74
.Ltmp1272:
.LBB15_21:
	{
		ldc r0, 5
		nop
	}
.Ltmp1273:
	.loc	4 1354 11
	{
		lsu r0, r8, r0
		mov r3, r10
	}
.Ltmp1274:
	bt r0, .LBB15_37
.Ltmp1275:
	{
		mkmsk r0, 3
		nop
	}
	.loc	4 1355 7
.Ltmp1276:
	{
		lsu r0, r8, r0
		nop
	}
	bt r0, .LBB15_30
.Ltmp1277:
	.loc	4 1356 8
	{
		eq r0, r8, 8
		nop
	}
	.loc	4 1356 8
	bf r0, .LBB15_24
.Ltmp1278:
	{
		mkmsk r0, 1
		nop
	}
.Ltmp1279:
	.loc	4 1357 6
	{
		lss r0, r4, r0
		stw r5, sp[31]
	}
	bt r0, .LBB15_74
.Ltmp1280:
	{
		nop
		ldw r0, r7[7]
	}
	{
		nop
		stw r0, sp[23]
	}
	{
		nop
		ldw r0, r7[6]
	}
	{
		nop
		stw r0, sp[22]
	}
	{
		nop
		ldw r0, r7[5]
	}
	{
		nop
		stw r0, sp[21]
	}
	{
		nop
		ldw r0, r7[4]
	}
	{
		nop
		stw r0, sp[20]
	}
	{
		nop
		ldw r0, r7[3]
	}
	{
		nop
		stw r0, sp[19]
	}
	{
		nop
		ldw r0, r7[2]
	}
	{
		nop
		stw r0, sp[18]
	}
	{
		nop
		ldw r0, r7[1]
	}
	{
		nop
		stw r0, sp[17]
	}
	{
		nop
		ldw r0, r7[0]
	}
	{
		nop
		stw r0, sp[16]
	}
	ldaw r0, r3[-8]
	{
		nop
		ldw r7, r0[0]
	}
.Ltmp1281:
	ldaw r0, r3[-7]
	{
		nop
		ldw r1, r0[0]
	}
	ldaw r0, r3[-6]
	{
		nop
		ldw r9, r0[0]
	}
	ldaw r0, r3[-5]
	{
		nop
		ldw r2, r0[0]
	}
	ldaw r0, r3[-4]
	{
		nop
		ldw r0, r0[0]
	}
	{
		nop
		stw r0, sp[30]
	}
	ldaw r0, r3[-3]
	.loc	4 1364 7
.Ltmp1282:
	{
		sub r0, r3, 8
		ldw r11, r0[0]
	}
	.loc	4 1365 7
	{
		sub r0, r3, 4
		ldw r10, r0[0]
	}
	.loc	4 1366 7
	{
		ldc r8, 0
		ldw r0, r0[0]
	}
.Ltmp1283:
.LBB15_29:
	.loc	4 1271 14
	{
		mov r6, r1
		nop
	}
	{
		nop
		stw r6, sp[29]
	}
	{
		nop
		stw r9, sp[28]
	}
	{
		nop
		stw r2, sp[26]
	}
	{
		nop
		ldw r1, sp[30]
	}
	{
		nop
		stw r1, sp[25]
	}
	{
		nop
		stw r11, sp[30]
	}
	{
		mov r10, r0
		stw r10, sp[27]
	}
	.loc	4 1359 7
.Ltmp1284:
	{
		mov r1, r8
		mov r0, r8
	}
	{
		nop
		ldw r5, sp[23]
	}
	maccs r1, r0, r7, r5
	{
		nop
		ldw r11, sp[22]
	}
	.loc	4 1360 7
	maccs r1, r0, r6, r11
	{
		nop
		ldw r11, sp[21]
	}
	.loc	4 1361 7
	maccs r1, r0, r9, r11
	{
		nop
		ldw r11, sp[20]
	}
	.loc	4 1362 7
	maccs r1, r0, r2, r11
	{
		nop
		ldw r11, sp[19]
	}
	{
		nop
		ldw r7, sp[25]
	}
	.loc	4 1363 7
	maccs r1, r0, r7, r11
	{
		nop
		ldw r11, sp[18]
	}
	{
		nop
		ldw r2, sp[30]
	}
	.loc	4 1364 7
	maccs r1, r0, r2, r11
	{
		nop
		ldw r11, sp[17]
	}
	{
		nop
		ldw r6, sp[27]
	}
	.loc	4 1365 7
	maccs r1, r0, r6, r11
	{
		nop
		ldw r11, sp[16]
	}
	.loc	4 1366 7
	maccs r1, r0, r10, r11
	{
		nop
		ldw r5, sp[31]
	}
	{
		nop
		ldw r2, r5[0]
	}
	{
		nop
		stw r2, sp[24]
	}
.Ltmp1285:
	{
		mov r9, r3
		ldw r2, sp[41]
	}
	.loc	4 1367 7
	bl __ashrdi3
.Ltmp1286:
	{
		mov r11, r6
		mov r3, r9
	}
	{
		mov r2, r7
		ldw r1, sp[24]
	}
	.loc	4 1367 7
	ladd r1, r0, r0, r1, r8
	{
		nop
		ldw r9, sp[26]
	}
	{
		nop
		ldw r1, sp[28]
	}
	.loc	4 1367 7
	{
		sub r4, r4, 1
		stw r0, r3[0]
	}
.Ltmp1287:
	.loc	4 1357 6
	{
		add r5, r5, 4
		nop
	}
	{
		add r3, r3, 4
		stw r5, sp[31]
	}
	{
		nop
		ldw r7, sp[29]
	}
	bt r4, .LBB15_29
	bu .LBB15_74
.Ltmp1288:
.LBB15_14:
	.loc	4 1321 8
	{
		eq r0, r8, 10
		nop
	}
	.loc	4 1321 8
	bf r0, .LBB15_15
.Ltmp1289:
	{
		mkmsk r0, 1
		nop
	}
.Ltmp1290:
	.loc	4 1322 6
	{
		lss r0, r4, r0
		mov r2, r5
	}
.Ltmp1291:
	bt r0, .LBB15_74
.Ltmp1292:
	{
		nop
		ldw r0, r7[9]
	}
	{
		nop
		stw r0, sp[21]
	}
	{
		nop
		ldw r0, r7[8]
	}
	{
		nop
		stw r0, sp[20]
	}
	{
		nop
		ldw r0, r7[7]
	}
	{
		nop
		stw r0, sp[19]
	}
	{
		nop
		ldw r0, r7[6]
	}
	{
		nop
		stw r0, sp[18]
	}
	{
		nop
		ldw r0, r7[5]
	}
	{
		nop
		stw r0, sp[17]
	}
	{
		nop
		ldw r0, r7[4]
	}
	{
		nop
		stw r0, sp[16]
	}
	{
		nop
		ldw r0, r7[3]
	}
	{
		nop
		stw r0, sp[15]
	}
	{
		nop
		ldw r0, r7[2]
	}
	{
		nop
		stw r0, sp[14]
	}
	{
		nop
		ldw r0, r7[1]
	}
	{
		nop
		stw r0, sp[13]
	}
	{
		nop
		ldw r0, r7[0]
	}
	{
		nop
		stw r0, sp[12]
	}
	ldaw r0, r3[-10]
	{
		nop
		ldw r11, r0[0]
	}
	ldaw r0, r3[-9]
	{
		nop
		ldw r1, r0[0]
	}
	ldaw r0, r3[-8]
	{
		nop
		ldw r10, r0[0]
	}
	ldaw r0, r3[-7]
	{
		nop
		ldw r8, r0[0]
	}
	ldaw r0, r3[-6]
	{
		nop
		ldw r9, r0[0]
	}
	ldaw r0, r3[-5]
	{
		nop
		ldw r0, r0[0]
	}
	{
		nop
		stw r0, sp[28]
	}
	ldaw r0, r3[-4]
	{
		nop
		ldw r0, r0[0]
	}
	{
		nop
		stw r0, sp[27]
	}
	ldaw r0, r3[-3]
	{
		nop
		ldw r0, r0[0]
	}
	{
		sub r0, r3, 8
		stw r0, sp[30]
	}
	{
		nop
		ldw r0, r0[0]
	}
	{
		sub r0, r3, 4
		stw r0, sp[29]
	}
	.loc	4 1333 7
.Ltmp1293:
	{
		ldc r6, 0
		ldw r0, r0[0]
	}
.Ltmp1294:
.LBB15_20:
	{
		mov r2, r1
		stw r2, sp[31]
	}
	.loc	4 1271 14
	{
		mov r5, r10
		stw r2, sp[26]
	}
	{
		nop
		stw r5, sp[25]
	}
	{
		nop
		stw r8, sp[24]
	}
	{
		nop
		stw r9, sp[22]
	}
	{
		nop
		ldw r1, sp[28]
	}
	{
		nop
		stw r1, sp[23]
	}
	{
		nop
		ldw r9, sp[27]
	}
	{
		nop
		stw r9, sp[28]
	}
	{
		nop
		ldw r10, sp[30]
	}
	{
		nop
		stw r10, sp[27]
	}
	{
		nop
		ldw r1, sp[29]
	}
	{
		nop
		stw r1, sp[30]
	}
	{
		mov r7, r6
		stw r0, sp[29]
	}
	.loc	4 1324 7
.Ltmp1295:
	{
		mov r1, r7
		mov r0, r7
	}
	{
		nop
		ldw r6, sp[21]
	}
	maccs r1, r0, r11, r6
	{
		nop
		ldw r11, sp[20]
	}
	.loc	4 1325 7
	maccs r1, r0, r2, r11
	{
		nop
		ldw r11, sp[19]
	}
	.loc	4 1326 7
	maccs r1, r0, r5, r11
	{
		nop
		ldw r11, sp[18]
	}
	.loc	4 1327 7
	maccs r1, r0, r8, r11
	{
		nop
		ldw r11, sp[17]
	}
	{
		nop
		ldw r8, sp[22]
	}
	.loc	4 1328 7
	maccs r1, r0, r8, r11
	{
		nop
		ldw r11, sp[16]
	}
	{
		nop
		ldw r5, sp[23]
	}
	.loc	4 1329 7
	maccs r1, r0, r5, r11
	{
		nop
		ldw r11, sp[15]
	}
	.loc	4 1330 7
	maccs r1, r0, r9, r11
	{
		nop
		ldw r11, sp[14]
	}
	.loc	4 1331 7
	maccs r1, r0, r10, r11
	{
		nop
		ldw r11, sp[13]
	}
	{
		nop
		ldw r2, sp[30]
	}
	.loc	4 1332 7
	maccs r1, r0, r2, r11
	{
		nop
		ldw r11, sp[12]
	}
	{
		nop
		ldw r2, sp[29]
	}
	.loc	4 1333 7
	maccs r1, r0, r2, r11
	{
		nop
		ldw r2, sp[31]
	}
	{
		nop
		ldw r9, r2[0]
	}
.Ltmp1296:
	{
		mov r6, r3
		ldw r2, sp[41]
	}
	.loc	4 1334 7
	bl __ashrdi3
.Ltmp1297:
	{
		mov r3, r6
		ldw r2, sp[31]
	}
	{
		nop
		ldw r10, sp[24]
	}
	.loc	4 1334 7
	ladd r1, r0, r0, r9, r7
	{
		mov r6, r7
		mov r9, r5
	}
	{
		nop
		ldw r1, sp[25]
	}
	.loc	4 1334 7
	{
		sub r4, r4, 1
		stw r0, r3[0]
	}
.Ltmp1298:
	.loc	4 1322 6
	{
		add r2, r2, 4
		add r3, r3, 4
	}
	{
		nop
		ldw r11, sp[26]
	}
	bt r4, .LBB15_20
	bu .LBB15_74
.Ltmp1299:
.LBB15_37:
	{
		mkmsk r0, 2
		nop
	}
	.loc	4 1411 7
.Ltmp1300:
	{
		lsu r0, r8, r0
		nop
	}
	bt r0, .LBB15_45
.Ltmp1301:
	.loc	4 1412 8
	{
		eq r0, r8, 4
		nop
	}
	.loc	4 1412 8
	bf r0, .LBB15_39
.Ltmp1302:
	{
		mkmsk r0, 1
		nop
	}
.Ltmp1303:
	.loc	4 1413 6
	{
		lss r0, r4, r0
		mov r2, r6
	}
.Ltmp1304:
	bt r0, .LBB15_74
.Ltmp1305:
	{
		nop
		ldw r0, r7[3]
	}
	{
		nop
		stw r0, sp[29]
	}
	{
		nop
		ldw r0, r7[2]
	}
	{
		nop
		stw r0, sp[28]
	}
	{
		nop
		ldw r0, r7[1]
	}
	{
		nop
		stw r0, sp[27]
	}
	{
		nop
		ldw r0, r7[0]
	}
	{
		nop
		stw r0, sp[26]
	}
	ldaw r0, r3[-4]
	{
		nop
		ldw r11, r0[0]
	}
	ldaw r0, r3[-3]
	.loc	4 1416 7
.Ltmp1306:
	{
		sub r0, r3, 8
		ldw r6, r0[0]
	}
	.loc	4 1417 7
	{
		sub r0, r3, 4
		ldw r10, r0[0]
	}
	.loc	4 1418 7
	{
		ldc r1, 0
		ldw r0, r0[0]
	}
.Ltmp1307:
.LBB15_44:
	.loc	4 1271 14
	{
		mov r7, r6
		nop
	}
	{
		mov r8, r10
		stw r7, sp[31]
	}
	{
		mov r10, r0
		stw r8, sp[30]
	}
	{
		mov r9, r1
		nop
	}
	.loc	4 1415 7
.Ltmp1308:
	{
		mov r0, r9
		ldw r6, sp[29]
	}
	maccs r1, r0, r11, r6
	{
		nop
		ldw r11, sp[28]
	}
	.loc	4 1416 7
	maccs r1, r0, r7, r11
	{
		nop
		ldw r11, sp[27]
	}
	.loc	4 1417 7
	maccs r1, r0, r8, r11
	{
		nop
		ldw r11, sp[26]
	}
	.loc	4 1418 7
	maccs r1, r0, r10, r11
	.loc	4 1419 7
	{
		mov r7, r3
		ldw r6, r5[0]
	}
	{
		mov r8, r2
		nop
	}
.Ltmp1309:
	.loc	4 1419 7
	bl __ashrdi3
.Ltmp1310:
	{
		mov r2, r8
		mov r3, r7
	}
.Ltmp1311:
	.loc	4 1419 7
	ladd r1, r0, r0, r6, r9
	{
		mov r1, r9
		ldw r6, sp[30]
	}
	.loc	4 1419 7
	{
		sub r4, r4, 1
		stw r0, r3[0]
	}
.Ltmp1312:
	.loc	4 1413 6
	{
		add r5, r5, 4
		add r3, r3, 4
	}
	{
		nop
		ldw r11, sp[31]
	}
	bt r4, .LBB15_44
	bu .LBB15_74
.Ltmp1313:
.LBB15_8:
	{
		mkmsk r0, 1
		nop
	}
	.loc	4 1303 6
.Ltmp1314:
	{
		lss r0, r4, r0
		nop
	}
.Ltmp1315:
	bt r0, .LBB15_74
.Ltmp1316:
	{
		nop
		ldw r0, r7[10]
	}
	{
		nop
		stw r0, sp[20]
	}
	{
		nop
		ldw r0, r7[9]
	}
	{
		nop
		stw r0, sp[19]
	}
	{
		nop
		ldw r0, r7[8]
	}
	{
		nop
		stw r0, sp[18]
	}
	{
		nop
		ldw r0, r7[7]
	}
	{
		nop
		stw r0, sp[17]
	}
	{
		nop
		ldw r0, r7[6]
	}
	{
		nop
		stw r0, sp[16]
	}
	{
		nop
		ldw r0, r7[5]
	}
	{
		nop
		stw r0, sp[15]
	}
	{
		nop
		ldw r0, r7[4]
	}
	{
		nop
		stw r0, sp[14]
	}
	{
		nop
		ldw r0, r7[3]
	}
	{
		nop
		stw r0, sp[13]
	}
	{
		nop
		ldw r0, r7[2]
	}
	{
		nop
		stw r0, sp[12]
	}
	{
		nop
		ldw r0, r7[1]
	}
	{
		nop
		stw r0, sp[11]
	}
	{
		nop
		ldw r0, r7[0]
	}
	{
		nop
		stw r0, sp[10]
	}
	ldaw r0, r3[-11]
	{
		nop
		ldw r11, r0[0]
	}
	ldaw r0, r3[-10]
	{
		nop
		ldw r1, r0[0]
	}
	ldaw r0, r3[-9]
	{
		nop
		ldw r8, r0[0]
	}
	ldaw r0, r3[-8]
	{
		nop
		ldw r9, r0[0]
	}
	ldaw r0, r3[-7]
	{
		nop
		ldw r10, r0[0]
	}
	ldaw r0, r3[-6]
	{
		nop
		ldw r0, r0[0]
	}
	{
		nop
		stw r0, sp[27]
	}
	ldaw r0, r3[-5]
	{
		nop
		ldw r0, r0[0]
	}
	{
		nop
		stw r0, sp[26]
	}
	ldaw r0, r3[-4]
	{
		nop
		ldw r0, r0[0]
	}
	{
		nop
		stw r0, sp[29]
	}
	ldaw r0, r3[-3]
	{
		nop
		ldw r0, r0[0]
	}
	{
		sub r0, r3, 8
		stw r0, sp[28]
	}
	{
		nop
		ldw r0, r0[0]
	}
	{
		sub r0, r3, 4
		stw r0, sp[30]
	}
	.loc	4 1315 7
.Ltmp1317:
	{
		ldc r6, 0
		ldw r0, r0[0]
	}
.Ltmp1318:
.LBB15_10:
	.loc	4 1271 14
	{
		mov r2, r1
		stw r5, sp[31]
	}
	{
		mov r7, r8
		stw r2, sp[25]
	}
	{
		nop
		stw r7, sp[24]
	}
	{
		nop
		stw r9, sp[21]
	}
	{
		nop
		stw r10, sp[23]
	}
	{
		nop
		ldw r1, sp[27]
	}
	{
		nop
		stw r1, sp[22]
	}
	{
		nop
		ldw r9, sp[26]
	}
	{
		nop
		stw r9, sp[27]
	}
	{
		nop
		ldw r8, sp[29]
	}
	{
		nop
		stw r8, sp[26]
	}
	{
		nop
		ldw r1, sp[28]
	}
	{
		nop
		stw r1, sp[29]
	}
	{
		nop
		ldw r1, sp[30]
	}
	{
		nop
		stw r1, sp[28]
	}
	{
		mov r5, r6
		stw r0, sp[30]
	}
	.loc	4 1305 7
.Ltmp1319:
	{
		mov r1, r5
		mov r0, r5
	}
	{
		nop
		ldw r6, sp[20]
	}
	maccs r1, r0, r11, r6
	{
		nop
		ldw r11, sp[19]
	}
	.loc	4 1306 7
	maccs r1, r0, r2, r11
	{
		nop
		ldw r11, sp[18]
	}
	.loc	4 1307 7
	maccs r1, r0, r7, r11
	{
		nop
		ldw r11, sp[17]
	}
	{
		nop
		ldw r6, sp[21]
	}
	.loc	4 1308 7
	maccs r1, r0, r6, r11
	{
		nop
		ldw r11, sp[16]
	}
	.loc	4 1309 7
	maccs r1, r0, r10, r11
	{
		nop
		ldw r11, sp[15]
	}
	{
		nop
		ldw r7, sp[22]
	}
	.loc	4 1310 7
	maccs r1, r0, r7, r11
	{
		nop
		ldw r11, sp[14]
	}
	.loc	4 1311 7
	maccs r1, r0, r9, r11
	{
		nop
		ldw r11, sp[13]
	}
	.loc	4 1312 7
	maccs r1, r0, r8, r11
	{
		nop
		ldw r11, sp[12]
	}
	{
		nop
		ldw r2, sp[29]
	}
	.loc	4 1313 7
	maccs r1, r0, r2, r11
	{
		nop
		ldw r11, sp[11]
	}
	{
		nop
		ldw r2, sp[28]
	}
	.loc	4 1314 7
	maccs r1, r0, r2, r11
	{
		nop
		ldw r11, sp[10]
	}
	{
		nop
		ldw r2, sp[30]
	}
	.loc	4 1315 7
	maccs r1, r0, r2, r11
	{
		nop
		ldw r2, sp[31]
	}
	{
		nop
		ldw r9, r2[0]
	}
.Ltmp1320:
	{
		mov r10, r3
		ldw r2, sp[41]
	}
	.loc	4 1316 7
	bl __ashrdi3
.Ltmp1321:
	{
		mov r8, r6
		mov r3, r10
	}
	{
		mov r10, r7
		nop
	}
	.loc	4 1316 7
	ladd r1, r0, r0, r9, r5
	{
		mov r6, r5
		ldw r5, sp[31]
	}
	{
		nop
		ldw r9, sp[23]
	}
	{
		nop
		ldw r1, sp[24]
	}
	.loc	4 1316 7
	{
		sub r4, r4, 1
		stw r0, r3[0]
	}
.Ltmp1322:
	.loc	4 1303 6
	{
		add r5, r5, 4
		add r3, r3, 4
	}
	{
		nop
		ldw r11, sp[25]
	}
	bt r4, .LBB15_10
	bu .LBB15_74
.Ltmp1323:
.LBB15_30:
	.loc	4 1385 8
	{
		eq r0, r8, 6
		nop
	}
	.loc	4 1385 8
	bf r0, .LBB15_31
.Ltmp1324:
	{
		mkmsk r0, 1
		nop
	}
	.loc	4 1386 6
.Ltmp1325:
	{
		lss r0, r4, r0
		nop
	}
.Ltmp1326:
	bt r0, .LBB15_74
.Ltmp1327:
	{
		nop
		ldw r0, r7[5]
	}
	{
		nop
		stw r0, sp[27]
	}
	{
		nop
		ldw r0, r7[4]
	}
	{
		nop
		stw r0, sp[26]
	}
	{
		nop
		ldw r0, r7[3]
	}
	{
		nop
		stw r0, sp[25]
	}
	{
		nop
		ldw r0, r7[2]
	}
	{
		nop
		stw r0, sp[24]
	}
	{
		nop
		ldw r0, r7[1]
	}
	{
		nop
		stw r0, sp[23]
	}
	{
		nop
		ldw r0, r7[0]
	}
	{
		nop
		stw r0, sp[22]
	}
	ldaw r0, r3[-6]
	{
		nop
		ldw r11, r0[0]
	}
	ldaw r0, r3[-5]
	{
		nop
		ldw r1, r0[0]
	}
	ldaw r0, r3[-4]
	{
		nop
		ldw r6, r0[0]
	}
	ldaw r0, r3[-3]
	.loc	4 1391 7
.Ltmp1328:
	{
		sub r0, r3, 8
		ldw r8, r0[0]
	}
	{
		nop
		ldw r0, r0[0]
	}
	{
		sub r0, r3, 4
		stw r0, sp[31]
	}
	.loc	4 1393 7
	{
		ldc r7, 0
		ldw r0, r0[0]
	}
.Ltmp1329:
.LBB15_36:
	.loc	4 1271 14
	{
		mov r10, r1
		nop
	}
	{
		mov r9, r6
		stw r10, sp[30]
	}
	{
		mov r2, r8
		stw r9, sp[28]
	}
	{
		nop
		ldw r1, sp[31]
	}
	{
		mov r8, r0
		stw r1, sp[29]
	}
	{
		mov r1, r7
		stw r8, sp[31]
	}
	.loc	4 1388 7
.Ltmp1330:
	{
		mov r0, r7
		ldw r6, sp[27]
	}
	maccs r1, r0, r11, r6
	{
		nop
		ldw r11, sp[26]
	}
	.loc	4 1389 7
	maccs r1, r0, r10, r11
	{
		nop
		ldw r11, sp[25]
	}
	.loc	4 1390 7
	maccs r1, r0, r9, r11
	.loc	4 1391 7
	{
		mov r6, r2
		ldw r11, sp[24]
	}
	maccs r1, r0, r6, r11
	{
		nop
		ldw r11, sp[23]
	}
	{
		nop
		ldw r10, sp[29]
	}
	.loc	4 1392 7
	maccs r1, r0, r10, r11
	{
		nop
		ldw r11, sp[22]
	}
	.loc	4 1393 7
	maccs r1, r0, r8, r11
	{
		nop
		ldw r9, r5[0]
	}
.Ltmp1331:
	{
		mov r8, r3
		ldw r2, sp[41]
	}
	.loc	4 1394 7
	bl __ashrdi3
.Ltmp1332:
	{
		mov r3, r8
		mov r8, r10
	}
	.loc	4 1394 7
	ladd r1, r0, r0, r9, r7
	{
		nop
		ldw r1, sp[28]
	}
	.loc	4 1394 7
	{
		sub r4, r4, 1
		stw r0, r3[0]
	}
.Ltmp1333:
	.loc	4 1386 6
	{
		add r5, r5, 4
		add r3, r3, 4
	}
	{
		nop
		ldw r11, sp[30]
	}
	bt r4, .LBB15_36
	bu .LBB15_74
.Ltmp1334:
.LBB15_15:
	{
		mkmsk r0, 1
		nop
	}
.Ltmp1335:
	.loc	4 1338 6
	{
		lss r0, r4, r0
		stw r5, sp[31]
	}
	bt r0, .LBB15_74
.Ltmp1336:
	{
		nop
		ldw r0, r7[8]
	}
	{
		nop
		stw r0, sp[22]
	}
	{
		nop
		ldw r0, r7[7]
	}
	{
		nop
		stw r0, sp[21]
	}
	{
		nop
		ldw r0, r7[6]
	}
	{
		nop
		stw r0, sp[20]
	}
	{
		nop
		ldw r0, r7[5]
	}
	{
		nop
		stw r0, sp[19]
	}
	{
		nop
		ldw r0, r7[4]
	}
	{
		nop
		stw r0, sp[18]
	}
	{
		nop
		ldw r0, r7[3]
	}
	{
		nop
		stw r0, sp[17]
	}
	{
		nop
		ldw r0, r7[2]
	}
	{
		nop
		stw r0, sp[16]
	}
	{
		nop
		ldw r0, r7[1]
	}
	{
		nop
		stw r0, sp[15]
	}
	{
		nop
		ldw r0, r7[0]
	}
	{
		nop
		stw r0, sp[14]
	}
	ldaw r0, r3[-9]
	{
		nop
		ldw r10, r0[0]
	}
	ldaw r0, r3[-8]
	{
		nop
		ldw r1, r0[0]
	}
	ldaw r0, r3[-7]
	{
		nop
		ldw r6, r0[0]
	}
	ldaw r0, r3[-6]
	{
		nop
		ldw r0, r0[0]
	}
	{
		nop
		stw r0, sp[29]
	}
	ldaw r0, r3[-5]
	{
		nop
		ldw r8, r0[0]
	}
	ldaw r0, r3[-4]
	{
		nop
		ldw r11, r0[0]
	}
	ldaw r0, r3[-3]
	{
		nop
		ldw r0, r0[0]
	}
	{
		sub r0, r3, 8
		stw r0, sp[28]
	}
	{
		nop
		ldw r0, r0[0]
	}
	{
		sub r0, r3, 4
		stw r0, sp[30]
	}
	.loc	4 1348 7
.Ltmp1337:
	{
		ldc r9, 0
		ldw r0, r0[0]
	}
.Ltmp1338:
.LBB15_17:
	.loc	4 1271 14
	{
		mov r5, r1
		nop
	}
	{
		mov r2, r6
		stw r5, sp[27]
	}
	{
		nop
		stw r2, sp[26]
	}
	{
		nop
		ldw r7, sp[29]
	}
	{
		nop
		stw r7, sp[24]
	}
	{
		nop
		stw r8, sp[29]
	}
	{
		nop
		stw r11, sp[23]
	}
	{
		nop
		ldw r1, sp[28]
	}
	{
		nop
		stw r1, sp[25]
	}
	{
		nop
		ldw r8, sp[30]
	}
	{
		nop
		stw r8, sp[28]
	}
	{
		mov r1, r9
		stw r0, sp[30]
	}
	.loc	4 1340 7
.Ltmp1339:
	{
		mov r0, r9
		ldw r6, sp[22]
	}
	maccs r1, r0, r10, r6
	{
		nop
		ldw r11, sp[21]
	}
	.loc	4 1341 7
	maccs r1, r0, r5, r11
	{
		nop
		ldw r11, sp[20]
	}
	.loc	4 1342 7
	maccs r1, r0, r2, r11
	{
		nop
		ldw r11, sp[19]
	}
	.loc	4 1343 7
	maccs r1, r0, r7, r11
	{
		nop
		ldw r11, sp[18]
	}
	{
		nop
		ldw r2, sp[29]
	}
	.loc	4 1344 7
	maccs r1, r0, r2, r11
	{
		nop
		ldw r11, sp[17]
	}
	{
		nop
		ldw r7, sp[23]
	}
	.loc	4 1345 7
	maccs r1, r0, r7, r11
	{
		nop
		ldw r11, sp[16]
	}
	{
		nop
		ldw r6, sp[25]
	}
	.loc	4 1346 7
	maccs r1, r0, r6, r11
	{
		nop
		ldw r11, sp[15]
	}
	.loc	4 1347 7
	maccs r1, r0, r8, r11
	{
		nop
		ldw r11, sp[14]
	}
	{
		nop
		ldw r2, sp[30]
	}
	.loc	4 1348 7
	maccs r1, r0, r2, r11
	{
		nop
		ldw r5, sp[31]
	}
	{
		nop
		ldw r10, r5[0]
	}
.Ltmp1340:
	{
		mov r8, r3
		ldw r2, sp[41]
	}
	.loc	4 1349 7
	bl __ashrdi3
.Ltmp1341:
	{
		mov r3, r8
		mov r8, r7
	}
	{
		mov r11, r6
		nop
	}
	.loc	4 1349 7
	ladd r1, r0, r0, r10, r9
	{
		nop
		ldw r6, sp[24]
	}
	{
		nop
		ldw r1, sp[26]
	}
	.loc	4 1349 7
	{
		sub r4, r4, 1
		stw r0, r3[0]
	}
.Ltmp1342:
	.loc	4 1338 6
	{
		add r5, r5, 4
		nop
	}
	{
		add r3, r3, 4
		stw r5, sp[31]
	}
	{
		nop
		ldw r10, sp[27]
	}
	bt r4, .LBB15_17
	bu .LBB15_74
.Ltmp1343:
.LBB15_45:
	.loc	4 1433 8
	{
		eq r0, r8, 2
		nop
	}
	.loc	4 1433 8
	bf r0, .LBB15_46
.Ltmp1344:
	{
		mkmsk r0, 1
		nop
	}
.Ltmp1345:
	.loc	4 1434 6
	{
		lss r0, r4, r0
		mov r10, r5
	}
.Ltmp1346:
	{
		mov r2, r6
		nop
	}
.Ltmp1347:
	bt r0, .LBB15_74
.Ltmp1348:
	{
		nop
		ldw r0, r7[1]
	}
	{
		nop
		stw r0, sp[31]
	}
	{
		nop
		ldw r0, r7[0]
	}
	{
		sub r0, r3, 8
		stw r0, sp[30]
	}
	.loc	4 1436 7
.Ltmp1349:
	{
		sub r0, r3, 4
		ldw r11, r0[0]
	}
	.loc	4 1437 7
	{
		ldc r7, 0
		ldw r0, r0[0]
	}
.Ltmp1350:
.LBB15_51:
	.loc	4 1271 14
	{
		mov r8, r0
		mov r1, r7
	}
	.loc	4 1436 7
.Ltmp1351:
	{
		mov r0, r7
		ldw r5, sp[31]
	}
	maccs r1, r0, r11, r5
	{
		nop
		ldw r11, sp[30]
	}
	.loc	4 1437 7
	maccs r1, r0, r8, r11
	.loc	4 1438 7
	{
		mov r5, r3
		ldw r9, r10[0]
	}
	{
		mov r6, r2
		nop
	}
.Ltmp1352:
	.loc	4 1438 7
	bl __ashrdi3
.Ltmp1353:
	{
		mov r2, r6
		mov r3, r5
	}
.Ltmp1354:
	.loc	4 1438 7
	ladd r1, r0, r0, r9, r7
	.loc	4 1438 7
	{
		sub r4, r4, 1
		stw r0, r3[0]
	}
.Ltmp1355:
	.loc	4 1434 6
	{
		add r10, r10, 4
		add r3, r3, 4
	}
.Ltmp1356:
	.loc	4 1271 14
	{
		mov r11, r8
		nop
	}
	bt r4, .LBB15_51
	bu .LBB15_74
.LBB15_24:
.Ltmp1357:
	{
		mkmsk r0, 1
		nop
	}
	.loc	4 1371 6
.Ltmp1358:
	{
		lss r0, r4, r0
		nop
	}
.Ltmp1359:
	bt r0, .LBB15_74
.Ltmp1360:
	{
		nop
		ldw r0, r7[6]
	}
	{
		nop
		stw r0, sp[26]
	}
	{
		nop
		ldw r0, r7[5]
	}
	{
		nop
		stw r0, sp[25]
	}
	{
		nop
		ldw r0, r7[4]
	}
	{
		nop
		stw r0, sp[24]
	}
	{
		nop
		ldw r0, r7[3]
	}
	{
		nop
		stw r0, sp[23]
	}
	{
		nop
		ldw r0, r7[2]
	}
	{
		nop
		stw r0, sp[22]
	}
	{
		nop
		ldw r0, r7[1]
	}
	{
		nop
		stw r0, sp[21]
	}
	{
		nop
		ldw r0, r7[0]
	}
	{
		nop
		stw r0, sp[20]
	}
	ldaw r0, r3[-7]
	{
		nop
		ldw r11, r0[0]
	}
	ldaw r0, r3[-6]
	{
		nop
		ldw r1, r0[0]
	}
	ldaw r0, r3[-5]
	{
		nop
		ldw r7, r0[0]
	}
.Ltmp1361:
	ldaw r0, r3[-4]
	{
		nop
		ldw r0, r0[0]
	}
	{
		nop
		stw r0, sp[31]
	}
	ldaw r0, r3[-3]
	.loc	4 1377 7
.Ltmp1362:
	{
		sub r0, r3, 8
		ldw r9, r0[0]
	}
	.loc	4 1378 7
	{
		sub r0, r3, 4
		ldw r6, r0[0]
	}
	.loc	4 1379 7
	{
		ldc r10, 0
		ldw r0, r0[0]
	}
.Ltmp1363:
.LBB15_26:
	.loc	4 1271 14
	{
		mov r8, r1
		nop
	}
	{
		mov r2, r7
		stw r8, sp[30]
	}
	{
		nop
		stw r2, sp[29]
	}
	{
		nop
		ldw r1, sp[31]
	}
	{
		nop
		stw r1, sp[28]
	}
	{
		mov r9, r6
		stw r9, sp[31]
	}
	{
		mov r6, r0
		mov r1, r10
	}
	.loc	4 1373 7
.Ltmp1364:
	{
		mov r0, r10
		ldw r7, sp[26]
	}
	maccs r1, r0, r11, r7
	{
		nop
		ldw r11, sp[25]
	}
	.loc	4 1374 7
	maccs r1, r0, r8, r11
	{
		nop
		ldw r11, sp[24]
	}
	.loc	4 1375 7
	maccs r1, r0, r2, r11
	{
		nop
		ldw r11, sp[23]
	}
	{
		nop
		ldw r7, sp[28]
	}
	.loc	4 1376 7
	maccs r1, r0, r7, r11
	{
		nop
		ldw r11, sp[22]
	}
	{
		nop
		ldw r2, sp[31]
	}
	.loc	4 1377 7
	maccs r1, r0, r2, r11
	{
		nop
		ldw r11, sp[21]
	}
	.loc	4 1378 7
	maccs r1, r0, r9, r11
	{
		nop
		ldw r11, sp[20]
	}
	.loc	4 1379 7
	maccs r1, r0, r6, r11
	{
		nop
		ldw r2, r5[0]
	}
	{
		nop
		stw r2, sp[27]
	}
.Ltmp1365:
	{
		mov r8, r3
		ldw r2, sp[41]
	}
	.loc	4 1380 7
	bl __ashrdi3
.Ltmp1366:
	{
		mov r3, r8
		ldw r1, sp[27]
	}
	.loc	4 1380 7
	ladd r1, r0, r0, r1, r10
	{
		nop
		ldw r1, sp[29]
	}
	.loc	4 1380 7
	{
		sub r4, r4, 1
		stw r0, r3[0]
	}
.Ltmp1367:
	.loc	4 1371 6
	{
		add r5, r5, 4
		add r3, r3, 4
	}
	{
		nop
		ldw r11, sp[30]
	}
	bt r4, .LBB15_26
	bu .LBB15_74
.Ltmp1368:
.LBB15_39:
	{
		mkmsk r0, 1
		nop
	}
.Ltmp1369:
	.loc	4 1423 6
	{
		lss r0, r4, r0
		mov r2, r6
	}
.Ltmp1370:
	bt r0, .LBB15_74
.Ltmp1371:
	{
		nop
		ldw r0, r7[2]
	}
	{
		nop
		stw r0, sp[30]
	}
	{
		nop
		ldw r0, r7[1]
	}
	{
		nop
		stw r0, sp[29]
	}
	{
		nop
		ldw r0, r7[0]
	}
	{
		nop
		stw r0, sp[28]
	}
	ldaw r0, r3[-3]
	.loc	4 1425 7
.Ltmp1372:
	{
		sub r0, r3, 8
		ldw r11, r0[0]
	}
	.loc	4 1426 7
	{
		sub r0, r3, 4
		ldw r10, r0[0]
	}
	.loc	4 1427 7
	{
		ldc r1, 0
		ldw r0, r0[0]
	}
.Ltmp1373:
.LBB15_41:
	.loc	4 1271 14
	{
		mov r7, r10
		nop
	}
	{
		mov r10, r0
		stw r7, sp[31]
	}
	{
		mov r8, r1
		nop
	}
	.loc	4 1425 7
.Ltmp1374:
	{
		mov r0, r8
		ldw r6, sp[30]
	}
	maccs r1, r0, r11, r6
	{
		nop
		ldw r11, sp[29]
	}
	.loc	4 1426 7
	maccs r1, r0, r7, r11
	{
		nop
		ldw r11, sp[28]
	}
	.loc	4 1427 7
	maccs r1, r0, r10, r11
	.loc	4 1428 7
	{
		mov r7, r3
		ldw r6, r5[0]
	}
	{
		mov r9, r2
		nop
	}
.Ltmp1375:
	.loc	4 1428 7
	bl __ashrdi3
.Ltmp1376:
	{
		mov r2, r9
		mov r3, r7
	}
.Ltmp1377:
	.loc	4 1428 7
	ladd r1, r0, r0, r6, r8
	{
		mov r1, r8
		stw r0, r3[0]
	}
.Ltmp1378:
	.loc	4 1423 6
	{
		sub r4, r4, 1
		add r5, r5, 4
	}
	.loc	4 1423 6
	{
		add r3, r3, 4
		ldw r11, sp[31]
	}
	bt r4, .LBB15_41
	bu .LBB15_74
.Ltmp1379:
.LBB15_31:
	{
		mkmsk r0, 1
		nop
	}
.Ltmp1380:
	.loc	4 1398 6
	{
		lss r0, r4, r0
		mov r2, r6
	}
.Ltmp1381:
	bt r0, .LBB15_74
.Ltmp1382:
	{
		nop
		ldw r0, r7[4]
	}
	{
		nop
		stw r0, sp[27]
	}
	{
		nop
		ldw r0, r7[3]
	}
	{
		nop
		stw r0, sp[26]
	}
	{
		nop
		ldw r0, r7[2]
	}
	{
		nop
		stw r0, sp[25]
	}
	{
		nop
		ldw r0, r7[1]
	}
	{
		nop
		stw r0, sp[24]
	}
	{
		nop
		ldw r0, r7[0]
	}
	{
		nop
		stw r0, sp[23]
	}
	ldaw r0, r3[-5]
	{
		nop
		ldw r11, r0[0]
	}
	ldaw r0, r3[-4]
	{
		nop
		ldw r7, r0[0]
	}
.Ltmp1383:
	ldaw r0, r3[-3]
	.loc	4 1402 7
.Ltmp1384:
	{
		sub r0, r3, 8
		ldw r8, r0[0]
	}
	.loc	4 1403 7
	{
		sub r0, r3, 4
		ldw r6, r0[0]
	}
	.loc	4 1404 7
	{
		ldc r1, 0
		ldw r0, r0[0]
	}
.Ltmp1385:
.LBB15_33:
	.loc	4 1271 14
	{
		mov r9, r7
		nop
	}
	{
		mov r10, r8
		stw r9, sp[31]
	}
	{
		nop
		stw r10, sp[29]
	}
	{
		nop
		stw r6, sp[28]
	}
	{
		mov r8, r1
		stw r0, sp[30]
	}
	.loc	4 1400 7
.Ltmp1386:
	{
		mov r0, r8
		ldw r7, sp[27]
	}
	maccs r1, r0, r11, r7
	{
		nop
		ldw r11, sp[26]
	}
	.loc	4 1401 7
	maccs r1, r0, r9, r11
	{
		nop
		ldw r11, sp[25]
	}
	.loc	4 1402 7
	maccs r1, r0, r10, r11
	{
		nop
		ldw r11, sp[24]
	}
	.loc	4 1403 7
	maccs r1, r0, r6, r11
	{
		nop
		ldw r11, sp[23]
	}
	{
		nop
		ldw r7, sp[30]
	}
	.loc	4 1404 7
	maccs r1, r0, r7, r11
	.loc	4 1405 7
	{
		mov r9, r3
		ldw r6, r5[0]
	}
	{
		mov r10, r2
		nop
	}
.Ltmp1387:
	.loc	4 1405 7
	bl __ashrdi3
.Ltmp1388:
	{
		mov r2, r10
		mov r3, r9
	}
.Ltmp1389:
	.loc	4 1405 7
	ladd r1, r0, r0, r6, r8
	{
		mov r1, r8
		ldw r8, sp[28]
	}
	{
		mov r6, r7
		ldw r7, sp[29]
	}
	.loc	4 1405 7
	{
		sub r4, r4, 1
		stw r0, r3[0]
	}
.Ltmp1390:
	.loc	4 1398 6
	{
		add r5, r5, 4
		add r3, r3, 4
	}
	{
		nop
		ldw r11, sp[31]
	}
	bt r4, .LBB15_33
	bu .LBB15_74
.Ltmp1391:
.LBB15_46:
	{
		mkmsk r0, 1
		nop
	}
.Ltmp1392:
	.loc	4 1442 6
	{
		lss r0, r4, r0
		mov r8, r5
	}
.Ltmp1393:
	{
		mov r10, r6
		nop
	}
.Ltmp1394:
	bt r0, .LBB15_74
.Ltmp1395:
	.loc	4 1443 7
	{
		sub r0, r3, 4
		ldw r5, r7[0]
	}
	.loc	4 1443 7
	{
		ldc r6, 0
		ldw r2, r0[0]
	}
.Ltmp1396:
.LBB15_48:
	.loc	4 1443 7
	{
		mov r1, r6
		ldw r7, r8[0]
	}
	.loc	4 1443 7
	{
		mov r0, r6
		nop
	}
	maccs r1, r0, r2, r5
	.loc	4 1443 7
	{
		mov r2, r10
		mov r9, r3
	}
	bl __ashrdi3
	{
		mov r3, r9
		nop
	}
	.loc	4 1443 7
	ladd r0, r2, r0, r7, r6
	.loc	4 1443 7
	{
		sub r4, r4, 1
		stw r2, r3[0]
	}
	.loc	4 1442 6
	{
		add r8, r8, 4
		add r3, r3, 4
	}
	bt r4, .LBB15_48
.Ltmp1397:
.LBB15_74:
	{
		nop
		ldw r10, sp[38]
	}
	{
		nop
		ldw r8, sp[36]
	}
	{
		nop
		ldw r9, sp[37]
	}
	{
		nop
		ldw r6, sp[34]
	}
	{
		nop
		ldw r7, sp[35]
	}
	{
		nop
		ldw r4, sp[32]
	}
	{
		nop
		ldw r5, sp[33]
	}
	{
		nop
		retsp 40
	}
	.loc	4 1488 1
	# RETURN_REG_HOLDER
.Ltmp1398:
	.cc_bottom FLAC__lpc_restore_signal_wide.function
	.set	FLAC__lpc_restore_signal_wide.nstackwords,((assert.nstackwords $M __ashrdi3.nstackwords) + 40)
	.globl	FLAC__lpc_restore_signal_wide.nstackwords
	.set	FLAC__lpc_restore_signal_wide.maxcores,1
	.globl	FLAC__lpc_restore_signal_wide.maxcores
	.set	FLAC__lpc_restore_signal_wide.maxtimers,0
	.globl	FLAC__lpc_restore_signal_wide.maxtimers
	.set	FLAC__lpc_restore_signal_wide.maxchanends,0
	.globl	FLAC__lpc_restore_signal_wide.maxchanends
.Ltmp1399:
	.size	FLAC__lpc_restore_signal_wide, .Ltmp1399-FLAC__lpc_restore_signal_wide
.Lfunc_end15:
	.cfi_endproc

	.section	.cp.rodata.cst4,"aMc",@progbits,4
	.cc_top .LCPI16_0.data,.LCPI16_0
	.align	4
	.type	.LCPI16_0,@object
	.size	.LCPI16_0, 4
.LCPI16_0:
	.long	4294967040
	.cc_bottom .LCPI16_0.data
	.cc_top .LCPI16_1.data,.LCPI16_1
	.align	4
	.type	.LCPI16_1,@object
	.size	.LCPI16_1, 4
.LCPI16_1:
	.long	4294967048
	.cc_bottom .LCPI16_1.data
	.cc_top .LCPI16_2.data,.LCPI16_2
	.align	4
	.type	.LCPI16_2,@object
	.size	.LCPI16_2, 4
.LCPI16_2:
	.long	4294967056
	.cc_bottom .LCPI16_2.data
	.cc_top .LCPI16_3.data,.LCPI16_3
	.align	4
	.type	.LCPI16_3,@object
	.size	.LCPI16_3, 4
.LCPI16_3:
	.long	4294967064
	.cc_bottom .LCPI16_3.data
	.cc_top .LCPI16_4.data,.LCPI16_4
	.align	4
	.type	.LCPI16_4,@object
	.size	.LCPI16_4, 4
.LCPI16_4:
	.long	4294967072
	.cc_bottom .LCPI16_4.data
	.cc_top .LCPI16_5.data,.LCPI16_5
	.align	4
	.type	.LCPI16_5,@object
	.size	.LCPI16_5, 4
.LCPI16_5:
	.long	4294967080
	.cc_bottom .LCPI16_5.data
	.cc_top .LCPI16_6.data,.LCPI16_6
	.align	4
	.type	.LCPI16_6,@object
	.size	.LCPI16_6, 4
.LCPI16_6:
	.long	4294967088
	.cc_bottom .LCPI16_6.data
	.cc_top .LCPI16_7.data,.LCPI16_7
	.align	4
	.type	.LCPI16_7,@object
	.size	.LCPI16_7, 4
.LCPI16_7:
	.long	4294967096
	.cc_bottom .LCPI16_7.data
	.cc_top .LCPI16_8.data,.LCPI16_8
	.align	4
	.type	.LCPI16_8,@object
	.size	.LCPI16_8, 4
.LCPI16_8:
	.long	4294967104
	.cc_bottom .LCPI16_8.data
	.cc_top .LCPI16_9.data,.LCPI16_9
	.align	4
	.type	.LCPI16_9,@object
	.size	.LCPI16_9, 4
.LCPI16_9:
	.long	4294967112
	.cc_bottom .LCPI16_9.data
	.cc_top .LCPI16_10.data,.LCPI16_10
	.align	4
	.type	.LCPI16_10,@object
	.size	.LCPI16_10, 4
.LCPI16_10:
	.long	4294967120
	.cc_bottom .LCPI16_10.data
	.cc_top .LCPI16_11.data,.LCPI16_11
	.align	4
	.type	.LCPI16_11,@object
	.size	.LCPI16_11, 4
.LCPI16_11:
	.long	4294967128
	.cc_bottom .LCPI16_11.data
	.cc_top .LCPI16_12.data,.LCPI16_12
	.align	4
	.type	.LCPI16_12,@object
	.size	.LCPI16_12, 4
.LCPI16_12:
	.long	4294967136
	.cc_bottom .LCPI16_12.data
	.cc_top .LCPI16_13.data,.LCPI16_13
	.align	4
	.type	.LCPI16_13,@object
	.size	.LCPI16_13, 4
.LCPI16_13:
	.long	4294967144
	.cc_bottom .LCPI16_13.data
	.cc_top .LCPI16_14.data,.LCPI16_14
	.align	4
	.type	.LCPI16_14,@object
	.size	.LCPI16_14, 4
.LCPI16_14:
	.long	4294967152
	.cc_bottom .LCPI16_14.data
	.cc_top .LCPI16_15.data,.LCPI16_15
	.align	4
	.type	.LCPI16_15,@object
	.size	.LCPI16_15, 4
.LCPI16_15:
	.long	4294967160
	.cc_bottom .LCPI16_15.data
	.cc_top .LCPI16_16.data,.LCPI16_16
	.align	4
	.type	.LCPI16_16,@object
	.size	.LCPI16_16, 4
.LCPI16_16:
	.long	4294967168
	.cc_bottom .LCPI16_16.data
	.cc_top .LCPI16_17.data,.LCPI16_17
	.align	4
	.type	.LCPI16_17,@object
	.size	.LCPI16_17, 4
.LCPI16_17:
	.long	4294967176
	.cc_bottom .LCPI16_17.data
	.cc_top .LCPI16_18.data,.LCPI16_18
	.align	4
	.type	.LCPI16_18,@object
	.size	.LCPI16_18, 4
.LCPI16_18:
	.long	4294967184
	.cc_bottom .LCPI16_18.data
	.cc_top .LCPI16_19.data,.LCPI16_19
	.align	4
	.type	.LCPI16_19,@object
	.size	.LCPI16_19, 4
.LCPI16_19:
	.long	4294967192
	.cc_bottom .LCPI16_19.data
	.cc_top .LCPI16_20.data,.LCPI16_20
	.align	4
	.type	.LCPI16_20,@object
	.size	.LCPI16_20, 4
.LCPI16_20:
	.long	4294967200
	.cc_bottom .LCPI16_20.data
	.cc_top .LCPI16_21.data,.LCPI16_21
	.align	4
	.type	.LCPI16_21,@object
	.size	.LCPI16_21, 4
.LCPI16_21:
	.long	4294967208
	.cc_bottom .LCPI16_21.data
	.cc_top .LCPI16_22.data,.LCPI16_22
	.align	4
	.type	.LCPI16_22,@object
	.size	.LCPI16_22, 4
.LCPI16_22:
	.long	4294967216
	.cc_bottom .LCPI16_22.data
	.cc_top .LCPI16_23.data,.LCPI16_23
	.align	4
	.type	.LCPI16_23,@object
	.size	.LCPI16_23, 4
.LCPI16_23:
	.long	4294967224
	.cc_bottom .LCPI16_23.data
	.cc_top .LCPI16_24.data,.LCPI16_24
	.align	4
	.type	.LCPI16_24,@object
	.size	.LCPI16_24, 4
.LCPI16_24:
	.long	4294967232
	.cc_bottom .LCPI16_24.data
	.cc_top .LCPI16_25.data,.LCPI16_25
	.align	4
	.type	.LCPI16_25,@object
	.size	.LCPI16_25, 4
.LCPI16_25:
	.long	4294967240
	.cc_bottom .LCPI16_25.data
	.cc_top .LCPI16_26.data,.LCPI16_26
	.align	4
	.type	.LCPI16_26,@object
	.size	.LCPI16_26, 4
.LCPI16_26:
	.long	4294967248
	.cc_bottom .LCPI16_26.data
	.text
	.globl	FLAC__lpc_restore_signal_wide_33bit
	.align	4
	.type	FLAC__lpc_restore_signal_wide_33bit,@function
	.cc_top FLAC__lpc_restore_signal_wide_33bit.function,FLAC__lpc_restore_signal_wide_33bit
FLAC__lpc_restore_signal_wide_33bit:
.Lfunc_begin16:
	.loc	4 1524 0
	.cfi_startproc
	.issue_mode dual
	{
		nop
		dualentsp 56
	}
.Ltmp1400:
	.cfi_def_cfa_offset 224
.Ltmp1401:
	.cfi_offset 15, 0
	{
		nop
		stw r4, sp[48]
	}
	{
		nop
		stw r5, sp[49]
	}
.Ltmp1402:
	.cfi_offset 4, -32
.Ltmp1403:
	.cfi_offset 5, -28
	{
		nop
		stw r6, sp[50]
	}
	{
		nop
		stw r7, sp[51]
	}
.Ltmp1404:
	.cfi_offset 6, -24
.Ltmp1405:
	.cfi_offset 7, -20
	{
		nop
		stw r8, sp[52]
	}
	{
		nop
		stw r9, sp[53]
	}
.Ltmp1406:
	.cfi_offset 8, -16
.Ltmp1407:
	.cfi_offset 9, -12
.Ltmp1408:
	.cfi_offset 10, -8
.Ltmp1409:
	{
		mov r5, r3
		stw r10, sp[54]
	}
.Ltmp1410:
	{
		mov r4, r2
		stw r5, sp[41]
	}
.Ltmp1411:
	{
		mov r7, r1
		mov r8, r0
	}
.Ltmp1412:
	.loc	4 1528 2 prologue_end
	{
		eq r0, r5, 0
		nop
	}
	{
		eq r0, r0, 0
		nop
	}
	.loc	4 1528 2
	bl assert
	{
		ldc r0, 33
		nop
	}
	.loc	4 1529 2
	{
		lsu r0, r5, r0
		nop
	}
.Ltmp1413:
	.loc	4 1529 2
	bl assert
	{
		mkmsk r0, 1
		nop
	}
.Ltmp1414:
	.loc	4 1531 2
	{
		lss r0, r7, r0
		nop
	}
	bt r0, .LBB16_38
.Ltmp1415:
	{
		nop
		ldw r9, sp[58]
	}
	{
		nop
		ldw r10, sp[57]
	}
	ldc r0, 124
	.loc	4 1534 13
.Ltmp1416:
	{
		add r0, r4, r0
		stw r4, sp[46]
	}
	{
		nop
		stw r0, sp[1]
	}
	ldc r0, 120
	.loc	4 1535 13
	{
		add r0, r4, r0
		nop
	}
	{
		nop
		stw r0, sp[2]
	}
	ldc r0, 116
	.loc	4 1536 13
	{
		add r0, r4, r0
		nop
	}
	{
		nop
		stw r0, sp[3]
	}
	ldc r0, 112
	.loc	4 1537 13
	{
		add r0, r4, r0
		nop
	}
	{
		nop
		stw r0, sp[4]
	}
	ldc r0, 108
	.loc	4 1538 13
	{
		add r0, r4, r0
		nop
	}
	{
		nop
		stw r0, sp[5]
	}
	ldc r0, 104
	.loc	4 1539 13
	{
		add r0, r4, r0
		nop
	}
	{
		nop
		stw r0, sp[6]
	}
	ldc r0, 100
	.loc	4 1540 13
	{
		add r0, r4, r0
		nop
	}
	{
		nop
		stw r0, sp[7]
	}
	ldc r0, 96
	.loc	4 1541 13
	{
		add r0, r4, r0
		nop
	}
	{
		nop
		stw r0, sp[8]
	}
	ldc r0, 92
	.loc	4 1542 13
	{
		add r0, r4, r0
		nop
	}
	{
		nop
		stw r0, sp[9]
	}
	ldc r0, 88
	.loc	4 1543 13
	{
		add r0, r4, r0
		nop
	}
	{
		nop
		stw r0, sp[10]
	}
	ldc r0, 84
	.loc	4 1544 13
	{
		add r0, r4, r0
		nop
	}
	{
		nop
		stw r0, sp[11]
	}
	ldc r0, 80
	.loc	4 1545 13
	{
		add r0, r4, r0
		nop
	}
	{
		nop
		stw r0, sp[12]
	}
	ldc r0, 76
	.loc	4 1546 13
	{
		add r0, r4, r0
		nop
	}
	{
		nop
		stw r0, sp[13]
	}
	ldc r0, 72
	.loc	4 1547 13
	{
		add r0, r4, r0
		nop
	}
	{
		nop
		stw r0, sp[14]
	}
	ldc r0, 68
	.loc	4 1548 13
	{
		add r0, r4, r0
		nop
	}
	{
		nop
		stw r0, sp[15]
	}
	ldc r0, 64
	.loc	4 1549 13
	{
		add r0, r4, r0
		nop
	}
	{
		ldc r0, 60
		stw r0, sp[16]
	}
	.loc	4 1550 13
	{
		add r0, r4, r0
		nop
	}
	{
		ldc r0, 56
		stw r0, sp[17]
	}
	.loc	4 1551 13
	{
		add r0, r4, r0
		nop
	}
	{
		ldc r0, 52
		stw r0, sp[18]
	}
	.loc	4 1552 13
	{
		add r0, r4, r0
		nop
	}
	{
		ldc r0, 48
		stw r0, sp[19]
	}
	.loc	4 1553 13
	{
		add r0, r4, r0
		nop
	}
.Ltmp1417:
	{
		ldc r3, 0
		stw r0, sp[20]
	}
.Ltmp1418:
.LBB16_2:
	{
		mov r0, r3
		ldw r1, sp[41]
	}
	.loc	4 1533 3
	{
		sub r2, r1, 1
		nop
	}
	{
		shr r1, r2, 5
		nop
	}
	bf r1, .LBB16_4
.Ltmp1419:
	{
		mov r1, r3
		mov r6, r3
	}
	bu .LBB16_37
.Ltmp1420:
.LBB16_4:
	{
		nop
		stw r8, sp[37]
	}
	{
		nop
		stw r7, sp[38]
	}
.Ltmp1421:
	{
		nop
		stw r3, sp[21]
	}
	{
		nop
		stw r3, sp[22]
	}
	{
		nop
		stw r3, sp[23]
	}
	{
		nop
		stw r3, sp[24]
	}
	{
		nop
		stw r3, sp[25]
	}
	{
		nop
		stw r3, sp[26]
	}
	{
		nop
		stw r3, sp[27]
	}
	{
		nop
		stw r3, sp[28]
	}
	{
		nop
		stw r3, sp[29]
	}
	{
		nop
		stw r3, sp[30]
	}
	{
		nop
		stw r3, sp[31]
	}
	{
		nop
		stw r3, sp[32]
	}
	{
		nop
		stw r3, sp[33]
	}
	{
		nop
		stw r3, sp[34]
	}
	{
		nop
		stw r3, sp[35]
	}
	{
		nop
		stw r3, sp[39]
	}
	{
		nop
		stw r3, sp[40]
	}
	{
		nop
		stw r3, sp[42]
	}
	{
		nop
		stw r3, sp[43]
	}
	{
		nop
		stw r3, sp[44]
	}
	{
		mov r6, r3
		stw r3, sp[45]
	}
	{
		mov r4, r3
		mov r5, r3
	}
	{
		mov r2, r3
		stw r2, sp[36]
	}
	{
		mov r9, r3
		stw r9, sp[47]
	}
	{
		mov r8, r3
		nop
	}
	{
		mov r11, r8
		mov r10, r8
	}
	{
		mov r1, r8
		ldw r7, sp[36]
	}

	.xtabranch .Ljumptable6+4,.Ljumptable6+8,.Ljumptable6+12,.Ljumptable6+16,.Ljumptable6+20,.Ljumptable6+24,.Ljumptable6+28,.Ljumptable6+32,.Ljumptable6+36,.Ljumptable6+40,.Ljumptable6+44,.Ljumptable6+48,.Ljumptable6+52,.Ljumptable6+56,.Ljumptable6+60,.Ljumptable6+64,.Ljumptable6+68,.Ljumptable6+72,.Ljumptable6+76,.Ljumptable6+80,.Ljumptable6+84,.Ljumptable6+88,.Ljumptable6+92,.Ljumptable6+96,.Ljumptable6+100,.Ljumptable6+104,.Ljumptable6+108,.Ljumptable6+112,.Ljumptable6+116,.Ljumptable6+120,.Ljumptable6+124,.Ljumptable6+128
.Ljumptable6:
		
	{
		nop
		bru r7
	}
	.jmptable32 .LBB16_36,.LBB16_35,.LBB16_34,.LBB16_33,.LBB16_32,.LBB16_31,.LBB16_30,.LBB16_29,.LBB16_28,.LBB16_27,.LBB16_26,.LBB16_25,.LBB16_24,.LBB16_23,.LBB16_22,.LBB16_21,.LBB16_20,.LBB16_19,.LBB16_18,.LBB16_17,.LBB16_16,.LBB16_15,.LBB16_14,.LBB16_13,.LBB16_12,.LBB16_11,.LBB16_10,.LBB16_9,.LBB16_8,.LBB16_7,.LBB16_6,.LBB16_5
.Ltmp1422:
.LBB16_5:
	{
		nop
		ldw r0, sp[1]
	}
	{
		nop
		ldw r1, r0[0]
	}
	.loc	4 1534 13
.Ltmp1423:
	ashr r2, r1, 32
	ldw r0, cp[.LCPI16_0]
	{
		nop
		ldw r3, sp[47]
	}
	{
		add r0, r3, r0
		nop
	}
	.loc	4 1534 13
	ldd r11, r3, r0[0]
	{
		ldc r0, 0
		nop
	}
	.loc	4 1534 13
	lmul r4, r0, r1, r3, r0, r0
	mul r1, r1, r11
	{
		add r1, r4, r1
		nop
	}
	mul r2, r2, r3
	{
		add r1, r1, r2
		nop
	}
	{
		nop
		stw r1, sp[21]
	}
.Ltmp1424:
.LBB16_6:
	{
		nop
		ldw r1, sp[2]
	}
	{
		nop
		ldw r1, r1[0]
	}
	.loc	4 1535 13
	ashr r2, r1, 32
	ldw r3, cp[.LCPI16_1]
	{
		nop
		ldw r11, sp[47]
	}
	{
		add r3, r11, r3
		nop
	}
	.loc	4 1535 13
	ldd r11, r3, r3[0]
	.loc	4 1535 13
	mul r2, r2, r3
	mul r11, r1, r11
	{
		nop
		ldw r4, sp[21]
	}
	.loc	4 1535 13
	maccu r4, r0, r1, r3
	{
		add r1, r4, r11
		nop
	}
	{
		add r1, r1, r2
		nop
	}
	{
		nop
		stw r1, sp[22]
	}
.Ltmp1425:
.LBB16_7:
	{
		nop
		ldw r1, sp[3]
	}
	{
		nop
		ldw r1, r1[0]
	}
	.loc	4 1536 13
	ashr r2, r1, 32
	ldw r3, cp[.LCPI16_2]
	{
		nop
		ldw r11, sp[47]
	}
	{
		add r3, r11, r3
		nop
	}
	.loc	4 1536 13
	ldd r11, r3, r3[0]
	.loc	4 1536 13
	mul r2, r2, r3
	mul r11, r1, r11
	{
		nop
		ldw r4, sp[22]
	}
	.loc	4 1536 13
	maccu r4, r0, r1, r3
	{
		add r1, r4, r11
		nop
	}
	{
		add r1, r1, r2
		nop
	}
	{
		nop
		stw r1, sp[23]
	}
.Ltmp1426:
.LBB16_8:
	{
		nop
		ldw r1, sp[4]
	}
	{
		nop
		ldw r1, r1[0]
	}
	.loc	4 1537 13
	ashr r2, r1, 32
	ldw r3, cp[.LCPI16_3]
	{
		nop
		ldw r11, sp[47]
	}
	{
		add r3, r11, r3
		nop
	}
	.loc	4 1537 13
	ldd r11, r3, r3[0]
	.loc	4 1537 13
	mul r2, r2, r3
	mul r11, r1, r11
	{
		nop
		ldw r4, sp[23]
	}
	.loc	4 1537 13
	maccu r4, r0, r1, r3
	{
		add r1, r4, r11
		nop
	}
	{
		add r1, r1, r2
		nop
	}
	{
		nop
		stw r1, sp[24]
	}
.Ltmp1427:
.LBB16_9:
	{
		nop
		ldw r1, sp[5]
	}
	{
		nop
		ldw r1, r1[0]
	}
	.loc	4 1538 13
	ashr r2, r1, 32
