	.text
	.file	"metadata_object.c"
	.text
	.globl	FLAC__metadata_object_new
	.align	4
	.type	FLAC__metadata_object_new,@function
	.cc_top FLAC__metadata_object_new.function,FLAC__metadata_object_new
FLAC__metadata_object_new:
.Lfunc_begin0:
	.file	4 "C:/Users/takaaki/git/sw_xSSDAC/module_libFLAC/source\\metadata_object.c"
	.loc	4 432 0
	.cfi_startproc
	.issue_mode dual
	{
		nop
		dualentsp 6
	}
.Ltmp0:
	.cfi_def_cfa_offset 24
.Ltmp1:
	.cfi_offset 15, 0
	std r5, r4, sp[1]
.Ltmp2:
	.cfi_offset 4, -16
.Ltmp3:
	.cfi_offset 5, -12
	std r7, r6, sp[2]
.Ltmp4:
	.cfi_offset 6, -8
.Ltmp5:
	.cfi_offset 7, -4
	{
		mov r5, r0
		nop
	}
.Ltmp6:
	ldc r0, 126
	.loc	4 435 6 prologue_end
.Ltmp7:
	{
		lsu r0, r0, r5
		nop
	}
	.loc	4 435 6
	bf r0, .LBB0_2
.Ltmp8:
	{
		ldc r4, 0
		nop
	}
	bu .LBB0_15
.LBB0_2:
.Ltmp9:
	{
		mkmsk r0, 1
		nop
	}
	ldc r1, 176
	.loc	4 438 11
	bl calloc
	{
		mov r4, r0
		nop
	}
.Ltmp10:
	bf r4, .LBB0_15
.Ltmp11:
	{
		ldc r6, 0
		nop
	}
	{
		nop
		stw r6, r4[1]
	}
	.loc	4 441 3
.Ltmp12:
	{
		ldc r0, 6
		stw r5, r4[0]
	}
	.loc	4 442 3
	{
		lsu r0, r0, r5
		nop
	}
	bt r0, .LBB0_15
.Ltmp13:

	.xtabranch .Ljumptable0+4,.Ljumptable0+8,.Ljumptable0+12,.Ljumptable0+16,.Ljumptable0+20,.Ljumptable0+24,.Ljumptable0+28
.Ljumptable0:
		
	{
		nop
		bru r5
	}
	.jmptable32 .LBB0_5,.LBB0_15,.LBB0_6,.LBB0_15,.LBB0_7,.LBB0_16,.LBB0_19
.Ltmp14:
.LBB0_5:
	{
		ldc r0, 34
		nop
	}
	{
		nop
		stw r0, r4[2]
	}
	bu .LBB0_15
.Ltmp15:
.LBB0_6:
	.loc	4 452 5
	ldw r0, cp[FLAC__STREAM_METADATA_APPLICATION_ID_LEN]
	.loc	4 452 5
	{
		shr r0, r0, 3
		nop
	}
	{
		nop
		stw r0, r4[2]
	}
	bu .LBB0_15
.Ltmp16:
.LBB0_7:
	.loc	4 465 66
	ldw r5, dp[FLAC__VENDOR_STRING]
.Ltmp17:
	.loc	4 465 66
	{
		mov r0, r5
		nop
	}
	bl strlen
.Ltmp18:
	.loc	4 465 66
	{
		add r6, r0, 1
		stw r0, r4[4]
	}
.Ltmp19:
	{
		mkmsk r0, 1
		nop
	}
	.loc	4 67 2
.Ltmp20:
	bl assert
	{
		ldc r7, 0
		nop
	}
	bf r6, .LBB0_11
.Ltmp21:
	bf r5, .LBB0_11
.Ltmp22:
	.file	5 "C:/Users/takaaki/git/sw_xSSDAC/module_libFLAC/source/share\\alloc.h"
	.loc	5 95 9
	{
		mov r0, r6
		nop
	}
	bl malloc
	{
		mov r7, r0
		nop
	}
.Ltmp23:
	.loc	4 70 12
	bf r7, .LBB0_24
.Ltmp24:
	.loc	4 72 3
	{
		mov r0, r7
		mov r1, r5
	}
	{
		mov r2, r6
		nop
	}
	bl memcpy
.Ltmp25:
.LBB0_11:
	{
		nop
		stw r7, r4[5]
	}
	{
		nop
		ldw r0, r4[0]
	}
	.loc	4 197 2
.Ltmp26:
	{
		eq r0, r0, 4
		nop
	}
	.loc	4 197 2
	bl assert
	.loc	4 199 2
	ldw r0, cp[FLAC__STREAM_METADATA_VORBIS_COMMENT_ENTRY_LENGTH_LEN]
	.loc	4 199 2
	{
		shr r0, r0, 3
		ldw r1, r4[4]
	}
	.loc	4 200 2
	{
		add r1, r0, r1
		nop
	}
	.loc	4 201 2
	ldw r2, cp[FLAC__STREAM_METADATA_VORBIS_COMMENT_NUM_COMMENTS_LEN]
	.loc	4 201 2
	{
		shr r2, r2, 3
		nop
	}
	.loc	4 201 2
	{
		add r1, r1, r2
		nop
	}
	{
		nop
		stw r1, r4[2]
	}
.Ltmp27:
	{
		nop
		ldw r2, r4[6]
	}
	bf r2, .LBB0_15
.Ltmp28:
	{
		nop
		ldw r3, r4[7]
	}
.Ltmp29:
.LBB0_13:
	.loc	4 203 3
	{
		add r1, r1, r0
		ldw r11, r3[0]
	}
	.loc	4 204 3
	{
		add r1, r1, r11
		sub r2, r2, 1
	}
.Ltmp30:
	.loc	4 202 2
	{
		add r3, r3, 8
		nop
	}
	.loc	4 202 2
	bt r2, .LBB0_13
	bu .LBB0_14
.Ltmp31:
.LBB0_16:
	{
		mkmsk r0, 1
		nop
	}
	.loc	4 315 2
.Ltmp32:
	bl assert
	.loc	4 317 2
	ldw r0, cp[FLAC__STREAM_METADATA_CUESHEET_MEDIA_CATALOG_NUMBER_LEN]
	.loc	4 317 2
	ldw r1, cp[FLAC__STREAM_METADATA_CUESHEET_LEAD_IN_LEN]
	.loc	4 317 2
	{
		add r0, r1, r0
		nop
	}
	.loc	4 317 2
	ldw r1, cp[FLAC__STREAM_METADATA_CUESHEET_IS_CD_LEN]
	.loc	4 317 2
	{
		add r0, r0, r1
		nop
	}
	.loc	4 317 2
	ldw r1, cp[FLAC__STREAM_METADATA_CUESHEET_RESERVED_LEN]
	.loc	4 317 2
	{
		add r0, r0, r1
		nop
	}
	.loc	4 317 2
	ldw r1, cp[FLAC__STREAM_METADATA_CUESHEET_NUM_TRACKS_LEN]
	.loc	4 317 2
	{
		add r0, r0, r1
		nop
	}
	.loc	4 317 2
	{
		shr r1, r0, 3
		nop
	}
	ldc r0, 164
	.loc	4 325 2
	{
		add r0, r4, r0
		nop
	}
	{
		nop
		ldw r0, r0[0]
	}
	.loc	4 325 2
	ldw r2, cp[FLAC__STREAM_METADATA_CUESHEET_TRACK_OFFSET_LEN]
	.loc	4 325 2
	ldw r3, cp[FLAC__STREAM_METADATA_CUESHEET_TRACK_NUMBER_LEN]
	.loc	4 325 2
	{
		add r2, r3, r2
		nop
	}
	.loc	4 325 2
	ldw r3, cp[FLAC__STREAM_METADATA_CUESHEET_TRACK_ISRC_LEN]
	.loc	4 325 2
	{
		add r2, r2, r3
		nop
	}
	.loc	4 325 2
	ldw r3, cp[FLAC__STREAM_METADATA_CUESHEET_TRACK_TYPE_LEN]
	.loc	4 325 2
	{
		add r2, r2, r3
		nop
	}
	.loc	4 325 2
	ldw r3, cp[FLAC__STREAM_METADATA_CUESHEET_TRACK_PRE_EMPHASIS_LEN]
	.loc	4 325 2
	{
		add r2, r2, r3
		nop
	}
	.loc	4 325 2
	ldw r3, cp[FLAC__STREAM_METADATA_CUESHEET_TRACK_RESERVED_LEN]
	.loc	4 325 2
	{
		add r2, r2, r3
		nop
	}
	.loc	4 325 2
	ldw r3, cp[FLAC__STREAM_METADATA_CUESHEET_TRACK_NUM_INDICES_LEN]
	.loc	4 325 2
	{
		add r2, r2, r3
		nop
	}
	.loc	4 325 2
	mul r2, r2, r0
	.loc	4 325 2
	{
		shr r2, r2, 3
		nop
	}
	.loc	4 325 2
	{
		add r1, r2, r1
		nop
	}
.Ltmp33:
	{
		nop
		stw r1, r4[2]
	}
	bf r0, .LBB0_15
.Ltmp34:
	ldc r2, 168
	.loc	4 336 3
.Ltmp35:
	{
		add r2, r4, r2
		nop
	}
	{
		nop
		ldw r3, r2[0]
	}
	.loc	4 336 3
	ldw r2, cp[FLAC__STREAM_METADATA_CUESHEET_INDEX_OFFSET_LEN]
	.loc	4 336 3
	ldw r11, cp[FLAC__STREAM_METADATA_CUESHEET_INDEX_NUMBER_LEN]
	.loc	4 336 3
	{
		add r2, r11, r2
		nop
	}
	.loc	4 336 3
	ldw r11, cp[FLAC__STREAM_METADATA_CUESHEET_INDEX_RESERVED_LEN]
	.loc	4 336 3
	{
		add r2, r2, r11
		ldc r11, 23
	}
	{
		add r3, r3, r11
		ldc r11, 0
	}
.Ltmp36:
.LBB0_18:
	{
		nop
		ld8u r5, r3[r11]
	}
	.loc	4 336 3
	mul r5, r5, r2
	.loc	4 336 3
	{
		shr r5, r5, 3
		nop
	}
	.loc	4 336 3
	{
		add r1, r5, r1
		sub r0, r0, 1
	}
.Ltmp37:
	.loc	4 335 2
	ldaw r3, r3[8]
	bt r0, .LBB0_18
.Ltmp38:
.LBB0_14:
	{
		nop
		stw r1, r4[2]
	}
	bu .LBB0_15
.Ltmp39:
.LBB0_19:
	.loc	4 476 5
	ldw r0, cp[FLAC__STREAM_METADATA_PICTURE_TYPE_LEN]
	.loc	4 476 5
	ldw r1, cp[FLAC__STREAM_METADATA_PICTURE_MIME_TYPE_LENGTH_LEN]
	.loc	4 476 5
	{
		add r0, r1, r0
		nop
	}
	.loc	4 476 5
	ldw r1, cp[FLAC__STREAM_METADATA_PICTURE_DESCRIPTION_LENGTH_LEN]
	.loc	4 476 5
	{
		add r0, r0, r1
		nop
	}
	.loc	4 476 5
	ldw r1, cp[FLAC__STREAM_METADATA_PICTURE_WIDTH_LEN]
	.loc	4 476 5
	{
		add r0, r0, r1
		nop
	}
	.loc	4 476 5
	ldw r1, cp[FLAC__STREAM_METADATA_PICTURE_HEIGHT_LEN]
	.loc	4 476 5
	{
		add r0, r0, r1
		nop
	}
	.loc	4 476 5
	ldw r1, cp[FLAC__STREAM_METADATA_PICTURE_DEPTH_LEN]
	.loc	4 476 5
	{
		add r0, r0, r1
		nop
	}
	.loc	4 476 5
	ldw r1, cp[FLAC__STREAM_METADATA_PICTURE_COLORS_LEN]
	.loc	4 476 5
	{
		add r0, r0, r1
		nop
	}
	.loc	4 476 5
	ldw r1, cp[FLAC__STREAM_METADATA_PICTURE_DATA_LENGTH_LEN]
	.loc	4 476 5
	{
		add r0, r0, r1
		nop
	}
	.loc	4 476 5
	{
		shr r0, r0, 3
		nop
	}
	{
		nop
		stw r0, r4[2]
	}
	{
		nop
		stw r6, r4[4]
	}
	{
		nop
		stw r6, r4[5]
	}
	{
		nop
		stw r6, r4[6]
	}
	.loc	4 117 15
.Ltmp40:
	ldaw r11, cp[.L.str]
.Ltmp41:
	{
		mov r0, r11
		nop
	}
	bl strdup
.Ltmp42:
	{
		mov r5, r0
		mkmsk r0, 1
	}
.Ltmp43:
	.loc	4 118 2
	bl assert
	.loc	4 119 6
.Ltmp44:
	bf r5, .LBB0_20
.Ltmp45:
	{
		nop
		ldw r0, r4[5]
	}
	.loc	4 120 3
.Ltmp46:
	bl free
	{
		nop
		stw r5, r4[5]
	}
.Ltmp47:
	.loc	4 117 15
	ldaw r11, cp[.L.str]
.Ltmp48:
	{
		mov r0, r11
		nop
	}
	bl strdup
.Ltmp49:
	{
		mov r5, r0
		mkmsk r0, 1
	}
.Ltmp50:
	.loc	4 118 2
	bl assert
	.loc	4 119 6
.Ltmp51:
	bf r5, .LBB0_23
.Ltmp52:
	{
		nop
		ldw r0, r4[6]
	}
	.loc	4 120 3
.Ltmp53:
	bl free
	{
		nop
		stw r5, r4[6]
	}
	bu .LBB0_15
.Ltmp54:
.LBB0_23:
	{
		nop
		ldw r0, r4[5]
	}
	.loc	4 504 6
.Ltmp55:
	bl free
.Ltmp56:
.LBB0_20:
	.loc	4 500 6
	{
		mov r0, r4
		nop
	}
	bl free
	{
		mov r4, r6
		nop
	}
.Ltmp57:
	bu .LBB0_15
.Ltmp58:
.LBB0_24:
	.loc	4 467 6
	{
		mov r0, r4
		nop
	}
	bl free
	{
		ldc r4, 0
		nop
	}
.Ltmp59:
.LBB0_15:
	.loc	4 519 1
	{
		mov r0, r4
		nop
	}
	ldd r7, r6, sp[2]
	ldd r5, r4, sp[1]
	{
		nop
		retsp 6
	}
	# RETURN_REG_HOLDER
.Ltmp60:
	.cc_bottom FLAC__metadata_object_new.function
	.set	FLAC__metadata_object_new.nstackwords,((calloc.nstackwords $M strlen.nstackwords $M malloc.nstackwords $M memcpy.nstackwords $M strdup.nstackwords $M assert.nstackwords $M free.nstackwords) + 6)
	.globl	FLAC__metadata_object_new.nstackwords
	.set	FLAC__metadata_object_new.maxcores,calloc.maxcores $M free.maxcores $M malloc.maxcores $M strdup.maxcores $M strlen.maxcores $M 1
	.globl	FLAC__metadata_object_new.maxcores
	.set	FLAC__metadata_object_new.maxtimers,calloc.maxtimers $M free.maxtimers $M malloc.maxtimers $M strdup.maxtimers $M strlen.maxtimers $M 0
	.globl	FLAC__metadata_object_new.maxtimers
	.set	FLAC__metadata_object_new.maxchanends,calloc.maxchanends $M free.maxchanends $M malloc.maxchanends $M strdup.maxchanends $M strlen.maxchanends $M 0
	.globl	FLAC__metadata_object_new.maxchanends
.Ltmp61:
	.size	FLAC__metadata_object_new, .Ltmp61-FLAC__metadata_object_new
.Lfunc_end0:
	.file	6 "C:\\Program Files (x86)\\XMOS\\xTIMEcomposer\\Community_14.4.1\\target/include/clang\\stddef.h"
	.cfi_endproc

	.section	.cp.rodata.cst4,"aMc",@progbits,4
	.cc_top .LCPI1_0.data,.LCPI1_0
	.align	4
	.type	.LCPI1_0,@object
	.size	.LCPI1_0, 4
.LCPI1_0:
	.long	178956971
	.cc_bottom .LCPI1_0.data
	.text
	.globl	FLAC__metadata_object_clone
	.align	4
	.type	FLAC__metadata_object_clone,@function
	.cc_top FLAC__metadata_object_clone.function,FLAC__metadata_object_clone
FLAC__metadata_object_clone:
.Lfunc_begin1:
	.loc	4 522 0
	.cfi_startproc
	.issue_mode dual
	{
		nop
		dualentsp 14
	}
.Ltmp62:
	.cfi_def_cfa_offset 56
.Ltmp63:
	.cfi_offset 15, 0
	std r5, r4, sp[3]
.Ltmp64:
	.cfi_offset 4, -32
.Ltmp65:
	.cfi_offset 5, -28
	std r7, r6, sp[4]
.Ltmp66:
	.cfi_offset 6, -24
.Ltmp67:
	.cfi_offset 7, -20
	std r9, r8, sp[5]
.Ltmp68:
	.cfi_offset 8, -16
.Ltmp69:
	.cfi_offset 9, -12
.Ltmp70:
	.cfi_offset 10, -8
.Ltmp71:
	{
		mov r5, r0
		stw r10, sp[12]
	}
.Ltmp72:
	.loc	4 525 2 prologue_end
	{
		eq r0, r5, 0
		nop
	}
	{
		eq r0, r0, 0
		nop
	}
	.loc	4 525 2
	bl assert
	{
		nop
		ldw r0, r5[0]
	}
	.loc	4 527 12
.Ltmp73:
	bl FLAC__metadata_object_new
.Ltmp74:
	{
		mov r4, r0
		ldc r9, 0
	}
.Ltmp75:
	.loc	4 527 12
	bf r4, .LBB1_1
.Ltmp76:
	{
		nop
		ldw r0, r5[1]
	}
	{
		nop
		stw r0, r4[1]
	}
	{
		nop
		ldw r1, r5[0]
	}
	{
		nop
		stw r1, r4[0]
	}
	{
		nop
		ldw r0, r5[2]
	}
	.loc	4 530 3
.Ltmp77:
	{
		ldc r2, 6
		stw r0, r4[2]
	}
	.loc	4 531 3
	{
		lsu r2, r2, r1
		nop
	}
	bf r2, .LBB1_3
.Ltmp78:
	{
		nop
		ldw r6, r5[4]
	}
.Ltmp79:
	.loc	4 616 10
	{
		mkmsk r0, 1
		ldw r5, r5[2]
	}
.Ltmp80:
	.loc	4 67 2
	bl assert
	{
		ldc r7, 0
		nop
	}
	bf r5, .LBB1_74
.Ltmp81:
	bf r6, .LBB1_74
.Ltmp82:
	.loc	5 95 9
	{
		mov r0, r5
		nop
	}
	bl malloc
	{
		mov r7, r0
		nop
	}
.Ltmp83:
	bf r7, .LBB1_75
.Ltmp84:
	.loc	4 72 3
	{
		mov r0, r7
		mov r1, r6
	}
	{
		mov r2, r5
		nop
	}
	bl memcpy
.Ltmp85:
.LBB1_74:
	{
		nop
		stw r7, r4[4]
	}
	bu .LBB1_76
.Ltmp86:
.LBB1_1:
	{
		mov r4, r9
		nop
	}
	bu .LBB1_76
.LBB1_3:
.Ltmp87:

	.xtabranch .Ljumptable1+4,.Ljumptable1+8,.Ljumptable1+12,.Ljumptable1+16,.Ljumptable1+20,.Ljumptable1+24,.Ljumptable1+28
.Ljumptable1:
		
	{
		nop
		bru r1
	}
	.jmptable32 .LBB1_4,.LBB1_76,.LBB1_5,.LBB1_12,.LBB1_18,.LBB1_42,.LBB1_63
.Ltmp88:
.LBB1_4:
	.loc	4 533 5
	ldaw r0, r4[4]
	.loc	4 533 5
	ldaw r1, r5[4]
	{
		ldc r2, 56
		nop
	}
	.loc	4 533 5
	bl __memcpy_4
	bu .LBB1_76
.Ltmp89:
.LBB1_5:
	.loc	4 538 9
	ldw r1, cp[FLAC__STREAM_METADATA_APPLICATION_ID_LEN]
	.loc	4 538 9
	{
		shr r6, r1, 3
		nop
	}
	.loc	4 538 9
	{
		lsu r0, r0, r6
		nop
	}
	bt r0, .LBB1_6
.Ltmp90:
	.loc	4 542 5
	ldaw r0, r4[4]
	.loc	4 542 5
	ldaw r1, r5[4]
	.loc	4 542 5
	{
		mov r2, r6
		nop
	}
	bl memcpy
	{
		nop
		ldw r7, r5[5]
	}
.Ltmp91:
	.loc	4 543 10
	{
		mkmsk r0, 1
		ldw r8, r5[2]
	}
	.loc	4 67 2
.Ltmp92:
	bl assert
	{
		ldc r5, 0
		eq r0, r8, r6
	}
.Ltmp93:
	bt r0, .LBB1_11
.Ltmp94:
	bf r7, .LBB1_11
.Ltmp95:
	.loc	4 543 10
	{
		sub r6, r8, r6
		nop
	}
.Ltmp96:
	.loc	5 95 9
	{
		mov r0, r6
		nop
	}
	bl malloc
	{
		mov r5, r0
		nop
	}
.Ltmp97:
	bf r5, .LBB1_75
.Ltmp98:
	.loc	4 72 3
	{
		mov r0, r5
		mov r1, r7
	}
	{
		mov r2, r6
		nop
	}
	bl memcpy
.Ltmp99:
.LBB1_11:
	{
		nop
		stw r5, r4[5]
	}
	bu .LBB1_76
.Ltmp100:
.LBB1_12:
	{
		nop
		ldw r0, r5[4]
	}
	{
		nop
		stw r0, r4[4]
	}
	ldw r1, cp[.LCPI1_0]
	.loc	4 550 9
.Ltmp101:
	{
		lsu r0, r0, r1
		nop
	}
	bf r0, .LBB1_6
.Ltmp102:
	{
		nop
		ldw r6, r5[5]
	}
	.loc	4 554 10
.Ltmp103:
	{
		ldc r1, 24
		ldw r0, r5[4]
	}
	.loc	4 554 10
	mul r5, r0, r1
.Ltmp104:
	{
		mkmsk r0, 1
		nop
	}
	.loc	4 67 2
.Ltmp105:
	bl assert
	{
		ldc r7, 0
		nop
	}
	bf r5, .LBB1_17
.Ltmp106:
	bf r6, .LBB1_17
.Ltmp107:
	.loc	5 95 9
	{
		mov r0, r5
		nop
	}
	bl malloc
	{
		mov r7, r0
		nop
	}
.Ltmp108:
	bf r7, .LBB1_75
.Ltmp109:
	.loc	4 72 3
	{
		mov r0, r7
		mov r1, r6
	}
	{
		mov r2, r5
		nop
	}
	bl memcpy
.Ltmp110:
.LBB1_17:
	{
		nop
		stw r7, r4[5]
	}
	bu .LBB1_76
.Ltmp111:
.LBB1_18:
	{
		nop
		ldw r0, r4[5]
	}
	bf r0, .LBB1_20
.Ltmp112:
	.loc	4 561 6
	bl free
	{
		ldc r0, 0
		nop
	}
	{
		nop
		stw r0, r4[5]
	}
.Ltmp113:
.LBB1_20:
	{
		nop
		ldw r0, r5[4]
	}
	{
		nop
		stw r0, r4[4]
	}
	{
		nop
		ldw r7, r5[5]
	}
	{
		nop
		ldw r6, r5[4]
	}
	.loc	4 131 6
.Ltmp114:
	bf r7, .LBB1_21
.Ltmp115:
	.loc	5 128 2
	{
		add r0, r6, 1
		nop
	}
	{
		lsu r1, r0, r6
		nop
	}
	bt r1, .LBB1_6
.Ltmp116:
	.loc	5 93 5
	{
		eq r1, r0, 0
		nop
	}
	.loc	5 93 5
	{
		add r0, r1, r0
		nop
	}
.Ltmp117:
	.loc	5 95 9
	bl malloc
	{
		mov r8, r0
		nop
	}
.Ltmp118:
	bf r8, .LBB1_6
.Ltmp119:
	.loc	4 141 3
	{
		mov r0, r8
		mov r1, r7
	}
	{
		mov r2, r6
		nop
	}
	bl memcpy
	{
		ldc r0, 0
		nop
	}
	.loc	4 142 3
	st8 r0, r8[r6]
	{
		nop
		stw r8, r4[5]
	}
	bu .LBB1_26
.Ltmp120:
.LBB1_42:
	.loc	4 582 5
	ldaw r0, r4[4]
	.loc	4 582 5
	ldaw r1, r5[4]
	ldc r2, 160
	.loc	4 582 5
	bl __memcpy_4
	ldc r0, 164
	.loc	4 583 9
.Ltmp121:
	{
		add r6, r5, r0
		nop
	}
	{
		nop
		ldw r1, r6[0]
	}
	ldc r8, 168
	.loc	4 584 6
.Ltmp122:
	{
		add r5, r5, r8
		nop
	}
.Ltmp123:
	{
		nop
		ldw r0, r5[0]
	}
.Ltmp124:
	.loc	4 587 6
	{
		eq r0, r0, 0
		nop
	}
.Ltmp125:
	.loc	4 583 9
	bf r1, .LBB1_43
.Ltmp126:
	.loc	4 587 6
	{
		eq r0, r0, 0
		nop
	}
	.loc	4 587 6
	bl assert
	{
		nop
		ldw r7, r5[0]
	}
.Ltmp127:
	.loc	4 588 34
	{
		eq r0, r7, 0
		ldw r5, r6[0]
	}
.Ltmp128:
	.loc	4 378 2
	{
		eq r0, r0, 0
		nop
	}
	.loc	4 378 2
	bl assert
	.loc	4 379 2
	{
		eq r0, r5, 0
		nop
	}
	{
		eq r6, r0, 0
		nop
	}
	.loc	4 379 2
	{
		mov r0, r6
		nop
	}
	bl assert
	.loc	4 353 2
.Ltmp129:
	{
		mov r0, r6
		nop
	}
	bl assert
.Ltmp130:
	.loc	5 119 5
	bf r5, .LBB1_45
.Ltmp131:
	{
		ldc r1, 32
		mov r0, r5
	}
	.loc	5 121 9
	bl calloc
	bu .LBB1_47
.Ltmp132:
.LBB1_63:
	{
		nop
		ldw r0, r5[4]
	}
	{
		nop
		stw r0, r4[4]
	}
	{
		nop
		ldw r0, r5[5]
	}
.Ltmp133:
	.loc	4 117 15
	bl strdup
.Ltmp134:
	{
		mov r6, r0
		mkmsk r0, 1
	}
.Ltmp135:
	.loc	4 118 2
	bl assert
	bf r6, .LBB1_6
.Ltmp136:
	{
		nop
		ldw r0, r4[5]
	}
	.loc	4 120 3
.Ltmp137:
	bl free
	{
		nop
		stw r6, r4[5]
	}
	{
		nop
		ldw r0, r5[6]
	}
.Ltmp138:
	.loc	4 117 15
	bl strdup
.Ltmp139:
	{
		mov r6, r0
		mkmsk r0, 1
	}
.Ltmp140:
	.loc	4 118 2
	bl assert
	bf r6, .LBB1_6
.Ltmp141:
	{
		nop
		ldw r0, r4[6]
	}
	.loc	4 120 3
.Ltmp142:
	bl free
	{
		nop
		stw r6, r4[6]
	}
	{
		nop
		ldw r0, r5[7]
	}
	{
		nop
		stw r0, r4[7]
	}
	{
		nop
		ldw r0, r5[8]
	}
	{
		nop
		stw r0, r4[8]
	}
	{
		nop
		ldw r0, r5[9]
	}
	{
		nop
		stw r0, r4[9]
	}
	{
		nop
		ldw r0, r5[10]
	}
	{
		nop
		stw r0, r4[10]
	}
	{
		nop
		ldw r0, r5[11]
	}
.Ltmp143:
	.loc	4 609 5
	{
		ldc r8, 48
		stw r0, r4[11]
	}
	.loc	4 610 10
.Ltmp144:
	{
		add r0, r5, r8
		nop
	}
	{
		nop
		ldw r6, r0[0]
	}
.Ltmp145:
	.loc	4 610 10
	{
		mkmsk r0, 1
		ldw r5, r5[11]
	}
.Ltmp146:
	.loc	4 67 2
	bl assert
	{
		ldc r7, 0
		nop
	}
	bf r5, .LBB1_69
.Ltmp147:
	bf r6, .LBB1_69
.Ltmp148:
	.loc	5 95 9
	{
		mov r0, r5
		nop
	}
	bl malloc
	{
		mov r7, r0
		nop
	}
.Ltmp149:
	bf r7, .LBB1_75
.Ltmp150:
	.loc	4 72 3
	{
		mov r0, r7
		mov r1, r6
	}
	{
		mov r2, r5
		nop
	}
	bl memcpy
.Ltmp151:
.LBB1_69:
	.loc	4 610 10
	{
		add r0, r4, r8
		nop
	}
	{
		nop
		stw r7, r0[0]
	}
	bu .LBB1_76
.Ltmp152:
.LBB1_75:
	.loc	4 691 2
	{
		mov r0, r4
		nop
	}
	bl FLAC__metadata_object_delete_data
	.loc	4 692 2
	{
		mov r0, r4
		nop
	}
	bl free
	{
		ldc r4, 0
		nop
	}
.Ltmp153:
	bu .LBB1_76
.Ltmp154:
.LBB1_21:
	.loc	4 132 3
	{
		eq r0, r6, 0
		nop
	}
	.loc	4 132 3
	bl assert
.Ltmp155:
	{
		mkmsk r0, 1
		nop
	}
	.loc	5 95 9
.Ltmp156:
	bl malloc
	{
		nop
		stw r0, r4[5]
	}
	bf r0, .LBB1_6
.Ltmp157:
	.loc	4 135 3
	{
		ldc r1, 0
		nop
	}
	st8 r1, r0[r1]
.Ltmp158:
.LBB1_26:
	{
		nop
		ldw r6, r5[6]
	}
.Ltmp159:
	.loc	4 568 9
	bf r6, .LBB1_27
.Ltmp160:
	{
		nop
		ldw r0, r5[7]
	}
.Ltmp161:
	.loc	4 231 2
	{
		eq r0, r0, 0
		stw r0, sp[2]
	}
	{
		eq r0, r0, 0
		nop
	}
	.loc	4 231 2
	bl assert
	{
		mkmsk r7, 1
		nop
	}
	.loc	4 232 2
	{
		mov r0, r7
		nop
	}
	bl assert
	.loc	4 210 2
.Ltmp162:
	{
		mov r0, r7
		nop
	}
	bl assert
.Ltmp163:
	{
		ldc r1, 8
		mov r0, r6
	}
	.loc	5 121 9
.Ltmp164:
	bl calloc
	{
		nop
		stw r0, sp[5]
	}
	bf r0, .LBB1_41
.Ltmp165:
	{
		ldc r7, 0
		nop
	}
	.loc	4 572 41
	{
		mov r10, r7
		nop
	}
.Ltmp166:
.LBB1_30:
	{
		nop
		ldw r0, sp[2]
	}
	{
		add r0, r0, r7
		nop
	}
	{
		nop
		ldw r9, r0[0]
	}
	{
		nop
		ldw r1, sp[5]
	}
	{
		add r8, r1, r7
		nop
	}
	{
		nop
		stw r9, r8[0]
	}
	{
		nop
		ldw r0, r0[1]
	}
	.loc	4 131 6
.Ltmp167:
	bf r0, .LBB1_31
.Ltmp168:
	{
		nop
		stw r0, sp[3]
	}
	{
		add r0, r9, 1
		stw r8, sp[4]
	}
	.loc	5 128 2
.Ltmp169:
	{
		lsu r1, r0, r9
		nop
	}
	bt r1, .LBB1_38
.Ltmp170:
	.loc	5 93 5
	{
		eq r1, r0, 0
		nop
	}
	.loc	5 93 5
	{
		add r0, r1, r0
		nop
	}
.Ltmp171:
	.loc	5 95 9
	bl malloc
	{
		mov r8, r0
		nop
	}
.Ltmp172:
	bf r8, .LBB1_38
.Ltmp173:
	.loc	4 141 3
	{
		mov r0, r8
		ldw r1, sp[3]
	}
	{
		mov r2, r9
		nop
	}
	bl memcpy
.Ltmp174:
	.loc	4 135 3
	{
		ldc r0, 0
		nop
	}
.Ltmp175:
	.loc	4 142 3
	st8 r0, r8[r9]
	{
		nop
		ldw r0, sp[4]
	}
	{
		nop
		stw r8, r0[1]
	}
	bu .LBB1_36
.Ltmp176:
.LBB1_31:
	.loc	4 132 3
	{
		eq r0, r9, 0
		nop
	}
	.loc	4 132 3
	bl assert
.Ltmp177:
	{
		mkmsk r0, 1
		nop
	}
	.loc	5 95 9
.Ltmp178:
	bl malloc
	{
		nop
		stw r0, r8[1]
	}
	bf r0, .LBB1_38
.Ltmp179:
	.loc	4 135 3
	{
		ldc r1, 0
		nop
	}
	st8 r1, r0[r1]
.Ltmp180:
.LBB1_36:
	.loc	4 239 33
	{
		add r10, r10, 1
		add r7, r7, 8
	}
.Ltmp181:
	.loc	4 239 3
	{
		lsu r0, r10, r6
		nop
	}
	bt r0, .LBB1_30
.Ltmp182:
	{
		nop
		ldw r0, sp[5]
	}
	{
		nop
		stw r0, r4[7]
	}
	{
		nop
		ldw r0, r5[6]
	}
	{
		nop
		stw r0, r4[6]
	}
	bu .LBB1_76
.Ltmp183:
.LBB1_6:
	.loc	4 691 2
	{
		mov r0, r4
		nop
	}
	bl FLAC__metadata_object_delete_data
	.loc	4 692 2
	{
		mov r0, r4
		nop
	}
	bl free
	{
		mov r4, r9
		nop
	}
.Ltmp184:
	bu .LBB1_76
.Ltmp185:
.LBB1_43:
	.loc	4 584 6
	bl assert
	bu .LBB1_76
.Ltmp186:
.LBB1_45:
	{
		mkmsk r0, 1
		nop
	}
	.loc	5 120 10
.Ltmp187:
	bl malloc
.Ltmp188:
.LBB1_47:
	bf r0, .LBB1_61
.Ltmp189:
	.loc	4 386 3
	bf r5, .LBB1_77
.Ltmp190:
	ldaw r6, r7[6]
	{
		ldc r10, 0
		stw r0, sp[5]
	}
	{
		mov r9, r0
		mov r8, r10
	}
.Ltmp191:
.LBB1_50:
	ldaw r1, r6[-6]
	.loc	4 150 2
.Ltmp192:
	{
		mov r0, r9
		ldc r2, 32
	}
	bl __memcpy_4
	.loc	4 151 6
.Ltmp193:
	{
		mkmsk r0, 32
		ldw r1, r6[0]
	}
	{
		nop
		ld8u r0, r6[r0]
	}
	.loc	4 151 6
	bf r1, .LBB1_51
.Ltmp194:
	{
		sub r7, r6, 1
		eq r0, r0, 0
	}
	.loc	4 156 3
.Ltmp195:
	{
		eq r0, r0, 0
		nop
	}
	.loc	4 156 3
	bl assert
	.loc	4 157 12
.Ltmp196:
	{
		ldc r1, 16
		ld8u r0, r7[r10]
	}
	.loc	4 157 12
	bl safe_malloc_mul_2op_p
	{
		mov r2, r10
		mov r10, r0
	}
	.loc	4 157 12
	bf r10, .LBB1_56
.Ltmp197:
	{
		nop
		ldw r1, r6[0]
	}
	.loc	4 159 3
	{
		mov r7, r2
		ld8u r0, r7[r2]
	}
	.loc	4 159 3
	{
		shl r2, r0, 4
		mov r0, r10
	}
	.loc	4 159 3
	bl __memcpy_4
	{
		nop
		stw r10, r9[6]
	}
	bu .LBB1_54
.Ltmp198:
.LBB1_51:
	{
		mov r7, r10
		eq r0, r0, 0
	}
	.loc	4 152 3
.Ltmp199:
	bl assert
.Ltmp200:
.LBB1_54:
	.loc	4 386 31
	{
		add r8, r8, 1
		nop
	}
.Ltmp201:
	.loc	4 386 3
	ldaw r9, r9[8]
	.loc	4 386 3
	ldaw r6, r6[8]
	.loc	4 386 3
	{
		lsu r0, r8, r5
		mov r10, r7
	}
	bt r0, .LBB1_50
.Ltmp202:
	ldc r0, 168
	.loc	4 588 34
	{
		add r0, r4, r0
		ldw r1, sp[5]
	}
	{
		nop
		stw r1, r0[0]
	}
	bu .LBB1_76
.Ltmp203:
.LBB1_27:
	{
		ldc r0, 0
		nop
	}
	{
		nop
		stw r0, r4[7]
	}
	{
		nop
		stw r0, r4[6]
	}
	bu .LBB1_76
.Ltmp204:
.LBB1_77:
	.loc	4 588 34
	{
		add r1, r4, r8
		nop
	}
	{
		nop
		stw r0, r1[0]
	}
	bu .LBB1_76
.Ltmp205:
.LBB1_38:
	{
		mkmsk r0, 1
		nop
	}
	.loc	4 219 2
.Ltmp206:
	bl assert
.Ltmp207:
	{
		nop
		ldw r0, sp[5]
	}
	{
		add r5, r0, 4
		nop
	}
.Ltmp208:
.LBB1_39:
	{
		nop
		ldw r0, r5[0]
	}
	.loc	4 222 3
.Ltmp209:
	bl free
	.loc	4 221 2
	{
		sub r6, r6, 1
		add r5, r5, 8
	}
	.loc	4 221 2
	bt r6, .LBB1_39
.Ltmp210:
	{
		nop
		ldw r0, sp[5]
	}
	.loc	4 224 2
	bl free
.Ltmp211:
.LBB1_41:
	{
		ldc r5, 0
		nop
	}
	{
		nop
		stw r5, r4[7]
	}
	{
		nop
		stw r5, r4[6]
	}
	bu .LBB1_62
.Ltmp212:
.LBB1_56:
	{
		mkmsk r0, 1
		nop
	}
	.loc	4 362 2
.Ltmp213:
	bl assert
.Ltmp214:
	{
		ldc r0, 23
		ldw r9, sp[5]
	}
	{
		add r6, r9, r0
		ldc r7, 0
	}
.Ltmp215:
.LBB1_57:
	{
		add r8, r6, 1
		nop
	}
	{
		nop
		ldw r0, r8[0]
	}
	bf r0, .LBB1_59
.Ltmp216:
	{
		nop
		ld8u r0, r6[r7]
	}
	.loc	4 366 4
.Ltmp217:
	{
		eq r0, r0, 0
		nop
	}
	{
		eq r0, r0, 0
		nop
	}
	.loc	4 366 4
	bl assert
	{
		nop
		ldw r0, r8[0]
	}
	.loc	4 367 4
	bl free
.Ltmp218:
.LBB1_59:
	.loc	4 364 2
	{
		sub r5, r5, 1
		nop
	}
	.loc	4 364 2
	ldaw r6, r6[8]
	bt r5, .LBB1_57
.Ltmp219:
	.loc	4 371 2
	{
		mov r0, r9
		nop
	}
	bl free
	ldc r8, 168
.Ltmp220:
.LBB1_61:
	.loc	4 588 34
	{
		add r0, r4, r8
		ldc r5, 0
	}
	{
		nop
		stw r5, r0[0]
	}
.Ltmp221:
.LBB1_62:
	.loc	4 691 2
	{
		mov r0, r4
		nop
	}
	bl FLAC__metadata_object_delete_data
	.loc	4 692 2
	{
		mov r0, r4
		nop
	}
	bl free
	{
		mov r4, r5
		nop
	}
.Ltmp222:
.LBB1_76:
	.loc	4 625 1
	{
		mov r0, r4
		ldw r10, sp[12]
	}
	ldd r9, r8, sp[5]
	ldd r7, r6, sp[4]
	ldd r5, r4, sp[3]
	{
		nop
		retsp 14
	}
	# RETURN_REG_HOLDER
.Ltmp223:
	.cc_bottom FLAC__metadata_object_clone.function
	.set	FLAC__metadata_object_clone.nstackwords,((FLAC__metadata_object_new.nstackwords $M FLAC__metadata_object_delete_data.nstackwords $M calloc.nstackwords $M safe_malloc_mul_2op_p.nstackwords $M __memcpy_4.nstackwords $M strdup.nstackwords $M free.nstackwords $M assert.nstackwords $M malloc.nstackwords $M memcpy.nstackwords) + 14)
	.globl	FLAC__metadata_object_clone.nstackwords
	.set	FLAC__metadata_object_clone.maxcores,FLAC__metadata_object_delete_data.maxcores $M FLAC__metadata_object_new.maxcores $M calloc.maxcores $M free.maxcores $M malloc.maxcores $M safe_malloc_mul_2op_p.maxcores $M strdup.maxcores $M 1
	.globl	FLAC__metadata_object_clone.maxcores
	.set	FLAC__metadata_object_clone.maxtimers,FLAC__metadata_object_delete_data.maxtimers $M FLAC__metadata_object_new.maxtimers $M calloc.maxtimers $M free.maxtimers $M malloc.maxtimers $M safe_malloc_mul_2op_p.maxtimers $M strdup.maxtimers $M 0
	.globl	FLAC__metadata_object_clone.maxtimers
	.set	FLAC__metadata_object_clone.maxchanends,FLAC__metadata_object_delete_data.maxchanends $M FLAC__metadata_object_new.maxchanends $M calloc.maxchanends $M free.maxchanends $M malloc.maxchanends $M safe_malloc_mul_2op_p.maxchanends $M strdup.maxchanends $M 0
	.globl	FLAC__metadata_object_clone.maxchanends
.Ltmp224:
	.size	FLAC__metadata_object_clone, .Ltmp224-FLAC__metadata_object_clone
.Lfunc_end1:
	.cfi_endproc

	.globl	FLAC__metadata_object_delete
	.align	4
	.type	FLAC__metadata_object_delete,@function
	.cc_top FLAC__metadata_object_delete.function,FLAC__metadata_object_delete
FLAC__metadata_object_delete:
.Lfunc_begin2:
	.loc	4 690 0
	.cfi_startproc
	.issue_mode dual
	{
		nop
		dualentsp 4
	}
.Ltmp225:
	.cfi_def_cfa_offset 16
.Ltmp226:
	.cfi_offset 15, 0
.Ltmp227:
	.cfi_offset 4, -8
.Ltmp228:
	{
		mov r4, r0
		stw r4, sp[2]
	}
.Ltmp229:
	.loc	4 691 2 prologue_end
	bl FLAC__metadata_object_delete_data
	.loc	4 692 2
	{
		mov r0, r4
		nop
	}
	bl free
	{
		nop
		ldw r4, sp[2]
	}
	{
		nop
		retsp 4
	}
	.loc	4 693 1
	# RETURN_REG_HOLDER
.Ltmp230:
	.cc_bottom FLAC__metadata_object_delete.function
	.set	FLAC__metadata_object_delete.nstackwords,((FLAC__metadata_object_delete_data.nstackwords $M free.nstackwords) + 4)
	.globl	FLAC__metadata_object_delete.nstackwords
	.set	FLAC__metadata_object_delete.maxcores,FLAC__metadata_object_delete_data.maxcores $M free.maxcores $M 1
	.globl	FLAC__metadata_object_delete.maxcores
	.set	FLAC__metadata_object_delete.maxtimers,FLAC__metadata_object_delete_data.maxtimers $M free.maxtimers $M 0
	.globl	FLAC__metadata_object_delete.maxtimers
	.set	FLAC__metadata_object_delete.maxchanends,FLAC__metadata_object_delete_data.maxchanends $M free.maxchanends $M 0
	.globl	FLAC__metadata_object_delete.maxchanends
.Ltmp231:
	.size	FLAC__metadata_object_delete, .Ltmp231-FLAC__metadata_object_delete
.Lfunc_end2:
	.cfi_endproc

	.globl	FLAC__metadata_object_delete_data
	.align	4
	.type	FLAC__metadata_object_delete_data,@function
	.cc_top FLAC__metadata_object_delete_data.function,FLAC__metadata_object_delete_data
FLAC__metadata_object_delete_data:
.Lfunc_begin3:
	.loc	4 628 0
	.cfi_startproc
	.issue_mode dual
	{
		nop
		dualentsp 10
	}
.Ltmp232:
	.cfi_def_cfa_offset 40
.Ltmp233:
	.cfi_offset 15, 0
	std r5, r4, sp[1]
.Ltmp234:
	.cfi_offset 4, -32
.Ltmp235:
	.cfi_offset 5, -28
	std r7, r6, sp[2]
.Ltmp236:
	.cfi_offset 6, -24
.Ltmp237:
	.cfi_offset 7, -20
	std r9, r8, sp[3]
.Ltmp238:
	.cfi_offset 8, -16
.Ltmp239:
	.cfi_offset 9, -12
.Ltmp240:
	.cfi_offset 10, -8
.Ltmp241:
	{
		mov r4, r0
		stw r10, sp[8]
	}
.Ltmp242:
	.loc	4 629 2 prologue_end
	{
		eq r0, r4, 0
		nop
	}
	{
		eq r0, r0, 0
		nop
	}
	.loc	4 629 2
	bl assert
	.loc	4 631 2
	{
		ldc r1, 6
		ldw r0, r4[0]
	}
	.loc	4 631 2
	{
		lsu r1, r1, r0
		nop
	}
	bf r1, .LBB3_1
.Ltmp243:
	{
		nop
		ldw r0, r4[4]
	}
	bf r0, .LBB3_26
.Ltmp244:
	.loc	4 682 5
	bl free
	{
		ldc r0, 0
		nop
	}
	{
		nop
		stw r0, r4[4]
	}
	bu .LBB3_26
.Ltmp245:
.LBB3_1:

	.xtabranch .Ljumptable2+4,.Ljumptable2+8,.Ljumptable2+12,.Ljumptable2+16,.Ljumptable2+20,.Ljumptable2+24,.Ljumptable2+28
.Ljumptable2:
		
	{
		nop
		bru r0
	}
	.jmptable32 .LBB3_26,.LBB3_26,.LBB3_2,.LBB3_2,.LBB3_4,.LBB3_11,.LBB3_18
.Ltmp246:
.LBB3_2:
	{
		nop
		ldw r0, r4[5]
	}
	bf r0, .LBB3_26
.Ltmp247:
	.loc	4 637 5
	bl free
	{
		ldc r0, 0
		nop
	}
	{
		nop
		stw r0, r4[5]
	}
	bu .LBB3_26
.Ltmp248:
.LBB3_4:
	{
		nop
		ldw r0, r4[5]
	}
	bf r0, .LBB3_6
.Ltmp249:
	.loc	4 649 5
	bl free
	{
		ldc r0, 0
		nop
	}
	{
		nop
		stw r0, r4[5]
	}
.Ltmp250:
.LBB3_6:
	{
		nop
		ldw r5, r4[7]
	}
.Ltmp251:
	bf r5, .LBB3_26
.Ltmp252:
	.loc	4 653 5
	{
		mkmsk r0, 1
		ldw r6, r4[6]
	}
.Ltmp253:
	.loc	4 219 2
	bl assert
.Ltmp254:
	bf r6, .LBB3_10
.Ltmp255:
	{
		add r7, r5, 4
		nop
	}
.Ltmp256:
.LBB3_9:
	{
		nop
		ldw r0, r7[0]
	}
	.loc	4 222 3
.Ltmp257:
	bl free
	.loc	4 221 2
	{
		sub r6, r6, 1
		add r7, r7, 8
	}
	bt r6, .LBB3_9
.Ltmp258:
.LBB3_10:
	.loc	4 224 2
	{
		mov r0, r5
		nop
	}
	bl free
	{
		ldc r0, 0
		nop
	}
	{
		nop
		stw r0, r4[7]
	}
	{
		nop
		stw r0, r4[6]
	}
	bu .LBB3_26
.Ltmp259:
.LBB3_11:
	ldc r0, 168
	.loc	4 659 8
.Ltmp260:
	{
		add r5, r4, r0
		nop
	}
	{
		nop
		ldw r0, r5[0]
	}
	bf r0, .LBB3_26
.Ltmp261:
	ldc r0, 164
	.loc	4 660 5
.Ltmp262:
	{
		add r6, r4, r0
		nop
	}
	{
		nop
		ldw r0, r6[0]
	}
	.loc	4 660 5
	{
		eq r0, r0, 0
		nop
	}
	{
		eq r0, r0, 0
		nop
	}
	.loc	4 660 5
	bl assert
	{
		nop
		ldw r4, r5[0]
	}
.Ltmp263:
	{
		nop
		ldw r7, r6[0]
	}
.Ltmp264:
	.loc	4 362 2
	{
		eq r0, r7, 0
		nop
	}
	{
		eq r0, r0, 0
		eq r1, r4, 0
	}
	.loc	4 362 2
	{
		eq r1, r1, 0
		nop
	}
	.loc	4 362 2
	{
		and r0, r0, r1
		nop
	}
	.loc	4 362 2
	bl assert
.Ltmp265:
	bf r7, .LBB3_17
.Ltmp266:
	{
		ldc r0, 23
		nop
	}
	{
		add r8, r4, r0
		ldc r9, 0
	}
.Ltmp267:
.LBB3_14:
	{
		add r10, r8, 1
		nop
	}
	{
		nop
		ldw r0, r10[0]
	}
	bf r0, .LBB3_16
.Ltmp268:
	{
		nop
		ld8u r0, r8[r9]
	}
	.loc	4 366 4
.Ltmp269:
	{
		eq r0, r0, 0
		nop
	}
	{
		eq r0, r0, 0
		nop
	}
	.loc	4 366 4
	bl assert
	{
		nop
		ldw r0, r10[0]
	}
	.loc	4 367 4
	bl free
.Ltmp270:
.LBB3_16:
	.loc	4 364 2
	{
		sub r7, r7, 1
		nop
	}
	.loc	4 364 2
	ldaw r8, r8[8]
	bt r7, .LBB3_14
.Ltmp271:
.LBB3_17:
	.loc	4 371 2
	{
		mov r0, r4
		nop
	}
	bl free
	{
		ldc r0, 0
		nop
	}
	{
		nop
		stw r0, r5[0]
	}
	{
		nop
		stw r0, r6[0]
	}
	bu .LBB3_26
.Ltmp272:
.LBB3_18:
	{
		nop
		ldw r0, r4[5]
	}
	bf r0, .LBB3_20
.Ltmp273:
	.loc	4 668 5
	bl free
	{
		ldc r0, 0
		nop
	}
	{
		nop
		stw r0, r4[5]
	}
.Ltmp274:
.LBB3_20:
	{
		nop
		ldw r0, r4[6]
	}
	bf r0, .LBB3_22
.Ltmp275:
	.loc	4 672 5
	bl free
	{
		ldc r0, 0
		nop
	}
	{
		nop
		stw r0, r4[6]
	}
.Ltmp276:
.LBB3_22:
	{
		ldc r0, 48
		nop
	}
	.loc	4 675 8
.Ltmp277:
	{
		add r4, r4, r0
		nop
	}
.Ltmp278:
	{
		nop
		ldw r0, r4[0]
	}
	bf r0, .LBB3_26
	.loc	4 676 5
.Ltmp279:
	bl free
	{
		ldc r0, 0
		nop
	}
	{
		nop
		stw r0, r4[0]
	}
.Ltmp280:
.LBB3_26:
	{
		nop
		ldw r10, sp[8]
	}
	.loc	4 687 1
	ldd r9, r8, sp[3]
	ldd r7, r6, sp[2]
	ldd r5, r4, sp[1]
	{
		nop
		retsp 10
	}
	# RETURN_REG_HOLDER
.Ltmp281:
	.cc_bottom FLAC__metadata_object_delete_data.function
	.set	FLAC__metadata_object_delete_data.nstackwords,((assert.nstackwords $M free.nstackwords) + 10)
	.globl	FLAC__metadata_object_delete_data.nstackwords
	.set	FLAC__metadata_object_delete_data.maxcores,free.maxcores $M 1
	.globl	FLAC__metadata_object_delete_data.maxcores
	.set	FLAC__metadata_object_delete_data.maxtimers,free.maxtimers $M 0
	.globl	FLAC__metadata_object_delete_data.maxtimers
	.set	FLAC__metadata_object_delete_data.maxchanends,free.maxchanends $M 0
	.globl	FLAC__metadata_object_delete_data.maxchanends
.Ltmp282:
	.size	FLAC__metadata_object_delete_data, .Ltmp282-FLAC__metadata_object_delete_data
.Lfunc_end3:
	.cfi_endproc

	.globl	FLAC__metadata_object_is_equal
	.align	4
	.type	FLAC__metadata_object_is_equal,@function
	.cc_top FLAC__metadata_object_is_equal.function,FLAC__metadata_object_is_equal
FLAC__metadata_object_is_equal:
.Lfunc_begin4:
	.loc	4 869 0
	.cfi_startproc
	.issue_mode dual
	{
		nop
		dualentsp 16
	}
.Ltmp283:
	.cfi_def_cfa_offset 64
.Ltmp284:
	.cfi_offset 15, 0
	std r5, r4, sp[4]
.Ltmp285:
	.cfi_offset 4, -32
.Ltmp286:
	.cfi_offset 5, -28
	std r7, r6, sp[5]
.Ltmp287:
	.cfi_offset 6, -24
.Ltmp288:
	.cfi_offset 7, -20
	std r9, r8, sp[6]
.Ltmp289:
	.cfi_offset 8, -16
.Ltmp290:
	.cfi_offset 9, -12
.Ltmp291:
	.cfi_offset 10, -8
.Ltmp292:
	{
		mov r5, r1
		stw r10, sp[14]
	}
.Ltmp293:
	{
		mov r6, r0
		nop
	}
.Ltmp294:
	.loc	4 870 2 prologue_end
	{
		eq r0, r6, 0
		nop
	}
	{
		eq r0, r0, 0
		nop
	}
	.loc	4 870 2
	bl assert
	.loc	4 871 2
	{
		eq r0, r5, 0
		nop
	}
	{
		eq r0, r0, 0
		nop
	}
	.loc	4 871 2
	bl assert
	{
		nop
		ldw r0, r6[0]
	}
	.loc	4 873 6
.Ltmp295:
	{
		ldc r9, 0
		ldw r1, r5[0]
	}
	.loc	4 873 6
	{
		eq r1, r0, r1
		nop
	}
	bf r1, .LBB4_1
.Ltmp296:
	{
		nop
		ldw r1, r6[1]
	}
	{
		nop
		ldw r2, r5[1]
	}
	.loc	4 876 6
.Ltmp297:
	{
		eq r1, r1, r2
		nop
	}
	bf r1, .LBB4_3
.Ltmp298:
	{
		nop
		ldw r7, r6[2]
	}
.Ltmp299:
	{
		nop
		ldw r1, r5[2]
	}
	.loc	4 879 6
.Ltmp300:
	{
		eq r1, r7, r1
		nop
	}
	bf r1, .LBB4_5
.Ltmp301:
	{
		ldc r1, 6
		nop
	}
	.loc	4 882 2
	{
		lsu r1, r1, r0
		nop
	}
	bf r1, .LBB4_7
.Ltmp302:
	{
		mkmsk r4, 1
		nop
	}
	.loc	4 859 2
.Ltmp303:
	{
		mov r0, r4
		nop
	}
	bl assert
	.loc	4 860 2
	{
		mov r0, r4
		nop
	}
	bl assert
	{
		nop
		ldw r0, r6[4]
	}
	{
		nop
		ldw r1, r5[4]
	}
	bf r0, .LBB4_129
.Ltmp304:
	.loc	4 862 6
	bf r1, .LBB4_128
	.loc	4 863 10
	{
		mov r2, r7
		nop
	}
.Ltmp305:
.LBB4_28:
	.loc	4 727 10
	bl memcmp
	.loc	4 727 10
	{
		eq r4, r0, 0
		nop
	}
	bu .LBB4_130
.Ltmp306:
.LBB4_1:
	{
		mov r4, r9
		nop
	}
	bu .LBB4_130
.LBB4_3:
	{
		mov r4, r9
		nop
	}
	bu .LBB4_130
.LBB4_5:
	{
		mov r4, r9
		nop
	}
	bu .LBB4_130
.LBB4_7:
.Ltmp307:
	{
		mkmsk r8, 1
		nop
	}
	{
		mov r4, r8
		nop
	}

	.xtabranch .Ljumptable3+4,.Ljumptable3+8,.Ljumptable3+12,.Ljumptable3+16,.Ljumptable3+20,.Ljumptable3+24,.Ljumptable3+28
.Ljumptable3:
		
	{
		nop
		bru r0
	}
	.jmptable32 .LBB4_8,.LBB4_130,.LBB4_24,.LBB4_29,.LBB4_42,.LBB4_62,.LBB4_93
.Ltmp308:
.LBB4_8:
	{
		nop
		ldw r0, r6[4]
	}
	{
		nop
		ldw r1, r5[4]
	}
	.loc	4 697 6
.Ltmp309:
	{
		eq r0, r0, r1
		nop
	}
	bf r0, .LBB4_9
.Ltmp310:
	{
		nop
		ldw r0, r6[5]
	}
	{
		nop
		ldw r1, r5[5]
	}
	.loc	4 699 6
.Ltmp311:
	{
		eq r0, r0, r1
		nop
	}
	bf r0, .LBB4_11
.Ltmp312:
	{
		nop
		ldw r0, r6[6]
	}
	{
		nop
		ldw r1, r5[6]
	}
	.loc	4 701 6
.Ltmp313:
	{
		eq r0, r0, r1
		nop
	}
	bf r0, .LBB4_13
.Ltmp314:
	{
		nop
		ldw r0, r6[7]
	}
	{
		nop
		ldw r1, r5[7]
	}
	.loc	4 703 6
.Ltmp315:
	{
		eq r0, r0, r1
		nop
	}
	bf r0, .LBB4_15
.Ltmp316:
	{
		nop
		ldw r0, r6[8]
	}
	{
		nop
		ldw r1, r5[8]
	}
	.loc	4 705 6
.Ltmp317:
	{
		eq r0, r0, r1
		nop
	}
	bf r0, .LBB4_17
.Ltmp318:
	{
		nop
		ldw r0, r6[9]
	}
	{
		nop
		ldw r1, r5[9]
	}
	.loc	4 707 6
.Ltmp319:
	{
		eq r0, r0, r1
		nop
	}
	bf r0, .LBB4_19
.Ltmp320:
	{
		nop
		ldw r0, r6[10]
	}
	{
		nop
		ldw r1, r5[10]
	}
	.loc	4 709 6
.Ltmp321:
	{
		eq r0, r0, r1
		nop
	}
	bf r0, .LBB4_21
.Ltmp322:
	{
		ldc r0, 48
		nop
	}
	.loc	4 711 6
.Ltmp323:
	{
		add r1, r6, r0
		nop
	}
	.loc	4 711 6
	ldd r2, r1, r1[0]
	.loc	4 711 6
	{
		add r0, r5, r0
		nop
	}
	.loc	4 711 6
	ldd r3, r0, r0[0]
	.loc	4 711 6
	xor r2, r2, r3
	xor r0, r1, r0
	{
		or r0, r0, r2
		mov r4, r9
	}
	bt r0, .LBB4_130
.Ltmp324:
	{
		ldc r1, 56
		nop
	}
	.loc	4 713 6
.Ltmp325:
	{
		add r0, r6, r1
		add r1, r5, r1
	}
	{
		ldc r2, 16
		nop
	}
	bu .LBB4_28
.Ltmp326:
.LBB4_24:
	{
		mkmsk r4, 1
		nop
	}
	.loc	4 720 2
.Ltmp327:
	{
		mov r0, r4
		nop
	}
	bl assert
	.loc	4 721 2
	{
		mov r0, r4
		nop
	}
	bl assert
	{
		mkmsk r0, 2
		nop
	}
	.loc	4 722 2
	{
		lsu r0, r0, r7
		nop
	}
	.loc	4 722 2
	bl assert
	.loc	4 724 6
.Ltmp328:
	ldaw r4, r6[4]
	.loc	4 724 6
	ldaw r0, r5[4]
	.loc	4 724 6
	bl __misaligned_load
	{
		mov r8, r0
		mov r0, r4
	}
	bl __misaligned_load
	.loc	4 724 6
	{
		eq r0, r0, r8
		mov r4, r9
	}
	bf r0, .LBB4_130
.Ltmp329:
	{
		nop
		ldw r0, r6[5]
	}
	{
		nop
		ldw r1, r5[5]
	}
	bf r0, .LBB4_129
.Ltmp330:
	bf r1, .LBB4_128
	.loc	4 727 10
.Ltmp331:
	{
		sub r2, r7, 4
		nop
	}
	bu .LBB4_28
.Ltmp332:
.LBB4_128:
	{
		ldc r1, 0
		nop
	}
.LBB4_129:
	.loc	4 865 3
.Ltmp333:
	{
		eq r4, r0, r1
		nop
	}
.Ltmp334:
.LBB4_130:
	.loc	4 900 1
	{
		mov r0, r4
		ldw r10, sp[14]
	}
	ldd r9, r8, sp[6]
	ldd r7, r6, sp[5]
	ldd r5, r4, sp[4]
	{
		nop
		retsp 16
	}
	# RETURN_REG_HOLDER
.LBB4_29:
.Ltmp335:
	{
		mkmsk r7, 1
		nop
	}
	.loc	4 736 2
.Ltmp336:
	{
		mov r0, r7
		nop
	}
	bl assert
	.loc	4 737 2
	{
		mov r0, r7
		nop
	}
	bl assert
	{
		nop
		ldw r1, r6[4]
	}
	{
		nop
		ldw r0, r5[4]
	}
	.loc	4 739 6
.Ltmp337:
	{
		eq r0, r1, r0
		mov r4, r9
	}
	bf r0, .LBB4_130
.Ltmp338:
	{
		nop
		ldw r0, r6[5]
	}
	{
		nop
		ldw r2, r5[5]
	}
	bf r0, .LBB4_33
.Ltmp339:
	.loc	4 742 6
	bf r2, .LBB4_32
	.loc	4 743 3
.Ltmp340:
	bf r1, .LBB4_35
	{
		ldc r3, 0
		ldc r4, 0
	}
.LBB4_39:
	.loc	4 744 8
.Ltmp341:
	ldd r5, r11, r0[0]
	.loc	4 744 8
	ldd r8, r6, r2[0]
	.loc	4 744 8
	xor r5, r5, r8
	xor r11, r11, r6
	{
		or r11, r11, r5
		nop
	}
	bt r11, .LBB4_130
.Ltmp342:
	{
		add r11, r0, 8
		nop
	}
	.loc	4 746 8
.Ltmp343:
	ldd r5, r11, r11[0]
	{
		add r6, r2, 8
		nop
	}
	.loc	4 746 8
	ldd r8, r6, r6[0]
	.loc	4 746 8
	xor r5, r5, r8
	xor r11, r11, r6
	{
		or r11, r11, r5
		nop
	}
	bt r11, .LBB4_130
.Ltmp344:
	{
		nop
		ldw r11, r0[4]
	}
	{
		nop
		ldw r5, r2[4]
	}
	.loc	4 748 8
.Ltmp345:
	{
		eq r11, r11, r5
		nop
	}
	bf r11, .LBB4_130
.Ltmp346:
	.loc	4 743 39
	{
		add r3, r3, 1
		nop
	}
.Ltmp347:
	.loc	4 743 3
	ldaw r2, r2[6]
	.loc	4 743 3
	ldaw r0, r0[6]
	.loc	4 743 3
	{
		lsu r11, r3, r1
		nop
	}
	bt r11, .LBB4_39
.Ltmp348:
	{
		mov r4, r7
		nop
	}
	bu .LBB4_130
.LBB4_42:
.Ltmp349:
	{
		nop
		ldw r2, r6[4]
	}
	{
		nop
		ldw r0, r5[4]
	}
	.loc	4 761 6
.Ltmp350:
	{
		eq r0, r2, r0
		nop
	}
	bf r0, .LBB4_43
.Ltmp351:
	{
		nop
		ldw r0, r6[5]
	}
	{
		nop
		ldw r1, r5[5]
	}
	bf r0, .LBB4_47
.Ltmp352:
	.loc	4 764 6
	bf r1, .LBB4_46
.Ltmp353:
	.loc	4 765 7
	bl memcmp
	bf r0, .LBB4_51
.Ltmp354:
	{
		ldc r4, 0
		nop
	}
	bu .LBB4_130
.LBB4_62:
.Ltmp355:
	.loc	4 789 6
	ldaw r0, r6[4]
	.loc	4 789 6
	ldaw r1, r5[4]
	.loc	4 789 6
	bl strcmp
	.loc	4 789 6
	bf r0, .LBB4_64
.Ltmp356:
	{
		mov r4, r9
		nop
	}
	bu .LBB4_130
.LBB4_93:
.Ltmp357:
	{
		nop
		ldw r0, r6[4]
	}
	{
		nop
		ldw r1, r5[4]
	}
	.loc	4 836 6
.Ltmp358:
	{
		eq r0, r0, r1
		nop
	}
	bf r0, .LBB4_94
.Ltmp359:
	{
		nop
		ldw r0, r6[5]
	}
	{
		nop
		ldw r1, r5[5]
	}
	.loc	4 838 6
.Ltmp360:
	{
		eq r2, r0, r1
		nop
	}
	bt r2, .LBB4_102
.Ltmp361:
	.loc	4 838 6
	bf r0, .LBB4_97
.Ltmp362:
	bf r1, .LBB4_99
.Ltmp363:
	.loc	4 838 101
	bl strcmp
	bf r0, .LBB4_102
.Ltmp364:
	{
		mov r4, r9
		nop
	}
	bu .LBB4_130
.LBB4_9:
	{
		mov r4, r9
		nop
	}
	bu .LBB4_130
.LBB4_43:
	{
		mov r4, r9
		nop
	}
	bu .LBB4_130
.LBB4_94:
	{
		mov r4, r9
		nop
	}
	bu .LBB4_130
.LBB4_64:
.Ltmp365:
	ldc r0, 152
	.loc	4 792 6
.Ltmp366:
	{
		add r1, r6, r0
		nop
	}
	.loc	4 792 6
	ldd r2, r1, r1[0]
	.loc	4 792 6
	{
		add r0, r5, r0
		nop
	}
	.loc	4 792 6
	ldd r3, r0, r0[0]
	.loc	4 792 6
	xor r2, r2, r3
	xor r0, r1, r0
	{
		or r0, r0, r2
		nop
	}
	bt r0, .LBB4_65
.Ltmp367:
	ldc r0, 160
	.loc	4 795 6
.Ltmp368:
	{
		add r1, r6, r0
		nop
	}
	.loc	4 795 6
	{
		add r0, r5, r0
		ldw r1, r1[0]
	}
	{
		nop
		ldw r0, r0[0]
	}
	.loc	4 795 6
	{
		eq r0, r1, r0
		nop
	}
	bf r0, .LBB4_67
.Ltmp369:
	ldc r1, 164
	.loc	4 798 6
.Ltmp370:
	{
		add r4, r6, r1
		nop
	}
	.loc	4 798 6
	{
		add r1, r5, r1
		ldw r0, r4[0]
	}
	{
		nop
		ldw r1, r1[0]
	}
	.loc	4 798 6
	{
		eq r1, r0, r1
		nop
	}
	bf r1, .LBB4_69
.Ltmp371:
	ldc r2, 168
	.loc	4 801 6
.Ltmp372:
	{
		add r3, r6, r2
		nop
	}
	.loc	4 801 6
	{
		add r10, r5, r2
		ldw r1, r3[0]
	}
	{
		nop
		ldw r2, r10[0]
	}
	bf r1, .LBB4_73
.Ltmp373:
	.loc	4 801 6
	bf r2, .LBB4_72
	{
		eq r0, r0, 0
		stw r3, sp[4]
	}
	.loc	4 802 3
.Ltmp374:
	{
		eq r0, r0, 0
		nop
	}
	.loc	4 802 3
	bl assert
.Ltmp375:
	{
		nop
		ldw r0, r4[0]
	}
	{
		nop
		stw r4, sp[3]
	}
	{
		nop
		stw r0, sp[5]
	}
	bf r0, .LBB4_92
	{
		nop
		ldw r0, sp[4]
	}
	{
		nop
		ldw r0, r0[0]
	}
	{
		ldc r4, 0
		stw r0, sp[6]
	}
	{
		ldc r7, 8
		mov r5, r4
	}
.LBB4_76:
	.loc	4 804 8
.Ltmp376:
	{
		shl r6, r5, 5
		ldw r0, sp[6]
	}
	{
		add r9, r0, r6
		nop
	}
	.loc	4 804 8
	ldd r1, r0, r9[0]
	{
		nop
		ldw r2, r10[0]
	}
	{
		add r10, r2, r6
		stw r10, sp[7]
	}
	.loc	4 804 8
	ldd r3, r2, r10[0]
	.loc	4 804 8
	xor r1, r1, r3
	xor r0, r0, r2
	{
		or r0, r0, r1
		nop
	}
	bt r0, .LBB4_130
.Ltmp377:
	{
		nop
		ld8u r0, r9[r7]
	}
	{
		nop
		ld8u r1, r10[r7]
	}
	.loc	4 806 8
.Ltmp378:
	{
		eq r0, r0, r1
		nop
	}
	bf r0, .LBB4_130
.Ltmp379:
	.loc	4 808 8
	{
		add r0, r9, 9
		add r1, r10, 9
	}
	{
		ldc r2, 13
		nop
	}
	.loc	4 808 8
	bl memcmp
	bt r0, .LBB4_130
.Ltmp380:
	{
		ldc r0, 22
		nop
	}
	{
		mov r1, r0
		nop
	}
	{
		nop
		ld8u r0, r9[r1]
	}
	{
		nop
		ld8u r1, r10[r1]
	}
	.loc	4 810 8
.Ltmp381:
	xor r0, r1, r0
	.loc	4 810 8
	{
		zext r0, 2
		nop
	}
	bt r0, .LBB4_130
.Ltmp382:
	{
		ldc r0, 23
		nop
	}
	{
		mov r1, r0
		nop
	}
	{
		nop
		ld8u r0, r9[r1]
	}
	{
		nop
		ld8u r1, r10[r1]
	}
	.loc	4 814 8
.Ltmp383:
	{
		eq r1, r0, r1
		nop
	}
	bf r1, .LBB4_130
.Ltmp384:
	{
		nop
		ldw r1, r9[6]
	}
	{
		nop
		ldw r3, r10[6]
	}
	.loc	4 816 8
.Ltmp385:
	bf r1, .LBB4_82
.Ltmp386:
	.loc	4 894 11
	{
		mov r2, r4
		nop
	}
	bf r3, .LBB4_83
	.loc	4 817 5
.Ltmp387:
	{
		eq r0, r0, 0
		nop
	}
	{
		eq r0, r0, 0
		nop
	}
	.loc	4 817 5
	bl assert
.Ltmp388:
	{
		nop
		ldw r0, sp[4]
	}
	{
		nop
		ldw r0, r0[0]
	}
	.loc	4 818 5
.Ltmp389:
	{
		add r2, r0, r6
		stw r0, sp[6]
	}
	{
		ldc r0, 23
		nop
	}
	{
		nop
		ld8u r0, r2[r0]
	}
	bf r0, .LBB4_90
	{
		nop
		ldw r1, sp[7]
	}
	{
		nop
		ldw r1, r1[0]
	}
	.loc	4 819 10
.Ltmp390:
	{
		add r1, r1, r6
		nop
	}
	{
		nop
		ldw r1, r1[6]
	}
	.loc	4 819 10
	{
		mov r3, r4
		ldw r2, r2[6]
	}
.LBB4_88:
	.loc	4 819 10
	ldd r6, r11, r2[0]
	.loc	4 819 10
	ldd r10, r9, r1[0]
	.loc	4 819 10
	xor r6, r6, r10
	xor r11, r11, r9
	{
		or r11, r11, r6
		nop
	}
	bt r11, .LBB4_130
.Ltmp391:
	{
		nop
		ld8u r11, r2[r7]
	}
	{
		nop
		ld8u r6, r1[r7]
	}
	.loc	4 821 10
.Ltmp392:
	{
		eq r11, r11, r6
		nop
	}
	bf r11, .LBB4_130
.Ltmp393:
	.loc	4 818 52
	{
		add r3, r3, 1
		nop
	}
.Ltmp394:
	.loc	4 818 5
	ldaw r1, r1[4]
	.loc	4 818 5
	ldaw r2, r2[4]
	.loc	4 818 5
	{
		lsu r11, r3, r0
		nop
	}
	bt r11, .LBB4_88
.Ltmp395:
.LBB4_90:
	{
		nop
		ldw r0, sp[3]
	}
	{
		nop
		ldw r0, r0[0]
	}
	{
		nop
		stw r0, sp[5]
	}
	{
		nop
		ldw r10, sp[7]
	}
	bu .LBB4_91
.LBB4_82:
	.loc	4 894 11
	{
		mov r2, r3
		nop
	}
.LBB4_83:
	.loc	4 825 13
.Ltmp396:
	{
		eq r0, r1, r2
		ldw r10, sp[7]
	}
	bf r0, .LBB4_130
.Ltmp397:
.LBB4_91:
	.loc	4 803 39
	{
		add r5, r5, 1
		ldw r0, sp[5]
	}
.Ltmp398:
	.loc	4 803 3
	{
		lsu r0, r5, r0
		nop
	}
	bt r0, .LBB4_76
	bu .LBB4_92
.Ltmp399:
.LBB4_11:
	{
		mov r4, r9
		nop
	}
	bu .LBB4_130
.LBB4_102:
.Ltmp400:
	{
		nop
		ldw r0, r6[6]
	}
	{
		nop
		ldw r1, r5[6]
	}
	.loc	4 840 6
.Ltmp401:
	{
		eq r2, r0, r1
		nop
	}
	bt r2, .LBB4_109
.Ltmp402:
	.loc	4 840 6
	bf r0, .LBB4_104
.Ltmp403:
	bf r1, .LBB4_106
.Ltmp404:
	.loc	4 840 109
	bl strcmp
	bf r0, .LBB4_109
.Ltmp405:
	{
		mov r4, r9
		nop
	}
	bu .LBB4_130
.LBB4_65:
	{
		mov r4, r9
		nop
	}
	bu .LBB4_130
.LBB4_13:
	{
		mov r4, r9
		nop
	}
	bu .LBB4_130
.LBB4_109:
.Ltmp406:
	{
		nop
		ldw r0, r6[7]
	}
	{
		nop
		ldw r1, r5[7]
	}
	.loc	4 842 6
.Ltmp407:
	{
		eq r0, r0, r1
		nop
	}
	bf r0, .LBB4_110
.Ltmp408:
	{
		nop
		ldw r0, r6[8]
	}
	{
		nop
		ldw r1, r5[8]
	}
	.loc	4 844 6
.Ltmp409:
	{
		eq r0, r0, r1
		nop
	}
	bf r0, .LBB4_112
.Ltmp410:
	{
		nop
		ldw r0, r6[9]
	}
	{
		nop
		ldw r1, r5[9]
	}
	.loc	4 846 6
.Ltmp411:
	{
		eq r0, r0, r1
		nop
	}
	bf r0, .LBB4_114
.Ltmp412:
	{
		nop
		ldw r0, r6[10]
	}
	{
		nop
		ldw r1, r5[10]
	}
	.loc	4 848 6
.Ltmp413:
	{
		eq r0, r0, r1
		nop
	}
	bf r0, .LBB4_116
.Ltmp414:
	{
		nop
		ldw r2, r6[11]
	}
	{
		nop
		ldw r0, r5[11]
	}
	.loc	4 850 6
.Ltmp415:
	{
		eq r0, r2, r0
		nop
	}
	bf r0, .LBB4_118
.Ltmp416:
	{
		ldc r1, 48
		nop
	}
	.loc	4 852 6
.Ltmp417:
	{
		add r0, r6, r1
		nop
	}
	.loc	4 852 6
	{
		add r1, r5, r1
		ldw r0, r0[0]
	}
	{
		nop
		ldw r1, r1[0]
	}
	.loc	4 852 6
	{
		eq r3, r0, r1
		nop
	}
	bt r3, .LBB4_125
.Ltmp418:
	.loc	4 852 6
	bf r0, .LBB4_121
	bf r1, .LBB4_123
	.loc	4 852 87
	bl memcmp
	{
		mov r4, r9
		nop
	}
	bt r0, .LBB4_130
.Ltmp419:
.LBB4_125:
	{
		mov r4, r8
		nop
	}
	bu .LBB4_130
.LBB4_32:
	{
		ldc r2, 0
		nop
	}
.LBB4_33:
	.loc	4 754 3
.Ltmp420:
	{
		eq r4, r0, r2
		nop
	}
	bu .LBB4_130
.Ltmp421:
.LBB4_46:
	{
		ldc r1, 0
		nop
	}
.Ltmp422:
.LBB4_47:
	.loc	4 768 11
	{
		eq r0, r0, r1
		nop
	}
	bt r0, .LBB4_51
.Ltmp423:
	{
		mov r4, r9
		nop
	}
	bu .LBB4_130
.LBB4_51:
.Ltmp424:
	{
		nop
		ldw r7, r6[6]
	}
	{
		nop
		ldw r0, r5[6]
	}
	.loc	4 771 6
.Ltmp425:
	{
		eq r0, r7, r0
		mov r4, r9
	}
	bf r0, .LBB4_130
.Ltmp426:
	.loc	4 774 2
	bf r7, .LBB4_53
.Ltmp427:
	{
		nop
		ldw r6, r6[7]
	}
.Ltmp428:
	{
		nop
		ldw r0, r5[7]
	}
	{
		add r5, r0, 4
		ldc r4, 0
	}
.Ltmp429:
	.loc	4 892 11
	{
		mov r9, r4
		nop
	}
.LBB4_55:
	{
		nop
		ldw r0, r6[1]
	}
	{
		nop
		ldw r1, r5[0]
	}
	.loc	4 775 7
.Ltmp430:
	bf r0, .LBB4_56
.Ltmp431:
	.loc	4 892 11
	{
		mov r2, r4
		nop
	}
	bf r1, .LBB4_57
	{
		nop
		ldw r2, r6[0]
	}
	.loc	4 776 8
.Ltmp432:
	bl memcmp
	bf r0, .LBB4_60
	bu .LBB4_130
.Ltmp433:
.LBB4_56:
	.loc	4 892 11
	{
		mov r2, r1
		nop
	}
.LBB4_57:
	.loc	4 779 12
.Ltmp434:
	{
		eq r0, r0, r2
		nop
	}
	bf r0, .LBB4_130
.Ltmp435:
.LBB4_60:
	.loc	4 774 40
	{
		add r9, r9, 1
		add r6, r6, 8
	}
.Ltmp436:
	.loc	4 774 2
	{
		add r5, r5, 8
		lsu r0, r9, r7
	}
	bt r0, .LBB4_55
.Ltmp437:
	{
		mov r4, r8
		nop
	}
	bu .LBB4_130
.LBB4_67:
	{
		mov r4, r9
		nop
	}
	bu .LBB4_130
.LBB4_97:
	{
		mov r4, r9
		nop
	}
	bu .LBB4_130
.LBB4_99:
	{
		mov r4, r9
		nop
	}
	bu .LBB4_130
.LBB4_35:
	{
		mov r4, r7
		nop
	}
	bu .LBB4_130
.LBB4_15:
	{
		mov r4, r9
		nop
	}
	bu .LBB4_130
.LBB4_110:
	{
		mov r4, r9
		nop
	}
	bu .LBB4_130
.LBB4_69:
	{
		mov r4, r9
		nop
	}
	bu .LBB4_130
.LBB4_104:
	{
		mov r4, r9
		nop
	}
	bu .LBB4_130
.LBB4_106:
	{
		mov r4, r9
		nop
	}
	bu .LBB4_130
.LBB4_53:
	{
		mov r4, r8
		nop
	}
	bu .LBB4_130
.LBB4_17:
	{
		mov r4, r9
		nop
	}
	bu .LBB4_130
.LBB4_112:
	{
		mov r4, r9
		nop
	}
	bu .LBB4_130
.LBB4_19:
	{
		mov r4, r9
		nop
	}
	bu .LBB4_130
.LBB4_114:
	{
		mov r4, r9
		nop
	}
	bu .LBB4_130
.LBB4_72:
	{
		ldc r2, 0
		nop
	}
.LBB4_73:
	.loc	4 829 11
.Ltmp438:
	{
		eq r0, r1, r2
		mov r4, r9
	}
	bf r0, .LBB4_130
.Ltmp439:
.LBB4_92:
	{
		mov r4, r8
		nop
	}
	bu .LBB4_130
.LBB4_21:
	{
		mov r4, r9
		nop
	}
	bu .LBB4_130
.LBB4_116:
	{
		mov r4, r9
		nop
	}
	bu .LBB4_130
.LBB4_118:
	{
		mov r4, r9
		nop
	}
	bu .LBB4_130
.LBB4_121:
	{
		mov r4, r9
		nop
	}
	bu .LBB4_130
.LBB4_123:
	{
		mov r4, r9
		nop
	}
	bu .LBB4_130
	.cc_bottom FLAC__metadata_object_is_equal.function
	.set	FLAC__metadata_object_is_equal.nstackwords,((__misaligned_load.nstackwords $M assert.nstackwords $M memcmp.nstackwords $M strcmp.nstackwords) + 16)
	.globl	FLAC__metadata_object_is_equal.nstackwords
	.set	FLAC__metadata_object_is_equal.maxcores,memcmp.maxcores $M strcmp.maxcores $M 1
	.globl	FLAC__metadata_object_is_equal.maxcores
	.set	FLAC__metadata_object_is_equal.maxtimers,memcmp.maxtimers $M strcmp.maxtimers $M 0
	.globl	FLAC__metadata_object_is_equal.maxtimers
	.set	FLAC__metadata_object_is_equal.maxchanends,memcmp.maxchanends $M strcmp.maxchanends $M 0
	.globl	FLAC__metadata_object_is_equal.maxchanends
.Ltmp440:
	.size	FLAC__metadata_object_is_equal, .Ltmp440-FLAC__metadata_object_is_equal
.Lfunc_end4:
	.cfi_endproc

	.globl	FLAC__metadata_object_application_set_data
	.align	4
	.type	FLAC__metadata_object_application_set_data,@function
	.cc_top FLAC__metadata_object_application_set_data.function,FLAC__metadata_object_application_set_data
FLAC__metadata_object_application_set_data:
.Lfunc_begin5:
	.loc	4 903 0
	.cfi_startproc
	.issue_mode dual
	{
		nop
		dualentsp 8
	}
.Ltmp441:
	.cfi_def_cfa_offset 32
.Ltmp442:
	.cfi_offset 15, 0
	std r5, r4, sp[1]
.Ltmp443:
	.cfi_offset 4, -24
.Ltmp444:
	.cfi_offset 5, -20
	std r7, r6, sp[2]
.Ltmp445:
	.cfi_offset 6, -16
.Ltmp446:
	.cfi_offset 7, -12
	std r9, r8, sp[3]
.Ltmp447:
	.cfi_offset 8, -8
.Ltmp448:
	.cfi_offset 9, -4
.Ltmp449:
	{
		mov r7, r3
		mov r4, r2
	}
.Ltmp450:
	{
		mov r6, r1
		mov r5, r0
	}
.Ltmp451:
	.loc	4 906 2 prologue_end
	{
		eq r0, r5, 0
		nop
	}
	{
		eq r0, r0, 0
		nop
	}
	.loc	4 906 2
	bl assert
	{
		nop
		ldw r0, r5[0]
	}
	.loc	4 907 2
	{
		eq r0, r0, 2
		nop
	}
	.loc	4 907 2
	bl assert
	.loc	4 908 2
	{
		eq r0, r6, 0
		nop
	}
	{
		eq r0, r0, 0
		eq r1, r4, 0
	}
	.loc	4 908 2
	{
		eq r1, r1, 0
		nop
	}
	.loc	4 908 2
	{
		and r9, r0, r1
		nop
	}
	.loc	4 908 2
	bf r9, .LBB5_2
.Ltmp452:
	{
		mkmsk r0, 1
		nop
	}
	bu .LBB5_3
.Ltmp453:
.LBB5_2:
	.loc	4 908 2
	{
		or r0, r7, r4
		nop
	}
	.loc	4 908 2
	{
		or r0, r0, r6
		nop
	}
	.loc	4 908 2
	{
		eq r0, r0, 0
		nop
	}
.Ltmp454:
.LBB5_3:
	.loc	4 908 2
	bl assert
	{
		nop
		ldw r8, r5[5]
	}
.Ltmp455:
	.loc	4 913 6
	bf r7, .LBB5_4
.Ltmp456:
	{
		mkmsk r0, 1
		nop
	}
	.loc	4 67 2
.Ltmp457:
	bl assert
	.loc	4 68 6
.Ltmp458:
	bf r9, .LBB5_6
.Ltmp459:
	.loc	5 95 9
	{
		mov r0, r4
		nop
	}
	bl malloc
	{
		mov r7, r0
		nop
	}
.Ltmp460:
	.loc	4 70 12
	bf r7, .LBB5_8
.Ltmp461:
	.loc	4 72 3
	{
		mov r0, r7
		mov r1, r6
	}
	{
		mov r2, r4
		nop
	}
	bl memcpy
	bu .LBB5_10
.Ltmp462:
.LBB5_4:
	{
		mov r7, r6
		nop
	}
.Ltmp463:
	bu .LBB5_10
.Ltmp464:
.LBB5_6:
	{
		ldc r7, 0
		nop
	}
.Ltmp465:
.LBB5_10:
	.loc	4 918 3
	{
		mov r0, r8
		stw r7, r5[5]
	}
.Ltmp466:
	.loc	4 921 2
	bl free
	.loc	4 923 2
	ldw r0, cp[FLAC__STREAM_METADATA_APPLICATION_ID_LEN]
	.loc	4 923 2
	{
		shr r0, r0, 3
		nop
	}
	.loc	4 923 2
	{
		add r0, r0, r4
		nop
	}
	.loc	4 923 2
	{
		mkmsk r0, 1
		stw r0, r5[2]
	}
.Ltmp467:
.LBB5_11:
	.loc	4 925 1
	ldd r9, r8, sp[3]
	ldd r7, r6, sp[2]
	ldd r5, r4, sp[1]
	{
		nop
		retsp 8
	}
	# RETURN_REG_HOLDER
.Ltmp468:
.LBB5_8:
	{
		ldc r0, 0
		nop
	}
	bu .LBB5_11
	.cc_bottom FLAC__metadata_object_application_set_data.function
	.set	FLAC__metadata_object_application_set_data.nstackwords,((free.nstackwords $M assert.nstackwords $M malloc.nstackwords $M memcpy.nstackwords) + 8)
	.globl	FLAC__metadata_object_application_set_data.nstackwords
	.set	FLAC__metadata_object_application_set_data.maxcores,free.maxcores $M malloc.maxcores $M 1
	.globl	FLAC__metadata_object_application_set_data.maxcores
	.set	FLAC__metadata_object_application_set_data.maxtimers,free.maxtimers $M malloc.maxtimers $M 0
	.globl	FLAC__metadata_object_application_set_data.maxtimers
	.set	FLAC__metadata_object_application_set_data.maxchanends,free.maxchanends $M malloc.maxchanends $M 0
	.globl	FLAC__metadata_object_application_set_data.maxchanends
.Ltmp469:
	.size	FLAC__metadata_object_application_set_data, .Ltmp469-FLAC__metadata_object_application_set_data
.Lfunc_end5:
	.cfi_endproc

	.section	.cp.rodata.cst4,"aMc",@progbits,4
	.cc_top .LCPI6_0.data,.LCPI6_0
	.align	4
	.type	.LCPI6_0,@object
	.size	.LCPI6_0, 4
.LCPI6_0:
	.long	178956970
	.cc_bottom .LCPI6_0.data
	.text
	.globl	FLAC__metadata_object_seektable_resize_points
	.align	4
	.type	FLAC__metadata_object_seektable_resize_points,@function
	.cc_top FLAC__metadata_object_seektable_resize_points.function,FLAC__metadata_object_seektable_resize_points
FLAC__metadata_object_seektable_resize_points:
.Lfunc_begin6:
	.loc	4 928 0
	.cfi_startproc
	.issue_mode dual
	{
		nop
		dualentsp 10
	}
.Ltmp470:
	.cfi_def_cfa_offset 40
.Ltmp471:
	.cfi_offset 15, 0
	std r5, r4, sp[1]
.Ltmp472:
	.cfi_offset 4, -32
.Ltmp473:
	.cfi_offset 5, -28
	std r7, r6, sp[2]
.Ltmp474:
	.cfi_offset 6, -24
.Ltmp475:
	.cfi_offset 7, -20
	std r9, r8, sp[3]
.Ltmp476:
	.cfi_offset 8, -16
.Ltmp477:
	.cfi_offset 9, -12
.Ltmp478:
	.cfi_offset 10, -8
.Ltmp479:
	{
		mov r5, r1
		stw r10, sp[8]
	}
.Ltmp480:
	{
		mov r4, r0
		nop
	}
.Ltmp481:
	.loc	4 929 2 prologue_end
	{
		eq r0, r4, 0
		nop
	}
	{
		eq r6, r0, 0
		nop
	}
	.loc	4 929 2
	{
		mov r0, r6
		nop
	}
	bl assert
	{
		nop
		ldw r0, r4[0]
	}
	.loc	4 930 2
	{
		eq r0, r0, 3
		nop
	}
	.loc	4 930 2
	bl assert
	{
		nop
		ldw r1, r4[5]
	}
	{
		nop
		ldw r0, r4[4]
	}
	.loc	4 932 6
.Ltmp482:
	bf r1, .LBB6_1
.Ltmp483:
	ldw r1, cp[.LCPI6_0]
	.loc	4 944 7
.Ltmp484:
	{
		lsu r1, r1, r5
		ldc r7, 0
	}
	bt r1, .LBB6_17
.Ltmp485:
	{
		ldc r9, 24
		nop
	}
	.loc	4 940 3
	mul r10, r0, r9
.Ltmp486:
	.loc	4 941 3
	mul r8, r5, r9
.Ltmp487:
	.loc	4 947 3
	{
		eq r0, r0, 0
		nop
	}
	{
		eq r0, r0, 0
		nop
	}
	.loc	4 947 3
	bl assert
	{
		nop
		ldw r0, r4[5]
	}
	.loc	4 949 7
.Ltmp488:
	bf r8, .LBB6_9
.Ltmp489:
	.loc	4 956 18
	{
		mov r1, r8
		nop
	}
	bl realloc
	bt r0, .LBB6_11
	bu .LBB6_17
.Ltmp490:
.LBB6_1:
	.loc	4 933 3
	{
		eq r0, r0, 0
		nop
	}
	.loc	4 933 3
	bl assert
	bf r5, .LBB6_16
.Ltmp491:
	{
		mkmsk r0, 1
		nop
	}
	.loc	4 177 2
.Ltmp492:
	bl assert
.Ltmp493:
	{
		ldc r1, 24
		mov r0, r5
	}
	.loc	4 179 17
	bl safe_malloc_mul_2op_p
	.loc	4 181 6
.Ltmp494:
	bf r0, .LBB6_6
.Ltmp495:
	.loc	4 184 4
	ldaw r11, cp[FLAC__STREAM_METADATA_SEEKPOINT_PLACEHOLDER]
	ldd r2, r1, r11[0]
	{
		ldc r3, 0
		mov r11, r0
	}
	{
		mov r7, r5
		nop
	}
.Ltmp496:
.LBB6_4:
	.loc	4 184 4
	std r2, r1, r11[0]
	{
		add r8, r11, 8
		nop
	}
	.loc	4 185 4
	std r3, r3, r8[0]
	.loc	4 186 4
	{
		sub r7, r7, 1
		stw r3, r11[4]
	}
.Ltmp497:
	.loc	4 183 3
	ldaw r11, r11[6]
	.loc	4 183 3
	bt r7, .LBB6_4
.Ltmp498:
	{
		nop
		stw r0, r4[5]
	}
	bu .LBB6_15
.Ltmp499:
.LBB6_9:
	.loc	4 950 4
	bl free
	{
		ldc r0, 0
		nop
	}
.Ltmp500:
.LBB6_11:
	.loc	4 951 4
	{
		lsu r1, r10, r8
		stw r0, r4[5]
	}
	bf r1, .LBB6_15
.Ltmp501:
	{
		nop
		ldw r7, r4[4]
	}
.Ltmp502:
	.loc	4 964 4
	{
		lsu r1, r7, r5
		nop
	}
	bf r1, .LBB6_15
.Ltmp503:
	.loc	4 965 5
	ldaw r11, cp[FLAC__STREAM_METADATA_SEEKPOINT_PLACEHOLDER]
	ldd r2, r1, r11[0]
.Ltmp504:
	.loc	4 964 4
	{
		sub r3, r5, r7
		nop
	}
	mul r11, r7, r9
	{
		add r0, r0, r11
		ldc r11, 0
	}
.Ltmp505:
.LBB6_14:
	.loc	4 965 5
	std r2, r1, r0[0]
	{
		add r7, r0, 8
		nop
	}
	.loc	4 966 5
	std r11, r11, r7[0]
	.loc	4 967 5
	{
		sub r3, r3, 1
		stw r11, r0[4]
	}
.Ltmp506:
	.loc	4 964 4
	ldaw r0, r0[6]
	bt r3, .LBB6_14
.Ltmp507:
.LBB6_15:
	.loc	4 972 2
	{
		mov r0, r6
		stw r5, r4[4]
	}
	.loc	4 167 2
.Ltmp508:
	bl assert
	{
		nop
		ldw r0, r4[0]
	}
	.loc	4 168 2
	{
		eq r0, r0, 3
		nop
	}
	.loc	4 168 2
	bl assert
	.loc	4 170 2
	{
		ldc r1, 18
		ldw r0, r4[4]
	}
	.loc	4 170 2
	mul r0, r0, r1
	{
		nop
		stw r0, r4[2]
	}
.Ltmp509:
.LBB6_16:
	{
		mkmsk r7, 1
		nop
	}
.LBB6_17:
	.loc	4 976 1
	{
		mov r0, r7
		ldw r10, sp[8]
	}
	ldd r9, r8, sp[3]
	ldd r7, r6, sp[2]
	ldd r5, r4, sp[1]
	{
		nop
		retsp 10
	}
	# RETURN_REG_HOLDER
.LBB6_6:
.Ltmp510:
	.loc	4 936 46
	{
		ldc r7, 0
		stw r0, r4[5]
	}
	bu .LBB6_17
.Ltmp511:
	.cc_bottom FLAC__metadata_object_seektable_resize_points.function
	.set	FLAC__metadata_object_seektable_resize_points.nstackwords,((safe_malloc_mul_2op_p.nstackwords $M assert.nstackwords $M free.nstackwords $M realloc.nstackwords) + 10)
	.globl	FLAC__metadata_object_seektable_resize_points.nstackwords
	.set	FLAC__metadata_object_seektable_resize_points.maxcores,free.maxcores $M realloc.maxcores $M safe_malloc_mul_2op_p.maxcores $M 1
	.globl	FLAC__metadata_object_seektable_resize_points.maxcores
	.set	FLAC__metadata_object_seektable_resize_points.maxtimers,free.maxtimers $M realloc.maxtimers $M safe_malloc_mul_2op_p.maxtimers $M 0
	.globl	FLAC__metadata_object_seektable_resize_points.maxtimers
	.set	FLAC__metadata_object_seektable_resize_points.maxchanends,free.maxchanends $M realloc.maxchanends $M safe_malloc_mul_2op_p.maxchanends $M 0
	.globl	FLAC__metadata_object_seektable_resize_points.maxchanends
.Ltmp512:
	.size	FLAC__metadata_object_seektable_resize_points, .Ltmp512-FLAC__metadata_object_seektable_resize_points
.Lfunc_end6:
	.cfi_endproc

	.globl	FLAC__metadata_object_seektable_set_point
	.align	4
	.type	FLAC__metadata_object_seektable_set_point,@function
	.cc_top FLAC__metadata_object_seektable_set_point.function,FLAC__metadata_object_seektable_set_point
FLAC__metadata_object_seektable_set_point:
.Lfunc_begin7:
	.loc	4 979 0
	.cfi_startproc
	.issue_mode dual
	{
		nop
		dualentsp 12
	}
.Ltmp513:
	.cfi_def_cfa_offset 48
.Ltmp514:
	.cfi_offset 15, 0
	std r5, r4, sp[4]
.Ltmp515:
	.cfi_offset 4, -16
.Ltmp516:
	.cfi_offset 5, -12
	std r7, r6, sp[5]
.Ltmp517:
	.cfi_offset 6, -8
.Ltmp518:
	.cfi_offset 7, -4
.Ltmp519:
	{
		mov r6, r1
		mov r7, r0
	}
.Ltmp520:
	{
		ldaw r4, sp[2]
		ldc r5, 24
	}
	{
		mov r0, r4
		mov r1, r2
	}
	{
		mov r2, r5
		nop
	}
	bl __memcpy_4
	.loc	4 980 2 prologue_end
.Ltmp521:
	{
		eq r0, r7, 0
		nop
	}
	{
		eq r0, r0, 0
		nop
	}
	.loc	4 980 2
	bl assert
	{
		nop
		ldw r0, r7[0]
	}
	.loc	4 981 2
	{
		eq r0, r0, 3
		nop
	}
	.loc	4 981 2
	bl assert
	{
		nop
		ldw r0, r7[4]
	}
	.loc	4 982 2
	{
		lsu r0, r6, r0
		nop
	}
	.loc	4 982 2
	bl assert
	{
		nop
		ldw r0, r7[5]
	}
	.loc	4 984 2
	mul r1, r6, r5
	{
		add r0, r0, r1
		mov r1, r4
	}
	.loc	4 984 2
	{
		mov r2, r5
		nop
	}
	bl __memcpy_4
	.loc	4 985 1
	ldd r7, r6, sp[5]
	ldd r5, r4, sp[4]
	{
		nop
		retsp 12
	}
.Ltmp522:
	# RETURN_REG_HOLDER
.Ltmp523:
	.cc_bottom FLAC__metadata_object_seektable_set_point.function
	.set	FLAC__metadata_object_seektable_set_point.nstackwords,((assert.nstackwords $M __memcpy_4.nstackwords) + 12)
	.globl	FLAC__metadata_object_seektable_set_point.nstackwords
	.set	FLAC__metadata_object_seektable_set_point.maxcores,1
	.globl	FLAC__metadata_object_seektable_set_point.maxcores
	.set	FLAC__metadata_object_seektable_set_point.maxtimers,0
	.globl	FLAC__metadata_object_seektable_set_point.maxtimers
	.set	FLAC__metadata_object_seektable_set_point.maxchanends,0
	.globl	FLAC__metadata_object_seektable_set_point.maxchanends
.Ltmp524:
	.size	FLAC__metadata_object_seektable_set_point, .Ltmp524-FLAC__metadata_object_seektable_set_point
.Lfunc_end7:
	.cfi_endproc

	.section	.cp.rodata.cst4,"aMc",@progbits,4
	.cc_top .LCPI8_0.data,.LCPI8_0
	.align	4
	.type	.LCPI8_0,@object
	.size	.LCPI8_0, 4
.LCPI8_0:
	.long	4294967248
	.cc_bottom .LCPI8_0.data
	.text
	.globl	FLAC__metadata_object_seektable_insert_point
	.align	4
	.type	FLAC__metadata_object_seektable_insert_point,@function
	.cc_top FLAC__metadata_object_seektable_insert_point.function,FLAC__metadata_object_seektable_insert_point
FLAC__metadata_object_seektable_insert_point:
.Lfunc_begin8:
	.loc	4 988 0
	.cfi_startproc
	.issue_mode dual
	{
		nop
		dualentsp 16
	}
.Ltmp525:
	.cfi_def_cfa_offset 64
.Ltmp526:
	.cfi_offset 15, 0
	std r5, r4, sp[4]
.Ltmp527:
	.cfi_offset 4, -32
.Ltmp528:
	.cfi_offset 5, -28
	std r7, r6, sp[5]
.Ltmp529:
	.cfi_offset 6, -24
.Ltmp530:
	.cfi_offset 7, -20
	std r9, r8, sp[6]
.Ltmp531:
	.cfi_offset 8, -16
.Ltmp532:
	.cfi_offset 9, -12
.Ltmp533:
	.cfi_offset 10, -8
.Ltmp534:
	{
		mov r7, r1
		stw r10, sp[14]
	}
.Ltmp535:
	{
		mov r4, r0
		ldaw r5, sp[2]
	}
.Ltmp536:
	{
		ldc r6, 24
		mov r0, r5
	}
	{
		mov r1, r2
		mov r2, r6
	}
	bl __memcpy_4
	.loc	4 991 2 prologue_end
.Ltmp537:
	{
		eq r0, r4, 0
		nop
	}
	{
		eq r8, r0, 0
		nop
	}
	.loc	4 991 2
	{
		mov r0, r8
		nop
	}
	bl assert
	{
		nop
		ldw r0, r4[0]
	}
	.loc	4 992 2
	{
		eq r0, r0, 3
		nop
	}
	.loc	4 992 2
	bl assert
	{
		nop
		ldw r0, r4[4]
	}
	.loc	4 993 2
	{
		lsu r0, r0, r7
		nop
	}
	{
		eq r0, r0, 0
		nop
	}
	.loc	4 993 2
	bl assert
	{
		nop
		ldw r0, r4[4]
	}
	.loc	4 995 7
.Ltmp538:
	{
		add r1, r0, 1
		mov r0, r4
	}
	.loc	4 995 7
	bl FLAC__metadata_object_seektable_resize_points
	.loc	4 995 7
	bf r0, .LBB8_1
.Ltmp539:
	{
		nop
		ldw r0, r4[4]
	}
	.loc	4 999 7
.Ltmp540:
	{
		sub r9, r0, 1
		nop
	}
	.loc	4 999 2
.Ltmp541:
	{
		lss r1, r7, r9
		nop
	}
	bf r1, .LBB8_5
.Ltmp542:
	.loc	4 1000 3
	mul r0, r0, r6
	ldw r1, cp[.LCPI8_0]
	.loc	4 1000 3
	{
		add r10, r0, r1
		nop
	}
.Ltmp543:
.LBB8_4:
	{
		nop
		ldw r0, r4[5]
	}
	{
		add r1, r0, r10
		nop
	}
	ldaw r0, r1[6]
	.loc	4 1000 3
	{
		mov r2, r6
		nop
	}
	bl __memcpy_4
.Ltmp544:
	.loc	4 999 7
	{
		sub r9, r9, 1
		nop
	}
	.loc	4 999 2
.Ltmp545:
	ldaw r10, r10[-6]
	.loc	4 999 2
	{
		lss r0, r7, r9
		nop
	}
	bt r0, .LBB8_4
.Ltmp546:
.LBB8_5:
	.loc	4 980 2
	{
		mov r0, r8
		nop
	}
	bl assert
	{
		nop
		ldw r0, r4[0]
	}
	.loc	4 981 2
	{
		eq r0, r0, 3
		nop
	}
	.loc	4 981 2
	bl assert
	{
		nop
		ldw r0, r4[4]
	}
	.loc	4 982 2
	{
		lsu r0, r7, r0
		nop
	}
	.loc	4 982 2
	bl assert
	{
		nop
		ldw r0, r4[5]
	}
	.loc	4 984 2
	mul r1, r7, r6
	{
		add r0, r0, r1
		mov r1, r5
	}
	.loc	4 984 2
	{
		mov r2, r6
		nop
	}
	bl memcpy
.Ltmp547:
	.loc	4 167 2
	{
		mov r0, r8
		nop
	}
	bl assert
	{
		nop
		ldw r0, r4[0]
	}
	.loc	4 168 2
	{
		eq r0, r0, 3
		nop
	}
	.loc	4 168 2
	bl assert
	.loc	4 170 2
	{
		ldc r1, 18
		ldw r0, r4[4]
	}
	.loc	4 170 2
	mul r0, r0, r1
	.loc	4 170 2
	{
		mkmsk r0, 1
		stw r0, r4[2]
	}
	bu .LBB8_6
.Ltmp548:
.LBB8_1:
	{
		ldc r0, 0
		nop
	}
.Ltmp549:
.LBB8_6:
	{
		nop
		ldw r10, sp[14]
	}
	.loc	4 1005 1
	ldd r9, r8, sp[6]
	ldd r7, r6, sp[5]
	ldd r5, r4, sp[4]
	{
		nop
		retsp 16
	}
.Ltmp550:
	# RETURN_REG_HOLDER
.Ltmp551:
	.cc_bottom FLAC__metadata_object_seektable_insert_point.function
	.set	FLAC__metadata_object_seektable_insert_point.nstackwords,((FLAC__metadata_object_seektable_resize_points.nstackwords $M __memcpy_4.nstackwords $M memcpy.nstackwords $M assert.nstackwords) + 16)
	.globl	FLAC__metadata_object_seektable_insert_point.nstackwords
	.set	FLAC__metadata_object_seektable_insert_point.maxcores,FLAC__metadata_object_seektable_resize_points.maxcores $M 1
	.globl	FLAC__metadata_object_seektable_insert_point.maxcores
	.set	FLAC__metadata_object_seektable_insert_point.maxtimers,FLAC__metadata_object_seektable_resize_points.maxtimers $M 0
	.globl	FLAC__metadata_object_seektable_insert_point.maxtimers
	.set	FLAC__metadata_object_seektable_insert_point.maxchanends,FLAC__metadata_object_seektable_resize_points.maxchanends $M 0
	.globl	FLAC__metadata_object_seektable_insert_point.maxchanends
.Ltmp552:
	.size	FLAC__metadata_object_seektable_insert_point, .Ltmp552-FLAC__metadata_object_seektable_insert_point
.Lfunc_end8:
	.cfi_endproc

	.globl	FLAC__metadata_object_seektable_delete_point
	.align	4
	.type	FLAC__metadata_object_seektable_delete_point,@function
	.cc_top FLAC__metadata_object_seektable_delete_point.function,FLAC__metadata_object_seektable_delete_point
FLAC__metadata_object_seektable_delete_point:
.Lfunc_begin9:
	.loc	4 1008 0
	.cfi_startproc
	.issue_mode dual
	{
		nop
		dualentsp 6
	}
.Ltmp553:
	.cfi_def_cfa_offset 24
.Ltmp554:
	.cfi_offset 15, 0
	std r5, r4, sp[1]
.Ltmp555:
	.cfi_offset 4, -16
.Ltmp556:
	.cfi_offset 5, -12
	std r7, r6, sp[2]
.Ltmp557:
	.cfi_offset 6, -8
.Ltmp558:
	.cfi_offset 7, -4
.Ltmp559:
	{
		mov r5, r1
		mov r4, r0
	}
.Ltmp560:
	.loc	4 1011 2 prologue_end
	{
		eq r0, r4, 0
		nop
	}
	{
		eq r0, r0, 0
		nop
	}
	.loc	4 1011 2
	bl assert
	{
		nop
		ldw r0, r4[0]
	}
	.loc	4 1012 2
	{
		eq r0, r0, 3
		nop
	}
	.loc	4 1012 2
	bl assert
	{
		nop
		ldw r0, r4[4]
	}
	.loc	4 1013 2
	{
		lsu r0, r5, r0
		nop
	}
	.loc	4 1013 2
	bl assert
	{
		nop
		ldw r0, r4[4]
	}
	.loc	4 1016 2
.Ltmp561:
	{
		sub r1, r0, 1
		nop
	}
	.loc	4 1016 2
	{
		lsu r0, r5, r1
		nop
	}
	bf r0, .LBB9_3
.Ltmp562:
	{
		ldc r6, 24
		nop
	}
	.loc	4 1016 2
	mul r7, r5, r6
.Ltmp563:
.LBB9_2:
	.loc	4 1017 3
	{
		add r5, r5, 1
		ldw r0, r4[5]
	}
.Ltmp564:
	{
		add r0, r0, r7
		nop
	}
	ldaw r1, r0[6]
	.loc	4 1017 3
	{
		mov r2, r6
		nop
	}
	bl __memcpy_4
	{
		nop
		ldw r0, r4[4]
	}
	.loc	4 1016 2
	{
		sub r1, r0, 1
		nop
	}
	.loc	4 1016 2
	ldaw r7, r7[6]
	.loc	4 1016 2
	{
		lsu r0, r5, r1
		nop
	}
	bt r0, .LBB9_2
.Ltmp565:
.LBB9_3:
	.loc	4 1019 9
	{
		mov r0, r4
		nop
	}
	bl FLAC__metadata_object_seektable_resize_points
	.loc	4 1019 9
	ldd r7, r6, sp[2]
	ldd r5, r4, sp[1]
.Ltmp566:
	{
		nop
		retsp 6
	}
	# RETURN_REG_HOLDER
.Ltmp567:
	.cc_bottom FLAC__metadata_object_seektable_delete_point.function
	.set	FLAC__metadata_object_seektable_delete_point.nstackwords,((assert.nstackwords $M __memcpy_4.nstackwords $M FLAC__metadata_object_seektable_resize_points.nstackwords) + 6)
	.globl	FLAC__metadata_object_seektable_delete_point.nstackwords
	.set	FLAC__metadata_object_seektable_delete_point.maxcores,FLAC__metadata_object_seektable_resize_points.maxcores $M 1
	.globl	FLAC__metadata_object_seektable_delete_point.maxcores
	.set	FLAC__metadata_object_seektable_delete_point.maxtimers,FLAC__metadata_object_seektable_resize_points.maxtimers $M 0
	.globl	FLAC__metadata_object_seektable_delete_point.maxtimers
	.set	FLAC__metadata_object_seektable_delete_point.maxchanends,FLAC__metadata_object_seektable_resize_points.maxchanends $M 0
	.globl	FLAC__metadata_object_seektable_delete_point.maxchanends
.Ltmp568:
	.size	FLAC__metadata_object_seektable_delete_point, .Ltmp568-FLAC__metadata_object_seektable_delete_point
.Lfunc_end9:
	.cfi_endproc

	.globl	FLAC__metadata_object_seektable_is_legal
	.align	4
	.type	FLAC__metadata_object_seektable_is_legal,@function
	.cc_top FLAC__metadata_object_seektable_is_legal.function,FLAC__metadata_object_seektable_is_legal
FLAC__metadata_object_seektable_is_legal:
.Lfunc_begin10:
	.loc	4 1023 0
	.cfi_startproc
	.issue_mode dual
	{
		nop
		dualentsp 4
	}
.Ltmp569:
	.cfi_def_cfa_offset 16
.Ltmp570:
	.cfi_offset 15, 0
.Ltmp571:
	.cfi_offset 4, -8
.Ltmp572:
	{
		mov r4, r0
		stw r4, sp[2]
	}
.Ltmp573:
	.loc	4 1024 2 prologue_end
	{
		eq r0, r4, 0
		nop
	}
	{
		eq r0, r0, 0
		nop
	}
	.loc	4 1024 2
	bl assert
	{
		nop
		ldw r0, r4[0]
	}
	.loc	4 1025 2
	{
		eq r0, r0, 3
		nop
	}
	.loc	4 1025 2
	bl assert
	.loc	4 1027 9
	ldaw r0, r4[4]
	.loc	4 1027 9
	bl FLAC__format_seektable_is_legal
	{
		nop
		ldw r4, sp[2]
	}
	{
		nop
		retsp 4
	}
	.loc	4 1027 9
	# RETURN_REG_HOLDER
.Ltmp574:
	.cc_bottom FLAC__metadata_object_seektable_is_legal.function
	.set	FLAC__metadata_object_seektable_is_legal.nstackwords,((assert.nstackwords $M FLAC__format_seektable_is_legal.nstackwords) + 4)
	.globl	FLAC__metadata_object_seektable_is_legal.nstackwords
	.set	FLAC__metadata_object_seektable_is_legal.maxcores,FLAC__format_seektable_is_legal.maxcores $M 1
	.globl	FLAC__metadata_object_seektable_is_legal.maxcores
	.set	FLAC__metadata_object_seektable_is_legal.maxtimers,FLAC__format_seektable_is_legal.maxtimers $M 0
	.globl	FLAC__metadata_object_seektable_is_legal.maxtimers
	.set	FLAC__metadata_object_seektable_is_legal.maxchanends,FLAC__format_seektable_is_legal.maxchanends $M 0
	.globl	FLAC__metadata_object_seektable_is_legal.maxchanends
.Ltmp575:
	.size	FLAC__metadata_object_seektable_is_legal, .Ltmp575-FLAC__metadata_object_seektable_is_legal
.Lfunc_end10:
	.cfi_endproc

	.globl	FLAC__metadata_object_seektable_template_append_placeholders
	.align	4
	.type	FLAC__metadata_object_seektable_template_append_placeholders,@function
	.cc_top FLAC__metadata_object_seektable_template_append_placeholders.function,FLAC__metadata_object_seektable_template_append_placeholders
FLAC__metadata_object_seektable_template_append_placeholders:
.Lfunc_begin11:
	.loc	4 1031 0
	.cfi_startproc
	.issue_mode dual
	{
		nop
		dualentsp 4
	}
.Ltmp576:
	.cfi_def_cfa_offset 16
.Ltmp577:
	.cfi_offset 15, 0
	std r5, r4, sp[1]
.Ltmp578:
	.cfi_offset 4, -8
.Ltmp579:
	.cfi_offset 5, -4
.Ltmp580:
	{
		mov r5, r1
		mov r4, r0
	}
.Ltmp581:
	.loc	4 1032 2 prologue_end
	{
		eq r0, r4, 0
		nop
	}
	{
		eq r0, r0, 0
		nop
	}
	.loc	4 1032 2
	bl assert
	{
		nop
		ldw r0, r4[0]
	}
	.loc	4 1033 2
	{
		eq r0, r0, 3
		nop
	}
	.loc	4 1033 2
	bl assert
	.loc	4 1035 6
.Ltmp582:
	bf r5, .LBB11_1
.Ltmp583:
	{
		nop
		ldw r0, r4[4]
	}
	.loc	4 1037 10
	{
		add r1, r0, r5
		mov r0, r4
	}
	.loc	4 1037 10
	bl FLAC__metadata_object_seektable_resize_points
	bu .LBB11_3
.Ltmp584:
.LBB11_1:
	{
		mkmsk r0, 1
		nop
	}
.LBB11_3:
	.loc	4 1040 1
	ldd r5, r4, sp[1]
	{
		nop
		retsp 4
	}
	# RETURN_REG_HOLDER
.Ltmp585:
	.cc_bottom FLAC__metadata_object_seektable_template_append_placeholders.function
	.set	FLAC__metadata_object_seektable_template_append_placeholders.nstackwords,((assert.nstackwords $M FLAC__metadata_object_seektable_resize_points.nstackwords) + 4)
	.globl	FLAC__metadata_object_seektable_template_append_placeholders.nstackwords
	.set	FLAC__metadata_object_seektable_template_append_placeholders.maxcores,FLAC__metadata_object_seektable_resize_points.maxcores $M 1
	.globl	FLAC__metadata_object_seektable_template_append_placeholders.maxcores
	.set	FLAC__metadata_object_seektable_template_append_placeholders.maxtimers,FLAC__metadata_object_seektable_resize_points.maxtimers $M 0
	.globl	FLAC__metadata_object_seektable_template_append_placeholders.maxtimers
	.set	FLAC__metadata_object_seektable_template_append_placeholders.maxchanends,FLAC__metadata_object_seektable_resize_points.maxchanends $M 0
	.globl	FLAC__metadata_object_seektable_template_append_placeholders.maxchanends
.Ltmp586:
	.size	FLAC__metadata_object_seektable_template_append_placeholders, .Ltmp586-FLAC__metadata_object_seektable_template_append_placeholders
.Lfunc_end11:
	.cfi_endproc

	.globl	FLAC__metadata_object_seektable_template_append_point
	.align	4
	.type	FLAC__metadata_object_seektable_template_append_point,@function
	.cc_top FLAC__metadata_object_seektable_template_append_point.function,FLAC__metadata_object_seektable_template_append_point
FLAC__metadata_object_seektable_template_append_point:
.Lfunc_begin12:
	.loc	4 1043 0
	.cfi_startproc
	.issue_mode dual
	{
		nop
		dualentsp 6
	}
.Ltmp587:
	.cfi_def_cfa_offset 24
.Ltmp588:
	.cfi_offset 15, 0
	std r5, r4, sp[1]
.Ltmp589:
	.cfi_offset 4, -16
.Ltmp590:
	.cfi_offset 5, -12
.Ltmp591:
	.cfi_offset 6, -8
	{
		mov r4, r2
		stw r6, sp[4]
	}
.Ltmp592:
	{
		mov r5, r1
		mov r6, r0
	}
.Ltmp593:
	.loc	4 1046 2 prologue_end
	{
		eq r0, r6, 0
		nop
	}
	{
		eq r0, r0, 0
		nop
	}
	.loc	4 1046 2
	bl assert
	{
		nop
		ldw r0, r6[0]
	}
	.loc	4 1047 2
	{
		eq r0, r0, 3
		nop
	}
	.loc	4 1047 2
	bl assert
	{
		nop
		ldw r0, r6[4]
	}
	.loc	4 1051 7
.Ltmp594:
	{
		add r1, r0, 1
		mov r0, r6
	}
	.loc	4 1051 7
	bl FLAC__metadata_object_seektable_resize_points
	.loc	4 1051 7
	bf r0, .LBB12_1
.Ltmp595:
	.loc	4 1054 2
	{
		ldc r1, 24
		ldw r0, r6[4]
	}
	.loc	4 1054 2
	mul r0, r0, r1
	{
		nop
		ldw r1, r6[5]
	}
	.loc	4 1054 2
	{
		add r0, r0, r1
		nop
	}
	.loc	4 1054 2
	ldaw r1, r0[-6]
	.loc	4 1054 2
	std r4, r5, r1[0]
	.loc	4 1055 2
	ldaw r1, r0[-4]
	{
		ldc r2, 0
		nop
	}
	.loc	4 1055 2
	std r2, r2, r1[0]
	.loc	4 1056 2
	{
		sub r0, r0, 8
		nop
	}
	.loc	4 1056 2
	{
		mkmsk r0, 1
		stw r2, r0[0]
	}
	bu .LBB12_3
.Ltmp596:
.LBB12_1:
	{
		ldc r0, 0
		nop
	}
.LBB12_3:
	{
		nop
		ldw r6, sp[4]
	}
	.loc	4 1059 1
	ldd r5, r4, sp[1]
	{
		nop
		retsp 6
	}
	# RETURN_REG_HOLDER
.Ltmp597:
	.cc_bottom FLAC__metadata_object_seektable_template_append_point.function
	.set	FLAC__metadata_object_seektable_template_append_point.nstackwords,((assert.nstackwords $M FLAC__metadata_object_seektable_resize_points.nstackwords) + 6)
	.globl	FLAC__metadata_object_seektable_template_append_point.nstackwords
	.set	FLAC__metadata_object_seektable_template_append_point.maxcores,FLAC__metadata_object_seektable_resize_points.maxcores $M 1
	.globl	FLAC__metadata_object_seektable_template_append_point.maxcores
	.set	FLAC__metadata_object_seektable_template_append_point.maxtimers,FLAC__metadata_object_seektable_resize_points.maxtimers $M 0
	.globl	FLAC__metadata_object_seektable_template_append_point.maxtimers
	.set	FLAC__metadata_object_seektable_template_append_point.maxchanends,FLAC__metadata_object_seektable_resize_points.maxchanends $M 0
	.globl	FLAC__metadata_object_seektable_template_append_point.maxchanends
.Ltmp598:
	.size	FLAC__metadata_object_seektable_template_append_point, .Ltmp598-FLAC__metadata_object_seektable_template_append_point
.Lfunc_end12:
	.cfi_endproc

	.globl	FLAC__metadata_object_seektable_template_append_points
	.align	4
	.type	FLAC__metadata_object_seektable_template_append_points,@function
	.cc_top FLAC__metadata_object_seektable_template_append_points.function,FLAC__metadata_object_seektable_template_append_points
FLAC__metadata_object_seektable_template_append_points:
.Lfunc_begin13:
	.loc	4 1062 0
	.cfi_startproc
	.issue_mode dual
	{
		nop
		dualentsp 8
	}
.Ltmp599:
	.cfi_def_cfa_offset 32
.Ltmp600:
	.cfi_offset 15, 0
	std r5, r4, sp[1]
.Ltmp601:
	.cfi_offset 4, -24
.Ltmp602:
	.cfi_offset 5, -20
	std r7, r6, sp[2]
.Ltmp603:
	.cfi_offset 6, -16
.Ltmp604:
	.cfi_offset 7, -12
.Ltmp605:
	.cfi_offset 8, -8
.Ltmp606:
	{
		mov r4, r2
		stw r8, sp[6]
	}
.Ltmp607:
	{
		mov r5, r1
		mov r7, r0
	}
.Ltmp608:
	.loc	4 1063 2 prologue_end
	{
		eq r0, r7, 0
		nop
	}
	{
		eq r0, r0, 0
		nop
	}
	.loc	4 1063 2
	bl assert
	{
		nop
		ldw r0, r7[0]
	}
	.loc	4 1064 2
	{
		eq r0, r0, 3
		nop
	}
	.loc	4 1064 2
	bl assert
	.loc	4 1065 2
	{
		eq r0, r4, 0
		eq r1, r5, 0
	}
	.loc	4 1065 2
	{
		eq r1, r1, 0
		nop
	}
	.loc	4 1065 2
	{
		or r0, r0, r1
		nop
	}
	.loc	4 1065 2
	bl assert
	{
		mkmsk r6, 1
		nop
	}
	bf r4, .LBB13_5
.Ltmp609:
	{
		nop
		ldw r8, r7[4]
	}
.Ltmp610:
	.loc	4 1073 8
	{
		add r1, r8, r4
		mov r0, r7
	}
	.loc	4 1073 8
	bl FLAC__metadata_object_seektable_resize_points
	.loc	4 1073 8
	bf r0, .LBB13_2
.Ltmp611:
	.loc	4 1077 4
	{
		ldc r1, 24
		ldw r0, r7[5]
	}
	mul r1, r8, r1
	{
		add r0, r0, r1
		ldc r1, 0
	}
.Ltmp612:
.LBB13_4:
	.loc	4 1077 4
	ldd r3, r2, r5[0]
	.loc	4 1077 4
	std r3, r2, r0[0]
	{
		add r2, r0, 8
		nop
	}
	.loc	4 1078 4
	std r1, r1, r2[0]
	.loc	4 1079 4
	{
		add r5, r5, 8
		stw r1, r0[4]
	}
.Ltmp613:
	.loc	4 1076 3
	{
		sub r4, r4, 1
		nop
	}
	.loc	4 1076 3
	ldaw r0, r0[6]
	.loc	4 1076 3
	bt r4, .LBB13_4
	bu .LBB13_5
.Ltmp614:
.LBB13_2:
	{
		ldc r6, 0
		nop
	}
.LBB13_5:
	.loc	4 1084 1
	{
		mov r0, r6
		ldw r8, sp[6]
	}
	ldd r7, r6, sp[2]
	ldd r5, r4, sp[1]
	{
		nop
		retsp 8
	}
	# RETURN_REG_HOLDER
.Ltmp615:
	.cc_bottom FLAC__metadata_object_seektable_template_append_points.function
	.set	FLAC__metadata_object_seektable_template_append_points.nstackwords,((assert.nstackwords $M FLAC__metadata_object_seektable_resize_points.nstackwords) + 8)
	.globl	FLAC__metadata_object_seektable_template_append_points.nstackwords
	.set	FLAC__metadata_object_seektable_template_append_points.maxcores,FLAC__metadata_object_seektable_resize_points.maxcores $M 1
	.globl	FLAC__metadata_object_seektable_template_append_points.maxcores
	.set	FLAC__metadata_object_seektable_template_append_points.maxtimers,FLAC__metadata_object_seektable_resize_points.maxtimers $M 0
	.globl	FLAC__metadata_object_seektable_template_append_points.maxtimers
	.set	FLAC__metadata_object_seektable_template_append_points.maxchanends,FLAC__metadata_object_seektable_resize_points.maxchanends $M 0
	.globl	FLAC__metadata_object_seektable_template_append_points.maxchanends
.Ltmp616:
	.size	FLAC__metadata_object_seektable_template_append_points, .Ltmp616-FLAC__metadata_object_seektable_template_append_points
.Lfunc_end13:
	.cfi_endproc

	.globl	FLAC__metadata_object_seektable_template_append_spaced_points
	.align	4
	.type	FLAC__metadata_object_seektable_template_append_spaced_points,@function
	.cc_top FLAC__metadata_object_seektable_template_append_spaced_points.function,FLAC__metadata_object_seektable_template_append_spaced_points
FLAC__metadata_object_seektable_template_append_spaced_points:
.Lfunc_begin14:
	.loc	4 1087 0
	.cfi_startproc
	.issue_mode dual
	{
		nop
		dualentsp 10
	}
.Ltmp617:
	.cfi_def_cfa_offset 40
.Ltmp618:
	.cfi_offset 15, 0
	std r5, r4, sp[1]
.Ltmp619:
	.cfi_offset 4, -32
.Ltmp620:
	.cfi_offset 5, -28
	std r7, r6, sp[2]
.Ltmp621:
	.cfi_offset 6, -24
.Ltmp622:
	.cfi_offset 7, -20
	std r9, r8, sp[3]
.Ltmp623:
	.cfi_offset 8, -16
.Ltmp624:
	.cfi_offset 9, -12
.Ltmp625:
	.cfi_offset 10, -8
	{
		mov r4, r3
		stw r10, sp[8]
	}
.Ltmp626:
	{
		mov r5, r2
		mov r6, r1
	}
.Ltmp627:
	{
		mov r8, r0
		nop
	}
.Ltmp628:
	.loc	4 1088 2 prologue_end
	{
		eq r0, r8, 0
		nop
	}
	{
		eq r0, r0, 0
		nop
	}
	.loc	4 1088 2
	bl assert
	{
		nop
		ldw r0, r8[0]
	}
	.loc	4 1089 2
	{
		eq r0, r0, 3
		nop
	}
	.loc	4 1089 2
	bl assert
	{
		mkmsk r7, 1
		nop
	}
	bf r6, .LBB14_6
.Ltmp629:
	{
		or r0, r5, r4
		nop
	}
	bf r0, .LBB14_6
.Ltmp630:
	{
		nop
		ldw r9, r8[4]
	}
.Ltmp631:
	.loc	4 1097 8
	{
		add r1, r9, r6
		mov r0, r8
	}
	.loc	4 1097 8
	bl FLAC__metadata_object_seektable_resize_points
	.loc	4 1097 8
	bf r0, .LBB14_3
.Ltmp632:
	.loc	4 1101 4
	{
		ldc r1, 24
		ldw r0, r8[5]
	}
	mul r1, r9, r1
	{
		add r9, r0, r1
		ldc r8, 0
	}
.Ltmp633:
	{
		mov r10, r8
		nop
	}
.Ltmp634:
.LBB14_5:
	.loc	4 1101 4
	lmul r1, r0, r10, r5, r8, r8
	mul r2, r10, r4
	{
		add r1, r1, r2
		mov r2, r6
	}
	.loc	4 1101 4
	{
		mov r3, r8
		nop
	}
	bl __udivdi3
	.loc	4 1101 4
	std r1, r0, r9[0]
	{
		add r0, r9, 8
		nop
	}
	.loc	4 1102 4
	std r8, r8, r0[0]
.Ltmp635:
	.loc	4 1103 4
	{
		add r10, r10, 1
		stw r8, r9[4]
	}
.Ltmp636:
	.loc	4 1100 3
	ldaw r9, r9[6]
	.loc	4 1100 3
	{
		eq r0, r6, r10
		nop
	}
	bf r0, .LBB14_5
	bu .LBB14_6
.Ltmp637:
.LBB14_3:
	{
		ldc r7, 0
		nop
	}
.LBB14_6:
	.loc	4 1108 1
	{
		mov r0, r7
		ldw r10, sp[8]
	}
	ldd r9, r8, sp[3]
	ldd r7, r6, sp[2]
	ldd r5, r4, sp[1]
	{
		nop
		retsp 10
	}
	# RETURN_REG_HOLDER
.Ltmp638:
	.cc_bottom FLAC__metadata_object_seektable_template_append_spaced_points.function
	.set	FLAC__metadata_object_seektable_template_append_spaced_points.nstackwords,((assert.nstackwords $M FLAC__metadata_object_seektable_resize_points.nstackwords $M __udivdi3.nstackwords) + 10)
	.globl	FLAC__metadata_object_seektable_template_append_spaced_points.nstackwords
	.set	FLAC__metadata_object_seektable_template_append_spaced_points.maxcores,FLAC__metadata_object_seektable_resize_points.maxcores $M 1
	.globl	FLAC__metadata_object_seektable_template_append_spaced_points.maxcores
	.set	FLAC__metadata_object_seektable_template_append_spaced_points.maxtimers,FLAC__metadata_object_seektable_resize_points.maxtimers $M 0
	.globl	FLAC__metadata_object_seektable_template_append_spaced_points.maxtimers
	.set	FLAC__metadata_object_seektable_template_append_spaced_points.maxchanends,FLAC__metadata_object_seektable_resize_points.maxchanends $M 0
	.globl	FLAC__metadata_object_seektable_template_append_spaced_points.maxchanends
.Ltmp639:
	.size	FLAC__metadata_object_seektable_template_append_spaced_points, .Ltmp639-FLAC__metadata_object_seektable_template_append_spaced_points
.Lfunc_end14:
	.cfi_endproc

	.globl	FLAC__metadata_object_seektable_template_append_spaced_points_by_samples
	.align	4
	.type	FLAC__metadata_object_seektable_template_append_spaced_points_by_samples,@function
	.cc_top FLAC__metadata_object_seektable_template_append_spaced_points_by_samples.function,FLAC__metadata_object_seektable_template_append_spaced_points_by_samples
FLAC__metadata_object_seektable_template_append_spaced_points_by_samples:
.Lfunc_begin15:
	.loc	4 1111 0
	.cfi_startproc
	.issue_mode dual
	{
		nop
		dualentsp 10
	}
.Ltmp640:
	.cfi_def_cfa_offset 40
.Ltmp641:
	.cfi_offset 15, 0
	std r5, r4, sp[1]
.Ltmp642:
	.cfi_offset 4, -32
.Ltmp643:
	.cfi_offset 5, -28
	std r7, r6, sp[2]
.Ltmp644:
	.cfi_offset 6, -24
.Ltmp645:
	.cfi_offset 7, -20
	std r9, r8, sp[3]
.Ltmp646:
	.cfi_offset 8, -16
.Ltmp647:
	.cfi_offset 9, -12
.Ltmp648:
	.cfi_offset 10, -8
	{
		mov r7, r3
		stw r10, sp[8]
	}
.Ltmp649:
	{
		mov r8, r2
		mov r4, r1
	}
.Ltmp650:
	{
		mov r6, r0
		nop
	}
.Ltmp651:
	.loc	4 1112 2 prologue_end
	{
		eq r0, r6, 0
		nop
	}
	{
		eq r0, r0, 0
		nop
	}
	.loc	4 1112 2
	bl assert
	{
		nop
		ldw r0, r6[0]
	}
	.loc	4 1113 2
	{
		eq r0, r0, 3
		nop
	}
	.loc	4 1113 2
	bl assert
	{
		mkmsk r0, 1
		nop
	}
	bf r4, .LBB15_14
.Ltmp652:
	{
		or r1, r8, r7
		nop
	}
	bf r1, .LBB15_14
.Ltmp653:
	{
		ldc r9, 0
		mov r0, r8
	}
	.loc	4 1120 3
.Ltmp654:
	{
		mov r1, r7
		mov r2, r4
	}
	{
		mov r3, r9
		nop
	}
	bl __udivdi3
	{
		mov r10, r0
		mov r5, r1
	}
	.loc	4 1122 7
.Ltmp655:
	{
		mov r0, r8
		mov r1, r7
	}
	{
		mov r2, r4
		mov r3, r9
	}
	bl __umoddi3
	.loc	4 1122 7
	{
		or r0, r0, r1
		nop
	}
	{
		eq r0, r0, 0
		nop
	}
	{
		eq r0, r0, 0
		nop
	}
	.loc	4 1122 7
	ladd r0, r10, r0, r10, r9
	{
		add r5, r5, r0
		nop
	}
	bt r5, .LBB15_4
.Ltmp656:
	ldc r0, 32769
	.loc	4 1126 7
.Ltmp657:
	{
		lsu r9, r10, r0
		nop
	}
.Ltmp658:
.LBB15_4:
	bt r9, .LBB15_6
.Ltmp659:
	{
		mkmsk r0, 4
		nop
	}
	.loc	4 1129 4
.Ltmp660:
	{
		shr r0, r8, r0
		ldc r1, 17
	}
	{
		shl r1, r7, r1
		nop
	}
	{
		or r4, r0, r1
		ldc r5, 0
	}
	ldc r10, 32768
.Ltmp661:
.LBB15_6:
	{
		nop
		ldw r7, r6[4]
	}
.Ltmp662:
	.loc	4 1134 8
	{
		add r1, r7, r10
		mov r0, r6
	}
	.loc	4 1134 8
	bl FLAC__metadata_object_seektable_resize_points
	.loc	4 1134 8
	bf r0, .LBB15_7
.Ltmp663:
	.loc	4 1138 3
	{
		or r1, r10, r5
		mkmsk r0, 1
	}
	bf r1, .LBB15_14
.Ltmp664:
	.loc	4 1139 4
	{
		ldc r1, 24
		ldw r0, r6[5]
	}
	mul r1, r7, r1
	{
		add r8, r0, r1
		ldc r1, 0
	}
	{
		mkmsk r0, 1
		nop
	}
	{
		mov r2, r0
		mov r3, r1
	}
	{
		mov r11, r1
		nop
	}
.Ltmp665:
.LBB15_10:
	.loc	4 1139 4
	std r11, r3, r8[0]
	{
		add r6, r8, 8
		nop
	}
	.loc	4 1140 4
	std r1, r1, r6[0]
	{
		nop
		stw r1, r8[4]
	}
.Ltmp666:
	.loc	4 1138 24
	ladd r7, r3, r3, r4, r1
	.loc	4 1138 3
	bt r5, .LBB15_11
	{
		lsu r6, r2, r10
		nop
	}
	bu .LBB15_13
.LBB15_11:
	{
		eq r6, r5, 0
		nop
	}
	{
		eq r6, r6, 0
		nop
	}
.LBB15_13:
	.loc	4 1138 24
	{
		add r11, r11, r7
		add r2, r2, 1
	}
	.loc	4 1138 3
	ldaw r8, r8[6]
	bt r6, .LBB15_10
	bu .LBB15_14
.Ltmp667:
.LBB15_7:
	{
		ldc r0, 0
		nop
	}
.LBB15_14:
	{
		nop
		ldw r10, sp[8]
	}
	.loc	4 1146 1
	ldd r9, r8, sp[3]
	ldd r7, r6, sp[2]
	ldd r5, r4, sp[1]
	{
		nop
		retsp 10
	}
	# RETURN_REG_HOLDER
.Ltmp668:
	.cc_bottom FLAC__metadata_object_seektable_template_append_spaced_points_by_samples.function
	.set	FLAC__metadata_object_seektable_template_append_spaced_points_by_samples.nstackwords,((assert.nstackwords $M __udivdi3.nstackwords $M __umoddi3.nstackwords $M FLAC__metadata_object_seektable_resize_points.nstackwords) + 10)
	.globl	FLAC__metadata_object_seektable_template_append_spaced_points_by_samples.nstackwords
	.set	FLAC__metadata_object_seektable_template_append_spaced_points_by_samples.maxcores,FLAC__metadata_object_seektable_resize_points.maxcores $M 1
	.globl	FLAC__metadata_object_seektable_template_append_spaced_points_by_samples.maxcores
	.set	FLAC__metadata_object_seektable_template_append_spaced_points_by_samples.maxtimers,FLAC__metadata_object_seektable_resize_points.maxtimers $M 0
	.globl	FLAC__metadata_object_seektable_template_append_spaced_points_by_samples.maxtimers
	.set	FLAC__metadata_object_seektable_template_append_spaced_points_by_samples.maxchanends,FLAC__metadata_object_seektable_resize_points.maxchanends $M 0
	.globl	FLAC__metadata_object_seektable_template_append_spaced_points_by_samples.maxchanends
.Ltmp669:
	.size	FLAC__metadata_object_seektable_template_append_spaced_points_by_samples, .Ltmp669-FLAC__metadata_object_seektable_template_append_spaced_points_by_samples
.Lfunc_end15:
	.cfi_endproc

	.globl	FLAC__metadata_object_seektable_template_sort
	.align	4
	.type	FLAC__metadata_object_seektable_template_sort,@function
	.cc_top FLAC__metadata_object_seektable_template_sort.function,FLAC__metadata_object_seektable_template_sort
FLAC__metadata_object_seektable_template_sort:
.Lfunc_begin16:
	.loc	4 1149 0
	.cfi_startproc
	.issue_mode dual
	{
		nop
		dualentsp 4
	}
.Ltmp670:
	.cfi_def_cfa_offset 16
.Ltmp671:
	.cfi_offset 15, 0
	std r5, r4, sp[1]
.Ltmp672:
	.cfi_offset 4, -8
.Ltmp673:
	.cfi_offset 5, -4
.Ltmp674:
	{
		mov r5, r1
		mov r4, r0
	}
.Ltmp675:
	.loc	4 1152 2 prologue_end
	{
		eq r0, r4, 0
		nop
	}
	{
		eq r0, r0, 0
		nop
	}
	.loc	4 1152 2
	bl assert
	{
		nop
		ldw r0, r4[0]
	}
	.loc	4 1153 2
	{
		eq r0, r0, 3
		nop
	}
	.loc	4 1153 2
	bl assert
	.loc	4 1155 11
	ldaw r0, r4[4]
	.loc	4 1155 11
	bl FLAC__format_seektable_sort
	{
		mov r1, r0
		nop
	}
.Ltmp676:
	.loc	4 1157 2
	bf r5, .LBB16_1
.Ltmp677:
	.loc	4 1157 21
	{
		mov r0, r4
		nop
	}
	bl FLAC__metadata_object_seektable_resize_points
.Ltmp678:
	.loc	4 1157 21
	{
		eq r0, r0, 0
		nop
	}
	{
		eq r0, r0, 0
		nop
	}
	bu .LBB16_3
.Ltmp679:
.LBB16_1:
	{
		mkmsk r0, 1
		nop
	}
.LBB16_3:
	.loc	4 1157 21
	ldd r5, r4, sp[1]
	{
		nop
		retsp 4
	}
	# RETURN_REG_HOLDER
.Ltmp680:
	.cc_bottom FLAC__metadata_object_seektable_template_sort.function
	.set	FLAC__metadata_object_seektable_template_sort.nstackwords,((assert.nstackwords $M FLAC__format_seektable_sort.nstackwords $M FLAC__metadata_object_seektable_resize_points.nstackwords) + 4)
	.globl	FLAC__metadata_object_seektable_template_sort.nstackwords
	.set	FLAC__metadata_object_seektable_template_sort.maxcores,FLAC__format_seektable_sort.maxcores $M FLAC__metadata_object_seektable_resize_points.maxcores $M 1
	.globl	FLAC__metadata_object_seektable_template_sort.maxcores
	.set	FLAC__metadata_object_seektable_template_sort.maxtimers,FLAC__format_seektable_sort.maxtimers $M FLAC__metadata_object_seektable_resize_points.maxtimers $M 0
	.globl	FLAC__metadata_object_seektable_template_sort.maxtimers
	.set	FLAC__metadata_object_seektable_template_sort.maxchanends,FLAC__format_seektable_sort.maxchanends $M FLAC__metadata_object_seektable_resize_points.maxchanends $M 0
	.globl	FLAC__metadata_object_seektable_template_sort.maxchanends
.Ltmp681:
	.size	FLAC__metadata_object_seektable_template_sort, .Ltmp681-FLAC__metadata_object_seektable_template_sort
.Lfunc_end16:
	.cfi_endproc

	.globl	FLAC__metadata_object_vorbiscomment_set_vendor_string
	.align	4
	.type	FLAC__metadata_object_vorbiscomment_set_vendor_string,@function
	.cc_top FLAC__metadata_object_vorbiscomment_set_vendor_string.function,FLAC__metadata_object_vorbiscomment_set_vendor_string
FLAC__metadata_object_vorbiscomment_set_vendor_string:
.Lfunc_begin17:
	.loc	4 1161 0
	.cfi_startproc
	.issue_mode dual
	{
		nop
		dualentsp 6
	}
.Ltmp682:
	.cfi_def_cfa_offset 24
.Ltmp683:
	.cfi_offset 15, 0
	std r5, r4, sp[2]
.Ltmp684:
	.cfi_offset 4, -8
.Ltmp685:
	.cfi_offset 5, -4
.Ltmp686:
	{
		mov r4, r2
		mov r5, r0
	}
.Ltmp687:
	{
		nop
		ldw r0, r1[1]
	}
	{
		nop
		stw r0, sp[3]
	}
	{
		nop
		ldw r0, r1[0]
	}
	{
		nop
		stw r0, sp[2]
	}
	{
		nop
		ldw r0, sp[3]
	}
	{
		nop
		ldw r1, sp[2]
	}
	.loc	4 1162 7 prologue_end
.Ltmp688:
	bl FLAC__format_vorbiscomment_entry_value_is_legal
	.loc	4 1162 7
	bf r0, .LBB17_1
.Ltmp689:
	{
		ldaw r2, sp[2]
		nop
	}
	.loc	4 1164 9
	ldaw r1, r5[4]
	.loc	4 1164 9
	{
		mov r0, r5
		mov r3, r4
	}
	bl vorbiscomment_set_entry_
	bu .LBB17_3
.Ltmp690:
.LBB17_1:
	{
		ldc r0, 0
		nop
	}
.Ltmp691:
.LBB17_3:
	.loc	4 1165 1
	ldd r5, r4, sp[2]
	{
		nop
		retsp 6
	}
.Ltmp692:
	# RETURN_REG_HOLDER
.Ltmp693:
	.cc_bottom FLAC__metadata_object_vorbiscomment_set_vendor_string.function
	.set	FLAC__metadata_object_vorbiscomment_set_vendor_string.nstackwords,((FLAC__format_vorbiscomment_entry_value_is_legal.nstackwords $M vorbiscomment_set_entry_.nstackwords) + 6)
	.globl	FLAC__metadata_object_vorbiscomment_set_vendor_string.nstackwords
	.set	FLAC__metadata_object_vorbiscomment_set_vendor_string.maxcores,FLAC__format_vorbiscomment_entry_value_is_legal.maxcores $M vorbiscomment_set_entry_.maxcores $M 1
	.globl	FLAC__metadata_object_vorbiscomment_set_vendor_string.maxcores
	.set	FLAC__metadata_object_vorbiscomment_set_vendor_string.maxtimers,FLAC__format_vorbiscomment_entry_value_is_legal.maxtimers $M vorbiscomment_set_entry_.maxtimers $M 0
	.globl	FLAC__metadata_object_vorbiscomment_set_vendor_string.maxtimers
	.set	FLAC__metadata_object_vorbiscomment_set_vendor_string.maxchanends,FLAC__format_vorbiscomment_entry_value_is_legal.maxchanends $M vorbiscomment_set_entry_.maxchanends $M 0
	.globl	FLAC__metadata_object_vorbiscomment_set_vendor_string.maxchanends
.Ltmp694:
	.size	FLAC__metadata_object_vorbiscomment_set_vendor_string, .Ltmp694-FLAC__metadata_object_vorbiscomment_set_vendor_string
.Lfunc_end17:
	.cfi_endproc

	.align	4
	.type	vorbiscomment_set_entry_,@function
	.cc_top vorbiscomment_set_entry_.function,vorbiscomment_set_entry_
vorbiscomment_set_entry_:
.Lfunc_begin18:
	.loc	4 251 0
	.cfi_startproc
	.issue_mode dual
	{
		nop
		dualentsp 10
	}
.Ltmp695:
	.cfi_def_cfa_offset 40
.Ltmp696:
	.cfi_offset 15, 0
	std r5, r4, sp[1]
.Ltmp697:
	.cfi_offset 4, -32
.Ltmp698:
	.cfi_offset 5, -28
	std r7, r6, sp[2]
.Ltmp699:
	.cfi_offset 6, -24
.Ltmp700:
	.cfi_offset 7, -20
	std r9, r8, sp[3]
.Ltmp701:
	.cfi_offset 8, -16
.Ltmp702:
	.cfi_offset 9, -12
.Ltmp703:
	.cfi_offset 10, -8
.Ltmp704:
	{
		mov r8, r3
		stw r10, sp[8]
	}
.Ltmp705:
	{
		mov r6, r2
		mov r5, r1
	}
.Ltmp706:
	{
		mov r4, r0
		nop
	}
.Ltmp707:
	.loc	4 254 2 prologue_end
	{
		eq r0, r4, 0
		nop
	}
	{
		eq r0, r0, 0
		nop
	}
	.loc	4 254 2
	bl assert
	.loc	4 255 2
	{
		eq r0, r5, 0
		nop
	}
	{
		eq r0, r0, 0
		nop
	}
	.loc	4 255 2
	bl assert
	.loc	4 256 2
	{
		eq r0, r6, 0
		nop
	}
	{
		eq r0, r0, 0
		nop
	}
	.loc	4 256 2
	bl assert
	{
		nop
		ldw r0, r4[0]
	}
	.loc	4 257 2
	{
		eq r0, r0, 4
		nop
	}
	.loc	4 257 2
	bl assert
	{
		nop
		ldw r1, r6[1]
	}
	{
		nop
		ldw r0, r6[0]
	}
	.loc	4 258 2
	{
		eq r0, r0, 0
		nop
	}
	bf r1, .LBB18_2
.Ltmp708:
	.loc	4 258 2
	{
		eq r0, r0, 0
		nop
	}
.Ltmp709:
.LBB18_2:
	.loc	4 258 2
	bl assert
	{
		nop
		ldw r7, r5[1]
	}
.Ltmp710:
	{
		nop
		ldw r9, r6[1]
	}
	.loc	4 262 6
.Ltmp711:
	bf r9, .LBB18_10
.Ltmp712:
	{
		nop
		ldw r10, r6[0]
	}
.Ltmp713:
	.loc	4 263 7
	bf r8, .LBB18_7
.Ltmp714:
	{
		nop
		stw r10, r5[0]
	}
	{
		nop
		ldw r6, r6[0]
	}
.Ltmp715:
	.loc	5 128 2
	{
		add r0, r6, 1
		nop
	}
	{
		lsu r1, r0, r6
		ldc r8, 0
	}
	bt r1, .LBB18_15
.Ltmp716:
	.loc	5 93 5
	{
		eq r1, r0, 0
		nop
	}
	.loc	5 93 5
	{
		add r0, r1, r0
		nop
	}
.Ltmp717:
	.loc	5 95 9
	bl malloc
	{
		mov r10, r0
		nop
	}
.Ltmp718:
	bf r10, .LBB18_15
.Ltmp719:
	.loc	4 141 3
	{
		mov r0, r10
		mov r1, r9
	}
	{
		mov r2, r6
		nop
	}
	bl memcpy
	{
		ldc r0, 0
		nop
	}
	.loc	4 142 3
	st8 r0, r10[r6]
	{
		nop
		stw r10, r5[1]
	}
	bu .LBB18_11
.Ltmp720:
.LBB18_10:
	{
		nop
		ldw r0, r6[0]
	}
	{
		nop
		ldw r1, r6[1]
	}
	{
		nop
		stw r1, r5[1]
	}
	{
		nop
		stw r0, r5[0]
	}
	bu .LBB18_11
.Ltmp721:
.LBB18_7:
	.loc	5 227 2
	{
		add r1, r10, 1
		nop
	}
	{
		lsu r0, r1, r10
		ldc r8, 0
	}
	bt r0, .LBB18_15
.Ltmp722:
	.loc	5 230 9
	{
		mov r0, r9
		nop
	}
	bl realloc
.Ltmp723:
	bf r0, .LBB18_15
.Ltmp724:
	{
		ldc r1, 0
		nop
	}
	.loc	4 103 3
.Ltmp725:
	st8 r1, r0[r10]
	{
		nop
		stw r0, r6[1]
	}
	{
		nop
		ldw r1, r6[0]
	}
	{
		nop
		stw r0, r5[1]
	}
	{
		nop
		stw r1, r5[0]
	}
.Ltmp726:
.LBB18_11:
	.loc	4 289 2
	{
		mov r0, r7
		nop
	}
	bl free
.Ltmp727:
	{
		nop
		ldw r0, r4[0]
	}
	.loc	4 197 2
.Ltmp728:
	{
		eq r0, r0, 4
		nop
	}
	.loc	4 197 2
	bl assert
	.loc	4 199 2
	ldw r0, cp[FLAC__STREAM_METADATA_VORBIS_COMMENT_ENTRY_LENGTH_LEN]
	.loc	4 199 2
	{
		shr r0, r0, 3
		ldw r1, r4[4]
	}
	.loc	4 200 2
	{
		add r1, r0, r1
		nop
	}
	.loc	4 201 2
	ldw r2, cp[FLAC__STREAM_METADATA_VORBIS_COMMENT_NUM_COMMENTS_LEN]
	.loc	4 201 2
	{
		shr r2, r2, 3
		nop
	}
	.loc	4 201 2
	{
		add r1, r1, r2
		nop
	}
	{
		nop
		stw r1, r4[2]
	}
.Ltmp729:
	.loc	4 202 2
	{
		mkmsk r8, 1
		ldw r2, r4[6]
	}
	bf r2, .LBB18_15
.Ltmp730:
	{
		nop
		ldw r3, r4[7]
	}
.Ltmp731:
.LBB18_13:
	.loc	4 203 3
	{
		add r1, r1, r0
		ldw r11, r3[0]
	}
	.loc	4 204 3
	{
		add r1, r1, r11
		sub r2, r2, 1
	}
.Ltmp732:
	.loc	4 202 2
	{
		add r3, r3, 8
		nop
	}
	.loc	4 202 2
	bt r2, .LBB18_13
.Ltmp733:
	{
		nop
		stw r1, r4[2]
	}
.Ltmp734:
.LBB18_15:
	.loc	4 293 1
	{
		mov r0, r8
		ldw r10, sp[8]
	}
	ldd r9, r8, sp[3]
	ldd r7, r6, sp[2]
	ldd r5, r4, sp[1]
	{
		nop
		retsp 10
	}
	# RETURN_REG_HOLDER
.Ltmp735:
	.cc_bottom vorbiscomment_set_entry_.function
	.set	vorbiscomment_set_entry_.nstackwords,((free.nstackwords $M assert.nstackwords $M realloc.nstackwords $M malloc.nstackwords $M memcpy.nstackwords) + 10)
	.set	vorbiscomment_set_entry_.maxcores,free.maxcores $M malloc.maxcores $M realloc.maxcores $M 1
	.set	vorbiscomment_set_entry_.maxtimers,free.maxtimers $M malloc.maxtimers $M realloc.maxtimers $M 0
	.set	vorbiscomment_set_entry_.maxchanends,free.maxchanends $M malloc.maxchanends $M realloc.maxchanends $M 0
.Ltmp736:
	.size	vorbiscomment_set_entry_, .Ltmp736-vorbiscomment_set_entry_
.Lfunc_end18:
	.cfi_endproc

	.globl	FLAC__metadata_object_vorbiscomment_resize_comments
	.align	4
	.type	FLAC__metadata_object_vorbiscomment_resize_comments,@function
	.cc_top FLAC__metadata_object_vorbiscomment_resize_comments.function,FLAC__metadata_object_vorbiscomment_resize_comments
FLAC__metadata_object_vorbiscomment_resize_comments:
.Lfunc_begin19:
	.loc	4 1168 0
	.cfi_startproc
	.issue_mode dual
	{
		nop
		dualentsp 10
	}
.Ltmp737:
	.cfi_def_cfa_offset 40
.Ltmp738:
	.cfi_offset 15, 0
	std r5, r4, sp[1]
.Ltmp739:
	.cfi_offset 4, -32
.Ltmp740:
	.cfi_offset 5, -28
	std r7, r6, sp[2]
.Ltmp741:
	.cfi_offset 6, -24
.Ltmp742:
	.cfi_offset 7, -20
	std r9, r8, sp[3]
.Ltmp743:
	.cfi_offset 8, -16
.Ltmp744:
	.cfi_offset 9, -12
.Ltmp745:
	.cfi_offset 10, -8
.Ltmp746:
	{
		mov r5, r1
		stw r10, sp[8]
	}
.Ltmp747:
	{
		mov r4, r0
		nop
	}
.Ltmp748:
	.loc	4 1169 2 prologue_end
	{
		eq r0, r4, 0
		nop
	}
	{
		eq r0, r0, 0
		nop
	}
	.loc	4 1169 2
	bl assert
	{
		nop
		ldw r0, r4[0]
	}
	.loc	4 1170 2
	{
		eq r0, r0, 4
		nop
	}
	.loc	4 1170 2
	bl assert
	{
		nop
		ldw r0, r4[7]
	}
	{
		nop
		ldw r8, r4[6]
	}
	.loc	4 1172 6
.Ltmp749:
	bf r0, .LBB19_1
.Ltmp750:
	{
		ldc r0, 29
		nop
	}
	.loc	4 1195 7
.Ltmp751:
	{
		shr r0, r5, r0
		ldc r6, 0
	}
	bt r0, .LBB19_28
.Ltmp752:
	.loc	4 1192 3
	{
		shl r7, r5, 3
		eq r0, r8, 0
	}
.Ltmp753:
	.loc	4 1198 3
	{
		eq r0, r0, 0
		nop
	}
	.loc	4 1198 3
	bl assert
	{
		nop
		ldw r1, r4[6]
	}
	.loc	4 1201 7
.Ltmp754:
	{
		lsu r0, r5, r1
		nop
	}
	bf r0, .LBB19_15
.Ltmp755:
	{
		ldc r0, 4
		nop
	}
	.loc	4 1204 9
.Ltmp756:
	{
		or r9, r7, r0
		mov r10, r5
	}
.Ltmp757:
.LBB19_12:
	{
		nop
		ldw r0, r4[7]
	}
	{
		add r0, r0, r9
		nop
	}
	{
		nop
		ldw r0, r0[0]
	}
	bf r0, .LBB19_14
.Ltmp758:
	.loc	4 1205 6
	bl free
	{
		nop
		ldw r1, r4[6]
	}
.Ltmp759:
.LBB19_14:
	.loc	4 1203 77
	{
		add r10, r10, 1
		add r9, r9, 8
	}
.Ltmp760:
	.loc	4 1203 4
	{
		lsu r0, r10, r1
		nop
	}
	bt r0, .LBB19_12
.Ltmp761:
.LBB19_15:
	.loc	4 1191 3
	{
		shl r8, r8, 3
		ldw r0, r4[7]
	}
.Ltmp762:
	.loc	4 1208 7
	bf r7, .LBB19_16
.Ltmp763:
	.loc	4 1215 18
	{
		mov r1, r7
		nop
	}
	bl realloc
	bt r0, .LBB19_18
	bu .LBB19_28
.Ltmp764:
.LBB19_1:
	.loc	4 1173 3
	{
		eq r0, r8, 0
		nop
	}
	.loc	4 1173 3
	bl assert
	.loc	4 1174 7
.Ltmp765:
	bf r5, .LBB19_2
.Ltmp766:
	{
		mkmsk r0, 1
		nop
	}
	.loc	4 210 2
.Ltmp767:
	bl assert
.Ltmp768:
	{
		ldc r1, 8
		mov r0, r5
	}
	.loc	5 121 9
.Ltmp769:
	bl calloc
	{
		mov r7, r0
		nop
	}
.Ltmp770:
	.loc	4 1178 48
	{
		ldc r9, 0
		stw r7, r4[7]
	}
	.loc	4 1178 48
	bf r7, .LBB19_4
.Ltmp771:
	{
		ldc r6, 0
		mkmsk r8, 1
	}
.Ltmp772:
.LBB19_6:
	.loc	4 1181 5
	{
		mov r0, r8
		stw r6, r7[0]
	}
	.loc	5 95 9
.Ltmp773:
	bl malloc
	{
		nop
		stw r0, r7[1]
	}
.Ltmp774:
	.loc	4 1182 58
	bf r0, .LBB19_7
.Ltmp775:
	.loc	4 1186 5
	st8 r6, r0[r6]
.Ltmp776:
	.loc	4 1180 38
	{
		add r9, r9, 1
		add r7, r7, 8
	}
.Ltmp777:
	.loc	4 1180 4
	{
		lsu r0, r9, r5
		nop
	}
	bt r0, .LBB19_6
	bu .LBB19_24
.Ltmp778:
.LBB19_2:
	{
		mkmsk r6, 1
		nop
	}
	bu .LBB19_28
.LBB19_16:
.Ltmp779:
	.loc	4 1209 4
	bl free
	{
		ldc r0, 0
		nop
	}
.Ltmp780:
.LBB19_18:
	.loc	4 1210 4
	{
		lsu r1, r8, r7
		stw r0, r4[7]
	}
	bf r1, .LBB19_24
.Ltmp781:
	{
		nop
		ldw r8, r4[6]
	}
.Ltmp782:
	.loc	4 1223 4
	{
		lsu r1, r8, r5
		nop
	}
	bf r1, .LBB19_24
.Ltmp783:
	{
		shl r1, r8, 3
		nop
	}
	{
		add r9, r0, r1
		ldc r6, 0
	}
	{
		mkmsk r7, 1
		nop
	}
.Ltmp784:
.LBB19_21:
	.loc	4 1224 5
	{
		mov r0, r7
		stw r6, r9[0]
	}
	.loc	5 95 9
.Ltmp785:
	bl malloc
	{
		nop
		stw r0, r9[1]
	}
.Ltmp786:
	.loc	4 1225 58
	bf r0, .LBB19_22
.Ltmp787:
	.loc	4 1229 5
	st8 r6, r0[r6]
.Ltmp788:
	.loc	4 1223 77
	{
		add r8, r8, 1
		add r9, r9, 8
	}
.Ltmp789:
	.loc	4 1223 4
	{
		lsu r0, r8, r5
		nop
	}
	bt r0, .LBB19_21
.Ltmp790:
.LBB19_24:
	{
		nop
		stw r5, r4[6]
	}
	{
		nop
		ldw r0, r4[0]
	}
	.loc	4 197 2
.Ltmp791:
	{
		eq r0, r0, 4
		nop
	}
	.loc	4 197 2
	bl assert
	.loc	4 199 2
	ldw r0, cp[FLAC__STREAM_METADATA_VORBIS_COMMENT_ENTRY_LENGTH_LEN]
	.loc	4 199 2
	{
		shr r0, r0, 3
		ldw r1, r4[4]
	}
	.loc	4 200 2
	{
		add r1, r0, r1
		nop
	}
	.loc	4 201 2
	ldw r2, cp[FLAC__STREAM_METADATA_VORBIS_COMMENT_NUM_COMMENTS_LEN]
	.loc	4 201 2
	{
		shr r2, r2, 3
		nop
	}
	.loc	4 201 2
	{
		add r1, r1, r2
		nop
	}
	{
		nop
		stw r1, r4[2]
	}
.Ltmp792:
	.loc	4 202 2
	{
		mkmsk r6, 1
		ldw r2, r4[6]
	}
	bf r2, .LBB19_28
.Ltmp793:
	{
		nop
		ldw r3, r4[7]
	}
.Ltmp794:
.LBB19_26:
	.loc	4 203 3
	{
		add r1, r1, r0
		ldw r11, r3[0]
	}
	.loc	4 204 3
	{
		add r1, r1, r11
		sub r2, r2, 1
	}
.Ltmp795:
	.loc	4 202 2
	{
		add r3, r3, 8
		nop
	}
	.loc	4 202 2
	bt r2, .LBB19_26
.Ltmp796:
	{
		nop
		stw r1, r4[2]
	}
	bu .LBB19_28
.Ltmp797:
.LBB19_4:
	{
		mov r6, r9
		nop
	}
	bu .LBB19_28
.LBB19_7:
.Ltmp798:
	.loc	4 1183 6
	{
		add r0, r9, 1
		nop
	}
	{
		nop
		stw r0, r4[6]
	}
	bu .LBB19_28
.Ltmp799:
.LBB19_22:
	.loc	4 1226 6
	{
		add r0, r8, 1
		nop
	}
	{
		nop
		stw r0, r4[6]
	}
.Ltmp800:
.LBB19_28:
	.loc	4 1238 1
	{
		mov r0, r6
		ldw r10, sp[8]
	}
	ldd r9, r8, sp[3]
	ldd r7, r6, sp[2]
	ldd r5, r4, sp[1]
	{
		nop
		retsp 10
	}
	# RETURN_REG_HOLDER
.Ltmp801:
	.cc_bottom FLAC__metadata_object_vorbiscomment_resize_comments.function
	.set	FLAC__metadata_object_vorbiscomment_resize_comments.nstackwords,((calloc.nstackwords $M assert.nstackwords $M malloc.nstackwords $M realloc.nstackwords $M free.nstackwords) + 10)
	.globl	FLAC__metadata_object_vorbiscomment_resize_comments.nstackwords
	.set	FLAC__metadata_object_vorbiscomment_resize_comments.maxcores,calloc.maxcores $M free.maxcores $M malloc.maxcores $M realloc.maxcores $M 1
	.globl	FLAC__metadata_object_vorbiscomment_resize_comments.maxcores
	.set	FLAC__metadata_object_vorbiscomment_resize_comments.maxtimers,calloc.maxtimers $M free.maxtimers $M malloc.maxtimers $M realloc.maxtimers $M 0
	.globl	FLAC__metadata_object_vorbiscomment_resize_comments.maxtimers
	.set	FLAC__metadata_object_vorbiscomment_resize_comments.maxchanends,calloc.maxchanends $M free.maxchanends $M malloc.maxchanends $M realloc.maxchanends $M 0
	.globl	FLAC__metadata_object_vorbiscomment_resize_comments.maxchanends
.Ltmp802:
	.size	FLAC__metadata_object_vorbiscomment_resize_comments, .Ltmp802-FLAC__metadata_object_vorbiscomment_resize_comments
.Lfunc_end19:
	.cfi_endproc

	.globl	FLAC__metadata_object_vorbiscomment_set_comment
	.align	4
	.type	FLAC__metadata_object_vorbiscomment_set_comment,@function
	.cc_top FLAC__metadata_object_vorbiscomment_set_comment.function,FLAC__metadata_object_vorbiscomment_set_comment
FLAC__metadata_object_vorbiscomment_set_comment:
.Lfunc_begin20:
	.loc	4 1241 0
	.cfi_startproc
	.issue_mode dual
	{
		nop
		dualentsp 8
	}
.Ltmp803:
	.cfi_def_cfa_offset 32
.Ltmp804:
	.cfi_offset 15, 0
	std r5, r4, sp[2]
.Ltmp805:
	.cfi_offset 4, -16
.Ltmp806:
	.cfi_offset 5, -12
.Ltmp807:
	.cfi_offset 6, -8
.Ltmp808:
	{
		mov r4, r3
		stw r6, sp[6]
	}
.Ltmp809:
	{
		mov r6, r1
		mov r5, r0
	}
.Ltmp810:
	{
		nop
		ldw r0, r2[1]
	}
	{
		nop
		stw r0, sp[3]
	}
	{
		nop
		ldw r0, r2[0]
	}
	{
		eq r0, r5, 0
		stw r0, sp[2]
	}
	.loc	4 1242 2 prologue_end
.Ltmp811:
	{
		eq r0, r0, 0
		nop
	}
	.loc	4 1242 2
	bl assert
	{
		nop
		ldw r0, r5[6]
	}
	.loc	4 1243 2
	{
		lsu r0, r6, r0
		nop
	}
	.loc	4 1243 2
	bl assert
	{
		nop
		ldw r0, sp[3]
	}
	{
		nop
		ldw r1, sp[2]
	}
	.loc	4 1245 7
.Ltmp812:
	bl FLAC__format_vorbiscomment_entry_is_legal
	.loc	4 1245 7
	bf r0, .LBB20_1
.Ltmp813:
	{
		ldaw r2, sp[2]
		ldw r0, r5[7]
	}
	.loc	4 1247 9
	{
		shl r1, r6, 3
		nop
	}
	{
		add r1, r0, r1
		mov r0, r5
	}
	.loc	4 1247 9
	{
		mov r3, r4
		nop
	}
	bl vorbiscomment_set_entry_
	bu .LBB20_3
.Ltmp814:
.LBB20_1:
	{
		ldc r0, 0
		nop
	}
.Ltmp815:
.LBB20_3:
	{
		nop
		ldw r6, sp[6]
	}
	.loc	4 1248 1
	ldd r5, r4, sp[2]
	{
		nop
		retsp 8
	}
.Ltmp816:
	# RETURN_REG_HOLDER
.Ltmp817:
	.cc_bottom FLAC__metadata_object_vorbiscomment_set_comment.function
	.set	FLAC__metadata_object_vorbiscomment_set_comment.nstackwords,((assert.nstackwords $M FLAC__format_vorbiscomment_entry_is_legal.nstackwords $M vorbiscomment_set_entry_.nstackwords) + 8)
	.globl	FLAC__metadata_object_vorbiscomment_set_comment.nstackwords
	.set	FLAC__metadata_object_vorbiscomment_set_comment.maxcores,FLAC__format_vorbiscomment_entry_is_legal.maxcores $M vorbiscomment_set_entry_.maxcores $M 1
	.globl	FLAC__metadata_object_vorbiscomment_set_comment.maxcores
	.set	FLAC__metadata_object_vorbiscomment_set_comment.maxtimers,FLAC__format_vorbiscomment_entry_is_legal.maxtimers $M vorbiscomment_set_entry_.maxtimers $M 0
	.globl	FLAC__metadata_object_vorbiscomment_set_comment.maxtimers
	.set	FLAC__metadata_object_vorbiscomment_set_comment.maxchanends,FLAC__format_vorbiscomment_entry_is_legal.maxchanends $M vorbiscomment_set_entry_.maxchanends $M 0
	.globl	FLAC__metadata_object_vorbiscomment_set_comment.maxchanends
.Ltmp818:
	.size	FLAC__metadata_object_vorbiscomment_set_comment, .Ltmp818-FLAC__metadata_object_vorbiscomment_set_comment
.Lfunc_end20:
	.cfi_endproc

	.section	.cp.rodata.cst4,"aMc",@progbits,4
	.cc_top .LCPI21_0.data,.LCPI21_0
	.align	4
	.type	.LCPI21_0,@object
	.size	.LCPI21_0, 4
.LCPI21_0:
	.long	536870911
	.cc_bottom .LCPI21_0.data
	.text
	.globl	FLAC__metadata_object_vorbiscomment_insert_comment
	.align	4
	.type	FLAC__metadata_object_vorbiscomment_insert_comment,@function
	.cc_top FLAC__metadata_object_vorbiscomment_insert_comment.function,FLAC__metadata_object_vorbiscomment_insert_comment
FLAC__metadata_object_vorbiscomment_insert_comment:
.Lfunc_begin21:
	.loc	4 1251 0
	.cfi_startproc
	.issue_mode dual
	{
		nop
		dualentsp 14
	}
.Ltmp819:
	.cfi_def_cfa_offset 56
.Ltmp820:
	.cfi_offset 15, 0
	std r5, r4, sp[3]
.Ltmp821:
	.cfi_offset 4, -32
.Ltmp822:
	.cfi_offset 5, -28
	std r7, r6, sp[4]
.Ltmp823:
	.cfi_offset 6, -24
.Ltmp824:
	.cfi_offset 7, -20
	std r9, r8, sp[5]
.Ltmp825:
	.cfi_offset 8, -16
.Ltmp826:
	.cfi_offset 9, -12
.Ltmp827:
	.cfi_offset 10, -8
.Ltmp828:
	{
		mov r4, r3
		stw r10, sp[12]
	}
.Ltmp829:
	{
		mov r6, r1
		mov r5, r0
	}
.Ltmp830:
	{
		nop
		ldw r0, r2[1]
	}
	{
		nop
		stw r0, sp[3]
	}
	{
		nop
		ldw r0, r2[0]
	}
	{
		eq r0, r5, 0
		stw r0, sp[2]
	}
	.loc	4 1255 2 prologue_end
.Ltmp831:
	{
		eq r7, r0, 0
		nop
	}
	.loc	4 1255 2
	{
		mov r0, r7
		nop
	}
	bl assert
	{
		nop
		ldw r0, r5[0]
	}
	.loc	4 1256 2
	{
		eq r0, r0, 4
		nop
	}
	.loc	4 1256 2
	bl assert
	{
		nop
		ldw r0, r5[6]
	}
	.loc	4 1257 2
	{
		lsu r0, r0, r6
		nop
	}
	{
		eq r0, r0, 0
		nop
	}
	.loc	4 1257 2
	bl assert
	{
		nop
		ldw r0, sp[3]
	}
	{
		nop
		ldw r1, sp[2]
	}
	.loc	4 1259 7
.Ltmp832:
	bl FLAC__format_vorbiscomment_entry_is_legal
	{
		ldc r8, 0
		nop
	}
	bf r0, .LBB21_5
.Ltmp833:
	{
		nop
		ldw r0, r5[6]
	}
	.loc	4 1264 7
.Ltmp834:
	{
		add r1, r0, 1
		mov r0, r5
	}
	.loc	4 1264 7
	bl FLAC__metadata_object_vorbiscomment_resize_comments
	bf r0, .LBB21_5
.Ltmp835:
	{
		ldaw r8, sp[2]
		stw r4, sp[1]
	}
	{
		nop
		ldw r2, r5[6]
	}
	.loc	4 1269 2
	{
		shl r0, r2, 3
		ldw r1, r5[7]
	}
	.loc	4 1269 2
	{
		add r0, r0, r1
		nop
	}
	.loc	4 1269 2
	{
		sub r3, r0, 8
		nop
	}
	.loc	4 1269 2
	{
		sub r0, r0, 4
		ldw r9, r3[0]
	}
	{
		shl r10, r6, 3
		ldw r4, r0[0]
	}
	.loc	4 1270 2
	{
		add r1, r1, r10
		nop
	}
	.loc	4 1270 2
	{
		add r0, r1, 8
		nop
	}
	ldw r3, cp[.LCPI21_0]
	.loc	4 1270 2
	{
		sub r3, r3, r6
		nop
	}
	.loc	4 1270 2
	{
		add r2, r3, r2
		nop
	}
	.loc	4 1270 2
	{
		shl r2, r2, 3
		nop
	}
	.loc	4 1270 2
	bl memmove
	{
		nop
		ldw r0, r5[7]
	}
	.loc	4 1271 2
	{
		add r0, r0, r10
		nop
	}
	{
		nop
		stw r4, r0[1]
	}
	.loc	4 1271 2
	{
		add r0, r8, 4
		stw r9, r0[0]
	}
	.loc	4 1240 91
.Ltmp836:
	bl __misaligned_load
	{
		mov r9, r0
		mov r0, r8
	}
	bl __misaligned_load
	{
		mov r8, r0
		nop
	}
	.loc	4 1240 91
	std r9, r8, sp[2]
.Ltmp837:
	.loc	4 1242 2
	{
		mov r0, r7
		nop
	}
	bl assert
	{
		nop
		ldw r0, r5[6]
	}
	.loc	4 1243 2
	{
		lsu r0, r6, r0
		nop
	}
	.loc	4 1243 2
	bl assert
	.loc	4 1245 7
.Ltmp838:
	{
		mov r0, r9
		mov r1, r8
	}
	bl FLAC__format_vorbiscomment_entry_is_legal
	.loc	4 1245 7
	bf r0, .LBB21_3
.Ltmp839:
	{
		nop
		ldw r0, r5[7]
	}
.Ltmp840:
	.loc	4 1247 9
	{
		add r1, r0, r10
		ldaw r2, sp[4]
	}
	.loc	4 1247 9
	{
		mov r0, r5
		ldw r3, sp[1]
	}
	bl vorbiscomment_set_entry_
	{
		mov r8, r0
		nop
	}
	bu .LBB21_5
.Ltmp841:
.LBB21_3:
	{
		ldc r8, 0
		nop
	}
.Ltmp842:
.LBB21_5:
	.loc	4 1274 1
	{
		mov r0, r8
		ldw r10, sp[12]
	}
	ldd r9, r8, sp[5]
	ldd r7, r6, sp[4]
	ldd r5, r4, sp[3]
	{
		nop
		retsp 14
	}
.Ltmp843:
	# RETURN_REG_HOLDER
.Ltmp844:
	.cc_bottom FLAC__metadata_object_vorbiscomment_insert_comment.function
	.set	FLAC__metadata_object_vorbiscomment_insert_comment.nstackwords,((FLAC__metadata_object_vorbiscomment_resize_comments.nstackwords $M memmove.nstackwords $M __misaligned_load.nstackwords $M assert.nstackwords $M FLAC__format_vorbiscomment_entry_is_legal.nstackwords $M vorbiscomment_set_entry_.nstackwords) + 14)
	.globl	FLAC__metadata_object_vorbiscomment_insert_comment.nstackwords
	.set	FLAC__metadata_object_vorbiscomment_insert_comment.maxcores,FLAC__format_vorbiscomment_entry_is_legal.maxcores $M FLAC__metadata_object_vorbiscomment_resize_comments.maxcores $M vorbiscomment_set_entry_.maxcores $M 1
	.globl	FLAC__metadata_object_vorbiscomment_insert_comment.maxcores
	.set	FLAC__metadata_object_vorbiscomment_insert_comment.maxtimers,FLAC__format_vorbiscomment_entry_is_legal.maxtimers $M FLAC__metadata_object_vorbiscomment_resize_comments.maxtimers $M vorbiscomment_set_entry_.maxtimers $M 0
	.globl	FLAC__metadata_object_vorbiscomment_insert_comment.maxtimers
	.set	FLAC__metadata_object_vorbiscomment_insert_comment.maxchanends,FLAC__format_vorbiscomment_entry_is_legal.maxchanends $M FLAC__metadata_object_vorbiscomment_resize_comments.maxchanends $M vorbiscomment_set_entry_.maxchanends $M 0
	.globl	FLAC__metadata_object_vorbiscomment_insert_comment.maxchanends
.Ltmp845:
	.size	FLAC__metadata_object_vorbiscomment_insert_comment, .Ltmp845-FLAC__metadata_object_vorbiscomment_insert_comment
.Lfunc_end21:
	.cfi_endproc

	.globl	FLAC__metadata_object_vorbiscomment_append_comment
	.align	4
	.type	FLAC__metadata_object_vorbiscomment_append_comment,@function
	.cc_top FLAC__metadata_object_vorbiscomment_append_comment.function,FLAC__metadata_object_vorbiscomment_append_comment
FLAC__metadata_object_vorbiscomment_append_comment:
.Lfunc_begin22:
	.loc	4 1277 0
	.cfi_startproc
	.issue_mode dual
	{
		nop
		dualentsp 6
	}
.Ltmp846:
	.cfi_def_cfa_offset 24
.Ltmp847:
	.cfi_offset 15, 0
	std r5, r4, sp[2]
.Ltmp848:
	.cfi_offset 4, -8
.Ltmp849:
	.cfi_offset 5, -4
.Ltmp850:
	{
		mov r4, r2
		mov r5, r0
	}
.Ltmp851:
	{
		nop
		ldw r0, r1[1]
	}
	{
		nop
		stw r0, sp[3]
	}
	{
		nop
		ldw r0, r1[0]
	}
	{
		eq r0, r5, 0
		stw r0, sp[2]
	}
	.loc	4 1278 2 prologue_end
.Ltmp852:
	{
		eq r0, r0, 0
		nop
	}
	.loc	4 1278 2
	bl assert
	{
		nop
		ldw r0, r5[0]
	}
	.loc	4 1279 2
	{
		eq r0, r0, 4
		nop
	}
	.loc	4 1279 2
	bl assert
	.loc	4 1280 9
	{
		ldaw r2, sp[2]
		ldw r1, r5[6]
	}
.Ltmp853:
	.loc	4 1280 9
	{
		mov r0, r5
		mov r3, r4
	}
.Ltmp854:
	bl FLAC__metadata_object_vorbiscomment_insert_comment
	.loc	4 1280 9
	ldd r5, r4, sp[2]
	{
		nop
		retsp 6
	}
.Ltmp855:
	# RETURN_REG_HOLDER
.Ltmp856:
	.cc_bottom FLAC__metadata_object_vorbiscomment_append_comment.function
	.set	FLAC__metadata_object_vorbiscomment_append_comment.nstackwords,((assert.nstackwords $M FLAC__metadata_object_vorbiscomment_insert_comment.nstackwords) + 6)
	.globl	FLAC__metadata_object_vorbiscomment_append_comment.nstackwords
	.set	FLAC__metadata_object_vorbiscomment_append_comment.maxcores,FLAC__metadata_object_vorbiscomment_insert_comment.maxcores $M 1
	.globl	FLAC__metadata_object_vorbiscomment_append_comment.maxcores
	.set	FLAC__metadata_object_vorbiscomment_append_comment.maxtimers,FLAC__metadata_object_vorbiscomment_insert_comment.maxtimers $M 0
	.globl	FLAC__metadata_object_vorbiscomment_append_comment.maxtimers
	.set	FLAC__metadata_object_vorbiscomment_append_comment.maxchanends,FLAC__metadata_object_vorbiscomment_insert_comment.maxchanends $M 0
	.globl	FLAC__metadata_object_vorbiscomment_append_comment.maxchanends
.Ltmp857:
	.size	FLAC__metadata_object_vorbiscomment_append_comment, .Ltmp857-FLAC__metadata_object_vorbiscomment_append_comment
.Lfunc_end22:
	.cfi_endproc

	.globl	FLAC__metadata_object_vorbiscomment_replace_comment
	.align	4
	.type	FLAC__metadata_object_vorbiscomment_replace_comment,@function
	.cc_top FLAC__metadata_object_vorbiscomment_replace_comment.function,FLAC__metadata_object_vorbiscomment_replace_comment
FLAC__metadata_object_vorbiscomment_replace_comment:
.Lfunc_begin23:
	.loc	4 1284 0
	.cfi_startproc
	.issue_mode dual
	{
		nop
		dualentsp 18
	}
.Ltmp858:
	.cfi_def_cfa_offset 72
.Ltmp859:
	.cfi_offset 15, 0
	std r5, r4, sp[5]
.Ltmp860:
	.cfi_offset 4, -32
.Ltmp861:
	.cfi_offset 5, -28
	std r7, r6, sp[6]
.Ltmp862:
	.cfi_offset 6, -24
.Ltmp863:
	.cfi_offset 7, -20
	std r9, r8, sp[7]
.Ltmp864:
	.cfi_offset 8, -16
.Ltmp865:
	.cfi_offset 9, -12
.Ltmp866:
	.cfi_offset 10, -8
.Ltmp867:
	{
		mov r8, r3
		stw r10, sp[16]
	}
.Ltmp868:
	{
		mov r9, r2
		mov r4, r0
	}
.Ltmp869:
	{
		nop
		ldw r0, r1[1]
	}
	{
		nop
		stw r0, sp[7]
	}
	{
		nop
		ldw r0, r1[0]
	}
	{
		nop
		stw r0, sp[6]
	}
	{
		nop
		ldw r10, sp[7]
	}
.Ltmp870:
	.loc	4 1285 2 prologue_end
	{
		eq r0, r10, 0
		nop
	}
	{
		eq r5, r0, 0
		nop
	}
	.loc	4 1285 2
	{
		mov r0, r5
		nop
	}
	bl assert
	.loc	4 1287 7
.Ltmp871:
	{
		mov r0, r10
		ldw r6, sp[6]
	}
	.loc	4 1287 7
	{
		mov r1, r6
		nop
	}
	bl FLAC__format_vorbiscomment_entry_is_legal
	{
		ldc r7, 0
		nop
	}
	bf r0, .LBB23_34
.Ltmp872:
	{
		ldc r1, 61
		mov r0, r10
	}
	.loc	4 1293 39
.Ltmp873:
	{
		mov r2, r6
		nop
	}
	bl memchr
	{
		mov r6, r0
		nop
	}
.Ltmp874:
	bf r6, .LBB23_34
.Ltmp875:
	{
		nop
		stw r9, sp[2]
	}
.Ltmp876:
	{
		eq r0, r4, 0
		stw r8, sp[3]
	}
	.loc	4 299 2
.Ltmp877:
	{
		eq r0, r0, 0
		nop
	}
	{
		nop
		stw r0, sp[4]
	}
	.loc	4 299 2
	bl assert
	{
		nop
		ldw r0, r4[0]
	}
	.loc	4 300 2
	{
		eq r0, r0, 4
		nop
	}
	.loc	4 300 2
	bl assert
	.loc	4 301 2
	{
		mov r0, r5
		nop
	}
	bl assert
.Ltmp878:
	{
		nop
		ldw r0, r4[6]
	}
	bf r0, .LBB23_8
.Ltmp879:
	.loc	4 1298 3
	{
		sub r0, r6, r10
		nop
	}
.Ltmp880:
	{
		ldc r8, 0
		stw r0, sp[5]
	}
	{
		ldc r6, 4
		ldc r5, 61
	}
.Ltmp881:
.LBB23_4:
	{
		nop
		ldw r0, r4[7]
	}
	{
		add r7, r0, r6
		nop
	}
	{
		sub r0, r7, 4
		nop
	}
	.loc	4 1404 118
.Ltmp882:
	bl __misaligned_load
	{
		mov r9, r0
		mov r0, r7
	}
	.loc	4 1404 118
	bl __misaligned_load
	{
		mov r7, r0
		nop
	}
	.loc	4 1406 2
	{
		eq r0, r7, 0
		nop
	}
	{
		eq r0, r0, 0
		nop
	}
	.loc	4 1406 2
	bl assert
	.loc	4 1408 39
.Ltmp883:
	{
		mov r0, r7
		mov r1, r5
	}
	{
		mov r2, r9
		nop
	}
	bl memchr
.Ltmp884:
	bf r0, .LBB23_7
.Ltmp885:
	.loc	4 1409 3
	{
		sub r0, r0, r7
		ldw r1, sp[5]
	}
.Ltmp886:
	.loc	4 1409 3
	{
		eq r0, r0, r1
		nop
	}
	bf r0, .LBB23_7
.Ltmp887:
	.loc	4 1409 76
	{
		mov r0, r10
		mov r1, r7
	}
	{
		nop
		ldw r2, sp[5]
	}
	bl strncasecmp
	bf r0, .LBB23_9
.Ltmp888:
.LBB23_7:
	.loc	4 303 65
	{
		add r8, r8, 1
		ldw r0, r4[6]
	}
.Ltmp889:
	.loc	4 303 2
	{
		add r6, r6, 8
		lsu r0, r8, r0
	}
	bt r0, .LBB23_4
	bu .LBB23_8
.Ltmp890:
.LBB23_9:
	.loc	4 1301 7
	ashr r0, r8, 32
	bt r0, .LBB23_8
.Ltmp891:
	{
		ldaw r9, sp[6]
		nop
	}
	.loc	4 1240 91
.Ltmp892:
	{
		add r0, r9, 4
		nop
	}
	bl __misaligned_load
	{
		mov r5, r0
		mov r0, r9
	}
	bl __misaligned_load
	{
		mov r7, r0
		nop
	}
	.loc	4 1240 91
	std r5, r7, sp[4]
.Ltmp893:
	{
		nop
		ldw r6, sp[4]
	}
	.loc	4 1242 2
	{
		mov r0, r6
		nop
	}
	bl assert
	{
		nop
		ldw r0, r4[6]
	}
	.loc	4 1243 2
	{
		lsu r0, r8, r0
		nop
	}
	.loc	4 1243 2
	bl assert
	.loc	4 1245 7
.Ltmp894:
	{
		mov r0, r5
		mov r1, r7
	}
	bl FLAC__format_vorbiscomment_entry_is_legal
	.loc	4 1245 7
	bf r0, .LBB23_11
.Ltmp895:
	.loc	4 1247 9
	{
		shl r5, r8, 3
		ldw r0, r4[7]
	}
.Ltmp896:
	.loc	4 1247 9
	{
		add r1, r0, r5
		ldaw r2, sp[8]
	}
	.loc	4 1247 9
	{
		mov r0, r4
		ldw r3, sp[3]
	}
	bl vorbiscomment_set_entry_
.Ltmp897:
	.loc	4 1303 9
	bf r0, .LBB23_13
.Ltmp898:
	{
		nop
		ldw r0, r4[7]
	}
	.loc	4 1305 4
	{
		add r0, r0, r5
		nop
	}
	{
		nop
		ldw r1, r0[0]
	}
	{
		nop
		ldw r0, r0[1]
	}
	{
		nop
		stw r0, sp[3]
	}
	{
		nop
		stw r0, r9[1]
	}
	.loc	4 1305 4
	{
		mkmsk r7, 1
		stw r1, r9[0]
	}
	{
		nop
		ldw r0, sp[2]
	}
	bf r0, .LBB23_34
.Ltmp899:
	.loc	4 1306 4
	{
		add r8, r8, 1
		ldw r0, r4[6]
	}
.Ltmp900:
	.loc	4 1307 8
	{
		lsu r0, r8, r0
		nop
	}
	bf r0, .LBB23_34
.Ltmp901:
	.loc	4 299 2
	{
		mov r0, r6
		nop
	}
	bl assert
	{
		nop
		ldw r0, r4[0]
	}
	.loc	4 300 2
	{
		eq r0, r0, 4
		nop
	}
	.loc	4 300 2
	bl assert
	{
		nop
		ldw r0, sp[3]
	}
	.loc	4 301 2
	{
		eq r0, r0, 0
		nop
	}
	{
		eq r6, r0, 0
		nop
	}
	.loc	4 301 2
	{
		mov r0, r6
		nop
	}
	bl assert
	{
		nop
		ldw r0, r4[6]
	}
	.loc	4 303 2
.Ltmp902:
	{
		lsu r0, r8, r0
		nop
	}
	bf r0, .LBB23_34
.Ltmp903:
	{
		nop
		stw r6, sp[2]
	}
	.loc	4 304 7
.Ltmp904:
	ldaw r6, r5[3]
	{
		ldc r5, 61
		nop
	}
.Ltmp905:
.LBB23_18:
	{
		nop
		ldw r0, r4[7]
	}
	{
		add r10, r0, r6
		nop
	}
	{
		sub r0, r10, 4
		nop
	}
	.loc	4 1404 118
.Ltmp906:
	bl __misaligned_load
	{
		mov r9, r0
		mov r0, r10
	}
	.loc	4 1404 118
	bl __misaligned_load
	{
		mov r10, r0
		nop
	}
	.loc	4 1406 2
	{
		eq r0, r10, 0
		nop
	}
	{
		eq r0, r0, 0
		nop
	}
	.loc	4 1406 2
	bl assert
	.loc	4 1408 39
.Ltmp907:
	{
		mov r0, r10
		mov r1, r5
	}
	{
		mov r2, r9
		nop
	}
	bl memchr
.Ltmp908:
	bf r0, .LBB23_21
.Ltmp909:
	.loc	4 1409 3
	{
		sub r0, r0, r10
		ldw r1, sp[5]
	}
.Ltmp910:
	.loc	4 1409 3
	{
		eq r0, r0, r1
		nop
	}
	bf r0, .LBB23_21
.Ltmp911:
	.loc	4 1409 76
	{
		mov r1, r10
		ldw r0, sp[3]
	}
	{
		nop
		ldw r2, sp[5]
	}
	bl strncasecmp
	bf r0, .LBB23_22
.Ltmp912:
.LBB23_21:
	.loc	4 303 65
	{
		add r8, r8, 1
		ldw r0, r4[6]
	}
.Ltmp913:
	.loc	4 303 2
	{
		add r6, r6, 8
		lsu r0, r8, r0
	}
	bt r0, .LBB23_18
	bu .LBB23_34
.Ltmp914:
.LBB23_8:
	{
		ldaw r6, sp[6]
		nop
	}
	.loc	4 1276 94
.Ltmp915:
	{
		add r0, r6, 4
		nop
	}
	bl __misaligned_load
	{
		mov r5, r0
		mov r0, r6
	}
	bl __misaligned_load
	.loc	4 1276 94
	std r5, r0, sp[4]
	{
		nop
		ldw r0, sp[4]
	}
	.loc	4 1278 2
	bl assert
	{
		nop
		ldw r0, r4[0]
	}
	.loc	4 1279 2
	{
		eq r0, r0, 4
		nop
	}
	.loc	4 1279 2
	bl assert
.Ltmp916:
	.loc	4 1280 9
	{
		ldaw r2, sp[8]
		ldw r1, r4[6]
	}
	.loc	4 1280 9
	{
		mov r0, r4
		ldw r3, sp[3]
	}
	bl FLAC__metadata_object_vorbiscomment_insert_comment
	{
		mov r7, r0
		nop
	}
.Ltmp917:
.LBB23_34:
	.loc	4 1324 1
	{
		mov r0, r7
		ldw r10, sp[16]
	}
	ldd r9, r8, sp[7]
	ldd r7, r6, sp[6]
	ldd r5, r4, sp[5]
	{
		nop
		retsp 18
	}
.Ltmp918:
	# RETURN_REG_HOLDER
.LBB23_11:
.Ltmp919:
	{
		ldc r7, 0
		nop
	}
	bu .LBB23_34
.Ltmp920:
.LBB23_13:
	{
		ldc r7, 0
		nop
	}
	bu .LBB23_34
.Ltmp921:
.LBB23_22:
	.loc	4 1309 5
	ashr r0, r8, 32
	bt r0, .LBB23_34
.Ltmp922:
	{
		ldc r9, 0
		ldc r10, 61
	}
.Ltmp923:
.LBB23_24:
	{
		nop
		ldw r6, sp[4]
	}
	.loc	4 1330 2
.Ltmp924:
	{
		mov r0, r6
		nop
	}
	bl assert
	{
		nop
		ldw r0, r4[0]
	}
	.loc	4 1331 2
	{
		eq r0, r0, 4
		nop
	}
	.loc	4 1331 2
	bl assert
	{
		nop
		ldw r0, r4[6]
	}
	.loc	4 1332 2
	{
		lsu r0, r8, r0
		nop
	}
	.loc	4 1332 2
	bl assert
	.loc	4 1337 2
	{
		shl r5, r8, 3
		ldw r0, r4[7]
	}
	.loc	4 1337 2
	{
		add r0, r0, r5
		nop
	}
	{
		nop
		ldw r0, r0[1]
	}
	.loc	4 1337 2
	bl free
	{
		nop
		ldw r0, r4[7]
	}
	.loc	4 1340 2
	{
		add r0, r0, r5
		nop
	}
	.loc	4 1340 2
	{
		add r1, r0, 8
		ldw r2, r4[6]
	}
	.loc	4 1340 2
	{
		sub r2, r2, r8
		nop
	}
	.loc	4 1340 2
	{
		shl r2, r2, 3
		nop
	}
	.loc	4 1340 2
	{
		sub r2, r2, 8
		nop
	}
	.loc	4 1340 2
	bl memmove
	{
		nop
		ldw r0, r4[6]
	}
	.loc	4 1341 2
	{
		sub r1, r0, 1
		ldw r0, r4[7]
	}
	.loc	4 1341 2
	{
		shl r2, r1, 3
		nop
	}
	{
		add r0, r0, r2
		nop
	}
	{
		nop
		stw r9, r0[0]
	}
	.loc	4 1342 2
	{
		mov r0, r4
		stw r9, r0[1]
	}
	.loc	4 1344 9
	bl FLAC__metadata_object_vorbiscomment_resize_comments
.Ltmp925:
	.loc	4 1311 11
	bf r0, .LBB23_25
.Ltmp926:
	{
		nop
		ldw r0, r4[6]
	}
	.loc	4 1313 10
.Ltmp927:
	{
		lsu r0, r8, r0
		nop
	}
	bf r0, .LBB23_34
.Ltmp928:
	.loc	4 299 2
	{
		mov r0, r6
		nop
	}
	bl assert
	{
		nop
		ldw r0, r4[0]
	}
	.loc	4 300 2
	{
		eq r0, r0, 4
		nop
	}
	.loc	4 300 2
	bl assert
	{
		nop
		ldw r0, sp[2]
	}
	.loc	4 301 2
	bl assert
	{
		nop
		ldw r0, r4[6]
	}
	.loc	4 303 2
.Ltmp929:
	{
		lsu r0, r8, r0
		nop
	}
	bf r0, .LBB23_34
.Ltmp930:
	{
		ldc r0, 4
		nop
	}
	.loc	4 304 7
.Ltmp931:
	{
		or r6, r5, r0
		nop
	}
.Ltmp932:
.LBB23_29:
	{
		nop
		ldw r0, r4[7]
	}
	{
		add r5, r0, r6
		nop
	}
	{
		sub r0, r5, 4
		nop
	}
	.loc	4 1404 118
.Ltmp933:
	bl __misaligned_load
	{
		mov r9, r0
		mov r0, r5
	}
	.loc	4 1404 118
	bl __misaligned_load
	{
		mov r5, r0
		nop
	}
	.loc	4 1406 2
	{
		eq r0, r5, 0
		nop
	}
	{
		eq r0, r0, 0
		nop
	}
	.loc	4 1406 2
	bl assert
	.loc	4 1408 39
.Ltmp934:
	{
		mov r0, r5
		mov r1, r10
	}
	{
		mov r2, r9
		nop
	}
	bl memchr
.Ltmp935:
	bf r0, .LBB23_33
.Ltmp936:
	.loc	4 1409 3
	{
		sub r0, r0, r5
		ldw r1, sp[5]
	}
.Ltmp937:
	.loc	4 1409 3
	{
		eq r0, r0, r1
		nop
	}
	bf r0, .LBB23_33
.Ltmp938:
	.loc	4 1409 76
	{
		mov r1, r5
		ldw r0, sp[3]
	}
	{
		nop
		ldw r2, sp[5]
	}
	bl strncasecmp
	bf r0, .LBB23_32
.Ltmp939:
.LBB23_33:
	.loc	4 303 65
	{
		add r8, r8, 1
		ldw r0, r4[6]
	}
.Ltmp940:
	.loc	4 303 2
	{
		add r6, r6, 8
		lsu r0, r8, r0
	}
	bt r0, .LBB23_29
	bu .LBB23_34
.Ltmp941:
.LBB23_32:
	.loc	4 1309 5
	ashr r0, r8, 32
	{
		ldc r9, 0
		nop
	}
	bf r0, .LBB23_24
	bu .LBB23_34
.Ltmp942:
.LBB23_25:
	{
		mov r7, r9
		nop
	}
	bu .LBB23_34
	.cc_bottom FLAC__metadata_object_vorbiscomment_replace_comment.function
	.set	FLAC__metadata_object_vorbiscomment_replace_comment.nstackwords,((FLAC__metadata_object_vorbiscomment_insert_comment.nstackwords $M FLAC__format_vorbiscomment_entry_is_legal.nstackwords $M vorbiscomment_set_entry_.nstackwords $M free.nstackwords $M memmove.nstackwords $M FLAC__metadata_object_vorbiscomment_resize_comments.nstackwords $M __misaligned_load.nstackwords $M assert.nstackwords $M memchr.nstackwords $M strncasecmp.nstackwords) + 18)
	.globl	FLAC__metadata_object_vorbiscomment_replace_comment.nstackwords
	.set	FLAC__metadata_object_vorbiscomment_replace_comment.maxcores,FLAC__format_vorbiscomment_entry_is_legal.maxcores $M FLAC__metadata_object_vorbiscomment_insert_comment.maxcores $M FLAC__metadata_object_vorbiscomment_resize_comments.maxcores $M free.maxcores $M memchr.maxcores $M strncasecmp.maxcores $M vorbiscomment_set_entry_.maxcores $M 1
	.globl	FLAC__metadata_object_vorbiscomment_replace_comment.maxcores
	.set	FLAC__metadata_object_vorbiscomment_replace_comment.maxtimers,FLAC__format_vorbiscomment_entry_is_legal.maxtimers $M FLAC__metadata_object_vorbiscomment_insert_comment.maxtimers $M FLAC__metadata_object_vorbiscomment_resize_comments.maxtimers $M free.maxtimers $M memchr.maxtimers $M strncasecmp.maxtimers $M vorbiscomment_set_entry_.maxtimers $M 0
	.globl	FLAC__metadata_object_vorbiscomment_replace_comment.maxtimers
	.set	FLAC__metadata_object_vorbiscomment_replace_comment.maxchanends,FLAC__format_vorbiscomment_entry_is_legal.maxchanends $M FLAC__metadata_object_vorbiscomment_insert_comment.maxchanends $M FLAC__metadata_object_vorbiscomment_resize_comments.maxchanends $M free.maxchanends $M memchr.maxchanends $M strncasecmp.maxchanends $M vorbiscomment_set_entry_.maxchanends $M 0
	.globl	FLAC__metadata_object_vorbiscomment_replace_comment.maxchanends
.Ltmp943:
	.size	FLAC__metadata_object_vorbiscomment_replace_comment, .Ltmp943-FLAC__metadata_object_vorbiscomment_replace_comment
.Lfunc_end23:
	.cfi_endproc

	.globl	FLAC__metadata_object_vorbiscomment_delete_comment
	.align	4
	.type	FLAC__metadata_object_vorbiscomment_delete_comment,@function
	.cc_top FLAC__metadata_object_vorbiscomment_delete_comment.function,FLAC__metadata_object_vorbiscomment_delete_comment
FLAC__metadata_object_vorbiscomment_delete_comment:
.Lfunc_begin24:
	.loc	4 1327 0
	.cfi_startproc
	.issue_mode dual
	{
		nop
		dualentsp 6
	}
.Ltmp944:
	.cfi_def_cfa_offset 24
.Ltmp945:
	.cfi_offset 15, 0
	std r5, r4, sp[1]
.Ltmp946:
	.cfi_offset 4, -16
.Ltmp947:
	.cfi_offset 5, -12
.Ltmp948:
	.cfi_offset 6, -8
.Ltmp949:
	{
		mov r5, r1
		stw r6, sp[4]
	}
.Ltmp950:
	{
		mov r4, r0
		nop
	}
.Ltmp951:
	.loc	4 1330 2 prologue_end
	{
		eq r0, r4, 0
		nop
	}
	{
		eq r0, r0, 0
		nop
	}
	.loc	4 1330 2
	bl assert
	{
		nop
		ldw r0, r4[0]
	}
	.loc	4 1331 2
	{
		eq r0, r0, 4
		nop
	}
	.loc	4 1331 2
	bl assert
	{
		nop
		ldw r0, r4[6]
	}
	.loc	4 1332 2
	{
		lsu r0, r5, r0
		nop
	}
	.loc	4 1332 2
	bl assert
	.loc	4 1337 2
	{
		shl r6, r5, 3
		ldw r0, r4[7]
	}
	.loc	4 1337 2
	{
		add r0, r0, r6
		nop
	}
	{
		nop
		ldw r0, r0[1]
	}
	.loc	4 1337 2
	bl free
	{
		nop
		ldw r0, r4[7]
	}
	.loc	4 1340 2
	{
		add r0, r0, r6
		nop
	}
	.loc	4 1340 2
	{
		add r1, r0, 8
		ldw r2, r4[6]
	}
	.loc	4 1340 2
	{
		sub r2, r2, r5
		nop
	}
	.loc	4 1340 2
	{
		shl r2, r2, 3
		nop
	}
	.loc	4 1340 2
	{
		sub r2, r2, 8
		nop
	}
	.loc	4 1340 2
	bl memmove
	{
		nop
		ldw r0, r4[6]
	}
	.loc	4 1341 2
	{
		sub r1, r0, 1
		ldw r0, r4[7]
	}
	.loc	4 1341 2
	{
		shl r2, r1, 3
		nop
	}
	{
		add r0, r0, r2
		ldc r2, 0
	}
	{
		nop
		stw r2, r0[0]
	}
	.loc	4 1342 2
	{
		mov r0, r4
		stw r2, r0[1]
	}
	.loc	4 1344 9
	bl FLAC__metadata_object_vorbiscomment_resize_comments
	{
		nop
		ldw r6, sp[4]
	}
	.loc	4 1344 9
	ldd r5, r4, sp[1]
.Ltmp952:
	{
		nop
		retsp 6
	}
	# RETURN_REG_HOLDER
.Ltmp953:
	.cc_bottom FLAC__metadata_object_vorbiscomment_delete_comment.function
	.set	FLAC__metadata_object_vorbiscomment_delete_comment.nstackwords,((assert.nstackwords $M free.nstackwords $M memmove.nstackwords $M FLAC__metadata_object_vorbiscomment_resize_comments.nstackwords) + 6)
	.globl	FLAC__metadata_object_vorbiscomment_delete_comment.nstackwords
	.set	FLAC__metadata_object_vorbiscomment_delete_comment.maxcores,FLAC__metadata_object_vorbiscomment_resize_comments.maxcores $M free.maxcores $M 1
	.globl	FLAC__metadata_object_vorbiscomment_delete_comment.maxcores
	.set	FLAC__metadata_object_vorbiscomment_delete_comment.maxtimers,FLAC__metadata_object_vorbiscomment_resize_comments.maxtimers $M free.maxtimers $M 0
	.globl	FLAC__metadata_object_vorbiscomment_delete_comment.maxtimers
	.set	FLAC__metadata_object_vorbiscomment_delete_comment.maxchanends,FLAC__metadata_object_vorbiscomment_resize_comments.maxchanends $M free.maxchanends $M 0
	.globl	FLAC__metadata_object_vorbiscomment_delete_comment.maxchanends
.Ltmp954:
	.size	FLAC__metadata_object_vorbiscomment_delete_comment, .Ltmp954-FLAC__metadata_object_vorbiscomment_delete_comment
.Lfunc_end24:
	.cfi_endproc

	.globl	FLAC__metadata_object_vorbiscomment_entry_from_name_value_pair
	.align	4
	.type	FLAC__metadata_object_vorbiscomment_entry_from_name_value_pair,@function
	.cc_top FLAC__metadata_object_vorbiscomment_entry_from_name_value_pair.function,FLAC__metadata_object_vorbiscomment_entry_from_name_value_pair
FLAC__metadata_object_vorbiscomment_entry_from_name_value_pair:
.Lfunc_begin25:
	.loc	4 1348 0
	.cfi_startproc
	.issue_mode dual
	{
		nop
		dualentsp 12
	}
.Ltmp955:
	.cfi_def_cfa_offset 48
.Ltmp956:
	.cfi_offset 15, 0
	std r5, r4, sp[2]
.Ltmp957:
	.cfi_offset 4, -32
.Ltmp958:
	.cfi_offset 5, -28
	std r7, r6, sp[3]
.Ltmp959:
	.cfi_offset 6, -24
.Ltmp960:
	.cfi_offset 7, -20
	std r9, r8, sp[4]
.Ltmp961:
	.cfi_offset 8, -16
.Ltmp962:
	.cfi_offset 9, -12
.Ltmp963:
	.cfi_offset 10, -8
.Ltmp964:
	{
		mov r4, r2
		stw r10, sp[10]
	}
.Ltmp965:
	{
		mov r5, r1
		mov r6, r0
	}
.Ltmp966:
	.loc	4 1349 2 prologue_end
	{
		eq r0, r6, 0
		nop
	}
	{
		eq r0, r0, 0
		nop
	}
	.loc	4 1349 2
	bl assert
	.loc	4 1350 2
	{
		eq r0, r5, 0
		nop
	}
	{
		eq r0, r0, 0
		nop
	}
	.loc	4 1350 2
	bl assert
	.loc	4 1351 2
	{
		eq r0, r4, 0
		nop
	}
	{
		eq r0, r0, 0
		nop
	}
	.loc	4 1351 2
	bl assert
	.loc	4 1353 7
.Ltmp967:
	{
		mov r0, r5
		nop
	}
	bl FLAC__format_vorbiscomment_entry_name_is_legal
	{
		ldc r7, 0
		nop
	}
	bf r0, .LBB25_8
.Ltmp968:
	{
		mkmsk r10, 32
		mov r0, r4
	}
	.loc	4 1355 7
.Ltmp969:
	{
		mov r1, r10
		nop
	}
	bl FLAC__format_vorbiscomment_entry_value_is_legal
	bf r0, .LBB25_8
.Ltmp970:
	.loc	4 1359 21
	{
		mov r0, r5
		nop
	}
	bl strlen
.Ltmp971:
	{
		mov r8, r0
		mov r0, r4
	}
.Ltmp972:
	.loc	4 1360 21
	bl strlen
.Ltmp973:
	.loc	4 1361 3
	{
		add r3, r8, 1
		nop
	}
	.loc	4 1361 3
	{
		add r9, r3, r0
		nop
	}
.Ltmp974:
	.loc	4 1361 3
	{
		eq r1, r8, r10
		stw r9, r6[0]
	}
	bt r1, .LBB25_5
.Ltmp975:
	.loc	5 150 2
	{
		lsu r1, r9, r3
		nop
	}
	bt r1, .LBB25_5
.Ltmp976:
	.loc	5 153 2
	{
		add r2, r9, 1
		nop
	}
	.loc	5 154 5
.Ltmp977:
	{
		lsu r1, r2, r9
		nop
	}
	bf r1, .LBB25_6
.Ltmp978:
.LBB25_5:
	{
		ldc r7, 0
		nop
	}
	{
		nop
		stw r7, r6[1]
	}
.Ltmp979:
.LBB25_8:
	.loc	4 1371 1
	{
		mov r0, r7
		ldw r10, sp[10]
	}
	ldd r9, r8, sp[4]
	ldd r7, r6, sp[3]
	ldd r5, r4, sp[2]
	{
		nop
		retsp 12
	}
	# RETURN_REG_HOLDER
.LBB25_6:
.Ltmp980:
	{
		nop
		stw r3, sp[2]
	}
.Ltmp981:
	{
		eq r1, r2, 0
		stw r0, sp[3]
	}
	.loc	5 93 5
.Ltmp982:
	{
		add r0, r1, r2
		nop
	}
.Ltmp983:
	.loc	5 95 9
	bl malloc
	{
		mov r10, r0
		nop
	}
	{
		nop
		stw r10, r6[1]
	}
	bf r10, .LBB25_8
.Ltmp984:
	.loc	4 1364 3
	{
		mov r0, r10
		mov r1, r5
	}
	{
		mov r2, r8
		nop
	}
	bl memcpy
	{
		ldc r0, 61
		nop
	}
	.loc	4 1365 3
	st8 r0, r10[r8]
	{
		nop
		ldw r0, sp[2]
	}
	.loc	4 1366 3
	{
		add r0, r10, r0
		mov r1, r4
	}
	{
		nop
		ldw r2, sp[3]
	}
	.loc	4 1366 3
	bl memcpy
	{
		ldc r0, 0
		nop
	}
	.loc	4 1367 3
	st8 r0, r10[r9]
	{
		mkmsk r7, 1
		nop
	}
	bu .LBB25_8
.Ltmp985:
	.cc_bottom FLAC__metadata_object_vorbiscomment_entry_from_name_value_pair.function
	.set	FLAC__metadata_object_vorbiscomment_entry_from_name_value_pair.nstackwords,((assert.nstackwords $M FLAC__format_vorbiscomment_entry_name_is_legal.nstackwords $M FLAC__format_vorbiscomment_entry_value_is_legal.nstackwords $M strlen.nstackwords $M malloc.nstackwords $M memcpy.nstackwords) + 12)
	.globl	FLAC__metadata_object_vorbiscomment_entry_from_name_value_pair.nstackwords
	.set	FLAC__metadata_object_vorbiscomment_entry_from_name_value_pair.maxcores,FLAC__format_vorbiscomment_entry_name_is_legal.maxcores $M FLAC__format_vorbiscomment_entry_value_is_legal.maxcores $M malloc.maxcores $M strlen.maxcores $M 1
	.globl	FLAC__metadata_object_vorbiscomment_entry_from_name_value_pair.maxcores
	.set	FLAC__metadata_object_vorbiscomment_entry_from_name_value_pair.maxtimers,FLAC__format_vorbiscomment_entry_name_is_legal.maxtimers $M FLAC__format_vorbiscomment_entry_value_is_legal.maxtimers $M malloc.maxtimers $M strlen.maxtimers $M 0
	.globl	FLAC__metadata_object_vorbiscomment_entry_from_name_value_pair.maxtimers
	.set	FLAC__metadata_object_vorbiscomment_entry_from_name_value_pair.maxchanends,FLAC__format_vorbiscomment_entry_name_is_legal.maxchanends $M FLAC__format_vorbiscomment_entry_value_is_legal.maxchanends $M malloc.maxchanends $M strlen.maxchanends $M 0
	.globl	FLAC__metadata_object_vorbiscomment_entry_from_name_value_pair.maxchanends
.Ltmp986:
	.size	FLAC__metadata_object_vorbiscomment_entry_from_name_value_pair, .Ltmp986-FLAC__metadata_object_vorbiscomment_entry_from_name_value_pair
.Lfunc_end25:
	.cfi_endproc

	.globl	FLAC__metadata_object_vorbiscomment_entry_to_name_value_pair
	.align	4
	.type	FLAC__metadata_object_vorbiscomment_entry_to_name_value_pair,@function
	.cc_top FLAC__metadata_object_vorbiscomment_entry_to_name_value_pair.function,FLAC__metadata_object_vorbiscomment_entry_to_name_value_pair
FLAC__metadata_object_vorbiscomment_entry_to_name_value_pair:
.Lfunc_begin26:
	.loc	4 1374 0
	.cfi_startproc
	.issue_mode dual
	{
		nop
		dualentsp 10
	}
.Ltmp987:
	.cfi_def_cfa_offset 40
.Ltmp988:
	.cfi_offset 15, 0
	std r5, r4, sp[2]
.Ltmp989:
	.cfi_offset 4, -24
.Ltmp990:
	.cfi_offset 5, -20
	std r7, r6, sp[3]
.Ltmp991:
	.cfi_offset 6, -16
.Ltmp992:
	.cfi_offset 7, -12
	std r9, r8, sp[4]
.Ltmp993:
	.cfi_offset 8, -8
.Ltmp994:
	.cfi_offset 9, -4
.Ltmp995:
	{
		mov r4, r2
		mov r5, r1
	}
.Ltmp996:
	{
		nop
		ldw r1, r0[1]
	}
	{
		nop
		stw r1, sp[3]
	}
	{
		nop
		ldw r0, r0[0]
	}
	{
		nop
		stw r0, sp[2]
	}
	{
		nop
		ldw r6, sp[3]
	}
	.loc	4 1375 2 prologue_end
.Ltmp997:
	{
		eq r0, r6, 0
		nop
	}
	{
		eq r0, r0, 0
		nop
	}
	.loc	4 1375 2
	bl assert
	.loc	4 1376 2
	{
		eq r0, r5, 0
		nop
	}
	{
		eq r0, r0, 0
		nop
	}
	.loc	4 1376 2
	bl assert
	.loc	4 1377 2
	{
		eq r0, r4, 0
		nop
	}
	{
		eq r0, r0, 0
		nop
	}
	.loc	4 1377 2
	bl assert
	.loc	4 1379 7
.Ltmp998:
	{
		mov r0, r6
		ldw r9, sp[2]
	}
	.loc	4 1379 7
	{
		mov r1, r9
		nop
	}
	bl FLAC__format_vorbiscomment_entry_is_legal
	{
		ldc r7, 0
		nop
	}
	bf r0, .LBB26_10
.Ltmp999:
	{
		ldc r1, 61
		mov r0, r6
	}
	.loc	4 1383 39
.Ltmp1000:
	{
		mov r2, r9
		nop
	}
	bl memchr
.Ltmp1001:
	bf r0, .LBB26_10
.Ltmp1002:
	.loc	4 1384 3
	{
		sub r8, r0, r6
		nop
	}
.Ltmp1003:
	.loc	5 128 2
	{
		add r0, r8, 1
		nop
	}
.Ltmp1004:
	.loc	5 129 5
	{
		lsu r1, r0, r8
		nop
	}
	bf r1, .LBB26_4
.Ltmp1005:
	{
		ldc r7, 0
		nop
	}
	{
		nop
		stw r7, r5[0]
	}
	bu .LBB26_10
.Ltmp1006:
.LBB26_4:
	.loc	5 93 5
	{
		eq r1, r0, 0
		nop
	}
	.loc	5 93 5
	{
		add r0, r1, r0
		nop
	}
.Ltmp1007:
	.loc	5 95 9
	bl malloc
	{
		nop
		stw r0, r5[0]
	}
	bf r0, .LBB26_10
.Ltmp1008:
	.loc	4 1385 3
	{
		sub r0, r9, r8
		nop
	}
	.loc	4 1385 3
	{
		sub r9, r0, 1
		nop
	}
.Ltmp1009:
	.loc	5 128 2
	{
		add r0, r9, 1
		nop
	}
	.loc	5 129 5
.Ltmp1010:
	{
		lsu r1, r0, r9
		nop
	}
	bf r1, .LBB26_7
.Ltmp1011:
	{
		ldc r0, 0
		nop
	}
	{
		nop
		stw r0, r4[0]
	}
	{
		nop
		ldw r0, r5[0]
	}
	.loc	4 1392 4
.Ltmp1012:
	bl free
	bu .LBB26_10
.Ltmp1013:
.LBB26_7:
	.loc	5 93 5
	{
		eq r1, r0, 0
		nop
	}
	.loc	5 93 5
	{
		add r0, r1, r0
		nop
	}
.Ltmp1014:
	.loc	5 95 9
	bl malloc
	{
		mov r1, r0
		nop
	}
	{
		nop
		stw r1, r4[0]
	}
	{
		nop
		ldw r0, r5[0]
	}
.Ltmp1015:
	.loc	4 1391 23
	bf r1, .LBB26_8
.Ltmp1016:
	.loc	4 1395 3
	{
		mov r1, r6
		mov r2, r8
	}
	bl memcpy
	{
		add r1, r8, r6
		ldw r0, r4[0]
	}
	.loc	4 1396 3
	{
		add r1, r1, 1
		mov r2, r9
	}
	.loc	4 1396 3
	bl memcpy
	.loc	4 1397 3
	{
		ldc r1, 0
		ldw r0, r5[0]
	}
	.loc	4 1397 3
	st8 r1, r0[r8]
	{
		nop
		ldw r0, r4[0]
	}
	.loc	4 1398 3
	st8 r1, r0[r9]
	{
		mkmsk r7, 1
		nop
	}
	bu .LBB26_10
.Ltmp1017:
.LBB26_8:
	.loc	4 1392 4
	bl free
.Ltmp1018:
.LBB26_10:
	.loc	4 1402 1
	{
		mov r0, r7
		nop
	}
	ldd r9, r8, sp[4]
	ldd r7, r6, sp[3]
	ldd r5, r4, sp[2]
	{
		nop
		retsp 10
	}
.Ltmp1019:
	# RETURN_REG_HOLDER
.Ltmp1020:
	.cc_bottom FLAC__metadata_object_vorbiscomment_entry_to_name_value_pair.function
	.set	FLAC__metadata_object_vorbiscomment_entry_to_name_value_pair.nstackwords,((assert.nstackwords $M FLAC__format_vorbiscomment_entry_is_legal.nstackwords $M memchr.nstackwords $M malloc.nstackwords $M free.nstackwords $M memcpy.nstackwords) + 10)
	.globl	FLAC__metadata_object_vorbiscomment_entry_to_name_value_pair.nstackwords
	.set	FLAC__metadata_object_vorbiscomment_entry_to_name_value_pair.maxcores,FLAC__format_vorbiscomment_entry_is_legal.maxcores $M free.maxcores $M malloc.maxcores $M memchr.maxcores $M 1
	.globl	FLAC__metadata_object_vorbiscomment_entry_to_name_value_pair.maxcores
	.set	FLAC__metadata_object_vorbiscomment_entry_to_name_value_pair.maxtimers,FLAC__format_vorbiscomment_entry_is_legal.maxtimers $M free.maxtimers $M malloc.maxtimers $M memchr.maxtimers $M 0
	.globl	FLAC__metadata_object_vorbiscomment_entry_to_name_value_pair.maxtimers
	.set	FLAC__metadata_object_vorbiscomment_entry_to_name_value_pair.maxchanends,FLAC__format_vorbiscomment_entry_is_legal.maxchanends $M free.maxchanends $M malloc.maxchanends $M memchr.maxchanends $M 0
	.globl	FLAC__metadata_object_vorbiscomment_entry_to_name_value_pair.maxchanends
.Ltmp1021:
	.size	FLAC__metadata_object_vorbiscomment_entry_to_name_value_pair, .Ltmp1021-FLAC__metadata_object_vorbiscomment_entry_to_name_value_pair
.Lfunc_end26:
	.cfi_endproc

	.globl	FLAC__metadata_object_vorbiscomment_entry_matches
	.align	4
	.type	FLAC__metadata_object_vorbiscomment_entry_matches,@function
	.cc_top FLAC__metadata_object_vorbiscomment_entry_matches.function,FLAC__metadata_object_vorbiscomment_entry_matches
FLAC__metadata_object_vorbiscomment_entry_matches:
.Lfunc_begin27:
	.loc	4 1405 0
	.cfi_startproc
	.issue_mode dual
	{
		nop
		dualentsp 8
	}
.Ltmp1022:
	.cfi_def_cfa_offset 32
.Ltmp1023:
	.cfi_offset 15, 0
	std r5, r4, sp[2]
.Ltmp1024:
	.cfi_offset 4, -16
.Ltmp1025:
	.cfi_offset 5, -12
.Ltmp1026:
	.cfi_offset 6, -8
.Ltmp1027:
	{
		mov r4, r2
		stw r6, sp[6]
	}
.Ltmp1028:
	{
		mov r5, r1
		ldw r1, r0[1]
	}
.Ltmp1029:
	{
		nop
		stw r1, sp[3]
	}
	{
		nop
		ldw r0, r0[0]
	}
	{
		nop
		stw r0, sp[2]
	}
	{
		nop
		ldw r6, sp[3]
	}
	.loc	4 1406 2 prologue_end
.Ltmp1030:
	{
		eq r0, r6, 0
		nop
	}
	{
		eq r0, r0, 0
		nop
	}
	.loc	4 1406 2
	bl assert
	.loc	4 1408 39
.Ltmp1031:
	{
		ldc r1, 61
		ldw r2, sp[2]
	}
	.loc	4 1408 39
	{
		mov r0, r6
		nop
	}
	bl memchr
.Ltmp1032:
	{
		mov r1, r0
		ldc r0, 0
	}
.Ltmp1033:
	bf r1, .LBB27_3
.Ltmp1034:
	.loc	4 1409 3
	{
		sub r1, r1, r6
		nop
	}
.Ltmp1035:
	.loc	4 1409 3
	{
		eq r1, r1, r4
		nop
	}
	bf r1, .LBB27_3
.Ltmp1036:
	.loc	4 1409 76
	{
		mov r0, r5
		mov r1, r6
	}
	{
		mov r2, r4
		nop
	}
	bl strncasecmp
	.loc	4 1409 76
	{
		eq r0, r0, 0
		nop
	}
.Ltmp1037:
.LBB27_3:
	{
		nop
		ldw r6, sp[6]
	}
	.loc	4 1409 76
	ldd r5, r4, sp[2]
	{
		nop
		retsp 8
	}
.Ltmp1038:
	# RETURN_REG_HOLDER
.Ltmp1039:
	.cc_bottom FLAC__metadata_object_vorbiscomment_entry_matches.function
	.set	FLAC__metadata_object_vorbiscomment_entry_matches.nstackwords,((assert.nstackwords $M memchr.nstackwords $M strncasecmp.nstackwords) + 8)
	.globl	FLAC__metadata_object_vorbiscomment_entry_matches.nstackwords
	.set	FLAC__metadata_object_vorbiscomment_entry_matches.maxcores,memchr.maxcores $M strncasecmp.maxcores $M 1
	.globl	FLAC__metadata_object_vorbiscomment_entry_matches.maxcores
	.set	FLAC__metadata_object_vorbiscomment_entry_matches.maxtimers,memchr.maxtimers $M strncasecmp.maxtimers $M 0
	.globl	FLAC__metadata_object_vorbiscomment_entry_matches.maxtimers
	.set	FLAC__metadata_object_vorbiscomment_entry_matches.maxchanends,memchr.maxchanends $M strncasecmp.maxchanends $M 0
	.globl	FLAC__metadata_object_vorbiscomment_entry_matches.maxchanends
.Ltmp1040:
	.size	FLAC__metadata_object_vorbiscomment_entry_matches, .Ltmp1040-FLAC__metadata_object_vorbiscomment_entry_matches
.Lfunc_end27:
	.cfi_endproc

	.globl	FLAC__metadata_object_vorbiscomment_find_entry_from
	.align	4
	.type	FLAC__metadata_object_vorbiscomment_find_entry_from,@function
	.cc_top FLAC__metadata_object_vorbiscomment_find_entry_from.function,FLAC__metadata_object_vorbiscomment_find_entry_from
FLAC__metadata_object_vorbiscomment_find_entry_from:
.Lfunc_begin28:
	.loc	4 1414 0
	.cfi_startproc
	.issue_mode dual
	{
		nop
		dualentsp 10
	}
.Ltmp1041:
	.cfi_def_cfa_offset 40
.Ltmp1042:
	.cfi_offset 15, 0
	std r5, r4, sp[1]
.Ltmp1043:
	.cfi_offset 4, -32
.Ltmp1044:
	.cfi_offset 5, -28
	std r7, r6, sp[2]
.Ltmp1045:
	.cfi_offset 6, -24
.Ltmp1046:
	.cfi_offset 7, -20
	std r9, r8, sp[3]
.Ltmp1047:
	.cfi_offset 8, -16
.Ltmp1048:
	.cfi_offset 9, -12
.Ltmp1049:
	.cfi_offset 10, -8
.Ltmp1050:
	{
		mov r5, r2
		stw r10, sp[8]
	}
.Ltmp1051:
	{
		mov r4, r1
		stw r5, sp[1]
	}
.Ltmp1052:
	{
		mov r6, r0
		eq r0, r5, 0
	}
.Ltmp1053:
	.loc	4 1415 2 prologue_end
	{
		eq r8, r0, 0
		nop
	}
	.loc	4 1415 2
	{
		mov r0, r8
		nop
	}
	bl assert
	.loc	4 1417 68
	{
		mov r0, r5
		nop
	}
.Ltmp1054:
	bl strlen
.Ltmp1055:
	{
		mov r7, r0
		eq r0, r6, 0
	}
.Ltmp1056:
	.loc	4 299 2
	{
		eq r0, r0, 0
		nop
	}
	.loc	4 299 2
	bl assert
	{
		nop
		ldw r0, r6[0]
	}
	.loc	4 300 2
	{
		eq r0, r0, 4
		nop
	}
	.loc	4 300 2
	bl assert
	.loc	4 301 2
	{
		mov r0, r8
		nop
	}
	bl assert
.Ltmp1057:
	.loc	4 303 2
	{
		mkmsk r0, 32
		ldw r1, r6[6]
	}
	.loc	4 303 2
	{
		lsu r1, r4, r1
		nop
	}
	bf r1, .LBB28_8
.Ltmp1058:
	.loc	4 303 2
	{
		shl r0, r4, 3
		ldc r1, 4
	}
	.loc	4 303 2
	{
		or r5, r0, r1
		ldc r9, 61
	}
.Ltmp1059:
.LBB28_2:
	{
		nop
		ldw r0, r6[7]
	}
	{
		add r10, r0, r5
		nop
	}
	{
		sub r0, r10, 4
		nop
	}
	.loc	4 1404 118
.Ltmp1060:
	bl __misaligned_load
	{
		mov r8, r0
		mov r0, r10
	}
	.loc	4 1404 118
	bl __misaligned_load
	{
		mov r10, r0
		nop
	}
	.loc	4 1406 2
	{
		eq r0, r10, 0
		nop
	}
	{
		eq r0, r0, 0
		nop
	}
	.loc	4 1406 2
	bl assert
	.loc	4 1408 39
.Ltmp1061:
	{
		mov r0, r10
		mov r1, r9
	}
	{
		mov r2, r8
		nop
	}
	bl memchr
.Ltmp1062:
	bf r0, .LBB28_6
.Ltmp1063:
	.loc	4 1409 3
	{
		sub r0, r0, r10
		nop
	}
.Ltmp1064:
	.loc	4 1409 3
	{
		eq r0, r0, r7
		nop
	}
	bf r0, .LBB28_6
.Ltmp1065:
	.loc	4 1409 76
	{
		mov r1, r10
		ldw r0, sp[1]
	}
	{
		mov r2, r7
		nop
	}
	bl strncasecmp
	bf r0, .LBB28_5
.Ltmp1066:
.LBB28_6:
	.loc	4 303 65
	{
		add r4, r4, 1
		ldw r0, r6[6]
	}
.Ltmp1067:
	.loc	4 303 2
	{
		add r5, r5, 8
		lsu r0, r4, r0
	}
	bt r0, .LBB28_2
.Ltmp1068:
	{
		mkmsk r0, 32
		nop
	}
	bu .LBB28_8
.LBB28_5:
	.loc	4 1417 9
	{
		mov r0, r4
		nop
	}
.LBB28_8:
	{
		nop
		ldw r10, sp[8]
	}
	.loc	4 1417 9
	ldd r9, r8, sp[3]
	ldd r7, r6, sp[2]
	ldd r5, r4, sp[1]
	{
		nop
		retsp 10
	}
	# RETURN_REG_HOLDER
.Ltmp1069:
	.cc_bottom FLAC__metadata_object_vorbiscomment_find_entry_from.function
	.set	FLAC__metadata_object_vorbiscomment_find_entry_from.nstackwords,((strlen.nstackwords $M __misaligned_load.nstackwords $M assert.nstackwords $M memchr.nstackwords $M strncasecmp.nstackwords) + 10)
	.globl	FLAC__metadata_object_vorbiscomment_find_entry_from.nstackwords
	.set	FLAC__metadata_object_vorbiscomment_find_entry_from.maxcores,memchr.maxcores $M strlen.maxcores $M strncasecmp.maxcores $M 1
	.globl	FLAC__metadata_object_vorbiscomment_find_entry_from.maxcores
	.set	FLAC__metadata_object_vorbiscomment_find_entry_from.maxtimers,memchr.maxtimers $M strlen.maxtimers $M strncasecmp.maxtimers $M 0
	.globl	FLAC__metadata_object_vorbiscomment_find_entry_from.maxtimers
	.set	FLAC__metadata_object_vorbiscomment_find_entry_from.maxchanends,memchr.maxchanends $M strlen.maxchanends $M strncasecmp.maxchanends $M 0
	.globl	FLAC__metadata_object_vorbiscomment_find_entry_from.maxchanends
.Ltmp1070:
	.size	FLAC__metadata_object_vorbiscomment_find_entry_from, .Ltmp1070-FLAC__metadata_object_vorbiscomment_find_entry_from
.Lfunc_end28:
	.cfi_endproc

	.globl	FLAC__metadata_object_vorbiscomment_remove_entry_matching
	.align	4
	.type	FLAC__metadata_object_vorbiscomment_remove_entry_matching,@function
	.cc_top FLAC__metadata_object_vorbiscomment_remove_entry_matching.function,FLAC__metadata_object_vorbiscomment_remove_entry_matching
FLAC__metadata_object_vorbiscomment_remove_entry_matching:
.Lfunc_begin29:
	.loc	4 1421 0
	.cfi_startproc
	.issue_mode dual
	{
		nop
		dualentsp 12
	}
.Ltmp1071:
	.cfi_def_cfa_offset 48
.Ltmp1072:
	.cfi_offset 15, 0
	std r5, r4, sp[2]
.Ltmp1073:
	.cfi_offset 4, -32
.Ltmp1074:
	.cfi_offset 5, -28
	std r7, r6, sp[3]
.Ltmp1075:
	.cfi_offset 6, -24
.Ltmp1076:
	.cfi_offset 7, -20
	std r9, r8, sp[4]
.Ltmp1077:
	.cfi_offset 8, -16
.Ltmp1078:
	.cfi_offset 9, -12
	{
		nop
		stw r10, sp[10]
	}
.Ltmp1079:
	.cfi_offset 10, -8
.Ltmp1080:
	{
		mov r4, r0
		stw r1, sp[3]
	}
.Ltmp1081:
	.loc	4 1422 37 prologue_end
	{
		mov r0, r1
		nop
	}
.Ltmp1082:
	bl strlen
.Ltmp1083:
	{
		mov r7, r0
		eq r0, r4, 0
	}
.Ltmp1084:
	.loc	4 1425 2
	{
		eq r5, r0, 0
		nop
	}
	.loc	4 1425 2
	{
		mov r0, r5
		nop
	}
	bl assert
	{
		nop
		ldw r0, r4[0]
	}
	.loc	4 1426 2
	{
		eq r0, r0, 4
		nop
	}
	.loc	4 1426 2
	bl assert
.Ltmp1085:
	{
		nop
		ldw r0, r4[6]
	}
	bf r0, .LBB29_9
.Ltmp1086:
	{
		ldc r8, 0
		stw r5, sp[2]
	}
	{
		ldc r5, 4
		ldc r9, 61
	}
.Ltmp1087:
.LBB29_2:
	{
		nop
		ldw r0, r4[7]
	}
	{
		add r10, r0, r5
		nop
	}
	{
		sub r0, r10, 4
		nop
	}
	.loc	4 1404 118
.Ltmp1088:
	bl __misaligned_load
	{
		mov r6, r0
		mov r0, r10
	}
	.loc	4 1404 118
	bl __misaligned_load
	{
		mov r10, r0
		nop
	}
	.loc	4 1406 2
	{
		eq r0, r10, 0
		nop
	}
	{
		eq r0, r0, 0
		nop
	}
	.loc	4 1406 2
	bl assert
	.loc	4 1408 39
.Ltmp1089:
	{
		mov r0, r10
		mov r1, r9
	}
	{
		mov r2, r6
		nop
	}
	bl memchr
.Ltmp1090:
	bf r0, .LBB29_8
.Ltmp1091:
	.loc	4 1409 3
	{
		sub r0, r0, r10
		nop
	}
.Ltmp1092:
	.loc	4 1409 3
	{
		eq r0, r0, r7
		nop
	}
	bf r0, .LBB29_8
.Ltmp1093:
	.loc	4 1409 76
	{
		mov r1, r10
		ldw r0, sp[3]
	}
	{
		mov r2, r7
		nop
	}
	bl strncasecmp
	bf r0, .LBB29_5
.Ltmp1094:
.LBB29_8:
	.loc	4 1428 60
	{
		add r8, r8, 1
		ldw r0, r4[6]
	}
.Ltmp1095:
	.loc	4 1428 2
	{
		add r5, r5, 8
		lsu r0, r8, r0
	}
	bt r0, .LBB29_2
.Ltmp1096:
.LBB29_9:
	{
		ldc r0, 0
		nop
	}
.LBB29_10:
.Ltmp1097:
	{
		nop
		ldw r10, sp[10]
	}
	.loc	4 1438 1
	ldd r9, r8, sp[4]
	ldd r7, r6, sp[3]
	ldd r5, r4, sp[2]
	{
		nop
		retsp 12
	}
	# RETURN_REG_HOLDER
.LBB29_5:
.Ltmp1098:
	{
		nop
		ldw r0, sp[2]
	}
	.loc	4 1330 2
.Ltmp1099:
	bl assert
	{
		nop
		ldw r0, r4[0]
	}
	.loc	4 1331 2
	{
		eq r0, r0, 4
		nop
	}
	.loc	4 1331 2
	bl assert
	{
		nop
		ldw r0, r4[6]
	}
	.loc	4 1332 2
	{
		lsu r0, r8, r0
		nop
	}
	.loc	4 1332 2
	bl assert
	.loc	4 1337 2
	{
		shl r5, r8, 3
		ldw r0, r4[7]
	}
	.loc	4 1337 2
	{
		add r0, r0, r5
		nop
	}
	{
		nop
		ldw r0, r0[1]
	}
	.loc	4 1337 2
	bl free
	{
		nop
		ldw r0, r4[7]
	}
	.loc	4 1340 2
	{
		add r0, r0, r5
		nop
	}
	.loc	4 1340 2
	{
		add r1, r0, 8
		ldw r2, r4[6]
	}
	.loc	4 1340 2
	{
		sub r2, r2, r8
		nop
	}
	.loc	4 1340 2
	{
		shl r2, r2, 3
		nop
	}
	.loc	4 1340 2
	{
		sub r2, r2, 8
		nop
	}
	.loc	4 1340 2
	bl memmove
	{
		nop
		ldw r0, r4[6]
	}
	.loc	4 1341 2
	{
		sub r1, r0, 1
		ldw r0, r4[7]
	}
	.loc	4 1341 2
	{
		shl r2, r1, 3
		nop
	}
	{
		add r0, r0, r2
		ldc r2, 0
	}
	{
		nop
		stw r2, r0[0]
	}
	.loc	4 1342 2
	{
		mov r0, r4
		stw r2, r0[1]
	}
	.loc	4 1344 9
	bl FLAC__metadata_object_vorbiscomment_resize_comments
.Ltmp1100:
	.loc	4 1431 5
	bt r0, .LBB29_6
.Ltmp1101:
	{
		mkmsk r0, 32
		nop
	}
	bu .LBB29_10
.LBB29_6:
	{
		mkmsk r0, 1
		nop
	}
	bu .LBB29_10
	.cc_bottom FLAC__metadata_object_vorbiscomment_remove_entry_matching.function
	.set	FLAC__metadata_object_vorbiscomment_remove_entry_matching.nstackwords,((strlen.nstackwords $M __misaligned_load.nstackwords $M memchr.nstackwords $M strncasecmp.nstackwords $M assert.nstackwords $M free.nstackwords $M memmove.nstackwords $M FLAC__metadata_object_vorbiscomment_resize_comments.nstackwords) + 12)
	.globl	FLAC__metadata_object_vorbiscomment_remove_entry_matching.nstackwords
	.set	FLAC__metadata_object_vorbiscomment_remove_entry_matching.maxcores,FLAC__metadata_object_vorbiscomment_resize_comments.maxcores $M free.maxcores $M memchr.maxcores $M strlen.maxcores $M strncasecmp.maxcores $M 1
	.globl	FLAC__metadata_object_vorbiscomment_remove_entry_matching.maxcores
	.set	FLAC__metadata_object_vorbiscomment_remove_entry_matching.maxtimers,FLAC__metadata_object_vorbiscomment_resize_comments.maxtimers $M free.maxtimers $M memchr.maxtimers $M strlen.maxtimers $M strncasecmp.maxtimers $M 0
	.globl	FLAC__metadata_object_vorbiscomment_remove_entry_matching.maxtimers
	.set	FLAC__metadata_object_vorbiscomment_remove_entry_matching.maxchanends,FLAC__metadata_object_vorbiscomment_resize_comments.maxchanends $M free.maxchanends $M memchr.maxchanends $M strlen.maxchanends $M strncasecmp.maxchanends $M 0
	.globl	FLAC__metadata_object_vorbiscomment_remove_entry_matching.maxchanends
.Ltmp1102:
	.size	FLAC__metadata_object_vorbiscomment_remove_entry_matching, .Ltmp1102-FLAC__metadata_object_vorbiscomment_remove_entry_matching
.Lfunc_end29:
	.cfi_endproc

	.globl	FLAC__metadata_object_vorbiscomment_remove_entries_matching
	.align	4
	.type	FLAC__metadata_object_vorbiscomment_remove_entries_matching,@function
	.cc_top FLAC__metadata_object_vorbiscomment_remove_entries_matching.function,FLAC__metadata_object_vorbiscomment_remove_entries_matching
FLAC__metadata_object_vorbiscomment_remove_entries_matching:
.Lfunc_begin30:
	.loc	4 1441 0
	.cfi_startproc
	.issue_mode dual
	{
		nop
		dualentsp 14
	}
.Ltmp1103:
	.cfi_def_cfa_offset 56
.Ltmp1104:
	.cfi_offset 15, 0
	std r5, r4, sp[3]
.Ltmp1105:
	.cfi_offset 4, -32
.Ltmp1106:
	.cfi_offset 5, -28
	std r7, r6, sp[4]
.Ltmp1107:
	.cfi_offset 6, -24
.Ltmp1108:
	.cfi_offset 7, -20
	std r9, r8, sp[5]
.Ltmp1109:
	.cfi_offset 8, -16
.Ltmp1110:
	.cfi_offset 9, -12
	{
		nop
		stw r10, sp[12]
	}
.Ltmp1111:
	.cfi_offset 10, -8
.Ltmp1112:
	{
		mov r5, r0
		stw r1, sp[4]
	}
.Ltmp1113:
	.loc	4 1444 37 prologue_end
	{
		mov r0, r1
		nop
	}
.Ltmp1114:
	bl strlen
.Ltmp1115:
	{
		eq r0, r5, 0
		stw r0, sp[5]
	}
	.loc	4 1447 2
	{
		eq r0, r0, 0
		nop
	}
	{
		nop
		stw r0, sp[2]
	}
	.loc	4 1447 2
	bl assert
	{
		nop
		ldw r0, r5[0]
	}
	.loc	4 1448 2
	{
		eq r0, r0, 4
		nop
	}
	.loc	4 1448 2
	bl assert
	.loc	4 1451 7
.Ltmp1116:
	{
		mkmsk r1, 1
		ldw r9, r5[6]
	}
	.loc	4 1451 2
.Ltmp1117:
	{
		lss r0, r9, r1
		nop
	}
	bt r0, .LBB30_1
.Ltmp1118:
	{
		ldc r0, 0
		nop
	}
	{
		mov r7, r0
		mov r6, r0
	}
.Ltmp1119:
.LBB30_3:
	{
		nop
		stw r1, sp[1]
	}
	{
		shl r0, r9, 3
		stw r7, sp[3]
	}
	.loc	4 1451 2
	{
		sub r4, r0, 8
		nop
	}
.Ltmp1120:
.LBB30_4:
	{
		mov r8, r9
		nop
	}
	.loc	4 1451 7
	{
		sub r9, r8, 1
		ldw r0, r5[7]
	}
	{
		add r10, r0, r4
		nop
	}
	.loc	4 1404 118
.Ltmp1121:
	{
		mov r0, r10
		nop
	}
	bl __misaligned_load
	{
		mov r7, r0
		add r0, r10, 4
	}
	.loc	4 1404 118
	bl __misaligned_load
	{
		mov r10, r0
		nop
	}
	.loc	4 1406 2
	{
		eq r0, r10, 0
		nop
	}
	{
		eq r0, r0, 0
		nop
	}
	.loc	4 1406 2
	bl assert
	.loc	4 1408 39
.Ltmp1122:
	{
		mov r0, r10
		ldc r1, 61
	}
	{
		mov r2, r7
		nop
	}
	bl memchr
.Ltmp1123:
	bf r0, .LBB30_7
.Ltmp1124:
	.loc	4 1409 3
	{
		sub r0, r0, r10
		ldw r1, sp[5]
	}
.Ltmp1125:
	.loc	4 1409 3
	{
		eq r0, r0, r1
		nop
	}
	bf r0, .LBB30_7
.Ltmp1126:
	.loc	4 1409 76
	{
		mov r1, r10
		ldw r0, sp[4]
	}
	{
		nop
		ldw r2, sp[5]
	}
	bl strncasecmp
	bf r0, .LBB30_9
.Ltmp1127:
.LBB30_7:
	.loc	4 1451 2
	{
		sub r4, r4, 8
		lss r0, r6, r9
	}
	bt r0, .LBB30_4
	bu .LBB30_8
.Ltmp1128:
.LBB30_9:
	{
		nop
		ldw r7, sp[3]
	}
	.loc	4 1453 4
.Ltmp1129:
	{
		add r7, r7, 1
		ldw r0, sp[2]
	}
	.loc	4 1330 2
.Ltmp1130:
	bl assert
	{
		nop
		ldw r0, r5[0]
	}
	.loc	4 1331 2
	{
		eq r0, r0, 4
		nop
	}
	.loc	4 1331 2
	bl assert
	{
		nop
		ldw r0, r5[6]
	}
	.loc	4 1332 2
	{
		lsu r0, r9, r0
		nop
	}
	.loc	4 1332 2
	bl assert
	.loc	4 1337 2
	{
		shl r4, r9, 3
		ldw r0, r5[7]
	}
	.loc	4 1337 2
	{
		add r0, r0, r4
		nop
	}
	{
		nop
		ldw r0, r0[1]
	}
	.loc	4 1337 2
	bl free
	{
		nop
		ldw r1, r5[7]
	}
	.loc	4 1340 2
	{
		add r0, r1, r4
		shl r2, r8, 3
	}
	.loc	4 1340 2
	{
		add r1, r1, r2
		ldw r2, r5[6]
	}
	.loc	4 1340 2
	{
		sub r2, r2, r9
		nop
	}
	.loc	4 1340 2
	{
		shl r2, r2, 3
		nop
	}
	.loc	4 1340 2
	{
		sub r2, r2, 8
		nop
	}
	.loc	4 1340 2
	bl memmove
	{
		nop
		ldw r0, r5[6]
	}
	.loc	4 1341 2
	{
		sub r1, r0, 1
		ldw r0, r5[7]
	}
	.loc	4 1341 2
	{
		shl r2, r1, 3
		nop
	}
	{
		add r0, r0, r2
		nop
	}
	{
		nop
		stw r6, r0[0]
	}
	.loc	4 1342 2
	{
		mov r0, r5
		stw r6, r0[1]
	}
	.loc	4 1344 9
	bl FLAC__metadata_object_vorbiscomment_resize_comments
	{
		nop
		ldw r1, sp[1]
	}
.Ltmp1131:
	.loc	4 1454 10
	{
		and r1, r0, r1
		nop
	}
.Ltmp1132:
	bf r1, .LBB30_11
.Ltmp1133:
	{
		lss r0, r6, r9
		nop
	}
	bt r0, .LBB30_3
.Ltmp1134:
.LBB30_11:
	bt r1, .LBB30_13
.Ltmp1135:
	{
		mkmsk r7, 32
		nop
	}
	bu .LBB30_13
.LBB30_8:
.Ltmp1136:
	{
		nop
		ldw r7, sp[3]
	}
	bu .LBB30_13
.LBB30_1:
	{
		ldc r7, 0
		nop
	}
.LBB30_13:
	.loc	4 1458 2
	{
		mov r0, r7
		ldw r10, sp[12]
	}
	ldd r9, r8, sp[5]
	ldd r7, r6, sp[4]
	ldd r5, r4, sp[3]
	{
		nop
		retsp 14
	}
	# RETURN_REG_HOLDER
.Ltmp1137:
	.cc_bottom FLAC__metadata_object_vorbiscomment_remove_entries_matching.function
	.set	FLAC__metadata_object_vorbiscomment_remove_entries_matching.nstackwords,((strlen.nstackwords $M __misaligned_load.nstackwords $M memchr.nstackwords $M strncasecmp.nstackwords $M assert.nstackwords $M free.nstackwords $M memmove.nstackwords $M FLAC__metadata_object_vorbiscomment_resize_comments.nstackwords) + 14)
	.globl	FLAC__metadata_object_vorbiscomment_remove_entries_matching.nstackwords
	.set	FLAC__metadata_object_vorbiscomment_remove_entries_matching.maxcores,FLAC__metadata_object_vorbiscomment_resize_comments.maxcores $M free.maxcores $M memchr.maxcores $M strlen.maxcores $M strncasecmp.maxcores $M 1
	.globl	FLAC__metadata_object_vorbiscomment_remove_entries_matching.maxcores
	.set	FLAC__metadata_object_vorbiscomment_remove_entries_matching.maxtimers,FLAC__metadata_object_vorbiscomment_resize_comments.maxtimers $M free.maxtimers $M memchr.maxtimers $M strlen.maxtimers $M strncasecmp.maxtimers $M 0
	.globl	FLAC__metadata_object_vorbiscomment_remove_entries_matching.maxtimers
	.set	FLAC__metadata_object_vorbiscomment_remove_entries_matching.maxchanends,FLAC__metadata_object_vorbiscomment_resize_comments.maxchanends $M free.maxchanends $M memchr.maxchanends $M strlen.maxchanends $M strncasecmp.maxchanends $M 0
	.globl	FLAC__metadata_object_vorbiscomment_remove_entries_matching.maxchanends
.Ltmp1138:
	.size	FLAC__metadata_object_vorbiscomment_remove_entries_matching, .Ltmp1138-FLAC__metadata_object_vorbiscomment_remove_entries_matching
.Lfunc_end30:
	.cfi_endproc

	.globl	FLAC__metadata_object_cuesheet_track_new
	.align	4
	.type	FLAC__metadata_object_cuesheet_track_new,@function
	.cc_top FLAC__metadata_object_cuesheet_track_new.function,FLAC__metadata_object_cuesheet_track_new
FLAC__metadata_object_cuesheet_track_new:
.Lfunc_begin31:
	.loc	4 1462 0
	.cfi_startproc
	.issue_mode dual
.Ltmp1139:
	.cfi_def_cfa_offset 8
.Ltmp1140:
	.cfi_offset 15, 0
	{
		mkmsk r0, 1
		dualentsp 2
	}
	{
		ldc r1, 32
		nop
	}
	.loc	4 1463 9 prologue_end
.Ltmp1141:
	bl calloc
	{
		nop
		retsp 2
	}
	.loc	4 1463 9
	# RETURN_REG_HOLDER
.Ltmp1142:
	.cc_bottom FLAC__metadata_object_cuesheet_track_new.function
	.set	FLAC__metadata_object_cuesheet_track_new.nstackwords,(calloc.nstackwords + 2)
	.globl	FLAC__metadata_object_cuesheet_track_new.nstackwords
	.set	FLAC__metadata_object_cuesheet_track_new.maxcores,calloc.maxcores $M 1
	.globl	FLAC__metadata_object_cuesheet_track_new.maxcores
	.set	FLAC__metadata_object_cuesheet_track_new.maxtimers,calloc.maxtimers $M 0
	.globl	FLAC__metadata_object_cuesheet_track_new.maxtimers
	.set	FLAC__metadata_object_cuesheet_track_new.maxchanends,calloc.maxchanends $M 0
	.globl	FLAC__metadata_object_cuesheet_track_new.maxchanends
.Ltmp1143:
	.size	FLAC__metadata_object_cuesheet_track_new, .Ltmp1143-FLAC__metadata_object_cuesheet_track_new
.Lfunc_end31:
	.cfi_endproc

	.globl	FLAC__metadata_object_cuesheet_track_clone
	.align	4
	.type	FLAC__metadata_object_cuesheet_track_clone,@function
	.cc_top FLAC__metadata_object_cuesheet_track_clone.function,FLAC__metadata_object_cuesheet_track_clone
FLAC__metadata_object_cuesheet_track_clone:
.Lfunc_begin32:
	.loc	4 1467 0
	.cfi_startproc
	.issue_mode dual
	{
		nop
		dualentsp 8
	}
.Ltmp1144:
	.cfi_def_cfa_offset 32
.Ltmp1145:
	.cfi_offset 15, 0
	std r5, r4, sp[1]
.Ltmp1146:
	.cfi_offset 4, -24
.Ltmp1147:
	.cfi_offset 5, -20
	std r7, r6, sp[2]
.Ltmp1148:
	.cfi_offset 6, -16
.Ltmp1149:
	.cfi_offset 7, -12
	std r9, r8, sp[3]
.Ltmp1150:
	.cfi_offset 8, -8
.Ltmp1151:
	.cfi_offset 9, -4
	{
		mov r5, r0
		nop
	}
.Ltmp1152:
	.loc	4 1470 2 prologue_end
	{
		eq r0, r5, 0
		nop
	}
	{
		eq r0, r0, 0
		nop
	}
	.loc	4 1470 2
	bl assert
	{
		mkmsk r0, 1
		ldc r1, 32
	}
	.loc	4 1463 9
.Ltmp1153:
	bl calloc
	{
		mov r4, r0
		nop
	}
.Ltmp1154:
	.loc	4 1472 12
	bf r4, .LBB32_1
.Ltmp1155:
	{
		ldc r2, 32
		mov r0, r4
	}
	.loc	4 150 2
.Ltmp1156:
	{
		mov r1, r5
		nop
	}
	bl __memcpy_4
	.loc	4 151 6
.Ltmp1157:
	{
		ldc r8, 23
		ldw r1, r5[6]
	}
	{
		nop
		ld8u r0, r5[r8]
	}
	.loc	4 151 6
	bf r1, .LBB32_3
.Ltmp1158:
	.loc	4 152 3
	{
		add r9, r5, r8
		eq r0, r0, 0
	}
.Ltmp1159:
	.loc	4 156 3
	{
		eq r0, r0, 0
		nop
	}
	.loc	4 156 3
	bl assert
	.loc	4 157 12
.Ltmp1160:
	{
		ldc r6, 0
		nop
	}
	{
		ldc r1, 16
		ld8u r0, r9[r6]
	}
	.loc	4 157 12
	bl safe_malloc_mul_2op_p
	{
		mov r7, r0
		nop
	}
	.loc	4 157 12
	bf r7, .LBB32_6
.Ltmp1161:
	{
		nop
		ldw r1, r5[6]
	}
	{
		nop
		ld8u r0, r9[r6]
	}
	.loc	4 159 3
	{
		shl r2, r0, 4
		mov r0, r7
	}
	.loc	4 159 3
	bl __memcpy_4
	.loc	4 160 3
	{
		mov r6, r4
		stw r7, r4[6]
	}
	bu .LBB32_9
.Ltmp1162:
.LBB32_1:
	{
		ldc r6, 0
		nop
	}
	bu .LBB32_9
.LBB32_3:
	.loc	4 152 3
.Ltmp1163:
	{
		eq r0, r0, 0
		nop
	}
	.loc	4 152 3
	bl assert
	{
		mov r6, r4
		nop
	}
	bu .LBB32_9
.Ltmp1164:
.LBB32_6:
	{
		mkmsk r0, 1
		nop
	}
	.loc	4 1484 2
.Ltmp1165:
	bl assert
	{
		nop
		ldw r5, r4[6]
	}
	bf r5, .LBB32_8
	{
		nop
		ld8u r0, r4[r8]
	}
	.loc	4 1487 3
.Ltmp1166:
	{
		eq r0, r0, 0
		nop
	}
	{
		eq r0, r0, 0
		nop
	}
	.loc	4 1487 3
	bl assert
	.loc	4 1488 3
	{
		mov r0, r5
		nop
	}
	bl free
.Ltmp1167:
.LBB32_8:
	.loc	4 1495 2
	{
		mov r0, r4
		nop
	}
	bl free
.Ltmp1168:
.LBB32_9:
	.loc	4 1480 1
	{
		mov r0, r6
		nop
	}
	ldd r9, r8, sp[3]
	ldd r7, r6, sp[2]
	ldd r5, r4, sp[1]
	{
		nop
		retsp 8
	}
	# RETURN_REG_HOLDER
.Ltmp1169:
	.cc_bottom FLAC__metadata_object_cuesheet_track_clone.function
	.set	FLAC__metadata_object_cuesheet_track_clone.nstackwords,((calloc.nstackwords $M safe_malloc_mul_2op_p.nstackwords $M assert.nstackwords $M free.nstackwords $M __memcpy_4.nstackwords) + 8)
	.globl	FLAC__metadata_object_cuesheet_track_clone.nstackwords
	.set	FLAC__metadata_object_cuesheet_track_clone.maxcores,calloc.maxcores $M free.maxcores $M safe_malloc_mul_2op_p.maxcores $M 1
	.globl	FLAC__metadata_object_cuesheet_track_clone.maxcores
	.set	FLAC__metadata_object_cuesheet_track_clone.maxtimers,calloc.maxtimers $M free.maxtimers $M safe_malloc_mul_2op_p.maxtimers $M 0
	.globl	FLAC__metadata_object_cuesheet_track_clone.maxtimers
	.set	FLAC__metadata_object_cuesheet_track_clone.maxchanends,calloc.maxchanends $M free.maxchanends $M safe_malloc_mul_2op_p.maxchanends $M 0
	.globl	FLAC__metadata_object_cuesheet_track_clone.maxchanends
.Ltmp1170:
	.size	FLAC__metadata_object_cuesheet_track_clone, .Ltmp1170-FLAC__metadata_object_cuesheet_track_clone
.Lfunc_end32:
	.cfi_endproc

	.globl	FLAC__metadata_object_cuesheet_track_delete
	.align	4
	.type	FLAC__metadata_object_cuesheet_track_delete,@function
	.cc_top FLAC__metadata_object_cuesheet_track_delete.function,FLAC__metadata_object_cuesheet_track_delete
FLAC__metadata_object_cuesheet_track_delete:
.Lfunc_begin33:
	.loc	4 1493 0
	.cfi_startproc
	.issue_mode dual
	{
		nop
		dualentsp 4
	}
.Ltmp1171:
	.cfi_def_cfa_offset 16
.Ltmp1172:
	.cfi_offset 15, 0
.Ltmp1173:
	.cfi_offset 4, -8
.Ltmp1174:
	{
		mov r4, r0
		stw r4, sp[2]
	}
.Ltmp1175:
	.loc	4 1484 2 prologue_end
	{
		eq r0, r4, 0
		nop
	}
	{
		eq r0, r0, 0
		nop
	}
	.loc	4 1484 2
	bl assert
	{
		nop
		ldw r0, r4[6]
	}
	bf r0, .LBB33_2
.Ltmp1176:
	{
		ldc r0, 23
		nop
	}
	{
		nop
		ld8u r0, r4[r0]
	}
	.loc	4 1487 3
.Ltmp1177:
	{
		eq r0, r0, 0
		nop
	}
	{
		eq r0, r0, 0
		nop
	}
	.loc	4 1487 3
	bl assert
	{
		nop
		ldw r0, r4[6]
	}
	.loc	4 1488 3
	bl free
.Ltmp1178:
.LBB33_2:
	.loc	4 1495 2
	{
		mov r0, r4
		nop
	}
	bl free
	{
		nop
		ldw r4, sp[2]
	}
.Ltmp1179:
	{
		nop
		retsp 4
	}
	.loc	4 1496 1
	# RETURN_REG_HOLDER
.Ltmp1180:
	.cc_bottom FLAC__metadata_object_cuesheet_track_delete.function
	.set	FLAC__metadata_object_cuesheet_track_delete.nstackwords,((assert.nstackwords $M free.nstackwords) + 4)
	.globl	FLAC__metadata_object_cuesheet_track_delete.nstackwords
	.set	FLAC__metadata_object_cuesheet_track_delete.maxcores,free.maxcores $M 1
	.globl	FLAC__metadata_object_cuesheet_track_delete.maxcores
	.set	FLAC__metadata_object_cuesheet_track_delete.maxtimers,free.maxtimers $M 0
	.globl	FLAC__metadata_object_cuesheet_track_delete.maxtimers
	.set	FLAC__metadata_object_cuesheet_track_delete.maxchanends,free.maxchanends $M 0
	.globl	FLAC__metadata_object_cuesheet_track_delete.maxchanends
.Ltmp1181:
	.size	FLAC__metadata_object_cuesheet_track_delete, .Ltmp1181-FLAC__metadata_object_cuesheet_track_delete
.Lfunc_end33:
	.cfi_endproc

	.globl	FLAC__metadata_object_cuesheet_track_delete_data
	.align	4
	.type	FLAC__metadata_object_cuesheet_track_delete_data,@function
	.cc_top FLAC__metadata_object_cuesheet_track_delete_data.function,FLAC__metadata_object_cuesheet_track_delete_data
FLAC__metadata_object_cuesheet_track_delete_data:
.Lfunc_begin34:
	.loc	4 1483 0
	.cfi_startproc
	.issue_mode dual
	{
		nop
		dualentsp 4
	}
.Ltmp1182:
	.cfi_def_cfa_offset 16
.Ltmp1183:
	.cfi_offset 15, 0
.Ltmp1184:
	.cfi_offset 4, -8
.Ltmp1185:
	{
		mov r4, r0
		stw r4, sp[2]
	}
.Ltmp1186:
	.loc	4 1484 2 prologue_end
	{
		eq r0, r4, 0
		nop
	}
	{
		eq r0, r0, 0
		nop
	}
	.loc	4 1484 2
	bl assert
	{
		nop
		ldw r0, r4[6]
	}
	bf r0, .LBB34_2
.Ltmp1187:
	{
		ldc r0, 23
		nop
	}
	{
		nop
		ld8u r0, r4[r0]
	}
	.loc	4 1487 3
.Ltmp1188:
	{
		eq r0, r0, 0
		nop
	}
	{
		eq r0, r0, 0
		nop
	}
	.loc	4 1487 3
	bl assert
	{
		nop
		ldw r0, r4[6]
	}
	.loc	4 1488 3
	bl free
.Ltmp1189:
.LBB34_2:
	{
		nop
		ldw r4, sp[2]
	}
	{
		nop
		retsp 4
	}
	.loc	4 1490 1
	# RETURN_REG_HOLDER
.Ltmp1190:
	.cc_bottom FLAC__metadata_object_cuesheet_track_delete_data.function
	.set	FLAC__metadata_object_cuesheet_track_delete_data.nstackwords,((assert.nstackwords $M free.nstackwords) + 4)
	.globl	FLAC__metadata_object_cuesheet_track_delete_data.nstackwords
	.set	FLAC__metadata_object_cuesheet_track_delete_data.maxcores,free.maxcores $M 1
	.globl	FLAC__metadata_object_cuesheet_track_delete_data.maxcores
	.set	FLAC__metadata_object_cuesheet_track_delete_data.maxtimers,free.maxtimers $M 0
	.globl	FLAC__metadata_object_cuesheet_track_delete_data.maxtimers
	.set	FLAC__metadata_object_cuesheet_track_delete_data.maxchanends,free.maxchanends $M 0
	.globl	FLAC__metadata_object_cuesheet_track_delete_data.maxchanends
.Ltmp1191:
	.size	FLAC__metadata_object_cuesheet_track_delete_data, .Ltmp1191-FLAC__metadata_object_cuesheet_track_delete_data
.Lfunc_end34:
	.cfi_endproc

	.globl	FLAC__metadata_object_cuesheet_track_resize_indices
	.align	4
	.type	FLAC__metadata_object_cuesheet_track_resize_indices,@function
	.cc_top FLAC__metadata_object_cuesheet_track_resize_indices.function,FLAC__metadata_object_cuesheet_track_resize_indices
FLAC__metadata_object_cuesheet_track_resize_indices:
.Lfunc_begin35:
	.loc	4 1499 0
	.cfi_startproc
	.issue_mode dual
	{
		nop
		dualentsp 12
	}
.Ltmp1192:
	.cfi_def_cfa_offset 48
.Ltmp1193:
	.cfi_offset 15, 0
	std r5, r4, sp[2]
.Ltmp1194:
	.cfi_offset 4, -32
.Ltmp1195:
	.cfi_offset 5, -28
	std r7, r6, sp[3]
.Ltmp1196:
	.cfi_offset 6, -24
.Ltmp1197:
	.cfi_offset 7, -20
	std r9, r8, sp[4]
.Ltmp1198:
	.cfi_offset 8, -16
.Ltmp1199:
	.cfi_offset 9, -12
.Ltmp1200:
	.cfi_offset 10, -8
.Ltmp1201:
	{
		mov r5, r2
		stw r10, sp[10]
	}
.Ltmp1202:
	{
		mov r6, r1
		mov r4, r0
	}
.Ltmp1203:
	.loc	4 1501 2 prologue_end
	{
		eq r0, r4, 0
		nop
	}
	{
		eq r0, r0, 0
		nop
	}
	.loc	4 1501 2
	bl assert
	{
		nop
		ldw r0, r4[0]
	}
	.loc	4 1502 2
	{
		eq r0, r0, 5
		nop
	}
	.loc	4 1502 2
	bl assert
	ldc r0, 164
	.loc	4 1503 2
	{
		add r10, r4, r0
		nop
	}
	{
		nop
		ldw r0, r10[0]
	}
	.loc	4 1503 2
	{
		lsu r0, r6, r0
		nop
	}
	.loc	4 1503 2
	bl assert
	ldc r0, 168
	.loc	4 1505 2
	{
		add r8, r4, r0
		nop
	}
	.loc	4 1505 2
	{
		shl r1, r6, 5
		ldw r0, r8[0]
	}
	.loc	4 1507 6
.Ltmp1204:
	{
		add r0, r0, r1
		nop
	}
	ldaw r9, r0[6]
	.loc	4 1507 6
	{
		ldc r2, 23
		ldw r1, r0[6]
	}
	.loc	4 1508 3
.Ltmp1205:
	{
		add r6, r0, r2
		ld8u r0, r0[r2]
	}
.Ltmp1206:
	.loc	4 1507 6
	bf r1, .LBB35_1
.Ltmp1207:
	{
		ldc r1, 28
		stw r6, sp[3]
	}
	.loc	4 1519 7
.Ltmp1208:
	{
		shr r1, r5, r1
		ldc r6, 0
	}
	bt r1, .LBB35_15
.Ltmp1209:
	.loc	4 1515 3
	{
		shl r1, r0, 4
		nop
	}
.Ltmp1210:
	.loc	4 1516 3
	{
		shl r7, r5, 4
		stw r1, sp[2]
	}
.Ltmp1211:
	.loc	4 1522 3
	{
		eq r0, r0, 0
		nop
	}
	{
		eq r0, r0, 0
		nop
	}
	.loc	4 1522 3
	bl assert
	{
		nop
		ldw r0, r9[0]
	}
	.loc	4 1524 7
.Ltmp1212:
	bf r7, .LBB35_7
.Ltmp1213:
	.loc	4 1531 18
	{
		mov r1, r7
		nop
	}
	bl realloc
	bt r0, .LBB35_9
	bu .LBB35_15
.Ltmp1214:
.LBB35_1:
	.loc	4 1508 3
	{
		eq r0, r0, 0
		nop
	}
	.loc	4 1508 3
	bl assert
	.loc	4 1509 7
.Ltmp1215:
	bf r5, .LBB35_2
.Ltmp1216:
	{
		mkmsk r0, 1
		nop
	}
	.loc	4 346 2
.Ltmp1217:
	bl assert
.Ltmp1218:
	{
		ldc r1, 16
		mov r0, r5
	}
	.loc	5 121 9
.Ltmp1219:
	bl calloc
	{
		nop
		stw r0, r9[0]
	}
	bt r0, .LBB35_11
.Ltmp1220:
	{
		ldc r6, 0
		nop
	}
	bu .LBB35_15
.LBB35_2:
	{
		mkmsk r6, 1
		nop
	}
	bu .LBB35_15
.LBB35_7:
.Ltmp1221:
	.loc	4 1525 4
	bl free
	{
		ldc r0, 0
		nop
	}
.Ltmp1222:
.LBB35_9:
	{
		nop
		stw r0, r9[0]
	}
	{
		nop
		ldw r3, sp[2]
	}
.Ltmp1223:
	.loc	4 1537 7
	{
		lsu r1, r3, r7
		ldw r6, sp[3]
	}
	bf r1, .LBB35_11
.Ltmp1224:
	.loc	4 1538 4
	{
		ldc r1, 0
		nop
	}
	{
		nop
		ld8u r2, r6[r1]
	}
	.loc	4 1538 4
	{
		shl r2, r2, 4
		nop
	}
	{
		add r0, r0, r2
		sub r2, r7, r3
	}
	.loc	4 1538 4
	bl memset
.Ltmp1225:
.LBB35_11:
	.loc	4 1541 2
	{
		ldc r7, 0
		nop
	}
	st8 r5, r6[r7]
.Ltmp1226:
	{
		nop
		ldw r0, r4[0]
	}
	.loc	4 315 2
.Ltmp1227:
	{
		eq r0, r0, 5
		nop
	}
	.loc	4 315 2
	bl assert
	.loc	4 317 2
	ldw r0, cp[FLAC__STREAM_METADATA_CUESHEET_MEDIA_CATALOG_NUMBER_LEN]
	.loc	4 317 2
	ldw r1, cp[FLAC__STREAM_METADATA_CUESHEET_LEAD_IN_LEN]
	.loc	4 317 2
	{
		add r0, r1, r0
		nop
	}
	.loc	4 317 2
	ldw r1, cp[FLAC__STREAM_METADATA_CUESHEET_IS_CD_LEN]
	.loc	4 317 2
	{
		add r0, r0, r1
		nop
	}
	.loc	4 317 2
	ldw r1, cp[FLAC__STREAM_METADATA_CUESHEET_RESERVED_LEN]
	.loc	4 317 2
	{
		add r0, r0, r1
		nop
	}
	.loc	4 317 2
	ldw r1, cp[FLAC__STREAM_METADATA_CUESHEET_NUM_TRACKS_LEN]
	.loc	4 317 2
	{
		add r0, r0, r1
		nop
	}
	.loc	4 317 2
	{
		shr r1, r0, 3
		ldw r0, r10[0]
	}
	.loc	4 325 2
	ldw r2, cp[FLAC__STREAM_METADATA_CUESHEET_TRACK_OFFSET_LEN]
	.loc	4 325 2
	ldw r3, cp[FLAC__STREAM_METADATA_CUESHEET_TRACK_NUMBER_LEN]
	.loc	4 325 2
	{
		add r2, r3, r2
		nop
	}
	.loc	4 325 2
	ldw r3, cp[FLAC__STREAM_METADATA_CUESHEET_TRACK_ISRC_LEN]
	.loc	4 325 2
	{
		add r2, r2, r3
		nop
	}
	.loc	4 325 2
	ldw r3, cp[FLAC__STREAM_METADATA_CUESHEET_TRACK_TYPE_LEN]
	.loc	4 325 2
	{
		add r2, r2, r3
		nop
	}
	.loc	4 325 2
	ldw r3, cp[FLAC__STREAM_METADATA_CUESHEET_TRACK_PRE_EMPHASIS_LEN]
	.loc	4 325 2
	{
		add r2, r2, r3
		nop
	}
	.loc	4 325 2
	ldw r3, cp[FLAC__STREAM_METADATA_CUESHEET_TRACK_RESERVED_LEN]
	.loc	4 325 2
	{
		add r2, r2, r3
		nop
	}
	.loc	4 325 2
	ldw r3, cp[FLAC__STREAM_METADATA_CUESHEET_TRACK_NUM_INDICES_LEN]
	.loc	4 325 2
	{
		add r2, r2, r3
		nop
	}
	.loc	4 325 2
	mul r2, r2, r0
	.loc	4 325 2
	{
		shr r2, r2, 3
		nop
	}
	.loc	4 325 2
	{
		add r1, r2, r1
		nop
	}
.Ltmp1228:
	.loc	4 325 2
	{
		mkmsk r6, 1
		stw r1, r4[2]
	}
	bf r0, .LBB35_15
.Ltmp1229:
	{
		nop
		ldw r3, r8[0]
	}
	.loc	4 336 3
.Ltmp1230:
	ldw r2, cp[FLAC__STREAM_METADATA_CUESHEET_INDEX_OFFSET_LEN]
	.loc	4 336 3
	ldw r11, cp[FLAC__STREAM_METADATA_CUESHEET_INDEX_NUMBER_LEN]
	.loc	4 336 3
	{
		add r2, r11, r2
		nop
	}
	.loc	4 336 3
	ldw r11, cp[FLAC__STREAM_METADATA_CUESHEET_INDEX_RESERVED_LEN]
	.loc	4 336 3
	{
		add r2, r2, r11
		ldc r11, 23
	}
	{
		add r3, r3, r11
		nop
	}
.Ltmp1231:
.LBB35_13:
	{
		nop
		ld8u r11, r3[r7]
	}
	.loc	4 336 3
	mul r11, r11, r2
	.loc	4 336 3
	{
		shr r11, r11, 3
		nop
	}
	.loc	4 336 3
	{
		add r1, r11, r1
		sub r0, r0, 1
	}
.Ltmp1232:
	.loc	4 335 2
	ldaw r3, r3[8]
	.loc	4 335 2
	bt r0, .LBB35_13
.Ltmp1233:
	{
		nop
		stw r1, r4[2]
	}
.Ltmp1234:
.LBB35_15:
	.loc	4 1545 1
	{
		mov r0, r6
		ldw r10, sp[10]
	}
	ldd r9, r8, sp[4]
	ldd r7, r6, sp[3]
	ldd r5, r4, sp[2]
	{
		nop
		retsp 12
	}
	# RETURN_REG_HOLDER
.Ltmp1235:
	.cc_bottom FLAC__metadata_object_cuesheet_track_resize_indices.function
	.set	FLAC__metadata_object_cuesheet_track_resize_indices.nstackwords,((calloc.nstackwords $M assert.nstackwords $M free.nstackwords $M memset.nstackwords $M realloc.nstackwords) + 12)
	.globl	FLAC__metadata_object_cuesheet_track_resize_indices.nstackwords
	.set	FLAC__metadata_object_cuesheet_track_resize_indices.maxcores,calloc.maxcores $M free.maxcores $M realloc.maxcores $M 1
	.globl	FLAC__metadata_object_cuesheet_track_resize_indices.maxcores
	.set	FLAC__metadata_object_cuesheet_track_resize_indices.maxtimers,calloc.maxtimers $M free.maxtimers $M realloc.maxtimers $M 0
	.globl	FLAC__metadata_object_cuesheet_track_resize_indices.maxtimers
	.set	FLAC__metadata_object_cuesheet_track_resize_indices.maxchanends,calloc.maxchanends $M free.maxchanends $M realloc.maxchanends $M 0
	.globl	FLAC__metadata_object_cuesheet_track_resize_indices.maxchanends
.Ltmp1236:
	.size	FLAC__metadata_object_cuesheet_track_resize_indices, .Ltmp1236-FLAC__metadata_object_cuesheet_track_resize_indices
.Lfunc_end35:
	.cfi_endproc

	.section	.cp.rodata.cst4,"aMc",@progbits,4
	.cc_top .LCPI36_0.data,.LCPI36_0
	.align	4
	.type	.LCPI36_0,@object
	.size	.LCPI36_0, 4
.LCPI36_0:
	.long	268435455
	.cc_bottom .LCPI36_0.data
	.text
	.globl	FLAC__metadata_object_cuesheet_track_insert_index
	.align	4
	.type	FLAC__metadata_object_cuesheet_track_insert_index,@function
	.cc_top FLAC__metadata_object_cuesheet_track_insert_index.function,FLAC__metadata_object_cuesheet_track_insert_index
FLAC__metadata_object_cuesheet_track_insert_index:
.Lfunc_begin36:
	.loc	4 1548 0
	.cfi_startproc
	.issue_mode dual
	{
		nop
		dualentsp 14
	}
.Ltmp1237:
	.cfi_def_cfa_offset 56
.Ltmp1238:
	.cfi_offset 15, 0
	std r5, r4, sp[3]
.Ltmp1239:
	.cfi_offset 4, -32
.Ltmp1240:
	.cfi_offset 5, -28
	std r7, r6, sp[4]
.Ltmp1241:
	.cfi_offset 6, -24
.Ltmp1242:
	.cfi_offset 7, -20
	std r9, r8, sp[5]
.Ltmp1243:
	.cfi_offset 8, -16
.Ltmp1244:
	.cfi_offset 9, -12
.Ltmp1245:
	.cfi_offset 10, -8
.Ltmp1246:
	{
		mov r6, r2
		stw r10, sp[12]
	}
.Ltmp1247:
	{
		mov r7, r1
		mov r4, r0
	}
.Ltmp1248:
	{
		ldaw r0, sp[2]
		ldc r2, 16
	}
	{
		mov r1, r3
		nop
	}
	bl __memcpy_4
	.loc	4 1551 2 prologue_end
.Ltmp1249:
	{
		eq r0, r4, 0
		nop
	}
	{
		eq r0, r0, 0
		nop
	}
	.loc	4 1551 2
	bl assert
	{
		nop
		ldw r0, r4[0]
	}
	.loc	4 1552 2
	{
		eq r0, r0, 5
		nop
	}
	.loc	4 1552 2
	bl assert
	ldc r0, 164
	.loc	4 1553 2
	{
		add r10, r4, r0
		nop
	}
	{
		nop
		ldw r0, r10[0]
	}
	.loc	4 1553 2
	{
		lsu r0, r7, r0
		nop
	}
	.loc	4 1553 2
	bl assert
	ldc r0, 168
	.loc	4 1554 2
	{
		add r9, r4, r0
		nop
	}
	.loc	4 1554 2
	{
		shl r5, r7, 5
		ldw r0, r9[0]
	}
	.loc	4 1554 2
	{
		add r0, r0, r5
		ldc r8, 23
	}
	{
		nop
		ld8u r0, r0[r8]
	}
	.loc	4 1554 2
	{
		lsu r0, r0, r6
		nop
	}
	{
		eq r0, r0, 0
		nop
	}
	.loc	4 1554 2
	bl assert
	{
		nop
		ldw r0, r9[0]
	}
	.loc	4 1558 7
.Ltmp1250:
	{
		add r5, r0, r5
		nop
	}
	{
		nop
		ld8u r0, r5[r8]
	}
	.loc	4 1558 7
	{
		add r2, r0, 1
		mov r0, r4
	}
	.loc	4 1558 7
	{
		mov r1, r7
		nop
	}
	bl FLAC__metadata_object_cuesheet_track_resize_indices
	.loc	4 1558 7
	bf r0, .LBB36_1
.Ltmp1251:
	.loc	4 1558 7
	{
		add r2, r5, r8
		ldw r0, r5[6]
	}
.Ltmp1252:
	.loc	4 1562 2
	{
		shl r8, r6, 4
		nop
	}
	{
		add r1, r0, r8
		nop
	}
	.loc	4 1562 2
	ldaw r0, r1[4]
	.loc	4 1562 2
	{
		ldc r7, 0
		nop
	}
	{
		nop
		ld8u r2, r2[r7]
	}
	ldw r3, cp[.LCPI36_0]
	.loc	4 1562 2
	{
		sub r3, r3, r6
		nop
	}
	.loc	4 1562 2
	{
		add r2, r3, r2
		nop
	}
	.loc	4 1562 2
	{
		shl r2, r2, 4
		nop
	}
	.loc	4 1562 2
	bl memmove
	{
		nop
		ldw r0, r5[6]
	}
	.loc	4 1564 2
	{
		add r0, r0, r8
		ldc r2, 16
	}
	{
		ldaw r1, sp[2]
		nop
	}
	.loc	4 1564 2
	bl __memcpy_4
.Ltmp1253:
	{
		nop
		ldw r0, r4[0]
	}
	.loc	4 315 2
.Ltmp1254:
	{
		eq r0, r0, 5
		nop
	}
	.loc	4 315 2
	bl assert
	.loc	4 317 2
	ldw r0, cp[FLAC__STREAM_METADATA_CUESHEET_MEDIA_CATALOG_NUMBER_LEN]
	.loc	4 317 2
	ldw r1, cp[FLAC__STREAM_METADATA_CUESHEET_LEAD_IN_LEN]
	.loc	4 317 2
	{
		add r0, r1, r0
		nop
	}
	.loc	4 317 2
	ldw r1, cp[FLAC__STREAM_METADATA_CUESHEET_IS_CD_LEN]
	.loc	4 317 2
	{
		add r0, r0, r1
		nop
	}
	.loc	4 317 2
	ldw r1, cp[FLAC__STREAM_METADATA_CUESHEET_RESERVED_LEN]
	.loc	4 317 2
	{
		add r0, r0, r1
		nop
	}
	.loc	4 317 2
	ldw r1, cp[FLAC__STREAM_METADATA_CUESHEET_NUM_TRACKS_LEN]
	.loc	4 317 2
	{
		add r0, r0, r1
		nop
	}
	.loc	4 317 2
	{
		shr r0, r0, 3
		ldw r1, r10[0]
	}
	.loc	4 325 2
	ldw r2, cp[FLAC__STREAM_METADATA_CUESHEET_TRACK_OFFSET_LEN]
	.loc	4 325 2
	ldw r3, cp[FLAC__STREAM_METADATA_CUESHEET_TRACK_NUMBER_LEN]
	.loc	4 325 2
	{
		add r2, r3, r2
		nop
	}
	.loc	4 325 2
	ldw r3, cp[FLAC__STREAM_METADATA_CUESHEET_TRACK_ISRC_LEN]
	.loc	4 325 2
	{
		add r2, r2, r3
		nop
	}
	.loc	4 325 2
	ldw r3, cp[FLAC__STREAM_METADATA_CUESHEET_TRACK_TYPE_LEN]
	.loc	4 325 2
	{
		add r2, r2, r3
		nop
	}
	.loc	4 325 2
	ldw r3, cp[FLAC__STREAM_METADATA_CUESHEET_TRACK_PRE_EMPHASIS_LEN]
	.loc	4 325 2
	{
		add r2, r2, r3
		nop
	}
	.loc	4 325 2
	ldw r3, cp[FLAC__STREAM_METADATA_CUESHEET_TRACK_RESERVED_LEN]
	.loc	4 325 2
	{
		add r2, r2, r3
		nop
	}
	.loc	4 325 2
	ldw r3, cp[FLAC__STREAM_METADATA_CUESHEET_TRACK_NUM_INDICES_LEN]
	.loc	4 325 2
	{
		add r2, r2, r3
		nop
	}
	.loc	4 325 2
	mul r2, r2, r1
	.loc	4 325 2
	{
		shr r2, r2, 3
		nop
	}
	.loc	4 325 2
	{
		add r2, r2, r0
		nop
	}
.Ltmp1255:
	.loc	4 325 2
	{
		mkmsk r0, 1
		stw r2, r4[2]
	}
	bf r1, .LBB36_6
.Ltmp1256:
	{
		nop
		ldw r11, r9[0]
	}
	.loc	4 336 3
.Ltmp1257:
	ldw r3, cp[FLAC__STREAM_METADATA_CUESHEET_INDEX_OFFSET_LEN]
	.loc	4 336 3
	ldw r5, cp[FLAC__STREAM_METADATA_CUESHEET_INDEX_NUMBER_LEN]
	.loc	4 336 3
	{
		add r3, r5, r3
		nop
	}
	.loc	4 336 3
	ldw r5, cp[FLAC__STREAM_METADATA_CUESHEET_INDEX_RESERVED_LEN]
	.loc	4 336 3
	{
		add r3, r3, r5
		ldc r5, 23
	}
	{
		add r11, r11, r5
		nop
	}
.Ltmp1258:
.LBB36_4:
	{
		nop
		ld8u r5, r11[r7]
	}
	.loc	4 336 3
	mul r5, r5, r3
	.loc	4 336 3
	{
		shr r5, r5, 3
		nop
	}
	.loc	4 336 3
	{
		add r2, r5, r2
		sub r1, r1, 1
	}
.Ltmp1259:
	.loc	4 335 2
	ldaw r11, r11[8]
	.loc	4 335 2
	bt r1, .LBB36_4
.Ltmp1260:
	{
		nop
		stw r2, r4[2]
	}
	bu .LBB36_6
.Ltmp1261:
.LBB36_1:
	{
		ldc r0, 0
		nop
	}
.Ltmp1262:
.LBB36_6:
	{
		nop
		ldw r10, sp[12]
	}
	.loc	4 1567 1
	ldd r9, r8, sp[5]
	ldd r7, r6, sp[4]
	ldd r5, r4, sp[3]
	{
		nop
		retsp 14
	}
.Ltmp1263:
	# RETURN_REG_HOLDER
.Ltmp1264:
	.cc_bottom FLAC__metadata_object_cuesheet_track_insert_index.function
	.set	FLAC__metadata_object_cuesheet_track_insert_index.nstackwords,((FLAC__metadata_object_cuesheet_track_resize_indices.nstackwords $M memmove.nstackwords $M __memcpy_4.nstackwords $M assert.nstackwords) + 14)
	.globl	FLAC__metadata_object_cuesheet_track_insert_index.nstackwords
	.set	FLAC__metadata_object_cuesheet_track_insert_index.maxcores,FLAC__metadata_object_cuesheet_track_resize_indices.maxcores $M 1
	.globl	FLAC__metadata_object_cuesheet_track_insert_index.maxcores
	.set	FLAC__metadata_object_cuesheet_track_insert_index.maxtimers,FLAC__metadata_object_cuesheet_track_resize_indices.maxtimers $M 0
	.globl	FLAC__metadata_object_cuesheet_track_insert_index.maxtimers
	.set	FLAC__metadata_object_cuesheet_track_insert_index.maxchanends,FLAC__metadata_object_cuesheet_track_resize_indices.maxchanends $M 0
	.globl	FLAC__metadata_object_cuesheet_track_insert_index.maxchanends
.Ltmp1265:
	.size	FLAC__metadata_object_cuesheet_track_insert_index, .Ltmp1265-FLAC__metadata_object_cuesheet_track_insert_index
.Lfunc_end36:
	.cfi_endproc

	.globl	FLAC__metadata_object_cuesheet_track_insert_blank_index
	.align	4
	.type	FLAC__metadata_object_cuesheet_track_insert_blank_index,@function
	.cc_top FLAC__metadata_object_cuesheet_track_insert_blank_index.function,FLAC__metadata_object_cuesheet_track_insert_blank_index
FLAC__metadata_object_cuesheet_track_insert_blank_index:
.Lfunc_begin37:
	.loc	4 1570 0
	.cfi_startproc
	.issue_mode dual
	{
		nop
		dualentsp 8
	}
.Ltmp1266:
	.cfi_def_cfa_offset 32
.Ltmp1267:
	.cfi_offset 15, 0
.Ltmp1268:
	.cfi_offset 4, -8
	{
		ldc r11, 4
		stw r4, sp[6]
	}
	{
		ldaw r3, sp[2]
		nop
	}
.Ltmp1269:
	.loc	4 1572 2 prologue_end
	{
		or r11, r3, r11
		ldc r4, 0
	}
	{
		nop
		stw r4, r11[0]
	}
	{
		nop
		stw r4, sp[5]
	}
	{
		nop
		stw r4, sp[4]
	}
	{
		nop
		stw r4, sp[2]
	}
	.loc	4 1573 9
	bl FLAC__metadata_object_cuesheet_track_insert_index
.Ltmp1270:
	{
		nop
		ldw r4, sp[6]
	}
	{
		nop
		retsp 8
	}
	.loc	4 1573 9
	# RETURN_REG_HOLDER
.Ltmp1271:
	.cc_bottom FLAC__metadata_object_cuesheet_track_insert_blank_index.function
	.set	FLAC__metadata_object_cuesheet_track_insert_blank_index.nstackwords,(FLAC__metadata_object_cuesheet_track_insert_index.nstackwords + 8)
	.globl	FLAC__metadata_object_cuesheet_track_insert_blank_index.nstackwords
	.set	FLAC__metadata_object_cuesheet_track_insert_blank_index.maxcores,FLAC__metadata_object_cuesheet_track_insert_index.maxcores $M 1
	.globl	FLAC__metadata_object_cuesheet_track_insert_blank_index.maxcores
	.set	FLAC__metadata_object_cuesheet_track_insert_blank_index.maxtimers,FLAC__metadata_object_cuesheet_track_insert_index.maxtimers $M 0
	.globl	FLAC__metadata_object_cuesheet_track_insert_blank_index.maxtimers
	.set	FLAC__metadata_object_cuesheet_track_insert_blank_index.maxchanends,FLAC__metadata_object_cuesheet_track_insert_index.maxchanends $M 0
	.globl	FLAC__metadata_object_cuesheet_track_insert_blank_index.maxchanends
.Ltmp1272:
	.size	FLAC__metadata_object_cuesheet_track_insert_blank_index, .Ltmp1272-FLAC__metadata_object_cuesheet_track_insert_blank_index
.Lfunc_end37:
	.cfi_endproc

	.globl	FLAC__metadata_object_cuesheet_track_delete_index
	.align	4
	.type	FLAC__metadata_object_cuesheet_track_delete_index,@function
	.cc_top FLAC__metadata_object_cuesheet_track_delete_index.function,FLAC__metadata_object_cuesheet_track_delete_index
FLAC__metadata_object_cuesheet_track_delete_index:
.Lfunc_begin38:
	.loc	4 1577 0
	.cfi_startproc
	.issue_mode dual
	{
		nop
		dualentsp 10
	}
.Ltmp1273:
	.cfi_def_cfa_offset 40
.Ltmp1274:
	.cfi_offset 15, 0
	std r5, r4, sp[1]
.Ltmp1275:
	.cfi_offset 4, -32
.Ltmp1276:
	.cfi_offset 5, -28
	std r7, r6, sp[2]
.Ltmp1277:
	.cfi_offset 6, -24
.Ltmp1278:
	.cfi_offset 7, -20
	std r9, r8, sp[3]
.Ltmp1279:
	.cfi_offset 8, -16
.Ltmp1280:
	.cfi_offset 9, -12
.Ltmp1281:
	.cfi_offset 10, -8
.Ltmp1282:
	{
		mov r6, r2
		stw r10, sp[8]
	}
.Ltmp1283:
	{
		mov r5, r1
		mov r4, r0
	}
.Ltmp1284:
	.loc	4 1580 2 prologue_end
	{
		eq r0, r4, 0
		nop
	}
	{
		eq r0, r0, 0
		nop
	}
	.loc	4 1580 2
	bl assert
	{
		nop
		ldw r0, r4[0]
	}
	.loc	4 1581 2
	{
		eq r0, r0, 5
		nop
	}
	.loc	4 1581 2
	bl assert
	ldc r0, 164
	.loc	4 1582 2
	{
		add r9, r4, r0
		nop
	}
	{
		nop
		ldw r0, r9[0]
	}
	.loc	4 1582 2
	{
		lsu r0, r5, r0
		nop
	}
	.loc	4 1582 2
	bl assert
	ldc r0, 168
	.loc	4 1583 2
	{
		add r8, r4, r0
		nop
	}
	.loc	4 1583 2
	{
		shl r10, r5, 5
		ldw r0, r8[0]
	}
	.loc	4 1583 2
	{
		add r0, r0, r10
		ldc r7, 23
	}
	{
		nop
		ld8u r0, r0[r7]
	}
	.loc	4 1583 2
	{
		lsu r0, r6, r0
		nop
	}
	.loc	4 1583 2
	bl assert
	{
		nop
		ldw r0, r8[0]
	}
	.loc	4 1588 2
	{
		add r10, r0, r10
		nop
	}
	.loc	4 1588 2
	{
		shl r1, r6, 4
		ldw r0, r10[6]
	}
	.loc	4 1588 2
	{
		add r0, r0, r1
		nop
	}
	.loc	4 1588 2
	ldaw r1, r0[4]
	{
		nop
		ld8u r2, r10[r7]
	}
	.loc	4 1588 2
	{
		sub r2, r2, r6
		nop
	}
	.loc	4 1588 2
	{
		shl r2, r2, 4
		nop
	}
	.loc	4 1588 2
	ldaw r2, r2[-4]
	.loc	4 1588 2
	bl memmove
	{
		nop
		ld8u r0, r10[r7]
	}
	.loc	4 1590 2
	{
		sub r2, r0, 1
		mov r0, r4
	}
	.loc	4 1590 2
	{
		mov r1, r5
		nop
	}
	bl FLAC__metadata_object_cuesheet_track_resize_indices
	{
		nop
		ldw r0, r4[0]
	}
	.loc	4 315 2
.Ltmp1285:
	{
		eq r0, r0, 5
		nop
	}
	.loc	4 315 2
	bl assert
	.loc	4 317 2
	ldw r0, cp[FLAC__STREAM_METADATA_CUESHEET_MEDIA_CATALOG_NUMBER_LEN]
	.loc	4 317 2
	ldw r1, cp[FLAC__STREAM_METADATA_CUESHEET_LEAD_IN_LEN]
	.loc	4 317 2
	{
		add r0, r1, r0
		nop
	}
	.loc	4 317 2
	ldw r1, cp[FLAC__STREAM_METADATA_CUESHEET_IS_CD_LEN]
	.loc	4 317 2
	{
		add r0, r0, r1
		nop
	}
	.loc	4 317 2
	ldw r1, cp[FLAC__STREAM_METADATA_CUESHEET_RESERVED_LEN]
	.loc	4 317 2
	{
		add r0, r0, r1
		nop
	}
	.loc	4 317 2
	ldw r1, cp[FLAC__STREAM_METADATA_CUESHEET_NUM_TRACKS_LEN]
	.loc	4 317 2
	{
		add r0, r0, r1
		nop
	}
	.loc	4 317 2
	{
		shr r1, r0, 3
		ldw r0, r9[0]
	}
	.loc	4 325 2
	ldw r2, cp[FLAC__STREAM_METADATA_CUESHEET_TRACK_OFFSET_LEN]
	.loc	4 325 2
	ldw r3, cp[FLAC__STREAM_METADATA_CUESHEET_TRACK_NUMBER_LEN]
	.loc	4 325 2
	{
		add r2, r3, r2
		nop
	}
	.loc	4 325 2
	ldw r3, cp[FLAC__STREAM_METADATA_CUESHEET_TRACK_ISRC_LEN]
	.loc	4 325 2
	{
		add r2, r2, r3
		nop
	}
	.loc	4 325 2
	ldw r3, cp[FLAC__STREAM_METADATA_CUESHEET_TRACK_TYPE_LEN]
	.loc	4 325 2
	{
		add r2, r2, r3
		nop
	}
	.loc	4 325 2
	ldw r3, cp[FLAC__STREAM_METADATA_CUESHEET_TRACK_PRE_EMPHASIS_LEN]
	.loc	4 325 2
	{
		add r2, r2, r3
		nop
	}
	.loc	4 325 2
	ldw r3, cp[FLAC__STREAM_METADATA_CUESHEET_TRACK_RESERVED_LEN]
	.loc	4 325 2
	{
		add r2, r2, r3
		nop
	}
	.loc	4 325 2
	ldw r3, cp[FLAC__STREAM_METADATA_CUESHEET_TRACK_NUM_INDICES_LEN]
	.loc	4 325 2
	{
		add r2, r2, r3
		nop
	}
	.loc	4 325 2
	mul r2, r2, r0
	.loc	4 325 2
	{
		shr r2, r2, 3
		nop
	}
	.loc	4 325 2
	{
		add r1, r2, r1
		nop
	}
.Ltmp1286:
	{
		nop
		stw r1, r4[2]
	}
	bf r0, .LBB38_4
.Ltmp1287:
	{
		nop
		ldw r3, r8[0]
	}
	.loc	4 336 3
.Ltmp1288:
	ldw r2, cp[FLAC__STREAM_METADATA_CUESHEET_INDEX_OFFSET_LEN]
	.loc	4 336 3
	ldw r11, cp[FLAC__STREAM_METADATA_CUESHEET_INDEX_NUMBER_LEN]
	.loc	4 336 3
	{
		add r2, r11, r2
		nop
	}
	.loc	4 336 3
	ldw r11, cp[FLAC__STREAM_METADATA_CUESHEET_INDEX_RESERVED_LEN]
	.loc	4 336 3
	{
		add r2, r2, r11
		add r3, r3, r7
	}
	.loc	4 336 3
	{
		ldc r11, 0
		nop
	}
.Ltmp1289:
.LBB38_2:
	{
		nop
		ld8u r5, r3[r11]
	}
	.loc	4 336 3
	mul r5, r5, r2
	.loc	4 336 3
	{
		shr r5, r5, 3
		nop
	}
	.loc	4 336 3
	{
		add r1, r5, r1
		sub r0, r0, 1
	}
.Ltmp1290:
	.loc	4 335 2
	ldaw r3, r3[8]
	.loc	4 335 2
	bt r0, .LBB38_2
.Ltmp1291:
	{
		nop
		stw r1, r4[2]
	}
.Ltmp1292:
.LBB38_4:
	{
		mkmsk r0, 1
		ldw r10, sp[8]
	}
	.loc	4 1592 2
	ldd r9, r8, sp[3]
	ldd r7, r6, sp[2]
	ldd r5, r4, sp[1]
	{
		nop
		retsp 10
	}
	# RETURN_REG_HOLDER
.Ltmp1293:
	.cc_bottom FLAC__metadata_object_cuesheet_track_delete_index.function
	.set	FLAC__metadata_object_cuesheet_track_delete_index.nstackwords,((memmove.nstackwords $M FLAC__metadata_object_cuesheet_track_resize_indices.nstackwords $M assert.nstackwords) + 10)
	.globl	FLAC__metadata_object_cuesheet_track_delete_index.nstackwords
	.set	FLAC__metadata_object_cuesheet_track_delete_index.maxcores,FLAC__metadata_object_cuesheet_track_resize_indices.maxcores $M 1
	.globl	FLAC__metadata_object_cuesheet_track_delete_index.maxcores
	.set	FLAC__metadata_object_cuesheet_track_delete_index.maxtimers,FLAC__metadata_object_cuesheet_track_resize_indices.maxtimers $M 0
	.globl	FLAC__metadata_object_cuesheet_track_delete_index.maxtimers
	.set	FLAC__metadata_object_cuesheet_track_delete_index.maxchanends,FLAC__metadata_object_cuesheet_track_resize_indices.maxchanends $M 0
	.globl	FLAC__metadata_object_cuesheet_track_delete_index.maxchanends
.Ltmp1294:
	.size	FLAC__metadata_object_cuesheet_track_delete_index, .Ltmp1294-FLAC__metadata_object_cuesheet_track_delete_index
.Lfunc_end38:
	.cfi_endproc

	.globl	FLAC__metadata_object_cuesheet_resize_tracks
	.align	4
	.type	FLAC__metadata_object_cuesheet_resize_tracks,@function
	.cc_top FLAC__metadata_object_cuesheet_resize_tracks.function,FLAC__metadata_object_cuesheet_resize_tracks
FLAC__metadata_object_cuesheet_resize_tracks:
.Lfunc_begin39:
	.loc	4 1596 0
	.cfi_startproc
	.issue_mode dual
	{
		nop
		dualentsp 10
	}
.Ltmp1295:
	.cfi_def_cfa_offset 40
.Ltmp1296:
	.cfi_offset 15, 0
	std r5, r4, sp[1]
.Ltmp1297:
	.cfi_offset 4, -32
.Ltmp1298:
	.cfi_offset 5, -28
	std r7, r6, sp[2]
.Ltmp1299:
	.cfi_offset 6, -24
.Ltmp1300:
	.cfi_offset 7, -20
	std r9, r8, sp[3]
.Ltmp1301:
	.cfi_offset 8, -16
.Ltmp1302:
	.cfi_offset 9, -12
.Ltmp1303:
	.cfi_offset 10, -8
.Ltmp1304:
	{
		mov r6, r1
		stw r10, sp[8]
	}
.Ltmp1305:
	{
		mov r4, r0
		nop
	}
.Ltmp1306:
	.loc	4 1597 2 prologue_end
	{
		eq r0, r4, 0
		nop
	}
	{
		eq r0, r0, 0
		nop
	}
	.loc	4 1597 2
	bl assert
	{
		nop
		ldw r0, r4[0]
	}
	.loc	4 1598 2
	{
		eq r0, r0, 5
		nop
	}
	.loc	4 1598 2
	bl assert
	ldc r0, 168
	.loc	4 1600 6
.Ltmp1307:
	{
		add r8, r4, r0
		nop
	}
	{
		nop
		ldw r0, r8[0]
	}
	ldc r1, 164
	.loc	4 1601 3
.Ltmp1308:
	{
		add r9, r4, r1
		nop
	}
	{
		nop
		ldw r10, r9[0]
	}
.Ltmp1309:
	.loc	4 1600 6
	bf r0, .LBB39_1
.Ltmp1310:
	{
		ldc r0, 27
		nop
	}
	.loc	4 1612 7
.Ltmp1311:
	{
		shr r0, r6, r0
		ldc r7, 0
	}
	bt r0, .LBB39_18
.Ltmp1312:
	.loc	4 1609 3
	{
		shl r0, r6, 5
		nop
	}
.Ltmp1313:
	.loc	4 1615 3
	{
		eq r0, r10, 0
		stw r0, sp[1]
	}
	{
		eq r0, r0, 0
		nop
	}
	.loc	4 1615 3
	bl assert
	{
		nop
		ldw r0, r9[0]
	}
	.loc	4 1618 7
.Ltmp1314:
	{
		lsu r0, r6, r0
		nop
	}
	bf r0, .LBB39_9
.Ltmp1315:
	{
		ldc r0, 24
		ldw r1, sp[1]
	}
	.loc	4 1621 5
.Ltmp1316:
	{
		or r7, r1, r0
		mov r5, r6
	}
.Ltmp1317:
.LBB39_8:
	{
		nop
		ldw r0, r8[0]
	}
	{
		add r0, r0, r7
		nop
	}
	{
		nop
		ldw r0, r0[0]
	}
	.loc	4 1621 5
	bl free
.Ltmp1318:
	.loc	4 1620 68
	{
		add r5, r5, 1
		ldw r0, r9[0]
	}
.Ltmp1319:
	.loc	4 1620 4
	ldaw r7, r7[8]
	.loc	4 1620 4
	{
		lsu r0, r5, r0
		nop
	}
	bt r0, .LBB39_8
.Ltmp1320:
.LBB39_9:
	.loc	4 1608 3
	{
		shl r10, r10, 5
		ldw r0, r8[0]
	}
.Ltmp1321:
	{
		nop
		ldw r5, sp[1]
	}
.Ltmp1322:
	.loc	4 1624 7
	bf r5, .LBB39_10
.Ltmp1323:
	.loc	4 1631 18
	{
		mov r1, r5
		nop
	}
	bl realloc
	{
		ldc r7, 0
		nop
	}
	bt r0, .LBB39_12
	bu .LBB39_18
.Ltmp1324:
.LBB39_1:
	.loc	4 1601 3
	{
		eq r0, r10, 0
		nop
	}
	.loc	4 1601 3
	bl assert
	.loc	4 1602 7
.Ltmp1325:
	bf r6, .LBB39_2
.Ltmp1326:
	{
		mkmsk r0, 1
		nop
	}
	.loc	4 353 2
.Ltmp1327:
	bl assert
.Ltmp1328:
	{
		ldc r1, 32
		mov r0, r6
	}
	.loc	5 121 9
.Ltmp1329:
	bl calloc
	{
		nop
		stw r0, r8[0]
	}
	bt r0, .LBB39_14
.Ltmp1330:
	{
		ldc r7, 0
		nop
	}
	bu .LBB39_18
.LBB39_2:
	{
		mkmsk r7, 1
		nop
	}
	bu .LBB39_18
.LBB39_10:
.Ltmp1331:
	.loc	4 1625 4
	bl free
	{
		ldc r0, 0
		nop
	}
.Ltmp1332:
.LBB39_12:
	.loc	4 1626 4
	{
		lsu r1, r10, r5
		stw r0, r8[0]
	}
	bf r1, .LBB39_14
.Ltmp1333:
	{
		nop
		ldw r1, r9[0]
	}
	.loc	4 1638 4
.Ltmp1334:
	{
		shl r1, r1, 5
		nop
	}
	{
		add r0, r0, r1
		sub r2, r5, r10
	}
	{
		ldc r1, 0
		nop
	}
	.loc	4 1638 4
	bl memset
.Ltmp1335:
.LBB39_14:
	{
		nop
		stw r6, r9[0]
	}
	{
		nop
		ldw r0, r4[0]
	}
	.loc	4 315 2
.Ltmp1336:
	{
		eq r0, r0, 5
		nop
	}
	.loc	4 315 2
	bl assert
	.loc	4 317 2
	ldw r0, cp[FLAC__STREAM_METADATA_CUESHEET_MEDIA_CATALOG_NUMBER_LEN]
	.loc	4 317 2
	ldw r1, cp[FLAC__STREAM_METADATA_CUESHEET_LEAD_IN_LEN]
	.loc	4 317 2
	{
		add r0, r1, r0
		nop
	}
	.loc	4 317 2
	ldw r1, cp[FLAC__STREAM_METADATA_CUESHEET_IS_CD_LEN]
	.loc	4 317 2
	{
		add r0, r0, r1
		nop
	}
	.loc	4 317 2
	ldw r1, cp[FLAC__STREAM_METADATA_CUESHEET_RESERVED_LEN]
	.loc	4 317 2
	{
		add r0, r0, r1
		nop
	}
	.loc	4 317 2
	ldw r1, cp[FLAC__STREAM_METADATA_CUESHEET_NUM_TRACKS_LEN]
	.loc	4 317 2
	{
		add r0, r0, r1
		nop
	}
	.loc	4 317 2
	{
		shr r1, r0, 3
		ldw r0, r9[0]
	}
	.loc	4 325 2
	ldw r2, cp[FLAC__STREAM_METADATA_CUESHEET_TRACK_OFFSET_LEN]
	.loc	4 325 2
	ldw r3, cp[FLAC__STREAM_METADATA_CUESHEET_TRACK_NUMBER_LEN]
	.loc	4 325 2
	{
		add r2, r3, r2
		nop
	}
	.loc	4 325 2
	ldw r3, cp[FLAC__STREAM_METADATA_CUESHEET_TRACK_ISRC_LEN]
	.loc	4 325 2
	{
		add r2, r2, r3
		nop
	}
	.loc	4 325 2
	ldw r3, cp[FLAC__STREAM_METADATA_CUESHEET_TRACK_TYPE_LEN]
	.loc	4 325 2
	{
		add r2, r2, r3
		nop
	}
	.loc	4 325 2
	ldw r3, cp[FLAC__STREAM_METADATA_CUESHEET_TRACK_PRE_EMPHASIS_LEN]
	.loc	4 325 2
	{
		add r2, r2, r3
		nop
	}
	.loc	4 325 2
	ldw r3, cp[FLAC__STREAM_METADATA_CUESHEET_TRACK_RESERVED_LEN]
	.loc	4 325 2
	{
		add r2, r2, r3
		nop
	}
	.loc	4 325 2
	ldw r3, cp[FLAC__STREAM_METADATA_CUESHEET_TRACK_NUM_INDICES_LEN]
	.loc	4 325 2
	{
		add r2, r2, r3
		nop
	}
	.loc	4 325 2
	mul r2, r2, r0
	.loc	4 325 2
	{
		shr r2, r2, 3
		nop
	}
	.loc	4 325 2
	{
		add r1, r2, r1
		nop
	}
.Ltmp1337:
	.loc	4 325 2
	{
		mkmsk r7, 1
		stw r1, r4[2]
	}
	bf r0, .LBB39_18
.Ltmp1338:
	{
		nop
		ldw r3, r8[0]
	}
	.loc	4 336 3
.Ltmp1339:
	ldw r2, cp[FLAC__STREAM_METADATA_CUESHEET_INDEX_OFFSET_LEN]
	.loc	4 336 3
	ldw r11, cp[FLAC__STREAM_METADATA_CUESHEET_INDEX_NUMBER_LEN]
	.loc	4 336 3
	{
		add r2, r11, r2
		nop
	}
	.loc	4 336 3
	ldw r11, cp[FLAC__STREAM_METADATA_CUESHEET_INDEX_RESERVED_LEN]
	.loc	4 336 3
	{
		add r2, r2, r11
		ldc r11, 23
	}
	{
		add r3, r3, r11
		ldc r11, 0
	}
.Ltmp1340:
.LBB39_16:
	{
		nop
		ld8u r5, r3[r11]
	}
	.loc	4 336 3
	mul r5, r5, r2
	.loc	4 336 3
	{
		shr r5, r5, 3
		nop
	}
	.loc	4 336 3
	{
		add r1, r5, r1
		sub r0, r0, 1
	}
.Ltmp1341:
	.loc	4 335 2
	ldaw r3, r3[8]
	.loc	4 335 2
	bt r0, .LBB39_16
.Ltmp1342:
	{
		nop
		stw r1, r4[2]
	}
.Ltmp1343:
.LBB39_18:
	.loc	4 1645 1
	{
		mov r0, r7
		ldw r10, sp[8]
	}
	ldd r9, r8, sp[3]
	ldd r7, r6, sp[2]
	ldd r5, r4, sp[1]
	{
		nop
		retsp 10
	}
	# RETURN_REG_HOLDER
.Ltmp1344:
	.cc_bottom FLAC__metadata_object_cuesheet_resize_tracks.function
	.set	FLAC__metadata_object_cuesheet_resize_tracks.nstackwords,((calloc.nstackwords $M assert.nstackwords $M free.nstackwords $M memset.nstackwords $M realloc.nstackwords) + 10)
	.globl	FLAC__metadata_object_cuesheet_resize_tracks.nstackwords
	.set	FLAC__metadata_object_cuesheet_resize_tracks.maxcores,calloc.maxcores $M free.maxcores $M realloc.maxcores $M 1
	.globl	FLAC__metadata_object_cuesheet_resize_tracks.maxcores
	.set	FLAC__metadata_object_cuesheet_resize_tracks.maxtimers,calloc.maxtimers $M free.maxtimers $M realloc.maxtimers $M 0
	.globl	FLAC__metadata_object_cuesheet_resize_tracks.maxtimers
	.set	FLAC__metadata_object_cuesheet_resize_tracks.maxchanends,calloc.maxchanends $M free.maxchanends $M realloc.maxchanends $M 0
	.globl	FLAC__metadata_object_cuesheet_resize_tracks.maxchanends
.Ltmp1345:
	.size	FLAC__metadata_object_cuesheet_resize_tracks, .Ltmp1345-FLAC__metadata_object_cuesheet_resize_tracks
.Lfunc_end39:
	.cfi_endproc

	.globl	FLAC__metadata_object_cuesheet_set_track
	.align	4
	.type	FLAC__metadata_object_cuesheet_set_track,@function
	.cc_top FLAC__metadata_object_cuesheet_set_track.function,FLAC__metadata_object_cuesheet_set_track
FLAC__metadata_object_cuesheet_set_track:
.Lfunc_begin40:
	.loc	4 1648 0
	.cfi_startproc
	.issue_mode dual
	{
		nop
		dualentsp 12
	}
.Ltmp1346:
	.cfi_def_cfa_offset 48
.Ltmp1347:
	.cfi_offset 15, 0
	std r5, r4, sp[2]
.Ltmp1348:
	.cfi_offset 4, -32
.Ltmp1349:
	.cfi_offset 5, -28
	std r7, r6, sp[3]
.Ltmp1350:
	.cfi_offset 6, -24
.Ltmp1351:
	.cfi_offset 7, -20
	std r9, r8, sp[4]
.Ltmp1352:
	.cfi_offset 8, -16
.Ltmp1353:
	.cfi_offset 9, -12
.Ltmp1354:
	.cfi_offset 10, -8
.Ltmp1355:
	{
		mov r7, r3
		stw r10, sp[10]
	}
.Ltmp1356:
	{
		mov r5, r2
		mov r6, r1
	}
.Ltmp1357:
	{
		mov r4, r0
		nop
	}
.Ltmp1358:
	.loc	4 1649 2 prologue_end
	{
		eq r0, r4, 0
		nop
	}
	{
		eq r8, r0, 0
		nop
	}
	.loc	4 1649 2
	{
		mov r0, r8
		nop
	}
	bl assert
	ldc r0, 164
	.loc	4 1650 2
	{
		add r10, r4, r0
		nop
	}
	{
		nop
		ldw r0, r10[0]
	}
	.loc	4 1650 2
	{
		lsu r0, r6, r0
		nop
	}
	.loc	4 1650 2
	bl assert
	ldc r0, 168
	.loc	4 1652 9
	{
		add r9, r4, r0
		nop
	}
	.loc	4 1652 9
	{
		shl r1, r6, 5
		ldw r0, r9[0]
	}
.Ltmp1359:
	.loc	4 1652 9
	{
		add r6, r0, r1
		mov r0, r8
	}
.Ltmp1360:
	.loc	4 401 2
	bl assert
	.loc	4 402 2
	{
		eq r0, r6, 0
		nop
	}
	{
		eq r0, r0, 0
		nop
	}
	.loc	4 402 2
	bl assert
	.loc	4 403 2
	{
		eq r0, r5, 0
		nop
	}
	{
		eq r0, r0, 0
		nop
	}
	.loc	4 403 2
	bl assert
	{
		nop
		ldw r0, r4[0]
	}
	.loc	4 404 2
	{
		eq r0, r0, 5
		nop
	}
	.loc	4 404 2
	bl assert
	.loc	4 405 2
	{
		ldc r1, 23
		ldw r0, r5[6]
	}
	{
		nop
		ld8u r1, r5[r1]
	}
	.loc	4 405 2
	{
		eq r1, r1, 0
		eq r0, r0, 0
	}
	.loc	4 405 2
	{
		eq r0, r0, 0
		nop
	}
	.loc	4 405 2
	xor r0, r1, r0
	.loc	4 405 2
	bl assert
.Ltmp1361:
	.loc	4 407 2
	{
		ldc r2, 32
		ldw r8, r6[6]
	}
.Ltmp1362:
	.loc	4 415 3
	{
		mov r0, r6
		mov r1, r5
	}
	bl __memcpy_4
	bf r7, .LBB40_6
.Ltmp1363:
	{
		ldc r0, 23
		stw r10, sp[3]
	}
.Ltmp1364:
	.loc	4 1652 9
	{
		add r10, r5, r0
		ldw r1, r5[6]
	}
	.loc	4 152 3
.Ltmp1365:
	{
		ldc r7, 0
		nop
	}
	{
		nop
		ld8u r0, r10[r7]
	}
.Ltmp1366:
	.loc	4 151 6
	bf r1, .LBB40_2
.Ltmp1367:
	{
		eq r0, r0, 0
		stw r9, sp[2]
	}
	.loc	4 156 3
.Ltmp1368:
	{
		eq r0, r0, 0
		nop
	}
	.loc	4 156 3
	bl assert
	.loc	4 157 12
.Ltmp1369:
	{
		ldc r1, 16
		ld8u r0, r10[r7]
	}
	.loc	4 157 12
	bl safe_malloc_mul_2op_p
	{
		mov r9, r0
		nop
	}
	bf r9, .LBB40_10
.Ltmp1370:
	.loc	4 407 2
	ldaw r6, r6[6]
.Ltmp1371:
	.loc	4 159 3
	{
		ldc r0, 0
		ldw r1, r5[6]
	}
	{
		nop
		ld8u r0, r10[r0]
	}
	.loc	4 159 3
	{
		shl r2, r0, 4
		mov r0, r9
	}
	.loc	4 159 3
	bl __memcpy_4
	{
		nop
		stw r9, r6[0]
	}
	{
		nop
		ldw r9, sp[2]
	}
	bu .LBB40_5
.Ltmp1372:
.LBB40_2:
	.loc	4 152 3
	{
		eq r0, r0, 0
		nop
	}
	.loc	4 152 3
	bl assert
.Ltmp1373:
.LBB40_5:
	{
		nop
		ldw r10, sp[3]
	}
.LBB40_6:
.Ltmp1374:
	.loc	4 418 2
	{
		mov r0, r8
		nop
	}
	bl free
.Ltmp1375:
	{
		nop
		ldw r0, r4[0]
	}
	.loc	4 315 2
.Ltmp1376:
	{
		eq r0, r0, 5
		nop
	}
	.loc	4 315 2
	bl assert
	.loc	4 317 2
	ldw r0, cp[FLAC__STREAM_METADATA_CUESHEET_MEDIA_CATALOG_NUMBER_LEN]
	.loc	4 317 2
	ldw r1, cp[FLAC__STREAM_METADATA_CUESHEET_LEAD_IN_LEN]
	.loc	4 317 2
	{
		add r0, r1, r0
		nop
	}
	.loc	4 317 2
	ldw r1, cp[FLAC__STREAM_METADATA_CUESHEET_IS_CD_LEN]
	.loc	4 317 2
	{
		add r0, r0, r1
		nop
	}
	.loc	4 317 2
	ldw r1, cp[FLAC__STREAM_METADATA_CUESHEET_RESERVED_LEN]
	.loc	4 317 2
	{
		add r0, r0, r1
		nop
	}
	.loc	4 317 2
	ldw r1, cp[FLAC__STREAM_METADATA_CUESHEET_NUM_TRACKS_LEN]
	.loc	4 317 2
	{
		add r0, r0, r1
		nop
	}
	.loc	4 317 2
	{
		shr r1, r0, 3
		ldw r0, r10[0]
	}
	.loc	4 325 2
	ldw r2, cp[FLAC__STREAM_METADATA_CUESHEET_TRACK_OFFSET_LEN]
	.loc	4 325 2
	ldw r3, cp[FLAC__STREAM_METADATA_CUESHEET_TRACK_NUMBER_LEN]
	.loc	4 325 2
	{
		add r2, r3, r2
		nop
	}
	.loc	4 325 2
	ldw r3, cp[FLAC__STREAM_METADATA_CUESHEET_TRACK_ISRC_LEN]
	.loc	4 325 2
	{
		add r2, r2, r3
		nop
	}
	.loc	4 325 2
	ldw r3, cp[FLAC__STREAM_METADATA_CUESHEET_TRACK_TYPE_LEN]
	.loc	4 325 2
	{
		add r2, r2, r3
		nop
	}
	.loc	4 325 2
	ldw r3, cp[FLAC__STREAM_METADATA_CUESHEET_TRACK_PRE_EMPHASIS_LEN]
	.loc	4 325 2
	{
		add r2, r2, r3
		nop
	}
	.loc	4 325 2
	ldw r3, cp[FLAC__STREAM_METADATA_CUESHEET_TRACK_RESERVED_LEN]
	.loc	4 325 2
	{
		add r2, r2, r3
		nop
	}
	.loc	4 325 2
	ldw r3, cp[FLAC__STREAM_METADATA_CUESHEET_TRACK_NUM_INDICES_LEN]
	.loc	4 325 2
	{
		add r2, r2, r3
		nop
	}
	.loc	4 325 2
	mul r2, r2, r0
	.loc	4 325 2
	{
		shr r2, r2, 3
		nop
	}
	.loc	4 325 2
	{
		add r1, r2, r1
		nop
	}
.Ltmp1377:
	.loc	4 325 2
	{
		mkmsk r7, 1
		stw r1, r4[2]
	}
	bf r0, .LBB40_10
.Ltmp1378:
	{
		nop
		ldw r3, r9[0]
	}
	.loc	4 336 3
.Ltmp1379:
	ldw r2, cp[FLAC__STREAM_METADATA_CUESHEET_INDEX_OFFSET_LEN]
	.loc	4 336 3
	ldw r11, cp[FLAC__STREAM_METADATA_CUESHEET_INDEX_NUMBER_LEN]
	.loc	4 336 3
	{
		add r2, r11, r2
		nop
	}
	.loc	4 336 3
	ldw r11, cp[FLAC__STREAM_METADATA_CUESHEET_INDEX_RESERVED_LEN]
	.loc	4 336 3
	{
		add r2, r2, r11
		ldc r11, 23
	}
	{
		add r3, r3, r11
		ldc r11, 0
	}
.Ltmp1380:
.LBB40_8:
	{
		nop
		ld8u r5, r3[r11]
	}
	.loc	4 336 3
	mul r5, r5, r2
	.loc	4 336 3
	{
		shr r5, r5, 3
		nop
	}
	.loc	4 336 3
	{
		add r1, r5, r1
		sub r0, r0, 1
	}
.Ltmp1381:
	.loc	4 335 2
	ldaw r3, r3[8]
	.loc	4 335 2
	bt r0, .LBB40_8
.Ltmp1382:
	{
		nop
		stw r1, r4[2]
	}
.Ltmp1383:
.LBB40_10:
	.loc	4 1652 9
	{
		mov r0, r7
		ldw r10, sp[10]
	}
	ldd r9, r8, sp[4]
	ldd r7, r6, sp[3]
	ldd r5, r4, sp[2]
	{
		nop
		retsp 12
	}
	# RETURN_REG_HOLDER
.Ltmp1384:
	.cc_bottom FLAC__metadata_object_cuesheet_set_track.function
	.set	FLAC__metadata_object_cuesheet_set_track.nstackwords,((free.nstackwords $M assert.nstackwords $M safe_malloc_mul_2op_p.nstackwords $M __memcpy_4.nstackwords) + 12)
	.globl	FLAC__metadata_object_cuesheet_set_track.nstackwords
	.set	FLAC__metadata_object_cuesheet_set_track.maxcores,free.maxcores $M safe_malloc_mul_2op_p.maxcores $M 1
	.globl	FLAC__metadata_object_cuesheet_set_track.maxcores
	.set	FLAC__metadata_object_cuesheet_set_track.maxtimers,free.maxtimers $M safe_malloc_mul_2op_p.maxtimers $M 0
	.globl	FLAC__metadata_object_cuesheet_set_track.maxtimers
	.set	FLAC__metadata_object_cuesheet_set_track.maxchanends,free.maxchanends $M safe_malloc_mul_2op_p.maxchanends $M 0
	.globl	FLAC__metadata_object_cuesheet_set_track.maxchanends
.Ltmp1385:
	.size	FLAC__metadata_object_cuesheet_set_track, .Ltmp1385-FLAC__metadata_object_cuesheet_set_track
.Lfunc_end40:
	.cfi_endproc

	.section	.cp.rodata.cst4,"aMc",@progbits,4
	.cc_top .LCPI41_0.data,.LCPI41_0
	.align	4
	.type	.LCPI41_0,@object
	.size	.LCPI41_0, 4
.LCPI41_0:
	.long	134217727
	.cc_bottom .LCPI41_0.data
	.text
	.globl	FLAC__metadata_object_cuesheet_insert_track
	.align	4
	.type	FLAC__metadata_object_cuesheet_insert_track,@function
	.cc_top FLAC__metadata_object_cuesheet_insert_track.function,FLAC__metadata_object_cuesheet_insert_track
FLAC__metadata_object_cuesheet_insert_track:
.Lfunc_begin41:
	.loc	4 1656 0
	.cfi_startproc
	.issue_mode dual
	{
		nop
		dualentsp 10
	}
.Ltmp1386:
	.cfi_def_cfa_offset 40
.Ltmp1387:
	.cfi_offset 15, 0
	std r5, r4, sp[1]
.Ltmp1388:
	.cfi_offset 4, -32
.Ltmp1389:
	.cfi_offset 5, -28
	std r7, r6, sp[2]
.Ltmp1390:
	.cfi_offset 6, -24
.Ltmp1391:
	.cfi_offset 7, -20
	std r9, r8, sp[3]
.Ltmp1392:
	.cfi_offset 8, -16
.Ltmp1393:
	.cfi_offset 9, -12
.Ltmp1394:
	.cfi_offset 10, -8
.Ltmp1395:
	{
		mov r4, r3
		stw r10, sp[8]
	}
.Ltmp1396:
	{
		mov r5, r2
		mov r6, r1
	}
.Ltmp1397:
	{
		mov r7, r0
		nop
	}
.Ltmp1398:
	.loc	4 1659 2 prologue_end
	{
		eq r0, r7, 0
		nop
	}
	{
		eq r0, r0, 0
		nop
	}
	.loc	4 1659 2
	bl assert
	{
		nop
		ldw r0, r7[0]
	}
	.loc	4 1660 2
	{
		eq r0, r0, 5
		nop
	}
	.loc	4 1660 2
	bl assert
	ldc r0, 164
	.loc	4 1661 2
	{
		add r8, r7, r0
		nop
	}
	{
		nop
		ldw r0, r8[0]
	}
	.loc	4 1661 2
	{
		lsu r0, r0, r6
		nop
	}
	{
		eq r0, r0, 0
		nop
	}
	.loc	4 1661 2
	bl assert
	{
		nop
		ldw r0, r8[0]
	}
	.loc	4 1665 7
.Ltmp1399:
	{
		add r1, r0, 1
		mov r0, r7
	}
	.loc	4 1665 7
	bl FLAC__metadata_object_cuesheet_resize_tracks
	.loc	4 1665 7
	bf r0, .LBB41_1
.Ltmp1400:
	ldc r0, 168
	.loc	4 1669 2
	{
		add r9, r7, r0
		nop
	}
	.loc	4 1669 2
	{
		shl r10, r6, 5
		ldw r0, r9[0]
	}
	.loc	4 1669 2
	{
		add r1, r0, r10
		nop
	}
	.loc	4 1669 2
	ldaw r0, r1[8]
	{
		nop
		ldw r2, r8[0]
	}
	ldw r3, cp[.LCPI41_0]
	.loc	4 1669 2
	{
		sub r3, r3, r6
		nop
	}
	.loc	4 1669 2
	{
		add r2, r3, r2
		nop
	}
	.loc	4 1669 2
	{
		shl r2, r2, 5
		nop
	}
	.loc	4 1669 2
	bl memmove
	{
		nop
		ldw r0, r9[0]
	}
	.loc	4 1670 2
	{
		add r0, r0, r10
		ldc r1, 23
	}
	{
		ldc r2, 0
		nop
	}
	.loc	4 1670 2
	st8 r2, r0[r1]
	.loc	4 1671 2
	{
		mov r0, r7
		stw r2, r0[6]
	}
	.loc	4 1673 9
	{
		mov r1, r6
		mov r2, r5
	}
	{
		mov r3, r4
		nop
	}
	bl FLAC__metadata_object_cuesheet_set_track
	bu .LBB41_3
.Ltmp1401:
.LBB41_1:
	{
		ldc r0, 0
		nop
	}
.LBB41_3:
	{
		nop
		ldw r10, sp[8]
	}
	.loc	4 1674 1
	ldd r9, r8, sp[3]
	ldd r7, r6, sp[2]
	ldd r5, r4, sp[1]
	{
		nop
		retsp 10
	}
	# RETURN_REG_HOLDER
.Ltmp1402:
	.cc_bottom FLAC__metadata_object_cuesheet_insert_track.function
	.set	FLAC__metadata_object_cuesheet_insert_track.nstackwords,((assert.nstackwords $M FLAC__metadata_object_cuesheet_resize_tracks.nstackwords $M memmove.nstackwords $M FLAC__metadata_object_cuesheet_set_track.nstackwords) + 10)
	.globl	FLAC__metadata_object_cuesheet_insert_track.nstackwords
	.set	FLAC__metadata_object_cuesheet_insert_track.maxcores,FLAC__metadata_object_cuesheet_resize_tracks.maxcores $M FLAC__metadata_object_cuesheet_set_track.maxcores $M 1
	.globl	FLAC__metadata_object_cuesheet_insert_track.maxcores
	.set	FLAC__metadata_object_cuesheet_insert_track.maxtimers,FLAC__metadata_object_cuesheet_resize_tracks.maxtimers $M FLAC__metadata_object_cuesheet_set_track.maxtimers $M 0
	.globl	FLAC__metadata_object_cuesheet_insert_track.maxtimers
	.set	FLAC__metadata_object_cuesheet_insert_track.maxchanends,FLAC__metadata_object_cuesheet_resize_tracks.maxchanends $M FLAC__metadata_object_cuesheet_set_track.maxchanends $M 0
	.globl	FLAC__metadata_object_cuesheet_insert_track.maxchanends
.Ltmp1403:
	.size	FLAC__metadata_object_cuesheet_insert_track, .Ltmp1403-FLAC__metadata_object_cuesheet_insert_track
.Lfunc_end41:
	.cfi_endproc

	.section	.cp.rodata.cst4,"aMc",@progbits,4
	.cc_top .LCPI42_0.data,.LCPI42_0
	.align	4
	.type	.LCPI42_0,@object
	.size	.LCPI42_0, 4
.LCPI42_0:
	.long	134217727
	.cc_bottom .LCPI42_0.data
	.text
	.globl	FLAC__metadata_object_cuesheet_insert_blank_track
	.align	4
	.type	FLAC__metadata_object_cuesheet_insert_blank_track,@function
	.cc_top FLAC__metadata_object_cuesheet_insert_blank_track.function,FLAC__metadata_object_cuesheet_insert_blank_track
FLAC__metadata_object_cuesheet_insert_blank_track:
.Lfunc_begin42:
	.loc	4 1677 0
	.cfi_startproc
	.issue_mode dual
	{
		nop
		dualentsp 16
	}
.Ltmp1404:
	.cfi_def_cfa_offset 64
.Ltmp1405:
	.cfi_offset 15, 0
	std r5, r4, sp[5]
.Ltmp1406:
	.cfi_offset 4, -24
.Ltmp1407:
	.cfi_offset 5, -20
	std r7, r6, sp[6]
.Ltmp1408:
	.cfi_offset 6, -16
.Ltmp1409:
	.cfi_offset 7, -12
.Ltmp1410:
	.cfi_offset 8, -8
.Ltmp1411:
	{
		mov r4, r1
		stw r8, sp[14]
	}
.Ltmp1412:
	{
		mov r5, r0
		ldaw r0, sp[2]
	}
.Ltmp1413:
	{
		ldc r6, 0
		ldc r2, 32
	}
	.loc	4 1679 2 prologue_end
.Ltmp1414:
	{
		mov r1, r6
		nop
	}
	bl memset
.Ltmp1415:
	.loc	4 1659 2
	{
		eq r0, r5, 0
		nop
	}
	{
		eq r0, r0, 0
		nop
	}
	.loc	4 1659 2
	bl assert
	{
		nop
		ldw r0, r5[0]
	}
	.loc	4 1660 2
	{
		eq r0, r0, 5
		nop
	}
	.loc	4 1660 2
	bl assert
	ldc r0, 164
	.loc	4 1661 2
	{
		add r7, r5, r0
		nop
	}
	{
		nop
		ldw r0, r7[0]
	}
	.loc	4 1661 2
	{
		lsu r0, r0, r4
		nop
	}
	{
		eq r0, r0, 0
		nop
	}
	.loc	4 1661 2
	bl assert
	{
		nop
		ldw r0, r7[0]
	}
	.loc	4 1665 7
.Ltmp1416:
	{
		add r1, r0, 1
		mov r0, r5
	}
	.loc	4 1665 7
	bl FLAC__metadata_object_cuesheet_resize_tracks
	bf r0, .LBB42_2
.Ltmp1417:
	ldc r0, 168
	.loc	4 1669 2
	{
		add r6, r5, r0
		nop
	}
	.loc	4 1669 2
	{
		shl r8, r4, 5
		ldw r0, r6[0]
	}
	.loc	4 1669 2
	{
		add r1, r0, r8
		nop
	}
	.loc	4 1669 2
	ldaw r0, r1[8]
	{
		nop
		ldw r2, r7[0]
	}
	ldw r3, cp[.LCPI42_0]
	.loc	4 1669 2
	{
		sub r3, r3, r4
		nop
	}
	.loc	4 1669 2
	{
		add r2, r3, r2
		nop
	}
	.loc	4 1669 2
	{
		shl r2, r2, 5
		nop
	}
	.loc	4 1669 2
	bl memmove
	{
		nop
		ldw r0, r6[0]
	}
	.loc	4 1670 2
	{
		add r0, r0, r8
		ldc r1, 23
	}
	{
		ldc r3, 0
		nop
	}
	.loc	4 1670 2
	st8 r3, r0[r1]
	.loc	4 1671 2
	{
		ldaw r2, sp[2]
		stw r3, r0[6]
	}
	.loc	4 1673 9
	{
		mov r0, r5
		mov r1, r4
	}
	bl FLAC__metadata_object_cuesheet_set_track
	{
		mov r6, r0
		nop
	}
.Ltmp1418:
.LBB42_2:
	.loc	4 1680 9
	{
		mov r0, r6
		ldw r8, sp[14]
	}
	ldd r7, r6, sp[6]
	ldd r5, r4, sp[5]
	{
		nop
		retsp 16
	}
	# RETURN_REG_HOLDER
.Ltmp1419:
	.cc_bottom FLAC__metadata_object_cuesheet_insert_blank_track.function
	.set	FLAC__metadata_object_cuesheet_insert_blank_track.nstackwords,((memset.nstackwords $M assert.nstackwords $M FLAC__metadata_object_cuesheet_resize_tracks.nstackwords $M memmove.nstackwords $M FLAC__metadata_object_cuesheet_set_track.nstackwords) + 16)
	.globl	FLAC__metadata_object_cuesheet_insert_blank_track.nstackwords
	.set	FLAC__metadata_object_cuesheet_insert_blank_track.maxcores,FLAC__metadata_object_cuesheet_resize_tracks.maxcores $M FLAC__metadata_object_cuesheet_set_track.maxcores $M 1
	.globl	FLAC__metadata_object_cuesheet_insert_blank_track.maxcores
	.set	FLAC__metadata_object_cuesheet_insert_blank_track.maxtimers,FLAC__metadata_object_cuesheet_resize_tracks.maxtimers $M FLAC__metadata_object_cuesheet_set_track.maxtimers $M 0
	.globl	FLAC__metadata_object_cuesheet_insert_blank_track.maxtimers
	.set	FLAC__metadata_object_cuesheet_insert_blank_track.maxchanends,FLAC__metadata_object_cuesheet_resize_tracks.maxchanends $M FLAC__metadata_object_cuesheet_set_track.maxchanends $M 0
	.globl	FLAC__metadata_object_cuesheet_insert_blank_track.maxchanends
.Ltmp1420:
	.size	FLAC__metadata_object_cuesheet_insert_blank_track, .Ltmp1420-FLAC__metadata_object_cuesheet_insert_blank_track
.Lfunc_end42:
	.cfi_endproc

	.globl	FLAC__metadata_object_cuesheet_delete_track
	.align	4
	.type	FLAC__metadata_object_cuesheet_delete_track,@function
	.cc_top FLAC__metadata_object_cuesheet_delete_track.function,FLAC__metadata_object_cuesheet_delete_track
FLAC__metadata_object_cuesheet_delete_track:
.Lfunc_begin43:
	.loc	4 1684 0
	.cfi_startproc
	.issue_mode dual
	{
		nop
		dualentsp 8
	}
.Ltmp1421:
	.cfi_def_cfa_offset 32
.Ltmp1422:
	.cfi_offset 15, 0
	std r5, r4, sp[1]
.Ltmp1423:
	.cfi_offset 4, -24
.Ltmp1424:
	.cfi_offset 5, -20
	std r7, r6, sp[2]
.Ltmp1425:
	.cfi_offset 6, -16
.Ltmp1426:
	.cfi_offset 7, -12
.Ltmp1427:
	.cfi_offset 8, -8
.Ltmp1428:
	{
		mov r5, r1
		stw r8, sp[6]
	}
.Ltmp1429:
	{
		mov r4, r0
		nop
	}
.Ltmp1430:
	.loc	4 1687 2 prologue_end
	{
		eq r0, r4, 0
		nop
	}
	{
		eq r0, r0, 0
		nop
	}
	.loc	4 1687 2
	bl assert
	{
		nop
		ldw r0, r4[0]
	}
	.loc	4 1688 2
	{
		eq r0, r0, 5
		nop
	}
	.loc	4 1688 2
	bl assert
	ldc r0, 164
	.loc	4 1689 2
	{
		add r6, r4, r0
		nop
	}
	{
		nop
		ldw r0, r6[0]
	}
	.loc	4 1689 2
	{
		lsu r0, r5, r0
		nop
	}
	.loc	4 1689 2
	bl assert
	ldc r0, 168
	.loc	4 1694 2
	{
		add r7, r4, r0
		nop
	}
	.loc	4 1694 2
	{
		shl r8, r5, 5
		ldw r0, r7[0]
	}
	.loc	4 1694 2
	{
		add r0, r0, r8
		nop
	}
	{
		nop
		ldw r0, r0[6]
	}
	.loc	4 1694 2
	bl free
	{
		nop
		ldw r0, r7[0]
	}
	.loc	4 1697 2
	{
		add r0, r0, r8
		nop
	}
	.loc	4 1697 2
	ldaw r1, r0[8]
	{
		nop
		ldw r2, r6[0]
	}
	.loc	4 1697 2
	{
		sub r2, r2, r5
		nop
	}
	.loc	4 1697 2
	{
		shl r2, r2, 5
		nop
	}
	.loc	4 1697 2
	ldaw r2, r2[-8]
	.loc	4 1697 2
	bl memmove
	{
		nop
		ldw r0, r6[0]
	}
	.loc	4 1698 2
	{
		sub r1, r0, 1
		ldw r0, r7[0]
	}
	.loc	4 1698 2
	{
		shl r2, r1, 5
		nop
	}
	{
		add r0, r0, r2
		ldc r2, 23
	}
	{
		ldc r3, 0
		nop
	}
	.loc	4 1698 2
	st8 r3, r0[r2]
	.loc	4 1699 2
	{
		mov r0, r4
		stw r3, r0[6]
	}
	.loc	4 1701 9
	bl FLAC__metadata_object_cuesheet_resize_tracks
	{
		nop
		ldw r8, sp[6]
	}
	.loc	4 1701 9
	ldd r7, r6, sp[2]
	ldd r5, r4, sp[1]
.Ltmp1431:
	{
		nop
		retsp 8
	}
	# RETURN_REG_HOLDER
.Ltmp1432:
	.cc_bottom FLAC__metadata_object_cuesheet_delete_track.function
	.set	FLAC__metadata_object_cuesheet_delete_track.nstackwords,((assert.nstackwords $M free.nstackwords $M memmove.nstackwords $M FLAC__metadata_object_cuesheet_resize_tracks.nstackwords) + 8)
	.globl	FLAC__metadata_object_cuesheet_delete_track.nstackwords
	.set	FLAC__metadata_object_cuesheet_delete_track.maxcores,FLAC__metadata_object_cuesheet_resize_tracks.maxcores $M free.maxcores $M 1
	.globl	FLAC__metadata_object_cuesheet_delete_track.maxcores
	.set	FLAC__metadata_object_cuesheet_delete_track.maxtimers,FLAC__metadata_object_cuesheet_resize_tracks.maxtimers $M free.maxtimers $M 0
	.globl	FLAC__metadata_object_cuesheet_delete_track.maxtimers
	.set	FLAC__metadata_object_cuesheet_delete_track.maxchanends,FLAC__metadata_object_cuesheet_resize_tracks.maxchanends $M free.maxchanends $M 0
	.globl	FLAC__metadata_object_cuesheet_delete_track.maxchanends
.Ltmp1433:
	.size	FLAC__metadata_object_cuesheet_delete_track, .Ltmp1433-FLAC__metadata_object_cuesheet_delete_track
.Lfunc_end43:
	.cfi_endproc

	.globl	FLAC__metadata_object_cuesheet_is_legal
	.align	4
	.type	FLAC__metadata_object_cuesheet_is_legal,@function
	.cc_top FLAC__metadata_object_cuesheet_is_legal.function,FLAC__metadata_object_cuesheet_is_legal
FLAC__metadata_object_cuesheet_is_legal:
.Lfunc_begin44:
	.loc	4 1705 0
	.cfi_startproc
	.issue_mode dual
	{
		nop
		dualentsp 6
	}
.Ltmp1434:
	.cfi_def_cfa_offset 24
.Ltmp1435:
	.cfi_offset 15, 0
	std r5, r4, sp[1]
.Ltmp1436:
	.cfi_offset 4, -16
.Ltmp1437:
	.cfi_offset 5, -12
.Ltmp1438:
	.cfi_offset 6, -8
.Ltmp1439:
	{
		mov r4, r2
		stw r6, sp[4]
	}
.Ltmp1440:
	{
		mov r5, r1
		mov r6, r0
	}
.Ltmp1441:
	.loc	4 1706 2 prologue_end
	{
		eq r0, r6, 0
		nop
	}
	{
		eq r0, r0, 0
		nop
	}
	.loc	4 1706 2
	bl assert
	{
		nop
		ldw r0, r6[0]
	}
	.loc	4 1707 2
	{
		eq r0, r0, 5
		nop
	}
	.loc	4 1707 2
	bl assert
	.loc	4 1709 9
	ldaw r0, r6[4]
.Ltmp1442:
	.loc	4 1709 9
	{
		mov r1, r5
		mov r2, r4
	}
.Ltmp1443:
	bl FLAC__format_cuesheet_is_legal
	{
		nop
		ldw r6, sp[4]
	}
	.loc	4 1709 9
	ldd r5, r4, sp[1]
	{
		nop
		retsp 6
	}
	# RETURN_REG_HOLDER
.Ltmp1444:
	.cc_bottom FLAC__metadata_object_cuesheet_is_legal.function
	.set	FLAC__metadata_object_cuesheet_is_legal.nstackwords,((assert.nstackwords $M FLAC__format_cuesheet_is_legal.nstackwords) + 6)
	.globl	FLAC__metadata_object_cuesheet_is_legal.nstackwords
	.set	FLAC__metadata_object_cuesheet_is_legal.maxcores,FLAC__format_cuesheet_is_legal.maxcores $M 1
	.globl	FLAC__metadata_object_cuesheet_is_legal.maxcores
	.set	FLAC__metadata_object_cuesheet_is_legal.maxtimers,FLAC__format_cuesheet_is_legal.maxtimers $M 0
	.globl	FLAC__metadata_object_cuesheet_is_legal.maxtimers
	.set	FLAC__metadata_object_cuesheet_is_legal.maxchanends,FLAC__format_cuesheet_is_legal.maxchanends $M 0
	.globl	FLAC__metadata_object_cuesheet_is_legal.maxchanends
.Ltmp1445:
	.size	FLAC__metadata_object_cuesheet_is_legal, .Ltmp1445-FLAC__metadata_object_cuesheet_is_legal
.Lfunc_end44:
	.cfi_endproc

	.section	.cp.rodata.cst4,"aMc",@progbits,4
	.cc_top .LCPI45_0.data,.LCPI45_0
	.align	4
	.type	.LCPI45_0,@object
	.size	.LCPI45_0, 4
.LCPI45_0:
	.long	3435973837
	.cc_bottom .LCPI45_0.data
	.cc_top .LCPI45_1.data,.LCPI45_1
	.align	4
	.type	.LCPI45_1,@object
	.size	.LCPI45_1, 4
.LCPI45_1:
	.long	2155905153
	.cc_bottom .LCPI45_1.data
	.text
	.globl	FLAC__metadata_object_cuesheet_calculate_cddb_id
	.align	4
	.type	FLAC__metadata_object_cuesheet_calculate_cddb_id,@function
	.cc_top FLAC__metadata_object_cuesheet_calculate_cddb_id.function,FLAC__metadata_object_cuesheet_calculate_cddb_id
FLAC__metadata_object_cuesheet_calculate_cddb_id:
.Lfunc_begin45:
	.loc	4 1738 0
	.cfi_startproc
	.issue_mode dual
	{
		nop
		dualentsp 12
	}
.Ltmp1446:
	.cfi_def_cfa_offset 48
.Ltmp1447:
	.cfi_offset 15, 0
	std r5, r4, sp[2]
.Ltmp1448:
	.cfi_offset 4, -32
.Ltmp1449:
	.cfi_offset 5, -28
	std r7, r6, sp[3]
.Ltmp1450:
	.cfi_offset 6, -24
.Ltmp1451:
	.cfi_offset 7, -20
	std r9, r8, sp[4]
.Ltmp1452:
	.cfi_offset 8, -16
.Ltmp1453:
	.cfi_offset 9, -12
.Ltmp1454:
	.cfi_offset 10, -8
.Ltmp1455:
	{
		mov r4, r0
		stw r10, sp[10]
	}
.Ltmp1456:
	.loc	4 1741 2 prologue_end
	{
		eq r0, r4, 0
		nop
	}
	{
		eq r0, r0, 0
		nop
	}
	.loc	4 1741 2
	bl assert
	{
		nop
		ldw r0, r4[0]
	}
	.loc	4 1742 2
	{
		eq r0, r0, 5
		nop
	}
	.loc	4 1742 2
	bl assert
	ldc r0, 164
	.loc	4 1746 6
.Ltmp1457:
	{
		add r0, r4, r0
		nop
	}
	.loc	4 1746 6
	{
		ldc r0, 2
		ldw r1, r0[0]
	}
	.loc	4 1746 6
	{
		lsu r0, r1, r0
		nop
	}
	.loc	4 1746 6
	bf r0, .LBB45_2
.Ltmp1458:
	{
		ldc r0, 0
		nop
	}
	bu .LBB45_24
.LBB45_2:
.Ltmp1459:
	.loc	4 1751 3
	{
		sub r7, r1, 1
		stw r1, sp[1]
	}
	ldc r0, 168
.Ltmp1460:
	.loc	4 1753 3
	{
		add r0, r4, r0
		nop
	}
	{
		nop
		stw r0, sp[3]
	}
	ldc r0, 152
	.loc	4 1753 3
	{
		add r0, r4, r0
		nop
	}
	{
		ldc r10, 0
		stw r0, sp[2]
	}
	{
		mov r0, r10
		mov r4, r10
	}
.Ltmp1461:
	bf r7, .LBB45_16
	{
		ldc r5, 0
		mov r0, r10
	}
	ldw r10, cp[.LCPI45_0]
	{
		ldc r9, 10
		ldc r8, 9
	}
	{
		mov r4, r0
		mov r6, r0
	}
.LBB45_4:
.Ltmp1462:
	.loc	4 1714 6
	{
		lsu r2, r6, r7
		mov r0, r5
	}
.Ltmp1463:
	.loc	4 1752 43
	{
		mov r1, r5
		nop
	}
	bf r2, .LBB45_12
.Ltmp1464:
	{
		nop
		ldw r0, sp[3]
	}
	.loc	4 1714 6
.Ltmp1465:
	{
		shl r1, r6, 5
		ldw r0, r0[0]
	}
	.loc	4 1714 6
	{
		add r2, r0, r1
		ldc r0, 23
	}
	.loc	4 1714 6
	{
		mov r0, r5
		ld8u r11, r2[r0]
	}
.Ltmp1466:
	.loc	4 1752 43
	{
		mov r1, r5
		nop
	}
	bf r11, .LBB45_12
.Ltmp1467:
	.loc	4 1716 11
	{
		ldc r0, 8
		ldw r3, r2[6]
	}
	{
		nop
		ld8u r0, r3[r0]
	}
	.loc	4 1716 11
	{
		eq r0, r0, 1
		nop
	}
	bf r0, .LBB45_8
.Ltmp1468:
	.loc	4 1717 3
	ldd r1, r0, r3[0]
	bu .LBB45_11
.Ltmp1469:
.LBB45_8:
	{
		ldc r0, 2
		nop
	}
	.loc	4 1718 11
.Ltmp1470:
	{
		lsu r11, r11, r0
		mov r0, r5
	}
.Ltmp1471:
	.loc	4 1752 43
	{
		mov r1, r5
		nop
	}
	bt r11, .LBB45_12
.Ltmp1472:
	{
		ldc r0, 24
		nop
	}
	{
		nop
		ld8u r0, r3[r0]
	}
	.loc	4 1720 11
.Ltmp1473:
	{
		eq r11, r0, 1
		mov r0, r5
	}
.Ltmp1474:
	.loc	4 1752 43
	{
		mov r1, r5
		nop
	}
	bf r11, .LBB45_12
.Ltmp1475:
	.loc	4 1721 3
	ldaw r0, r3[4]
	.loc	4 1721 3
	ldd r1, r0, r0[0]
.Ltmp1476:
.LBB45_11:
	.loc	4 1721 3
	ldd r3, r2, r2[0]
	.loc	4 1721 3
	ladd r2, r0, r2, r0, r5
	ladd r2, r1, r3, r1, r2
	{
		nop
		ldw r2, sp[2]
	}
	.loc	4 1721 3
	ldd r3, r2, r2[0]
	.loc	4 1721 3
	ladd r2, r0, r0, r2, r5
	ladd r2, r1, r1, r3, r2
.Ltmp1477:
.LBB45_12:
	ldc r2, 44100
	.loc	4 1752 43
	{
		mov r3, r5
		nop
	}
	bl __udivdi3
.Ltmp1478:
	.loc	4 1752 11
	{
		mov r1, r5
		nop
	}
	bf r0, .LBB45_14
.LBB45_13:
	.loc	4 1731 3
.Ltmp1479:
	lmul r2, r3, r0, r10, r5, r5
	{
		shr r2, r2, 3
		nop
	}
.Ltmp1480:
	.loc	4 1730 3
	mul r3, r2, r9
	{
		sub r3, r0, r3
		nop
	}
	.loc	4 1730 3
	{
		add r1, r3, r1
		lsu r3, r8, r0
	}
.Ltmp1481:
	.loc	4 1752 11
	{
		mov r0, r2
		nop
	}
.Ltmp1482:
	bt r3, .LBB45_13
.Ltmp1483:
.LBB45_14:
	.loc	4 1752 11
	{
		add r4, r1, r4
		add r6, r6, 1
	}
.Ltmp1484:
	.loc	4 1751 3
	{
		lsu r0, r6, r7
		nop
	}
	bt r0, .LBB45_4
.Ltmp1485:
	{
		ldc r0, 0
		nop
	}
	ldw r1, cp[.LCPI45_1]
	.loc	4 1751 3
	lmul r0, r1, r4, r1, r0, r0
	{
		shr r0, r0, 7
		mkmsk r1, 8
	}
	mul r0, r0, r1
	{
		sub r0, r4, r0
		nop
	}
	.loc	4 1751 3
	{
		shl r4, r0, 24
		mov r0, r7
	}
.Ltmp1486:
	{
		ldc r10, 0
		nop
	}
.Ltmp1487:
.LBB45_16:
	{
		nop
		ldw r1, sp[3]
	}
	.loc	4 1753 3
	{
		shl r0, r0, 5
		ldw r9, r1[0]
	}
	.loc	4 1753 3
	{
		add r0, r9, r0
		nop
	}
	.loc	4 1753 3
	ldd r1, r0, r0[0]
	{
		nop
		ldw r2, sp[2]
	}
	.loc	4 1753 3
	ldd r6, r8, r2[0]
	.loc	4 1753 3
	ladd r2, r0, r8, r0, r10
	ladd r2, r1, r6, r1, r2
	ldc r2, 44100
	.loc	4 1753 3
	{
		mov r3, r10
		nop
	}
	bl __udivdi3
.Ltmp1488:
	{
		mov r5, r0
		ldw r0, sp[1]
	}
	.loc	4 1714 6
.Ltmp1489:
	{
		eq r0, r0, 1
		mov r1, r10
	}
	bt r0, .LBB45_23
	{
		ldc r0, 23
		nop
	}
	.loc	4 1714 6
	{
		ldc r10, 0
		ld8u r2, r9[r0]
	}
.Ltmp1490:
	.loc	4 1753 103
	{
		mov r1, r10
		nop
	}
	bf r2, .LBB45_23
	.loc	4 1716 11
.Ltmp1491:
	{
		ldc r1, 8
		ldw r0, r9[6]
	}
	{
		nop
		ld8u r1, r0[r1]
	}
	.loc	4 1716 11
	{
		eq r1, r1, 1
		nop
	}
	bt r1, .LBB45_22
	{
		ldc r1, 2
		nop
	}
	.loc	4 1718 11
.Ltmp1492:
	{
		lsu r2, r2, r1
		ldc r10, 0
	}
.Ltmp1493:
	.loc	4 1753 103
	{
		mov r1, r10
		nop
	}
	bt r2, .LBB45_23
	{
		ldc r1, 24
		nop
	}
	.loc	4 1720 11
.Ltmp1494:
	{
		ldc r10, 0
		ld8u r1, r0[r1]
	}
	.loc	4 1720 11
	{
		eq r2, r1, 1
		mov r1, r10
	}
	bf r2, .LBB45_23
	.loc	4 1721 3
	ldaw r0, r0[4]
.LBB45_22:
	.loc	4 1721 3
	ldd r1, r0, r0[0]
	.loc	4 1721 3
	ldd r3, r2, r9[0]
	{
		ldc r11, 0
		nop
	}
	.loc	4 1721 3
	ladd r2, r0, r2, r0, r11
	ladd r2, r1, r3, r1, r2
	.loc	4 1721 3
	ladd r0, r10, r0, r8, r11
	ladd r0, r1, r1, r6, r0
.Ltmp1495:
.LBB45_23:
	ldc r2, 44100
	{
		ldc r3, 0
		mov r0, r10
	}
	.loc	4 1753 103
	bl __udivdi3
	.loc	4 1753 103
	{
		sub r0, r5, r0
		nop
	}
.Ltmp1496:
	.loc	4 1755 3
	{
		shl r0, r0, 8
		nop
	}
.Ltmp1497:
	.loc	4 1755 3
	{
		or r0, r0, r4
		nop
	}
	.loc	4 1755 3
	{
		or r0, r0, r7
		nop
	}
.Ltmp1498:
.LBB45_24:
	{
		nop
		ldw r10, sp[10]
	}
	.loc	4 1757 1
	ldd r9, r8, sp[4]
	ldd r7, r6, sp[3]
	ldd r5, r4, sp[2]
	{
		nop
		retsp 12
	}
	# RETURN_REG_HOLDER
.Ltmp1499:
	.cc_bottom FLAC__metadata_object_cuesheet_calculate_cddb_id.function
	.set	FLAC__metadata_object_cuesheet_calculate_cddb_id.nstackwords,((assert.nstackwords $M __udivdi3.nstackwords) + 12)
	.globl	FLAC__metadata_object_cuesheet_calculate_cddb_id.nstackwords
	.set	FLAC__metadata_object_cuesheet_calculate_cddb_id.maxcores,1
	.globl	FLAC__metadata_object_cuesheet_calculate_cddb_id.maxcores
	.set	FLAC__metadata_object_cuesheet_calculate_cddb_id.maxtimers,0
	.globl	FLAC__metadata_object_cuesheet_calculate_cddb_id.maxtimers
	.set	FLAC__metadata_object_cuesheet_calculate_cddb_id.maxchanends,0
	.globl	FLAC__metadata_object_cuesheet_calculate_cddb_id.maxchanends
.Ltmp1500:
	.size	FLAC__metadata_object_cuesheet_calculate_cddb_id, .Ltmp1500-FLAC__metadata_object_cuesheet_calculate_cddb_id
.Lfunc_end45:
	.cfi_endproc

	.globl	FLAC__metadata_object_picture_set_mime_type
	.align	4
	.type	FLAC__metadata_object_picture_set_mime_type,@function
	.cc_top FLAC__metadata_object_picture_set_mime_type.function,FLAC__metadata_object_picture_set_mime_type
FLAC__metadata_object_picture_set_mime_type:
.Lfunc_begin46:
	.loc	4 1760 0
	.cfi_startproc
	.issue_mode dual
	{
		nop
		dualentsp 10
	}
.Ltmp1501:
	.cfi_def_cfa_offset 40
.Ltmp1502:
	.cfi_offset 15, 0
	std r5, r4, sp[1]
.Ltmp1503:
	.cfi_offset 4, -32
.Ltmp1504:
	.cfi_offset 5, -28
	std r7, r6, sp[2]
.Ltmp1505:
	.cfi_offset 6, -24
.Ltmp1506:
	.cfi_offset 7, -20
	std r9, r8, sp[3]
.Ltmp1507:
	.cfi_offset 8, -16
.Ltmp1508:
	.cfi_offset 9, -12
.Ltmp1509:
	.cfi_offset 10, -8
.Ltmp1510:
	{
		mov r9, r2
		stw r10, sp[8]
	}
.Ltmp1511:
	{
		mov r5, r1
		mov r4, r0
	}
.Ltmp1512:
	.loc	4 1764 2 prologue_end
	{
		eq r0, r4, 0
		nop
	}
	{
		eq r0, r0, 0
		nop
	}
	.loc	4 1764 2
	bl assert
	{
		nop
		ldw r0, r4[0]
	}
	.loc	4 1765 2
	{
		eq r0, r0, 6
		nop
	}
	.loc	4 1765 2
	bl assert
	.loc	4 1766 2
	{
		eq r0, r5, 0
		nop
	}
	{
		eq r0, r0, 0
		nop
	}
	.loc	4 1766 2
	bl assert
	{
		nop
		ldw r6, r4[5]
	}
.Ltmp1513:
	.loc	4 1769 2
	bf r6, .LBB46_1
.Ltmp1514:
	.loc	4 1769 20
	{
		mov r0, r6
		nop
	}
	bl strlen
	{
		mov r7, r0
		nop
	}
	bu .LBB46_3
.Ltmp1515:
.LBB46_1:
	{
		ldc r7, 0
		nop
	}
.Ltmp1516:
.LBB46_3:
	.loc	4 1770 15
	{
		mov r0, r5
		nop
	}
	bl strlen
	{
		mov r8, r0
		nop
	}
.Ltmp1517:
	.loc	4 1773 6
	bf r9, .LBB46_4
.Ltmp1518:
	{
		mkmsk r0, 32
		nop
	}
	.loc	4 1774 7
.Ltmp1519:
	{
		eq r0, r8, r0
		nop
	}
	.loc	4 1774 7
	bt r0, .LBB46_6
.Ltmp1520:
	.loc	4 1776 8
	{
		add r9, r8, 1
		mkmsk r0, 1
	}
.Ltmp1521:
	.loc	4 67 2
	bl assert
	{
		ldc r10, 0
		nop
	}
	bf r9, .LBB46_12
.Ltmp1522:
	bf r5, .LBB46_12
.Ltmp1523:
	.loc	5 95 9
	{
		mov r0, r9
		nop
	}
	bl malloc
	{
		mov r10, r0
		nop
	}
.Ltmp1524:
	.loc	4 70 12
	bf r10, .LBB46_10
.Ltmp1525:
	.loc	4 72 3
	{
		mov r0, r10
		mov r1, r5
	}
	{
		mov r2, r9
		nop
	}
	bl memcpy
	bu .LBB46_12
.Ltmp1526:
.LBB46_4:
	{
		mov r10, r5
		nop
	}
.Ltmp1527:
.LBB46_12:
	.loc	4 1780 3
	{
		mov r0, r6
		stw r10, r4[5]
	}
.Ltmp1528:
	.loc	4 1783 2
	bl free
	.loc	4 1785 2
	{
		sub r1, r8, r7
		ldw r0, r4[2]
	}
	.loc	4 1786 2
	{
		add r0, r1, r0
		nop
	}
	.loc	4 1786 2
	{
		mkmsk r0, 1
		stw r0, r4[2]
	}
	bu .LBB46_13
.Ltmp1529:
.LBB46_6:
	{
		ldc r0, 0
		nop
	}
	bu .LBB46_13
.LBB46_10:
	{
		ldc r0, 0
		nop
	}
.LBB46_13:
	{
		nop
		ldw r10, sp[8]
	}
	.loc	4 1788 1
	ldd r9, r8, sp[3]
	ldd r7, r6, sp[2]
	ldd r5, r4, sp[1]
	{
		nop
		retsp 10
	}
	# RETURN_REG_HOLDER
.Ltmp1530:
	.cc_bottom FLAC__metadata_object_picture_set_mime_type.function
	.set	FLAC__metadata_object_picture_set_mime_type.nstackwords,((free.nstackwords $M assert.nstackwords $M malloc.nstackwords $M memcpy.nstackwords $M strlen.nstackwords) + 10)
	.globl	FLAC__metadata_object_picture_set_mime_type.nstackwords
	.set	FLAC__metadata_object_picture_set_mime_type.maxcores,free.maxcores $M malloc.maxcores $M strlen.maxcores $M 1
	.globl	FLAC__metadata_object_picture_set_mime_type.maxcores
	.set	FLAC__metadata_object_picture_set_mime_type.maxtimers,free.maxtimers $M malloc.maxtimers $M strlen.maxtimers $M 0
	.globl	FLAC__metadata_object_picture_set_mime_type.maxtimers
	.set	FLAC__metadata_object_picture_set_mime_type.maxchanends,free.maxchanends $M malloc.maxchanends $M strlen.maxchanends $M 0
	.globl	FLAC__metadata_object_picture_set_mime_type.maxchanends
.Ltmp1531:
	.size	FLAC__metadata_object_picture_set_mime_type, .Ltmp1531-FLAC__metadata_object_picture_set_mime_type
.Lfunc_end46:
	.cfi_endproc

	.globl	FLAC__metadata_object_picture_set_description
	.align	4
	.type	FLAC__metadata_object_picture_set_description,@function
	.cc_top FLAC__metadata_object_picture_set_description.function,FLAC__metadata_object_picture_set_description
FLAC__metadata_object_picture_set_description:
.Lfunc_begin47:
	.loc	4 1791 0
	.cfi_startproc
	.issue_mode dual
	{
		nop
		dualentsp 10
	}
.Ltmp1532:
	.cfi_def_cfa_offset 40
.Ltmp1533:
	.cfi_offset 15, 0
	std r5, r4, sp[1]
.Ltmp1534:
	.cfi_offset 4, -32
.Ltmp1535:
	.cfi_offset 5, -28
	std r7, r6, sp[2]
.Ltmp1536:
	.cfi_offset 6, -24
.Ltmp1537:
	.cfi_offset 7, -20
	std r9, r8, sp[3]
.Ltmp1538:
	.cfi_offset 8, -16
.Ltmp1539:
	.cfi_offset 9, -12
.Ltmp1540:
	.cfi_offset 10, -8
.Ltmp1541:
	{
		mov r9, r2
		stw r10, sp[8]
	}
.Ltmp1542:
	{
		mov r5, r1
		mov r4, r0
	}
.Ltmp1543:
	.loc	4 1795 2 prologue_end
	{
		eq r0, r4, 0
		nop
	}
	{
		eq r0, r0, 0
		nop
	}
	.loc	4 1795 2
	bl assert
	{
		nop
		ldw r0, r4[0]
	}
	.loc	4 1796 2
	{
		eq r0, r0, 6
		nop
	}
	.loc	4 1796 2
	bl assert
	.loc	4 1797 2
	{
		eq r0, r5, 0
		nop
	}
	{
		eq r0, r0, 0
		nop
	}
	.loc	4 1797 2
	bl assert
	{
		nop
		ldw r6, r4[6]
	}
.Ltmp1544:
	.loc	4 1800 2
	bf r6, .LBB47_1
.Ltmp1545:
	.loc	4 1800 20
	{
		mov r0, r6
		nop
	}
	bl strlen
	{
		mov r7, r0
		nop
	}
	bu .LBB47_3
.Ltmp1546:
.LBB47_1:
	{
		ldc r7, 0
		nop
	}
.Ltmp1547:
.LBB47_3:
	.loc	4 1801 15
	{
		mov r0, r5
		nop
	}
	bl strlen
	{
		mov r8, r0
		nop
	}
.Ltmp1548:
	.loc	4 1804 6
	bf r9, .LBB47_4
.Ltmp1549:
	{
		mkmsk r0, 32
		nop
	}
	.loc	4 1805 7
.Ltmp1550:
	{
		eq r0, r8, r0
		nop
	}
	.loc	4 1805 7
	bt r0, .LBB47_6
.Ltmp1551:
	.loc	4 1807 8
	{
		add r9, r8, 1
		mkmsk r0, 1
	}
.Ltmp1552:
	.loc	4 67 2
	bl assert
	{
		ldc r10, 0
		nop
	}
	bf r9, .LBB47_12
.Ltmp1553:
	bf r5, .LBB47_12
.Ltmp1554:
	.loc	5 95 9
	{
		mov r0, r9
		nop
	}
	bl malloc
	{
		mov r10, r0
		nop
	}
.Ltmp1555:
	.loc	4 70 12
	bf r10, .LBB47_10
.Ltmp1556:
	.loc	4 72 3
	{
		mov r0, r10
		mov r1, r5
	}
	{
		mov r2, r9
		nop
	}
	bl memcpy
	bu .LBB47_12
.Ltmp1557:
.LBB47_4:
	{
		mov r10, r5
		nop
	}
.Ltmp1558:
.LBB47_12:
	.loc	4 1811 3
	{
		mov r0, r6
		stw r10, r4[6]
	}
.Ltmp1559:
	.loc	4 1814 2
	bl free
	.loc	4 1816 2
	{
		sub r1, r8, r7
		ldw r0, r4[2]
	}
	.loc	4 1817 2
	{
		add r0, r1, r0
		nop
	}
	.loc	4 1817 2
	{
		mkmsk r0, 1
		stw r0, r4[2]
	}
	bu .LBB47_13
.Ltmp1560:
.LBB47_6:
	{
		ldc r0, 0
		nop
	}
	bu .LBB47_13
.LBB47_10:
	{
		ldc r0, 0
		nop
	}
.LBB47_13:
	{
		nop
		ldw r10, sp[8]
	}
	.loc	4 1819 1
	ldd r9, r8, sp[3]
	ldd r7, r6, sp[2]
	ldd r5, r4, sp[1]
	{
		nop
		retsp 10
	}
	# RETURN_REG_HOLDER
.Ltmp1561:
	.cc_bottom FLAC__metadata_object_picture_set_description.function
	.set	FLAC__metadata_object_picture_set_description.nstackwords,((free.nstackwords $M assert.nstackwords $M malloc.nstackwords $M memcpy.nstackwords $M strlen.nstackwords) + 10)
	.globl	FLAC__metadata_object_picture_set_description.nstackwords
	.set	FLAC__metadata_object_picture_set_description.maxcores,free.maxcores $M malloc.maxcores $M strlen.maxcores $M 1
	.globl	FLAC__metadata_object_picture_set_description.maxcores
	.set	FLAC__metadata_object_picture_set_description.maxtimers,free.maxtimers $M malloc.maxtimers $M strlen.maxtimers $M 0
	.globl	FLAC__metadata_object_picture_set_description.maxtimers
	.set	FLAC__metadata_object_picture_set_description.maxchanends,free.maxchanends $M malloc.maxchanends $M strlen.maxchanends $M 0
	.globl	FLAC__metadata_object_picture_set_description.maxchanends
.Ltmp1562:
	.size	FLAC__metadata_object_picture_set_description, .Ltmp1562-FLAC__metadata_object_picture_set_description
.Lfunc_end47:
	.cfi_endproc

	.globl	FLAC__metadata_object_picture_set_data
	.align	4
	.type	FLAC__metadata_object_picture_set_data,@function
	.cc_top FLAC__metadata_object_picture_set_data.function,FLAC__metadata_object_picture_set_data
FLAC__metadata_object_picture_set_data:
.Lfunc_begin48:
	.loc	4 1822 0
	.cfi_startproc
	.issue_mode dual
	{
		nop
		dualentsp 10
	}
.Ltmp1563:
	.cfi_def_cfa_offset 40
.Ltmp1564:
	.cfi_offset 15, 0
	std r5, r4, sp[1]
.Ltmp1565:
	.cfi_offset 4, -32
.Ltmp1566:
	.cfi_offset 5, -28
	std r7, r6, sp[2]
.Ltmp1567:
	.cfi_offset 6, -24
.Ltmp1568:
	.cfi_offset 7, -20
	std r9, r8, sp[3]
.Ltmp1569:
	.cfi_offset 8, -16
.Ltmp1570:
	.cfi_offset 9, -12
.Ltmp1571:
	.cfi_offset 10, -8
.Ltmp1572:
	{
		mov r7, r3
		stw r10, sp[8]
	}
.Ltmp1573:
	{
		mov r4, r2
		mov r6, r1
	}
.Ltmp1574:
	{
		mov r5, r0
		nop
	}
.Ltmp1575:
	.loc	4 1825 2 prologue_end
	{
		eq r0, r5, 0
		nop
	}
	{
		eq r0, r0, 0
		nop
	}
	.loc	4 1825 2
	bl assert
	{
		nop
		ldw r0, r5[0]
	}
	.loc	4 1826 2
	{
		eq r0, r0, 6
		nop
	}
	.loc	4 1826 2
	bl assert
	.loc	4 1827 2
	{
		eq r0, r6, 0
		nop
	}
	{
		eq r0, r0, 0
		eq r1, r4, 0
	}
	.loc	4 1827 2
	{
		eq r1, r1, 0
		nop
	}
	.loc	4 1827 2
	{
		and r10, r0, r1
		nop
	}
	.loc	4 1827 2
	bf r10, .LBB48_2
.Ltmp1576:
	{
		mkmsk r0, 1
		nop
	}
	bu .LBB48_3
.Ltmp1577:
.LBB48_2:
	.loc	4 1827 2
	{
		or r0, r7, r4
		nop
	}
	.loc	4 1827 2
	{
		or r0, r0, r6
		nop
	}
	.loc	4 1827 2
	{
		eq r0, r0, 0
		nop
	}
.Ltmp1578:
.LBB48_3:
	.loc	4 1827 2
	bl assert
	{
		ldc r0, 48
		nop
	}
	.loc	4 1829 2
	{
		add r9, r5, r0
		nop
	}
.Ltmp1579:
	{
		nop
		ldw r8, r9[0]
	}
.Ltmp1580:
	.loc	4 1832 6
	bf r7, .LBB48_4
.Ltmp1581:
	{
		mkmsk r0, 1
		nop
	}
	.loc	4 67 2
.Ltmp1582:
	bl assert
	.loc	4 68 6
.Ltmp1583:
	bf r10, .LBB48_6
.Ltmp1584:
	.loc	5 95 9
	{
		mov r0, r4
		nop
	}
	bl malloc
	{
		mov r7, r0
		nop
	}
.Ltmp1585:
	.loc	4 70 12
	bf r7, .LBB48_8
.Ltmp1586:
	.loc	4 72 3
	{
		mov r0, r7
		mov r1, r6
	}
	{
		mov r2, r4
		nop
	}
	bl memcpy
	bu .LBB48_10
.Ltmp1587:
.LBB48_4:
	{
		mov r7, r6
		nop
	}
.Ltmp1588:
	bu .LBB48_10
.Ltmp1589:
.LBB48_6:
	{
		ldc r7, 0
		nop
	}
.Ltmp1590:
.LBB48_10:
	.loc	4 1837 3
	{
		mov r0, r8
		stw r7, r9[0]
	}
.Ltmp1591:
	.loc	4 1840 2
	bl free
	{
		nop
		ldw r0, r5[11]
	}
	{
		nop
		ldw r1, r5[2]
	}
	.loc	4 1842 2
	{
		sub r0, r1, r0
		stw r4, r5[11]
	}
	.loc	4 1844 2
	{
		add r0, r0, r4
		nop
	}
	.loc	4 1844 2
	{
		mkmsk r0, 1
		stw r0, r5[2]
	}
.Ltmp1592:
.LBB48_11:
	{
		nop
		ldw r10, sp[8]
	}
	.loc	4 1846 1
	ldd r9, r8, sp[3]
	ldd r7, r6, sp[2]
	ldd r5, r4, sp[1]
	{
		nop
		retsp 10
	}
	# RETURN_REG_HOLDER
.Ltmp1593:
.LBB48_8:
	{
		ldc r0, 0
		nop
	}
	bu .LBB48_11
	.cc_bottom FLAC__metadata_object_picture_set_data.function
	.set	FLAC__metadata_object_picture_set_data.nstackwords,((free.nstackwords $M assert.nstackwords $M malloc.nstackwords $M memcpy.nstackwords) + 10)
	.globl	FLAC__metadata_object_picture_set_data.nstackwords
	.set	FLAC__metadata_object_picture_set_data.maxcores,free.maxcores $M malloc.maxcores $M 1
	.globl	FLAC__metadata_object_picture_set_data.maxcores
	.set	FLAC__metadata_object_picture_set_data.maxtimers,free.maxtimers $M malloc.maxtimers $M 0
	.globl	FLAC__metadata_object_picture_set_data.maxtimers
	.set	FLAC__metadata_object_picture_set_data.maxchanends,free.maxchanends $M malloc.maxchanends $M 0
	.globl	FLAC__metadata_object_picture_set_data.maxchanends
.Ltmp1594:
	.size	FLAC__metadata_object_picture_set_data, .Ltmp1594-FLAC__metadata_object_picture_set_data
.Lfunc_end48:
	.cfi_endproc

	.globl	FLAC__metadata_object_picture_is_legal
	.align	4
	.type	FLAC__metadata_object_picture_is_legal,@function
	.cc_top FLAC__metadata_object_picture_is_legal.function,FLAC__metadata_object_picture_is_legal
FLAC__metadata_object_picture_is_legal:
.Lfunc_begin49:
	.loc	4 1849 0
	.cfi_startproc
	.issue_mode dual
	{
		nop
		dualentsp 4
	}
.Ltmp1595:
	.cfi_def_cfa_offset 16
.Ltmp1596:
	.cfi_offset 15, 0
	std r5, r4, sp[1]
.Ltmp1597:
	.cfi_offset 4, -8
.Ltmp1598:
	.cfi_offset 5, -4
.Ltmp1599:
	{
		mov r4, r1
		mov r5, r0
	}
.Ltmp1600:
	.loc	4 1850 2 prologue_end
	{
		eq r0, r5, 0
		nop
	}
	{
		eq r0, r0, 0
		nop
	}
	.loc	4 1850 2
	bl assert
	{
		nop
		ldw r0, r5[0]
	}
	.loc	4 1851 2
	{
		eq r0, r0, 6
		nop
	}
	.loc	4 1851 2
	bl assert
	.loc	4 1853 9
	ldaw r0, r5[4]
	.loc	4 1853 9
	{
		mov r1, r4
		nop
	}
.Ltmp1601:
	bl FLAC__format_picture_is_legal
.Ltmp1602:
	.loc	4 1853 9
	ldd r5, r4, sp[1]
	{
		nop
		retsp 4
	}
	# RETURN_REG_HOLDER
.Ltmp1603:
	.cc_bottom FLAC__metadata_object_picture_is_legal.function
	.set	FLAC__metadata_object_picture_is_legal.nstackwords,((assert.nstackwords $M FLAC__format_picture_is_legal.nstackwords) + 4)
	.globl	FLAC__metadata_object_picture_is_legal.nstackwords
	.set	FLAC__metadata_object_picture_is_legal.maxcores,FLAC__format_picture_is_legal.maxcores $M 1
	.globl	FLAC__metadata_object_picture_is_legal.maxcores
	.set	FLAC__metadata_object_picture_is_legal.maxtimers,FLAC__format_picture_is_legal.maxtimers $M 0
	.globl	FLAC__metadata_object_picture_is_legal.maxtimers
	.set	FLAC__metadata_object_picture_is_legal.maxchanends,FLAC__format_picture_is_legal.maxchanends $M 0
	.globl	FLAC__metadata_object_picture_is_legal.maxchanends
.Ltmp1604:
	.size	FLAC__metadata_object_picture_is_legal, .Ltmp1604-FLAC__metadata_object_picture_is_legal
.Lfunc_end49:
	.cfi_endproc

	.section	.cp.rodata.string,"aMSc",@progbits
	.cc_top .L.str.data,.L.str
	.align	4
	.type	.L.str,@object
	.size	.L.str, 1
.L.str:
	.space	1
	.space	3
	.cc_bottom .L.str.data
	.text
.Ldebug_end0:
	.section	.trap_info,"",@progbits
.Ltrap_info_entries_start0:
	.long	.Ltrap_info_entries_end0-.Ltrap_info_entries_start0
	.long	1
.Ltrap_info_entries_end0: