	.text
	.file	"stream_decoder.c"
	.section	.cp.rodata.cst4,"aMc",@progbits,4
	.cc_top .LCPI0_0.data,.LCPI0_0
	.align	4
	.type	.LCPI0_0,@object
	.size	.LCPI0_0, 4
.LCPI0_0:
	.long	4294967280
	.cc_bottom .LCPI0_0.data
	.cc_top .LCPI0_1.data,.LCPI0_1
	.align	4
	.type	.LCPI0_1,@object
	.size	.LCPI0_1, 4
.LCPI0_1:
	.long	4294967264
	.cc_bottom .LCPI0_1.data
	.text
	.globl	FLAC__stream_decoder_new
	.align	4
	.type	FLAC__stream_decoder_new,@function
	.cc_top FLAC__stream_decoder_new.function,FLAC__stream_decoder_new
FLAC__stream_decoder_new:
.Lfunc_begin0:
	.loc	1 239 0
	.cfi_startproc
	.issue_mode dual
	{
		nop
		dualentsp 8
	}
.Ltmp0:
	.cfi_def_cfa_offset 32
.Ltmp1:
	.cfi_offset 15, 0
	std r5, r4, sp[1]
.Ltmp2:
	.cfi_offset 4, -24
.Ltmp3:
	.cfi_offset 5, -20
	std r7, r6, sp[2]
.Ltmp4:
	.cfi_offset 6, -16
.Ltmp5:
	.cfi_offset 7, -12
	std r9, r8, sp[3]
.Ltmp6:
	.cfi_offset 8, -8
.Ltmp7:
	.cfi_offset 9, -4
	{
		mkmsk r4, 1
		nop
	}
	.loc	1 243 2 prologue_end
.Ltmp8:
	{
		mov r0, r4
		nop
	}
	bl assert
	{
		ldc r1, 8
		mov r0, r4
	}
	.loc	1 245 12
	bl calloc
	{
		mov r4, r0
		ldc r8, 0
	}
	bf r4, .LBB0_11
	{
		mkmsk r0, 1
		ldc r1, 32
	}
	.loc	1 250 24
	bl calloc
	{
		mov r5, r0
		nop
	}
	{
		nop
		stw r5, r4[0]
	}
	.loc	1 251 5
.Ltmp9:
	bf r5, .LBB0_2
.Ltmp10:
	{
		mkmsk r7, 1
		nop
	}
	ldc r1, 8344
	.loc	1 256 22
	{
		mov r0, r7
		nop
	}
	bl calloc
	{
		mov r6, r0
		nop
	}
	{
		nop
		stw r6, r4[1]
	}
	.loc	1 257 5
.Ltmp11:
	bf r6, .LBB0_4
.Ltmp12:
	.loc	1 263 29
	bl FLAC__bitreader_new
	{
		mov r9, r0
		nop
	}
	{
		nop
		stw r9, r6[11]
	}
	.loc	1 264 5
.Ltmp13:
	bf r9, .LBB0_6
.Ltmp14:
	ldc r0, 1120
	.loc	1 271 2
	{
		add r0, r6, r0
		ldc r1, 16
	}
	{
		nop
		stw r1, r0[0]
	}
	.loc	1 272 52
.Ltmp15:
	ldw r0, cp[FLAC__STREAM_METADATA_APPLICATION_ID_LEN]
	.loc	1 272 52
	{
		shl r0, r0, 1
		nop
	}
	ldw r1, cp[.LCPI0_0]
	.loc	1 272 52
	{
		and r0, r0, r1
		nop
	}
	.loc	1 272 52
	bl malloc
	ldc r1, 1112
	.loc	1 272 52
	{
		add r1, r6, r1
		nop
	}
	{
		nop
		stw r0, r1[0]
	}
	.loc	1 272 52
	bf r0, .LBB0_12
.Ltmp16:
	{
		ldc r0, 48
		nop
	}
	{
		add r0, r6, r0
		nop
	}
	ldc r1, 80
	{
		add r1, r6, r1
		nop
	}
	ldc r2, 4640
	{
		add r2, r6, r2
		nop
	}
	ldw r3, cp[.LCPI0_1]
	{
		ldc r8, 0
		nop
	}
.LBB0_9:
	{
		add r11, r0, r3
		nop
	}
	{
		nop
		stw r8, r11[8]
	}
	.loc	1 282 3
.Ltmp17:
	{
		add r11, r2, r3
		stw r8, r1[0]
	}
	.loc	1 282 3
	{
		add r3, r3, 4
		stw r8, r11[8]
	}
.Ltmp18:
	.loc	1 280 2
	{
		add r1, r1, 4
		nop
	}
.xtaloop 8
	# LOOPMARKER 0
	.loc	1 280 2
	bt r3, .LBB0_9
.Ltmp19:
	ldc r0, 112
	.loc	1 285 2
	{
		add r0, r6, r0
		nop
	}
	{
		nop
		stw r8, r0[0]
	}
	ldc r0, 216
	.loc	1 287 2
	{
		add r0, r6, r0
		nop
	}
	{
		nop
		stw r8, r0[0]
	}
	ldc r0, 220
	.loc	1 288 2
	{
		add r0, r6, r0
		nop
	}
	{
		nop
		stw r8, r0[0]
	}
	ldc r0, 244
	.loc	1 289 2
	{
		add r0, r6, r0
		nop
	}
	{
		nop
		stw r8, r0[0]
	}
	ldc r0, 120
.Ltmp20:
	.loc	1 292 3
	{
		add r0, r6, r0
		nop
	}
	.loc	1 292 3
	bl FLAC__format_entropy_coding_method_partitioned_rice_contents_init
	ldc r0, 132
.Ltmp21:
	.loc	1 292 3
	{
		add r0, r6, r0
		nop
	}
	.loc	1 292 3
	bl FLAC__format_entropy_coding_method_partitioned_rice_contents_init
	ldc r0, 144
	.loc	1 292 3
	{
		add r0, r6, r0
		nop
	}
	.loc	1 292 3
	bl FLAC__format_entropy_coding_method_partitioned_rice_contents_init
	ldc r0, 156
	.loc	1 292 3
	{
		add r0, r6, r0
		nop
	}
	.loc	1 292 3
	bl FLAC__format_entropy_coding_method_partitioned_rice_contents_init
	ldc r0, 168
	.loc	1 292 3
	{
		add r0, r6, r0
		nop
	}
	.loc	1 292 3
	bl FLAC__format_entropy_coding_method_partitioned_rice_contents_init
	ldc r0, 180
	.loc	1 292 3
	{
		add r0, r6, r0
		nop
	}
	.loc	1 292 3
	bl FLAC__format_entropy_coding_method_partitioned_rice_contents_init
	ldc r0, 192
	.loc	1 292 3
	{
		add r0, r6, r0
		nop
	}
	.loc	1 292 3
	bl FLAC__format_entropy_coding_method_partitioned_rice_contents_init
	ldc r0, 204
	.loc	1 292 3
	{
		add r0, r6, r0
		nop
	}
	.loc	1 292 3
	bl FLAC__format_entropy_coding_method_partitioned_rice_contents_init
	ldc r0, 600
.Ltmp22:
	.loc	1 1204 2
	{
		add r9, r6, r0
		nop
	}
	ldc r2, 512
	.loc	1 1204 2
	{
		mov r0, r9
		mov r1, r8
	}
	bl memset
	{
		ldc r2, 44
		mov r0, r6
	}
	.loc	1 1194 2
	{
		mov r1, r8
		nop
	}
	bl memset
	{
		nop
		stw r7, r9[0]
	}
	ldc r0, 1116
	.loc	1 1206 2
	{
		add r0, r6, r0
		nop
	}
	{
		nop
		stw r8, r0[0]
	}
	.loc	1 1208 2
	{
		ldc r0, 9
		stw r8, r5[7]
	}
.Ltmp23:
	.loc	1 298 2
	{
		mov r8, r4
		stw r0, r5[0]
	}
	bu .LBB0_11
.LBB0_12:
	.loc	1 273 3
.Ltmp24:
	{
		mov r0, r9
		nop
	}
	bl FLAC__bitreader_delete
.Ltmp25:
.LBB0_6:
	.loc	1 265 3
	{
		mov r0, r6
		nop
	}
	bl free
.Ltmp26:
.LBB0_4:
	.loc	1 258 3
	{
		mov r0, r5
		nop
	}
	bl free
.Ltmp27:
.LBB0_2:
	.loc	1 252 3
	{
		mov r0, r4
		nop
	}
	bl free
.Ltmp28:
.LBB0_11:
	.loc	1 301 1
	{
		mov r0, r8
		nop
	}
	ldd r9, r8, sp[3]
	ldd r7, r6, sp[2]
	ldd r5, r4, sp[1]
	{
		nop
		retsp 8
	}
	# RETURN_REG_HOLDER
.Ltmp29:
	.cc_bottom FLAC__stream_decoder_new.function
	.set	FLAC__stream_decoder_new.nstackwords,((assert.nstackwords $M calloc.nstackwords $M FLAC__bitreader_new.nstackwords $M free.nstackwords $M malloc.nstackwords $M FLAC__bitreader_delete.nstackwords $M FLAC__format_entropy_coding_method_partitioned_rice_contents_init.nstackwords $M memset.nstackwords) + 8)
	.globl	FLAC__stream_decoder_new.nstackwords
	.set	FLAC__stream_decoder_new.maxcores,FLAC__bitreader_delete.maxcores $M FLAC__bitreader_new.maxcores $M FLAC__format_entropy_coding_method_partitioned_rice_contents_init.maxcores $M calloc.maxcores $M free.maxcores $M malloc.maxcores $M 1
	.globl	FLAC__stream_decoder_new.maxcores
	.set	FLAC__stream_decoder_new.maxtimers,FLAC__bitreader_delete.maxtimers $M FLAC__bitreader_new.maxtimers $M FLAC__format_entropy_coding_method_partitioned_rice_contents_init.maxtimers $M calloc.maxtimers $M free.maxtimers $M malloc.maxtimers $M 0
	.globl	FLAC__stream_decoder_new.maxtimers
	.set	FLAC__stream_decoder_new.maxchanends,FLAC__bitreader_delete.maxchanends $M FLAC__bitreader_new.maxchanends $M FLAC__format_entropy_coding_method_partitioned_rice_contents_init.maxchanends $M calloc.maxchanends $M free.maxchanends $M malloc.maxchanends $M 0
	.globl	FLAC__stream_decoder_new.maxchanends
.Ltmp30:
	.size	FLAC__stream_decoder_new, .Ltmp30-FLAC__stream_decoder_new
.Lfunc_end0:
	.cfi_endproc

	.globl	FLAC__stream_decoder_delete
	.align	4
	.type	FLAC__stream_decoder_delete,@function
	.cc_top FLAC__stream_decoder_delete.function,FLAC__stream_decoder_delete
FLAC__stream_decoder_delete:
.Lfunc_begin1:
	.loc	1 304 0
	.cfi_startproc
	.issue_mode dual
	{
		nop
		dualentsp 4
	}
.Ltmp31:
	.cfi_def_cfa_offset 16
.Ltmp32:
	.cfi_offset 15, 0
.Ltmp33:
	.cfi_offset 4, -8
.Ltmp34:
	{
		mov r4, r0
		stw r4, sp[2]
	}
.Ltmp35:
	bf r4, .LBB1_4
.Ltmp36:
	{
		nop
		ldw r0, r4[0]
	}
	.loc	1 310 2 prologue_end
.Ltmp37:
	{
		eq r0, r0, 0
		nop
	}
	{
		eq r0, r0, 0
		nop
	}
	.loc	1 310 2
	bl assert
	{
		nop
		ldw r0, r4[1]
	}
	.loc	1 311 2
	{
		eq r0, r0, 0
		nop
	}
	{
		eq r0, r0, 0
		nop
	}
	.loc	1 311 2
	bl assert
	{
		nop
		ldw r0, r4[1]
	}
	{
		nop
		ldw r0, r0[11]
	}
	.loc	1 312 2
	{
		eq r0, r0, 0
		nop
	}
	{
		eq r0, r0, 0
		nop
	}
	.loc	1 312 2
	bl assert
	.loc	1 314 8
	{
		mov r0, r4
		nop
	}
	bl FLAC__stream_decoder_finish
	{
		nop
		ldw r1, r4[1]
	}
	ldc r0, 1112
	.loc	1 316 5
.Ltmp38:
	{
		add r0, r1, r0
		nop
	}
	{
		nop
		ldw r0, r0[0]
	}
	bf r0, .LBB1_3
.Ltmp39:
	.loc	1 317 3
	bl free
	{
		nop
		ldw r1, r4[1]
	}
.Ltmp40:
.LBB1_3:
	{
		nop
		ldw r0, r1[11]
	}
	.loc	1 319 2
	bl FLAC__bitreader_delete
.Ltmp41:
	{
		nop
		ldw r0, r4[1]
	}
	ldc r1, 120
	.loc	1 322 3
.Ltmp42:
	{
		add r0, r0, r1
		nop
	}
	.loc	1 322 3
	bl FLAC__format_entropy_coding_method_partitioned_rice_contents_clear
.Ltmp43:
	{
		nop
		ldw r0, r4[1]
	}
	ldc r1, 132
	.loc	1 322 3
	{
		add r0, r0, r1
		nop
	}
	.loc	1 322 3
	bl FLAC__format_entropy_coding_method_partitioned_rice_contents_clear
	{
		nop
		ldw r0, r4[1]
	}
	ldc r1, 144
	.loc	1 322 3
	{
		add r0, r0, r1
		nop
	}
	.loc	1 322 3
	bl FLAC__format_entropy_coding_method_partitioned_rice_contents_clear
	{
		nop
		ldw r0, r4[1]
	}
	ldc r1, 156
	.loc	1 322 3
	{
		add r0, r0, r1
		nop
	}
	.loc	1 322 3
	bl FLAC__format_entropy_coding_method_partitioned_rice_contents_clear
	{
		nop
		ldw r0, r4[1]
	}
	ldc r1, 168
	.loc	1 322 3
	{
		add r0, r0, r1
		nop
	}
	.loc	1 322 3
	bl FLAC__format_entropy_coding_method_partitioned_rice_contents_clear
	{
		nop
		ldw r0, r4[1]
	}
	ldc r1, 180
	.loc	1 322 3
	{
		add r0, r0, r1
		nop
	}
	.loc	1 322 3
	bl FLAC__format_entropy_coding_method_partitioned_rice_contents_clear
	{
		nop
		ldw r0, r4[1]
	}
	ldc r1, 192
	.loc	1 322 3
	{
		add r0, r0, r1
		nop
	}
	.loc	1 322 3
	bl FLAC__format_entropy_coding_method_partitioned_rice_contents_clear
	{
		nop
		ldw r0, r4[1]
	}
	ldc r1, 204
	.loc	1 322 3
	{
		add r0, r0, r1
		nop
	}
	.loc	1 322 3
	bl FLAC__format_entropy_coding_method_partitioned_rice_contents_clear
	{
		nop
		ldw r0, r4[1]
	}
.Ltmp44:
	.loc	1 324 2
	bl free
	{
		nop
		ldw r0, r4[0]
	}
	.loc	1 325 2
	bl free
	.loc	1 326 2
	{
		mov r0, r4
		nop
	}
	bl free
.Ltmp45:
.LBB1_4:
	{
		nop
		ldw r4, sp[2]
	}
	{
		nop
		retsp 4
	}
	.loc	1 327 1
	# RETURN_REG_HOLDER
.Ltmp46:
	.cc_bottom FLAC__stream_decoder_delete.function
	.set	FLAC__stream_decoder_delete.nstackwords,((assert.nstackwords $M FLAC__stream_decoder_finish.nstackwords $M FLAC__bitreader_delete.nstackwords $M FLAC__format_entropy_coding_method_partitioned_rice_contents_clear.nstackwords $M free.nstackwords) + 4)
	.globl	FLAC__stream_decoder_delete.nstackwords
	.set	FLAC__stream_decoder_delete.maxcores,FLAC__bitreader_delete.maxcores $M FLAC__format_entropy_coding_method_partitioned_rice_contents_clear.maxcores $M FLAC__stream_decoder_finish.maxcores $M free.maxcores $M 1
	.globl	FLAC__stream_decoder_delete.maxcores
	.set	FLAC__stream_decoder_delete.maxtimers,FLAC__bitreader_delete.maxtimers $M FLAC__format_entropy_coding_method_partitioned_rice_contents_clear.maxtimers $M FLAC__stream_decoder_finish.maxtimers $M free.maxtimers $M 0
	.globl	FLAC__stream_decoder_delete.maxtimers
	.set	FLAC__stream_decoder_delete.maxchanends,FLAC__bitreader_delete.maxchanends $M FLAC__format_entropy_coding_method_partitioned_rice_contents_clear.maxchanends $M FLAC__stream_decoder_finish.maxchanends $M free.maxchanends $M 0
	.globl	FLAC__stream_decoder_delete.maxchanends
.Ltmp47:
	.size	FLAC__stream_decoder_delete, .Ltmp47-FLAC__stream_decoder_delete
.Lfunc_end1:
	.cfi_endproc

	.section	.cp.rodata.cst4,"aMc",@progbits,4
	.cc_top .LCPI2_0.data,.LCPI2_0
	.align	4
	.type	.LCPI2_0,@object
	.size	.LCPI2_0, 4
.LCPI2_0:
	.long	4294967264
	.cc_bottom .LCPI2_0.data
	.text
	.globl	FLAC__stream_decoder_finish
	.align	4
	.type	FLAC__stream_decoder_finish,@function
	.cc_top FLAC__stream_decoder_finish.function,FLAC__stream_decoder_finish
FLAC__stream_decoder_finish:
.Lfunc_begin2:
	.loc	1 586 0
	.cfi_startproc
	.issue_mode dual
	{
		nop
		dualentsp 10
	}
.Ltmp48:
	.cfi_def_cfa_offset 40
.Ltmp49:
	.cfi_offset 15, 0
	std r5, r4, sp[1]
.Ltmp50:
	.cfi_offset 4, -32
.Ltmp51:
	.cfi_offset 5, -28
	std r7, r6, sp[2]
.Ltmp52:
	.cfi_offset 6, -24
.Ltmp53:
	.cfi_offset 7, -20
	std r9, r8, sp[3]
.Ltmp54:
	.cfi_offset 8, -16
.Ltmp55:
	.cfi_offset 9, -12
.Ltmp56:
	.cfi_offset 10, -8
.Ltmp57:
	{
		mov r4, r0
		stw r10, sp[8]
	}
.Ltmp58:
	.loc	1 590 2 prologue_end
	{
		eq r0, r4, 0
		nop
	}
	{
		eq r0, r0, 0
		nop
	}
	.loc	1 590 2
	bl assert
	{
		nop
		ldw r0, r4[1]
	}
	.loc	1 591 2
	{
		eq r0, r0, 0
		nop
	}
	{
		eq r0, r0, 0
		nop
	}
	.loc	1 591 2
	bl assert
	{
		nop
		ldw r0, r4[0]
	}
	.loc	1 592 2
	{
		eq r0, r0, 0
		nop
	}
	{
		eq r0, r0, 0
		nop
	}
	.loc	1 592 2
	bl assert
	{
		nop
		ldw r0, r4[0]
	}
	{
		nop
		ldw r0, r0[0]
	}
	.loc	1 594 5
.Ltmp59:
	{
		eq r0, r0, 9
		nop
	}
	.loc	1 594 5
	bf r0, .LBB2_2
.Ltmp60:
	{
		mkmsk r7, 1
		nop
	}
	bu .LBB2_17
.LBB2_2:
.Ltmp61:
	{
		nop
		ldw r1, r4[1]
	}
	ldc r0, 4780
	.loc	1 600 2
	{
		add r0, r1, r0
		nop
	}
	ldc r2, 4684
	.loc	1 600 2
	{
		add r1, r1, r2
		nop
	}
	.loc	1 600 2
	bl FLAC__MD5Final
	{
		nop
		ldw r0, r4[1]
	}
	ldc r5, 444
	.loc	1 602 2
	{
		add r0, r0, r5
		nop
	}
	{
		nop
		ldw r0, r0[0]
	}
	.loc	1 602 2
	bl free
	{
		nop
		ldw r0, r4[1]
	}
	.loc	1 603 2
	{
		add r1, r0, r5
		ldc r5, 0
	}
	{
		nop
		stw r5, r1[0]
	}
	ldc r1, 244
	.loc	1 604 2
	{
		add r1, r0, r1
		nop
	}
	{
		nop
		stw r5, r1[0]
	}
	{
		nop
		ldw r0, r0[11]
	}
	.loc	1 606 2
	bl FLAC__bitreader_free
.Ltmp62:
	{
		nop
		ldw r6, r4[1]
	}
	ldw r10, cp[.LCPI2_0]
	ldc r8, 80
	ldc r7, 4672
	ldc r9, 112
.Ltmp63:
.LBB2_3:
	{
		add r0, r6, r10
		nop
	}
	{
		add r0, r0, r8
		nop
	}
	{
		nop
		ldw r0, r0[0]
	}
	bf r0, .LBB2_5
.Ltmp64:
	.loc	1 615 4
	ldaw r0, r0[-4]
	.loc	1 615 4
	bl free
	{
		nop
		ldw r0, r4[1]
	}
	{
		add r0, r0, r10
		nop
	}
	{
		add r0, r0, r8
		nop
	}
	{
		nop
		stw r5, r0[0]
	}
	{
		nop
		ldw r6, r4[1]
	}
.Ltmp65:
.LBB2_5:
	{
		add r0, r6, r10
		nop
	}
	{
		add r0, r0, r7
		nop
	}
	{
		nop
		ldw r0, r0[0]
	}
	bf r0, .LBB2_7
.Ltmp66:
	.loc	1 619 4
	bl free
	{
		nop
		ldw r0, r4[1]
	}
	{
		add r0, r0, r10
		nop
	}
	{
		add r0, r0, r9
		nop
	}
	{
		nop
		stw r5, r0[0]
	}
	{
		nop
		ldw r0, r4[1]
	}
	{
		add r0, r0, r10
		nop
	}
	{
		add r0, r0, r7
		nop
	}
	{
		nop
		stw r5, r0[0]
	}
	{
		nop
		ldw r6, r4[1]
	}
.Ltmp67:
.LBB2_7:
	.loc	1 607 2
	{
		add r10, r10, 4
		nop
	}
.xtaloop 8
	# LOOPMARKER 0
	bt r10, .LBB2_3
.Ltmp68:
	.loc	1 623 5
	{
		add r0, r6, r9
		nop
	}
	{
		nop
		ldw r0, r0[0]
	}
	bf r0, .LBB2_10
.Ltmp69:
	.loc	1 624 3
	bl free
	{
		nop
		ldw r6, r4[1]
	}
	.loc	1 625 3
	{
		add r0, r6, r9
		nop
	}
	{
		nop
		stw r5, r0[0]
	}
.Ltmp70:
.LBB2_10:
	ldc r0, 216
	.loc	1 627 2
	{
		add r0, r6, r0
		nop
	}
	{
		nop
		stw r5, r0[0]
	}
	ldc r0, 220
	.loc	1 628 2
	{
		add r0, r6, r0
		nop
	}
	{
		nop
		stw r5, r0[0]
	}
	{
		nop
		ldw r8, r6[10]
	}
	bf r8, .LBB2_14
.Ltmp71:
	.loc	1 636 33
	bl __getstdin
	.loc	1 636 33
	{
		eq r0, r8, r0
		nop
	}
	bt r0, .LBB2_13
.Ltmp72:
	{
		nop
		ldw r0, r4[1]
	}
	{
		nop
		ldw r0, r0[10]
	}
	.loc	1 637 4
	bl fclose
.Ltmp73:
.LBB2_13:
	{
		nop
		ldw r6, r4[1]
	}
	{
		nop
		stw r5, r6[10]
	}
.Ltmp74:
.LBB2_14:
	.loc	1 641 5
	{
		add r0, r6, r7
		nop
	}
	.loc	1 641 5
	{
		mkmsk r8, 1
		ldw r0, r0[0]
	}
	{
		mov r7, r8
		nop
	}
	bf r0, .LBB2_16
.Ltmp75:
	ldc r0, 304
	.loc	1 642 6
.Ltmp76:
	{
		add r0, r6, r0
		nop
	}
	ldc r1, 4780
	.loc	1 642 6
	{
		add r1, r6, r1
		ldc r2, 16
	}
	.loc	1 642 6
	bl memcmp
.Ltmp77:
	.loc	1 642 6
	{
		eq r7, r0, 0
		nop
	}
.Ltmp78:
.LBB2_16:
	ldc r0, 4680
	.loc	1 645 2
	{
		add r0, r6, r0
		nop
	}
	{
		nop
		stw r5, r0[0]
	}
	ldc r9, 600
.Ltmp79:
	.loc	1 1204 2
	{
		add r0, r6, r9
		nop
	}
	ldc r2, 512
	.loc	1 1204 2
	{
		mov r1, r5
		nop
	}
	bl memset
	{
		ldc r2, 40
		mov r0, r6
	}
	.loc	1 1194 2
	{
		mov r1, r5
		nop
	}
	bl memset
	{
		nop
		ldw r0, r4[1]
	}
	.loc	1 1205 2
	{
		add r1, r0, r9
		nop
	}
	{
		nop
		stw r8, r1[0]
	}
	ldc r1, 1116
	.loc	1 1206 2
	{
		add r0, r0, r1
		nop
	}
	{
		nop
		stw r5, r0[0]
	}
	{
		nop
		ldw r0, r4[0]
	}
	.loc	1 1208 2
	{
		ldc r1, 9
		stw r5, r0[7]
	}
	{
		nop
		stw r1, r0[0]
	}
.Ltmp80:
.LBB2_17:
	.loc	1 652 1
	{
		mov r0, r7
		ldw r10, sp[8]
	}
	ldd r9, r8, sp[3]
	ldd r7, r6, sp[2]
	ldd r5, r4, sp[1]
	{
		nop
		retsp 10
	}
	# RETURN_REG_HOLDER
.Ltmp81:
	.cc_bottom FLAC__stream_decoder_finish.function
	.set	FLAC__stream_decoder_finish.nstackwords,((assert.nstackwords $M FLAC__MD5Final.nstackwords $M FLAC__bitreader_free.nstackwords $M memset.nstackwords $M memcmp.nstackwords $M __getstdin.nstackwords $M fclose.nstackwords $M free.nstackwords) + 10)
	.globl	FLAC__stream_decoder_finish.nstackwords
	.set	FLAC__stream_decoder_finish.maxcores,FLAC__MD5Final.maxcores $M FLAC__bitreader_free.maxcores $M __getstdin.maxcores $M fclose.maxcores $M free.maxcores $M memcmp.maxcores $M 1
	.globl	FLAC__stream_decoder_finish.maxcores
	.set	FLAC__stream_decoder_finish.maxtimers,FLAC__MD5Final.maxtimers $M FLAC__bitreader_free.maxtimers $M __getstdin.maxtimers $M fclose.maxtimers $M free.maxtimers $M memcmp.maxtimers $M 0
	.globl	FLAC__stream_decoder_finish.maxtimers
	.set	FLAC__stream_decoder_finish.maxchanends,FLAC__MD5Final.maxchanends $M FLAC__bitreader_free.maxchanends $M __getstdin.maxchanends $M fclose.maxchanends $M free.maxchanends $M memcmp.maxchanends $M 0
	.globl	FLAC__stream_decoder_finish.maxchanends
.Ltmp82:
	.size	FLAC__stream_decoder_finish, .Ltmp82-FLAC__stream_decoder_finish
.Lfunc_end2:
	.cfi_endproc

	.globl	FLAC__stream_decoder_init_stream
	.align	4
	.type	FLAC__stream_decoder_init_stream,@function
	.cc_top FLAC__stream_decoder_init_stream.function,FLAC__stream_decoder_init_stream
FLAC__stream_decoder_init_stream:
.Lfunc_begin3:
	.loc	1 416 0
	.cfi_startproc
	.issue_mode dual
	{
		nop
		dualentsp 14
	}
.Ltmp83:
	.cfi_def_cfa_offset 56
.Ltmp84:
	.cfi_offset 15, 0
	std r5, r4, sp[3]
.Ltmp85:
	.cfi_offset 4, -32
.Ltmp86:
	.cfi_offset 5, -28
	std r7, r6, sp[4]
.Ltmp87:
	.cfi_offset 6, -24
.Ltmp88:
	.cfi_offset 7, -20
	std r9, r8, sp[5]
.Ltmp89:
	.cfi_offset 8, -16
.Ltmp90:
	.cfi_offset 9, -12
.Ltmp91:
	.cfi_offset 10, -8
.Ltmp92:
	{
		mov r4, r3
		stw r10, sp[12]
	}
.Ltmp93:
	{
		mov r9, r2
		stw r1, sp[5]
	}
.Ltmp94:
	{
		mov r6, r0
		nop
	}
.Ltmp95:
	ldd r10, r5, sp[9]
	ldd r8, r7, sp[8]
.Ltmp96:
	.loc	1 349 2 prologue_end
	{
		eq r0, r6, 0
		nop
	}
	{
		eq r0, r0, 0
		nop
	}
	.loc	1 349 2
	bl assert
	{
		nop
		ldw r0, r6[0]
	}
	{
		nop
		ldw r0, r0[0]
	}
	.loc	1 351 5
.Ltmp97:
	{
		eq r0, r0, 9
		nop
	}
	bf r0, .LBB3_1
.Ltmp98:
	{
		mov r3, r6
		stw r7, sp[4]
	}
.Ltmp99:
	{
		ldc r5, 2
		stw r5, sp[3]
	}
	{
		nop
		ldw r6, sp[5]
	}
.Ltmp100:
	bf r6, .LBB3_13
.Ltmp101:
	bf r8, .LBB3_13
.Ltmp102:
	{
		mov r1, r10
		nop
	}
.Ltmp103:
	bf r1, .LBB3_13
.Ltmp104:
	{
		mov r10, r6
		ldw r11, sp[15]
	}
.Ltmp105:
	{
		mov r7, r9
		mov r2, r4
	}
.Ltmp106:
	bf r7, .LBB3_9
.Ltmp107:
	bf r2, .LBB3_13
.Ltmp108:
	{
		nop
		ldw r0, sp[4]
	}
.Ltmp109:
	bf r11, .LBB3_13
.Ltmp110:
	bf r0, .LBB3_13
.Ltmp111:
.LBB3_9:
	{
		mov r9, r11
		stw r1, sp[2]
	}
.Ltmp112:
	{
		mov r5, r2
		mov r4, r3
	}
.Ltmp113:
	{
		nop
		ldw r0, r4[1]
	}
	{
		nop
		ldw r0, r0[11]
	}
	.loc	1 373 6
.Ltmp114:
	ldap r11, read_callback_
	{
		mov r1, r11
		mov r2, r4
	}
	bl FLAC__bitreader_init
	.loc	1 373 6
	bf r0, .LBB3_10
.Ltmp115:
	{
		nop
		ldw r0, sp[20]
	}
.Ltmp116:
	{
		nop
		ldw r6, r4[1]
	}
	{
		nop
		stw r10, r6[1]
	}
	{
		nop
		stw r7, r6[2]
	}
	{
		nop
		stw r5, r6[3]
	}
	{
		nop
		stw r9, r6[4]
	}
	{
		nop
		ldw r1, sp[4]
	}
	{
		nop
		stw r1, r6[5]
	}
	{
		nop
		stw r8, r6[6]
	}
	{
		nop
		ldw r1, sp[3]
	}
	{
		nop
		stw r1, r6[7]
	}
	{
		nop
		ldw r1, sp[2]
	}
	{
		nop
		stw r1, r6[8]
	}
	{
		nop
		stw r0, r6[9]
	}
	ldc r0, 224
.Ltmp117:
	.loc	1 387 2
	{
		add r0, r6, r0
		nop
	}
	ldc r1, 4632
	.loc	1 390 2
	{
		add r1, r6, r1
		ldc r5, 0
	}
.Ltmp118:
	.loc	1 390 2
	{
		ldc r2, 20
		stw r5, r1[0]
	}
	.loc	1 387 2
	{
		mov r1, r5
		nop
	}
	bl memset
	{
		nop
		ldw r0, r4[0]
	}
	{
		nop
		ldw r0, r0[7]
	}
	ldc r1, 4672
	.loc	1 392 2
	{
		add r1, r6, r1
		nop
	}
	{
		nop
		stw r0, r1[0]
	}
	ldc r0, 4680
	.loc	1 393 2
	{
		add r0, r6, r0
		nop
	}
	{
		nop
		stw r5, r0[0]
	}
	ldc r0, 4676
	.loc	1 395 2
	{
		add r0, r6, r0
		mkmsk r1, 1
	}
	.loc	1 395 2
	{
		mov r0, r4
		stw r1, r0[0]
	}
	.loc	1 396 6
.Ltmp119:
	bl FLAC__stream_decoder_reset
	bt r0, .LBB3_13
	bu .LBB3_12
.Ltmp120:
.LBB3_1:
	{
		ldc r5, 5
		nop
	}
	bu .LBB3_13
.LBB3_10:
.Ltmp121:
	.loc	1 374 3
	{
		ldc r1, 8
		ldw r0, r4[0]
	}
	{
		nop
		stw r1, r0[0]
	}
.Ltmp122:
.LBB3_12:
	{
		mkmsk r5, 2
		nop
	}
.LBB3_13:
	.loc	1 417 9
	{
		mov r0, r5
		ldw r10, sp[12]
	}
	ldd r9, r8, sp[5]
	ldd r7, r6, sp[4]
	ldd r5, r4, sp[3]
	{
		nop
		retsp 14
	}
	# RETURN_REG_HOLDER
.Ltmp123:
	.cc_bottom FLAC__stream_decoder_init_stream.function
	.set	FLAC__stream_decoder_init_stream.nstackwords,((assert.nstackwords $M FLAC__bitreader_init.nstackwords $M memset.nstackwords $M FLAC__stream_decoder_reset.nstackwords) + 14)
	.globl	FLAC__stream_decoder_init_stream.nstackwords
	.set	FLAC__stream_decoder_init_stream.maxcores,FLAC__bitreader_init.maxcores $M FLAC__stream_decoder_reset.maxcores $M 1
	.globl	FLAC__stream_decoder_init_stream.maxcores
	.set	FLAC__stream_decoder_init_stream.maxtimers,FLAC__bitreader_init.maxtimers $M FLAC__stream_decoder_reset.maxtimers $M 0
	.globl	FLAC__stream_decoder_init_stream.maxtimers
	.set	FLAC__stream_decoder_init_stream.maxchanends,FLAC__bitreader_init.maxchanends $M FLAC__stream_decoder_reset.maxchanends $M 0
	.globl	FLAC__stream_decoder_init_stream.maxchanends
.Ltmp124:
	.size	FLAC__stream_decoder_init_stream, .Ltmp124-FLAC__stream_decoder_init_stream
.Lfunc_end3:
	.cfi_endproc

	.globl	FLAC__stream_decoder_init_ogg_stream
	.align	4
	.type	FLAC__stream_decoder_init_ogg_stream,@function
	.cc_top FLAC__stream_decoder_init_ogg_stream.function,FLAC__stream_decoder_init_ogg_stream
FLAC__stream_decoder_init_ogg_stream:
.Lfunc_begin4:
	.loc	1 444 0
	.cfi_startproc
	.issue_mode dual
	{
		nop
		dualentsp 4
	}
.Ltmp125:
	.cfi_def_cfa_offset 16
.Ltmp126:
	.cfi_offset 15, 0
.Ltmp127:
	.cfi_offset 4, -8
.Ltmp128:
	{
		mov r4, r0
		stw r4, sp[2]
	}
.Ltmp129:
	.loc	1 349 2 prologue_end
	{
		eq r0, r4, 0
		nop
	}
	{
		eq r0, r0, 0
		nop
	}
	.loc	1 349 2
	bl assert
	{
		nop
		ldw r0, r4[0]
	}
	{
		nop
		ldw r0, r0[0]
	}
	.loc	1 351 5
.Ltmp130:
	{
		eq r0, r0, 9
		nop
	}
	.loc	1 351 5
	bt r0, .LBB4_1
.Ltmp131:
	{
		ldc r0, 5
		nop
	}
	bu .LBB4_3
.Ltmp132:
.LBB4_1:
	{
		mkmsk r0, 1
		nop
	}
.Ltmp133:
.LBB4_3:
	{
		nop
		ldw r4, sp[2]
	}
	{
		nop
		retsp 4
	}
.Ltmp134:
	.loc	1 445 9
	# RETURN_REG_HOLDER
.Ltmp135:
	.cc_bottom FLAC__stream_decoder_init_ogg_stream.function
	.set	FLAC__stream_decoder_init_ogg_stream.nstackwords,(assert.nstackwords + 4)
	.globl	FLAC__stream_decoder_init_ogg_stream.nstackwords
	.set	FLAC__stream_decoder_init_ogg_stream.maxcores,1
	.globl	FLAC__stream_decoder_init_ogg_stream.maxcores
	.set	FLAC__stream_decoder_init_ogg_stream.maxtimers,0
	.globl	FLAC__stream_decoder_init_ogg_stream.maxtimers
	.set	FLAC__stream_decoder_init_ogg_stream.maxchanends,0
	.globl	FLAC__stream_decoder_init_ogg_stream.maxchanends
.Ltmp136:
	.size	FLAC__stream_decoder_init_ogg_stream, .Ltmp136-FLAC__stream_decoder_init_ogg_stream
.Lfunc_end4:
	.cfi_endproc

	.globl	FLAC__stream_decoder_init_FILE
	.align	4
	.type	FLAC__stream_decoder_init_FILE,@function
	.cc_top FLAC__stream_decoder_init_FILE.function,FLAC__stream_decoder_init_FILE
FLAC__stream_decoder_init_FILE:
.Lfunc_begin5:
	.loc	1 512 0
	.cfi_startproc
	.issue_mode dual
	{
		nop
		dualentsp 6
	}
.Ltmp137:
	.cfi_def_cfa_offset 24
.Ltmp138:
	.cfi_offset 15, 0
	std r5, r4, sp[2]
.Ltmp139:
	.cfi_offset 4, -8
.Ltmp140:
	.cfi_offset 5, -4
	{
		nop
		ldw r11, sp[7]
	}
	{
		ldc r5, 0
		ldw r4, sp[8]
	}
	.loc	1 513 9 prologue_end
.Ltmp141:
	std r5, r4, sp[1]
	{
		nop
		stw r11, sp[1]
	}
	bl init_FILE_internal_
.Ltmp142:
	.loc	1 513 9
	ldd r5, r4, sp[2]
	{
		nop
		retsp 6
	}
.Ltmp143:
	# RETURN_REG_HOLDER
.Ltmp144:
	.cc_bottom FLAC__stream_decoder_init_FILE.function
	.set	FLAC__stream_decoder_init_FILE.nstackwords,(init_FILE_internal_.nstackwords + 6)
	.globl	FLAC__stream_decoder_init_FILE.nstackwords
	.set	FLAC__stream_decoder_init_FILE.maxcores,init_FILE_internal_.maxcores $M 1
	.globl	FLAC__stream_decoder_init_FILE.maxcores
	.set	FLAC__stream_decoder_init_FILE.maxtimers,init_FILE_internal_.maxtimers $M 0
	.globl	FLAC__stream_decoder_init_FILE.maxtimers
	.set	FLAC__stream_decoder_init_FILE.maxchanends,init_FILE_internal_.maxchanends $M 0
	.globl	FLAC__stream_decoder_init_FILE.maxchanends
.Ltmp145:
	.size	FLAC__stream_decoder_init_FILE, .Ltmp145-FLAC__stream_decoder_init_FILE
.Lfunc_end5:
	.cfi_endproc

	.align	4
	.type	init_FILE_internal_,@function
	.cc_top init_FILE_internal_.function,init_FILE_internal_
init_FILE_internal_:
.Lfunc_begin6:
	.loc	1 469 0
	.cfi_startproc
	.issue_mode dual
	{
		nop
		dualentsp 14
	}
.Ltmp146:
	.cfi_def_cfa_offset 56
.Ltmp147:
	.cfi_offset 15, 0
	std r5, r4, sp[3]
.Ltmp148:
	.cfi_offset 4, -32
.Ltmp149:
	.cfi_offset 5, -28
	std r7, r6, sp[4]
.Ltmp150:
	.cfi_offset 6, -24
.Ltmp151:
	.cfi_offset 7, -20
	std r9, r8, sp[5]
.Ltmp152:
	.cfi_offset 8, -16
.Ltmp153:
	.cfi_offset 9, -12
.Ltmp154:
	.cfi_offset 10, -8
.Ltmp155:
	{
		mov r5, r3
		stw r10, sp[12]
	}
.Ltmp156:
	{
		mov r6, r2
		mov r8, r1
	}
.Ltmp157:
	{
		mov r4, r0
		nop
	}
.Ltmp158:
	ldd r10, r9, sp[8]
	.loc	1 470 2 prologue_end
.Ltmp159:
	{
		eq r0, r4, 0
		nop
	}
	{
		eq r7, r0, 0
		nop
	}
	.loc	1 470 2
	{
		mov r0, r7
		nop
	}
	bl assert
	.loc	1 471 2
	{
		eq r0, r8, 0
		nop
	}
	{
		eq r0, r0, 0
		nop
	}
	.loc	1 471 2
	bl assert
	{
		nop
		ldw r0, r4[0]
	}
	{
		nop
		ldw r1, r0[0]
	}
	.loc	1 473 5
.Ltmp160:
	{
		eq r1, r1, 9
		nop
	}
	.loc	1 473 5
	bf r1, .LBB6_1
.Ltmp161:
	bf r6, .LBB6_4
.Ltmp162:
	{
		nop
		ldw r1, sp[15]
	}
	bf r1, .LBB6_4
.Ltmp163:
	.loc	1 484 13
	bl __getstdin
	.loc	1 484 13
	{
		eq r0, r0, r8
		nop
	}
	bf r0, .LBB6_7
.Ltmp164:
	.loc	1 1230 9
	bl __getstdin
	{
		mov r8, r0
		nop
	}
.Ltmp165:
.LBB6_7:
	{
		nop
		stw r9, sp[3]
	}
.Ltmp166:
	{
		nop
		stw r5, sp[4]
	}
.Ltmp167:
	{
		nop
		ldw r0, r4[1]
	}
	{
		nop
		stw r8, r0[10]
	}
	.loc	1 492 30
	bl __getstdin
	.loc	1 492 30
	{
		eq r1, r8, r0
		nop
	}
	.loc	1 492 30
	ldap r11, file_seek_callback_
	{
		ldc r8, 0
		nop
	}
	{
		mov r0, r8
		stw r1, sp[5]
	}
	bt r1, .LBB6_9
.Ltmp168:
	{
		mov r0, r11
		nop
	}
.Ltmp169:
.LBB6_9:
	{
		nop
		stw r0, sp[2]
	}
.Ltmp170:
	{
		nop
		ldw r0, r4[1]
	}
	{
		nop
		ldw r5, r0[10]
	}
	.loc	1 493 30
	bl __getstdin
	.loc	1 493 30
	{
		eq r9, r5, r0
		nop
	}
	.loc	1 493 30
	ldap r11, file_tell_callback_
	{
		mov r0, r8
		nop
	}
	bt r9, .LBB6_11
.Ltmp171:
	{
		mov r0, r11
		nop
	}
.Ltmp172:
.LBB6_11:
	{
		nop
		stw r0, sp[1]
	}
.Ltmp173:
	{
		nop
		ldw r0, r4[1]
	}
	{
		nop
		ldw r5, r0[10]
	}
	.loc	1 494 30
	bl __getstdin
	.loc	1 494 30
	{
		eq r5, r5, r0
		nop
	}
	.loc	1 494 30
	ldap r11, file_length_callback_
	bt r5, .LBB6_13
.Ltmp174:
	{
		mov r8, r11
		nop
	}
.Ltmp175:
.LBB6_13:
	.loc	1 349 2
	{
		mov r0, r7
		nop
	}
	bl assert
	{
		nop
		ldw r0, r4[0]
	}
	{
		nop
		ldw r0, r0[0]
	}
	.loc	1 351 5
.Ltmp176:
	{
		eq r0, r0, 9
		nop
	}
	bf r0, .LBB6_14
.Ltmp177:
	.loc	1 354 5
	bf r10, .LBB6_17
.Ltmp178:
	{
		mkmsk r5, 1
		nop
	}
	bu .LBB6_24
.LBB6_1:
	{
		ldc r5, 5
		nop
	}
	{
		nop
		stw r5, r0[1]
	}
	bu .LBB6_24
.LBB6_4:
	{
		ldc r5, 2
		nop
	}
	{
		nop
		stw r5, r0[1]
	}
	bu .LBB6_24
.LBB6_14:
	{
		ldc r5, 5
		nop
	}
.LBB6_24:
	.loc	1 502 1
	{
		mov r0, r5
		ldw r10, sp[12]
	}
	ldd r9, r8, sp[5]
	ldd r7, r6, sp[4]
	ldd r5, r4, sp[3]
	{
		nop
		retsp 14
	}
	# RETURN_REG_HOLDER
.LBB6_17:
.Ltmp179:
	.loc	1 358 3
	{
		or r0, r9, r5
		nop
	}
	.loc	1 358 3
	{
		eq r0, r0, 1
		nop
	}
	bf r0, .LBB6_20
.Ltmp180:
	{
		nop
		ldw r0, sp[5]
	}
	.loc	1 358 3
	{
		eq r0, r0, 0
		nop
	}
	bf r0, .LBB6_20
.Ltmp181:
	{
		ldc r5, 2
		nop
	}
	bu .LBB6_24
.LBB6_20:
.Ltmp182:
	{
		nop
		ldw r0, r4[1]
	}
	{
		nop
		ldw r0, r0[11]
	}
	.loc	1 373 6
.Ltmp183:
	ldap r11, read_callback_
	{
		mov r1, r11
		mov r2, r4
	}
	bl FLAC__bitreader_init
	.loc	1 373 6
	bf r0, .LBB6_21
.Ltmp184:
	{
		nop
		ldw r7, r4[1]
	}
	.loc	1 378 2
	ldap r11, file_read_callback_
	{
		nop
		stw r11, r7[1]
	}
	{
		nop
		ldw r0, sp[2]
	}
	{
		nop
		stw r0, r7[2]
	}
	{
		nop
		ldw r0, sp[1]
	}
	{
		nop
		stw r0, r7[3]
	}
	{
		nop
		stw r8, r7[4]
	}
	.loc	1 382 2
	ldap r11, file_eof_callback_
	{
		nop
		stw r11, r7[5]
	}
	{
		nop
		stw r6, r7[6]
	}
	{
		nop
		ldw r0, sp[4]
	}
	{
		nop
		stw r0, r7[7]
	}
	{
		nop
		ldw r0, sp[15]
	}
	{
		nop
		stw r0, r7[8]
	}
	{
		nop
		ldw r0, sp[3]
	}
	{
		nop
		stw r0, r7[9]
	}
	ldc r0, 224
	.loc	1 387 2
	{
		add r0, r7, r0
		nop
	}
	ldc r1, 4632
	.loc	1 390 2
	{
		add r1, r7, r1
		ldc r5, 0
	}
.Ltmp185:
	.loc	1 390 2
	{
		ldc r2, 20
		stw r5, r1[0]
	}
	.loc	1 387 2
	{
		mov r1, r5
		nop
	}
	bl memset
	{
		nop
		ldw r0, r4[0]
	}
	{
		nop
		ldw r0, r0[7]
	}
	ldc r1, 4672
	.loc	1 392 2
	{
		add r1, r7, r1
		nop
	}
	{
		nop
		stw r0, r1[0]
	}
	ldc r0, 4680
	.loc	1 393 2
	{
		add r0, r7, r0
		nop
	}
	{
		nop
		stw r5, r0[0]
	}
	ldc r0, 4676
	.loc	1 395 2
	{
		add r0, r7, r0
		mkmsk r1, 1
	}
	.loc	1 395 2
	{
		mov r0, r4
		stw r1, r0[0]
	}
	.loc	1 396 6
.Ltmp186:
	bl FLAC__stream_decoder_reset
	bt r0, .LBB6_24
	bu .LBB6_23
.Ltmp187:
.LBB6_21:
	.loc	1 374 3
	{
		ldc r1, 8
		ldw r0, r4[0]
	}
	{
		nop
		stw r1, r0[0]
	}
.Ltmp188:
.LBB6_23:
	{
		mkmsk r5, 2
		nop
	}
	bu .LBB6_24
	.cc_bottom init_FILE_internal_.function
	.set	init_FILE_internal_.nstackwords,((__getstdin.nstackwords $M assert.nstackwords $M FLAC__bitreader_init.nstackwords $M memset.nstackwords $M FLAC__stream_decoder_reset.nstackwords) + 14)
	.set	init_FILE_internal_.maxcores,FLAC__bitreader_init.maxcores $M FLAC__stream_decoder_reset.maxcores $M __getstdin.maxcores $M 1
	.set	init_FILE_internal_.maxtimers,FLAC__bitreader_init.maxtimers $M FLAC__stream_decoder_reset.maxtimers $M __getstdin.maxtimers $M 0
	.set	init_FILE_internal_.maxchanends,FLAC__bitreader_init.maxchanends $M FLAC__stream_decoder_reset.maxchanends $M __getstdin.maxchanends $M 0
.Ltmp189:
	.size	init_FILE_internal_, .Ltmp189-init_FILE_internal_
.Lfunc_end6:
	.cfi_endproc

	.globl	FLAC__stream_decoder_init_ogg_FILE
	.align	4
	.type	FLAC__stream_decoder_init_ogg_FILE,@function
	.cc_top FLAC__stream_decoder_init_ogg_FILE.function,FLAC__stream_decoder_init_ogg_FILE
FLAC__stream_decoder_init_ogg_FILE:
.Lfunc_begin7:
	.loc	1 524 0
	.cfi_startproc
	.issue_mode dual
	{
		nop
		dualentsp 6
	}
.Ltmp190:
	.cfi_def_cfa_offset 24
.Ltmp191:
	.cfi_offset 15, 0
	std r5, r4, sp[2]
.Ltmp192:
	.cfi_offset 4, -8
.Ltmp193:
	.cfi_offset 5, -4
	{
		nop
		ldw r11, sp[7]
	}
	{
		mkmsk r5, 1
		ldw r4, sp[8]
	}
	.loc	1 525 9 prologue_end
.Ltmp194:
	std r5, r4, sp[1]
	{
		nop
		stw r11, sp[1]
	}
	bl init_FILE_internal_
.Ltmp195:
	.loc	1 525 9
	ldd r5, r4, sp[2]
	{
		nop
		retsp 6
	}
.Ltmp196:
	# RETURN_REG_HOLDER
.Ltmp197:
	.cc_bottom FLAC__stream_decoder_init_ogg_FILE.function
	.set	FLAC__stream_decoder_init_ogg_FILE.nstackwords,(init_FILE_internal_.nstackwords + 6)
	.globl	FLAC__stream_decoder_init_ogg_FILE.nstackwords
	.set	FLAC__stream_decoder_init_ogg_FILE.maxcores,init_FILE_internal_.maxcores $M 1
	.globl	FLAC__stream_decoder_init_ogg_FILE.maxcores
	.set	FLAC__stream_decoder_init_ogg_FILE.maxtimers,init_FILE_internal_.maxtimers $M 0
	.globl	FLAC__stream_decoder_init_ogg_FILE.maxtimers
	.set	FLAC__stream_decoder_init_ogg_FILE.maxchanends,init_FILE_internal_.maxchanends $M 0
	.globl	FLAC__stream_decoder_init_ogg_FILE.maxchanends
.Ltmp198:
	.size	FLAC__stream_decoder_init_ogg_FILE, .Ltmp198-FLAC__stream_decoder_init_ogg_FILE
.Lfunc_end7:
	.cfi_endproc

	.globl	FLAC__stream_decoder_init_file
	.align	4
	.type	FLAC__stream_decoder_init_file,@function
	.cc_top FLAC__stream_decoder_init_file.function,FLAC__stream_decoder_init_file
FLAC__stream_decoder_init_file:
.Lfunc_begin8:
	.loc	1 569 0
	.cfi_startproc
	.issue_mode dual
	{
		nop
		dualentsp 10
	}
.Ltmp199:
	.cfi_def_cfa_offset 40
.Ltmp200:
	.cfi_offset 15, 0
	std r5, r4, sp[2]
.Ltmp201:
	.cfi_offset 4, -24
.Ltmp202:
	.cfi_offset 5, -20
	std r7, r6, sp[3]
.Ltmp203:
	.cfi_offset 6, -16
.Ltmp204:
	.cfi_offset 7, -12
	std r9, r8, sp[4]
.Ltmp205:
	.cfi_offset 8, -8
.Ltmp206:
	.cfi_offset 9, -4
.Ltmp207:
	{
		mov r4, r3
		mov r5, r2
	}
.Ltmp208:
	{
		mov r7, r1
		mov r6, r0
	}
.Ltmp209:
	.loc	1 540 2 prologue_end
	{
		eq r0, r6, 0
		nop
	}
	{
		eq r0, r0, 0
		nop
	}
	.loc	1 540 2
	bl assert
	{
		nop
		ldw r1, r6[0]
	}
	{
		nop
		ldw r0, r1[0]
	}
	.loc	1 547 5
.Ltmp210:
	{
		eq r0, r0, 9
		nop
	}
	.loc	1 547 5
	bf r0, .LBB8_1
.Ltmp211:
	bf r5, .LBB8_4
.Ltmp212:
	{
		nop
		ldw r8, sp[11]
	}
.Ltmp213:
	bf r8, .LBB8_4
.Ltmp214:
	{
		nop
		ldw r9, sp[12]
	}
.Ltmp215:
	.loc	1 553 2
	bf r7, .LBB8_7
.Ltmp216:
	.loc	1 553 19
	ldaw r11, cp[.L.str39]
	{
		mov r0, r7
		mov r1, r11
	}
	bl fopen
	bu .LBB8_8
.Ltmp217:
.LBB8_1:
	{
		ldc r0, 5
		nop
	}
	{
		nop
		stw r0, r1[1]
	}
	bu .LBB8_11
.LBB8_4:
	{
		ldc r0, 2
		nop
	}
	{
		nop
		stw r0, r1[1]
	}
	bu .LBB8_11
.LBB8_7:
.Ltmp218:
	.loc	1 553 48
	bl __getstdin
.Ltmp219:
.LBB8_8:
	{
		mov r1, r0
		nop
	}
.Ltmp220:
	.loc	1 555 5
	bf r1, .LBB8_9
.Ltmp221:
	{
		ldc r0, 0
		nop
	}
	.loc	1 558 9
	std r0, r9, sp[1]
	{
		mov r0, r6
		stw r8, sp[1]
	}
	{
		mov r2, r5
		mov r3, r4
	}
	bl init_FILE_internal_
.Ltmp222:
	bu .LBB8_11
.Ltmp223:
.LBB8_9:
	{
		ldc r0, 4
		nop
	}
.LBB8_11:
	.loc	1 570 9
	ldd r9, r8, sp[4]
	ldd r7, r6, sp[3]
	ldd r5, r4, sp[2]
	{
		nop
		retsp 10
	}
	# RETURN_REG_HOLDER
.Ltmp224:
	.cc_bottom FLAC__stream_decoder_init_file.function
	.set	FLAC__stream_decoder_init_file.nstackwords,((assert.nstackwords $M __getstdin.nstackwords $M init_FILE_internal_.nstackwords $M fopen.nstackwords) + 10)
	.globl	FLAC__stream_decoder_init_file.nstackwords
	.set	FLAC__stream_decoder_init_file.maxcores,__getstdin.maxcores $M fopen.maxcores $M init_FILE_internal_.maxcores $M 1
	.globl	FLAC__stream_decoder_init_file.maxcores
	.set	FLAC__stream_decoder_init_file.maxtimers,__getstdin.maxtimers $M fopen.maxtimers $M init_FILE_internal_.maxtimers $M 0
	.globl	FLAC__stream_decoder_init_file.maxtimers
	.set	FLAC__stream_decoder_init_file.maxchanends,__getstdin.maxchanends $M fopen.maxchanends $M init_FILE_internal_.maxchanends $M 0
	.globl	FLAC__stream_decoder_init_file.maxchanends
.Ltmp225:
	.size	FLAC__stream_decoder_init_file, .Ltmp225-FLAC__stream_decoder_init_file
.Lfunc_end8:
	.cfi_endproc

	.globl	FLAC__stream_decoder_init_ogg_file
	.align	4
	.type	FLAC__stream_decoder_init_ogg_file,@function
	.cc_top FLAC__stream_decoder_init_ogg_file.function,FLAC__stream_decoder_init_ogg_file
FLAC__stream_decoder_init_ogg_file:
.Lfunc_begin9:
	.loc	1 581 0
	.cfi_startproc
	.issue_mode dual
	{
		nop
		dualentsp 10
	}
.Ltmp226:
	.cfi_def_cfa_offset 40
.Ltmp227:
	.cfi_offset 15, 0
	std r5, r4, sp[2]
.Ltmp228:
	.cfi_offset 4, -24
.Ltmp229:
	.cfi_offset 5, -20
	std r7, r6, sp[3]
.Ltmp230:
	.cfi_offset 6, -16
.Ltmp231:
	.cfi_offset 7, -12
	std r9, r8, sp[4]
.Ltmp232:
	.cfi_offset 8, -8
.Ltmp233:
	.cfi_offset 9, -4
.Ltmp234:
	{
		mov r4, r3
		mov r5, r2
	}
.Ltmp235:
	{
		mov r7, r1
		mov r6, r0
	}
.Ltmp236:
	.loc	1 540 2 prologue_end
	{
		eq r0, r6, 0
		nop
	}
	{
		eq r0, r0, 0
		nop
	}
	.loc	1 540 2
	bl assert
	{
		nop
		ldw r1, r6[0]
	}
	{
		nop
		ldw r0, r1[0]
	}
	.loc	1 547 5
.Ltmp237:
	{
		eq r0, r0, 9
		nop
	}
	.loc	1 547 5
	bf r0, .LBB9_1
.Ltmp238:
	bf r5, .LBB9_4
.Ltmp239:
	{
		nop
		ldw r8, sp[11]
	}
.Ltmp240:
	bf r8, .LBB9_4
.Ltmp241:
	{
		nop
		ldw r9, sp[12]
	}
.Ltmp242:
	.loc	1 553 2
	bf r7, .LBB9_7
.Ltmp243:
	.loc	1 553 19
	ldaw r11, cp[.L.str39]
	{
		mov r0, r7
		mov r1, r11
	}
	bl fopen
	bu .LBB9_8
.Ltmp244:
.LBB9_1:
	{
		ldc r0, 5
		nop
	}
	{
		nop
		stw r0, r1[1]
	}
	bu .LBB9_11
.LBB9_4:
	{
		ldc r0, 2
		nop
	}
	{
		nop
		stw r0, r1[1]
	}
	bu .LBB9_11
.LBB9_7:
.Ltmp245:
	.loc	1 553 48
	bl __getstdin
.Ltmp246:
.LBB9_8:
	{
		mov r1, r0
		nop
	}
.Ltmp247:
	.loc	1 555 5
	bf r1, .LBB9_9
.Ltmp248:
	{
		mkmsk r0, 1
		nop
	}
	.loc	1 558 9
	std r0, r9, sp[1]
	{
		mov r0, r6
		stw r8, sp[1]
	}
	{
		mov r2, r5
		mov r3, r4
	}
	bl init_FILE_internal_
.Ltmp249:
	bu .LBB9_11
.Ltmp250:
.LBB9_9:
	{
		ldc r0, 4
		nop
	}
.LBB9_11:
	.loc	1 582 9
	ldd r9, r8, sp[4]
	ldd r7, r6, sp[3]
	ldd r5, r4, sp[2]
	{
		nop
		retsp 10
	}
	# RETURN_REG_HOLDER
.Ltmp251:
	.cc_bottom FLAC__stream_decoder_init_ogg_file.function
	.set	FLAC__stream_decoder_init_ogg_file.nstackwords,((assert.nstackwords $M __getstdin.nstackwords $M init_FILE_internal_.nstackwords $M fopen.nstackwords) + 10)
	.globl	FLAC__stream_decoder_init_ogg_file.nstackwords
	.set	FLAC__stream_decoder_init_ogg_file.maxcores,__getstdin.maxcores $M fopen.maxcores $M init_FILE_internal_.maxcores $M 1
	.globl	FLAC__stream_decoder_init_ogg_file.maxcores
	.set	FLAC__stream_decoder_init_ogg_file.maxtimers,__getstdin.maxtimers $M fopen.maxtimers $M init_FILE_internal_.maxtimers $M 0
	.globl	FLAC__stream_decoder_init_ogg_file.maxtimers
	.set	FLAC__stream_decoder_init_ogg_file.maxchanends,__getstdin.maxchanends $M fopen.maxchanends $M init_FILE_internal_.maxchanends $M 0
	.globl	FLAC__stream_decoder_init_ogg_file.maxchanends
.Ltmp252:
	.size	FLAC__stream_decoder_init_ogg_file, .Ltmp252-FLAC__stream_decoder_init_ogg_file
.Lfunc_end9:
	.cfi_endproc

	.globl	FLAC__stream_decoder_set_ogg_serial_number
	.align	4
	.type	FLAC__stream_decoder_set_ogg_serial_number,@function
	.cc_top FLAC__stream_decoder_set_ogg_serial_number.function,FLAC__stream_decoder_set_ogg_serial_number
FLAC__stream_decoder_set_ogg_serial_number:
.Lfunc_begin10:
	.loc	1 655 0
	.cfi_startproc
	.issue_mode dual
	{
		nop
		dualentsp 4
	}
.Ltmp253:
	.cfi_def_cfa_offset 16
.Ltmp254:
	.cfi_offset 15, 0
.Ltmp255:
	.cfi_offset 4, -8
.Ltmp256:
	{
		mov r4, r0
		stw r4, sp[2]
	}
.Ltmp257:
	.loc	1 656 2 prologue_end
	{
		eq r0, r4, 0
		nop
	}
	{
		eq r0, r0, 0
		nop
	}
	.loc	1 656 2
	bl assert
.Ltmp258:
	{
		nop
		ldw r0, r4[1]
	}
	.loc	1 657 2
	{
		eq r0, r0, 0
		nop
	}
	{
		eq r0, r0, 0
		nop
	}
	.loc	1 657 2
	bl assert
	{
		nop
		ldw r0, r4[0]
	}
	.loc	1 658 2
	{
		eq r0, r0, 0
		nop
	}
	{
		eq r0, r0, 0
		nop
	}
	.loc	1 658 2
	bl assert
	{
		ldc r0, 0
		ldw r4, sp[2]
	}
	{
		nop
		retsp 4
	}
	.loc	1 669 1
	# RETURN_REG_HOLDER
.Ltmp259:
	.cc_bottom FLAC__stream_decoder_set_ogg_serial_number.function
	.set	FLAC__stream_decoder_set_ogg_serial_number.nstackwords,(assert.nstackwords + 4)
	.globl	FLAC__stream_decoder_set_ogg_serial_number.nstackwords
	.set	FLAC__stream_decoder_set_ogg_serial_number.maxcores,1
	.globl	FLAC__stream_decoder_set_ogg_serial_number.maxcores
	.set	FLAC__stream_decoder_set_ogg_serial_number.maxtimers,0
	.globl	FLAC__stream_decoder_set_ogg_serial_number.maxtimers
	.set	FLAC__stream_decoder_set_ogg_serial_number.maxchanends,0
	.globl	FLAC__stream_decoder_set_ogg_serial_number.maxchanends
.Ltmp260:
	.size	FLAC__stream_decoder_set_ogg_serial_number, .Ltmp260-FLAC__stream_decoder_set_ogg_serial_number
.Lfunc_end10:
	.cfi_endproc

	.globl	FLAC__stream_decoder_set_md5_checking
	.align	4
	.type	FLAC__stream_decoder_set_md5_checking,@function
	.cc_top FLAC__stream_decoder_set_md5_checking.function,FLAC__stream_decoder_set_md5_checking
FLAC__stream_decoder_set_md5_checking:
.Lfunc_begin11:
	.loc	1 672 0
	.cfi_startproc
	.issue_mode dual
	{
		nop
		dualentsp 4
	}
.Ltmp261:
	.cfi_def_cfa_offset 16
.Ltmp262:
	.cfi_offset 15, 0
	std r5, r4, sp[1]
.Ltmp263:
	.cfi_offset 4, -8
.Ltmp264:
	.cfi_offset 5, -4
.Ltmp265:
	{
		mov r4, r1
		mov r5, r0
	}
.Ltmp266:
	.loc	1 673 2 prologue_end
	{
		eq r0, r5, 0
		nop
	}
	{
		eq r0, r0, 0
		nop
	}
	.loc	1 673 2
	bl assert
	{
		nop
		ldw r0, r5[0]
	}
	.loc	1 674 2
	{
		eq r0, r0, 0
		nop
	}
	{
		eq r0, r0, 0
		nop
	}
	.loc	1 674 2
	bl assert
	{
		nop
		ldw r0, r5[0]
	}
	{
		nop
		ldw r1, r0[0]
	}
	.loc	1 675 5
.Ltmp267:
	{
		eq r1, r1, 9
		nop
	}
	bf r1, .LBB11_1
.Ltmp268:
	.loc	1 677 2
	{
		mkmsk r0, 1
		stw r4, r0[7]
	}
	bu .LBB11_3
.Ltmp269:
.LBB11_1:
	{
		ldc r0, 0
		nop
	}
.LBB11_3:
	.loc	1 679 1
	ldd r5, r4, sp[1]
	{
		nop
		retsp 4
	}
	# RETURN_REG_HOLDER
.Ltmp270:
	.cc_bottom FLAC__stream_decoder_set_md5_checking.function
	.set	FLAC__stream_decoder_set_md5_checking.nstackwords,(assert.nstackwords + 4)
	.globl	FLAC__stream_decoder_set_md5_checking.nstackwords
	.set	FLAC__stream_decoder_set_md5_checking.maxcores,1
	.globl	FLAC__stream_decoder_set_md5_checking.maxcores
	.set	FLAC__stream_decoder_set_md5_checking.maxtimers,0
	.globl	FLAC__stream_decoder_set_md5_checking.maxtimers
	.set	FLAC__stream_decoder_set_md5_checking.maxchanends,0
	.globl	FLAC__stream_decoder_set_md5_checking.maxchanends
.Ltmp271:
	.size	FLAC__stream_decoder_set_md5_checking, .Ltmp271-FLAC__stream_decoder_set_md5_checking
.Lfunc_end11:
	.cfi_endproc

	.globl	FLAC__stream_decoder_set_metadata_respond
	.align	4
	.type	FLAC__stream_decoder_set_metadata_respond,@function
	.cc_top FLAC__stream_decoder_set_metadata_respond.function,FLAC__stream_decoder_set_metadata_respond
FLAC__stream_decoder_set_metadata_respond:
.Lfunc_begin12:
	.loc	1 682 0
	.cfi_startproc
	.issue_mode dual
	{
		nop
		dualentsp 4
	}
.Ltmp272:
	.cfi_def_cfa_offset 16
.Ltmp273:
	.cfi_offset 15, 0
	std r5, r4, sp[1]
.Ltmp274:
	.cfi_offset 4, -8
.Ltmp275:
	.cfi_offset 5, -4
.Ltmp276:
	{
		mov r4, r1
		mov r5, r0
	}
.Ltmp277:
	.loc	1 683 2 prologue_end
	{
		eq r0, r5, 0
		nop
	}
	{
		eq r0, r0, 0
		nop
	}
	.loc	1 683 2
	bl assert
	{
		nop
		ldw r0, r5[1]
	}
	.loc	1 684 2
	{
		eq r0, r0, 0
		nop
	}
	{
		eq r0, r0, 0
		nop
	}
	.loc	1 684 2
	bl assert
	{
		nop
		ldw r0, r5[0]
	}
	.loc	1 685 2
	{
		eq r0, r0, 0
		nop
	}
	{
		eq r0, r0, 0
		nop
	}
	.loc	1 685 2
	bl assert
	{
		mkmsk r0, 7
		nop
	}
	.loc	1 686 2
	{
		lsu r0, r4, r0
		nop
	}
	.loc	1 686 2
	bl assert
	ldc r0, 126
	.loc	1 688 5
.Ltmp278:
	{
		lsu r1, r0, r4
		ldc r0, 0
	}
	bt r1, .LBB12_4
.Ltmp279:
	{
		nop
		ldw r1, r5[0]
	}
	{
		nop
		ldw r1, r1[0]
	}
	.loc	1 690 5
.Ltmp280:
	{
		eq r1, r1, 9
		nop
	}
	bf r1, .LBB12_4
.Ltmp281:
	{
		nop
		ldw r1, r5[1]
	}
	.loc	1 692 2
	ldaw r0, r1[r4]
	ldc r2, 600
	{
		add r2, r0, r2
		mkmsk r0, 1
	}
	.loc	1 692 2
	{
		eq r2, r4, 2
		stw r0, r2[0]
	}
	bf r2, .LBB12_4
.Ltmp282:
	ldc r2, 1116
	.loc	1 694 3
.Ltmp283:
	{
		add r1, r1, r2
		ldc r2, 0
	}
	{
		nop
		stw r2, r1[0]
	}
.Ltmp284:
.LBB12_4:
	.loc	1 696 1
	ldd r5, r4, sp[1]
	{
		nop
		retsp 4
	}
	# RETURN_REG_HOLDER
.Ltmp285:
	.cc_bottom FLAC__stream_decoder_set_metadata_respond.function
	.set	FLAC__stream_decoder_set_metadata_respond.nstackwords,(assert.nstackwords + 4)
	.globl	FLAC__stream_decoder_set_metadata_respond.nstackwords
	.set	FLAC__stream_decoder_set_metadata_respond.maxcores,1
	.globl	FLAC__stream_decoder_set_metadata_respond.maxcores
	.set	FLAC__stream_decoder_set_metadata_respond.maxtimers,0
	.globl	FLAC__stream_decoder_set_metadata_respond.maxtimers
	.set	FLAC__stream_decoder_set_metadata_respond.maxchanends,0
	.globl	FLAC__stream_decoder_set_metadata_respond.maxchanends
.Ltmp286:
	.size	FLAC__stream_decoder_set_metadata_respond, .Ltmp286-FLAC__stream_decoder_set_metadata_respond
.Lfunc_end12:
	.cfi_endproc

	.globl	FLAC__stream_decoder_set_metadata_respond_application
	.align	4
	.type	FLAC__stream_decoder_set_metadata_respond_application,@function
	.cc_top FLAC__stream_decoder_set_metadata_respond_application.function,FLAC__stream_decoder_set_metadata_respond_application
FLAC__stream_decoder_set_metadata_respond_application:
.Lfunc_begin13:
	.loc	1 699 0
	.cfi_startproc
	.issue_mode dual
	{
		nop
		dualentsp 10
	}
.Ltmp287:
	.cfi_def_cfa_offset 40
.Ltmp288:
	.cfi_offset 15, 0
	std r5, r4, sp[1]
.Ltmp289:
	.cfi_offset 4, -32
.Ltmp290:
	.cfi_offset 5, -28
	std r7, r6, sp[2]
.Ltmp291:
	.cfi_offset 6, -24
.Ltmp292:
	.cfi_offset 7, -20
	std r9, r8, sp[3]
.Ltmp293:
	.cfi_offset 8, -16
.Ltmp294:
	.cfi_offset 9, -12
.Ltmp295:
	.cfi_offset 10, -8
.Ltmp296:
	{
		mov r5, r1
		stw r10, sp[8]
	}
.Ltmp297:
	{
		mov r4, r0
		nop
	}
.Ltmp298:
	.loc	1 700 2 prologue_end
	{
		eq r0, r4, 0
		nop
	}
	{
		eq r0, r0, 0
		nop
	}
	.loc	1 700 2
	bl assert
	{
		nop
		ldw r0, r4[1]
	}
	.loc	1 701 2
	{
		eq r0, r0, 0
		nop
	}
	{
		eq r0, r0, 0
		nop
	}
	.loc	1 701 2
	bl assert
	{
		nop
		ldw r0, r4[0]
	}
	.loc	1 702 2
	{
		eq r0, r0, 0
		nop
	}
	{
		eq r0, r0, 0
		nop
	}
	.loc	1 702 2
	bl assert
	.loc	1 703 2
	{
		eq r0, r5, 0
		nop
	}
	{
		eq r0, r0, 0
		nop
	}
	.loc	1 703 2
	bl assert
	{
		nop
		ldw r0, r4[0]
	}
	.loc	1 704 5
.Ltmp299:
	{
		ldc r6, 0
		ldw r0, r0[0]
	}
	.loc	1 704 5
	{
		eq r0, r0, 9
		nop
	}
	bf r0, .LBB13_16
.Ltmp300:
	{
		nop
		ldw r0, r4[1]
	}
	ldc r1, 608
	.loc	1 707 5
.Ltmp301:
	{
		add r1, r0, r1
		nop
	}
	.loc	1 707 5
	{
		mkmsk r9, 1
		ldw r1, r1[0]
	}
	bt r1, .LBB13_9
.Ltmp302:
	ldc r10, 1112
	.loc	1 710 2
	{
		add r0, r0, r10
		nop
	}
	{
		nop
		ldw r0, r0[0]
	}
	.loc	1 710 2
	{
		eq r0, r0, 0
		nop
	}
	{
		eq r0, r0, 0
		nop
	}
	.loc	1 710 2
	bl assert
	{
		nop
		ldw r0, r4[1]
	}
	ldc r8, 1116
	.loc	1 712 5
.Ltmp303:
	{
		add r1, r0, r8
		nop
	}
	{
		nop
		ldw r1, r1[0]
	}
	ldc r2, 1120
	.loc	1 712 5
	{
		add r2, r0, r2
		nop
	}
.Ltmp304:
	.loc	1 712 5
	{
		add r0, r0, r10
		ldw r2, r2[0]
	}
.Ltmp305:
	.loc	1 713 53
	{
		eq r0, r1, r2
		ldw r7, r0[0]
	}
.Ltmp306:
	.loc	1 712 5
	bf r0, .LBB13_3
.Ltmp307:
	.file	15 "C:/Users/takaaki/git/sw_xSSDAC/module_libFLAC/source/share\\alloc.h"
	.loc	15 275 5
	bf r1, .LBB13_5
.Ltmp308:
	.loc	15 277 5
	ashr r0, r1, 32
	bt r0, .LBB13_14
.Ltmp309:
	.loc	15 281 9
	{
		shl r8, r1, 1
		mov r0, r7
	}
.Ltmp310:
	.loc	15 206 17
	{
		mov r1, r8
		nop
	}
	bl realloc
.Ltmp311:
	.loc	15 207 5
	bf r8, .LBB13_12
.Ltmp312:
	ldc r8, 1116
	bt r0, .LBB13_6
.Ltmp313:
.LBB13_14:
	.loc	15 208 3
	{
		mov r0, r7
		nop
	}
	bl free
	{
		nop
		ldw r0, r4[1]
	}
.Ltmp314:
	.loc	1 713 53
	{
		add r0, r0, r10
		ldc r1, 0
	}
	{
		nop
		stw r1, r0[0]
	}
	bu .LBB13_15
.Ltmp315:
.LBB13_3:
	{
		mov r0, r7
		nop
	}
	bu .LBB13_8
.Ltmp316:
.LBB13_5:
	{
		ldc r1, 0
		mov r0, r7
	}
	.loc	15 276 10
.Ltmp317:
	bl realloc
	bu .LBB13_6
.Ltmp318:
.LBB13_12:
	ldc r8, 1116
.Ltmp319:
.LBB13_6:
	{
		nop
		ldw r1, r4[1]
	}
	.loc	1 713 53
	{
		add r2, r1, r10
		nop
	}
	{
		nop
		stw r0, r2[0]
	}
	bf r0, .LBB13_15
.Ltmp320:
	ldc r2, 1120
	.loc	1 717 3
	{
		add r2, r1, r2
		nop
	}
	{
		nop
		ldw r3, r2[0]
	}
	.loc	1 717 3
	{
		shl r3, r3, 1
		nop
	}
	.loc	1 717 3
	{
		add r1, r1, r8
		stw r3, r2[0]
	}
	{
		nop
		ldw r1, r1[0]
	}
.Ltmp321:
.LBB13_8:
	.loc	1 720 2
	ldw r2, cp[FLAC__STREAM_METADATA_APPLICATION_ID_LEN]
	.loc	1 720 2
	{
		shr r2, r2, 3
		nop
	}
	.loc	1 720 2
	mul r1, r2, r1
	.loc	1 720 2
	{
		add r0, r0, r1
		mov r1, r5
	}
	.loc	1 720 2
	bl memcpy
	{
		nop
		ldw r0, r4[1]
	}
	.loc	1 721 2
	{
		add r0, r0, r8
		nop
	}
	{
		nop
		ldw r1, r0[0]
	}
	.loc	1 721 2
	{
		add r1, r1, 1
		nop
	}
	{
		nop
		stw r1, r0[0]
	}
.Ltmp322:
.LBB13_9:
	{
		mov r6, r9
		nop
	}
.LBB13_16:
	.loc	1 724 1
	{
		mov r0, r6
		ldw r10, sp[8]
	}
	ldd r9, r8, sp[3]
	ldd r7, r6, sp[2]
	ldd r5, r4, sp[1]
	{
		nop
		retsp 10
	}
	# RETURN_REG_HOLDER
.LBB13_15:
.Ltmp323:
	.loc	1 714 4
	{
		ldc r1, 8
		ldw r0, r4[0]
	}
	{
		nop
		stw r1, r0[0]
	}
	bu .LBB13_16
.Ltmp324:
	.cc_bottom FLAC__stream_decoder_set_metadata_respond_application.function
	.set	FLAC__stream_decoder_set_metadata_respond_application.nstackwords,((assert.nstackwords $M memcpy.nstackwords $M free.nstackwords $M realloc.nstackwords) + 10)
	.globl	FLAC__stream_decoder_set_metadata_respond_application.nstackwords
	.set	FLAC__stream_decoder_set_metadata_respond_application.maxcores,free.maxcores $M realloc.maxcores $M 1
	.globl	FLAC__stream_decoder_set_metadata_respond_application.maxcores
	.set	FLAC__stream_decoder_set_metadata_respond_application.maxtimers,free.maxtimers $M realloc.maxtimers $M 0
	.globl	FLAC__stream_decoder_set_metadata_respond_application.maxtimers
	.set	FLAC__stream_decoder_set_metadata_respond_application.maxchanends,free.maxchanends $M realloc.maxchanends $M 0
	.globl	FLAC__stream_decoder_set_metadata_respond_application.maxchanends
.Ltmp325:
	.size	FLAC__stream_decoder_set_metadata_respond_application, .Ltmp325-FLAC__stream_decoder_set_metadata_respond_application
.Lfunc_end13:
	.cfi_endproc

	.globl	FLAC__stream_decoder_set_metadata_respond_all
	.align	4
	.type	FLAC__stream_decoder_set_metadata_respond_all,@function
	.cc_top FLAC__stream_decoder_set_metadata_respond_all.function,FLAC__stream_decoder_set_metadata_respond_all
FLAC__stream_decoder_set_metadata_respond_all:
.Lfunc_begin14:
	.loc	1 727 0
	.cfi_startproc
	.issue_mode dual
	{
		nop
		dualentsp 4
	}
.Ltmp326:
	.cfi_def_cfa_offset 16
.Ltmp327:
	.cfi_offset 15, 0
.Ltmp328:
	.cfi_offset 4, -8
.Ltmp329:
	{
		mov r4, r0
		stw r4, sp[2]
	}
.Ltmp330:
	.loc	1 729 2 prologue_end
	{
		eq r0, r4, 0
		nop
	}
	{
		eq r0, r0, 0
		nop
	}
	.loc	1 729 2
	bl assert
	{
		nop
		ldw r0, r4[1]
	}
	.loc	1 730 2
	{
		eq r0, r0, 0
		nop
	}
	{
		eq r0, r0, 0
		nop
	}
	.loc	1 730 2
	bl assert
	{
		nop
		ldw r0, r4[0]
	}
	.loc	1 731 2
	{
		eq r0, r0, 0
		nop
	}
	{
		eq r0, r0, 0
		nop
	}
	.loc	1 731 2
	bl assert
	{
		nop
		ldw r0, r4[0]
	}
	{
		nop
		ldw r0, r0[0]
	}
	.loc	1 732 5
.Ltmp331:
	{
		eq r0, r0, 9
		nop
	}
	bf r0, .LBB14_1
.Ltmp332:
	{
		nop
		ldw r1, r4[1]
	}
	ldc r0, 600
	{
		add r2, r1, r0
		nop
	}
	ldc r3, 128
	{
		mkmsk r0, 1
		nop
	}
.Ltmp333:
.LBB14_3:
	.loc	1 735 3
	{
		sub r3, r3, 1
		stw r0, r2[0]
	}
	.loc	1 734 2
	{
		add r2, r2, 4
		nop
	}
.xtaloop 128
	# LOOPMARKER 0
	.loc	1 734 2
	bt r3, .LBB14_3
.Ltmp334:
	ldc r2, 1116
	.loc	1 736 2
	{
		add r1, r1, r2
		ldc r2, 0
	}
	{
		nop
		stw r2, r1[0]
	}
	bu .LBB14_5
.LBB14_1:
	{
		ldc r0, 0
		nop
	}
.LBB14_5:
	{
		nop
		ldw r4, sp[2]
	}
	{
		nop
		retsp 4
	}
	.loc	1 738 1
	# RETURN_REG_HOLDER
.Ltmp335:
	.cc_bottom FLAC__stream_decoder_set_metadata_respond_all.function
	.set	FLAC__stream_decoder_set_metadata_respond_all.nstackwords,(assert.nstackwords + 4)
	.globl	FLAC__stream_decoder_set_metadata_respond_all.nstackwords
	.set	FLAC__stream_decoder_set_metadata_respond_all.maxcores,1
	.globl	FLAC__stream_decoder_set_metadata_respond_all.maxcores
	.set	FLAC__stream_decoder_set_metadata_respond_all.maxtimers,0
	.globl	FLAC__stream_decoder_set_metadata_respond_all.maxtimers
	.set	FLAC__stream_decoder_set_metadata_respond_all.maxchanends,0
	.globl	FLAC__stream_decoder_set_metadata_respond_all.maxchanends
.Ltmp336:
	.size	FLAC__stream_decoder_set_metadata_respond_all, .Ltmp336-FLAC__stream_decoder_set_metadata_respond_all
.Lfunc_end14:
	.cfi_endproc

	.globl	FLAC__stream_decoder_set_metadata_ignore
	.align	4
	.type	FLAC__stream_decoder_set_metadata_ignore,@function
	.cc_top FLAC__stream_decoder_set_metadata_ignore.function,FLAC__stream_decoder_set_metadata_ignore
FLAC__stream_decoder_set_metadata_ignore:
.Lfunc_begin15:
	.loc	1 741 0
	.cfi_startproc
	.issue_mode dual
	{
		nop
		dualentsp 4
	}
.Ltmp337:
	.cfi_def_cfa_offset 16
.Ltmp338:
	.cfi_offset 15, 0
	std r5, r4, sp[1]
.Ltmp339:
	.cfi_offset 4, -8
.Ltmp340:
	.cfi_offset 5, -4
.Ltmp341:
	{
		mov r4, r1
		mov r5, r0
	}
.Ltmp342:
	.loc	1 742 2 prologue_end
	{
		eq r0, r5, 0
		nop
	}
	{
		eq r0, r0, 0
		nop
	}
	.loc	1 742 2
	bl assert
	{
		nop
		ldw r0, r5[1]
	}
	.loc	1 743 2
	{
		eq r0, r0, 0
		nop
	}
	{
		eq r0, r0, 0
		nop
	}
	.loc	1 743 2
	bl assert
	{
		nop
		ldw r0, r5[0]
	}
	.loc	1 744 2
	{
		eq r0, r0, 0
		nop
	}
	{
		eq r0, r0, 0
		nop
	}
	.loc	1 744 2
	bl assert
	{
		mkmsk r0, 7
		nop
	}
	.loc	1 745 2
	{
		lsu r0, r4, r0
		nop
	}
	.loc	1 745 2
	bl assert
	ldc r0, 126
	.loc	1 747 5
.Ltmp343:
	{
		lsu r1, r0, r4
		ldc r0, 0
	}
	bt r1, .LBB15_4
.Ltmp344:
	{
		nop
		ldw r1, r5[0]
	}
	{
		nop
		ldw r1, r1[0]
	}
	.loc	1 749 5
.Ltmp345:
	{
		eq r1, r1, 9
		nop
	}
	bf r1, .LBB15_4
.Ltmp346:
	{
		nop
		ldw r1, r5[1]
	}
	.loc	1 751 2
	ldaw r0, r1[r4]
	ldc r2, 600
	{
		add r0, r0, r2
		ldc r2, 0
	}
	.loc	1 751 2
	{
		mkmsk r0, 1
		stw r2, r0[0]
	}
	.loc	1 752 5
.Ltmp347:
	{
		eq r3, r4, 2
		nop
	}
	bf r3, .LBB15_4
.Ltmp348:
	ldc r3, 1116
	.loc	1 753 3
	{
		add r1, r1, r3
		nop
	}
	{
		nop
		stw r2, r1[0]
	}
.Ltmp349:
.LBB15_4:
	.loc	1 755 1
	ldd r5, r4, sp[1]
	{
		nop
		retsp 4
	}
	# RETURN_REG_HOLDER
.Ltmp350:
	.cc_bottom FLAC__stream_decoder_set_metadata_ignore.function
	.set	FLAC__stream_decoder_set_metadata_ignore.nstackwords,(assert.nstackwords + 4)
	.globl	FLAC__stream_decoder_set_metadata_ignore.nstackwords
	.set	FLAC__stream_decoder_set_metadata_ignore.maxcores,1
	.globl	FLAC__stream_decoder_set_metadata_ignore.maxcores
	.set	FLAC__stream_decoder_set_metadata_ignore.maxtimers,0
	.globl	FLAC__stream_decoder_set_metadata_ignore.maxtimers
	.set	FLAC__stream_decoder_set_metadata_ignore.maxchanends,0
	.globl	FLAC__stream_decoder_set_metadata_ignore.maxchanends
.Ltmp351:
	.size	FLAC__stream_decoder_set_metadata_ignore, .Ltmp351-FLAC__stream_decoder_set_metadata_ignore
.Lfunc_end15:
	.cfi_endproc

	.globl	FLAC__stream_decoder_set_metadata_ignore_application
	.align	4
	.type	FLAC__stream_decoder_set_metadata_ignore_application,@function
	.cc_top FLAC__stream_decoder_set_metadata_ignore_application.function,FLAC__stream_decoder_set_metadata_ignore_application
FLAC__stream_decoder_set_metadata_ignore_application:
.Lfunc_begin16:
	.loc	1 758 0
	.cfi_startproc
	.issue_mode dual
	{
		nop
		dualentsp 10
	}
.Ltmp352:
	.cfi_def_cfa_offset 40
.Ltmp353:
	.cfi_offset 15, 0
	std r5, r4, sp[1]
.Ltmp354:
	.cfi_offset 4, -32
.Ltmp355:
	.cfi_offset 5, -28
	std r7, r6, sp[2]
.Ltmp356:
	.cfi_offset 6, -24
.Ltmp357:
	.cfi_offset 7, -20
	std r9, r8, sp[3]
.Ltmp358:
	.cfi_offset 8, -16
.Ltmp359:
	.cfi_offset 9, -12
.Ltmp360:
	.cfi_offset 10, -8
.Ltmp361:
	{
		mov r5, r1
		stw r10, sp[8]
	}
.Ltmp362:
	{
		mov r4, r0
		nop
	}
.Ltmp363:
	.loc	1 759 2 prologue_end
	{
		eq r0, r4, 0
		nop
	}
	{
		eq r0, r0, 0
		nop
	}
	.loc	1 759 2
	bl assert
	{
		nop
		ldw r0, r4[1]
	}
	.loc	1 760 2
	{
		eq r0, r0, 0
		nop
	}
	{
		eq r0, r0, 0
		nop
	}
	.loc	1 760 2
	bl assert
	{
		nop
		ldw r0, r4[0]
	}
	.loc	1 761 2
	{
		eq r0, r0, 0
		nop
	}
	{
		eq r0, r0, 0
		nop
	}
	.loc	1 761 2
	bl assert
	.loc	1 762 2
	{
		eq r0, r5, 0
		nop
	}
	{
		eq r0, r0, 0
		nop
	}
	.loc	1 762 2
	bl assert
	{
		nop
		ldw r0, r4[0]
	}
	.loc	1 763 5
.Ltmp364:
	{
		ldc r6, 0
		ldw r0, r0[0]
	}
	.loc	1 763 5
	{
		eq r0, r0, 9
		nop
	}
	bf r0, .LBB16_16
.Ltmp365:
	{
		nop
		ldw r0, r4[1]
	}
	ldc r1, 608
	.loc	1 766 5
.Ltmp366:
	{
		add r1, r0, r1
		nop
	}
	.loc	1 766 5
	{
		mkmsk r8, 1
		ldw r1, r1[0]
	}
	bf r1, .LBB16_9
.Ltmp367:
	ldc r9, 1112
	.loc	1 769 2
	{
		add r0, r0, r9
		nop
	}
	{
		nop
		ldw r0, r0[0]
	}
	.loc	1 769 2
	{
		eq r0, r0, 0
		nop
	}
	{
		eq r0, r0, 0
		nop
	}
	.loc	1 769 2
	bl assert
	{
		nop
		ldw r0, r4[1]
	}
	ldc r10, 1116
	.loc	1 771 5
.Ltmp368:
	{
		add r1, r0, r10
		nop
	}
	{
		nop
		ldw r1, r1[0]
	}
	ldc r3, 1120
	.loc	1 771 5
	{
		add r2, r0, r3
		nop
	}
.Ltmp369:
	.loc	1 771 5
	{
		add r0, r0, r9
		ldw r2, r2[0]
	}
.Ltmp370:
	.loc	1 772 53
	{
		eq r0, r1, r2
		ldw r7, r0[0]
	}
.Ltmp371:
	.loc	1 771 5
	bf r0, .LBB16_3
.Ltmp372:
	.loc	15 275 5
	bf r1, .LBB16_5
.Ltmp373:
	.loc	15 277 5
	ashr r0, r1, 32
	bt r0, .LBB16_14
.Ltmp374:
	.loc	15 281 9
	{
		shl r8, r1, 1
		mov r0, r7
	}
.Ltmp375:
	.loc	15 206 17
	{
		mov r1, r8
		nop
	}
	bl realloc
.Ltmp376:
	.loc	15 207 5
	bf r8, .LBB16_12
.Ltmp377:
	{
		mkmsk r8, 1
		nop
	}
	ldc r3, 1120
	bt r0, .LBB16_6
.Ltmp378:
.LBB16_14:
	.loc	15 208 3
	{
		mov r0, r7
		nop
	}
	bl free
	{
		nop
		ldw r0, r4[1]
	}
.Ltmp379:
	.loc	1 772 53
	{
		add r0, r0, r9
		ldc r1, 0
	}
	{
		nop
		stw r1, r0[0]
	}
	bu .LBB16_15
.Ltmp380:
.LBB16_3:
	{
		mov r0, r7
		nop
	}
	bu .LBB16_8
.Ltmp381:
.LBB16_5:
	{
		ldc r1, 0
		mov r0, r7
	}
	{
		mov r7, r3
		nop
	}
.Ltmp382:
	.loc	15 276 10
	bl realloc
	{
		mov r3, r7
		nop
	}
	bu .LBB16_6
.Ltmp383:
.LBB16_12:
	{
		mkmsk r8, 1
		nop
	}
	ldc r3, 1120
.Ltmp384:
.LBB16_6:
	{
		nop
		ldw r1, r4[1]
	}
	.loc	1 772 53
	{
		add r2, r1, r9
		nop
	}
	{
		nop
		stw r0, r2[0]
	}
	bf r0, .LBB16_15
.Ltmp385:
	.loc	1 776 3
	{
		add r2, r1, r3
		nop
	}
	{
		nop
		ldw r3, r2[0]
	}
	.loc	1 776 3
	{
		shl r3, r3, 1
		nop
	}
	.loc	1 776 3
	{
		add r1, r1, r10
		stw r3, r2[0]
	}
	{
		nop
		ldw r1, r1[0]
	}
.Ltmp386:
.LBB16_8:
	.loc	1 779 2
	ldw r2, cp[FLAC__STREAM_METADATA_APPLICATION_ID_LEN]
	.loc	1 779 2
	{
		shr r2, r2, 3
		nop
	}
	.loc	1 779 2
	mul r1, r2, r1
	.loc	1 779 2
	{
		add r0, r0, r1
		mov r1, r5
	}
	.loc	1 779 2
	bl memcpy
	{
		nop
		ldw r0, r4[1]
	}
	.loc	1 780 2
	{
		add r0, r0, r10
		nop
	}
	{
		nop
		ldw r1, r0[0]
	}
	.loc	1 780 2
	{
		add r1, r1, 1
		nop
	}
	{
		nop
		stw r1, r0[0]
	}
.Ltmp387:
.LBB16_9:
	{
		mov r6, r8
		nop
	}
	bu .LBB16_16
.LBB16_15:
.Ltmp388:
	.loc	1 773 4
	{
		ldc r1, 8
		ldw r0, r4[0]
	}
	{
		nop
		stw r1, r0[0]
	}
.Ltmp389:
.LBB16_16:
	.loc	1 783 1
	{
		mov r0, r6
		ldw r10, sp[8]
	}
	ldd r9, r8, sp[3]
	ldd r7, r6, sp[2]
	ldd r5, r4, sp[1]
	{
		nop
		retsp 10
	}
	# RETURN_REG_HOLDER
.Ltmp390:
	.cc_bottom FLAC__stream_decoder_set_metadata_ignore_application.function
	.set	FLAC__stream_decoder_set_metadata_ignore_application.nstackwords,((assert.nstackwords $M memcpy.nstackwords $M free.nstackwords $M realloc.nstackwords) + 10)
	.globl	FLAC__stream_decoder_set_metadata_ignore_application.nstackwords
	.set	FLAC__stream_decoder_set_metadata_ignore_application.maxcores,free.maxcores $M realloc.maxcores $M 1
	.globl	FLAC__stream_decoder_set_metadata_ignore_application.maxcores
	.set	FLAC__stream_decoder_set_metadata_ignore_application.maxtimers,free.maxtimers $M realloc.maxtimers $M 0
	.globl	FLAC__stream_decoder_set_metadata_ignore_application.maxtimers
	.set	FLAC__stream_decoder_set_metadata_ignore_application.maxchanends,free.maxchanends $M realloc.maxchanends $M 0
	.globl	FLAC__stream_decoder_set_metadata_ignore_application.maxchanends
.Ltmp391:
	.size	FLAC__stream_decoder_set_metadata_ignore_application, .Ltmp391-FLAC__stream_decoder_set_metadata_ignore_application
.Lfunc_end16:
	.cfi_endproc

	.globl	FLAC__stream_decoder_set_metadata_ignore_all
	.align	4
	.type	FLAC__stream_decoder_set_metadata_ignore_all,@function
	.cc_top FLAC__stream_decoder_set_metadata_ignore_all.function,FLAC__stream_decoder_set_metadata_ignore_all
FLAC__stream_decoder_set_metadata_ignore_all:
.Lfunc_begin17:
	.loc	1 786 0
	.cfi_startproc
	.issue_mode dual
	{
		nop
		dualentsp 4
	}
.Ltmp392:
	.cfi_def_cfa_offset 16
.Ltmp393:
	.cfi_offset 15, 0
	std r5, r4, sp[1]
.Ltmp394:
	.cfi_offset 4, -8
.Ltmp395:
	.cfi_offset 5, -4
	{
		mov r4, r0
		nop
	}
.Ltmp396:
	.loc	1 787 2 prologue_end
	{
		eq r0, r4, 0
		nop
	}
	{
		eq r0, r0, 0
		nop
	}
	.loc	1 787 2
	bl assert
	{
		nop
		ldw r0, r4[1]
	}
	.loc	1 788 2
	{
		eq r0, r0, 0
		nop
	}
	{
		eq r0, r0, 0
		nop
	}
	.loc	1 788 2
	bl assert
	{
		nop
		ldw r0, r4[0]
	}
	.loc	1 789 2
	{
		eq r0, r0, 0
		nop
	}
	{
		eq r0, r0, 0
		nop
	}
	.loc	1 789 2
	bl assert
	{
		nop
		ldw r0, r4[0]
	}
	{
		nop
		ldw r0, r0[0]
	}
	.loc	1 790 5
.Ltmp397:
	{
		eq r0, r0, 9
		nop
	}
	bf r0, .LBB17_1
.Ltmp398:
	{
		nop
		ldw r0, r4[1]
	}
	ldc r1, 600
	.loc	1 792 2
	{
		add r0, r0, r1
		ldc r5, 0
	}
	ldc r2, 512
	.loc	1 792 2
	{
		mov r1, r5
		nop
	}
	bl memset
	{
		nop
		ldw r0, r4[1]
	}
	ldc r1, 1116
	.loc	1 793 2
	{
		add r0, r0, r1
		nop
	}
	.loc	1 793 2
	{
		mkmsk r0, 1
		stw r5, r0[0]
	}
	bu .LBB17_3
.Ltmp399:
.LBB17_1:
	{
		ldc r0, 0
		nop
	}
.LBB17_3:
	.loc	1 795 1
	ldd r5, r4, sp[1]
	{
		nop
		retsp 4
	}
	# RETURN_REG_HOLDER
.Ltmp400:
	.cc_bottom FLAC__stream_decoder_set_metadata_ignore_all.function
	.set	FLAC__stream_decoder_set_metadata_ignore_all.nstackwords,((assert.nstackwords $M memset.nstackwords) + 4)
	.globl	FLAC__stream_decoder_set_metadata_ignore_all.nstackwords
	.set	FLAC__stream_decoder_set_metadata_ignore_all.maxcores,1
	.globl	FLAC__stream_decoder_set_metadata_ignore_all.maxcores
	.set	FLAC__stream_decoder_set_metadata_ignore_all.maxtimers,0
	.globl	FLAC__stream_decoder_set_metadata_ignore_all.maxtimers
	.set	FLAC__stream_decoder_set_metadata_ignore_all.maxchanends,0
	.globl	FLAC__stream_decoder_set_metadata_ignore_all.maxchanends
.Ltmp401:
	.size	FLAC__stream_decoder_set_metadata_ignore_all, .Ltmp401-FLAC__stream_decoder_set_metadata_ignore_all
.Lfunc_end17:
	.cfi_endproc

	.globl	FLAC__stream_decoder_get_state
	.align	4
	.type	FLAC__stream_decoder_get_state,@function
	.cc_top FLAC__stream_decoder_get_state.function,FLAC__stream_decoder_get_state
FLAC__stream_decoder_get_state:
.Lfunc_begin18:
	.loc	1 798 0
	.cfi_startproc
	.issue_mode dual
	{
		nop
		dualentsp 4
	}
.Ltmp402:
	.cfi_def_cfa_offset 16
.Ltmp403:
	.cfi_offset 15, 0
.Ltmp404:
	.cfi_offset 4, -8
.Ltmp405:
	{
		mov r4, r0
		stw r4, sp[2]
	}
.Ltmp406:
	.loc	1 799 2 prologue_end
	{
		eq r0, r4, 0
		nop
	}
	{
		eq r0, r0, 0
		nop
	}
	.loc	1 799 2
	bl assert
	{
		nop
		ldw r0, r4[0]
	}
	.loc	1 800 2
	{
		eq r0, r0, 0
		nop
	}
	{
		eq r0, r0, 0
		nop
	}
	.loc	1 800 2
	bl assert
	{
		nop
		ldw r0, r4[0]
	}
	{
		nop
		ldw r0, r0[0]
	}
	{
		nop
		ldw r4, sp[2]
	}
	{
		nop
		retsp 4
	}
	.loc	1 801 2
	# RETURN_REG_HOLDER
.Ltmp407:
	.cc_bottom FLAC__stream_decoder_get_state.function
	.set	FLAC__stream_decoder_get_state.nstackwords,(assert.nstackwords + 4)
	.globl	FLAC__stream_decoder_get_state.nstackwords
	.set	FLAC__stream_decoder_get_state.maxcores,1
	.globl	FLAC__stream_decoder_get_state.maxcores
	.set	FLAC__stream_decoder_get_state.maxtimers,0
	.globl	FLAC__stream_decoder_get_state.maxtimers
	.set	FLAC__stream_decoder_get_state.maxchanends,0
	.globl	FLAC__stream_decoder_get_state.maxchanends
.Ltmp408:
	.size	FLAC__stream_decoder_get_state, .Ltmp408-FLAC__stream_decoder_get_state
.Lfunc_end18:
	.cfi_endproc

	.globl	FLAC__stream_decoder_get_resolved_state_string
	.align	4
	.type	FLAC__stream_decoder_get_resolved_state_string,@function
	.cc_top FLAC__stream_decoder_get_resolved_state_string.function,FLAC__stream_decoder_get_resolved_state_string
FLAC__stream_decoder_get_resolved_state_string:
.Lfunc_begin19:
	.loc	1 805 0
	.cfi_startproc
	.issue_mode dual
	{
		nop
		dualentsp 0
	}
	{
		nop
		ldw r0, r0[0]
	}
.Ltmp409:
	{
		nop
		ldw r0, r0[0]
	}
	.loc	1 806 2 prologue_end
.Ltmp410:
	ldaw r11, cp[FLAC__StreamDecoderStateString]
	{
		nop
		ldw r0, r11[r0]
	}
	{
		nop
		retsp 0
	}
	.loc	1 806 2
	# RETURN_REG_HOLDER
.Ltmp411:
	.cc_bottom FLAC__stream_decoder_get_resolved_state_string.function
	.set	FLAC__stream_decoder_get_resolved_state_string.nstackwords,0
	.globl	FLAC__stream_decoder_get_resolved_state_string.nstackwords
	.set	FLAC__stream_decoder_get_resolved_state_string.maxcores,1
	.globl	FLAC__stream_decoder_get_resolved_state_string.maxcores
	.set	FLAC__stream_decoder_get_resolved_state_string.maxtimers,0
	.globl	FLAC__stream_decoder_get_resolved_state_string.maxtimers
	.set	FLAC__stream_decoder_get_resolved_state_string.maxchanends,0
	.globl	FLAC__stream_decoder_get_resolved_state_string.maxchanends
.Ltmp412:
	.size	FLAC__stream_decoder_get_resolved_state_string, .Ltmp412-FLAC__stream_decoder_get_resolved_state_string
.Lfunc_end19:
	.cfi_endproc

	.globl	FLAC__stream_decoder_get_md5_checking
	.align	4
	.type	FLAC__stream_decoder_get_md5_checking,@function
	.cc_top FLAC__stream_decoder_get_md5_checking.function,FLAC__stream_decoder_get_md5_checking
FLAC__stream_decoder_get_md5_checking:
.Lfunc_begin20:
	.loc	1 810 0
	.cfi_startproc
	.issue_mode dual
	{
		nop
		dualentsp 4
	}
.Ltmp413:
	.cfi_def_cfa_offset 16
.Ltmp414:
	.cfi_offset 15, 0
.Ltmp415:
	.cfi_offset 4, -8
.Ltmp416:
	{
		mov r4, r0
		stw r4, sp[2]
	}
.Ltmp417:
	.loc	1 811 2 prologue_end
	{
		eq r0, r4, 0
		nop
	}
	{
		eq r0, r0, 0
		nop
	}
	.loc	1 811 2
	bl assert
	{
		nop
		ldw r0, r4[0]
	}
	.loc	1 812 2
	{
		eq r0, r0, 0
		nop
	}
	{
		eq r0, r0, 0
		nop
	}
	.loc	1 812 2
	bl assert
	{
		nop
		ldw r0, r4[0]
	}
	{
		nop
		ldw r0, r0[7]
	}
	{
		nop
		ldw r4, sp[2]
	}
	{
		nop
		retsp 4
	}
	.loc	1 813 2
	# RETURN_REG_HOLDER
.Ltmp418:
	.cc_bottom FLAC__stream_decoder_get_md5_checking.function
	.set	FLAC__stream_decoder_get_md5_checking.nstackwords,(assert.nstackwords + 4)
	.globl	FLAC__stream_decoder_get_md5_checking.nstackwords
	.set	FLAC__stream_decoder_get_md5_checking.maxcores,1
	.globl	FLAC__stream_decoder_get_md5_checking.maxcores
	.set	FLAC__stream_decoder_get_md5_checking.maxtimers,0
	.globl	FLAC__stream_decoder_get_md5_checking.maxtimers
	.set	FLAC__stream_decoder_get_md5_checking.maxchanends,0
	.globl	FLAC__stream_decoder_get_md5_checking.maxchanends
.Ltmp419:
	.size	FLAC__stream_decoder_get_md5_checking, .Ltmp419-FLAC__stream_decoder_get_md5_checking
.Lfunc_end20:
	.cfi_endproc

	.globl	FLAC__stream_decoder_get_total_samples
	.align	4
	.type	FLAC__stream_decoder_get_total_samples,@function
	.cc_top FLAC__stream_decoder_get_total_samples.function,FLAC__stream_decoder_get_total_samples
FLAC__stream_decoder_get_total_samples:
.Lfunc_begin21:
	.loc	1 817 0
	.cfi_startproc
	.issue_mode dual
	{
		nop
		dualentsp 4
	}
.Ltmp420:
	.cfi_def_cfa_offset 16
.Ltmp421:
	.cfi_offset 15, 0
.Ltmp422:
	.cfi_offset 4, -8
.Ltmp423:
	{
		mov r4, r0
		stw r4, sp[2]
	}
.Ltmp424:
	.loc	1 818 2 prologue_end
	{
		eq r0, r4, 0
		nop
	}
	{
		eq r0, r0, 0
		nop
	}
	.loc	1 818 2
	bl assert
	{
		nop
		ldw r0, r4[0]
	}
	.loc	1 819 2
	{
		eq r0, r0, 0
		nop
	}
	{
		eq r0, r0, 0
		nop
	}
	.loc	1 819 2
	bl assert
	{
		nop
		ldw r2, r4[1]
	}
	ldc r0, 240
	.loc	1 820 2
	{
		add r0, r2, r0
		nop
	}
	.loc	1 820 2
	{
		ldc r0, 0
		ldw r3, r0[0]
	}
	.loc	1 820 2
	{
		mov r1, r0
		nop
	}
	bf r3, .LBB21_2
	ldc r0, 296
	.loc	1 820 2
	{
		add r0, r2, r0
		nop
	}
	.loc	1 820 2
	ldd r1, r0, r0[0]
.LBB21_2:
	{
		nop
		ldw r4, sp[2]
	}
	{
		nop
		retsp 4
	}
	.loc	1 820 2
	# RETURN_REG_HOLDER
.Ltmp425:
	.cc_bottom FLAC__stream_decoder_get_total_samples.function
	.set	FLAC__stream_decoder_get_total_samples.nstackwords,(assert.nstackwords + 4)
	.globl	FLAC__stream_decoder_get_total_samples.nstackwords
	.set	FLAC__stream_decoder_get_total_samples.maxcores,1
	.globl	FLAC__stream_decoder_get_total_samples.maxcores
	.set	FLAC__stream_decoder_get_total_samples.maxtimers,0
	.globl	FLAC__stream_decoder_get_total_samples.maxtimers
	.set	FLAC__stream_decoder_get_total_samples.maxchanends,0
	.globl	FLAC__stream_decoder_get_total_samples.maxchanends
.Ltmp426:
	.size	FLAC__stream_decoder_get_total_samples, .Ltmp426-FLAC__stream_decoder_get_total_samples
.Lfunc_end21:
	.cfi_endproc

	.globl	FLAC__stream_decoder_get_channels
	.align	4
	.type	FLAC__stream_decoder_get_channels,@function
	.cc_top FLAC__stream_decoder_get_channels.function,FLAC__stream_decoder_get_channels
FLAC__stream_decoder_get_channels:
.Lfunc_begin22:
	.loc	1 824 0
	.cfi_startproc
	.issue_mode dual
	{
		nop
		dualentsp 4
	}
.Ltmp427:
	.cfi_def_cfa_offset 16
.Ltmp428:
	.cfi_offset 15, 0
.Ltmp429:
	.cfi_offset 4, -8
.Ltmp430:
	{
		mov r4, r0
		stw r4, sp[2]
	}
.Ltmp431:
	.loc	1 825 2 prologue_end
	{
		eq r0, r4, 0
		nop
	}
	{
		eq r0, r0, 0
		nop
	}
	.loc	1 825 2
	bl assert
	{
		nop
		ldw r0, r4[0]
	}
	.loc	1 826 2
	{
		eq r0, r0, 0
		nop
	}
	{
		eq r0, r0, 0
		nop
	}
	.loc	1 826 2
	bl assert
	{
		nop
		ldw r0, r4[0]
	}
	{
		nop
		ldw r0, r0[2]
	}
	{
		nop
		ldw r4, sp[2]
	}
	{
		nop
		retsp 4
	}
	.loc	1 827 2
	# RETURN_REG_HOLDER
.Ltmp432:
	.cc_bottom FLAC__stream_decoder_get_channels.function
	.set	FLAC__stream_decoder_get_channels.nstackwords,(assert.nstackwords + 4)
	.globl	FLAC__stream_decoder_get_channels.nstackwords
	.set	FLAC__stream_decoder_get_channels.maxcores,1
	.globl	FLAC__stream_decoder_get_channels.maxcores
	.set	FLAC__stream_decoder_get_channels.maxtimers,0
	.globl	FLAC__stream_decoder_get_channels.maxtimers
	.set	FLAC__stream_decoder_get_channels.maxchanends,0
	.globl	FLAC__stream_decoder_get_channels.maxchanends
.Ltmp433:
	.size	FLAC__stream_decoder_get_channels, .Ltmp433-FLAC__stream_decoder_get_channels
.Lfunc_end22:
	.cfi_endproc

	.globl	FLAC__stream_decoder_get_channel_assignment
	.align	4
	.type	FLAC__stream_decoder_get_channel_assignment,@function
	.cc_top FLAC__stream_decoder_get_channel_assignment.function,FLAC__stream_decoder_get_channel_assignment
FLAC__stream_decoder_get_channel_assignment:
.Lfunc_begin23:
	.loc	1 831 0
	.cfi_startproc
	.issue_mode dual
	{
		nop
		dualentsp 4
	}
.Ltmp434:
	.cfi_def_cfa_offset 16
.Ltmp435:
	.cfi_offset 15, 0
.Ltmp436:
	.cfi_offset 4, -8
.Ltmp437:
	{
		mov r4, r0
		stw r4, sp[2]
	}
.Ltmp438:
	.loc	1 832 2 prologue_end
	{
		eq r0, r4, 0
		nop
	}
	{
		eq r0, r0, 0
		nop
	}
	.loc	1 832 2
	bl assert
	{
		nop
		ldw r0, r4[0]
	}
	.loc	1 833 2
	{
		eq r0, r0, 0
		nop
	}
	{
		eq r0, r0, 0
		nop
	}
	.loc	1 833 2
	bl assert
	{
		nop
		ldw r0, r4[0]
	}
	{
		nop
		ldw r0, r0[3]
	}
	{
		nop
		ldw r4, sp[2]
	}
	{
		nop
		retsp 4
	}
	.loc	1 834 2
	# RETURN_REG_HOLDER
.Ltmp439:
	.cc_bottom FLAC__stream_decoder_get_channel_assignment.function
	.set	FLAC__stream_decoder_get_channel_assignment.nstackwords,(assert.nstackwords + 4)
	.globl	FLAC__stream_decoder_get_channel_assignment.nstackwords
	.set	FLAC__stream_decoder_get_channel_assignment.maxcores,1
	.globl	FLAC__stream_decoder_get_channel_assignment.maxcores
	.set	FLAC__stream_decoder_get_channel_assignment.maxtimers,0
	.globl	FLAC__stream_decoder_get_channel_assignment.maxtimers
	.set	FLAC__stream_decoder_get_channel_assignment.maxchanends,0
	.globl	FLAC__stream_decoder_get_channel_assignment.maxchanends
.Ltmp440:
	.size	FLAC__stream_decoder_get_channel_assignment, .Ltmp440-FLAC__stream_decoder_get_channel_assignment
.Lfunc_end23:
	.cfi_endproc

	.globl	FLAC__stream_decoder_get_bits_per_sample
	.align	4
	.type	FLAC__stream_decoder_get_bits_per_sample,@function
	.cc_top FLAC__stream_decoder_get_bits_per_sample.function,FLAC__stream_decoder_get_bits_per_sample
FLAC__stream_decoder_get_bits_per_sample:
.Lfunc_begin24:
	.loc	1 838 0
	.cfi_startproc
	.issue_mode dual
	{
		nop
		dualentsp 4
	}
.Ltmp441:
	.cfi_def_cfa_offset 16
.Ltmp442:
	.cfi_offset 15, 0
.Ltmp443:
	.cfi_offset 4, -8
.Ltmp444:
	{
		mov r4, r0
		stw r4, sp[2]
	}
.Ltmp445:
	.loc	1 839 2 prologue_end
	{
		eq r0, r4, 0
		nop
	}
	{
		eq r0, r0, 0
		nop
	}
	.loc	1 839 2
	bl assert
	{
		nop
		ldw r0, r4[0]
	}
	.loc	1 840 2
	{
		eq r0, r0, 0
		nop
	}
	{
		eq r0, r0, 0
		nop
	}
	.loc	1 840 2
	bl assert
	{
		nop
		ldw r0, r4[0]
	}
	{
		nop
		ldw r0, r0[4]
	}
	{
		nop
		ldw r4, sp[2]
	}
	{
		nop
		retsp 4
	}
	.loc	1 841 2
	# RETURN_REG_HOLDER
.Ltmp446:
	.cc_bottom FLAC__stream_decoder_get_bits_per_sample.function
	.set	FLAC__stream_decoder_get_bits_per_sample.nstackwords,(assert.nstackwords + 4)
	.globl	FLAC__stream_decoder_get_bits_per_sample.nstackwords
	.set	FLAC__stream_decoder_get_bits_per_sample.maxcores,1
	.globl	FLAC__stream_decoder_get_bits_per_sample.maxcores
	.set	FLAC__stream_decoder_get_bits_per_sample.maxtimers,0
	.globl	FLAC__stream_decoder_get_bits_per_sample.maxtimers
	.set	FLAC__stream_decoder_get_bits_per_sample.maxchanends,0
	.globl	FLAC__stream_decoder_get_bits_per_sample.maxchanends
.Ltmp447:
	.size	FLAC__stream_decoder_get_bits_per_sample, .Ltmp447-FLAC__stream_decoder_get_bits_per_sample
.Lfunc_end24:
	.cfi_endproc

	.globl	FLAC__stream_decoder_get_sample_rate
	.align	4
	.type	FLAC__stream_decoder_get_sample_rate,@function
	.cc_top FLAC__stream_decoder_get_sample_rate.function,FLAC__stream_decoder_get_sample_rate
FLAC__stream_decoder_get_sample_rate:
.Lfunc_begin25:
	.loc	1 845 0
	.cfi_startproc
	.issue_mode dual
	{
		nop
		dualentsp 4
	}
.Ltmp448:
	.cfi_def_cfa_offset 16
.Ltmp449:
	.cfi_offset 15, 0
.Ltmp450:
	.cfi_offset 4, -8
.Ltmp451:
	{
		mov r4, r0
		stw r4, sp[2]
	}
.Ltmp452:
	.loc	1 846 2 prologue_end
	{
		eq r0, r4, 0
		nop
	}
	{
		eq r0, r0, 0
		nop
	}
	.loc	1 846 2
	bl assert
	{
		nop
		ldw r0, r4[0]
	}
	.loc	1 847 2
	{
		eq r0, r0, 0
		nop
	}
	{
		eq r0, r0, 0
		nop
	}
	.loc	1 847 2
	bl assert
	{
		nop
		ldw r0, r4[0]
	}
	{
		nop
		ldw r0, r0[5]
	}
	{
		nop
		ldw r4, sp[2]
	}
	{
		nop
		retsp 4
	}
	.loc	1 848 2
	# RETURN_REG_HOLDER
.Ltmp453:
	.cc_bottom FLAC__stream_decoder_get_sample_rate.function
	.set	FLAC__stream_decoder_get_sample_rate.nstackwords,(assert.nstackwords + 4)
	.globl	FLAC__stream_decoder_get_sample_rate.nstackwords
	.set	FLAC__stream_decoder_get_sample_rate.maxcores,1
	.globl	FLAC__stream_decoder_get_sample_rate.maxcores
	.set	FLAC__stream_decoder_get_sample_rate.maxtimers,0
	.globl	FLAC__stream_decoder_get_sample_rate.maxtimers
	.set	FLAC__stream_decoder_get_sample_rate.maxchanends,0
	.globl	FLAC__stream_decoder_get_sample_rate.maxchanends
.Ltmp454:
	.size	FLAC__stream_decoder_get_sample_rate, .Ltmp454-FLAC__stream_decoder_get_sample_rate
.Lfunc_end25:
	.cfi_endproc

	.globl	FLAC__stream_decoder_get_blocksize
	.align	4
	.type	FLAC__stream_decoder_get_blocksize,@function
	.cc_top FLAC__stream_decoder_get_blocksize.function,FLAC__stream_decoder_get_blocksize
FLAC__stream_decoder_get_blocksize:
.Lfunc_begin26:
	.loc	1 852 0
	.cfi_startproc
	.issue_mode dual
	{
		nop
		dualentsp 4
	}
.Ltmp455:
	.cfi_def_cfa_offset 16
.Ltmp456:
	.cfi_offset 15, 0
.Ltmp457:
	.cfi_offset 4, -8
.Ltmp458:
	{
		mov r4, r0
		stw r4, sp[2]
	}
.Ltmp459:
	.loc	1 853 2 prologue_end
	{
		eq r0, r4, 0
		nop
	}
	{
		eq r0, r0, 0
		nop
	}
	.loc	1 853 2
	bl assert
	{
		nop
		ldw r0, r4[0]
	}
	.loc	1 854 2
	{
		eq r0, r0, 0
		nop
	}
	{
		eq r0, r0, 0
		nop
	}
	.loc	1 854 2
	bl assert
	{
		nop
		ldw r0, r4[0]
	}
	{
		nop
		ldw r0, r0[6]
	}
	{
		nop
		ldw r4, sp[2]
	}
	{
		nop
		retsp 4
	}
	.loc	1 855 2
	# RETURN_REG_HOLDER
.Ltmp460:
	.cc_bottom FLAC__stream_decoder_get_blocksize.function
	.set	FLAC__stream_decoder_get_blocksize.nstackwords,(assert.nstackwords + 4)
	.globl	FLAC__stream_decoder_get_blocksize.nstackwords
	.set	FLAC__stream_decoder_get_blocksize.maxcores,1
	.globl	FLAC__stream_decoder_get_blocksize.maxcores
	.set	FLAC__stream_decoder_get_blocksize.maxtimers,0
	.globl	FLAC__stream_decoder_get_blocksize.maxtimers
	.set	FLAC__stream_decoder_get_blocksize.maxchanends,0
	.globl	FLAC__stream_decoder_get_blocksize.maxchanends
.Ltmp461:
	.size	FLAC__stream_decoder_get_blocksize, .Ltmp461-FLAC__stream_decoder_get_blocksize
.Lfunc_end26:
	.cfi_endproc

	.globl	FLAC__stream_decoder_get_decode_position
	.align	4
	.type	FLAC__stream_decoder_get_decode_position,@function
	.cc_top FLAC__stream_decoder_get_decode_position.function,FLAC__stream_decoder_get_decode_position
FLAC__stream_decoder_get_decode_position:
.Lfunc_begin27:
	.loc	1 859 0
	.cfi_startproc
	.issue_mode dual
	{
		nop
		dualentsp 8
	}
.Ltmp462:
	.cfi_def_cfa_offset 32
.Ltmp463:
	.cfi_offset 15, 0
	std r5, r4, sp[1]
.Ltmp464:
	.cfi_offset 4, -24
.Ltmp465:
	.cfi_offset 5, -20
	std r7, r6, sp[2]
.Ltmp466:
	.cfi_offset 6, -16
.Ltmp467:
	.cfi_offset 7, -12
	std r9, r8, sp[3]
.Ltmp468:
	.cfi_offset 8, -8
.Ltmp469:
	.cfi_offset 9, -4
.Ltmp470:
	{
		mov r4, r1
		mov r5, r0
	}
.Ltmp471:
	.loc	1 860 2 prologue_end
	{
		eq r0, r5, 0
		nop
	}
	{
		eq r6, r0, 0
		nop
	}
	.loc	1 860 2
	{
		mov r0, r6
		nop
	}
	bl assert
	{
		nop
		ldw r0, r5[1]
	}
	.loc	1 861 2
	{
		eq r0, r0, 0
		nop
	}
	{
		eq r0, r0, 0
		nop
	}
	.loc	1 861 2
	bl assert
	.loc	1 862 2
	{
		eq r0, r4, 0
		nop
	}
	{
		eq r0, r0, 0
		nop
	}
	.loc	1 862 2
	bl assert
	{
		nop
		ldw r0, r5[1]
	}
	.loc	1 867 5
.Ltmp472:
	{
		ldc r7, 0
		ldw r8, r0[3]
	}
	bf r8, .LBB27_6
.Ltmp473:
	.loc	1 869 5
	{
		mov r0, r5
		ldw r2, r0[9]
	}
	.loc	1 869 5
	{
		mov r1, r4
		nop
	}
	{
		nop
		bla r8
	}
	bt r0, .LBB27_6
.Ltmp474:
	{
		nop
		ldw r0, r5[1]
	}
	{
		nop
		ldw r0, r0[11]
	}
	.loc	1 872 6
.Ltmp475:
	bl FLAC__bitreader_is_consumed_byte_aligned
	bf r0, .LBB27_6
.Ltmp476:
	.loc	1 874 2
	ldd r9, r8, r4[0]
	.loc	1 1179 2
.Ltmp477:
	{
		mov r0, r6
		nop
	}
	bl assert
	{
		nop
		ldw r0, r5[1]
	}
	{
		nop
		ldw r0, r0[11]
	}
	.loc	1 1180 2
	bl FLAC__bitreader_is_consumed_byte_aligned
	.loc	1 1180 2
	bl assert
	{
		nop
		ldw r0, r5[1]
	}
	{
		nop
		ldw r0, r0[11]
	}
	.loc	1 1181 2
	bl FLAC__bitreader_get_input_bits_unconsumed
	.loc	1 1181 2
	{
		zext r0, 3
		nop
	}
	.loc	1 1181 2
	{
		eq r0, r0, 0
		nop
	}
	.loc	1 1181 2
	bl assert
	{
		nop
		ldw r0, r5[1]
	}
	{
		nop
		ldw r0, r0[11]
	}
	.loc	1 1182 9
	bl FLAC__bitreader_get_input_bits_unconsumed
	{
		mov r1, r0
		mkmsk r7, 1
	}
.Ltmp478:
	.loc	1 874 2
	{
		mov r0, r7
		nop
	}
	bt r9, .LBB27_5
.Ltmp479:
	.loc	1 1182 9
	{
		shr r0, r1, 3
		nop
	}
.Ltmp480:
	.loc	1 874 2
	{
		lsu r0, r8, r0
		nop
	}
	{
		eq r0, r0, 0
		nop
	}
.Ltmp481:
.LBB27_5:
	.loc	1 874 2
	bl assert
.Ltmp482:
	.loc	1 1179 2
	{
		mov r0, r6
		nop
	}
	bl assert
	{
		nop
		ldw r0, r5[1]
	}
	{
		nop
		ldw r0, r0[11]
	}
	.loc	1 1180 2
	bl FLAC__bitreader_is_consumed_byte_aligned
	.loc	1 1180 2
	bl assert
	{
		nop
		ldw r0, r5[1]
	}
	{
		nop
		ldw r0, r0[11]
	}
	.loc	1 1181 2
	bl FLAC__bitreader_get_input_bits_unconsumed
	.loc	1 1181 2
	{
		zext r0, 3
		nop
	}
	.loc	1 1181 2
	{
		eq r0, r0, 0
		nop
	}
	.loc	1 1181 2
	bl assert
	{
		nop
		ldw r0, r5[1]
	}
	{
		nop
		ldw r0, r0[11]
	}
	.loc	1 1182 9
	bl FLAC__bitreader_get_input_bits_unconsumed
	.loc	1 1182 9
	{
		shr r0, r0, 3
		nop
	}
.Ltmp483:
	.loc	1 875 15
	ldd r2, r1, r4[0]
	{
		ldc r3, 0
		nop
	}
	.loc	1 875 15
	lsub r1, r0, r1, r0, r3
	{
		sub r1, r2, r1
		nop
	}
	.loc	1 875 15
	std r1, r0, r4[0]
.Ltmp484:
.LBB27_6:
	.loc	1 877 1
	{
		mov r0, r7
		nop
	}
	ldd r9, r8, sp[3]
	ldd r7, r6, sp[2]
	ldd r5, r4, sp[1]
	{
		nop
		retsp 8
	}
	# RETURN_REG_HOLDER
.Ltmp485:
	.cc_bottom FLAC__stream_decoder_get_decode_position.function

	.globl	FLAC__stream_decoder_get_decode_position.maxcores

	.globl	FLAC__stream_decoder_get_decode_position.maxtimers

	.globl	FLAC__stream_decoder_get_decode_position.maxchanends
.Ltmp486:
	.size	FLAC__stream_decoder_get_decode_position, .Ltmp486-FLAC__stream_decoder_get_decode_position
.Lfunc_end27:
	.cfi_endproc

	.globl	FLAC__stream_decoder_get_input_bytes_unconsumed
	.align	4
	.type	FLAC__stream_decoder_get_input_bytes_unconsumed,@function
	.cc_top FLAC__stream_decoder_get_input_bytes_unconsumed.function,FLAC__stream_decoder_get_input_bytes_unconsumed
FLAC__stream_decoder_get_input_bytes_unconsumed:
.Lfunc_begin28:
	.loc	1 1178 0
	.cfi_startproc
	.issue_mode dual
	{
		nop
		dualentsp 4
	}
.Ltmp487:
	.cfi_def_cfa_offset 16
.Ltmp488:
	.cfi_offset 15, 0
.Ltmp489:
	.cfi_offset 4, -8
.Ltmp490:
	{
		mov r4, r0
		stw r4, sp[2]
	}
.Ltmp491:
	.loc	1 1179 2 prologue_end
	{
		eq r0, r4, 0
		nop
	}
	{
		eq r0, r0, 0
		nop
	}
	.loc	1 1179 2
	bl assert
	{
		nop
		ldw r0, r4[1]
	}
	{
		nop
		ldw r0, r0[11]
	}
	.loc	1 1180 2
	bl FLAC__bitreader_is_consumed_byte_aligned
	.loc	1 1180 2
	bl assert
	{
		nop
		ldw r0, r4[1]
	}
	{
		nop
		ldw r0, r0[11]
	}
	.loc	1 1181 2
	bl FLAC__bitreader_get_input_bits_unconsumed
	.loc	1 1181 2
	{
		zext r0, 3
		nop
	}
	.loc	1 1181 2
	{
		eq r0, r0, 0
		nop
	}
	.loc	1 1181 2
	bl assert
	{
		nop
		ldw r0, r4[1]
	}
	{
		nop
		ldw r0, r0[11]
	}
	.loc	1 1182 9
	bl FLAC__bitreader_get_input_bits_unconsumed
	.loc	1 1182 9
	{
		shr r0, r0, 3
		ldw r4, sp[2]
	}
	{
		nop
		retsp 4
	}
	.loc	1 1182 9
	# RETURN_REG_HOLDER
.Ltmp492:
	.cc_bottom FLAC__stream_decoder_get_input_bytes_unconsumed.function
	.set	FLAC__stream_decoder_get_input_bytes_unconsumed.nstackwords,((FLAC__bitreader_is_consumed_byte_aligned.nstackwords $M assert.nstackwords $M FLAC__bitreader_get_input_bits_unconsumed.nstackwords) + 4)
	.globl	FLAC__stream_decoder_get_input_bytes_unconsumed.nstackwords
	.set	FLAC__stream_decoder_get_input_bytes_unconsumed.maxcores,FLAC__bitreader_get_input_bits_unconsumed.maxcores $M FLAC__bitreader_is_consumed_byte_aligned.maxcores $M 1
	.globl	FLAC__stream_decoder_get_input_bytes_unconsumed.maxcores
	.set	FLAC__stream_decoder_get_input_bytes_unconsumed.maxtimers,FLAC__bitreader_get_input_bits_unconsumed.maxtimers $M FLAC__bitreader_is_consumed_byte_aligned.maxtimers $M 0
	.globl	FLAC__stream_decoder_get_input_bytes_unconsumed.maxtimers
	.set	FLAC__stream_decoder_get_input_bytes_unconsumed.maxchanends,FLAC__bitreader_get_input_bits_unconsumed.maxchanends $M FLAC__bitreader_is_consumed_byte_aligned.maxchanends $M 0
	.globl	FLAC__stream_decoder_get_input_bytes_unconsumed.maxchanends
.Ltmp493:
	.size	FLAC__stream_decoder_get_input_bytes_unconsumed, .Ltmp493-FLAC__stream_decoder_get_input_bytes_unconsumed
.Lfunc_end28:
	.cfi_endproc

	.globl	FLAC__stream_decoder_get_client_data
	.align	4
	.type	FLAC__stream_decoder_get_client_data,@function
	.cc_top FLAC__stream_decoder_get_client_data.function,FLAC__stream_decoder_get_client_data
FLAC__stream_decoder_get_client_data:
.Lfunc_begin29:
	.loc	1 880 0
	.cfi_startproc
	.issue_mode dual
	{
		nop
		dualentsp 0
	}
	{
		nop
		ldw r0, r0[1]
	}
.Ltmp494:
	{
		nop
		ldw r0, r0[9]
	}
	{
		nop
		retsp 0
	}
	.loc	1 881 2 prologue_end
.Ltmp495:
	# RETURN_REG_HOLDER
.Ltmp496:
	.cc_bottom FLAC__stream_decoder_get_client_data.function
	.set	FLAC__stream_decoder_get_client_data.nstackwords,0
	.globl	FLAC__stream_decoder_get_client_data.nstackwords
	.set	FLAC__stream_decoder_get_client_data.maxcores,1
	.globl	FLAC__stream_decoder_get_client_data.maxcores
	.set	FLAC__stream_decoder_get_client_data.maxtimers,0
	.globl	FLAC__stream_decoder_get_client_data.maxtimers
	.set	FLAC__stream_decoder_get_client_data.maxchanends,0
	.globl	FLAC__stream_decoder_get_client_data.maxchanends
.Ltmp497:
	.size	FLAC__stream_decoder_get_client_data, .Ltmp497-FLAC__stream_decoder_get_client_data
.Lfunc_end29:
	.cfi_endproc

	.globl	FLAC__stream_decoder_flush
	.align	4
	.type	FLAC__stream_decoder_flush,@function
	.cc_top FLAC__stream_decoder_flush.function,FLAC__stream_decoder_flush
FLAC__stream_decoder_flush:
.Lfunc_begin30:
	.loc	1 885 0
	.cfi_startproc
	.issue_mode dual
	{
		nop
		dualentsp 4
	}
.Ltmp498:
	.cfi_def_cfa_offset 16
.Ltmp499:
	.cfi_offset 15, 0
	std r5, r4, sp[1]
.Ltmp500:
	.cfi_offset 4, -8
.Ltmp501:
	.cfi_offset 5, -4
	{
		mov r4, r0
		nop
	}
.Ltmp502:
	.loc	1 886 2 prologue_end
	{
		eq r0, r4, 0
		nop
	}
	{
		eq r0, r0, 0
		nop
	}
	.loc	1 886 2
	bl assert
	{
		nop
		ldw r0, r4[1]
	}
	.loc	1 887 2
	{
		eq r0, r0, 0
		nop
	}
	{
		eq r0, r0, 0
		nop
	}
	.loc	1 887 2
	bl assert
	{
		nop
		ldw r0, r4[0]
	}
	.loc	1 888 2
	{
		eq r0, r0, 0
		nop
	}
	{
		eq r0, r0, 0
		nop
	}
	.loc	1 888 2
	bl assert
	{
		nop
		ldw r0, r4[1]
	}
	ldc r1, 4676
	.loc	1 890 5
.Ltmp503:
	{
		add r1, r0, r1
		nop
	}
	{
		nop
		ldw r1, r1[0]
	}
	bt r1, .LBB30_3
.Ltmp504:
	{
		nop
		ldw r1, r4[0]
	}
	{
		nop
		ldw r1, r1[0]
	}
	.loc	1 890 5
	{
		eq r1, r1, 9
		nop
	}
	bf r1, .LBB30_3
.Ltmp505:
	{
		ldc r5, 0
		nop
	}
	bu .LBB30_6
.LBB30_3:
.Ltmp506:
	ldc r1, 232
	.loc	1 893 2
	{
		add r1, r0, r1
		ldc r5, 0
	}
	.loc	1 893 2
	std r5, r5, r1[0]
	ldc r1, 4672
	.loc	1 894 2
	{
		add r1, r0, r1
		nop
	}
	{
		nop
		stw r5, r1[0]
	}
	ldc r1, 8320
	.loc	1 895 2
	{
		add r1, r0, r1
		nop
	}
	.loc	1 895 2
	std r5, r5, r1[0]
	ldc r1, 8304
	.loc	1 896 2
	{
		add r1, r0, r1
		nop
	}
	{
		nop
		stw r5, r1[0]
	}
	{
		nop
		ldw r0, r0[11]
	}
	.loc	1 903 6
.Ltmp507:
	bl FLAC__bitreader_clear
	{
		nop
		ldw r1, r4[0]
	}
	.loc	1 903 6
	bf r0, .LBB30_4
.Ltmp508:
	{
		ldc r0, 2
		nop
	}
	.loc	1 907 2
	{
		mkmsk r5, 1
		stw r0, r1[0]
	}
	bu .LBB30_6
.LBB30_4:
	{
		ldc r0, 8
		nop
	}
	{
		nop
		stw r0, r1[0]
	}
.LBB30_6:
	.loc	1 910 1
	{
		mov r0, r5
		nop
	}
	ldd r5, r4, sp[1]
	{
		nop
		retsp 4
	}
	# RETURN_REG_HOLDER
.Ltmp509:
	.cc_bottom FLAC__stream_decoder_flush.function
	.set	FLAC__stream_decoder_flush.nstackwords,((assert.nstackwords $M FLAC__bitreader_clear.nstackwords) + 4)
	.globl	FLAC__stream_decoder_flush.nstackwords
	.set	FLAC__stream_decoder_flush.maxcores,FLAC__bitreader_clear.maxcores $M 1
	.globl	FLAC__stream_decoder_flush.maxcores
	.set	FLAC__stream_decoder_flush.maxtimers,FLAC__bitreader_clear.maxtimers $M 0
	.globl	FLAC__stream_decoder_flush.maxtimers
	.set	FLAC__stream_decoder_flush.maxchanends,FLAC__bitreader_clear.maxchanends $M 0
	.globl	FLAC__stream_decoder_flush.maxchanends
.Ltmp510:
	.size	FLAC__stream_decoder_flush, .Ltmp510-FLAC__stream_decoder_flush
.Lfunc_end30:
	.cfi_endproc

	.globl	FLAC__stream_decoder_reset
	.align	4
	.type	FLAC__stream_decoder_reset,@function
	.cc_top FLAC__stream_decoder_reset.function,FLAC__stream_decoder_reset
FLAC__stream_decoder_reset:
.Lfunc_begin31:
	.loc	1 913 0
	.cfi_startproc
	.issue_mode dual
	{
		nop
		dualentsp 10
	}
.Ltmp511:
	.cfi_def_cfa_offset 40
.Ltmp512:
	.cfi_offset 15, 0
	std r5, r4, sp[1]
.Ltmp513:
	.cfi_offset 4, -32
.Ltmp514:
	.cfi_offset 5, -28
	std r7, r6, sp[2]
.Ltmp515:
	.cfi_offset 6, -24
.Ltmp516:
	.cfi_offset 7, -20
	std r9, r8, sp[3]
.Ltmp517:
	.cfi_offset 8, -16
.Ltmp518:
	.cfi_offset 9, -12
.Ltmp519:
	.cfi_offset 10, -8
.Ltmp520:
	{
		mov r4, r0
		stw r10, sp[8]
	}
.Ltmp521:
	.loc	1 914 2 prologue_end
	{
		eq r0, r4, 0
		nop
	}
	{
		eq r5, r0, 0
		nop
	}
	.loc	1 914 2
	{
		mov r0, r5
		nop
	}
	bl assert
	{
		nop
		ldw r0, r4[1]
	}
	.loc	1 915 2
	{
		eq r0, r0, 0
		nop
	}
	{
		eq r0, r0, 0
		nop
	}
	.loc	1 915 2
	bl assert
	{
		nop
		ldw r0, r4[0]
	}
	.loc	1 916 2
	{
		eq r0, r0, 0
		nop
	}
	{
		eq r0, r0, 0
		nop
	}
	.loc	1 916 2
	bl assert
.Ltmp522:
	.loc	1 886 2
	{
		mov r0, r5
		nop
	}
	bl assert
	{
		nop
		ldw r0, r4[1]
	}
	.loc	1 887 2
	{
		eq r0, r0, 0
		nop
	}
	{
		eq r0, r0, 0
		nop
	}
	.loc	1 887 2
	bl assert
	{
		nop
		ldw r0, r4[0]
	}
	.loc	1 888 2
	{
		eq r0, r0, 0
		nop
	}
	{
		eq r0, r0, 0
		nop
	}
	.loc	1 888 2
	bl assert
	{
		nop
		ldw r0, r4[1]
	}
	ldc r9, 4676
	.loc	1 890 5
.Ltmp523:
	{
		add r1, r0, r9
		nop
	}
	{
		nop
		ldw r1, r1[0]
	}
	bt r1, .LBB31_3
.Ltmp524:
	{
		nop
		ldw r1, r4[0]
	}
	{
		nop
		ldw r1, r1[0]
	}
	.loc	1 890 5
	{
		eq r1, r1, 9
		nop
	}
	bf r1, .LBB31_3
.Ltmp525:
	{
		ldc r5, 0
		nop
	}
	bu .LBB31_16
.LBB31_3:
.Ltmp526:
	ldc r1, 232
	.loc	1 893 2
	{
		add r1, r0, r1
		ldc r6, 0
	}
	.loc	1 893 2
	std r6, r6, r1[0]
	ldc r10, 4672
	.loc	1 894 2
	{
		add r1, r0, r10
		nop
	}
	{
		nop
		stw r6, r1[0]
	}
	ldc r7, 8320
	.loc	1 895 2
	{
		add r1, r0, r7
		nop
	}
	.loc	1 895 2
	std r6, r6, r1[0]
	ldc r8, 8304
	.loc	1 896 2
	{
		add r1, r0, r8
		nop
	}
	{
		nop
		stw r6, r1[0]
	}
	{
		nop
		ldw r0, r0[11]
	}
	.loc	1 903 6
.Ltmp527:
	bl FLAC__bitreader_clear
	{
		nop
		ldw r1, r4[0]
	}
	.loc	1 903 6
	bf r0, .LBB31_4
.Ltmp528:
	{
		ldc r0, 2
		nop
	}
	{
		nop
		stw r0, r1[0]
	}
	{
		nop
		ldw r0, r4[1]
	}
	.loc	1 934 5
.Ltmp529:
	{
		add r1, r0, r9
		nop
	}
	{
		nop
		ldw r1, r1[0]
	}
	bt r1, .LBB31_12
.Ltmp530:
	{
		nop
		ldw r5, r0[10]
	}
	.loc	1 935 33
.Ltmp531:
	bl __getstdin
	.loc	1 935 33
	{
		eq r0, r5, r0
		nop
	}
	.loc	1 935 33
	bt r0, .LBB31_7
.Ltmp532:
	{
		nop
		ldw r0, r4[1]
	}
	{
		nop
		ldw r7, r0[2]
	}
	bf r7, .LBB31_11
.Ltmp533:
	.loc	1 937 42
	{
		ldc r5, 0
		ldw r3, r0[9]
	}
	.loc	1 937 42
	{
		mov r0, r4
		mov r1, r5
	}
	{
		mov r2, r5
		nop
	}
	{
		nop
		bla r7
	}
	.loc	1 937 42
	{
		eq r0, r0, 1
		nop
	}
	bt r0, .LBB31_16
.Ltmp534:
	{
		nop
		ldw r0, r4[1]
	}
.Ltmp535:
.LBB31_11:
	ldc r7, 8320
.LBB31_12:
.Ltmp536:
	{
		nop
		ldw r1, r4[0]
	}
	{
		nop
		stw r6, r1[0]
	}
	ldc r1, 240
	.loc	1 943 2
	{
		add r1, r0, r1
		nop
	}
	{
		nop
		stw r6, r1[0]
	}
	ldc r5, 444
	.loc	1 945 2
	{
		add r0, r0, r5
		nop
	}
	{
		nop
		ldw r0, r0[0]
	}
	.loc	1 945 2
	bl free
	{
		nop
		ldw r1, r4[1]
	}
	.loc	1 946 2
	{
		add r0, r1, r5
		nop
	}
	{
		nop
		stw r6, r0[0]
	}
	ldc r0, 244
	.loc	1 947 2
	{
		add r0, r1, r0
		nop
	}
	{
		nop
		stw r6, r0[0]
	}
	{
		nop
		ldw r0, r4[0]
	}
	.loc	1 949 2
	{
		add r2, r1, r10
		ldw r0, r0[7]
	}
	{
		nop
		stw r0, r2[0]
	}
	ldc r0, 228
	.loc	1 954 2
	{
		add r0, r1, r0
		nop
	}
	{
		nop
		stw r6, r0[0]
	}
	ldc r0, 224
	.loc	1 954 2
	{
		add r0, r1, r0
		nop
	}
	.loc	1 954 2
	{
		add r0, r1, r9
		stw r6, r0[0]
	}
	{
		nop
		ldw r2, r0[0]
	}
	.loc	1 962 5
.Ltmp537:
	bf r2, .LBB31_13
.Ltmp538:
	{
		nop
		stw r6, r0[0]
	}
	bu .LBB31_15
.Ltmp539:
.LBB31_4:
	{
		ldc r0, 8
		nop
	}
	.loc	1 904 3
.Ltmp540:
	{
		mov r5, r6
		stw r0, r1[0]
	}
	bu .LBB31_16
.Ltmp541:
.LBB31_13:
	ldc r0, 4780
	.loc	1 965 3
.Ltmp542:
	{
		add r0, r1, r0
		nop
	}
	ldc r2, 4684
	.loc	1 965 3
	{
		add r1, r1, r2
		nop
	}
	.loc	1 965 3
	bl FLAC__MD5Final
	{
		nop
		ldw r1, r4[1]
	}
.Ltmp543:
.LBB31_15:
	ldc r0, 4684
	.loc	1 969 2
	{
		add r0, r1, r0
		nop
	}
	.loc	1 969 2
	bl FLAC__MD5Init
	{
		nop
		ldw r0, r4[1]
	}
	ldc r1, 8312
	.loc	1 971 2
	{
		add r1, r0, r1
		nop
	}
	ldc r2, 8336
	.loc	1 972 2
	{
		add r2, r0, r2
		nop
	}
	.loc	1 972 2
	{
		add r2, r0, r8
		stw r6, r2[0]
	}
	{
		nop
		stw r6, r2[0]
	}
	ldc r2, 8324
	.loc	1 973 2
	{
		add r2, r0, r2
		nop
	}
	{
		add r2, r0, r7
		stw r6, r2[0]
	}
	{
		nop
		stw r6, r2[0]
	}
	ldc r2, 8316
	{
		add r0, r0, r2
		nop
	}
	{
		nop
		stw r6, r0[0]
	}
	{
		mkmsk r5, 1
		stw r6, r1[0]
	}
.Ltmp544:
.LBB31_16:
	.loc	1 977 1
	{
		mov r0, r5
		ldw r10, sp[8]
	}
	ldd r9, r8, sp[3]
	ldd r7, r6, sp[2]
	ldd r5, r4, sp[1]
	{
		nop
		retsp 10
	}
	# RETURN_REG_HOLDER
.Ltmp545:
.LBB31_7:
	{
		mov r5, r6
		nop
	}
	bu .LBB31_16
	.cc_bottom FLAC__stream_decoder_reset.function

	.globl	FLAC__stream_decoder_reset.maxcores

	.globl	FLAC__stream_decoder_reset.maxtimers

	.globl	FLAC__stream_decoder_reset.maxchanends
.Ltmp546:
	.size	FLAC__stream_decoder_reset, .Ltmp546-FLAC__stream_decoder_reset
.Lfunc_end31:
	.cfi_endproc

	.globl	FLAC__stream_decoder_process_single
	.align	4
	.type	FLAC__stream_decoder_process_single,@function
	.cc_top FLAC__stream_decoder_process_single.function,FLAC__stream_decoder_process_single
FLAC__stream_decoder_process_single:
.Lfunc_begin32:
	.loc	1 980 0
	.cfi_startproc
	.issue_mode dual
	{
		nop
		dualentsp 8
	}
.Ltmp547:
	.cfi_def_cfa_offset 32
.Ltmp548:
	.cfi_offset 15, 0
	std r5, r4, sp[1]
.Ltmp549:
	.cfi_offset 4, -24
.Ltmp550:
	.cfi_offset 5, -20
	std r7, r6, sp[2]
.Ltmp551:
	.cfi_offset 6, -16
.Ltmp552:
	.cfi_offset 7, -12
.Ltmp553:
	.cfi_offset 8, -8
.Ltmp554:
	{
		mov r4, r0
		stw r8, sp[6]
	}
.Ltmp555:
	.loc	1 982 2 prologue_end
	{
		eq r0, r4, 0
		nop
	}
	{
		eq r0, r0, 0
		nop
	}
	.loc	1 982 2
	bl assert
	{
		nop
		ldw r0, r4[0]
	}
	.loc	1 983 2
	{
		eq r0, r0, 0
		nop
	}
	{
		eq r0, r0, 0
		nop
	}
	.loc	1 983 2
	bl assert
	{
		mkmsk r5, 1
		ldc r6, 0
	}
	{
		mkmsk r8, 3
		ldaw r7, sp[1]
	}
.LBB32_1:
.Ltmp556:
	{
		nop
		ldw r0, r4[0]
	}
	{
		nop
		ldw r0, r0[0]
	}
	.loc	1 986 3
.Ltmp557:
	{
		lsu r1, r8, r0
		nop
	}
	bt r1, .LBB32_11
.Ltmp558:

	.xtabranch .Ljumptable0+4,.Ljumptable0+8,.Ljumptable0+12,.Ljumptable0+16,.Ljumptable0+20,.Ljumptable0+24,.Ljumptable0+28,.Ljumptable0+32
.Ljumptable0:
		
	{
		nop
		bru r0
	}
	.jmptable32 .LBB32_3,.LBB32_5,.LBB32_6,.LBB32_7,.LBB32_10,.LBB32_11,.LBB32_11,.LBB32_10
.Ltmp559:
.LBB32_3:
	.loc	1 988 9
	{
		mov r0, r4
		nop
	}
	bl find_metadata_
	bt r0, .LBB32_1
	bu .LBB32_4
.Ltmp560:
.LBB32_6:
	.loc	1 997 9
	{
		mov r0, r4
		nop
	}
	bl frame_sync_
	bt r0, .LBB32_1
	bu .LBB32_10
.Ltmp561:
.LBB32_7:
	.loc	1 1001 9
	{
		mov r0, r4
		mov r1, r7
	}
	{
		mov r2, r5
		nop
	}
	bl read_frame_
	.loc	1 1001 9
	bf r0, .LBB32_8
.Ltmp562:
	{
		nop
		ldw r0, sp[1]
	}
	bf r0, .LBB32_1
	bu .LBB32_10
.Ltmp563:
.LBB32_4:
	{
		mov r5, r6
		nop
	}
	bu .LBB32_10
.LBB32_8:
	{
		mov r5, r6
		nop
	}
.LBB32_10:
	{
		mov r6, r5
		nop
	}
.LBB32_11:
	.loc	1 1013 1
	{
		mov r0, r6
		ldw r8, sp[6]
	}
	ldd r7, r6, sp[2]
	ldd r5, r4, sp[1]
	{
		nop
		retsp 8
	}
	# RETURN_REG_HOLDER
.LBB32_5:
.Ltmp564:
	.loc	1 992 9
	{
		mov r0, r4
		nop
	}
	bl read_metadata_
	.loc	1 993 6
	{
		eq r0, r0, 0
		nop
	}
	{
		eq r6, r0, 0
		nop
	}
	bu .LBB32_11
.Ltmp565:
	.cc_bottom FLAC__stream_decoder_process_single.function
	.set	FLAC__stream_decoder_process_single.nstackwords,((assert.nstackwords $M find_metadata_.nstackwords $M read_metadata_.nstackwords $M frame_sync_.nstackwords $M read_frame_.nstackwords) + 8)
	.globl	FLAC__stream_decoder_process_single.nstackwords
	.set	FLAC__stream_decoder_process_single.maxcores,find_metadata_.maxcores $M frame_sync_.maxcores $M read_frame_.maxcores $M read_metadata_.maxcores $M 1
	.globl	FLAC__stream_decoder_process_single.maxcores
	.set	FLAC__stream_decoder_process_single.maxtimers,find_metadata_.maxtimers $M frame_sync_.maxtimers $M read_frame_.maxtimers $M read_metadata_.maxtimers $M 0
	.globl	FLAC__stream_decoder_process_single.maxtimers
	.set	FLAC__stream_decoder_process_single.maxchanends,find_metadata_.maxchanends $M frame_sync_.maxchanends $M read_frame_.maxchanends $M read_metadata_.maxchanends $M 0
	.globl	FLAC__stream_decoder_process_single.maxchanends
.Ltmp566:
	.size	FLAC__stream_decoder_process_single, .Ltmp566-FLAC__stream_decoder_process_single
.Lfunc_end32:
	.cfi_endproc

	.align	4
	.type	find_metadata_,@function
	.cc_top find_metadata_.function,find_metadata_
find_metadata_:
.Lfunc_begin33:
	.loc	1 1310 0
	.cfi_startproc
	.issue_mode dual
	{
		nop
		dualentsp 14
	}
.Ltmp567:
	.cfi_def_cfa_offset 56
.Ltmp568:
	.cfi_offset 15, 0
	std r5, r4, sp[3]
.Ltmp569:
	.cfi_offset 4, -32
.Ltmp570:
	.cfi_offset 5, -28
	std r7, r6, sp[4]
.Ltmp571:
	.cfi_offset 6, -24
.Ltmp572:
	.cfi_offset 7, -20
	std r9, r8, sp[5]
.Ltmp573:
	.cfi_offset 8, -16
.Ltmp574:
	.cfi_offset 9, -12
.Ltmp575:
	.cfi_offset 10, -8
.Ltmp576:
	{
		mov r5, r0
		stw r10, sp[12]
	}
.Ltmp577:
	{
		nop
		ldw r0, r5[1]
	}
	{
		nop
		ldw r0, r0[11]
	}
	.loc	1 1315 2 prologue_end
.Ltmp578:
	bl FLAC__bitreader_is_consumed_byte_aligned
	.loc	1 1315 2
	bl assert
.Ltmp579:
	{
		ldc r6, 0
		mkmsk r0, 1
	}
	ldc r9, 4632
	{
		ldaw r7, sp[4]
		ldc r8, 2
	}
	bu .LBB33_1
.LBB33_24:
.Ltmp580:
	{
		nop
		ldw r3, r1[8]
	}
	.loc	1 3235 3
.Ltmp581:
	{
		mov r0, r5
		ldw r2, r1[9]
	}
	.loc	1 3235 3
	{
		mov r1, r6
		nop
	}
	{
		nop
		bla r3
	}
	{
		mov r0, r6
		nop
	}
.Ltmp582:
.LBB33_1:
	{
		mov r10, r6
		nop
	}
.LBB33_2:
.Ltmp583:
	{
		mov r4, r6
		stw r0, sp[3]
	}
.Ltmp584:
.LBB33_3:
	{
		nop
		ldw r0, r5[1]
	}
	.loc	1 1318 6
.Ltmp585:
	{
		add r1, r0, r9
		nop
	}
	{
		nop
		ldw r2, r1[0]
	}
	.loc	1 1318 6
	bf r2, .LBB33_5
.Ltmp586:
	ldc r2, 4638
	{
		nop
		ld8u r0, r0[r2]
	}
	{
		nop
		stw r0, sp[4]
	}
	{
		nop
		stw r6, r1[0]
	}
	bu .LBB33_7
.Ltmp587:
.LBB33_5:
	.loc	1 1323 8
	{
		mov r1, r7
		ldw r0, r0[11]
	}
	{
		ldc r2, 8
		nop
	}
	.loc	1 1323 8
	bl FLAC__bitreader_read_raw_uint32
	bf r0, .LBB33_27
.Ltmp588:
	{
		nop
		ldw r0, sp[4]
	}
.Ltmp589:
.LBB33_7:
	.loc	1 1326 6
	ldaw r11, cp[FLAC__STREAM_SYNC_STRING]
	{
		nop
		ld8u r1, r11[r10]
	}
	.loc	1 1326 6
	{
		eq r1, r0, r1
		nop
	}
	bt r1, .LBB33_8
.Ltmp590:
	.loc	1 1333 6
	{
		lsu r1, r8, r4
		nop
	}
	bt r1, .LBB33_27
.Ltmp591:
	.loc	1 1336 6
	ldaw r11, cp[ID3V2_TAG_]
	{
		nop
		ld8u r1, r11[r4]
	}
	.loc	1 1336 6
	{
		eq r1, r0, r1
		nop
	}
	bf r1, .LBB33_18
.Ltmp592:
	.loc	1 1337 4
	{
		add r4, r4, 1
		nop
	}
.Ltmp593:
	.loc	1 1339 7
	{
		eq r0, r4, 3
		mov r10, r6
	}
	bf r0, .LBB33_3
.Ltmp594:
	{
		mov r8, r7
		mov r7, r9
	}
	{
		mov r9, r6
		ldw r0, r5[1]
	}
.Ltmp595:
	.loc	1 1962 6
	{
		ldaw r1, sp[5]
		ldw r0, r0[11]
	}
	{
		ldc r2, 24
		nop
	}
	.loc	1 1962 6
	bl FLAC__bitreader_read_raw_uint32
	bf r0, .LBB33_28
.Ltmp596:
	{
		nop
		ldw r0, r5[1]
	}
	.loc	1 1967 7
.Ltmp597:
	{
		mov r10, r9
		ldw r0, r0[11]
	}
.Ltmp598:
	.loc	1 1340 9
	{
		mov r6, r9
		nop
	}
.Ltmp599:
.LBB33_15:
	{
		ldaw r1, sp[5]
		ldc r2, 8
	}
	.loc	1 1967 7
.Ltmp600:
	bl FLAC__bitreader_read_raw_uint32
	bf r0, .LBB33_28
.Ltmp601:
	.loc	1 1969 3
	{
		shl r0, r10, 7
		ldw r1, sp[5]
	}
.Ltmp602:
	.loc	1 1970 3
	{
		zext r1, 7
		nop
	}
.Ltmp603:
	.loc	1 1970 3
	{
		or r10, r1, r0
		add r6, r6, 1
	}
.Ltmp604:
	{
		nop
		ldw r0, r5[1]
	}
	.loc	1 1967 7
.Ltmp605:
	{
		ldc r1, 4
		ldw r0, r0[11]
	}
.Ltmp606:
	.loc	1 1966 2
	{
		lsu r1, r6, r1
		nop
	}
	bt r1, .LBB33_15
.Ltmp607:
	.loc	1 1973 6
	{
		mov r1, r10
		nop
	}
	bl FLAC__bitreader_skip_byte_block_aligned_no_crc
	{
		mov r6, r9
		nop
	}
	{
		mov r10, r6
		mov r9, r7
	}
.Ltmp608:
	{
		mov r7, r8
		ldc r8, 2
	}
	bt r0, .LBB33_3
	bu .LBB33_27
.Ltmp609:
.LBB33_8:
	.loc	1 1328 4
	{
		add r10, r10, 1
		ldc r0, 4
	}
.Ltmp610:
	.loc	1 1317 2
	{
		lsu r1, r10, r0
		mkmsk r0, 1
	}
	bt r1, .LBB33_2
	bu .LBB33_9
.Ltmp611:
.LBB33_18:
	{
		mkmsk r4, 8
		nop
	}
	.loc	1 1346 6
.Ltmp612:
	{
		eq r0, r0, r4
		nop
	}
	bf r0, .LBB33_22
.Ltmp613:
	{
		nop
		ldw r0, r5[1]
	}
	ldc r1, 4636
	.loc	1 1347 4
.Ltmp614:
	st8 r4, r0[r1]
	{
		nop
		ldw r0, r5[1]
	}
.Ltmp615:
	.loc	1 1348 8
	{
		mov r1, r7
		ldw r0, r0[11]
	}
	{
		ldc r2, 8
		nop
	}
	.loc	1 1348 8
	bl FLAC__bitreader_read_raw_uint32
	bf r0, .LBB33_27
.Ltmp616:
	{
		nop
		ldw r0, sp[4]
	}
	.loc	1 1353 7
.Ltmp617:
	{
		eq r1, r0, r4
		nop
	}
	bf r1, .LBB33_25
.Ltmp618:
	{
		nop
		ldw r0, r5[1]
	}
	ldc r1, 4638
	.loc	1 1354 5
.Ltmp619:
	st8 r4, r0[r1]
	.loc	1 1355 5
	{
		add r0, r0, r9
		mkmsk r1, 1
	}
	{
		nop
		stw r1, r0[0]
	}
	bu .LBB33_22
.Ltmp620:
.LBB33_25:
	.loc	1 1357 12
	{
		shr r1, r0, 1
		nop
	}
	ldc r2, 124
	{
		eq r1, r1, r2
		nop
	}
	bt r1, .LBB33_26
.Ltmp621:
.LBB33_22:
	{
		mov r0, r6
		mov r10, r6
	}
	{
		nop
		ldw r1, sp[3]
	}
	bf r1, .LBB33_2
.Ltmp622:
	{
		nop
		ldw r1, r5[1]
	}
	ldc r0, 4680
	.loc	1 3234 5
.Ltmp623:
	{
		add r0, r1, r0
		nop
	}
	.loc	1 3234 5
	{
		mov r0, r6
		ldw r2, r0[0]
	}
	{
		mov r10, r6
		nop
	}
	bt r2, .LBB33_2
	bu .LBB33_24
.Ltmp624:
.LBB33_28:
	{
		mov r6, r9
		nop
	}
.LBB33_27:
	.loc	1 1372 1
	{
		mov r0, r6
		ldw r10, sp[12]
	}
	ldd r9, r8, sp[5]
	ldd r7, r6, sp[4]
	ldd r5, r4, sp[3]
	{
		nop
		retsp 14
	}
	# RETURN_REG_HOLDER
.LBB33_9:
.Ltmp625:
	.loc	1 1370 2
	{
		mkmsk r6, 1
		ldw r0, r5[0]
	}
	{
		nop
		stw r6, r0[0]
	}
	bu .LBB33_27
.Ltmp626:
.LBB33_26:
	{
		nop
		ldw r1, r5[1]
	}
	ldc r2, 4637
	.loc	1 1358 5
.Ltmp627:
	st8 r0, r1[r2]
	.loc	1 1359 5
	{
		mkmsk r1, 2
		ldw r0, r5[0]
	}
	.loc	1 1359 5
	{
		mkmsk r6, 1
		stw r1, r0[0]
	}
	bu .LBB33_27
.Ltmp628:
	.cc_bottom find_metadata_.function



.Ltmp629:
	.size	find_metadata_, .Ltmp629-find_metadata_
.Lfunc_end33:
	.cfi_endproc

	.section	.cp.rodata.cst4,"aMc",@progbits,4
	.cc_top .LCPI34_0.data,.LCPI34_0
	.align	4
	.type	.LCPI34_0,@object
	.size	.LCPI34_0, 4
.LCPI34_0:
	.long	954437177
	.cc_bottom .LCPI34_0.data
	.cc_top .LCPI34_1.data,.LCPI34_1
	.align	4
	.type	.LCPI34_1,@object
	.size	.LCPI34_1, 4
.LCPI34_1:
	.long	3221225478
	.cc_bottom .LCPI34_1.data
	.cc_top .LCPI34_2.data,.LCPI34_2
	.align	4
	.type	.LCPI34_2,@object
	.size	.LCPI34_2, 4
.LCPI34_2:
	.long	4294967278
	.cc_bottom .LCPI34_2.data
	.cc_top .LCPI34_3.data,.LCPI34_3
	.align	4
	.type	.LCPI34_3,@object
	.size	.LCPI34_3, 4
.LCPI34_3:
	.long	100001
	.cc_bottom .LCPI34_3.data
	.text
	.align	4
	.type	read_metadata_,@function
	.cc_top read_metadata_.function,read_metadata_
read_metadata_:
.Lfunc_begin34:
	.loc	1 1375 0
	.cfi_startproc
	.issue_mode dual
	DUALENTSP_lu6 64
.Ltmp630:
	.cfi_def_cfa_offset 256
.Ltmp631:
	.cfi_offset 15, 0
	{
		nop
		stw r4, sp[56]
	}
	{
		nop
		stw r5, sp[57]
	}
.Ltmp632:
	.cfi_offset 4, -32
.Ltmp633:
	.cfi_offset 5, -28
	{
		nop
		stw r6, sp[58]
	}
	{
		nop
		stw r7, sp[59]
	}
.Ltmp634:
	.cfi_offset 6, -24
.Ltmp635:
	.cfi_offset 7, -20
	{
		nop
		stw r8, sp[60]
	}
	{
		nop
		stw r9, sp[61]
	}
.Ltmp636:
	.cfi_offset 8, -16
.Ltmp637:
	.cfi_offset 9, -12
.Ltmp638:
	.cfi_offset 10, -8
.Ltmp639:
	{
		mov r4, r0
		stw r10, sp[62]
	}
.Ltmp640:
	{
		nop
		ldw r0, r4[1]
	}
	{
		nop
		ldw r0, r0[11]
	}
	.loc	1 1379 2 prologue_end
.Ltmp641:
	bl FLAC__bitreader_is_consumed_byte_aligned
	.loc	1 1379 2
	bl assert
	{
		nop
		ldw r0, r4[1]
	}
	{
		nop
		ldw r0, r0[11]
	}
	.loc	1 1381 6
.Ltmp642:
	ldw r2, cp[FLAC__STREAM_METADATA_IS_LAST_LEN]
	{
		ldaw r1, sp[54]
		nop
	}
.Ltmp643:
	.loc	1 1381 6
	bl FLAC__bitreader_read_raw_uint32
.Ltmp644:
	{
		ldc r5, 0
		nop
	}
	bf r0, .LBB34_226
.Ltmp645:
	{
		nop
		ldw r7, sp[54]
	}
	{
		nop
		ldw r0, r4[1]
	}
	{
		nop
		ldw r0, r0[11]
	}
	.loc	1 1385 6
.Ltmp646:
	ldw r2, cp[FLAC__STREAM_METADATA_TYPE_LEN]
	{
		ldaw r1, sp[53]
		nop
	}
.Ltmp647:
	.loc	1 1385 6
	bl FLAC__bitreader_read_raw_uint32
.Ltmp648:
	bf r0, .LBB34_226
.Ltmp649:
	{
		nop
		ldw r0, r4[1]
	}
	{
		nop
		ldw r0, r0[11]
	}
	.loc	1 1388 6
.Ltmp650:
	ldw r2, cp[FLAC__STREAM_METADATA_LENGTH_LEN]
	{
		ldaw r1, sp[52]
		nop
	}
.Ltmp651:
	.loc	1 1388 6
	bl FLAC__bitreader_read_raw_uint32
.Ltmp652:
	bf r0, .LBB34_226
.Ltmp653:
	.loc	1 1383 2
	{
		eq r0, r7, 0
		nop
	}
	{
		eq r9, r0, 0
		ldw r8, sp[53]
	}
	.loc	1 1391 5
.Ltmp654:
	{
		eq r0, r8, 3
		nop
	}
	bf r0, .LBB34_4
.Ltmp655:
	{
		nop
		ldw r0, r4[1]
	}
	ldc r1, 244
	.loc	1 1403 3
.Ltmp656:
	{
		add r1, r0, r1
		ldc r5, 0
	}
	{
		nop
		stw r5, r1[0]
	}
	{
		nop
		ldw r8, sp[52]
	}
.Ltmp657:
	{
		nop
		ldw r0, r0[11]
	}
	.loc	1 1641 2
.Ltmp658:
	bl FLAC__bitreader_is_consumed_byte_aligned
	.loc	1 1641 2
	bl assert
	{
		nop
		ldw r0, r4[1]
	}
	ldc r1, 424
	.loc	1 1643 2
	{
		add r1, r0, r1
		mkmsk r2, 2
	}
	{
		nop
		stw r2, r1[0]
	}
	ldc r1, 428
	.loc	1 1644 2
	{
		add r1, r0, r1
		nop
	}
	{
		nop
		stw r9, r1[0]
	}
	ldc r1, 432
	.loc	1 1645 2
	{
		add r1, r0, r1
		nop
	}
	{
		nop
		stw r8, r1[0]
	}
	ldw r1, cp[.LCPI34_0]
	.loc	1 1647 5
.Ltmp659:
	lmul r2, r3, r8, r1, r5, r5
	{
		shr r2, r2, 2
		ldc r3, 18
	}
	mul r2, r2, r3
	{
		sub r2, r8, r2
		nop
	}
	.loc	1 1647 5
	bf r2, .LBB34_24
.Ltmp660:
	{
		nop
		ldw r0, r0[11]
	}
	.loc	1 1648 3
.Ltmp661:
	bl FLAC__bitreader_limit_invalidate
	bu .LBB34_226
.Ltmp662:
.LBB34_4:
	{
		nop
		stw r7, sp[7]
	}
	bt r8, .LBB34_48
.Ltmp663:
	{
		nop
		ldw r8, sp[52]
	}
.Ltmp664:
	{
		nop
		ldw r0, r4[1]
	}
	{
		nop
		ldw r0, r0[11]
	}
	.loc	1 1568 2
.Ltmp665:
	bl FLAC__bitreader_is_consumed_byte_aligned
	.loc	1 1568 2
	bl assert
	{
		nop
		ldw r0, r4[1]
	}
	ldc r10, 248
	.loc	1 1570 2
	{
		add r1, r0, r10
		ldc r5, 0
	}
	{
		nop
		stw r5, r1[0]
	}
	ldc r1, 252
	.loc	1 1571 2
	{
		add r1, r0, r1
		nop
	}
	{
		nop
		stw r9, r1[0]
	}
	ldc r1, 256
	.loc	1 1572 2
	{
		add r1, r0, r1
		nop
	}
	{
		nop
		stw r8, r1[0]
	}
	.loc	1 1574 2
	ldw r6, cp[FLAC__STREAM_METADATA_STREAMINFO_MIN_BLOCK_SIZE_LEN]
.Ltmp666:
	.loc	1 1575 6
	{
		ldaw r1, sp[8]
		ldw r0, r0[11]
	}
.Ltmp667:
	.loc	1 1575 6
	{
		mov r2, r6
		nop
	}
	bl FLAC__bitreader_read_raw_uint32
	bf r0, .LBB34_226
.Ltmp668:
	{
		nop
		ldw r0, sp[8]
	}
	{
		nop
		ldw r1, r4[1]
	}
	ldc r2, 264
	.loc	1 1577 2
	{
		add r2, r1, r2
		nop
	}
	{
		nop
		stw r0, r2[0]
	}
	.loc	1 1580 2
	ldw r7, cp[FLAC__STREAM_METADATA_STREAMINFO_MAX_BLOCK_SIZE_LEN]
.Ltmp669:
	.loc	1 1581 6
	{
		ldaw r1, sp[8]
		ldw r0, r1[11]
	}
.Ltmp670:
	.loc	1 1581 6
	{
		mov r2, r7
		nop
	}
	bl FLAC__bitreader_read_raw_uint32
	bf r0, .LBB34_226
.Ltmp671:
	{
		nop
		ldw r0, sp[8]
	}
	{
		nop
		ldw r1, r4[1]
	}
	ldc r2, 268
	.loc	1 1583 2
	{
		add r2, r1, r2
		nop
	}
	{
		nop
		stw r0, r2[0]
	}
	.loc	1 1586 2
	ldw r9, cp[FLAC__STREAM_METADATA_STREAMINFO_MIN_FRAME_SIZE_LEN]
.Ltmp672:
	.loc	1 1587 6
	{
		ldaw r1, sp[8]
		ldw r0, r1[11]
	}
.Ltmp673:
	.loc	1 1587 6
	{
		mov r2, r9
		nop
	}
	bl FLAC__bitreader_read_raw_uint32
	bf r0, .LBB34_226
.Ltmp674:
	{
		nop
		ldw r0, sp[8]
	}
	{
		nop
		ldw r1, r4[1]
	}
	ldc r2, 272
	.loc	1 1589 2
	{
		add r2, r1, r2
		nop
	}
	{
		nop
		stw r0, r2[0]
	}
	.loc	1 1592 2
	ldw r2, cp[FLAC__STREAM_METADATA_STREAMINFO_MAX_FRAME_SIZE_LEN]
.Ltmp675:
	.loc	1 1593 6
	{
		ldaw r1, sp[8]
		ldw r0, r1[11]
	}
.Ltmp676:
	.loc	1 1593 6
	bl FLAC__bitreader_read_raw_uint32
	bf r0, .LBB34_226
.Ltmp677:
	{
		nop
		ldw r0, sp[8]
	}
	{
		nop
		ldw r1, r4[1]
	}
	ldc r2, 276
	.loc	1 1595 2
	{
		add r2, r1, r2
		nop
	}
	{
		nop
		stw r0, r2[0]
	}
	.loc	1 1598 2
	ldw r2, cp[FLAC__STREAM_METADATA_STREAMINFO_SAMPLE_RATE_LEN]
.Ltmp678:
	.loc	1 1599 6
	{
		ldaw r1, sp[8]
		ldw r0, r1[11]
	}
.Ltmp679:
	.loc	1 1599 6
	bl FLAC__bitreader_read_raw_uint32
	bf r0, .LBB34_226
.Ltmp680:
	{
		nop
		ldw r0, sp[8]
	}
	{
		nop
		ldw r1, r4[1]
	}
	ldc r2, 280
	.loc	1 1601 2
	{
		add r2, r1, r2
		nop
	}
	{
		nop
		stw r0, r2[0]
	}
	.loc	1 1604 2
	ldw r2, cp[FLAC__STREAM_METADATA_STREAMINFO_CHANNELS_LEN]
.Ltmp681:
	.loc	1 1605 6
	{
		ldaw r1, sp[8]
		ldw r0, r1[11]
	}
.Ltmp682:
	.loc	1 1605 6
	bl FLAC__bitreader_read_raw_uint32
	bf r0, .LBB34_226
.Ltmp683:
	{
		nop
		ldw r0, sp[8]
	}
	.loc	1 1607 2
	{
		add r0, r0, 1
		ldw r1, r4[1]
	}
	ldc r2, 284
	.loc	1 1607 2
	{
		add r2, r1, r2
		nop
	}
	{
		nop
		stw r0, r2[0]
	}
	.loc	1 1610 2
	ldw r2, cp[FLAC__STREAM_METADATA_STREAMINFO_BITS_PER_SAMPLE_LEN]
.Ltmp684:
	.loc	1 1611 6
	{
		ldaw r1, sp[8]
		ldw r0, r1[11]
	}
.Ltmp685:
	.loc	1 1611 6
	bl FLAC__bitreader_read_raw_uint32
	bf r0, .LBB34_226
.Ltmp686:
	{
		nop
		ldw r0, sp[8]
	}
	.loc	1 1613 2
	{
		add r0, r0, 1
		ldw r1, r4[1]
	}
	ldc r2, 288
	.loc	1 1613 2
	{
		add r2, r1, r2
		nop
	}
	{
		nop
		stw r0, r2[0]
	}
	.loc	1 1616 2
	ldw r2, cp[FLAC__STREAM_METADATA_STREAMINFO_TOTAL_SAMPLES_LEN]
.Ltmp687:
	{
		nop
		ldw r0, r1[11]
	}
	ldc r3, 296
	.loc	1 1617 6
.Ltmp688:
	{
		add r1, r1, r3
		nop
	}
.Ltmp689:
	.loc	1 1617 6
	bl FLAC__bitreader_read_raw_uint64
	bf r0, .LBB34_226
.Ltmp690:
	{
		nop
		ldw r1, r4[1]
	}
	{
		nop
		ldw r0, r1[11]
	}
	ldc r2, 304
	.loc	1 1621 6
.Ltmp691:
	{
		add r1, r1, r2
		ldc r2, 16
	}
	.loc	1 1621 6
	bl FLAC__bitreader_read_byte_block_aligned_no_crc
	bf r0, .LBB34_226
.Ltmp692:
	.loc	1 1584 2
	{
		add r0, r6, r7
		nop
	}
	.loc	1 1590 2
	{
		add r0, r0, r9
		nop
	}
	.loc	1 1592 2
	ldw r1, cp[FLAC__STREAM_METADATA_STREAMINFO_MAX_FRAME_SIZE_LEN]
	.loc	1 1596 2
	{
		add r0, r0, r1
		nop
	}
	.loc	1 1598 2
	ldw r1, cp[FLAC__STREAM_METADATA_STREAMINFO_SAMPLE_RATE_LEN]
	.loc	1 1602 2
	{
		add r0, r0, r1
		nop
	}
	.loc	1 1604 2
	ldw r1, cp[FLAC__STREAM_METADATA_STREAMINFO_CHANNELS_LEN]
	.loc	1 1608 2
	{
		add r0, r0, r1
		nop
	}
	.loc	1 1610 2
	ldw r1, cp[FLAC__STREAM_METADATA_STREAMINFO_BITS_PER_SAMPLE_LEN]
	.loc	1 1614 2
	{
		add r0, r0, r1
		nop
	}
	.loc	1 1616 2
	ldw r1, cp[FLAC__STREAM_METADATA_STREAMINFO_TOTAL_SAMPLES_LEN]
	.loc	1 1619 2
	{
		add r0, r0, r1
		nop
	}
	ldc r1, 128
	.loc	1 1623 2
	{
		add r6, r0, r1
		nop
	}
.Ltmp693:
	.loc	1 1626 2
	{
		mov r0, r6
		nop
	}
	{
		zext r0, 3
		nop
	}
	.loc	1 1626 2
	{
		eq r0, r0, 0
		nop
	}
	.loc	1 1626 2
	bl assert
	.loc	1 1627 6
.Ltmp694:
	{
		shr r0, r6, 3
		nop
	}
	.loc	1 1627 6
	{
		lsu r1, r8, r0
		nop
	}
	bt r1, .LBB34_226
.Ltmp695:
	.loc	1 1629 2
	{
		sub r1, r8, r0
		ldw r0, r4[1]
	}
.Ltmp696:
	{
		nop
		ldw r0, r0[11]
	}
	.loc	1 1630 6
.Ltmp697:
	bl FLAC__bitreader_skip_byte_block_aligned_no_crc
	{
		nop
		ldw r6, sp[7]
	}
	bf r0, .LBB34_226
.Ltmp698:
	{
		nop
		ldw r5, r4[1]
	}
	ldc r0, 240
	.loc	1 1395 3
	{
		add r0, r5, r0
		mkmsk r1, 1
	}
	{
		nop
		stw r1, r0[0]
	}
	ldc r0, 304
	.loc	1 1396 11
.Ltmp699:
	{
		add r0, r5, r0
		nop
	}
	.loc	1 1396 11
	ldaw r11, cp[.L.str38]
	{
		ldc r2, 16
		mov r1, r11
	}
	bl memcmp
	bt r0, .LBB34_18
.Ltmp700:
	ldc r0, 4672
	.loc	1 1397 4
	{
		add r0, r5, r0
		ldc r1, 0
	}
	{
		nop
		stw r1, r0[0]
	}
.Ltmp701:
.LBB34_18:
	ldc r0, 4680
	.loc	1 1398 6
.Ltmp702:
	{
		add r0, r5, r0
		nop
	}
	{
		nop
		ldw r0, r0[0]
	}
	bt r0, .LBB34_39
.Ltmp703:
	ldc r0, 600
	.loc	1 1398 6
	{
		add r0, r5, r0
		nop
	}
	{
		nop
		ldw r0, r0[0]
	}
	bf r0, .LBB34_39
.Ltmp704:
	{
		nop
		ldw r3, r5[7]
	}
	bf r3, .LBB34_39
.Ltmp705:
	.loc	1 1399 4
	{
		add r1, r5, r10
		ldw r2, r5[9]
	}
	bu .LBB34_38
.Ltmp706:
.LBB34_48:
	{
		nop
		ldw r10, r4[1]
	}
	.loc	1 1413 3
.Ltmp707:
	ldaw r0, r10[r8]
	ldc r1, 600
	{
		add r0, r0, r1
		nop
	}
	{
		nop
		ldw r0, r0[0]
	}
	.loc	1 1413 3
	{
		eq r0, r0, 0
		nop
	}
	{
		nop
		stw r0, sp[6]
	}
.Ltmp708:
	.loc	1 1414 3
	{
		ldaw r6, sp[8]
		ldw r7, sp[52]
	}
.Ltmp709:
	{
		ldc r5, 0
		nop
	}
	ldc r2, 176
	.loc	1 1417 3
	{
		mov r0, r6
		mov r1, r5
	}
	bl memset
	{
		ldc r0, 4
		nop
	}
	.loc	1 1418 3
	{
		or r0, r6, r0
		nop
	}
.Ltmp710:
	.loc	1 1418 3
	{
		mov r9, r7
		stw r9, r0[0]
	}
.Ltmp711:
	{
		nop
		stw r8, sp[8]
	}
	.loc	1 1420 3
	{
		eq r0, r8, 2
		stw r9, sp[10]
	}
	.loc	1 1422 6
.Ltmp712:
	bf r0, .LBB34_49
.Ltmp713:
	.loc	1 1423 8
	{
		ldaw r1, sp[12]
		ldw r0, r10[11]
	}
.Ltmp714:
	.loc	1 1423 8
	ldw r2, cp[FLAC__STREAM_METADATA_APPLICATION_ID_LEN]
.Ltmp715:
	.loc	1 1423 8
	{
		shr r8, r2, 3
		mov r7, r1
	}
.Ltmp716:
	.loc	1 1423 8
	{
		mov r2, r8
		nop
	}
	bl FLAC__bitreader_read_byte_block_aligned_no_crc
	bf r0, .LBB34_225
.Ltmp717:
	.loc	1 1426 7
	{
		lsu r0, r9, r8
		nop
	}
	bf r0, .LBB34_53
.Ltmp718:
	.loc	1 1427 5
	{
		ldc r1, 8
		ldw r0, r4[0]
	}
	{
		nop
		stw r1, r0[0]
	}
	bu .LBB34_225
.Ltmp719:
.LBB34_24:
	{
		ldc r9, 0
		nop
	}
	.loc	1 1652 2
.Ltmp720:
	lmul r1, r2, r8, r1, r9, r9
	{
		shr r1, r1, 2
		nop
	}
.Ltmp721:
	ldc r2, 440
	.loc	1 1652 2
	{
		add r2, r0, r2
		nop
	}
	{
		nop
		stw r1, r2[0]
	}
	ldc r10, 444
	.loc	1 1655 66
.Ltmp722:
	{
		add r0, r0, r10
		nop
	}
.Ltmp723:
	.loc	1 1655 66
	{
		shr r0, r8, 1
		ldw r6, r0[0]
	}
	{
		ldc r2, 8
		nop
	}
	.loc	15 275 5
.Ltmp724:
	{
		lsu r0, r2, r0
		nop
	}
	bt r0, .LBB34_43
.Ltmp725:
	{
		ldc r1, 0
		stw r7, sp[7]
	}
	.loc	15 276 10
	{
		mov r0, r6
		nop
	}
	bl realloc
.Ltmp726:
.LBB34_26:
	{
		nop
		ldw r1, r4[1]
	}
	.loc	1 1655 66
	{
		add r2, r1, r10
		nop
	}
	{
		nop
		stw r0, r2[0]
	}
	bf r0, .LBB34_47
.Ltmp727:
	ldc r0, 440
	.loc	1 1659 2
.Ltmp728:
	{
		add r0, r1, r0
		nop
	}
	{
		nop
		ldw r0, r0[0]
	}
	bf r0, .LBB34_34
.Ltmp729:
	{
		ldc r6, 0
		ldc r7, 16
	}
	{
		ldaw r9, sp[8]
		nop
	}
.Ltmp730:
.LBB34_29:
	.loc	1 1660 7
	{
		mov r1, r9
		ldw r0, r1[11]
	}
	.loc	1 1660 7
	ldw r2, cp[FLAC__STREAM_METADATA_SEEKPOINT_SAMPLE_NUMBER_LEN]
	.loc	1 1660 7
	bl FLAC__bitreader_read_raw_uint64
	bf r0, .LBB34_226
.Ltmp731:
	.loc	1 1662 3
	ldd r1, r0, sp[4]
	{
		nop
		ldw r2, r4[1]
	}
	.loc	1 1662 3
	{
		add r3, r2, r10
		nop
	}
	{
		nop
		ldw r3, r3[0]
	}
	{
		add r3, r3, r7
		nop
	}
	ldaw r3, r3[-4]
	.loc	1 1662 3
	std r1, r0, r3[0]
	.loc	1 1664 7
.Ltmp732:
	{
		mov r1, r9
		ldw r0, r2[11]
	}
	.loc	1 1664 7
	ldw r2, cp[FLAC__STREAM_METADATA_SEEKPOINT_STREAM_OFFSET_LEN]
	.loc	1 1664 7
	bl FLAC__bitreader_read_raw_uint64
	bf r0, .LBB34_226
.Ltmp733:
	.loc	1 1666 3
	ldd r1, r0, sp[4]
	{
		nop
		ldw r2, r4[1]
	}
	.loc	1 1666 3
	{
		add r3, r2, r10
		nop
	}
	{
		nop
		ldw r3, r3[0]
	}
	{
		add r3, r3, r7
		nop
	}
	{
		sub r3, r3, 8
		nop
	}
	.loc	1 1666 3
	std r1, r0, r3[0]
.Ltmp734:
	.loc	1 1668 7
	{
		ldaw r1, sp[55]
		ldw r0, r2[11]
	}
	.loc	1 1668 7
	ldw r2, cp[FLAC__STREAM_METADATA_SEEKPOINT_FRAME_SAMPLES_LEN]
	.loc	1 1668 7
	bl FLAC__bitreader_read_raw_uint32
	bf r0, .LBB34_226
.Ltmp735:
	{
		nop
		ldw r0, sp[55]
	}
	{
		nop
		ldw r1, r4[1]
	}
	ldc r2, 440
	.loc	1 1670 3
	{
		add r2, r1, r2
		add r3, r1, r10
	}
	{
		nop
		ldw r3, r3[0]
	}
	{
		add r3, r3, r7
		nop
	}
.Ltmp736:
	.loc	1 1670 3
	{
		add r6, r6, 1
		stw r0, r3[0]
	}
.Ltmp737:
	{
		nop
		ldw r0, r2[0]
	}
.Ltmp738:
	.loc	1 1659 2
	ldaw r7, r7[6]
	.loc	1 1659 2
	{
		lsu r2, r6, r0
		nop
	}
	bt r2, .LBB34_29
.Ltmp739:
	ldw r1, cp[.LCPI34_2]
	.loc	1 1659 2
	mul r9, r0, r1
.Ltmp740:
.LBB34_34:
	.loc	1 1674 2
	{
		neg r0, r8
		nop
	}
	.loc	1 1674 2
	{
		eq r0, r9, r0
		nop
	}
	.loc	1 1674 2
	bl assert
	{
		nop
		ldw r0, r4[1]
	}
	ldc r1, 244
.Ltmp741:
	.loc	1 1408 3
	{
		add r1, r0, r1
		mkmsk r2, 1
	}
	{
		nop
		stw r2, r1[0]
	}
	ldc r1, 4680
	.loc	1 1409 6
.Ltmp742:
	{
		add r1, r0, r1
		nop
	}
	{
		nop
		ldw r1, r1[0]
	}
	{
		nop
		ldw r6, sp[7]
	}
	bt r1, .LBB34_39
.Ltmp743:
	ldc r1, 612
	.loc	1 1409 6
	{
		add r1, r0, r1
		nop
	}
	{
		nop
		ldw r1, r1[0]
	}
	bf r1, .LBB34_39
.Ltmp744:
	{
		nop
		ldw r3, r0[7]
	}
	bf r3, .LBB34_39
.Ltmp745:
	ldc r1, 424
	.loc	1 1410 4
	{
		add r1, r0, r1
		ldw r2, r0[9]
	}
.Ltmp746:
.LBB34_38:
	.loc	1 1410 4
	{
		mov r0, r4
		nop
	}
	{
		nop
		bla r3
	}
	bu .LBB34_39
.Ltmp747:
.LBB34_49:
	{
		nop
		ldw r1, sp[6]
	}
.Ltmp748:
.LBB34_62:
	{
		nop
		ldw r0, r10[11]
	}
	.loc	1 1437 6
.Ltmp749:
	bf r1, .LBB34_65
.Ltmp750:
	.loc	1 1438 8
	{
		mov r1, r9
		nop
	}
	bl FLAC__bitreader_skip_byte_block_aligned_no_crc
	bt r0, .LBB34_64
	bu .LBB34_225
.Ltmp751:
.LBB34_43:
	ldw r0, cp[.LCPI34_1]
	.loc	15 277 5
.Ltmp752:
	{
		lsu r0, r8, r0
		nop
	}
	bf r0, .LBB34_46
.Ltmp753:
	{
		ldc r0, 24
		stw r7, sp[7]
	}
	.loc	15 281 9
	mul r7, r1, r0
.Ltmp754:
	.loc	15 206 17
	{
		mov r0, r6
		mov r1, r7
	}
.Ltmp755:
	bl realloc
.Ltmp756:
	bf r7, .LBB34_26
.Ltmp757:
	bt r0, .LBB34_26
.Ltmp758:
.LBB34_46:
	.loc	15 208 3
	{
		mov r0, r6
		nop
	}
	bl free
.Ltmp759:
	{
		nop
		ldw r0, r4[1]
	}
.Ltmp760:
	.loc	1 1655 66
	{
		add r0, r0, r10
		nop
	}
	{
		nop
		stw r9, r0[0]
	}
.Ltmp761:
.LBB34_47:
	.loc	1 1656 3
	{
		ldc r1, 8
		ldw r0, r4[0]
	}
	{
		nop
		stw r1, r0[0]
	}
	bu .LBB34_226
.Ltmp762:
.LBB34_65:
	.loc	1 1443 4
	{
		shl r1, r9, 3
		nop
	}
	.loc	1 1443 4
	bl FLAC__bitreader_set_limit
	.loc	1 1444 4
	{
		ldc r8, 6
		ldw r0, sp[53]
	}
	.loc	1 1444 4
	{
		lsu r1, r8, r0
		nop
	}
	bf r1, .LBB34_66
.Ltmp763:
	.loc	1 1480 9
	bf r9, .LBB34_186
.Ltmp764:
	.loc	1 1481 42
	{
		mov r0, r9
		nop
	}
	bl malloc
	{
		mov r1, r0
		nop
	}
	{
		nop
		stw r1, sp[12]
	}
	bt r1, .LBB34_185
	bu .LBB34_71
.Ltmp765:
.LBB34_53:
	.loc	1 1431 4
	{
		sub r9, r9, r8
		ldw r10, r4[1]
	}
.Ltmp766:
	ldc r5, 1116
	.loc	1 1433 7
.Ltmp767:
	{
		add r0, r10, r5
		nop
	}
	{
		nop
		ldw r0, r0[0]
	}
	bf r0, .LBB34_55
.Ltmp768:
	{
		mkmsk r0, 1
		nop
	}
	.loc	1 1299 2
.Ltmp769:
	bl assert
	{
		nop
		ldw r0, r4[1]
	}
	.loc	1 1300 2
	{
		eq r0, r0, 0
		nop
	}
	{
		eq r0, r0, 0
		nop
	}
	.loc	1 1300 2
	bl assert
.Ltmp770:
	{
		nop
		ldw r10, r4[1]
	}
	.loc	1 1302 2
.Ltmp771:
	{
		add r0, r10, r5
		nop
	}
	{
		nop
		ldw r6, r0[0]
	}
	.loc	1 1302 2
	bf r6, .LBB34_55
.Ltmp772:
	{
		nop
		stw r9, sp[5]
	}
.Ltmp773:
	{
		nop
		ldw r0, sp[6]
	}
	.loc	1 1413 3
	{
		eq r0, r0, 0
		nop
	}
	{
		nop
		stw r0, sp[4]
	}
	ldc r0, 1112
	.loc	1 1433 59
.Ltmp774:
	{
		add r0, r10, r0
		nop
	}
	.loc	1 1303 11
.Ltmp775:
	{
		ldc r5, 0
		ldw r9, r0[0]
	}
.Ltmp776:
.LBB34_59:
	.loc	1 1303 11
	{
		mov r0, r9
		mov r1, r7
	}
	{
		mov r2, r8
		nop
	}
	bl memcmp
	.loc	1 1303 11
	bf r0, .LBB34_60
.Ltmp777:
	.loc	1 1302 63
	{
		add r5, r5, 1
		add r9, r9, r8
	}
.Ltmp778:
	.loc	1 1302 2
	{
		lsu r0, r5, r6
		nop
	}
	bt r0, .LBB34_59
.Ltmp779:
	{
		ldc r5, 0
		ldw r1, sp[6]
	}
	bu .LBB34_61
.Ltmp780:
.LBB34_66:

	.xtabranch .Ljumptable1+4,.Ljumptable1+8,.Ljumptable1+12,.Ljumptable1+16,.Ljumptable1+20,.Ljumptable1+24,.Ljumptable1+28
.Ljumptable1:
		
	{
		nop
		bru r0
	}
	.jmptable32 .LBB34_182,.LBB34_67,.LBB34_69,.LBB34_182,.LBB34_73,.LBB34_116,.LBB34_148
.Ltmp781:
.LBB34_182:
	{
		ldc r0, 0
		nop
	}
	.loc	1 1477 6
.Ltmp782:
	bl assert
	bu .LBB34_187
.Ltmp783:
.LBB34_55:
	{
		ldc r5, 0
		ldw r1, sp[6]
	}
	bu .LBB34_62
.Ltmp784:
.LBB34_186:
	{
		ldc r0, 0
		nop
	}
	{
		nop
		stw r0, sp[12]
	}
.Ltmp785:
.LBB34_187:
	{
		mkmsk r5, 1
		nop
	}
	bu .LBB34_188
.LBB34_60:
.Ltmp786:
	{
		ldc r5, 0
		ldw r1, sp[4]
	}
.Ltmp787:
.LBB34_61:
	{
		nop
		ldw r9, sp[5]
	}
	bu .LBB34_62
.LBB34_67:
.Ltmp788:
	{
		nop
		ldw r0, r4[1]
	}
	.loc	1 1447 10
.Ltmp789:
	{
		mov r1, r9
		ldw r0, r0[11]
	}
	.loc	1 1447 10
	bl FLAC__bitreader_skip_byte_block_aligned_no_crc
	bu .LBB34_68
.Ltmp790:
.LBB34_69:
	.loc	1 1452 9
	bf r9, .LBB34_72
.Ltmp791:
	.loc	1 1453 46
	{
		mov r0, r9
		nop
	}
	bl malloc
	{
		mov r1, r0
		nop
	}
	{
		nop
		stw r1, sp[13]
	}
	bf r1, .LBB34_71
.Ltmp792:
.LBB34_185:
	{
		nop
		ldw r0, r4[1]
	}
	.loc	1 1457 16
.Ltmp793:
	{
		mov r2, r9
		ldw r0, r0[11]
	}
	.loc	1 1457 16
	bl FLAC__bitreader_read_byte_block_aligned_no_crc
.Ltmp794:
.LBB34_68:
	.loc	1 1447 10
	{
		eq r0, r0, 0
		nop
	}
	{
		eq r5, r0, 0
		nop
	}
	bu .LBB34_188
.Ltmp795:
.LBB34_71:
	.loc	1 1454 8
	{
		ldc r1, 8
		ldw r0, r4[0]
	}
	.loc	1 1454 8
	{
		ldc r5, 0
		stw r1, r0[0]
	}
	bu .LBB34_188
.Ltmp796:
.LBB34_73:
	{
		nop
		ldw r0, r4[1]
	}
	{
		nop
		ldw r0, r0[11]
	}
	.loc	1 1683 2
.Ltmp797:
	bl FLAC__bitreader_is_consumed_byte_aligned
	.loc	1 1683 2
	bl assert
	{
		mov r1, r9
		ldc r9, 8
	}
	.loc	1 1686 6
.Ltmp798:
	{
		lsu r0, r1, r9
		mov r7, r1
	}
	bt r0, .LBB34_105
.Ltmp799:
	.loc	1 1464 10
	{
		ldaw r5, sp[12]
		nop
	}
	.loc	1 1688 3
.Ltmp800:
	ldw r0, cp[FLAC__STREAM_METADATA_VORBIS_COMMENT_ENTRY_LENGTH_LEN]
	{
		ldc r10, 32
		nop
	}
	.loc	1 1688 3
	{
		eq r6, r0, r10
		nop
	}
	.loc	1 1688 3
	{
		mov r0, r6
		nop
	}
	bl assert
	{
		nop
		ldw r0, r4[1]
	}
	.loc	1 1689 8
.Ltmp801:
	{
		mov r1, r5
		ldw r0, r0[11]
	}
	.loc	1 1689 8
	bl FLAC__bitreader_read_uint32_little_endian
	{
		ldc r5, 0
		nop
	}
	bf r0, .LBB34_188
.Ltmp802:
	.loc	1 1687 3
	{
		sub r5, r7, 8
		ldw r7, sp[12]
	}
.Ltmp803:
	.loc	1 1691 7
	bf r7, .LBB34_88
.Ltmp804:
	.loc	1 1692 8
	{
		lsu r0, r5, r7
		nop
	}
	bf r0, .LBB34_81
.Ltmp805:
	{
		ldc r0, 0
		nop
	}
	{
		nop
		stw r0, sp[12]
	}
	{
		nop
		stw r0, sp[13]
	}
.Ltmp806:
.LBB34_78:
	bf r5, .LBB34_187
.Ltmp807:
	{
		nop
		ldw r0, sp[14]
	}
	bt r0, .LBB34_105
.Ltmp808:
	{
		nop
		ldw r0, sp[15]
	}
	.loc	1 1780 4
.Ltmp809:
	bl free
	{
		ldc r0, 0
		nop
	}
	{
		nop
		stw r0, sp[15]
	}
.Ltmp810:
.LBB34_105:
	{
		nop
		ldw r0, r4[1]
	}
	{
		nop
		ldw r0, r0[11]
	}
	.loc	1 1772 3
.Ltmp811:
	bl FLAC__bitreader_limit_invalidate
	{
		ldc r5, 0
		nop
	}
	bu .LBB34_188
.Ltmp812:
.LBB34_116:
	{
		nop
		ldw r0, r4[1]
	}
	{
		nop
		ldw r0, r0[11]
	}
	.loc	1 1794 2
.Ltmp813:
	bl FLAC__bitreader_is_consumed_byte_aligned
	.loc	1 1794 2
	bl assert
	.loc	1 1796 2
	{
		ldaw r6, sp[12]
		ldc r1, 0
	}
	ldc r2, 160
	.loc	1 1796 2
	{
		mov r0, r6
		mov r7, r1
	}
	bl memset
	.loc	1 1798 2
	ldw r5, cp[FLAC__STREAM_METADATA_CUESHEET_MEDIA_CATALOG_NUMBER_LEN]
	.loc	1 1798 2
	{
		mov r0, r5
		nop
	}
	{
		zext r0, 3
		nop
	}
	.loc	1 1798 2
	{
		eq r0, r0, 0
		nop
	}
	.loc	1 1798 2
	bl assert
	{
		nop
		ldw r0, r4[1]
	}
	.loc	1 1799 6
.Ltmp814:
	{
		shr r2, r5, 3
		ldw r0, r0[11]
	}
	.loc	1 1799 6
	{
		mov r1, r6
		nop
	}
	bl FLAC__bitreader_read_byte_block_aligned_no_crc
	.loc	1 1799 6
	bf r0, .LBB34_117
.Ltmp815:
	{
		nop
		ldw r0, r4[1]
	}
	.loc	1 1802 6
.Ltmp816:
	{
		ldaw r1, sp[46]
		ldw r0, r0[11]
	}
	.loc	1 1802 6
	ldw r2, cp[FLAC__STREAM_METADATA_CUESHEET_LEAD_IN_LEN]
	.loc	1 1802 6
	bl FLAC__bitreader_read_raw_uint64
	.loc	1 1802 6
	bf r0, .LBB34_119
.Ltmp817:
	{
		nop
		ldw r0, r4[1]
	}
	{
		nop
		ldw r0, r0[11]
	}
	.loc	1 1805 6
.Ltmp818:
	ldw r2, cp[FLAC__STREAM_METADATA_CUESHEET_IS_CD_LEN]
	{
		ldaw r1, sp[55]
		nop
	}
.Ltmp819:
	.loc	1 1805 6
	bl FLAC__bitreader_read_raw_uint32
.Ltmp820:
	{
		mov r5, r7
		nop
	}
	bf r0, .LBB34_188
.Ltmp821:
	{
		nop
		ldw r0, sp[55]
	}
	.loc	1 1807 2
	{
		eq r0, r0, 0
		nop
	}
	{
		eq r0, r0, 0
		nop
	}
	{
		nop
		stw r0, sp[48]
	}
	{
		nop
		ldw r0, r4[1]
	}
	{
		nop
		ldw r0, r0[11]
	}
	.loc	1 1809 6
.Ltmp822:
	ldw r1, cp[FLAC__STREAM_METADATA_CUESHEET_RESERVED_LEN]
	.loc	1 1809 6
	bl FLAC__bitreader_skip_bits_no_crc
	bf r0, .LBB34_188
.Ltmp823:
	{
		nop
		ldw r0, r4[1]
	}
	{
		nop
		ldw r0, r0[11]
	}
	.loc	1 1812 6
.Ltmp824:
	ldw r2, cp[FLAC__STREAM_METADATA_CUESHEET_NUM_TRACKS_LEN]
	{
		ldaw r1, sp[55]
		nop
	}
.Ltmp825:
	.loc	1 1812 6
	bl FLAC__bitreader_read_raw_uint32
.Ltmp826:
	bf r0, .LBB34_188
.Ltmp827:
	{
		nop
		ldw r0, sp[55]
	}
.Ltmp828:
	.loc	1 1814 2
	{
		mkmsk r1, 1
		stw r0, sp[49]
	}
	.loc	1 1816 5
.Ltmp829:
	bf r0, .LBB34_124
.Ltmp830:
	{
		ldc r1, 32
		nop
	}
	.loc	15 121 9
.Ltmp831:
	bl calloc
.Ltmp832:
	{
		mov r9, r0
		nop
	}
	{
		nop
		stw r9, sp[50]
	}
	bf r9, .LBB34_157
.Ltmp833:
	.loc	1 1823 8
	ldw r2, cp[FLAC__STREAM_METADATA_CUESHEET_TRACK_OFFSET_LEN]
	{
		nop
		ldw r0, r4[1]
	}
	.loc	1 1823 8
	{
		mov r1, r9
		ldw r0, r0[11]
	}
	.loc	1 1823 8
	bl FLAC__bitreader_read_raw_uint64
	{
		ldc r1, 0
		nop
	}
	{
		nop
		stw r1, sp[6]
	}
	.loc	1 1823 8
	bf r0, .LBB34_127
.Ltmp834:
	.loc	1 1830 4
	ldw r0, cp[FLAC__STREAM_METADATA_CUESHEET_TRACK_ISRC_LEN]
	.loc	1 1831 8
.Ltmp835:
	{
		shr r1, r0, 3
		nop
	}
.Ltmp836:
	.loc	1 1830 4
	{
		zext r0, 3
		stw r1, sp[3]
	}
	.loc	1 1830 4
	{
		eq r0, r0, 0
		nop
	}
	.loc	1 1834 8
.Ltmp837:
	{
		ldc r10, 0
		stw r0, sp[2]
	}
.Ltmp838:
.LBB34_129:
	{
		nop
		ldw r0, r4[1]
	}
	.loc	1 1826 8
.Ltmp839:
	{
		ldaw r1, sp[55]
		ldw r0, r0[11]
	}
	.loc	1 1826 8
	ldw r2, cp[FLAC__STREAM_METADATA_CUESHEET_TRACK_NUMBER_LEN]
	.loc	1 1826 8
	bl FLAC__bitreader_read_raw_uint32
	bf r0, .LBB34_147
.Ltmp840:
	{
		nop
		ldw r0, sp[55]
	}
	{
		nop
		ldw r1, sp[6]
	}
	.loc	1 1828 4
	{
		shl r1, r1, 5
		nop
	}
	{
		add r5, r9, r1
		ldc r1, 8
	}
	.loc	1 1828 4
	st8 r0, r5[r1]
	{
		nop
		ldw r0, sp[2]
	}
	.loc	1 1830 4
	bl assert
	{
		nop
		ldw r0, r4[1]
	}
	.loc	1 1831 8
.Ltmp841:
	{
		add r1, r5, 9
		ldw r0, r0[11]
	}
	{
		nop
		ldw r2, sp[3]
	}
	.loc	1 1831 8
	bl FLAC__bitreader_read_byte_block_aligned_no_crc
	bf r0, .LBB34_147
.Ltmp842:
	{
		nop
		ldw r0, r4[1]
	}
	.loc	1 1834 8
.Ltmp843:
	{
		ldaw r1, sp[55]
		ldw r0, r0[11]
	}
	.loc	1 1834 8
	ldw r2, cp[FLAC__STREAM_METADATA_CUESHEET_TRACK_TYPE_LEN]
	.loc	1 1834 8
	bl FLAC__bitreader_read_raw_uint32
	bf r0, .LBB34_147
.Ltmp844:
	{
		ldaw r1, sp[55]
		nop
	}
.Ltmp845:
	.loc	1 1836 4
	{
		ldc r2, 22
		ld8u r0, r1[r10]
	}
	{
		mov r3, r2
		nop
	}
	.loc	1 1836 4
	{
		zext r0, 1
		ld8u r2, r5[r3]
	}
	ldc r11, 254
	.loc	1 1836 4
	{
		and r2, r2, r11
		nop
	}
	.loc	1 1836 4
	{
		or r0, r2, r0
		nop
	}
	.loc	1 1836 4
	st8 r0, r5[r3]
	{
		nop
		ldw r0, r4[1]
	}
	{
		nop
		ldw r0, r0[11]
	}
	.loc	1 1838 8
.Ltmp846:
	ldw r2, cp[FLAC__STREAM_METADATA_CUESHEET_TRACK_PRE_EMPHASIS_LEN]
.Ltmp847:
	.loc	1 1838 8
	bl FLAC__bitreader_read_raw_uint32
	bf r0, .LBB34_147
.Ltmp848:
	{
		ldc r0, 22
		nop
	}
	.loc	1 1836 4
	{
		add r0, r5, r0
		ldaw r1, sp[55]
	}
	{
		nop
		ld8u r1, r1[r10]
	}
	.loc	1 1840 4
	{
		shl r1, r1, 1
		ld8u r2, r0[r10]
	}
	{
		ldc r3, 2
		nop
	}
	.loc	1 1840 4
	{
		and r1, r1, r3
		nop
	}
	ldc r3, 253
	.loc	1 1840 4
	{
		and r2, r2, r3
		nop
	}
	.loc	1 1840 4
	{
		or r1, r1, r2
		nop
	}
	.loc	1 1840 4
	st8 r1, r0[r10]
	{
		nop
		ldw r0, r4[1]
	}
	{
		nop
		ldw r0, r0[11]
	}
	.loc	1 1842 8
.Ltmp849:
	ldw r1, cp[FLAC__STREAM_METADATA_CUESHEET_TRACK_RESERVED_LEN]
	.loc	1 1842 8
	bl FLAC__bitreader_skip_bits_no_crc
	bf r0, .LBB34_147
.Ltmp850:
	{
		nop
		ldw r0, r4[1]
	}
	.loc	1 1845 8
.Ltmp851:
	{
		ldaw r1, sp[55]
		ldw r0, r0[11]
	}
	.loc	1 1845 8
	ldw r2, cp[FLAC__STREAM_METADATA_CUESHEET_TRACK_NUM_INDICES_LEN]
	.loc	1 1845 8
	bl FLAC__bitreader_read_raw_uint32
	bf r0, .LBB34_147
.Ltmp852:
	.loc	1 1847 4
	{
		ldc r1, 23
		ldw r0, sp[55]
	}
	.loc	1 1847 4
	st8 r0, r5[r1]
	.loc	1 1849 7
.Ltmp853:
	{
		zext r0, 8
		nop
	}
.Ltmp854:
	bf r0, .LBB34_145
.Ltmp855:
	{
		ldc r1, 16
		nop
	}
	.loc	15 121 9
.Ltmp856:
	bl calloc
.Ltmp857:
	{
		mov r9, r0
		nop
	}
	{
		nop
		stw r9, r5[6]
	}
.Ltmp858:
	.loc	1 1850 31
	bf r9, .LBB34_140
.Ltmp859:
	{
		ldc r0, 23
		nop
	}
	.loc	1 1847 4
	{
		add r0, r5, r0
		nop
	}
	{
		nop
		stw r0, sp[5]
	}
	{
		nop
		ld8u r0, r0[r10]
	}
	bf r0, .LBB34_145
.Ltmp860:
	{
		nop
		ldw r0, r4[1]
	}
	.loc	1 1856 10
.Ltmp861:
	{
		mov r1, r9
		ldw r0, r0[11]
	}
	.loc	1 1856 10
	ldw r2, cp[FLAC__STREAM_METADATA_CUESHEET_INDEX_OFFSET_LEN]
	.loc	1 1856 10
	bl FLAC__bitreader_read_raw_uint64
	bf r0, .LBB34_147
.Ltmp862:
	.loc	1 1850 31
	ldaw r0, r5[6]
	{
		ldc r7, 8
		stw r0, sp[4]
	}
	{
		mov r6, r10
		nop
	}
.Ltmp863:
.LBB34_143:
	{
		nop
		ldw r0, r4[1]
	}
	.loc	1 1859 10
.Ltmp864:
	{
		ldaw r1, sp[55]
		ldw r0, r0[11]
	}
	.loc	1 1859 10
	ldw r2, cp[FLAC__STREAM_METADATA_CUESHEET_INDEX_NUMBER_LEN]
	.loc	1 1859 10
	bl FLAC__bitreader_read_raw_uint32
	{
		mov r5, r10
		nop
	}
	bf r0, .LBB34_188
.Ltmp865:
	{
		nop
		ldw r0, sp[55]
	}
	.loc	1 1861 6
	st8 r0, r9[r7]
	{
		nop
		ldw r0, r4[1]
	}
	{
		nop
		ldw r0, r0[11]
	}
	.loc	1 1863 10
.Ltmp866:
	ldw r1, cp[FLAC__STREAM_METADATA_CUESHEET_INDEX_RESERVED_LEN]
	.loc	1 1863 10
	bl FLAC__bitreader_skip_bits_no_crc
	bf r0, .LBB34_188
.Ltmp867:
	.loc	1 1854 40
	{
		add r6, r6, 1
		ldw r0, sp[5]
	}
.Ltmp868:
	.loc	1 1854 5
	{
		mov r10, r5
		ld8u r0, r0[r5]
	}
	.loc	1 1854 5
	{
		lsu r0, r6, r0
		nop
	}
	bf r0, .LBB34_145
.Ltmp869:
	.loc	1 1854 5
	ldaw r5, r7[4]
	{
		nop
		ldw r0, sp[4]
	}
	{
		nop
		ldw r9, r0[0]
	}
	{
		nop
		ldw r0, r4[1]
	}
	.loc	1 1856 10
.Ltmp870:
	{
		add r1, r9, r7
		ldw r0, r0[11]
	}
	{
		add r1, r1, 8
		nop
	}
	.loc	1 1856 10
	ldw r2, cp[FLAC__STREAM_METADATA_CUESHEET_INDEX_OFFSET_LEN]
	.loc	1 1856 10
	bl FLAC__bitreader_read_raw_uint64
	{
		mov r7, r5
		nop
	}
	bt r0, .LBB34_143
	bu .LBB34_147
.Ltmp871:
.LBB34_145:
	{
		nop
		ldw r1, sp[6]
	}
	.loc	1 1821 35
	{
		add r1, r1, 1
		nop
	}
.Ltmp872:
	.loc	1 1821 3
	{
		ldaw r0, sp[49]
		stw r1, sp[6]
	}
	{
		nop
		ldw r0, r0[0]
	}
	.loc	1 1821 3
	{
		lsu r0, r1, r0
		nop
	}
.Ltmp873:
	bf r0, .LBB34_187
.Ltmp874:
	.loc	1 1817 26
	{
		ldaw r0, sp[50]
		nop
	}
	{
		nop
		ldw r9, r0[0]
	}
	{
		nop
		ldw r0, r4[1]
	}
	{
		nop
		ldw r0, r0[11]
	}
	{
		nop
		ldw r1, sp[6]
	}
.Ltmp875:
	.loc	1 1823 8
	{
		shl r1, r1, 5
		nop
	}
	{
		add r1, r9, r1
		nop
	}
	.loc	1 1823 8
	ldw r2, cp[FLAC__STREAM_METADATA_CUESHEET_TRACK_OFFSET_LEN]
	.loc	1 1823 8
	bl FLAC__bitreader_read_raw_uint64
	bt r0, .LBB34_129
.Ltmp876:
.LBB34_147:
	{
		mov r5, r10
		nop
	}
	bu .LBB34_188
.Ltmp877:
.LBB34_148:
	{
		nop
		ldw r0, r4[1]
	}
	{
		nop
		ldw r0, r0[11]
	}
	.loc	1 1877 2
.Ltmp878:
	bl FLAC__bitreader_is_consumed_byte_aligned
	.loc	1 1877 2
	bl assert
	{
		nop
		ldw r0, r4[1]
	}
	{
		nop
		ldw r0, r0[11]
	}
	.loc	1 1880 6
.Ltmp879:
	ldw r2, cp[FLAC__STREAM_METADATA_PICTURE_TYPE_LEN]
	{
		ldaw r1, sp[55]
		nop
	}
.Ltmp880:
	.loc	1 1880 6
	bl FLAC__bitreader_read_raw_uint32
.Ltmp881:
	bf r0, .LBB34_188
.Ltmp882:
	.loc	1 1882 5
	{
		ldc r1, 21
		ldw r0, sp[55]
	}
	.loc	1 1882 5
	{
		lsu r1, r0, r1
		ldc r5, 0
	}
	bt r1, .LBB34_151
.Ltmp883:
	.loc	1 1883 3
	{
		mov r0, r5
		nop
	}
.Ltmp884:
.LBB34_151:
	{
		nop
		stw r0, sp[12]
	}
	{
		nop
		ldw r0, r4[1]
	}
	{
		nop
		ldw r0, r0[11]
	}
	.loc	1 1888 6
.Ltmp885:
	ldw r2, cp[FLAC__STREAM_METADATA_PICTURE_MIME_TYPE_LENGTH_LEN]
	{
		ldaw r1, sp[55]
		nop
	}
.Ltmp886:
	.loc	1 1888 6
	bl FLAC__bitreader_read_raw_uint32
.Ltmp887:
	bf r0, .LBB34_188
.Ltmp888:
	{
		nop
		ldw r0, r4[1]
	}
	{
		nop
		ldw r0, r0[11]
	}
	.loc	1 1890 5
.Ltmp889:
	bl FLAC__bitreader_limit_remaining
	{
		nop
		ldw r6, sp[55]
	}
	.loc	1 1890 5
	{
		lsu r0, r0, r6
		nop
	}
	bt r0, .LBB34_153
.Ltmp890:
	.loc	15 128 2
	{
		add r0, r6, 1
		nop
	}
	.loc	15 129 5
.Ltmp891:
	{
		lsu r1, r0, r6
		nop
	}
	bf r1, .LBB34_156
.Ltmp892:
	{
		ldc r0, 0
		nop
	}
	{
		nop
		stw r0, sp[13]
	}
	bu .LBB34_157
.Ltmp893:
.LBB34_72:
	{
		ldc r0, 0
		nop
	}
	{
		nop
		stw r0, sp[13]
	}
	bu .LBB34_187
.Ltmp894:
.LBB34_117:
	{
		mov r5, r7
		nop
	}
	bu .LBB34_188
.Ltmp895:
.LBB34_119:
	{
		mov r5, r7
		nop
	}
	bu .LBB34_188
.Ltmp896:
.LBB34_88:
	{
		ldc r0, 0
		nop
	}
	{
		nop
		stw r0, sp[13]
	}
.Ltmp897:
.LBB34_89:
	.loc	1 1711 3
	ldw r0, cp[FLAC__STREAM_METADATA_VORBIS_COMMENT_NUM_COMMENTS_LEN]
	.loc	1 1711 3
	{
		eq r0, r0, r10
		nop
	}
	.loc	1 1711 3
	bl assert
	{
		nop
		ldw r0, r4[1]
	}
	.loc	1 1712 8
.Ltmp898:
	{
		ldaw r1, sp[14]
		ldw r0, r0[11]
	}
	.loc	1 1712 8
	bl FLAC__bitreader_read_uint32_little_endian
	.loc	1 1712 8
	bf r0, .LBB34_90
.Ltmp899:
	{
		nop
		ldw r0, sp[14]
	}
	ldw r1, cp[.LCPI34_3]
	.loc	1 1716 7
.Ltmp900:
	{
		lsu r1, r0, r1
		nop
	}
	bt r1, .LBB34_93
.Ltmp901:
	{
		ldc r5, 0
		nop
	}
	{
		nop
		stw r5, sp[14]
	}
	bu .LBB34_188
.Ltmp902:
.LBB34_81:
	.loc	15 128 2
	{
		add r0, r7, 1
		nop
	}
	.loc	15 129 5
.Ltmp903:
	{
		lsu r1, r0, r7
		nop
	}
	bf r1, .LBB34_83
.Ltmp904:
	{
		ldc r0, 0
		nop
	}
	{
		nop
		stw r0, sp[13]
	}
	bu .LBB34_84
.Ltmp905:
.LBB34_156:
	.loc	15 93 5
	{
		eq r1, r0, 0
		nop
	}
	.loc	15 93 5
	{
		add r0, r1, r0
		nop
	}
.Ltmp906:
	.loc	15 95 9
	bl malloc
	{
		mov r1, r0
		nop
	}
	{
		nop
		stw r1, sp[13]
	}
	bf r1, .LBB34_157
.Ltmp907:
	{
		ldc r5, 0
		nop
	}
	.loc	1 1898 5
.Ltmp908:
	bf r6, .LBB34_159
.Ltmp909:
	{
		nop
		ldw r0, r4[1]
	}
	.loc	1 1899 7
.Ltmp910:
	{
		mov r2, r6
		ldw r0, r0[11]
	}
	.loc	1 1899 7
	bl FLAC__bitreader_read_byte_block_aligned_no_crc
	.loc	1 1899 7
	bf r0, .LBB34_161
.Ltmp911:
	{
		nop
		ldw r0, sp[55]
	}
	{
		nop
		ldw r1, sp[13]
	}
	bu .LBB34_163
.Ltmp912:
.LBB34_90:
	{
		ldc r5, 0
		nop
	}
	bu .LBB34_188
.Ltmp913:
.LBB34_83:
	.loc	15 93 5
	{
		eq r1, r0, 0
		nop
	}
	.loc	15 93 5
	{
		add r0, r1, r0
		nop
	}
.Ltmp914:
	.loc	15 95 9
	bl malloc
	{
		mov r1, r0
		nop
	}
	{
		nop
		stw r1, sp[13]
	}
	bf r1, .LBB34_84
.Ltmp915:
	{
		nop
		ldw r0, r4[1]
	}
	.loc	1 1703 9
.Ltmp916:
	{
		mov r2, r7
		ldw r0, r0[11]
	}
	.loc	1 1703 9
	bl FLAC__bitreader_read_byte_block_aligned_no_crc
	.loc	1 1703 9
	bf r0, .LBB34_86
.Ltmp917:
	.loc	1 1698 5
	{
		sub r5, r5, r7
		ldw r0, sp[12]
	}
.Ltmp918:
	.loc	1 1705 4
	{
		ldc r2, 0
		ldw r1, sp[13]
	}
	.loc	1 1705 4
	st8 r2, r1[r0]
	bu .LBB34_89
.Ltmp919:
.LBB34_84:
	{
		nop
		ldw r0, r4[0]
	}
	.loc	1 1700 5
.Ltmp920:
	{
		ldc r5, 0
		stw r9, r0[0]
	}
	bu .LBB34_188
.Ltmp921:
.LBB34_93:
	bf r0, .LBB34_78
.Ltmp922:
	{
		ldc r1, 8
		nop
	}
	.loc	1 1722 30
.Ltmp923:
	bl safe_malloc_mul_2op_p
	{
		nop
		stw r0, sp[15]
	}
	.loc	1 1722 30
	bf r0, .LBB34_227
.Ltmp924:
	{
		nop
		ldw r1, sp[14]
	}
	bf r1, .LBB34_78
.Ltmp925:
	{
		ldc r7, 0
		nop
	}
	{
		nop
		stw r7, r0[0]
	}
	.loc	1 1730 5
.Ltmp926:
	{
		mov r0, r6
		stw r7, r0[1]
	}
	.loc	1 1732 5
	bl assert
	{
		ldc r0, 4
		nop
	}
	.loc	1 1733 9
.Ltmp927:
	{
		lsu r0, r5, r0
		nop
	}
	.loc	1 1733 9
	bf r0, .LBB34_99
.Ltmp928:
	{
		nop
		stw r7, sp[6]
	}
.Ltmp929:
.LBB34_98:
	{
		nop
		ldw r0, sp[6]
	}
	{
		nop
		stw r0, sp[14]
	}
	bu .LBB34_78
.Ltmp930:
.LBB34_124:
	{
		mov r5, r1
		nop
	}
	bu .LBB34_188
.Ltmp931:
.LBB34_159:
	.loc	1 1472 10
	{
		mov r0, r5
		nop
	}
.Ltmp932:
.LBB34_163:
	.loc	1 1902 2
	st8 r5, r1[r0]
	{
		nop
		ldw r0, r4[1]
	}
	{
		nop
		ldw r0, r0[11]
	}
	.loc	1 1905 6
.Ltmp933:
	ldw r2, cp[FLAC__STREAM_METADATA_PICTURE_DESCRIPTION_LENGTH_LEN]
	{
		ldaw r1, sp[55]
		nop
	}
.Ltmp934:
	.loc	1 1905 6
	bl FLAC__bitreader_read_raw_uint32
.Ltmp935:
	bf r0, .LBB34_188
.Ltmp936:
	{
		nop
		ldw r0, r4[1]
	}
	{
		nop
		ldw r0, r0[11]
	}
	.loc	1 1907 5
.Ltmp937:
	bl FLAC__bitreader_limit_remaining
	{
		nop
		ldw r6, sp[55]
	}
	.loc	1 1907 5
	{
		lsu r0, r0, r6
		nop
	}
	bt r0, .LBB34_153
.Ltmp938:
	.loc	15 128 2
	{
		add r0, r6, 1
		nop
	}
	.loc	15 129 5
.Ltmp939:
	{
		lsu r1, r0, r6
		nop
	}
	bf r1, .LBB34_167
.Ltmp940:
	{
		ldc r0, 0
		nop
	}
	{
		nop
		stw r0, sp[14]
	}
	bu .LBB34_157
.Ltmp941:
.LBB34_161:
	{
		ldc r5, 0
		nop
	}
	bu .LBB34_188
.Ltmp942:
.LBB34_127:
	{
		ldc r5, 0
		nop
	}
	bu .LBB34_188
.Ltmp943:
.LBB34_86:
	{
		ldc r5, 0
		nop
	}
	bu .LBB34_188
.Ltmp944:
.LBB34_227:
	{
		ldc r5, 0
		nop
	}
	{
		nop
		stw r5, sp[14]
	}
	bu .LBB34_157
.Ltmp945:
.LBB34_167:
	.loc	15 93 5
	{
		eq r1, r0, 0
		nop
	}
	.loc	15 93 5
	{
		add r0, r1, r0
		nop
	}
.Ltmp946:
	.loc	15 95 9
	bl malloc
	{
		mov r1, r0
		nop
	}
	{
		nop
		stw r1, sp[14]
	}
	bf r1, .LBB34_157
.Ltmp947:
	{
		ldc r5, 0
		nop
	}
	.loc	1 1915 5
.Ltmp948:
	bf r6, .LBB34_169
.Ltmp949:
	{
		nop
		ldw r0, r4[1]
	}
	.loc	1 1916 7
.Ltmp950:
	{
		mov r2, r6
		ldw r0, r0[11]
	}
	.loc	1 1916 7
	bl FLAC__bitreader_read_byte_block_aligned_no_crc
	.loc	1 1916 7
	bf r0, .LBB34_171
.Ltmp951:
	{
		nop
		ldw r0, sp[55]
	}
	{
		nop
		ldw r1, sp[14]
	}
	bu .LBB34_173
.Ltmp952:
.LBB34_99:
	{
		nop
		stw r7, sp[6]
	}
.Ltmp953:
.LBB34_100:
	{
		nop
		ldw r0, r4[1]
	}
	{
		nop
		ldw r0, r0[11]
	}
	{
		nop
		ldw r1, sp[15]
	}
	{
		add r1, r1, r7
		nop
	}
	.loc	1 1739 10
.Ltmp954:
	bl FLAC__bitreader_read_uint32_little_endian
	.loc	1 1739 10
	bf r0, .LBB34_101
.Ltmp955:
	.loc	1 1738 6
	{
		sub r5, r5, 4
		ldw r0, sp[15]
	}
.Ltmp956:
	{
		add r9, r0, r7
		nop
	}
	{
		nop
		ldw r10, r9[0]
	}
.Ltmp957:
	.loc	1 1743 9
	bf r10, .LBB34_113
.Ltmp958:
	.loc	1 1744 10
	{
		lsu r1, r5, r10
		nop
	}
	bt r1, .LBB34_104
.Ltmp959:
	.loc	15 128 2
	{
		add r1, r10, 1
		nop
	}
	.loc	15 129 5
.Ltmp960:
	{
		lsu r2, r1, r10
		nop
	}
	bt r2, .LBB34_107
.Ltmp961:
	.loc	15 93 5
	{
		eq r0, r1, 0
		nop
	}
	.loc	15 93 5
	{
		add r0, r0, r1
		nop
	}
.Ltmp962:
	.loc	15 95 9
	bl malloc
	{
		nop
		stw r0, r9[1]
	}
	bf r0, .LBB34_109
.Ltmp963:
	.loc	1 1750 7
	{
		sub r5, r5, r10
		ldw r2, r9[0]
	}
.Ltmp964:
	{
		ldc r1, 0
		nop
	}
.Ltmp965:
	.loc	1 1756 6
	bl memset
	{
		nop
		ldw r0, r4[1]
	}
	{
		nop
		ldw r0, r0[11]
	}
	{
		nop
		ldw r1, r9[1]
	}
	{
		nop
		ldw r2, r9[0]
	}
	.loc	1 1757 11
.Ltmp966:
	bl FLAC__bitreader_read_byte_block_aligned_no_crc
	{
		nop
		ldw r1, sp[15]
	}
	.loc	1 1757 11
	bf r0, .LBB34_111
.Ltmp967:
	{
		add r0, r1, r7
		nop
	}
	{
		nop
		ldw r1, r0[0]
	}
	.loc	1 1764 6
	{
		ldc r2, 0
		ldw r0, r0[1]
	}
	.loc	1 1764 6
	st8 r2, r0[r1]
	bu .LBB34_114
.Ltmp968:
.LBB34_113:
	{
		ldc r0, 0
		nop
	}
	{
		nop
		stw r0, r9[1]
	}
.Ltmp969:
.LBB34_114:
	{
		nop
		ldw r1, sp[6]
	}
	.loc	1 1727 39
	{
		add r1, r1, 1
		nop
	}
	{
		nop
		stw r1, sp[6]
	}
	{
		nop
		ldw r0, sp[14]
	}
	.loc	1 1727 4
	{
		lsu r0, r1, r0
		nop
	}
	bf r0, .LBB34_78
.Ltmp970:
	{
		nop
		ldw r0, sp[15]
	}
	{
		add r0, r0, r7
		ldc r1, 0
	}
	{
		nop
		stw r1, r0[2]
	}
	.loc	1 1730 5
.Ltmp971:
	{
		mov r0, r6
		stw r1, r0[3]
	}
	.loc	1 1732 5
	bl assert
	{
		ldc r0, 4
		nop
	}
	.loc	1 1733 9
.Ltmp972:
	{
		lsu r0, r5, r0
		add r7, r7, 8
	}
	bf r0, .LBB34_100
	bu .LBB34_98
.Ltmp973:
.LBB34_169:
	.loc	1 1472 10
	{
		mov r0, r5
		nop
	}
.Ltmp974:
.LBB34_173:
	.loc	1 1919 2
	st8 r5, r1[r0]
	{
		nop
		ldw r0, r4[1]
	}
	.loc	1 1922 6
.Ltmp975:
	{
		ldaw r1, sp[15]
		ldw r0, r0[11]
	}
	.loc	1 1922 6
	ldw r2, cp[FLAC__STREAM_METADATA_PICTURE_WIDTH_LEN]
	.loc	1 1922 6
	bl FLAC__bitreader_read_raw_uint32
	bf r0, .LBB34_188
.Ltmp976:
	{
		nop
		ldw r0, r4[1]
	}
	.loc	1 1926 6
.Ltmp977:
	{
		ldaw r1, sp[16]
		ldw r0, r0[11]
	}
	.loc	1 1926 6
	ldw r2, cp[FLAC__STREAM_METADATA_PICTURE_HEIGHT_LEN]
	.loc	1 1926 6
	bl FLAC__bitreader_read_raw_uint32
	bf r0, .LBB34_188
.Ltmp978:
	{
		nop
		ldw r0, r4[1]
	}
	.loc	1 1930 6
.Ltmp979:
	{
		ldaw r1, sp[17]
		ldw r0, r0[11]
	}
	.loc	1 1930 6
	ldw r2, cp[FLAC__STREAM_METADATA_PICTURE_DEPTH_LEN]
	.loc	1 1930 6
	bl FLAC__bitreader_read_raw_uint32
	bf r0, .LBB34_188
.Ltmp980:
	{
		nop
		ldw r0, r4[1]
	}
	.loc	1 1934 6
.Ltmp981:
	{
		ldaw r1, sp[18]
		ldw r0, r0[11]
	}
	.loc	1 1934 6
	ldw r2, cp[FLAC__STREAM_METADATA_PICTURE_COLORS_LEN]
	.loc	1 1934 6
	bl FLAC__bitreader_read_raw_uint32
	bf r0, .LBB34_188
.Ltmp982:
	{
		nop
		ldw r0, r4[1]
	}
	.loc	1 1938 6
.Ltmp983:
	{
		ldaw r1, sp[19]
		ldw r0, r0[11]
	}
	.loc	1 1938 6
	ldw r2, cp[FLAC__STREAM_METADATA_PICTURE_DATA_LENGTH_LEN]
	.loc	1 1938 6
	bl FLAC__bitreader_read_raw_uint32
	bf r0, .LBB34_188
.Ltmp984:
	{
		nop
		ldw r0, r4[1]
	}
	{
		nop
		ldw r0, r0[11]
	}
	.loc	1 1940 5
.Ltmp985:
	bl FLAC__bitreader_limit_remaining
	{
		nop
		ldw r6, sp[19]
	}
.Ltmp986:
	.loc	1 1940 5
	{
		lsu r0, r0, r6
		nop
	}
	bf r0, .LBB34_179
.Ltmp987:
.LBB34_153:
	{
		nop
		ldw r0, r4[1]
	}
	{
		nop
		ldw r0, r0[11]
	}
	.loc	1 1891 3
.Ltmp988:
	bl FLAC__bitreader_limit_invalidate
	bu .LBB34_188
.Ltmp989:
.LBB34_171:
	{
		ldc r5, 0
		nop
	}
	bu .LBB34_188
.Ltmp990:
.LBB34_140:
	.loc	1 1851 6
	{
		ldc r1, 8
		ldw r0, r4[0]
	}
	.loc	1 1851 6
	{
		mov r5, r10
		stw r1, r0[0]
	}
	bu .LBB34_188
.Ltmp991:
.LBB34_104:
	{
		nop
		ldw r0, sp[6]
	}
	{
		nop
		stw r0, sp[14]
	}
	bu .LBB34_105
.Ltmp992:
.LBB34_107:
	{
		nop
		ldw r1, sp[6]
	}
	.loc	1 1751 41
.Ltmp993:
	{
		shl r1, r1, 3
		nop
	}
	{
		add r0, r0, r1
		ldc r1, 0
	}
	{
		nop
		stw r1, r0[1]
	}
.Ltmp994:
.LBB34_109:
	.loc	1 1752 7
	{
		ldc r1, 8
		ldw r0, r4[0]
	}
	{
		nop
		stw r1, r0[0]
	}
.Ltmp995:
.LBB34_101:
	{
		nop
		ldw r0, sp[6]
	}
	.loc	1 1740 6
.Ltmp996:
	{
		ldc r5, 0
		stw r0, sp[14]
	}
	bu .LBB34_188
.Ltmp997:
.LBB34_111:
	{
		nop
		ldw r7, sp[6]
	}
	.loc	1 1759 7
.Ltmp998:
	{
		shl r6, r7, 3
		nop
	}
	{
		add r0, r1, r6
		nop
	}
	{
		nop
		ldw r0, r0[1]
	}
	.loc	1 1759 7
	bl free
	{
		nop
		ldw r0, sp[15]
	}
	.loc	1 1760 7
	{
		add r0, r0, r6
		ldc r1, 0
	}
	{
		nop
		stw r1, r0[1]
	}
	{
		nop
		stw r7, sp[14]
	}
	bu .LBB34_78
.Ltmp999:
.LBB34_179:
	.loc	15 93 5
	{
		eq r0, r6, 0
		nop
	}
	.loc	15 93 5
	{
		add r0, r0, r6
		nop
	}
.Ltmp1000:
	.loc	15 95 9
	bl malloc
	{
		mov r1, r0
		nop
	}
	{
		nop
		stw r1, sp[20]
	}
	bf r1, .LBB34_157
.Ltmp1001:
	bf r6, .LBB34_187
.Ltmp1002:
	{
		nop
		ldw r0, r4[1]
	}
	.loc	1 1949 7
.Ltmp1003:
	{
		mov r2, r6
		ldw r0, r0[11]
	}
	.loc	1 1949 7
	bl FLAC__bitreader_read_byte_block_aligned_no_crc
	bt r0, .LBB34_187
	bu .LBB34_188
.Ltmp1004:
.LBB34_157:
	.loc	1 1818 4
	{
		ldc r1, 8
		ldw r0, r4[0]
	}
	{
		nop
		stw r1, r0[0]
	}
.Ltmp1005:
.LBB34_188:
	{
		nop
		ldw r0, r4[1]
	}
	{
		nop
		ldw r0, r0[11]
	}
	.loc	1 1492 7
.Ltmp1006:
	bl FLAC__bitreader_limit_remaining
	bf r0, .LBB34_193
.Ltmp1007:
	{
		nop
		ldw r0, r4[1]
	}
	ldc r1, 4680
	.loc	1 3234 5
.Ltmp1008:
	{
		add r1, r0, r1
		nop
	}
	{
		nop
		ldw r1, r1[0]
	}
	bt r1, .LBB34_191
.Ltmp1009:
	{
		nop
		ldw r3, r0[8]
	}
	.loc	1 3235 3
	{
		ldc r1, 4
		ldw r2, r0[9]
	}
	.loc	1 3235 3
	{
		mov r0, r4
		nop
	}
	{
		nop
		bla r3
	}
.Ltmp1010:
.LBB34_191:
	{
		nop
		ldw r0, r4[0]
	}
	.loc	1 1497 8
.Ltmp1011:
	{
		ldc r5, 0
		ldw r1, r0[0]
	}
	.loc	1 1497 8
	{
		eq r1, r1, 1
		nop
	}
	bf r1, .LBB34_193
.Ltmp1012:
	{
		ldc r1, 2
		nop
	}
	{
		nop
		stw r1, r0[0]
	}
.Ltmp1013:
.LBB34_193:
	{
		nop
		ldw r0, r4[1]
	}
	{
		nop
		ldw r0, r0[11]
	}
	.loc	1 1501 4
	bl FLAC__bitreader_remove_limit
	bf r5, .LBB34_197
.Ltmp1014:
	{
		nop
		ldw r0, r4[1]
	}
	ldc r1, 4680
	.loc	1 1502 7
.Ltmp1015:
	{
		add r1, r0, r1
		nop
	}
	{
		nop
		ldw r1, r1[0]
	}
	bt r1, .LBB34_197
.Ltmp1016:
	{
		nop
		ldw r3, r0[7]
	}
	bf r3, .LBB34_197
.Ltmp1017:
	.loc	1 1503 5
	{
		ldaw r1, sp[8]
		ldw r2, r0[9]
	}
.Ltmp1018:
	.loc	1 1503 5
	{
		mov r0, r4
		nop
	}
	{
		nop
		bla r3
	}
.Ltmp1019:
.LBB34_197:
	{
		nop
		ldw r0, sp[53]
	}
	.loc	1 1506 4
	{
		lsu r1, r8, r0
		nop
	}
	bt r1, .LBB34_222
.Ltmp1020:

	.xtabranch .Ljumptable2+4,.Ljumptable2+8,.Ljumptable2+12,.Ljumptable2+16,.Ljumptable2+20,.Ljumptable2+24,.Ljumptable2+28
.Ljumptable2:
		
	{
		nop
		bru r0
	}
	.jmptable32 .LBB34_221,.LBB34_224,.LBB34_199,.LBB34_221,.LBB34_200,.LBB34_208,.LBB34_216
.Ltmp1021:
.LBB34_221:
	{
		ldc r0, 0
		nop
	}
	.loc	1 1541 6
.Ltmp1022:
	bl assert
.Ltmp1023:
.LBB34_222:
	{
		nop
		ldw r0, sp[12]
	}
	bt r0, .LBB34_223
	bu .LBB34_224
.Ltmp1024:
.LBB34_199:
	{
		nop
		ldw r0, sp[13]
	}
	bt r0, .LBB34_223
	bu .LBB34_224
.Ltmp1025:
.LBB34_200:
	{
		mov r7, r5
		ldw r0, sp[13]
	}
	bf r0, .LBB34_202
.Ltmp1026:
	.loc	1 1515 7
	bl free
.Ltmp1027:
.LBB34_202:
	.loc	1 1516 9
	{
		ldc r6, 4
		ldw r1, sp[14]
	}
	bf r1, .LBB34_207
.Ltmp1028:
	{
		ldc r5, 0
		nop
	}
.Ltmp1029:
.LBB34_204:
	{
		nop
		ldw r0, sp[15]
	}
	{
		add r0, r0, r6
		nop
	}
	{
		nop
		ldw r0, r0[0]
	}
	bf r0, .LBB34_206
.Ltmp1030:
	.loc	1 1519 9
	bl free
	{
		nop
		ldw r1, sp[14]
	}
.Ltmp1031:
.LBB34_206:
	.loc	1 1517 62
	{
		add r5, r5, 1
		add r6, r6, 8
	}
.Ltmp1032:
	.loc	1 1517 7
	{
		lsu r0, r5, r1
		nop
	}
	bt r0, .LBB34_204
.Ltmp1033:
.LBB34_207:
	.loc	1 1520 9
	{
		mov r5, r7
		ldw r0, sp[15]
	}
	bt r0, .LBB34_223
	bu .LBB34_224
.Ltmp1034:
.LBB34_208:
	{
		mov r9, r5
		ldw r1, sp[49]
	}
	.loc	1 1528 9
.Ltmp1035:
	{
		ldaw r5, sp[50]
		nop
	}
	bf r1, .LBB34_215
.Ltmp1036:
	{
		nop
		ldw r0, r5[0]
	}
	bf r0, .LBB34_215
.Ltmp1037:
	.loc	1 1524 9
	{
		ldaw r6, sp[49]
		ldc r7, 0
	}
	{
		ldc r8, 24
		nop
	}
	bu .LBB34_211
.Ltmp1038:
.LBB34_214:
	.loc	1 1525 7
	ldaw r8, r8[8]
	{
		nop
		ldw r0, r5[0]
	}
.Ltmp1039:
.LBB34_211:
	{
		add r0, r0, r8
		nop
	}
	{
		nop
		ldw r0, r0[0]
	}
	bf r0, .LBB34_213
.Ltmp1040:
	.loc	1 1527 9
	bl free
	{
		nop
		ldw r1, r6[0]
	}
.Ltmp1041:
.LBB34_213:
	.loc	1 1525 55
	{
		add r7, r7, 1
		nop
	}
.Ltmp1042:
	.loc	1 1525 7
	{
		lsu r0, r7, r1
		nop
	}
	bt r0, .LBB34_214
.Ltmp1043:
.LBB34_215:
	.loc	1 1528 9
	{
		mov r5, r9
		ldw r0, r5[0]
	}
	bt r0, .LBB34_223
	bu .LBB34_224
.Ltmp1044:
.LBB34_216:
	{
		nop
		ldw r0, sp[13]
	}
	bf r0, .LBB34_218
.Ltmp1045:
	.loc	1 1533 7
	bl free
.Ltmp1046:
.LBB34_218:
	{
		nop
		ldw r0, sp[14]
	}
	bf r0, .LBB34_220
.Ltmp1047:
	.loc	1 1535 7
	bl free
.Ltmp1048:
.LBB34_220:
	{
		nop
		ldw r0, sp[20]
	}
	bf r0, .LBB34_224
.Ltmp1049:
.LBB34_223:
	.loc	1 1544 7
	bl free
.Ltmp1050:
.LBB34_224:
	bf r5, .LBB34_225
.Ltmp1051:
.LBB34_64:
	{
		nop
		ldw r6, sp[7]
	}
.Ltmp1052:
.LBB34_39:
	{
		mkmsk r5, 1
		nop
	}
	bf r6, .LBB34_226
.Ltmp1053:
	{
		nop
		ldw r0, r4[1]
	}
	ldc r6, 8312
	.loc	1 1555 7
.Ltmp1054:
	{
		add r1, r0, r6
		mov r0, r4
	}
	.loc	1 1555 7
	bl FLAC__stream_decoder_get_decode_position
	bt r0, .LBB34_42
.Ltmp1055:
	{
		nop
		ldw r0, r4[1]
	}
	.loc	1 1556 4
	{
		add r0, r0, r6
		ldc r1, 0
	}
	.loc	1 1556 4
	std r1, r1, r0[0]
.Ltmp1056:
.LBB34_42:
	.loc	1 1557 3
	{
		ldc r1, 2
		ldw r0, r4[0]
	}
	{
		nop
		stw r1, r0[0]
	}
	bu .LBB34_226
.Ltmp1057:
.LBB34_225:
	{
		ldc r5, 0
		nop
	}
.LBB34_226:
	.loc	1 1561 1
	{
		mov r0, r5
		ldw r10, sp[62]
	}
	{
		nop
		ldw r8, sp[60]
	}
	{
		nop
		ldw r9, sp[61]
	}
	{
		nop
		ldw r6, sp[58]
	}
	{
		nop
		ldw r7, sp[59]
	}
	{
		nop
		ldw r4, sp[56]
	}
	{
		nop
		ldw r5, sp[57]
	}
	retsp 64
	# RETURN_REG_HOLDER
.Ltmp1058:
	.cc_bottom read_metadata_.function



.Ltmp1059:
	.size	read_metadata_, .Ltmp1059-read_metadata_
.Lfunc_end34:
	.cfi_endproc

	.align	4
	.type	frame_sync_,@function
	.cc_top frame_sync_.function,frame_sync_
frame_sync_:
.Lfunc_begin35:
	.loc	1 1979 0
	.cfi_startproc
	.issue_mode dual
	{
		nop
		dualentsp 6
	}
.Ltmp1060:
	.cfi_def_cfa_offset 24
.Ltmp1061:
	.cfi_offset 15, 0
	std r5, r4, sp[1]
.Ltmp1062:
	.cfi_offset 4, -16
.Ltmp1063:
	.cfi_offset 5, -12
	std r7, r6, sp[2]
.Ltmp1064:
	.cfi_offset 6, -8
.Ltmp1065:
	.cfi_offset 7, -4
	{
		mov r4, r0
		nop
	}
.Ltmp1066:
	{
		nop
		ldw r0, r4[1]
	}
	{
		nop
		ldw r0, r0[11]
	}
	.loc	1 1984 6 prologue_end
.Ltmp1067:
	bl FLAC__bitreader_is_consumed_byte_aligned
	{
		mkmsk r5, 1
		nop
	}
	bt r0, .LBB35_3
.Ltmp1068:
	{
		nop
		ldw r0, r4[1]
	}
	{
		nop
		ldw r6, r0[11]
	}
	.loc	1 1985 69
.Ltmp1069:
	{
		mov r0, r6
		nop
	}
	bl FLAC__bitreader_bits_left_for_byte_alignment
.Ltmp1070:
	{
		mov r2, r0
		ldaw r1, sp[1]
	}
.Ltmp1071:
	.loc	1 1985 7
	{
		mov r0, r6
		nop
	}
	bl FLAC__bitreader_read_raw_uint32
	bt r0, .LBB35_3
.Ltmp1072:
	{
		ldc r0, 0
		nop
	}
	bu .LBB35_19
.LBB35_15:
.Ltmp1073:
	{
		nop
		ldw r3, r0[8]
	}
	.loc	1 3235 3
.Ltmp1074:
	{
		ldc r5, 0
		ldw r2, r0[9]
	}
	.loc	1 3235 3
	{
		mov r0, r4
		mov r1, r5
	}
	{
		nop
		bla r3
	}
.Ltmp1075:
.LBB35_3:
	{
		mov r6, r5
		ldw r0, r4[1]
	}
	ldc r5, 4632
	.loc	1 1990 6
.Ltmp1076:
	{
		add r1, r0, r5
		nop
	}
	{
		nop
		ldw r2, r1[0]
	}
	.loc	1 1990 6
	bf r2, .LBB35_5
.Ltmp1077:
	ldc r2, 4638
	{
		nop
		ld8u r0, r0[r2]
	}
	.loc	1 1991 4
.Ltmp1078:
	{
		ldc r2, 0
		stw r0, sp[1]
	}
	{
		nop
		stw r2, r1[0]
	}
	bu .LBB35_8
.Ltmp1079:
.LBB35_5:
	.loc	1 1995 8
	{
		ldaw r1, sp[1]
		ldw r0, r0[11]
	}
.Ltmp1080:
	{
		ldc r2, 8
		nop
	}
	.loc	1 1995 8
	bl FLAC__bitreader_read_raw_uint32
	.loc	1 1995 8
	bf r0, .LBB35_6
.Ltmp1081:
	{
		nop
		ldw r0, sp[1]
	}
.Ltmp1082:
.LBB35_8:
	{
		mkmsk r7, 8
		nop
	}
	.loc	1 1998 6
.Ltmp1083:
	{
		eq r0, r0, r7
		nop
	}
	bf r0, .LBB35_13
.Ltmp1084:
	{
		nop
		ldw r0, r4[1]
	}
	ldc r1, 4636
	.loc	1 1999 4
.Ltmp1085:
	st8 r7, r0[r1]
	{
		nop
		ldw r0, r4[1]
	}
.Ltmp1086:
	.loc	1 2000 8
	{
		ldaw r1, sp[1]
		ldw r0, r0[11]
	}
.Ltmp1087:
	{
		ldc r2, 8
		nop
	}
	.loc	1 2000 8
	bl FLAC__bitreader_read_raw_uint32
	.loc	1 2000 8
	bf r0, .LBB35_10
.Ltmp1088:
	{
		nop
		ldw r0, sp[1]
	}
	.loc	1 2005 7
.Ltmp1089:
	{
		eq r1, r0, r7
		nop
	}
	bf r1, .LBB35_16
.Ltmp1090:
	{
		nop
		ldw r0, r4[1]
	}
	ldc r1, 4638
	.loc	1 2006 5
.Ltmp1091:
	st8 r7, r0[r1]
	.loc	1 2007 5
	{
		add r0, r0, r5
		mkmsk r1, 1
	}
	{
		nop
		stw r1, r0[0]
	}
	bu .LBB35_13
.Ltmp1092:
.LBB35_16:
	.loc	1 2009 12
	{
		shr r1, r0, 1
		nop
	}
	ldc r2, 124
	{
		eq r1, r1, r2
		nop
	}
	bt r1, .LBB35_17
.Ltmp1093:
.LBB35_13:
	{
		ldc r5, 0
		nop
	}
	bf r6, .LBB35_3
.Ltmp1094:
	{
		nop
		ldw r0, r4[1]
	}
	ldc r1, 4680
	.loc	1 3234 5
.Ltmp1095:
	{
		add r1, r0, r1
		nop
	}
	{
		nop
		ldw r1, r1[0]
	}
	bt r1, .LBB35_3
	bu .LBB35_15
.Ltmp1096:
.LBB35_10:
	{
		ldc r0, 0
		nop
	}
	bu .LBB35_19
.LBB35_6:
	{
		ldc r0, 0
		nop
	}
	bu .LBB35_19
.LBB35_17:
.Ltmp1097:
	{
		nop
		ldw r1, r4[1]
	}
	ldc r2, 4637
	.loc	1 2010 5
.Ltmp1098:
	st8 r0, r1[r2]
	.loc	1 2011 5
	{
		mkmsk r1, 2
		ldw r0, r4[0]
	}
	{
		nop
		stw r1, r0[0]
	}
	{
		nop
		ldw r0, r4[1]
	}
	{
		nop
		ldw r0, r0[11]
	}
	.loc	1 2015 5
	bl FLAC__bitreader_set_framesync_location
	{
		nop
		ldw r0, r4[1]
	}
	ldc r5, 8320
	.loc	1 2016 9
.Ltmp1099:
	{
		add r1, r0, r5
		mov r0, r4
	}
	.loc	1 2016 9
	bl FLAC__stream_decoder_get_decode_position
	{
		mov r1, r0
		mkmsk r0, 1
	}
	bt r1, .LBB35_19
.Ltmp1100:
	{
		nop
		ldw r1, r4[1]
	}
	.loc	1 2017 6
	{
		add r1, r1, r5
		ldc r2, 0
	}
	.loc	1 2017 6
	std r2, r2, r1[0]
.Ltmp1101:
.LBB35_19:
	.loc	1 2028 1
	ldd r7, r6, sp[2]
	ldd r5, r4, sp[1]
	{
		nop
		retsp 6
	}
	# RETURN_REG_HOLDER
.Ltmp1102:
	.cc_bottom frame_sync_.function



.Ltmp1103:
	.size	frame_sync_, .Ltmp1103-frame_sync_
.Lfunc_end35:
	.cfi_endproc

	.section	.cp.rodata.cst4,"aMc",@progbits,4
	.cc_top .LCPI36_0.data,.LCPI36_0
	.align	4
	.type	.LCPI36_0,@object
	.size	.LCPI36_0, 4
.LCPI36_0:
	.long	96000
	.cc_bottom .LCPI36_0.data
	.cc_top .LCPI36_1.data,.LCPI36_1
	.align	4
	.type	.LCPI36_1,@object
	.size	.LCPI36_1, 4
.LCPI36_1:
	.long	192000
	.cc_bottom .LCPI36_1.data
	.cc_top .LCPI36_2.data,.LCPI36_2
	.align	4
	.type	.LCPI36_2,@object
	.size	.LCPI36_2, 4
.LCPI36_2:
	.long	176400
	.cc_bottom .LCPI36_2.data
	.cc_top .LCPI36_3.data,.LCPI36_3
	.align	4
	.type	.LCPI36_3,@object
	.size	.LCPI36_3, 4
.LCPI36_3:
	.long	88200
	.cc_bottom .LCPI36_3.data
	.cc_top .LCPI36_4.data,.LCPI36_4
	.align	4
	.type	.LCPI36_4,@object
	.size	.LCPI36_4, 4
.LCPI36_4:
	.long	2147483648
	.cc_bottom .LCPI36_4.data
	.cc_top .LCPI36_5.data,.LCPI36_5
	.align	4
	.type	.LCPI36_5,@object
	.size	.LCPI36_5, 4
.LCPI36_5:
	.long	2147483647
	.cc_bottom .LCPI36_5.data
	.text
	.align	4
	.type	read_frame_,@function
	.cc_top read_frame_.function,read_frame_
read_frame_:
.Lfunc_begin36:
	.loc	1 2031 0
	.cfi_startproc
	.issue_mode dual
	DUALENTSP_lu6 908
.Ltmp1104:
	.cfi_def_cfa_offset 3632
.Ltmp1105:
	.cfi_offset 15, 0
	stw r4, sp[900]
	stw r5, sp[901]
.Ltmp1106:
	.cfi_offset 4, -32
.Ltmp1107:
	.cfi_offset 5, -28
	stw r6, sp[902]
	stw r7, sp[903]
.Ltmp1108:
	.cfi_offset 6, -24
.Ltmp1109:
	.cfi_offset 7, -20
	stw r8, sp[904]
	stw r9, sp[905]
.Ltmp1110:
	.cfi_offset 8, -16
.Ltmp1111:
	.cfi_offset 9, -12
	stw r10, sp[906]
.Ltmp1112:
	.cfi_offset 10, -8
	{
		nop
		stw r2, sp[13]
	}
.Ltmp1113:
	{
		mov r4, r0
		stw r1, sp[12]
	}
.Ltmp1114:
	.loc	1 2265 2 prologue_end
	{
		ldc r6, 0
		nop
	}
	{
		nop
		stw r6, r1[0]
	}
.Ltmp1115:
	{
		nop
		ldw r0, r4[1]
	}
	ldc r1, 116
.Ltmp1116:
	.loc	1 2038 2
	{
		add r1, r0, r1
		nop
	}
	{
		nop
		stw r6, r1[0]
	}
	ldc r5, 4636
.Ltmp1117:
	{
		nop
		ld8u r1, r0[r5]
	}
	.loc	1 2042 2
	ldaw r11, cp[FLAC__crc16_table]
	{
		nop
		ld16s r1, r11[r1]
	}
	.loc	1 2042 2
	{
		zext r1, 16
		nop
	}
	.loc	1 2043 2
	{
		shl r2, r1, 8
		shr r1, r1, 8
	}
	ldc r7, 4637
	{
		nop
		ld8u r3, r0[r7]
	}
	.loc	1 2043 2
	xor r1, r1, r3
	{
		nop
		ld16s r1, r11[r1]
	}
	.loc	1 2043 2
	xor r1, r2, r1
.Ltmp1118:
	.loc	1 2044 2
	{
		zext r1, 16
		ldw r0, r0[11]
	}
.Ltmp1119:
	.loc	1 2044 2
	bl FLAC__bitreader_reset_read_crc16
.Ltmp1120:
	{
		nop
		ldw r0, r4[1]
	}
	{
		nop
		ldw r0, r0[11]
	}
	.loc	1 2261 2
.Ltmp1121:
	bl FLAC__bitreader_is_consumed_byte_aligned
	.loc	1 2261 2
	bl assert
	{
		nop
		ldw r0, r4[1]
	}
.Ltmp1122:
	.loc	1 2264 2
	{
		ldaw r2, sp[16]
		ld8u r1, r0[r5]
	}
.Ltmp1123:
	.loc	1 2264 2
	st8 r1, r2[r6]
	.loc	1 2265 2
	{
		mkmsk r8, 1
		ld8u r5, r0[r7]
	}
	.loc	1 2265 2
	{
		or r1, r2, r8
		nop
	}
.Ltmp1124:
	.loc	1 2265 2
	st8 r5, r1[r6]
	{
		ldc r1, 2
		nop
	}
.Ltmp1125:
	.loc	1 2266 2
	stw r1, sp[898]
.Ltmp1126:
	{
		nop
		ldw r0, r0[11]
	}
	ldaw r1, sp[899]
.Ltmp1127:
	{
		ldc r2, 8
		nop
	}
	.loc	1 2295 7
.Ltmp1128:
	bl FLAC__bitreader_read_raw_uint32
.Ltmp1129:
	bf r0, .LBB36_10
.Ltmp1130:
	.loc	1 2269 5
	{
		shr r10, r5, 1
		nop
	}
	.loc	1 2269 5
	{
		zext r10, 1
		mkmsk r7, 8
	}
	ldaw r5, sp[899]
.Ltmp1131:
.LBB36_2:
	.loc	1 2297 6
	ldw r1, sp[899]
	.loc	1 2297 6
	{
		eq r0, r1, r7
		nop
	}
	bt r0, .LBB36_3
.Ltmp1132:
	.loc	1 2305 3
	ldw r0, sp[898]
	.loc	1 2305 3
	{
		add r2, r0, 1
		nop
	}
.Ltmp1133:
	.loc	1 2305 3
	stw r2, sp[898]
	{
		ldaw r2, sp[16]
		nop
	}
.Ltmp1134:
	.loc	1 2305 3
	st8 r1, r2[r0]
.Ltmp1135:
	.loc	1 2294 2
	{
		add r6, r6, 1
		nop
	}
	.loc	1 2294 2
	{
		lsu r0, r8, r6
		nop
	}
	bt r0, .LBB36_11
.Ltmp1136:
	{
		nop
		ldw r0, r4[1]
	}
.Ltmp1137:
	.loc	1 2295 7
	{
		mov r1, r5
		ldw r0, r0[11]
	}
	{
		ldc r2, 8
		nop
	}
	.loc	1 2295 7
	bl FLAC__bitreader_read_raw_uint32
	bt r0, .LBB36_2
.Ltmp1138:
.LBB36_10:
	{
		ldc r0, 0
		nop
	}
	bu .LBB36_337
.LBB36_11:
.Ltmp1139:
	{
		ldaw r0, sp[16]
		ldc r1, 2
	}
	.loc	1 2308 2
	{
		or r5, r0, r1
		ldc r6, 0
	}
	{
		nop
		ld8u r0, r5[r6]
	}
	.loc	1 2308 2
	{
		shr r0, r0, 4
		nop
	}
.Ltmp1140:
	.loc	1 2308 2
	stw r0, sp[899]
	.loc	1 2308 2
	bf r6, .LBB36_12
.Ltmp1141:
	{
		ldc r7, 0
		nop
	}
	.loc	1 2336 4
.Ltmp1142:
	{
		mov r0, r7
		nop
	}
	bl assert
	bu .LBB36_20
.Ltmp1143:
.LBB36_12:
	.loc	1 2046 6
	{
		mov r7, r6
		nop
	}

	.xtabranch .Ljumptable3+4,.Ljumptable3+8,.Ljumptable3+12,.Ljumptable3+16,.Ljumptable3+20,.Ljumptable3+24,.Ljumptable3+28,.Ljumptable3+32,.Ljumptable3+36,.Ljumptable3+40,.Ljumptable3+44,.Ljumptable3+48,.Ljumptable3+52,.Ljumptable3+56,.Ljumptable3+60,.Ljumptable3+64
.Ljumptable3:
		
	{
		nop
		bru r0
	}
	.jmptable32 .LBB36_21,.LBB36_13,.LBB36_15,.LBB36_15,.LBB36_15,.LBB36_15,.LBB36_17,.LBB36_17,.LBB36_18,.LBB36_18,.LBB36_18,.LBB36_18,.LBB36_18,.LBB36_18,.LBB36_18,.LBB36_18
.Ltmp1144:
.LBB36_18:
	.loc	1 2333 4
	{
		sub r0, r0, 8
		nop
	}
	ldc r1, 256
	bu .LBB36_16
.Ltmp1145:
.LBB36_15:
	.loc	1 2319 4
	{
		sub r0, r0, 2
		nop
	}
	ldc r1, 576
.Ltmp1146:
.LBB36_16:
	.loc	1 2319 4
	{
		shl r0, r1, r0
		ldw r1, r4[1]
	}
	ldc r2, 1128
	.loc	1 2319 4
	{
		add r1, r1, r2
		nop
	}
	.loc	1 2319 4
	{
		mov r7, r6
		stw r0, r1[0]
	}
.Ltmp1147:
.LBB36_20:
	.loc	1 2046 6
	{
		mov r8, r10
		nop
	}
.LBB36_21:
.Ltmp1148:
	{
		nop
		ld8u r5, r5[r6]
	}
	.loc	1 2340 2
.Ltmp1149:
	{
		zext r5, 4
		nop
	}
.Ltmp1150:
	.loc	1 2340 2
	stw r5, sp[899]
	.loc	1 2340 2
	bf r6, .LBB36_22
.Ltmp1151:
	{
		ldc r5, 0
		nop
	}
	.loc	1 2390 4
.Ltmp1152:
	{
		mov r0, r5
		nop
	}
	bl assert
	bu .LBB36_40
.Ltmp1153:
.LBB36_22:

	.xtabranch .Ljumptable4+4,.Ljumptable4+8,.Ljumptable4+12,.Ljumptable4+16,.Ljumptable4+20,.Ljumptable4+24,.Ljumptable4+28,.Ljumptable4+32,.Ljumptable4+36,.Ljumptable4+40,.Ljumptable4+44,.Ljumptable4+48,.Ljumptable4+52,.Ljumptable4+56,.Ljumptable4+60,.Ljumptable4+64
.Ljumptable4:
		
	{
		nop
		bru r5
	}
	.jmptable32 .LBB36_23,.LBB36_26,.LBB36_27,.LBB36_28,.LBB36_29,.LBB36_31,.LBB36_32,.LBB36_33,.LBB36_34,.LBB36_35,.LBB36_36,.LBB36_37,.LBB36_40,.LBB36_40,.LBB36_40,.LBB36_38
.Ltmp1154:
.LBB36_23:
	{
		nop
		ldw r0, r4[1]
	}
	ldc r1, 240
	.loc	1 2342 7
.Ltmp1155:
	{
		add r1, r0, r1
		nop
	}
	.loc	1 2342 7
	{
		ldc r5, 0
		ldw r1, r1[0]
	}
	.loc	1 2342 7
	bf r1, .LBB36_24
.Ltmp1156:
	ldc r1, 280
	.loc	1 2343 5
	{
		add r1, r0, r1
		nop
	}
	{
		nop
		ldw r1, r1[0]
	}
	ldc r2, 1132
	.loc	1 2343 5
	{
		add r0, r0, r2
		nop
	}
	{
		nop
		stw r1, r0[0]
	}
	bu .LBB36_40
.Ltmp1157:
.LBB36_17:
	.loc	1 2046 6
	{
		mov r7, r0
		nop
	}
	bu .LBB36_20
.Ltmp1158:
.LBB36_13:
	{
		nop
		ldw r0, r4[1]
	}
	ldc r1, 1128
	.loc	1 2313 4
.Ltmp1159:
	{
		add r0, r0, r1
		nop
	}
	ldc r1, 192
	.loc	1 2313 4
	{
		mov r7, r6
		stw r1, r0[0]
	}
	bu .LBB36_20
.Ltmp1160:
.LBB36_26:
	{
		nop
		ldw r0, r4[1]
	}
	ldc r1, 1132
	.loc	1 2348 4
.Ltmp1161:
	{
		add r0, r0, r1
		nop
	}
	ldw r1, cp[.LCPI36_3]
	bu .LBB36_30
.Ltmp1162:
.LBB36_27:
	{
		nop
		ldw r0, r4[1]
	}
	ldc r1, 1132
	.loc	1 2351 4
	{
		add r0, r0, r1
		nop
	}
	ldw r1, cp[.LCPI36_2]
	bu .LBB36_30
.Ltmp1163:
.LBB36_28:
	{
		nop
		ldw r0, r4[1]
	}
	ldc r1, 1132
	.loc	1 2354 4
	{
		add r0, r0, r1
		nop
	}
	ldw r1, cp[.LCPI36_1]
	bu .LBB36_30
.Ltmp1164:
.LBB36_29:
	{
		nop
		ldw r0, r4[1]
	}
	ldc r1, 1132
	.loc	1 2357 4
	{
		add r0, r0, r1
		nop
	}
	ldc r1, 8000
	bu .LBB36_30
.Ltmp1165:
.LBB36_31:
	{
		nop
		ldw r0, r4[1]
	}
	ldc r1, 1132
	.loc	1 2360 4
	{
		add r0, r0, r1
		nop
	}
	ldc r1, 16000
	bu .LBB36_30
.Ltmp1166:
.LBB36_32:
	{
		nop
		ldw r0, r4[1]
	}
	ldc r1, 1132
	.loc	1 2363 4
	{
		add r0, r0, r1
		nop
	}
	ldc r1, 22050
	bu .LBB36_30
.Ltmp1167:
.LBB36_33:
	{
		nop
		ldw r0, r4[1]
	}
	ldc r1, 1132
	.loc	1 2366 4
	{
		add r0, r0, r1
		nop
	}
	ldc r1, 24000
	bu .LBB36_30
.Ltmp1168:
.LBB36_34:
	{
		nop
		ldw r0, r4[1]
	}
	ldc r1, 1132
	.loc	1 2369 4
	{
		add r0, r0, r1
		nop
	}
	ldc r1, 32000
	bu .LBB36_30
.Ltmp1169:
.LBB36_35:
	{
		nop
		ldw r0, r4[1]
	}
	ldc r1, 1132
	.loc	1 2372 4
	{
		add r0, r0, r1
		nop
	}
	ldc r1, 44100
	bu .LBB36_30
.Ltmp1170:
.LBB36_36:
	{
		nop
		ldw r0, r4[1]
	}
	ldc r1, 1132
	.loc	1 2375 4
	{
		add r0, r0, r1
		nop
	}
	ldc r1, 48000
	bu .LBB36_30
.Ltmp1171:
.LBB36_37:
	{
		nop
		ldw r0, r4[1]
	}
	ldc r1, 1132
	.loc	1 2378 4
	{
		add r0, r0, r1
		nop
	}
	ldw r1, cp[.LCPI36_0]
.Ltmp1172:
.LBB36_30:
	.loc	1 2357 4
	{
		ldc r5, 0
		stw r1, r0[0]
	}
.Ltmp1173:
.LBB36_40:
	{
		mkmsk r1, 2
		ldaw r0, sp[16]
	}
	.loc	1 2393 2
	{
		or r10, r0, r1
		ldc r11, 0
	}
	{
		nop
		ld8u r0, r10[r11]
	}
	.loc	1 2393 2
	{
		shr r0, r0, 4
		nop
	}
.Ltmp1174:
	.loc	1 2393 2
	stw r0, sp[899]
	{
		ldc r2, 8
		nop
	}
	.loc	1 2394 5
.Ltmp1175:
	{
		and r2, r0, r2
		nop
	}
	.loc	1 2394 5
	bf r2, .LBB36_48
.Ltmp1176:
	{
		nop
		ldw r0, r4[1]
	}
	ldc r2, 1136
	.loc	1 2395 3
.Ltmp1177:
	{
		add r2, r0, r2
		ldc r3, 2
	}
	{
		nop
		stw r3, r2[0]
	}
	.loc	1 2396 3
	ldw r2, sp[899]
	.loc	1 2396 3
	{
		zext r2, 3
		nop
	}
	.loc	1 2396 3
	{
		eq r3, r2, 2
		nop
	}
	bt r3, .LBB36_47
.Ltmp1178:
	{
		eq r1, r2, 1
		nop
	}
	bf r1, .LBB36_43
.Ltmp1179:
	ldc r1, 1140
	.loc	1 2401 5
.Ltmp1180:
	{
		add r1, r0, r1
		ldc r2, 2
	}
	bu .LBB36_49
.Ltmp1181:
.LBB36_48:
	.loc	1 2412 3
	{
		add r1, r0, 1
		ldw r0, r4[1]
	}
.Ltmp1182:
	ldc r2, 1136
	.loc	1 2412 3
	{
		add r2, r0, r2
		nop
	}
	{
		nop
		stw r1, r2[0]
	}
	ldc r1, 1140
	.loc	1 2413 3
	{
		add r1, r0, r1
		ldc r2, 0
	}
	bu .LBB36_49
.Ltmp1183:
.LBB36_47:
	ldc r2, 1140
	.loc	1 2404 5
.Ltmp1184:
	{
		add r2, r0, r2
		nop
	}
	{
		nop
		stw r1, r2[0]
	}
	bu .LBB36_50
.Ltmp1185:
.LBB36_43:
	bt r2, .LBB36_44
.Ltmp1186:
	ldc r1, 1140
	.loc	1 2398 5
	{
		add r1, r0, r1
		mkmsk r2, 1
	}
.Ltmp1187:
.LBB36_49:
	{
		nop
		stw r2, r1[0]
	}
.LBB36_50:
.Ltmp1188:
	{
		nop
		ld8u r1, r10[r11]
	}
	.loc	1 2416 2
	{
		shr r1, r1, 1
		nop
	}
	.loc	1 2416 2
	{
		zext r1, 3
		nop
	}
.Ltmp1189:
	.loc	1 2416 2
	stw r1, sp[899]
	{
		mkmsk r6, 1
		mkmsk r2, 3
	}
	.loc	1 2416 2
	{
		lsu r2, r2, r1
		nop
	}
	bf r2, .LBB36_51
.Ltmp1190:
	{
		ldc r0, 0
		mov r9, r7
	}
	{
		mov r7, r11
		nop
	}
	.loc	1 2445 4
.Ltmp1191:
	bl assert
	{
		mov r11, r7
		mov r7, r9
	}
	{
		nop
		ldw r0, r4[1]
	}
.Ltmp1192:
.LBB36_63:
	.loc	1 2046 6
	{
		mov r2, r8
		nop
	}
.LBB36_64:
.Ltmp1193:
	{
		nop
		stw r2, sp[11]
	}
	{
		nop
		ld8u r10, r10[r11]
	}
	.loc	1 2451 5
.Ltmp1194:
	{
		zext r10, 1
		ldaw r1, sp[16]
	}
.Ltmp1195:
	.loc	1 2457 3
	{
		or r1, r1, r6
		nop
	}
	.loc	1 2457 3
	{
		mov r6, r11
		ld8u r1, r1[r11]
	}
	.loc	1 2457 3
	{
		zext r1, 1
		nop
	}
	bt r1, .LBB36_67
.Ltmp1196:
	ldc r1, 240
	.loc	1 2457 3
	{
		add r1, r0, r1
		nop
	}
	{
		nop
		ldw r1, r1[0]
	}
	bf r1, .LBB36_71
.Ltmp1197:
	ldc r1, 264
	.loc	1 2457 3
	{
		add r1, r0, r1
		nop
	}
	{
		nop
		ldw r1, r1[0]
	}
	ldc r2, 268
	.loc	1 2457 3
	{
		add r2, r0, r2
		nop
	}
	{
		nop
		ldw r2, r2[0]
	}
	.loc	1 2457 3
	{
		eq r1, r1, r2
		nop
	}
	bf r1, .LBB36_67
.Ltmp1198:
.LBB36_71:
	{
		nop
		ldw r0, r0[11]
	}
	ldaw r1, sp[899]
.Ltmp1199:
	{
		ldaw r8, sp[16]
		nop
	}
	ldaw r3, sp[898]
.Ltmp1200:
	.loc	1 2474 7
	{
		mov r2, r8
		nop
	}
	bl FLAC__bitreader_read_utf8_uint32
.Ltmp1201:
	bf r0, .LBB36_336
.Ltmp1202:
	.loc	1 2476 6
	ldw r1, sp[899]
	{
		mkmsk r0, 32
		nop
	}
	.loc	1 2476 6
	{
		eq r2, r1, r0
		nop
	}
	bt r2, .LBB36_69
.Ltmp1203:
	{
		nop
		ldw r0, r4[1]
	}
	ldc r2, 1148
	.loc	1 2483 3
	{
		add r2, r0, r2
		ldc r3, 0
	}
	{
		nop
		stw r3, r2[0]
	}
	ldc r2, 1152
	.loc	1 2484 3
	{
		add r2, r0, r2
		nop
	}
	{
		nop
		stw r1, r2[0]
	}
	bu .LBB36_74
.Ltmp1204:
.LBB36_67:
	{
		nop
		ldw r0, r0[11]
	}
	ldaw r1, sp[894]
.Ltmp1205:
	{
		ldaw r8, sp[16]
		nop
	}
	ldaw r3, sp[898]
.Ltmp1206:
	.loc	1 2461 7
	{
		mov r2, r8
		nop
	}
	bl FLAC__bitreader_read_utf8_uint64
.Ltmp1207:
	bf r0, .LBB36_336
.Ltmp1208:
	.loc	1 2463 6
	ldw r1, sp[894]
	ldw r2, sp[895]
	.loc	1 2463 6
	{
		and r3, r1, r2
		mkmsk r0, 32
	}
	{
		eq r3, r3, r0
		nop
	}
	bt r3, .LBB36_69
.Ltmp1209:
	{
		nop
		ldw r0, r4[1]
	}
	ldc r3, 1148
	.loc	1 2470 3
	{
		add r3, r0, r3
		mkmsk r11, 1
	}
	{
		nop
		stw r11, r3[0]
	}
	ldc r3, 1152
	.loc	1 2471 3
	{
		add r3, r0, r3
		nop
	}
	.loc	1 2471 3
	std r2, r1, r3[0]
.Ltmp1210:
.LBB36_74:
	bf r7, .LBB36_80
.Ltmp1211:
	{
		nop
		ldw r0, r0[11]
	}
	ldaw r1, sp[899]
.Ltmp1212:
	{
		ldc r2, 8
		nop
	}
	.loc	1 2488 7
.Ltmp1213:
	bl FLAC__bitreader_read_raw_uint32
.Ltmp1214:
	bf r0, .LBB36_336
.Ltmp1215:
	.loc	1 2490 3
	ldw r0, sp[899]
	.loc	1 2490 3
	ldw r1, sp[898]
	.loc	1 2490 3
	{
		add r2, r1, 1
		nop
	}
.Ltmp1216:
	.loc	1 2490 3
	stw r2, sp[898]
	{
		ldaw r2, sp[16]
		nop
	}
.Ltmp1217:
	.loc	1 2490 3
	st8 r0, r2[r1]
	.loc	1 2491 6
.Ltmp1218:
	{
		eq r1, r7, 7
		nop
	}
	bf r1, .LBB36_79
.Ltmp1219:
	{
		nop
		ldw r0, r4[1]
	}
	{
		nop
		ldw r0, r0[11]
	}
	ldaw r1, sp[897]
.Ltmp1220:
	{
		ldc r2, 8
		nop
	}
	.loc	1 2493 8
.Ltmp1221:
	bl FLAC__bitreader_read_raw_uint32
.Ltmp1222:
	bf r0, .LBB36_336
.Ltmp1223:
	.loc	1 2495 4
	ldw r0, sp[897]
	.loc	1 2495 4
	ldw r1, sp[898]
	.loc	1 2495 4
	{
		add r2, r1, 1
		nop
	}
.Ltmp1224:
	.loc	1 2495 4
	stw r2, sp[898]
	{
		ldaw r2, sp[16]
		nop
	}
.Ltmp1225:
	.loc	1 2495 4
	st8 r0, r2[r1]
	.loc	1 2496 4
	ldw r1, sp[899]
	.loc	1 2496 4
	{
		shl r1, r1, 8
		nop
	}
	.loc	1 2496 4
	{
		or r0, r1, r0
		nop
	}
.Ltmp1226:
	.loc	1 2496 4
	stw r0, sp[899]
.Ltmp1227:
.LBB36_79:
	.loc	1 2498 3
	{
		add r1, r0, 1
		ldw r0, r4[1]
	}
	ldc r2, 1128
	.loc	1 2498 3
	{
		add r2, r0, r2
		nop
	}
	{
		nop
		stw r1, r2[0]
	}
.Ltmp1228:
.LBB36_80:
	bf r5, .LBB36_87
.Ltmp1229:
	{
		nop
		ldw r0, r0[11]
	}
	ldaw r1, sp[899]
.Ltmp1230:
	{
		ldc r2, 8
		nop
	}
	.loc	1 2502 7
.Ltmp1231:
	bl FLAC__bitreader_read_raw_uint32
.Ltmp1232:
	bf r0, .LBB36_336
.Ltmp1233:
	.loc	1 2504 3
	ldw r0, sp[899]
	.loc	1 2504 3
	ldw r1, sp[898]
	.loc	1 2504 3
	{
		add r2, r1, 1
		nop
	}
.Ltmp1234:
	.loc	1 2504 3
	stw r2, sp[898]
	{
		ldaw r2, sp[16]
		nop
	}
.Ltmp1235:
	.loc	1 2504 3
	st8 r0, r2[r1]
	{
		ldc r1, 12
		nop
	}
	.loc	1 2505 6
.Ltmp1236:
	{
		eq r1, r5, r1
		nop
	}
	.loc	1 2505 6
	bf r1, .LBB36_83
.Ltmp1237:
	ldc r1, 1000
	.loc	1 2513 4
.Ltmp1238:
	mul r1, r0, r1
	bu .LBB36_86
.Ltmp1239:
.LBB36_51:
	.loc	1 2046 6
	{
		mov r2, r6
		nop
	}

	.xtabranch .Ljumptable5+4,.Ljumptable5+8,.Ljumptable5+12,.Ljumptable5+16,.Ljumptable5+20,.Ljumptable5+24,.Ljumptable5+28,.Ljumptable5+32
.Ljumptable5:
		
	{
		nop
		bru r1
	}
	.jmptable32 .LBB36_52,.LBB36_55,.LBB36_57,.LBB36_64,.LBB36_58,.LBB36_59,.LBB36_60,.LBB36_61
.Ltmp1240:
.LBB36_52:
	ldc r1, 240
	.loc	1 2418 7
.Ltmp1241:
	{
		add r1, r0, r1
		nop
	}
	{
		nop
		ldw r1, r1[0]
	}
	.loc	1 2418 7
	bf r1, .LBB36_53
.Ltmp1242:
	ldc r1, 288
	.loc	1 2419 5
	{
		add r1, r0, r1
		nop
	}
	{
		nop
		ldw r1, r1[0]
	}
	ldc r2, 1144
	.loc	1 2419 5
	{
		add r2, r0, r2
		nop
	}
	{
		nop
		stw r1, r2[0]
	}
	bu .LBB36_63
.Ltmp1243:
.LBB36_69:
	.loc	1 2464 4
	ldw r1, sp[898]
	{
		add r1, r1, r8
		nop
	}
	{
		nop
		ld8u r1, r1[r0]
	}
.Ltmp1244:
.LBB36_3:
	{
		nop
		ldw r0, r4[1]
	}
	ldc r2, 4638
	.loc	1 2299 4
.Ltmp1245:
	st8 r1, r0[r2]
	ldc r1, 4632
	.loc	1 2300 4
	{
		add r1, r0, r1
		mkmsk r2, 1
	}
	{
		nop
		stw r2, r1[0]
	}
.Ltmp1246:
.LBB36_4:
	ldc r1, 4680
.Ltmp1247:
	.loc	1 3234 5
	{
		add r1, r0, r1
		nop
	}
	{
		nop
		ldw r1, r1[0]
	}
	bt r1, .LBB36_7
.Ltmp1248:
	{
		nop
		ldw r3, r0[8]
	}
	.loc	1 3235 3
	{
		mkmsk r1, 1
		ldw r2, r0[9]
	}
.Ltmp1249:
.LBB36_6:
	.loc	1 3235 3
	{
		mov r0, r4
		nop
	}
	{
		nop
		bla r3
	}
.Ltmp1250:
.LBB36_7:
	.loc	1 2302 4
	{
		ldc r1, 2
		ldw r0, r4[0]
	}
	{
		nop
		stw r1, r0[0]
	}
.Ltmp1251:
.LBB36_105:
	{
		nop
		ldw r0, r0[0]
	}
	.loc	1 2048 5
.Ltmp1252:
	{
		eq r1, r0, 2
		mkmsk r0, 1
	}
	bt r1, .LBB36_337
.Ltmp1253:
	{
		nop
		ldw r0, r4[1]
	}
	ldc r1, 1128
	.loc	1 2050 6
.Ltmp1254:
	{
		add r1, r0, r1
		nop
	}
	{
		nop
		ldw r1, r1[0]
	}
	ldc r7, 1136
	.loc	1 2050 6
	{
		add r2, r0, r7
		nop
	}
	{
		nop
		ldw r2, r2[0]
	}
	ldc r3, 1144
	.loc	1 2050 6
	{
		add r0, r0, r3
		nop
	}
	.loc	1 2050 6
	{
		mov r0, r4
		ldw r3, r0[0]
	}
	.loc	1 2050 6
	bl allocate_output_
	{
		ldc r1, 0
		nop
	}
	.loc	1 2050 6
	bf r0, .LBB36_107
.Ltmp1255:
	{
		nop
		ldw r1, r4[1]
	}
	.loc	1 2052 2
.Ltmp1256:
	{
		add r0, r1, r7
		nop
	}
	{
		nop
		ldw r0, r0[0]
	}
	bf r0, .LBB36_238
.Ltmp1257:
	.loc	1 2794 6
	ldw r2, cp[FLAC__SUBFRAME_LPC_QLP_COEFF_PRECISION_LEN]
.Ltmp1258:
	.loc	1 2796 5
	{
		mkmsk r2, r2
		nop
	}
	{
		ldc r8, 0
		stw r2, sp[11]
	}
	bu .LBB36_110
.Ltmp1259:
.LBB36_116:
	.loc	1 2576 2
	ldw r5, sp[898]
.Ltmp1260:
	ldc r0, 254
.Ltmp1261:
	.loc	1 2577 2
	{
		and r0, r5, r0
		zext r5, 1
	}
.Ltmp1262:
	.loc	1 2577 2
	stw r0, sp[898]
	{
		nop
		ldw r0, r4[1]
	}
	.loc	1 2579 5
.Ltmp1263:
	bf r5, .LBB36_124
.Ltmp1264:
	{
		nop
		ldw r0, r0[11]
	}
.Ltmp1265:
	ldaw r1, sp[897]
	.loc	1 2581 7
.Ltmp1266:
	bl FLAC__bitreader_read_unary_unsigned
	bf r0, .LBB36_215
.Ltmp1267:
	.loc	1 2583 3
	ldw r0, sp[897]
.Ltmp1268:
	.loc	1 2583 3
	{
		add r1, r0, 1
		ldw r0, r4[1]
	}
	ldc r2, 432
	.loc	1 2583 3
	mul r2, r8, r2
	{
		add r2, r0, r2
		nop
	}
	ldc r3, 1592
	{
		add r2, r2, r3
		nop
	}
	.loc	1 2583 3
	{
		lsu r2, r1, r6
		stw r1, r2[0]
	}
	.loc	1 2584 7
.Ltmp1269:
	bf r2, .LBB36_119
.Ltmp1270:
	.loc	1 2589 3
	{
		sub r6, r6, r1
		nop
	}
.Ltmp1271:
	bu .LBB36_125
.Ltmp1272:
.LBB36_124:
	ldc r1, 432
	.loc	1 2592 3
	mul r1, r8, r1
	{
		add r1, r0, r1
		nop
	}
	ldc r2, 1592
	{
		add r1, r1, r2
		ldc r2, 0
	}
	{
		nop
		stw r2, r1[0]
	}
.Ltmp1273:
.LBB36_125:
	.loc	1 2597 5
	ldw r1, sp[898]
	ldc r2, 128
	.loc	1 2597 5
	{
		and r2, r1, r2
		nop
	}
	bt r2, .LBB36_119
.Ltmp1274:
	.loc	1 2602 10
	{
		eq r2, r1, 2
		nop
	}
	bf r2, .LBB36_127
.Ltmp1275:
	ldc r1, 432
	.loc	1 2879 2
.Ltmp1276:
	mul r1, r8, r1
	{
		add r1, r0, r1
		nop
	}
	ldc r2, 1176
	{
		add r9, r1, r2
		nop
	}
	ldc r2, 1168
	{
		add r2, r1, r2
		mkmsk r3, 1
	}
	.loc	1 2882 2
	{
		ldc r2, 32
		stw r3, r2[0]
	}
	.loc	1 2884 5
.Ltmp1277:
	{
		lsu r2, r2, r6
		nop
	}
	bt r2, .LBB36_144
.Ltmp1278:
	.loc	1 2885 3
	ldaw r0, r0[r8]
	ldc r2, 80
	{
		add r0, r0, r2
		nop
	}
	{
		nop
		ldw r7, r0[0]
	}
.Ltmp1279:
	ldc r0, 1180
	.loc	1 2887 3
	{
		add r0, r1, r0
		ldc r1, 0
	}
	{
		mov r2, r1
		nop
	}
	{
		nop
		stw r2, r0[0]
	}
.Ltmp1280:
	{
		nop
		stw r7, r9[0]
	}
	{
		nop
		ldw r0, r4[1]
	}
	ldc r1, 1128
	.loc	1 2890 3
.Ltmp1281:
	{
		add r1, r0, r1
		nop
	}
	.loc	1 2890 3
	{
		mov r10, r2
		ldw r1, r1[0]
	}
	bf r1, .LBB36_142
.Ltmp1282:
.LBB36_139:
	{
		nop
		ldw r0, r0[11]
	}
.Ltmp1283:
	ldaw r1, sp[894]
	.loc	1 2891 8
.Ltmp1284:
	{
		mov r2, r6
		nop
	}
	bl FLAC__bitreader_read_raw_int32
	bf r0, .LBB36_214
.Ltmp1285:
	.loc	1 2893 4
	ldw r0, sp[894]
	.loc	1 2893 4
	stw r0, r7[r10]
.Ltmp1286:
	.loc	1 2890 61
	{
		add r10, r10, 1
		ldw r0, r4[1]
	}
.Ltmp1287:
	ldc r1, 1128
	.loc	1 2890 3
	{
		add r1, r0, r1
		nop
	}
	{
		nop
		ldw r1, r1[0]
	}
	.loc	1 2890 3
	{
		lsu r2, r10, r1
		nop
	}
	bt r2, .LBB36_139
.Ltmp1288:
	.loc	1 2890 3
	{
		shl r2, r1, 2
		nop
	}
.Ltmp1289:
.LBB36_142:
	{
		nop
		ldw r1, sp[13]
	}
	bf r1, .LBB36_136
.Ltmp1290:
	.loc	1 2898 4
	ldaw r0, r0[r8]
	{
		ldc r1, 48
		nop
	}
	{
		add r0, r0, r1
		nop
	}
	{
		nop
		ldw r0, r0[0]
	}
	{
		nop
		ldw r1, r9[0]
	}
	.loc	1 2898 4
	bl memcpy
	bt r5, .LBB36_229
	bu .LBB36_237
.Ltmp1291:
.LBB36_127:
	bt r1, .LBB36_147
.Ltmp1292:
	ldc r1, 432
	.loc	1 2674 2
.Ltmp1293:
	mul r1, r8, r1
	{
		add r7, r0, r1
		nop
	}
	ldc r1, 1168
	{
		add r1, r7, r1
		ldc r2, 0
	}
	{
		nop
		stw r2, r1[0]
	}
.Ltmp1294:
	.loc	1 2676 6
	{
		ldaw r1, sp[16]
		ldw r0, r0[11]
	}
	.loc	1 2676 6
	{
		mov r2, r6
		nop
	}
	bl FLAC__bitreader_read_raw_int64
	bf r0, .LBB36_214
.Ltmp1295:
	ldc r0, 1176
	.loc	1 2670 2
	{
		add r0, r7, r0
		nop
	}
	.loc	1 2679 2
	ldd r2, r1, sp[8]
.Ltmp1296:
	.loc	1 2679 2
	std r2, r1, r0[0]
	{
		nop
		ldw r0, sp[13]
	}
	bf r0, .LBB36_136
.Ltmp1297:
	.loc	1 2684 4
	{
		ldc r0, 32
		ldw r1, r4[1]
	}
.Ltmp1298:
	.loc	1 2683 6
	{
		lsu r0, r0, r6
		nop
	}
	bt r0, .LBB36_134
.Ltmp1299:
	ldc r0, 1128
	.loc	1 2685 4
.Ltmp1300:
	{
		add r0, r1, r0
		nop
	}
	{
		nop
		ldw r2, r0[0]
	}
	bf r2, .LBB36_136
.Ltmp1301:
	.loc	1 2684 4
	ldaw r1, r1[r8]
	{
		ldc r2, 48
		nop
	}
	{
		add r1, r1, r2
		nop
	}
	{
		nop
		ldw r1, r1[0]
	}
.Ltmp1302:
	.loc	1 2686 5
	{
		ldc r3, 0
		ldw r2, sp[16]
	}
.Ltmp1303:
.LBB36_133:
	.loc	1 2686 5
	stw r2, r1[r3]
.Ltmp1304:
	.loc	1 2685 62
	{
		add r3, r3, 1
		ldw r11, r0[0]
	}
.Ltmp1305:
	.loc	1 2685 4
	{
		lsu r11, r3, r11
		nop
	}
	bt r11, .LBB36_133
	bu .LBB36_136
.Ltmp1306:
.LBB36_144:
	ldc r2, 112
	.loc	1 2901 3
.Ltmp1307:
	{
		add r0, r0, r2
		nop
	}
	{
		nop
		ldw r7, r0[0]
	}
.Ltmp1308:
	ldc r0, 1180
	.loc	1 2903 3
	{
		add r0, r1, r0
		nop
	}
.Ltmp1309:
	{
		nop
		stw r3, r0[0]
	}
	{
		nop
		stw r7, r9[0]
	}
	{
		nop
		ldw r0, r4[1]
	}
	ldc r1, 116
	.loc	1 2905 3
	{
		add r1, r0, r1
		nop
	}
	{
		nop
		stw r3, r1[0]
	}
	ldc r1, 1128
	.loc	1 2907 3
.Ltmp1310:
	{
		add r1, r0, r1
		nop
	}
	.loc	1 2907 3
	{
		ldc r10, 0
		ldw r1, r1[0]
	}
	bf r1, .LBB36_136
.Ltmp1311:
.LBB36_145:
	.loc	1 2908 8
	{
		ldaw r1, sp[16]
		ldw r0, r0[11]
	}
	.loc	1 2908 8
	{
		mov r2, r6
		nop
	}
	bl FLAC__bitreader_read_raw_int64
	bf r0, .LBB36_214
.Ltmp1312:
	.loc	1 2910 4
	ldd r1, r0, sp[8]
	.loc	1 2910 4
	std r1, r0, r7[0]
.Ltmp1313:
	.loc	1 2907 61
	{
		add r10, r10, 1
		ldw r0, r4[1]
	}
.Ltmp1314:
	ldc r1, 1128
	.loc	1 2907 3
	{
		add r1, r0, r1
		nop
	}
	.loc	1 2907 3
	{
		add r7, r7, 8
		ldw r1, r1[0]
	}
	.loc	1 2907 3
	{
		lsu r1, r10, r1
		nop
	}
	bt r1, .LBB36_145
	bu .LBB36_136
.Ltmp1315:
.LBB36_147:
	.loc	1 2610 10
	{
		shr r2, r1, 4
		nop
	}
	bf r2, .LBB36_148
.Ltmp1316:
	{
		ldc r2, 24
		nop
	}
	.loc	1 2615 10
.Ltmp1317:
	{
		lsu r2, r2, r1
		nop
	}
	bt r2, .LBB36_185
.Ltmp1318:
	.loc	1 2616 3
	{
		shr r3, r1, 1
		nop
	}
	.loc	1 2616 3
	{
		zext r3, 3
		nop
	}
.Ltmp1319:
	ldc r1, 1128
	.loc	1 2617 6
.Ltmp1320:
	{
		add r1, r0, r1
		nop
	}
	{
		nop
		ldw r1, r1[0]
	}
	.loc	1 2617 6
	{
		lsu r1, r3, r1
		nop
	}
	bf r1, .LBB36_119
.Ltmp1321:
	ldc r1, 432
	.loc	1 2705 2
.Ltmp1322:
	mul r1, r8, r1
	{
		add r11, r0, r1
		nop
	}
	ldc r1, 1168
	{
		add r1, r11, r1
		ldc r2, 2
	}
	{
		nop
		stw r2, r1[0]
	}
	.loc	1 2707 2
	ldaw r1, r0[r8]
	ldc r2, 80
	{
		add r1, r1, r2
		nop
	}
	{
		nop
		ldw r1, r1[0]
	}
	ldc r2, 1224
	.loc	1 2707 2
	{
		add r2, r11, r2
		nop
	}
	{
		nop
		stw r1, r2[0]
	}
	ldc r1, 1188
	.loc	1 2708 2
	{
		add r1, r11, r1
		nop
	}
	{
		nop
		stw r3, r1[0]
	}
.Ltmp1323:
	{
		nop
		ldw r0, r0[11]
	}
	{
		nop
		stw r3, sp[10]
	}
.Ltmp1324:
	.loc	1 2711 2
	bf r3, .LBB36_153
.Ltmp1325:
	ldc r1, 1192
	{
		add r7, r11, r1
		stw r11, sp[9]
	}
	{
		ldc r10, 0
		nop
	}
.Ltmp1326:
.LBB36_155:
	{
		ldaw r1, sp[16]
		mov r2, r6
	}
	.loc	1 2712 7
.Ltmp1327:
	bl FLAC__bitreader_read_raw_int64
	bf r0, .LBB36_214
.Ltmp1328:
	.loc	1 2714 3
	ldd r1, r0, sp[8]
	.loc	1 2714 3
	std r1, r0, r7[0]
.Ltmp1329:
	.loc	1 2711 24
	{
		add r10, r10, 1
		ldw r0, r4[1]
	}
.Ltmp1330:
	.loc	1 2712 7
	{
		add r7, r7, 8
		ldw r0, r0[11]
	}
	{
		nop
		ldw r1, sp[10]
	}
.Ltmp1331:
	.loc	1 2711 2
	{
		lsu r1, r10, r1
		nop
	}
.Ltmp1332:
	bt r1, .LBB36_155
	bu .LBB36_157
.Ltmp1333:
.LBB36_134:
	ldc r0, 112
	.loc	1 2688 4
.Ltmp1334:
	{
		add r0, r1, r0
		nop
	}
	{
		nop
		ldw r0, r0[0]
	}
.Ltmp1335:
	ldc r2, 116
	.loc	1 2689 4
	{
		add r2, r1, r2
		mkmsk r3, 1
	}
	{
		nop
		stw r3, r2[0]
	}
.Ltmp1336:
	ldc r2, 1128
	.loc	1 2690 4
.Ltmp1337:
	{
		add r1, r1, r2
		nop
	}
	{
		nop
		ldw r1, r1[0]
	}
	bf r1, .LBB36_136
.Ltmp1338:
.LBB36_135:
	.loc	1 2691 5
	ldd r3, r2, sp[8]
	.loc	1 2691 5
	std r3, r2, r0[0]
	.loc	1 2690 4
	{
		sub r1, r1, 1
		add r0, r0, 8
	}
	bt r1, .LBB36_135
.Ltmp1339:
.LBB36_136:
	bt r5, .LBB36_229
	bu .LBB36_237
.Ltmp1340:
.LBB36_185:
	.loc	1 2627 10
	{
		shr r2, r1, 6
		nop
	}
	bt r2, .LBB36_186
.Ltmp1341:
.LBB36_148:
	ldc r1, 4680
	.loc	1 3234 5
.Ltmp1342:
	{
		add r1, r0, r1
		nop
	}
	{
		nop
		ldw r1, r1[0]
	}
	bf r1, .LBB36_149
.Ltmp1343:
	ldc r1, 8336
	.loc	1 3237 3
.Ltmp1344:
	{
		add r0, r0, r1
		nop
	}
	{
		nop
		ldw r1, r0[0]
	}
	.loc	1 3237 3
	{
		add r1, r1, 1
		nop
	}
	{
		nop
		stw r1, r0[0]
	}
	bu .LBB36_122
.Ltmp1345:
.LBB36_149:
	{
		nop
		ldw r3, r0[8]
	}
.Ltmp1346:
	.loc	1 3235 3
	{
		mov r0, r4
		ldw r2, r0[9]
	}
	{
		mkmsk r1, 2
		nop
	}
	bu .LBB36_121
.Ltmp1347:
.LBB36_186:
	.loc	1 2633 3
	{
		shr r1, r1, 1
		nop
	}
	.loc	1 2633 3
	{
		zext r1, 5
		nop
	}
	.loc	1 2633 3
	{
		add r3, r1, 1
		nop
	}
.Ltmp1348:
	ldc r1, 1128
	.loc	1 2634 6
.Ltmp1349:
	{
		add r1, r0, r1
		nop
	}
	{
		nop
		ldw r1, r1[0]
	}
	.loc	1 2634 6
	{
		lsu r1, r3, r1
		nop
	}
	bf r1, .LBB36_119
.Ltmp1350:
	ldc r1, 432
	.loc	1 2781 2
.Ltmp1351:
	mul r1, r8, r1
	{
		add r11, r0, r1
		nop
	}
	{
		nop
		stw r11, sp[8]
	}
	ldc r1, 1168
	{
		add r1, r11, r1
		mkmsk r2, 2
	}
	{
		nop
		stw r2, r1[0]
	}
	.loc	1 2783 2
	ldaw r1, r0[r8]
	ldc r2, 80
	{
		add r1, r1, r2
		nop
	}
	{
		nop
		ldw r1, r1[0]
	}
	ldc r2, 1584
	.loc	1 2783 2
	{
		add r2, r11, r2
		nop
	}
	{
		nop
		stw r1, r2[0]
	}
	ldc r1, 1188
	.loc	1 2784 2
	{
		add r1, r11, r1
		nop
	}
	{
		nop
		stw r3, r1[0]
	}
.Ltmp1352:
	{
		nop
		stw r3, sp[10]
	}
.Ltmp1353:
	{
		nop
		ldw r0, r0[11]
	}
	ldc r1, 1328
	{
		add r7, r11, r1
		ldc r10, 0
	}
.Ltmp1354:
.LBB36_188:
	{
		ldaw r1, sp[16]
		mov r2, r6
	}
	.loc	1 2788 7
.Ltmp1355:
	bl FLAC__bitreader_read_raw_int64
	bf r0, .LBB36_214
.Ltmp1356:
	.loc	1 2790 3
	ldd r1, r0, sp[8]
	.loc	1 2790 3
	std r1, r0, r7[0]
.Ltmp1357:
	.loc	1 2787 24
	{
		add r10, r10, 1
		ldw r0, r4[1]
	}
.Ltmp1358:
	.loc	1 2788 7
	{
		add r7, r7, 8
		ldw r0, r0[11]
	}
	{
		nop
		ldw r1, sp[10]
	}
.Ltmp1359:
	.loc	1 2787 2
	{
		lsu r1, r10, r1
		nop
	}
	bt r1, .LBB36_188
.Ltmp1360:
	ldaw r1, sp[899]
	.loc	1 2794 6
.Ltmp1361:
	ldw r2, cp[FLAC__SUBFRAME_LPC_QLP_COEFF_PRECISION_LEN]
	.loc	1 2794 6
	bl FLAC__bitreader_read_raw_uint32
	bf r0, .LBB36_214
.Ltmp1362:
	.loc	1 2796 5
	ldw r0, sp[899]
	{
		nop
		ldw r1, sp[11]
	}
	.loc	1 2796 5
	{
		eq r1, r0, r1
		nop
	}
	bt r1, .LBB36_192
.Ltmp1363:
	.loc	1 2801 2
	{
		add r0, r0, 1
		nop
	}
	ldc r1, 1192
	{
		nop
		ldw r2, sp[8]
	}
	.loc	1 2801 2
	{
		add r10, r2, r1
		nop
	}
	{
		nop
		stw r0, r10[0]
	}
	{
		nop
		ldw r0, r4[1]
	}
	{
		nop
		ldw r0, r0[11]
	}
.Ltmp1364:
	ldaw r1, sp[894]
	.loc	1 2804 6
.Ltmp1365:
	ldw r2, cp[FLAC__SUBFRAME_LPC_QLP_SHIFT_LEN]
	.loc	1 2804 6
	bl FLAC__bitreader_read_raw_int32
	bf r0, .LBB36_214
.Ltmp1366:
	.loc	1 2806 5
	ldw r0, sp[894]
	.loc	1 2806 5
	ashr r1, r0, 32
	bt r1, .LBB36_192
.Ltmp1367:
	ldc r1, 1196
	{
		nop
		ldw r2, sp[8]
	}
	.loc	1 2811 2
	{
		add r1, r2, r1
		nop
	}
.Ltmp1368:
	{
		nop
		stw r1, sp[7]
	}
	{
		nop
		stw r0, r1[0]
	}
	{
		nop
		ldw r0, r4[1]
	}
	{
		nop
		ldw r0, r0[11]
	}
	ldc r1, 1200
	{
		add r1, r2, r1
		nop
	}
	{
		ldc r7, 0
		stw r1, sp[9]
	}
.Ltmp1369:
.LBB36_198:
	{
		nop
		ldw r2, r10[0]
	}
	ldaw r1, sp[894]
	.loc	1 2815 7
.Ltmp1370:
	bl FLAC__bitreader_read_raw_int32
	bf r0, .LBB36_214
.Ltmp1371:
	.loc	1 2817 3
	ldw r0, sp[894]
	{
		nop
		ldw r1, sp[9]
	}
	.loc	1 2817 3
	stw r0, r1[r7]
.Ltmp1372:
	.loc	1 2814 24
	{
		add r7, r7, 1
		ldw r0, r4[1]
	}
.Ltmp1373:
	{
		nop
		ldw r0, r0[11]
	}
	{
		nop
		ldw r1, sp[10]
	}
	.loc	1 2814 2
	{
		lsu r1, r7, r1
		nop
	}
	bt r1, .LBB36_198
.Ltmp1374:
	ldaw r1, sp[899]
	.loc	1 2718 6
.Ltmp1375:
	ldw r2, cp[FLAC__ENTROPY_CODING_METHOD_TYPE_LEN]
.Ltmp1376:
	.loc	1 2821 6
	bl FLAC__bitreader_read_raw_uint32
	bf r0, .LBB36_214
.Ltmp1377:
	{
		ldc r9, 2
		nop
	}
	.loc	1 2823 2
	ldw r1, sp[899]
	ldc r0, 1176
	{
		nop
		ldw r2, sp[8]
	}
	.loc	1 2823 2
	{
		add r7, r2, r0
		nop
	}
	{
		nop
		stw r1, r7[0]
	}
	.loc	1 2827 8
.Ltmp1378:
	{
		mkmsk r2, 1
		ldw r0, r4[1]
	}
.Ltmp1379:
	.loc	1 2824 2
	{
		lsu r1, r2, r1
		nop
	}
	bt r1, .LBB36_209
.Ltmp1380:
	{
		nop
		ldw r0, r0[11]
	}
	ldaw r1, sp[899]
	.loc	1 2724 8
.Ltmp1381:
	ldw r2, cp[FLAC__ENTROPY_CODING_METHOD_PARTITIONED_RICE_ORDER_LEN]
.Ltmp1382:
	.loc	1 2827 8
	bl FLAC__bitreader_read_raw_uint32
	bf r0, .LBB36_214
.Ltmp1383:
	{
		nop
		ldw r0, r4[1]
	}
	ldc r1, 1128
	.loc	1 2829 7
.Ltmp1384:
	{
		add r1, r0, r1
		nop
	}
	{
		nop
		ldw r1, r1[0]
	}
	.loc	1 2829 7
	ldw r2, sp[899]
	.loc	1 2829 7
	{
		shr r3, r1, r2
		ldw r11, sp[10]
	}
	.loc	1 2829 7
	{
		lsu r3, r3, r11
		nop
	}
	bt r3, .LBB36_205
.Ltmp1385:
	.loc	1 2829 7
	{
		mkmsk r3, r2
		nop
	}
	.loc	1 2829 7
	{
		and r1, r3, r1
		nop
	}
	bf r1, .LBB36_212
.Ltmp1386:
.LBB36_205:
	ldc r1, 4680
	.loc	1 3234 5
.Ltmp1387:
	{
		add r1, r0, r1
		nop
	}
	{
		nop
		ldw r1, r1[0]
	}
	bt r1, .LBB36_208
.Ltmp1388:
	{
		nop
		ldw r3, r0[8]
	}
.Ltmp1389:
	.loc	1 3235 3
	{
		mov r0, r4
		ldw r2, r0[9]
	}
	{
		ldc r1, 0
		nop
	}
	bu .LBB36_207
.Ltmp1390:
.LBB36_119:
	ldc r1, 4680
	.loc	1 3234 5
.Ltmp1391:
	{
		add r1, r0, r1
		nop
	}
	{
		nop
		ldw r1, r1[0]
	}
	bt r1, .LBB36_122
.Ltmp1392:
	{
		nop
		ldw r3, r0[8]
	}
.Ltmp1393:
	.loc	1 3235 3
	{
		mov r0, r4
		ldw r2, r0[9]
	}
	{
		ldc r1, 0
		nop
	}
.Ltmp1394:
.LBB36_121:
	{
		nop
		bla r3
	}
.LBB36_122:
.Ltmp1395:
	.loc	1 2586 4
	{
		ldc r1, 2
		ldw r0, r4[0]
	}
	{
		nop
		stw r1, r0[0]
	}
.Ltmp1396:
.LBB36_237:
	.loc	1 2052 71
	{
		add r8, r8, 1
		ldw r1, r4[1]
	}
.Ltmp1397:
	ldc r7, 1136
	.loc	1 2052 2
	{
		add r0, r1, r7
		nop
	}
	{
		nop
		ldw r0, r0[0]
	}
	.loc	1 2052 2
	{
		lsu r2, r8, r0
		nop
	}
	bt r2, .LBB36_110
	bu .LBB36_238
.Ltmp1398:
.LBB36_153:
	{
		nop
		stw r11, sp[9]
	}
.Ltmp1399:
.LBB36_157:
	ldaw r1, sp[894]
	.loc	1 2718 6
.Ltmp1400:
	ldw r2, cp[FLAC__ENTROPY_CODING_METHOD_TYPE_LEN]
	.loc	1 2718 6
	bl FLAC__bitreader_read_raw_uint32
	bf r0, .LBB36_214
.Ltmp1401:
	.loc	1 2720 2
	ldw r1, sp[894]
	ldc r0, 1176
	{
		nop
		ldw r3, sp[9]
	}
	.loc	1 2720 2
	{
		add r7, r3, r0
		nop
	}
	{
		nop
		stw r1, r7[0]
	}
	.loc	1 2724 8
.Ltmp1402:
	{
		mkmsk r2, 1
		ldw r0, r4[1]
	}
.Ltmp1403:
	.loc	1 2721 2
	{
		lsu r1, r2, r1
		nop
	}
	bt r1, .LBB36_166
.Ltmp1404:
	{
		mov r10, r3
		ldw r0, r0[11]
	}
	ldaw r1, sp[894]
	.loc	1 2724 8
.Ltmp1405:
	ldw r2, cp[FLAC__ENTROPY_CODING_METHOD_PARTITIONED_RICE_ORDER_LEN]
	.loc	1 2724 8
	bl FLAC__bitreader_read_raw_uint32
	bf r0, .LBB36_214
.Ltmp1406:
	{
		nop
		ldw r0, r4[1]
	}
	ldc r1, 1128
	.loc	1 2726 7
.Ltmp1407:
	{
		add r1, r0, r1
		nop
	}
	{
		nop
		ldw r1, r1[0]
	}
	.loc	1 2726 7
	ldw r2, sp[894]
.Ltmp1408:
	.loc	1 2726 7
	{
		shr r3, r1, r2
		ldw r9, sp[10]
	}
.Ltmp1409:
	.loc	1 2726 7
	{
		lsu r3, r3, r9
		nop
	}
	bt r3, .LBB36_162
.Ltmp1410:
	.loc	1 2726 7
	{
		mkmsk r3, r2
		nop
	}
	.loc	1 2726 7
	{
		and r1, r3, r1
		nop
	}
	bf r1, .LBB36_169
.Ltmp1411:
.LBB36_162:
	ldc r1, 4680
	.loc	1 3234 5
.Ltmp1412:
	{
		add r1, r0, r1
		nop
	}
	{
		nop
		ldw r1, r1[0]
	}
	bt r1, .LBB36_165
.Ltmp1413:
	{
		nop
		ldw r3, r0[8]
	}
.Ltmp1414:
	.loc	1 3235 3
	{
		mov r0, r4
		ldw r2, r0[9]
	}
	{
		ldc r1, 0
		nop
	}
	bu .LBB36_164
.Ltmp1415:
.LBB36_166:
	ldc r1, 4680
	.loc	1 3234 5
.Ltmp1416:
	{
		add r1, r0, r1
		nop
	}
	{
		nop
		ldw r1, r1[0]
	}
	.loc	1 3234 5
	bf r1, .LBB36_167
.Ltmp1417:
	ldc r1, 8336
	.loc	1 3237 3
.Ltmp1418:
	{
		add r0, r0, r1
		nop
	}
	{
		nop
		ldw r1, r0[0]
	}
	.loc	1 3237 3
	{
		add r1, r1, 1
		nop
	}
	{
		nop
		stw r1, r0[0]
	}
	bu .LBB36_165
.Ltmp1419:
.LBB36_192:
	{
		nop
		ldw r0, r4[1]
	}
	ldc r1, 4680
	.loc	1 3234 5
.Ltmp1420:
	{
		add r1, r0, r1
		nop
	}
	{
		nop
		ldw r1, r1[0]
	}
	bt r1, .LBB36_194
.Ltmp1421:
	{
		nop
		ldw r3, r0[8]
	}
	.loc	1 3235 3
	{
		mov r0, r4
		ldw r2, r0[9]
	}
	{
		ldc r1, 0
		nop
	}
	{
		nop
		bla r3
	}
.Ltmp1422:
.LBB36_194:
	.loc	1 2798 3
	{
		ldc r1, 2
		ldw r0, r4[0]
	}
	{
		nop
		stw r1, r0[0]
	}
.Ltmp1423:
.LBB36_227:
	{
		nop
		ldw r0, r4[0]
	}
	{
		nop
		ldw r0, r0[0]
	}
	.loc	1 2641 6
.Ltmp1424:
	{
		eq r0, r0, 2
		nop
	}
	bt r0, .LBB36_237
.Ltmp1425:
	bt r5, .LBB36_229
	bu .LBB36_237
.Ltmp1426:
.LBB36_167:
	{
		nop
		ldw r3, r0[8]
	}
.Ltmp1427:
	.loc	1 3235 3
	{
		mov r0, r4
		ldw r2, r0[9]
	}
	{
		mkmsk r1, 2
		nop
	}
.Ltmp1428:
.LBB36_164:
	{
		nop
		bla r3
	}
.LBB36_165:
.Ltmp1429:
	.loc	1 2729 5
	{
		ldc r1, 2
		ldw r0, r4[0]
	}
	{
		nop
		stw r1, r0[0]
	}
.Ltmp1430:
.LBB36_183:
	{
		nop
		ldw r0, r4[0]
	}
	{
		nop
		ldw r0, r0[0]
	}
	.loc	1 2624 6
.Ltmp1431:
	{
		eq r0, r0, 2
		nop
	}
	bt r0, .LBB36_237
.Ltmp1432:
	bf r5, .LBB36_237
.Ltmp1433:
.LBB36_229:
	{
		nop
		ldw r0, sp[13]
	}
	bf r0, .LBB36_237
.Ltmp1434:
	{
		nop
		ldw r1, r4[1]
	}
	ldc r0, 432
	.loc	1 2646 3
.Ltmp1435:
	mul r0, r8, r0
	{
		add r0, r1, r0
		nop
	}
	ldc r2, 1592
	{
		add r0, r0, r2
		nop
	}
	{
		nop
		ldw r2, r0[0]
	}
.Ltmp1436:
	.loc	1 2646 3
	stw r2, sp[898]
	.loc	1 2647 6
.Ltmp1437:
	{
		add r0, r2, r6
		ldc r3, 32
	}
	.loc	1 2647 6
	{
		lsu r0, r3, r0
		nop
	}
	bt r0, .LBB36_234
.Ltmp1438:
	ldc r0, 1128
	.loc	1 2648 4
.Ltmp1439:
	{
		add r0, r1, r0
		nop
	}
	{
		nop
		ldw r3, r0[0]
	}
	bf r3, .LBB36_237
.Ltmp1440:
	.loc	1 2082 7
	ldaw r1, r1[r8]
	{
		ldc r3, 48
		nop
	}
	{
		add r1, r1, r3
		nop
	}
	{
		nop
		ldw r1, r1[0]
	}
	{
		nop
		ldw r3, r1[0]
	}
.Ltmp1441:
	.loc	1 2650 5
	{
		shl r2, r3, r2
		nop
	}
.Ltmp1442:
	{
		nop
		stw r2, r1[0]
	}
.Ltmp1443:
	.loc	1 2648 4
	{
		ldc r3, 2
		ldw r2, r0[0]
	}
.Ltmp1444:
	.loc	1 2648 4
	{
		lsu r3, r2, r3
		mkmsk r2, 1
	}
	bt r3, .LBB36_237
.Ltmp1445:
.LBB36_233:
	.loc	1 2650 5
	ldw r3, sp[898]
	{
		nop
		ldw r11, r1[r2]
	}
.Ltmp1446:
	.loc	1 2650 5
	{
		shl r3, r11, r3
		nop
	}
	.loc	1 2650 5
	stw r3, r1[r2]
.Ltmp1447:
	.loc	1 2648 62
	{
		add r2, r2, 1
		ldw r3, r0[0]
	}
	.loc	1 2648 4
	{
		lsu r3, r2, r3
		nop
	}
.Ltmp1448:
	bt r3, .LBB36_233
	bu .LBB36_237
.Ltmp1449:
.LBB36_234:
	ldc r0, 116
	{
		mov r5, r0
		nop
	}
	.loc	1 2656 4
.Ltmp1450:
	{
		add r0, r1, r5
		nop
	}
	{
		nop
		ldw r0, r0[0]
	}
	.loc	1 2656 4
	{
		eq r0, r0, 0
		nop
	}
	.loc	1 2656 4
	bl assert
	{
		nop
		ldw r0, r4[1]
	}
	.loc	1 2657 4
	{
		add r1, r0, r5
		mkmsk r2, 1
	}
	{
		nop
		stw r2, r1[0]
	}
.Ltmp1451:
	ldc r1, 1128
	.loc	1 2658 4
.Ltmp1452:
	{
		add r1, r0, r1
		nop
	}
	{
		nop
		ldw r6, r1[0]
	}
	bf r6, .LBB36_237
.Ltmp1453:
	.loc	1 2660 5
	ldw r5, sp[898]
.Ltmp1454:
	.loc	1 2082 7
	ldaw r1, r0[r8]
	{
		ldc r2, 48
		nop
	}
	{
		add r1, r1, r2
		nop
	}
	{
		nop
		ldw r7, r1[0]
	}
	ldc r1, 112
	.loc	1 2082 7
	{
		add r0, r0, r1
		nop
	}
	{
		nop
		ldw r10, r0[0]
	}
.Ltmp1455:
.LBB36_236:
	{
		nop
		ldw r0, r7[0]
	}
	.loc	1 2659 5
.Ltmp1456:
	ashr r1, r0, 32
	.loc	1 2660 5
	{
		mov r2, r5
		nop
	}
	bl __ashldi3
	.loc	1 2660 5
	std r1, r0, r10[0]
.Ltmp1457:
	.loc	1 2658 4
	{
		sub r6, r6, 1
		add r10, r10, 8
	}
	.loc	1 2658 4
	{
		add r7, r7, 4
		nop
	}
	bt r6, .LBB36_236
	bu .LBB36_237
.Ltmp1458:
.LBB36_169:
	ldc r1, 1180
	.loc	1 2732 4
.Ltmp1459:
	{
		add r1, r10, r1
		nop
	}
	.loc	1 2732 4
	{
		ldc r1, 12
		stw r2, r1[0]
	}
	.loc	1 2733 4
	mul r1, r8, r1
	{
		add r1, r0, r1
		nop
	}
	ldc r3, 120
	{
		add r3, r1, r3
		nop
	}
	ldc r1, 1184
	.loc	1 2733 4
	{
		add r1, r10, r1
		nop
	}
	{
		nop
		stw r3, r1[0]
	}
.Ltmp1460:
	.loc	1 2742 2
	{
		ldc r11, 2
		ldw r1, r7[0]
	}
	.loc	1 2742 2
	{
		lsu r11, r1, r11
		nop
	}
	.loc	1 2742 2
	bf r11, .LBB36_171
.Ltmp1461:
	.loc	1 2745 8
	ldaw r0, r0[r8]
	ldc r11, 80
	{
		add r0, r0, r11
		nop
	}
	.loc	1 2745 8
	{
		eq r1, r1, 1
		ldw r0, r0[0]
	}
	{
		nop
		stw r0, sp[1]
	}
	.loc	1 2745 8
	{
		mov r0, r4
		stw r1, sp[2]
	}
.Ltmp1462:
	{
		mov r1, r9
		mov r10, r9
	}
.Ltmp1463:
	bl read_residual_partitioned_rice_
	bt r0, .LBB36_172
	bu .LBB36_214
.Ltmp1464:
.LBB36_171:
	{
		mov r10, r9
		ldc r0, 0
	}
.Ltmp1465:
	.loc	1 2749 4
	bl assert
.Ltmp1466:
.LBB36_172:
	{
		nop
		ldw r0, sp[13]
	}
	bf r0, .LBB36_183
.Ltmp1467:
	{
		ldc r0, 32
		nop
	}
	.loc	1 2754 6
.Ltmp1468:
	{
		lsu r0, r0, r6
		nop
	}
	bt r0, .LBB36_181
.Ltmp1469:
	{
		mov r11, r10
		nop
	}
.Ltmp1470:
	.loc	1 2756 4
	bf r10, .LBB36_175
.Ltmp1471:
	{
		nop
		ldw r1, r4[1]
	}
	.loc	1 2757 5
	ldaw r0, r1[r8]
	{
		ldc r2, 48
		nop
	}
	{
		add r0, r0, r2
		nop
	}
	{
		nop
		ldw r2, r0[0]
	}
	ldc r0, 1192
	{
		nop
		ldw r3, sp[9]
	}
	{
		add r0, r3, r0
		ldc r3, 0
	}
	{
		mov r7, r11
		nop
	}
.Ltmp1472:
.LBB36_177:
	{
		nop
		ldw r11, r0[0]
	}
	.loc	1 2757 5
	stw r11, r2[r3]
.Ltmp1473:
	.loc	1 2756 26
	{
		add r3, r3, 1
		add r0, r0, 8
	}
.Ltmp1474:
	.loc	1 2756 4
	{
		eq r11, r7, r3
		nop
	}
	bf r11, .LBB36_177
.Ltmp1475:
	{
		mov r11, r7
		nop
	}
	bu .LBB36_179
.Ltmp1476:
.LBB36_181:
	{
		nop
		ldw r0, r4[1]
	}
	ldc r1, 116
	.loc	1 2764 4
.Ltmp1477:
	{
		add r1, r0, r1
		mkmsk r2, 1
	}
	{
		nop
		stw r2, r1[0]
	}
	ldc r1, 112
	{
		mov r7, r1
		nop
	}
	.loc	1 2765 4
	{
		add r0, r0, r7
		nop
	}
	{
		nop
		ldw r0, r0[0]
	}
	ldc r1, 1192
	{
		nop
		ldw r2, sp[9]
	}
	.loc	1 2765 4
	{
		add r1, r2, r1
		shl r9, r10, 3
	}
	.loc	1 2765 4
	{
		mov r2, r9
		nop
	}
	bl __memcpy_4
	{
		nop
		ldw r2, r4[1]
	}
	.loc	1 2766 4
	ldaw r0, r2[r8]
	ldc r1, 80
	{
		add r0, r0, r1
		nop
	}
	{
		nop
		ldw r0, r0[0]
	}
	ldc r1, 1128
	.loc	1 2766 4
	{
		add r1, r2, r1
		nop
	}
	{
		nop
		ldw r1, r1[0]
	}
	.loc	1 2766 4
	{
		sub r1, r1, r10
		add r2, r2, r7
	}
	{
		nop
		ldw r2, r2[0]
	}
	.loc	1 2766 4
	{
		add r3, r2, r9
		mov r2, r10
	}
	.loc	1 2766 4
	bl FLAC__fixed_restore_signal_wide_33bit
	bu .LBB36_183
.Ltmp1478:
.LBB36_209:
	ldc r1, 4680
	.loc	1 3234 5
.Ltmp1479:
	{
		add r1, r0, r1
		nop
	}
	{
		nop
		ldw r1, r1[0]
	}
	.loc	1 3234 5
	bf r1, .LBB36_210
.Ltmp1480:
	ldc r1, 8336
	.loc	1 3237 3
.Ltmp1481:
	{
		add r0, r0, r1
		nop
	}
	{
		nop
		ldw r1, r0[0]
	}
	.loc	1 3237 3
	{
		add r1, r1, 1
		nop
	}
	{
		nop
		stw r1, r0[0]
	}
	bu .LBB36_208
.Ltmp1482:
.LBB36_175:
	{
		nop
		ldw r1, r4[1]
	}
	.loc	1 2622 7
.Ltmp1483:
	ldaw r0, r1[r8]
	{
		ldc r2, 48
		nop
	}
	{
		add r0, r0, r2
		nop
	}
	{
		nop
		ldw r2, r0[0]
	}
.Ltmp1484:
.LBB36_179:
	{
		mov r7, r11
		nop
	}
.Ltmp1485:
	.loc	1 2758 7
	{
		add r11, r7, r6
		nop
	}
	.loc	1 2759 5
	ldaw r0, r1[r8]
	ldc r3, 80
	{
		add r0, r0, r3
		nop
	}
	{
		nop
		ldw r0, r0[0]
	}
	ldc r3, 1128
	.loc	1 2759 5
	{
		add r1, r1, r3
		nop
	}
	{
		nop
		ldw r1, r1[0]
	}
	.loc	1 2759 5
	{
		sub r1, r1, r7
		nop
	}
	.loc	1 2759 5
	ldaw r3, r2[r7]
	{
		ldc r2, 32
		nop
	}
	.loc	1 2758 7
	{
		lsu r2, r2, r11
		nop
	}
	bt r2, .LBB36_182
.Ltmp1486:
	.loc	1 2759 5
	{
		mov r2, r7
		nop
	}
	bl FLAC__fixed_restore_signal
	bu .LBB36_183
.Ltmp1487:
.LBB36_182:
	.loc	1 2761 5
	{
		mov r2, r7
		nop
	}
	bl FLAC__fixed_restore_signal_wide
	bu .LBB36_183
.Ltmp1488:
.LBB36_210:
	{
		nop
		ldw r3, r0[8]
	}
.Ltmp1489:
	.loc	1 3235 3
	{
		mov r0, r4
		ldw r2, r0[9]
	}
	{
		mkmsk r1, 2
		nop
	}
.Ltmp1490:
.LBB36_207:
	{
		nop
		bla r3
	}
.LBB36_208:
.Ltmp1491:
	.loc	1 2832 5
	{
		mov r1, r9
		ldw r0, r4[0]
	}
	{
		nop
		stw r1, r0[0]
	}
	bu .LBB36_227
.Ltmp1492:
.LBB36_212:
	ldc r1, 1180
	{
		nop
		ldw r11, sp[8]
	}
	.loc	1 2835 4
	{
		add r1, r11, r1
		nop
	}
	.loc	1 2835 4
	{
		ldc r1, 12
		stw r2, r1[0]
	}
	.loc	1 2836 4
	mul r1, r8, r1
	{
		add r1, r0, r1
		nop
	}
	ldc r3, 120
	{
		add r3, r1, r3
		nop
	}
	ldc r1, 1184
	.loc	1 2836 4
	{
		add r1, r11, r1
		mov r10, r11
	}
	{
		nop
		stw r3, r1[0]
	}
	{
		nop
		ldw r1, r7[0]
	}
.Ltmp1493:
	.loc	1 2845 2
	{
		lsu r11, r1, r9
		nop
	}
	.loc	1 2845 2
	bf r11, .LBB36_217
.Ltmp1494:
	.loc	1 2848 8
	ldaw r0, r0[r8]
	ldc r11, 80
	{
		add r0, r0, r11
		nop
	}
	.loc	1 2848 8
	{
		eq r1, r1, 1
		ldw r0, r0[0]
	}
	{
		nop
		stw r0, sp[1]
	}
	.loc	1 2848 8
	{
		mov r0, r4
		stw r1, sp[2]
	}
	{
		nop
		ldw r1, sp[10]
	}
	bl read_residual_partitioned_rice_
	bt r0, .LBB36_218
	bu .LBB36_214
.Ltmp1495:
.LBB36_217:
	{
		ldc r0, 0
		nop
	}
	.loc	1 2852 4
	bl assert
.Ltmp1496:
.LBB36_218:
	{
		nop
		ldw r0, sp[13]
	}
	bf r0, .LBB36_227
.Ltmp1497:
	.loc	1 2860 5
	{
		ldc r1, 32
		ldw r0, r4[1]
	}
.Ltmp1498:
	.loc	1 2857 6
	{
		lsu r1, r1, r6
		nop
	}
	bt r1, .LBB36_226
.Ltmp1499:
	.loc	1 2860 5
	ldaw r0, r0[r8]
	{
		ldc r1, 48
		nop
	}
	{
		add r0, r0, r1
		nop
	}
	{
		nop
		ldw r0, r0[0]
	}
	ldc r1, 1328
	{
		add r1, r10, r1
		ldw r2, sp[10]
	}
.Ltmp1500:
.LBB36_221:
	{
		nop
		ldw r3, r1[0]
	}
	.loc	1 2860 5
	{
		sub r2, r2, 1
		stw r3, r0[0]
	}
	.loc	1 2859 4
	{
		add r0, r0, 4
		add r1, r1, 8
	}
	.loc	1 2859 4
	bt r2, .LBB36_221
.Ltmp1501:
	{
		nop
		ldw r0, sp[7]
	}
	.loc	1 2861 7
.Ltmp1502:
	{
		mov r0, r6
		ldw r3, r0[0]
	}
	{
		nop
		ldw r1, sp[9]
	}
	{
		nop
		ldw r2, sp[10]
	}
	.loc	1 2861 7
	bl FLAC__lpc_max_residual_bps
	{
		ldc r1, 32
		nop
	}
	.loc	1 2861 7
	{
		lsu r0, r1, r0
		nop
	}
	bt r0, .LBB36_225
.Ltmp1503:
	.loc	1 2862 7
	{
		mov r0, r6
		ldw r1, sp[9]
	}
	{
		nop
		ldw r2, sp[10]
	}
	bl FLAC__lpc_max_prediction_before_shift_bps
	{
		ldc r1, 32
		nop
	}
	.loc	1 2862 7
	{
		lsu r0, r1, r0
		nop
	}
	bt r0, .LBB36_225
.Ltmp1504:
	{
		nop
		ldw r1, r4[1]
	}
	.loc	1 2863 5
	ldaw r2, r1[r8]
	ldc r0, 80
	.loc	1 2863 5
	{
		add r0, r2, r0
		nop
	}
	{
		nop
		ldw r0, r0[0]
	}
	ldc r3, 1128
	.loc	1 2863 5
	{
		add r1, r1, r3
		nop
	}
	{
		nop
		ldw r1, r1[0]
	}
	{
		nop
		ldw r3, sp[10]
	}
.Ltmp1505:
	.loc	1 2863 5
	{
		sub r1, r1, r3
		ldw r11, sp[7]
	}
	.loc	1 2863 5
	{
		ldc r11, 48
		ldw r7, r11[0]
	}
	.loc	1 2863 5
	{
		add r2, r2, r11
		nop
	}
	{
		nop
		ldw r2, r2[0]
	}
	.loc	1 2863 5
	ldaw r2, r2[r3]
	{
		nop
		stw r2, sp[2]
	}
	{
		nop
		stw r7, sp[1]
	}
	{
		nop
		ldw r2, sp[9]
	}
	.loc	1 2863 5
	bl FLAC__lpc_restore_signal
.Ltmp1506:
	bu .LBB36_227
.Ltmp1507:
.LBB36_226:
	ldc r1, 116
	.loc	1 2868 4
.Ltmp1508:
	{
		add r1, r0, r1
		mkmsk r2, 1
	}
	{
		nop
		stw r2, r1[0]
	}
	ldc r1, 112
	{
		mov r7, r1
		nop
	}
	.loc	1 2869 4
	{
		add r0, r0, r7
		nop
	}
	{
		nop
		ldw r0, r0[0]
	}
	ldc r1, 1328
.Ltmp1509:
	.loc	1 2869 4
	{
		add r1, r10, r1
		ldw r10, sp[10]
	}
.Ltmp1510:
	.loc	1 2869 4
	{
		shl r9, r10, 3
		nop
	}
	.loc	1 2869 4
	{
		mov r2, r9
		nop
	}
	bl __memcpy_4
	{
		nop
		ldw r2, r4[1]
	}
	.loc	1 2870 4
	ldaw r0, r2[r8]
	ldc r1, 80
	{
		add r0, r0, r1
		nop
	}
	{
		nop
		ldw r0, r0[0]
	}
	ldc r1, 1128
	.loc	1 2870 4
	{
		add r1, r2, r1
		nop
	}
	{
		nop
		ldw r1, r1[0]
	}
	.loc	1 2870 4
	{
		sub r1, r1, r10
		ldw r3, sp[7]
	}
	.loc	1 2870 4
	{
		add r2, r2, r7
		ldw r3, r3[0]
	}
	{
		nop
		ldw r2, r2[0]
	}
	.loc	1 2870 4
	{
		add r2, r2, r9
		nop
	}
	{
		nop
		stw r2, sp[2]
	}
	{
		nop
		stw r3, sp[1]
	}
	.loc	1 2870 4
	{
		mov r3, r10
		ldw r2, sp[9]
	}
	bl FLAC__lpc_restore_signal_wide_33bit
	bu .LBB36_227
.Ltmp1511:
.LBB36_225:
	{
		nop
		ldw r1, r4[1]
	}
	.loc	1 2865 5
.Ltmp1512:
	ldaw r2, r1[r8]
	ldc r0, 80
	.loc	1 2865 5
	{
		add r0, r2, r0
		nop
	}
	{
		nop
		ldw r0, r0[0]
	}
	ldc r3, 1128
	.loc	1 2865 5
	{
		add r1, r1, r3
		nop
	}
	{
		nop
		ldw r1, r1[0]
	}
	{
		nop
		ldw r3, sp[10]
	}
.Ltmp1513:
	.loc	1 2865 5
	{
		sub r1, r1, r3
		ldw r11, sp[7]
	}
	.loc	1 2865 5
	{
		ldc r11, 48
		ldw r7, r11[0]
	}
	.loc	1 2865 5
	{
		add r2, r2, r11
		nop
	}
	{
		nop
		ldw r2, r2[0]
	}
	.loc	1 2865 5
	ldaw r2, r2[r3]
	{
		nop
		stw r2, sp[2]
	}
	{
		nop
		stw r7, sp[1]
	}
	{
		nop
		ldw r2, sp[9]
	}
	.loc	1 2865 5
	bl FLAC__lpc_restore_signal_wide
.Ltmp1514:
	bu .LBB36_227
.Ltmp1515:
.LBB36_110:
	ldc r2, 1144
	.loc	1 2056 3
	{
		add r2, r1, r2
		nop
	}
	{
		nop
		ldw r6, r2[0]
	}
.Ltmp1516:
	ldc r2, 1140
	.loc	1 2057 3
	{
		add r1, r1, r2
		nop
	}
	.loc	1 2057 3
	{
		mkmsk r2, 2
		ldw r1, r1[0]
	}
	.loc	1 2057 3
	{
		lsu r2, r2, r1
		nop
	}
	bf r2, .LBB36_111
.Ltmp1517:
	{
		ldc r0, 0
		nop
	}
	.loc	1 2077 5
.Ltmp1518:
	bl assert
	bu .LBB36_115
.Ltmp1519:
.LBB36_111:

	.xtabranch .Ljumptable6+4,.Ljumptable6+8,.Ljumptable6+12,.Ljumptable6+16
.Ljumptable6:
		
	{
		nop
		bru r1
	}
	.jmptable32 .LBB36_115,.LBB36_113,.LBB36_112,.LBB36_113
.Ltmp1520:
.LBB36_113:
	.loc	1 2062 5
	{
		eq r0, r0, 2
		nop
	}
	.loc	1 2062 5
	bl assert
	.loc	1 2063 8
.Ltmp1521:
	{
		eq r0, r8, 1
		nop
	}
	.loc	1 2063 8
	{
		add r6, r6, r0
		nop
	}
	bu .LBB36_115
.Ltmp1522:
.LBB36_112:
	.loc	1 2067 5
	{
		eq r0, r0, 2
		nop
	}
	.loc	1 2067 5
	bl assert
	.loc	1 2068 8
.Ltmp1523:
	{
		eq r0, r8, 0
		nop
	}
	.loc	1 2068 8
	{
		add r6, r6, r0
		nop
	}
.Ltmp1524:
.LBB36_115:
	{
		nop
		ldw r0, r4[1]
	}
	{
		nop
		ldw r0, r0[11]
	}
	ldaw r1, sp[898]
	{
		ldc r2, 8
		nop
	}
	.loc	1 2573 6
.Ltmp1525:
	bl FLAC__bitreader_read_raw_uint32
	bt r0, .LBB36_116
	bu .LBB36_215
.Ltmp1526:
.LBB36_107:
	{
		mov r0, r1
		nop
	}
	bu .LBB36_337
.LBB36_238:
.Ltmp1527:
	{
		nop
		ldw r0, r4[0]
	}
	{
		nop
		ldw r0, r0[0]
	}
	{
		eq r0, r0, 4
		nop
	}
	bt r0, .LBB36_291
.Ltmp1528:
	{
		nop
		ldw r0, r4[1]
	}
	{
		nop
		ldw r0, r0[11]
	}
	.loc	1 2979 6
.Ltmp1529:
	bl FLAC__bitreader_is_consumed_byte_aligned
	bt r0, .LBB36_245
.Ltmp1530:
	{
		ldc r6, 0
		nop
	}
	{
		nop
		stw r6, sp[16]
	}
	{
		nop
		ldw r0, r4[1]
	}
	{
		nop
		ldw r5, r0[11]
	}
	.loc	1 2981 72
.Ltmp1531:
	{
		mov r0, r5
		nop
	}
	bl FLAC__bitreader_bits_left_for_byte_alignment
.Ltmp1532:
	{
		mov r2, r0
		ldaw r1, sp[16]
	}
.Ltmp1533:
	.loc	1 2981 7
	{
		mov r0, r5
		nop
	}
	bl FLAC__bitreader_read_raw_uint32
	bf r0, .LBB36_336
.Ltmp1534:
	{
		nop
		ldw r0, sp[16]
	}
	bf r0, .LBB36_245
.Ltmp1535:
	{
		nop
		ldw r0, r4[1]
	}
	ldc r1, 4680
	.loc	1 3234 5
.Ltmp1536:
	{
		add r1, r0, r1
		nop
	}
	{
		nop
		ldw r1, r1[0]
	}
	bt r1, .LBB36_244
.Ltmp1537:
	{
		nop
		ldw r3, r0[8]
	}
	.loc	1 3235 3
	{
		ldc r1, 0
		ldw r2, r0[9]
	}
	.loc	1 3235 3
	{
		mov r0, r4
		nop
	}
	{
		nop
		bla r3
	}
.Ltmp1538:
.LBB36_244:
	.loc	1 2986 4
	{
		ldc r1, 2
		ldw r0, r4[0]
	}
	{
		nop
		stw r1, r0[0]
	}
.Ltmp1539:
.LBB36_245:
	{
		nop
		ldw r0, r4[0]
	}
	{
		nop
		ldw r0, r0[0]
	}
	.loc	1 2098 5
.Ltmp1540:
	{
		eq r0, r0, 3
		nop
	}
	bf r0, .LBB36_291
.Ltmp1541:
	{
		nop
		ldw r0, r4[1]
	}
	{
		nop
		ldw r0, r0[11]
	}
	.loc	1 2099 15
.Ltmp1542:
	bl FLAC__bitreader_get_read_crc16
	{
		mov r5, r0
		ldw r0, r4[1]
	}
	{
		nop
		ldw r0, r0[11]
	}
	.loc	1 2100 7
.Ltmp1543:
	ldw r2, cp[FLAC__FRAME_FOOTER_CRC_LEN]
	ldaw r1, sp[892]
.Ltmp1544:
	.loc	1 2100 7
	bl FLAC__bitreader_read_raw_uint32
.Ltmp1545:
	{
		nop
		ldw r1, r4[0]
	}
	{
		nop
		ldw r2, r1[0]
	}
	.loc	1 2100 7
	bf r0, .LBB36_247
.Ltmp1546:
	.loc	1 2107 5
	{
		eq r0, r2, 3
		nop
	}
	bf r0, .LBB36_287
.Ltmp1547:
	ldw r2, sp[892]
	{
		eq r2, r5, r2
		nop
	}
	bf r2, .LBB36_287
.Ltmp1548:
	{
		nop
		ldw r0, sp[13]
	}
	bf r0, .LBB36_291
.Ltmp1549:
	{
		nop
		ldw r11, r4[1]
	}
	ldc r0, 1140
	.loc	1 3083 2
.Ltmp1550:
	{
		add r0, r11, r0
		nop
	}
	.loc	1 3083 2
	{
		mkmsk r1, 2
		ldw r0, r0[0]
	}
	.loc	1 3083 2
	{
		lsu r1, r1, r0
		nop
	}
	bf r1, .LBB36_253
.Ltmp1551:
	{
		ldc r0, 0
		nop
	}
	.loc	1 3128 3
.Ltmp1552:
	bl assert
	{
		nop
		ldw r11, r4[1]
	}
	bu .LBB36_275
.Ltmp1553:
.LBB36_214:
	ldc r7, 1136
.Ltmp1554:
.LBB36_215:
	{
		nop
		ldw r0, r4[0]
	}
	{
		nop
		ldw r0, r0[0]
	}
	.loc	1 2084 7
.Ltmp1555:
	{
		eq r0, r0, 4
		nop
	}
	bt r0, .LBB36_291
.Ltmp1556:
	{
		ldc r0, 0
		nop
	}
	bu .LBB36_337
.LBB36_44:
.Ltmp1557:
	{
		mkmsk r8, 1
		nop
	}
	bu .LBB36_50
.Ltmp1558:
.LBB36_55:
	ldc r1, 1144
	.loc	1 2424 4
.Ltmp1559:
	{
		add r1, r0, r1
		ldc r2, 8
	}
	{
		nop
		stw r2, r1[0]
	}
	bu .LBB36_63
.Ltmp1560:
.LBB36_57:
	ldc r1, 1144
	.loc	1 2427 4
	{
		add r1, r0, r1
		ldc r2, 12
	}
	{
		nop
		stw r2, r1[0]
	}
	bu .LBB36_63
.Ltmp1561:
.LBB36_58:
	ldc r1, 1144
	.loc	1 2433 4
	{
		add r1, r0, r1
		ldc r2, 16
	}
	{
		nop
		stw r2, r1[0]
	}
	bu .LBB36_63
.Ltmp1562:
.LBB36_59:
	ldc r1, 1144
	.loc	1 2436 4
	{
		add r1, r0, r1
		ldc r2, 20
	}
	{
		nop
		stw r2, r1[0]
	}
	bu .LBB36_63
.Ltmp1563:
.LBB36_60:
	ldc r1, 1144
	.loc	1 2439 4
	{
		add r1, r0, r1
		ldc r2, 24
	}
	{
		nop
		stw r2, r1[0]
	}
	bu .LBB36_63
.Ltmp1564:
.LBB36_61:
	ldc r1, 1144
	.loc	1 2442 4
	{
		add r1, r0, r1
		ldc r2, 32
	}
	{
		nop
		stw r2, r1[0]
	}
	bu .LBB36_63
.Ltmp1565:
.LBB36_83:
	{
		nop
		ldw r0, r4[1]
	}
	{
		nop
		ldw r0, r0[11]
	}
	ldaw r1, sp[893]
.Ltmp1566:
	{
		ldc r2, 8
		nop
	}
	.loc	1 2507 8
.Ltmp1567:
	bl FLAC__bitreader_read_raw_uint32
.Ltmp1568:
	bf r0, .LBB36_336
.Ltmp1569:
	.loc	1 2509 4
	ldw r0, sp[893]
	.loc	1 2509 4
	ldw r1, sp[898]
	.loc	1 2509 4
	{
		add r2, r1, 1
		nop
	}
.Ltmp1570:
	.loc	1 2509 4
	stw r2, sp[898]
	{
		ldaw r2, sp[16]
		nop
	}
.Ltmp1571:
	.loc	1 2509 4
	st8 r0, r2[r1]
	.loc	1 2510 4
	ldw r1, sp[899]
	.loc	1 2510 4
	{
		shl r1, r1, 8
		nop
	}
	.loc	1 2510 4
	{
		or r1, r1, r0
		nop
	}
.Ltmp1572:
	.loc	1 2510 4
	stw r1, sp[899]
	{
		ldc r0, 13
		nop
	}
.Ltmp1573:
	.loc	1 2514 11
	{
		eq r0, r5, r0
		nop
	}
	bt r0, .LBB36_86
.Ltmp1574:
	{
		ldc r0, 10
		nop
	}
	.loc	1 2517 4
	mul r1, r1, r0
.Ltmp1575:
.LBB36_86:
	{
		nop
		ldw r0, r4[1]
	}
	ldc r2, 1132
	.loc	1 2517 4
	{
		add r2, r0, r2
		nop
	}
	{
		nop
		stw r1, r2[0]
	}
.Ltmp1576:
.LBB36_87:
	{
		nop
		ldw r0, r0[11]
	}
	ldaw r5, sp[899]
.Ltmp1577:
	{
		ldc r2, 8
		mov r1, r5
	}
	.loc	1 2521 6
.Ltmp1578:
	bl FLAC__bitreader_read_raw_uint32
	bf r0, .LBB36_336
.Ltmp1579:
	.loc	1 2523 2
	{
		ldc r6, 0
		nop
	}
	{
		nop
		ld8u r5, r5[r6]
	}
.Ltmp1580:
	.loc	1 2526 5
	ldw r1, sp[898]
	{
		ldaw r0, sp[16]
		nop
	}
	.loc	1 2526 5
	bl FLAC__crc8
	.loc	1 2526 5
	{
		eq r1, r0, r5
		ldw r0, r4[1]
	}
	bf r1, .LBB36_4
.Ltmp1581:
	ldc r1, 228
	.loc	1 2534 2
	{
		add r1, r0, r1
		nop
	}
	{
		nop
		stw r6, r1[0]
	}
	ldc r2, 1148
	.loc	1 2535 5
.Ltmp1582:
	{
		add r11, r0, r2
		nop
	}
	{
		nop
		ldw r2, r11[0]
	}
	bt r2, .LBB36_99
.Ltmp1583:
	ldc r2, 1152
	.loc	1 2536 3
.Ltmp1584:
	{
		add r2, r0, r2
		nop
	}
	{
		nop
		ldw r3, r2[0]
	}
.Ltmp1585:
	.loc	1 2536 3
	stw r3, sp[899]
	{
		mkmsk r5, 1
		nop
	}
	{
		nop
		stw r5, r11[0]
	}
	ldc r11, 224
	.loc	1 2538 6
.Ltmp1586:
	{
		add r11, r0, r11
		nop
	}
	{
		nop
		ldw r11, r11[0]
	}
	.loc	1 2538 6
	bf r11, .LBB36_92
.Ltmp1587:
	.loc	1 2539 4
	lmul r1, r3, r11, r3, r6, r6
.Ltmp1588:
.LBB36_98:
	.loc	1 2554 4
	std r1, r3, r2[0]
.Ltmp1589:
.LBB36_99:
	bt r10, .LBB36_101
.Ltmp1590:
	{
		nop
		ldw r1, sp[11]
	}
	bt r1, .LBB36_101
.Ltmp1591:
	{
		nop
		ldw r0, r4[0]
	}
	bu .LBB36_105
.Ltmp1592:
.LBB36_336:
	{
		mov r0, r6
		nop
	}
	bu .LBB36_337
.LBB36_38:
.Ltmp1593:
	{
		nop
		ldw r0, r4[1]
	}
	bu .LBB36_4
.Ltmp1594:
.LBB36_53:
	.loc	1 2046 6
	{
		mov r2, r6
		nop
	}
	bu .LBB36_64
.Ltmp1595:
.LBB36_247:
	.loc	1 2102 7
	{
		eq r0, r2, 4
		nop
	}
	bt r0, .LBB36_291
.Ltmp1596:
	{
		ldc r0, 0
		nop
	}
	bu .LBB36_337
.LBB36_287:
.Ltmp1597:
	bf r0, .LBB36_291
.Ltmp1598:
	{
		nop
		ldw r0, r4[1]
	}
	ldc r2, 4680
	.loc	1 3234 5
.Ltmp1599:
	{
		add r2, r0, r2
		nop
	}
	{
		nop
		ldw r2, r2[0]
	}
	bt r2, .LBB36_290
.Ltmp1600:
	{
		nop
		ldw r3, r0[8]
	}
	.loc	1 3235 3
	{
		ldc r1, 2
		ldw r2, r0[9]
	}
	.loc	1 3235 3
	{
		mov r0, r4
		nop
	}
	{
		nop
		bla r3
	}
	{
		nop
		ldw r1, r4[0]
	}
.Ltmp1601:
.LBB36_290:
	{
		ldc r0, 2
		nop
	}
	{
		nop
		stw r0, r1[0]
	}
	bu .LBB36_291
.Ltmp1602:
.LBB36_24:
	{
		mkmsk r8, 1
		nop
	}
	bu .LBB36_40
.Ltmp1603:
.LBB36_92:
	ldc r11, 240
	.loc	1 2540 11
.Ltmp1604:
	{
		add r11, r0, r11
		nop
	}
	{
		nop
		ldw r11, r11[0]
	}
	.loc	1 2540 11
	bf r11, .LBB36_95
.Ltmp1605:
	ldc r11, 264
	.loc	1 2541 7
.Ltmp1606:
	{
		add r11, r0, r11
		nop
	}
	{
		nop
		ldw r11, r11[0]
	}
	ldc r5, 268
	.loc	1 2541 7
	{
		add r5, r0, r5
		nop
	}
	{
		nop
		ldw r5, r5[0]
	}
	.loc	1 2541 7
	{
		eq r5, r11, r5
		nop
	}
	bf r5, .LBB36_101
.Ltmp1607:
	.loc	1 2542 5
	lmul r3, r5, r11, r3, r6, r6
.Ltmp1608:
	.loc	1 2542 5
	std r3, r5, r2[0]
	{
		nop
		stw r11, r1[0]
	}
	bu .LBB36_99
.Ltmp1609:
.LBB36_101:
	ldc r1, 4680
	.loc	1 3234 5
.Ltmp1610:
	{
		add r1, r0, r1
		nop
	}
	{
		nop
		ldw r1, r1[0]
	}
	.loc	1 3234 5
	bf r1, .LBB36_102
.Ltmp1611:
	ldc r1, 8336
	.loc	1 3237 3
.Ltmp1612:
	{
		add r0, r0, r1
		nop
	}
	{
		nop
		ldw r1, r0[0]
	}
	.loc	1 3237 3
	{
		add r1, r1, 1
		nop
	}
	{
		nop
		stw r1, r0[0]
	}
	bu .LBB36_7
.Ltmp1613:
.LBB36_102:
	{
		nop
		ldw r3, r0[8]
	}
.Ltmp1614:
	.loc	1 3235 3
	{
		mkmsk r1, 2
		ldw r2, r0[9]
	}
	bu .LBB36_6
.Ltmp1615:
.LBB36_253:

	.xtabranch .Ljumptable7+4,.Ljumptable7+8,.Ljumptable7+12,.Ljumptable7+16
.Ljumptable7:
		
	{
		nop
		bru r0
	}
	.jmptable32 .LBB36_275,.LBB36_254,.LBB36_260,.LBB36_267
.Ltmp1616:
.LBB36_254:
	.loc	1 3088 3
	{
		add r0, r11, r7
		nop
	}
	{
		nop
		ldw r0, r0[0]
	}
	.loc	1 3088 3
	{
		eq r0, r0, 2
		nop
	}
	.loc	1 3088 3
	bl assert
	{
		nop
		ldw r0, r4[1]
	}
	ldc r5, 116
	.loc	1 3089 3
	{
		add r1, r0, r5
		nop
	}
	{
		nop
		ldw r1, r1[0]
	}
	ldc r2, 1144
	.loc	1 3089 3
	{
		add r0, r0, r2
		nop
	}
	{
		nop
		ldw r0, r0[0]
	}
	.loc	1 3089 3
	{
		shr r0, r0, 5
		nop
	}
	{
		eq r0, r0, 0
		nop
	}
	.loc	1 3089 3
	{
		eq r0, r1, r0
		nop
	}
	{
		eq r0, r0, 0
		nop
	}
	.loc	1 3089 3
	bl assert
.Ltmp1617:
	{
		nop
		ldw r11, r4[1]
	}
	ldc r0, 1128
	.loc	1 3090 3
.Ltmp1618:
	{
		add r1, r11, r0
		nop
	}
	{
		nop
		ldw r0, r1[0]
	}
	bf r0, .LBB36_275
.Ltmp1619:
	.loc	1 2111 4
	{
		add r0, r11, r5
		nop
	}
	.loc	1 3091 7
.Ltmp1620:
	{
		ldc r2, 48
		ldw r0, r0[0]
	}
.Ltmp1621:
	.loc	1 2111 4
	{
		add r2, r11, r2
		nop
	}
	.loc	1 3092 5
.Ltmp1622:
	{
		ldc r3, 52
		ldw r2, r2[0]
	}
.Ltmp1623:
	.loc	1 2111 4
	{
		add r3, r11, r3
		mov r6, r11
	}
	{
		ldc r11, 0
		nop
	}
	bf r0, .LBB36_256
.Ltmp1624:
	ldc r0, 112
	.loc	1 3092 5
.Ltmp1625:
	{
		add r5, r6, r0
		stw r6, sp[11]
	}
	{
		ldc r9, 0
		mov r7, r11
	}
.Ltmp1626:
.LBB36_259:
	{
		nop
		ldw r0, r3[0]
	}
	{
		nop
		ldw r8, r2[r7]
	}
	{
		nop
		ldw r10, r5[0]
	}
	ldaw r10, r10[r11]
	.loc	1 3092 5
	ldd r6, r10, r10[0]
	.loc	1 3092 5
	lsub r8, r6, r8, r10, r9
	.loc	1 3092 5
	stw r6, r0[r7]
.Ltmp1627:
	.loc	1 3090 3
	{
		add r7, r7, 1
		ldw r0, r1[0]
	}
.Ltmp1628:
	.loc	1 3090 3
	{
		add r11, r11, 2
		lsu r0, r7, r0
	}
	bt r0, .LBB36_259
	bu .LBB36_271
.Ltmp1629:
.LBB36_95:
	.loc	1 2548 11
	bf r3, .LBB36_96
.Ltmp1630:
	ldc r1, 1128
	.loc	1 2554 4
.Ltmp1631:
	{
		add r1, r0, r1
		nop
	}
	{
		nop
		ldw r1, r1[0]
	}
	.loc	1 2554 4
	lmul r1, r3, r1, r3, r6, r6
.Ltmp1632:
	bu .LBB36_98
.Ltmp1633:
.LBB36_260:
	.loc	1 3097 3
	{
		add r0, r11, r7
		nop
	}
	{
		nop
		ldw r0, r0[0]
	}
	.loc	1 3097 3
	{
		eq r0, r0, 2
		nop
	}
	.loc	1 3097 3
	bl assert
	{
		nop
		ldw r0, r4[1]
	}
	ldc r5, 116
	.loc	1 3098 3
	{
		add r1, r0, r5
		nop
	}
	{
		nop
		ldw r1, r1[0]
	}
	ldc r2, 1144
	.loc	1 3098 3
	{
		add r0, r0, r2
		nop
	}
	{
		nop
		ldw r0, r0[0]
	}
	.loc	1 3098 3
	{
		shr r0, r0, 5
		nop
	}
	{
		eq r0, r0, 0
		nop
	}
	.loc	1 3098 3
	{
		eq r0, r1, r0
		nop
	}
	{
		eq r0, r0, 0
		nop
	}
	.loc	1 3098 3
	bl assert
.Ltmp1634:
	{
		nop
		ldw r11, r4[1]
	}
	ldc r0, 1128
	.loc	1 3099 3
.Ltmp1635:
	{
		add r1, r11, r0
		nop
	}
	{
		nop
		ldw r0, r1[0]
	}
	bf r0, .LBB36_275
.Ltmp1636:
	.loc	1 2111 4
	{
		add r0, r11, r5
		nop
	}
	.loc	1 3100 7
.Ltmp1637:
	{
		ldc r2, 48
		ldw r0, r0[0]
	}
.Ltmp1638:
	.loc	1 2111 4
	{
		add r2, r11, r2
		ldc r3, 52
	}
	{
		add r3, r11, r3
		nop
	}
	.loc	1 3101 5
.Ltmp1639:
	{
		mov r6, r11
		ldw r3, r3[0]
	}
	{
		ldc r11, 0
		nop
	}
	bf r0, .LBB36_262
.Ltmp1640:
	ldc r0, 112
	.loc	1 3101 5
	{
		add r5, r6, r0
		stw r6, sp[11]
	}
	{
		ldc r9, 0
		mov r7, r11
	}
.Ltmp1641:
.LBB36_266:
	{
		nop
		ldw r0, r2[0]
	}
	{
		nop
		ldw r8, r3[r7]
	}
	{
		nop
		ldw r10, r5[0]
	}
	ldaw r10, r10[r11]
	.loc	1 3101 5
	ldd r6, r10, r10[0]
	.loc	1 3101 5
	ladd r8, r6, r10, r8, r9
	.loc	1 3101 5
	stw r6, r0[r7]
.Ltmp1642:
	.loc	1 3099 3
	{
		add r7, r7, 1
		ldw r0, r1[0]
	}
.Ltmp1643:
	.loc	1 3099 3
	{
		add r11, r11, 2
		lsu r0, r7, r0
	}
	bt r0, .LBB36_266
	bu .LBB36_271
.Ltmp1644:
.LBB36_267:
	.loc	1 3106 3
	{
		add r0, r11, r7
		nop
	}
	{
		nop
		ldw r0, r0[0]
	}
	.loc	1 3106 3
	{
		eq r0, r0, 2
		nop
	}
	.loc	1 3106 3
	bl assert
	{
		nop
		ldw r0, r4[1]
	}
	ldc r5, 116
	.loc	1 3107 3
	{
		add r1, r0, r5
		nop
	}
	{
		nop
		ldw r1, r1[0]
	}
	ldc r2, 1144
	.loc	1 3107 3
	{
		add r0, r0, r2
		nop
	}
	{
		nop
		ldw r0, r0[0]
	}
	.loc	1 3107 3
	{
		shr r0, r0, 5
		nop
	}
	{
		eq r0, r0, 0
		nop
	}
	.loc	1 3107 3
	{
		eq r0, r1, r0
		nop
	}
	{
		eq r0, r0, 0
		nop
	}
	.loc	1 3107 3
	bl assert
.Ltmp1645:
	{
		nop
		ldw r11, r4[1]
	}
	ldc r0, 1128
	.loc	1 3108 3
.Ltmp1646:
	{
		add r10, r11, r0
		nop
	}
	{
		nop
		ldw r0, r10[0]
	}
	bf r0, .LBB36_275
.Ltmp1647:
	.loc	1 2111 4
	{
		add r0, r11, r5
		nop
	}
	.loc	1 3109 7
.Ltmp1648:
	{
		ldc r2, 48
		ldw r0, r0[0]
	}
.Ltmp1649:
	.loc	1 2111 4
	{
		add r2, r11, r2
		nop
	}
	.loc	1 3120 5
.Ltmp1650:
	{
		ldc r3, 52
		ldw r2, r2[0]
	}
.Ltmp1651:
	.loc	1 3112 5
	{
		add r9, r11, r3
		mov r1, r11
	}
	{
		ldc r11, 0
		nop
	}
	bf r0, .LBB36_272
.Ltmp1652:
	ldc r0, 112
	.loc	1 3121 5
.Ltmp1653:
	{
		add r0, r1, r0
		nop
	}
	{
		nop
		stw r0, sp[8]
	}
	{
		mkmsk r3, 5
		stw r1, sp[11]
	}
	{
		ldc r6, 0
		mov r8, r11
	}
	{
		nop
		stw r9, sp[7]
	}
	{
		mov r10, r2
		stw r10, sp[6]
	}
.Ltmp1654:
.LBB36_270:
	{
		mov r5, r10
		nop
	}
	{
		nop
		ldw r0, r5[r8]
	}
	.loc	1 3120 5
	ashr r10, r0, 32
	{
		mov r9, r3
		nop
	}
	.loc	1 3120 5
	{
		shr r1, r0, r9
		shl r10, r10, 1
	}
	{
		or r1, r10, r1
		nop
	}
	{
		shl r2, r0, 1
		stw r1, sp[10]
	}
	{
		nop
		ldw r1, sp[8]
	}
	{
		nop
		ldw r10, r1[0]
	}
	ldaw r10, r10[r11]
	.loc	1 3121 5
	ldd r0, r1, r10[0]
	.loc	1 3121 5
	{
		mov r10, r1
		stw r0, sp[9]
	}
	{
		zext r10, 1
		nop
	}
	.loc	1 3121 5
	{
		or r7, r10, r2
		mov r2, r6
	}
	.loc	1 3122 5
	ladd r3, r10, r7, r1, r2
	{
		nop
		ldw r6, sp[10]
	}
	ladd r6, r3, r6, r0, r3
	.loc	1 3122 5
	{
		shl r3, r3, r9
		shr r6, r10, 1
	}
	{
		or r3, r6, r3
		nop
	}
	.loc	1 3122 5
	stw r3, r5[r8]
	{
		mov r10, r5
		nop
	}
	.loc	1 3123 5
	lsub r1, r0, r7, r1, r2
	{
		mov r6, r2
		ldw r2, sp[10]
	}
	{
		nop
		ldw r3, sp[9]
	}
	lsub r3, r1, r2, r3, r1
	.loc	1 3123 5
	{
		shl r1, r1, r9
		mov r3, r9
	}
	{
		shr r0, r0, 1
		nop
	}
	{
		or r0, r0, r1
		ldw r1, sp[7]
	}
	{
		nop
		ldw r1, r1[0]
	}
	.loc	1 3123 5
	stw r0, r1[r8]
	{
		nop
		ldw r0, sp[6]
	}
.Ltmp1655:
	.loc	1 3108 3
	{
		add r8, r8, 1
		ldw r0, r0[0]
	}
.Ltmp1656:
	.loc	1 3108 3
	{
		add r11, r11, 2
		lsu r0, r8, r0
	}
	bt r0, .LBB36_270
.Ltmp1657:
.LBB36_271:
	ldc r7, 1136
	{
		nop
		ldw r11, sp[11]
	}
	bu .LBB36_275
.Ltmp1658:
.LBB36_272:
	{
		nop
		ldw r0, r2[r11]
	}
.Ltmp1659:
	{
		nop
		ldw r5, r9[0]
	}
.Ltmp1660:
	.loc	1 3112 5
	{
		shl r0, r0, 1
		ldw r6, r5[r11]
	}
.Ltmp1661:
	.loc	1 3114 5
	{
		mov r7, r6
		nop
	}
	{
		zext r7, 1
		nop
	}
	.loc	1 3114 5
	{
		or r0, r7, r0
		nop
	}
	.loc	1 3115 5
	{
		add r7, r0, r6
		nop
	}
	.loc	1 3115 5
	ashr r7, r7, 1
	.loc	1 3115 5
	stw r7, r2[r11]
	.loc	1 3116 5
	{
		sub r0, r0, r6
		nop
	}
	.loc	1 3116 5
	ashr r0, r0, 1
	.loc	1 3116 5
	stw r0, r5[r11]
.Ltmp1662:
	.loc	1 3108 3
	{
		add r11, r11, 1
		ldw r0, r10[0]
	}
.Ltmp1663:
	.loc	1 3108 3
	{
		lsu r0, r11, r0
		nop
	}
	.loc	1 3108 3
	bt r0, .LBB36_272
.Ltmp1664:
	ldc r7, 1136
	{
		mov r11, r1
		nop
	}
	bu .LBB36_275
.Ltmp1665:
.LBB36_96:
	ldc r3, 1128
	.loc	1 2549 4
.Ltmp1666:
	{
		add r3, r0, r3
		nop
	}
	.loc	1 2549 4
	std r6, r6, r2[0]
	{
		nop
		ldw r2, r3[0]
	}
	{
		nop
		stw r2, r1[0]
	}
	bu .LBB36_99
.Ltmp1667:
.LBB36_256:
	{
		mov r8, r6
		nop
	}
.Ltmp1668:
.LBB36_257:
	{
		nop
		ldw r0, r3[0]
	}
	{
		nop
		ldw r5, r2[r11]
	}
	{
		nop
		ldw r6, r0[r11]
	}
	.loc	1 3094 5
.Ltmp1669:
	{
		sub r5, r5, r6
		nop
	}
	.loc	1 3094 5
	stw r5, r0[r11]
.Ltmp1670:
	.loc	1 3090 3
	{
		add r11, r11, 1
		ldw r0, r1[0]
	}
.Ltmp1671:
	.loc	1 3090 3
	{
		lsu r0, r11, r0
		nop
	}
	bt r0, .LBB36_257
	bu .LBB36_264
.Ltmp1672:
.LBB36_262:
	{
		mov r8, r6
		nop
	}
.Ltmp1673:
.LBB36_263:
	{
		nop
		ldw r0, r2[0]
	}
	{
		nop
		ldw r5, r3[r11]
	}
	{
		nop
		ldw r6, r0[r11]
	}
	.loc	1 3103 5
.Ltmp1674:
	{
		add r5, r6, r5
		nop
	}
	.loc	1 3103 5
	stw r5, r0[r11]
.Ltmp1675:
	.loc	1 3099 3
	{
		add r11, r11, 1
		ldw r0, r1[0]
	}
.Ltmp1676:
	.loc	1 3099 3
	{
		lsu r0, r11, r0
		nop
	}
	.loc	1 3099 3
	bt r0, .LBB36_263
.Ltmp1677:
.LBB36_264:
	ldc r7, 1136
	{
		mov r11, r8
		nop
	}
.Ltmp1678:
.LBB36_275:
	.loc	1 2113 4
	{
		add r0, r11, r7
		nop
	}
	{
		nop
		ldw r0, r0[0]
	}
	bf r0, .LBB36_291
.Ltmp1679:
	{
		ldc r5, 0
		ldc r10, 32
	}
	ldw r6, cp[.LCPI36_4]
	ldw r8, cp[.LCPI36_5]
.Ltmp1680:
.LBB36_277:
	ldc r0, 1128
	.loc	1 2114 5
.Ltmp1681:
	{
		add r0, r11, r0
		nop
	}
	{
		nop
		ldw r1, r0[0]
	}
	bf r1, .LBB36_286
.Ltmp1682:
	ldc r0, 1144
	{
		add r0, r11, r0
		nop
	}
	{
		nop
		ldw r2, r0[0]
	}
	ldaw r0, r11[r5]
	{
		ldc r3, 48
		stw r11, sp[11]
	}
	{
		add r0, r0, r3
		nop
	}
	.loc	1 2117 9
.Ltmp1683:
	{
		ldc r11, 0
		ldw r3, r0[0]
	}
.Ltmp1684:
.LBB36_279:
	.loc	1 2115 6
	{
		sub r0, r10, r2
		ldw r7, r3[r11]
	}
.Ltmp1685:
	.loc	1 2117 9
	ashr r9, r6, r0
	.loc	1 2117 9
	{
		lss r9, r7, r9
		nop
	}
	bt r9, .LBB36_283
.Ltmp1686:
	{
		shr r0, r8, r0
		nop
	}
	{
		lss r0, r0, r7
		nop
	}
	bt r0, .LBB36_283
.Ltmp1687:
	.loc	1 2114 63
	{
		add r11, r11, 1
		nop
	}
.Ltmp1688:
	.loc	1 2114 5
	{
		lsu r0, r11, r1
		nop
	}
	bt r0, .LBB36_279
.Ltmp1689:
	ldc r7, 1136
	{
		nop
		ldw r11, sp[11]
	}
	bu .LBB36_286
.Ltmp1690:
.LBB36_283:
	{
		nop
		ldw r11, sp[11]
	}
	ldc r0, 4680
	.loc	1 3234 5
.Ltmp1691:
	{
		add r0, r11, r0
		nop
	}
	{
		nop
		ldw r0, r0[0]
	}
	bt r0, .LBB36_285
.Ltmp1692:
	{
		nop
		ldw r3, r11[8]
	}
.Ltmp1693:
	.loc	1 3235 3
	{
		mov r0, r4
		ldw r2, r11[9]
	}
	{
		ldc r9, 2
		nop
	}
	{
		mov r1, r9
		nop
	}
	{
		nop
		bla r3
	}
	{
		nop
		ldw r11, r4[1]
	}
.Ltmp1694:
.LBB36_285:
	ldc r7, 1136
.Ltmp1695:
	.loc	1 2121 7
	{
		ldc r1, 2
		ldw r0, r4[0]
	}
	{
		nop
		stw r1, r0[0]
	}
.Ltmp1696:
.LBB36_286:
	.loc	1 2113 73
	{
		add r5, r5, 1
		add r0, r11, r7
	}
.Ltmp1697:
	{
		nop
		ldw r0, r0[0]
	}
	.loc	1 2113 4
	{
		lsu r0, r5, r0
		nop
	}
	bt r0, .LBB36_277
.Ltmp1698:
.LBB36_291:
	{
		nop
		ldw r0, r4[1]
	}
	ldc r1, 8304
	.loc	1 2137 5
.Ltmp1699:
	{
		add r1, r0, r1
		nop
	}
	{
		nop
		ldw r1, r1[0]
	}
	bf r1, .LBB36_317
.Ltmp1700:
	{
		nop
		ldw r1, r4[0]
	}
	{
		nop
		ldw r1, r1[0]
	}
	.loc	1 2137 5
	{
		eq r1, r1, 3
		nop
	}
	bf r1, .LBB36_317
.Ltmp1701:
	ldc r1, 4680
	.loc	1 2137 5
	{
		add r1, r0, r1
		nop
	}
	{
		nop
		ldw r1, r1[0]
	}
	bt r1, .LBB36_317
.Ltmp1702:
	{
		nop
		ldw r1, sp[13]
	}
	bf r1, .LBB36_317
.Ltmp1703:
	{
		mov r10, r7
		nop
	}
	ldc r1, 1148
	.loc	1 2138 3
.Ltmp1704:
	{
		add r0, r0, r1
		nop
	}
	{
		nop
		ldw r0, r0[0]
	}
	.loc	1 2138 3
	{
		eq r0, r0, 1
		nop
	}
	.loc	1 2138 3
	bl assert
	{
		nop
		ldw r0, r4[1]
	}
	ldc r1, 4820
	.loc	1 2139 3
	{
		add r0, r0, r1
		nop
	}
	{
		nop
		ldw r0, r0[0]
	}
	.loc	1 2139 3
	{
		eq r0, r0, 1
		nop
	}
	.loc	1 2139 3
	bl assert
	{
		nop
		ldw r0, r4[1]
	}
	ldc r1, 4800
	.loc	1 2140 6
.Ltmp1705:
	{
		add r1, r0, r1
		nop
	}
	ldc r2, 4824
	{
		add r2, r0, r2
		nop
	}
	.loc	1 2140 6
	ldd r11, r3, r2[0]
	.loc	1 2140 6
	{
		ldc r8, 0
		ldw r2, r1[0]
	}
	.loc	1 2140 6
	ladd r5, r3, r2, r3, r8
	{
		add r5, r11, r5
		nop
	}
	ldc r11, 1152
	.loc	1 2140 6
	{
		add r11, r0, r11
		nop
	}
	.loc	1 2140 6
	ldd r6, r11, r11[0]
	.loc	1 2140 6
	{
		eq r7, r6, r5
		nop
	}
	bt r7, .LBB36_296
.Ltmp1706:
	{
		lsu r5, r5, r6
		nop
	}
	bu .LBB36_298
.Ltmp1707:
.LBB36_296:
	{
		lsu r5, r3, r11
		nop
	}
.Ltmp1708:
.LBB36_298:
	{
		eq r5, r5, 0
		mov r7, r10
	}
	bt r5, .LBB36_317
.Ltmp1709:
	.loc	1 2141 4
	lsub r3, r6, r11, r3, r8
	ldc r3, 4804
	.loc	1 2147 7
.Ltmp1710:
	{
		add r3, r0, r3
		nop
	}
	{
		nop
		ldw r3, r3[0]
	}
	ldc r11, 1132
	.loc	1 2147 7
	{
		add r11, r0, r11
		nop
	}
	{
		nop
		ldw r11, r11[0]
	}
	.loc	1 2147 7
	{
		eq r3, r3, r11
		nop
	}
	bf r3, .LBB36_317
.Ltmp1711:
	ldc r3, 4808
	.loc	1 2147 7
	{
		add r3, r0, r3
		nop
	}
	.loc	1 2147 7
	{
		add r11, r0, r7
		ldw r3, r3[0]
	}
	{
		nop
		ldw r11, r11[0]
	}
	.loc	1 2147 7
	{
		eq r3, r3, r11
		nop
	}
	bf r3, .LBB36_317
.Ltmp1712:
	ldc r3, 4816
	.loc	1 2147 7
	{
		add r3, r0, r3
		nop
	}
	{
		nop
		ldw r3, r3[0]
	}
	ldc r11, 1144
	.loc	1 2147 7
	{
		add r0, r0, r11
		nop
	}
	{
		nop
		ldw r0, r0[0]
	}
	.loc	1 2147 7
	{
		eq r0, r3, r0
		nop
	}
	bf r0, .LBB36_317
.Ltmp1713:
	{
		shr r0, r2, 4
		nop
	}
	bf r0, .LBB36_317
.Ltmp1714:
	{
		ldc r2, 40
		ldaw r5, sp[16]
	}
	.loc	1 2153 5
.Ltmp1715:
	{
		mov r0, r5
		nop
	}
	bl __memcpy_4
	.loc	1 2154 5
	ldaw r0, sp[890]
	.loc	1 2154 5
	st16 r8, r0[r8]
	{
		ldc r0, 4
		nop
	}
	.loc	1 2158 8
.Ltmp1716:
	{
		or r0, r5, r0
		nop
	}
	{
		nop
		ldw r0, r0[0]
	}
	.loc	1 2158 8
	ldaw r0, r0[r0]
.Ltmp1717:
	.loc	1 2158 8
	{
		lsu r1, r0, r6
		nop
	}
	bt r1, .LBB36_305
.Ltmp1718:
	.loc	1 2158 8
	{
		mov r0, r6
		nop
	}
.Ltmp1719:
.LBB36_305:
	.loc	1 2160 8
	{
		ldc r2, 50
		ldw r1, sp[16]
	}
	.loc	1 2160 8
	mul r5, r1, r2
.Ltmp1720:
	.loc	1 2160 8
	{
		lsu r1, r5, r0
		nop
	}
	bt r1, .LBB36_307
.Ltmp1721:
	.loc	1 2160 8
	{
		mov r5, r0
		nop
	}
.Ltmp1722:
.LBB36_307:
	{
		ldc r6, 48
		nop
	}
	ldc r10, 432
.Ltmp1723:
.LBB36_308:
	bf r5, .LBB36_317
.Ltmp1724:
	{
		nop
		ldw r7, sp[16]
	}
	.loc	1 2163 6
.Ltmp1725:
	ldd r1, r0, sp[11]
	.loc	1 2163 6
	ladd r2, r0, r0, r7, r8
	{
		add r1, r1, r2
		nop
	}
	.loc	1 2163 6
	std r1, r0, sp[11]
	.loc	1 2164 9
.Ltmp1726:
	{
		lsu r0, r5, r7
		nop
	}
	bf r0, .LBB36_311
.Ltmp1727:
	.loc	1 2165 7
	{
		mov r7, r5
		stw r5, sp[16]
	}
.Ltmp1728:
.LBB36_311:
	{
		nop
		stw r5, sp[11]
	}
	{
		nop
		ldw r0, r4[0]
	}
	{
		nop
		stw r7, r0[6]
	}
	{
		nop
		ldw r0, sp[21]
	}
	.loc	1 2169 6
	{
		eq r0, r0, 1
		nop
	}
	.loc	1 2169 6
	bl assert
	.loc	1 2170 6
	ldd r2, r0, sp[11]
	{
		nop
		ldw r1, sp[16]
	}
	.loc	1 2170 6
	ladd r3, r0, r1, r0, r8
	{
		add r2, r2, r3
		ldw r3, r4[1]
	}
	ldc r11, 232
	.loc	1 2170 6
	{
		add r3, r3, r11
		nop
	}
	.loc	1 2170 6
	std r2, r0, r3[0]
	{
		nop
		ldw r2, sp[18]
	}
	.loc	1 2172 10
.Ltmp1729:
	{
		mov r0, r4
		ldw r3, sp[20]
	}
	.loc	1 2172 10
	bl allocate_output_
	.loc	1 2172 10
	bf r0, .LBB36_335
.Ltmp1730:
	{
		nop
		stw r7, sp[10]
	}
	.loc	1 2175 6
.Ltmp1731:
	{
		ldaw r7, sp[16]
		ldw r0, sp[18]
	}
	{
		mov r5, r8
		mov r9, r6
	}
	ldc r6, 464
	bf r0, .LBB36_314
.Ltmp1732:
.LBB36_313:
	.loc	1 2176 7
	{
		add r0, r7, r9
		stw r8, r7[10]
	}
	.loc	1 2177 7
	std r8, r8, r0[0]
	{
		add r0, r7, r6
		nop
	}
	{
		nop
		stw r8, r0[0]
	}
	{
		nop
		ldw r0, r4[1]
	}
	ldaw r0, r0[r5]
	{
		add r0, r0, r9
		nop
	}
	{
		nop
		ldw r0, r0[0]
	}
	{
		nop
		ldw r1, sp[16]
	}
	.loc	1 2179 7
	{
		shl r2, r1, 2
		mov r1, r8
	}
	.loc	1 2179 7
	bl memset
.Ltmp1733:
	.loc	1 2175 62
	{
		add r5, r5, 1
		ldw r0, sp[18]
	}
.Ltmp1734:
	.loc	1 2175 6
	{
		add r7, r7, r10
		lsu r0, r5, r0
	}
	bt r0, .LBB36_313
.Ltmp1735:
.LBB36_314:
	{
		nop
		ldw r5, sp[11]
	}
	{
		nop
		ldw r0, sp[10]
	}
.Ltmp1736:
	.loc	1 2166 6
	{
		sub r5, r5, r0
		ldw r0, r4[1]
	}
.Ltmp1737:
	.loc	1 2182 9
	{
		add r2, r0, r9
		mov r0, r4
	}
	{
		ldaw r1, sp[16]
		nop
	}
	.loc	1 2182 9
	bl write_audio_frame_to_client_
	ldc r7, 1136
	{
		mov r6, r9
		nop
	}
	bf r0, .LBB36_308
.Ltmp1738:
	.loc	1 2183 7
	{
		mkmsk r1, 3
		ldw r0, r4[0]
	}
	bu .LBB36_316
.Ltmp1739:
.LBB36_317:
	{
		nop
		ldw r0, r4[0]
	}
	{
		nop
		ldw r1, r0[0]
	}
	.loc	1 2191 5
.Ltmp1740:
	{
		eq r2, r1, 2
		nop
	}
	bt r2, .LBB36_319
.Ltmp1741:
	{
		eq r1, r1, 4
		nop
	}
	bf r1, .LBB36_328
.Ltmp1742:
.LBB36_319:
	{
		nop
		ldw r0, r4[1]
	}
	{
		nop
		ldw r0, r0[11]
	}
	.loc	1 2194 7
.Ltmp1743:
	bl FLAC__bitreader_rewind_to_after_last_seen_framesync
	{
		mov r5, r0
		nop
	}
	.loc	1 2218 12
.Ltmp1744:
	bl __getstderr
	{
		mov r3, r0
		nop
	}
.Ltmp1745:
	.loc	1 2194 7
	bf r5, .LBB36_320
.Ltmp1746:
	.loc	1 2218 4
	ldaw r11, cp[.L.str37]
	{
		ldc r1, 33
		mkmsk r2, 1
	}
	{
		mov r0, r11
		nop
	}
	bl fwrite
	bu .LBB36_334
.Ltmp1747:
.LBB36_320:
	.loc	1 2196 4
	ldaw r11, cp[.L.str35]
	{
		ldc r1, 29
		mkmsk r2, 1
	}
	{
		mov r0, r11
		nop
	}
	bl fwrite
	{
		nop
		ldw r0, r4[1]
	}
	{
		nop
		ldw r1, r0[2]
	}
	bf r1, .LBB36_334
.Ltmp1748:
	ldc r5, 8320
	.loc	1 2198 7
.Ltmp1749:
	{
		add r0, r0, r5
		nop
	}
	.loc	1 2198 7
	ldd r1, r0, r0[0]
	.loc	1 2198 7
	{
		or r0, r0, r1
		nop
	}
	bf r0, .LBB36_334
.Ltmp1750:
	{
		ldaw r1, sp[14]
		mov r0, r4
	}
.Ltmp1751:
	.loc	1 2202 8
	bl FLAC__stream_decoder_get_decode_position
	bf r0, .LBB36_324
.Ltmp1752:
	.loc	1 2204 17
	bl __getstderr
	.loc	1 2204 9
	ldd r3, r1, sp[7]
	{
		nop
		ldw r2, r4[1]
	}
	.loc	1 2204 9
	{
		add r2, r2, r5
		nop
	}
	.loc	1 2204 9
	ldd r11, r2, r2[0]
	{
		ldc r6, 0
		nop
	}
	.loc	1 2204 9
	lsub r1, r2, r1, r2, r6
	lsub r1, r3, r3, r11, r1
	.loc	1 2204 9
	ldaw r11, cp[.L.str36]
	{
		mov r1, r11
		nop
	}
	bl fiprintf
.Ltmp1753:
.LBB36_324:
	{
		nop
		ldw r0, r4[1]
	}
	.loc	1 2206 8
.Ltmp1754:
	{
		add r1, r0, r5
		ldw r11, r0[2]
	}
	.loc	1 2206 8
	ldd r2, r1, r1[0]
	.loc	1 2206 8
	{
		mov r0, r4
		ldw r3, r0[9]
	}
	{
		nop
		bla r11
	}
	.loc	1 2206 8
	{
		eq r0, r0, 1
		nop
	}
	bf r0, .LBB36_326
.Ltmp1755:
	.loc	1 2207 6
	{
		ldc r1, 6
		ldw r0, r4[0]
	}
	bu .LBB36_316
.Ltmp1756:
.LBB36_328:
	{
		mkmsk r1, 1
		ldw r2, sp[12]
	}
	{
		nop
		stw r1, r2[0]
	}
	{
		nop
		ldw r1, r4[1]
	}
	ldc r2, 228
	.loc	1 2226 6
.Ltmp1757:
	{
		add r2, r1, r2
		nop
	}
	{
		nop
		ldw r2, r2[0]
	}
	bf r2, .LBB36_330
.Ltmp1758:
	ldc r3, 224
	.loc	1 2227 4
	{
		add r3, r1, r3
		nop
	}
	{
		nop
		stw r2, r3[0]
	}
.Ltmp1759:
.LBB36_330:
	ldc r5, 1128
	.loc	1 2230 3
	{
		add r2, r1, r5
		add r3, r1, r7
	}
	{
		nop
		ldw r3, r3[0]
	}
	{
		nop
		stw r3, r0[2]
	}
	ldc r3, 1140
	.loc	1 2231 3
	{
		add r3, r1, r3
		nop
	}
	{
		nop
		ldw r3, r3[0]
	}
	{
		nop
		stw r3, r0[3]
	}
	ldc r3, 1144
	.loc	1 2232 3
	{
		add r3, r1, r3
		nop
	}
	{
		nop
		ldw r3, r3[0]
	}
	{
		nop
		stw r3, r0[4]
	}
	ldc r3, 1132
	.loc	1 2233 3
	{
		add r3, r1, r3
		nop
	}
	{
		nop
		ldw r3, r3[0]
	}
	{
		nop
		stw r3, r0[5]
	}
	{
		nop
		ldw r2, r2[0]
	}
	{
		nop
		stw r2, r0[6]
	}
	ldc r0, 1148
	.loc	1 2236 3
	{
		add r0, r1, r0
		nop
	}
	{
		nop
		ldw r0, r0[0]
	}
	.loc	1 2236 3
	{
		eq r0, r0, 1
		nop
	}
	.loc	1 2236 3
	bl assert
	{
		nop
		ldw r0, r4[1]
	}
	.loc	1 2237 3
	{
		add r1, r0, r5
		nop
	}
	ldc r2, 1152
	{
		add r2, r0, r2
		nop
	}
	.loc	1 2237 3
	ldd r3, r2, r2[0]
	.loc	1 2237 3
	{
		ldc r5, 0
		ldw r11, r1[0]
	}
	.loc	1 2237 3
	ladd r11, r2, r11, r2, r5
	{
		add r3, r3, r11
		nop
	}
	ldc r11, 232
	.loc	1 2237 3
	{
		add r11, r0, r11
		nop
	}
	.loc	1 2237 3
	std r3, r2, r11[0]
	{
		nop
		ldw r2, sp[13]
	}
	bf r2, .LBB36_334
.Ltmp1760:
	{
		ldc r2, 48
		nop
	}
	.loc	1 2241 7
.Ltmp1761:
	{
		add r2, r0, r2
		mov r0, r4
	}
	.loc	1 2241 7
	bl write_audio_frame_to_client_
	bf r0, .LBB36_334
.Ltmp1762:
	.loc	1 2242 5
	{
		mkmsk r1, 3
		ldw r0, r4[0]
	}
	.loc	1 2242 5
	{
		mov r0, r5
		stw r1, r0[0]
	}
	bu .LBB36_337
.Ltmp1763:
.LBB36_326:
	{
		nop
		ldw r0, r4[1]
	}
	{
		nop
		ldw r0, r0[11]
	}
	.loc	1 2210 9
.Ltmp1764:
	bl FLAC__bitreader_clear
	bf r0, .LBB36_327
.Ltmp1765:
.LBB36_334:
	.loc	1 2248 2
	{
		ldc r1, 2
		ldw r0, r4[0]
	}
	.loc	1 2248 2
	{
		mkmsk r0, 1
		stw r1, r0[0]
	}
.Ltmp1766:
.LBB36_337:
	.loc	1 2250 1
	ldw r10, sp[906]
	ldw r8, sp[904]
	ldw r9, sp[905]
	ldw r6, sp[902]
	ldw r7, sp[903]
	ldw r4, sp[900]
	ldw r5, sp[901]
	retsp 908
	# RETURN_REG_HOLDER
.LBB36_327:
.Ltmp1767:
	.loc	1 2211 6
	{
		ldc r1, 8
		ldw r0, r4[0]
	}
.Ltmp1768:
.LBB36_316:
	.loc	1 2183 7
	{
		ldc r0, 0
		stw r1, r0[0]
	}
	bu .LBB36_337
.Ltmp1769:
.LBB36_335:
	{
		ldc r0, 0
		nop
	}
	bu .LBB36_337
	.cc_bottom read_frame_.function



.Ltmp1770:
	.size	read_frame_, .Ltmp1770-read_frame_
.Lfunc_end36:
	.cfi_endproc

	.globl	FLAC__stream_decoder_process_until_end_of_metadata
	.align	4
	.type	FLAC__stream_decoder_process_until_end_of_metadata,@function
	.cc_top FLAC__stream_decoder_process_until_end_of_metadata.function,FLAC__stream_decoder_process_until_end_of_metadata
FLAC__stream_decoder_process_until_end_of_metadata:
.Lfunc_begin37:
	.loc	1 1016 0
	.cfi_startproc
	.issue_mode dual
	{
		nop
		dualentsp 6
	}
.Ltmp1771:
	.cfi_def_cfa_offset 24
.Ltmp1772:
	.cfi_offset 15, 0
	std r5, r4, sp[1]
.Ltmp1773:
	.cfi_offset 4, -16
.Ltmp1774:
	.cfi_offset 5, -12
	std r7, r6, sp[2]
.Ltmp1775:
	.cfi_offset 6, -8
.Ltmp1776:
	.cfi_offset 7, -4
	{
		mov r4, r0
		nop
	}
.Ltmp1777:
	.loc	1 1017 2 prologue_end
	{
		eq r0, r4, 0
		nop
	}
	{
		eq r0, r0, 0
		nop
	}
	.loc	1 1017 2
	bl assert
	{
		nop
		ldw r0, r4[0]
	}
	.loc	1 1018 2
	{
		eq r0, r0, 0
		nop
	}
	{
		eq r0, r0, 0
		nop
	}
	.loc	1 1018 2
	bl assert
	{
		mkmsk r6, 1
		ldc r5, 0
	}
	{
		mkmsk r7, 3
		nop
	}
.Ltmp1778:
.LBB37_1:
	{
		nop
		ldw r0, r4[0]
	}
	{
		nop
		ldw r0, r0[0]
	}
	.loc	1 1021 3
.Ltmp1779:
	{
		lsu r1, r7, r0
		nop
	}
	bt r1, .LBB37_7
.Ltmp1780:

	.xtabranch .Ljumptable8+4,.Ljumptable8+8,.Ljumptable8+12,.Ljumptable8+16,.Ljumptable8+20,.Ljumptable8+24,.Ljumptable8+28,.Ljumptable8+32
.Ljumptable8:
		
	{
		nop
		bru r0
	}
	.jmptable32 .LBB37_3,.LBB37_4,.LBB37_6,.LBB37_6,.LBB37_6,.LBB37_7,.LBB37_7,.LBB37_6
.Ltmp1781:
.LBB37_3:
	.loc	1 1023 9
	{
		mov r0, r4
		nop
	}
	bl find_metadata_
	bt r0, .LBB37_1
	bu .LBB37_5
.Ltmp1782:
.LBB37_4:
	.loc	1 1027 9
	{
		mov r0, r4
		nop
	}
	bl read_metadata_
	bt r0, .LBB37_1
.Ltmp1783:
.LBB37_5:
	{
		mov r6, r5
		nop
	}
.LBB37_6:
	{
		mov r5, r6
		nop
	}
.LBB37_7:
	.loc	1 1039 1
	{
		mov r0, r5
		nop
	}
	ldd r7, r6, sp[2]
	ldd r5, r4, sp[1]
	{
		nop
		retsp 6
	}
	# RETURN_REG_HOLDER
.Ltmp1784:
	.cc_bottom FLAC__stream_decoder_process_until_end_of_metadata.function
	.set	FLAC__stream_decoder_process_until_end_of_metadata.nstackwords,((assert.nstackwords $M find_metadata_.nstackwords $M read_metadata_.nstackwords) + 6)
	.globl	FLAC__stream_decoder_process_until_end_of_metadata.nstackwords
	.set	FLAC__stream_decoder_process_until_end_of_metadata.maxcores,find_metadata_.maxcores $M read_metadata_.maxcores $M 1
	.globl	FLAC__stream_decoder_process_until_end_of_metadata.maxcores
	.set	FLAC__stream_decoder_process_until_end_of_metadata.maxtimers,find_metadata_.maxtimers $M read_metadata_.maxtimers $M 0
	.globl	FLAC__stream_decoder_process_until_end_of_metadata.maxtimers
	.set	FLAC__stream_decoder_process_until_end_of_metadata.maxchanends,find_metadata_.maxchanends $M read_metadata_.maxchanends $M 0
	.globl	FLAC__stream_decoder_process_until_end_of_metadata.maxchanends
.Ltmp1785:
	.size	FLAC__stream_decoder_process_until_end_of_metadata, .Ltmp1785-FLAC__stream_decoder_process_until_end_of_metadata
.Lfunc_end37:
	.cfi_endproc

	.globl	FLAC__stream_decoder_process_until_end_of_stream
	.align	4
	.type	FLAC__stream_decoder_process_until_end_of_stream,@function
	.cc_top FLAC__stream_decoder_process_until_end_of_stream.function,FLAC__stream_decoder_process_until_end_of_stream
FLAC__stream_decoder_process_until_end_of_stream:
.Lfunc_begin38:
	.loc	1 1042 0
	.cfi_startproc
	.issue_mode dual
	{
		nop
		dualentsp 8
	}
.Ltmp1786:
	.cfi_def_cfa_offset 32
.Ltmp1787:
	.cfi_offset 15, 0
	std r5, r4, sp[1]
.Ltmp1788:
	.cfi_offset 4, -24
.Ltmp1789:
	.cfi_offset 5, -20
	std r7, r6, sp[2]
.Ltmp1790:
	.cfi_offset 6, -16
.Ltmp1791:
	.cfi_offset 7, -12
.Ltmp1792:
	.cfi_offset 8, -8
.Ltmp1793:
	{
		mov r4, r0
		stw r8, sp[6]
	}
.Ltmp1794:
	.loc	1 1044 2 prologue_end
	{
		eq r0, r4, 0
		nop
	}
	{
		eq r0, r0, 0
		nop
	}
	.loc	1 1044 2
	bl assert
	{
		nop
		ldw r0, r4[0]
	}
	.loc	1 1045 2
	{
		eq r0, r0, 0
		nop
	}
	{
		eq r0, r0, 0
		nop
	}
	.loc	1 1045 2
	bl assert
	{
		mkmsk r5, 1
		ldc r6, 0
	}
	{
		mkmsk r8, 3
		ldaw r7, sp[1]
	}
.LBB38_1:
.Ltmp1795:
	{
		nop
		ldw r0, r4[0]
	}
	{
		nop
		ldw r0, r0[0]
	}
	.loc	1 1048 3
.Ltmp1796:
	{
		lsu r1, r8, r0
		nop
	}
	bt r1, .LBB38_9
.Ltmp1797:

	.xtabranch .Ljumptable9+4,.Ljumptable9+8,.Ljumptable9+12,.Ljumptable9+16,.Ljumptable9+20,.Ljumptable9+24,.Ljumptable9+28,.Ljumptable9+32
.Ljumptable9:
		
	{
		nop
		bru r0
	}
	.jmptable32 .LBB38_3,.LBB38_4,.LBB38_5,.LBB38_6,.LBB38_8,.LBB38_9,.LBB38_9,.LBB38_8
.Ltmp1798:
.LBB38_3:
	.loc	1 1050 9
	{
		mov r0, r4
		nop
	}
	bl find_metadata_
	bt r0, .LBB38_1
	bu .LBB38_7
.Ltmp1799:
.LBB38_4:
	.loc	1 1054 9
	{
		mov r0, r4
		nop
	}
	bl read_metadata_
	bt r0, .LBB38_1
	bu .LBB38_7
.Ltmp1800:
.LBB38_5:
	.loc	1 1058 9
	{
		mov r0, r4
		nop
	}
	bl frame_sync_
	bt r0, .LBB38_1
	bu .LBB38_8
.Ltmp1801:
.LBB38_6:
	.loc	1 1062 9
	{
		mov r0, r4
		mov r1, r7
	}
	{
		mov r2, r5
		nop
	}
	bl read_frame_
	bt r0, .LBB38_1
.Ltmp1802:
.LBB38_7:
	{
		mov r5, r6
		nop
	}
.LBB38_8:
	{
		mov r6, r5
		nop
	}
.LBB38_9:
	.loc	1 1072 1
	{
		mov r0, r6
		ldw r8, sp[6]
	}
	ldd r7, r6, sp[2]
	ldd r5, r4, sp[1]
	{
		nop
		retsp 8
	}
	# RETURN_REG_HOLDER
.Ltmp1803:
	.cc_bottom FLAC__stream_decoder_process_until_end_of_stream.function
	.set	FLAC__stream_decoder_process_until_end_of_stream.nstackwords,((assert.nstackwords $M find_metadata_.nstackwords $M read_metadata_.nstackwords $M frame_sync_.nstackwords $M read_frame_.nstackwords) + 8)
	.globl	FLAC__stream_decoder_process_until_end_of_stream.nstackwords
	.set	FLAC__stream_decoder_process_until_end_of_stream.maxcores,find_metadata_.maxcores $M frame_sync_.maxcores $M read_frame_.maxcores $M read_metadata_.maxcores $M 1
	.globl	FLAC__stream_decoder_process_until_end_of_stream.maxcores
	.set	FLAC__stream_decoder_process_until_end_of_stream.maxtimers,find_metadata_.maxtimers $M frame_sync_.maxtimers $M read_frame_.maxtimers $M read_metadata_.maxtimers $M 0
	.globl	FLAC__stream_decoder_process_until_end_of_stream.maxtimers
	.set	FLAC__stream_decoder_process_until_end_of_stream.maxchanends,find_metadata_.maxchanends $M frame_sync_.maxchanends $M read_frame_.maxchanends $M read_metadata_.maxchanends $M 0
	.globl	FLAC__stream_decoder_process_until_end_of_stream.maxchanends
.Ltmp1804:
	.size	FLAC__stream_decoder_process_until_end_of_stream, .Ltmp1804-FLAC__stream_decoder_process_until_end_of_stream
.Lfunc_end38:
	.cfi_endproc

	.globl	FLAC__stream_decoder_skip_single_frame
	.align	4
	.type	FLAC__stream_decoder_skip_single_frame,@function
	.cc_top FLAC__stream_decoder_skip_single_frame.function,FLAC__stream_decoder_skip_single_frame
FLAC__stream_decoder_skip_single_frame:
.Lfunc_begin39:
	.loc	1 1075 0
	.cfi_startproc
	.issue_mode dual
	{
		nop
		dualentsp 8
	}
.Ltmp1805:
	.cfi_def_cfa_offset 32
.Ltmp1806:
	.cfi_offset 15, 0
	std r5, r4, sp[1]
.Ltmp1807:
	.cfi_offset 4, -24
.Ltmp1808:
	.cfi_offset 5, -20
	std r7, r6, sp[2]
.Ltmp1809:
	.cfi_offset 6, -16
.Ltmp1810:
	.cfi_offset 7, -12
.Ltmp1811:
	.cfi_offset 8, -8
.Ltmp1812:
	{
		mov r4, r0
		stw r8, sp[6]
	}
.Ltmp1813:
	.loc	1 1077 2 prologue_end
	{
		eq r0, r4, 0
		nop
	}
	{
		eq r0, r0, 0
		nop
	}
	.loc	1 1077 2
	bl assert
	{
		nop
		ldw r0, r4[0]
	}
	.loc	1 1078 2
	{
		eq r0, r0, 0
		nop
	}
	{
		eq r0, r0, 0
		nop
	}
	.loc	1 1078 2
	bl assert
	{
		mkmsk r6, 1
		ldc r5, 0
	}
	{
		ldc r8, 5
		ldaw r7, sp[1]
	}
.LBB39_1:
.Ltmp1814:
	{
		nop
		ldw r0, r4[0]
	}
	{
		nop
		ldw r0, r0[0]
	}
	.loc	1 1081 3
.Ltmp1815:
	{
		sub r0, r0, 2
		nop
	}
	{
		lsu r1, r8, r0
		nop
	}
	bt r1, .LBB39_7
.Ltmp1816:

	.xtabranch .Ljumptable10+4,.Ljumptable10+8,.Ljumptable10+12,.Ljumptable10+16,.Ljumptable10+20,.Ljumptable10+24
.Ljumptable10:
		
	{
		nop
		bru r0
	}
	.jmptable32 .LBB39_3,.LBB39_4,.LBB39_8,.LBB39_7,.LBB39_7,.LBB39_8
.Ltmp1817:
.LBB39_3:
	.loc	1 1086 9
	{
		mov r0, r4
		nop
	}
	bl frame_sync_
	bt r0, .LBB39_1
	bu .LBB39_6
.Ltmp1818:
.LBB39_4:
	.loc	1 1090 9
	{
		mov r0, r4
		mov r1, r7
	}
	{
		mov r2, r5
		nop
	}
	bl read_frame_
	bf r0, .LBB39_7
.Ltmp1819:
	{
		nop
		ldw r0, sp[1]
	}
	bf r0, .LBB39_1
.Ltmp1820:
.LBB39_6:
	{
		mov r5, r6
		nop
	}
.LBB39_7:
	{
		mov r6, r5
		nop
	}
.LBB39_8:
	.loc	1 1102 1
	{
		mov r0, r6
		ldw r8, sp[6]
	}
	ldd r7, r6, sp[2]
	ldd r5, r4, sp[1]
	{
		nop
		retsp 8
	}
	# RETURN_REG_HOLDER
.Ltmp1821:
	.cc_bottom FLAC__stream_decoder_skip_single_frame.function
	.set	FLAC__stream_decoder_skip_single_frame.nstackwords,((assert.nstackwords $M frame_sync_.nstackwords $M read_frame_.nstackwords) + 8)
	.globl	FLAC__stream_decoder_skip_single_frame.nstackwords
	.set	FLAC__stream_decoder_skip_single_frame.maxcores,frame_sync_.maxcores $M read_frame_.maxcores $M 1
	.globl	FLAC__stream_decoder_skip_single_frame.maxcores
	.set	FLAC__stream_decoder_skip_single_frame.maxtimers,frame_sync_.maxtimers $M read_frame_.maxtimers $M 0
	.globl	FLAC__stream_decoder_skip_single_frame.maxtimers
	.set	FLAC__stream_decoder_skip_single_frame.maxchanends,frame_sync_.maxchanends $M read_frame_.maxchanends $M 0
	.globl	FLAC__stream_decoder_skip_single_frame.maxchanends
.Ltmp1822:
	.size	FLAC__stream_decoder_skip_single_frame, .Ltmp1822-FLAC__stream_decoder_skip_single_frame
.Lfunc_end39:
	.cfi_endproc

	.section	.cp.rodata.cst4,"aMc",@progbits,4
	.cc_top .LCPI40_0.data,.LCPI40_0
	.align	4
	.type	.LCPI40_0,@object
	.size	.LCPI40_0, 4
.LCPI40_0:
	.long	2147483647
	.cc_bottom .LCPI40_0.data
	.text
	.globl	FLAC__stream_decoder_seek_absolute
	.align	4
	.type	FLAC__stream_decoder_seek_absolute,@function
	.cc_top FLAC__stream_decoder_seek_absolute.function,FLAC__stream_decoder_seek_absolute
FLAC__stream_decoder_seek_absolute:
.Lfunc_begin40:
	.loc	1 1105 0
	.cfi_startproc
	.issue_mode dual
	{
		nop
		dualentsp 32
	}
.Ltmp1823:
	.cfi_def_cfa_offset 128
.Ltmp1824:
	.cfi_offset 15, 0
	{
		nop
		stw r4, sp[24]
	}
	{
		nop
		stw r5, sp[25]
	}
.Ltmp1825:
	.cfi_offset 4, -32
.Ltmp1826:
	.cfi_offset 5, -28
	{
		nop
		stw r6, sp[26]
	}
	{
		nop
		stw r7, sp[27]
	}
.Ltmp1827:
	.cfi_offset 6, -24
.Ltmp1828:
	.cfi_offset 7, -20
	{
		nop
		stw r8, sp[28]
	}
	{
		nop
		stw r9, sp[29]
	}
.Ltmp1829:
	.cfi_offset 8, -16
.Ltmp1830:
	.cfi_offset 9, -12
.Ltmp1831:
	.cfi_offset 10, -8
	{
		mov r7, r2
		stw r10, sp[30]
	}
.Ltmp1832:
	{
		mov r8, r1
		mov r4, r0
	}
.Ltmp1833:
	.loc	1 1108 2 prologue_end
	{
		eq r0, r4, 0
		nop
	}
	{
		eq r10, r0, 0
		nop
	}
	.loc	1 1108 2
	{
		mov r0, r10
		nop
	}
	bl assert
	{
		nop
		ldw r0, r4[0]
	}
	.loc	1 1111 3
.Ltmp1834:
	{
		ldc r9, 0
		ldw r0, r0[0]
	}
	{
		ldc r1, 4
		nop
	}
	.loc	1 1111 3
	{
		lsu r0, r1, r0
		nop
	}
	bt r0, .LBB40_12
.Ltmp1835:
	{
		nop
		ldw r0, r4[1]
	}
	{
		nop
		ldw r0, r0[2]
	}
	bf r0, .LBB40_12
.Ltmp1836:
	.loc	1 1122 2
	bl assert
	{
		nop
		ldw r0, r4[1]
	}
	{
		nop
		ldw r0, r0[3]
	}
	.loc	1 1123 2
	bl assert
	{
		nop
		ldw r0, r4[1]
	}
	{
		nop
		ldw r0, r0[4]
	}
	.loc	1 1124 2
	bl assert
	{
		nop
		ldw r0, r4[1]
	}
	{
		nop
		ldw r0, r0[5]
	}
	.loc	1 1125 2
	bl assert
.Ltmp1837:
	.loc	1 818 2
	{
		mov r0, r10
		nop
	}
	bl assert
	{
		nop
		ldw r0, r4[0]
	}
	.loc	1 819 2
	{
		eq r0, r0, 0
		nop
	}
	{
		eq r0, r0, 0
		nop
	}
	.loc	1 819 2
	bl assert
	{
		nop
		ldw r0, r4[1]
	}
	ldc r6, 240
	.loc	1 820 2
	{
		add r1, r0, r6
		nop
	}
	{
		nop
		ldw r1, r1[0]
	}
	bf r1, .LBB40_9
.Ltmp1838:
	ldc r5, 296
	.loc	1 820 2
	{
		add r1, r0, r5
		nop
	}
	.loc	1 820 2
	ldd r2, r1, r1[0]
.Ltmp1839:
	.loc	1 1127 5
	{
		or r1, r1, r2
		nop
	}
	bf r1, .LBB40_9
.Ltmp1840:
	.loc	1 818 2
	{
		mov r0, r10
		nop
	}
	bl assert
	{
		nop
		ldw r0, r4[0]
	}
	.loc	1 819 2
	{
		eq r0, r0, 0
		nop
	}
	{
		eq r0, r0, 0
		nop
	}
	.loc	1 819 2
	bl assert
	{
		nop
		ldw r0, r4[1]
	}
	.loc	1 820 2
	{
		add r1, r0, r6
		nop
	}
	{
		nop
		ldw r1, r1[0]
	}
	bf r1, .LBB40_12
.Ltmp1841:
	.loc	1 820 2
	{
		add r1, r0, r5
		nop
	}
	.loc	1 820 2
	ldd r2, r1, r1[0]
.Ltmp1842:
	.loc	1 1127 70
	{
		eq r3, r2, r7
		nop
	}
	bt r3, .LBB40_6
.Ltmp1843:
	{
		lsu r1, r7, r2
		nop
	}
	bu .LBB40_8
.Ltmp1844:
.LBB40_6:
	{
		lsu r1, r8, r1
		nop
	}
.Ltmp1845:
.LBB40_8:
	{
		eq r1, r1, 0
		nop
	}
.Ltmp1846:
	bt r1, .LBB40_12
.Ltmp1847:
.LBB40_9:
	ldc r5, 4680
	.loc	1 1130 2
	{
		add r1, r0, r5
		mkmsk r2, 1
	}
	{
		nop
		stw r2, r1[0]
	}
	ldc r1, 4672
	.loc	1 1133 2
	{
		add r1, r0, r1
		ldc r9, 0
	}
	{
		nop
		stw r9, r1[0]
	}
	{
		nop
		ldw r3, r0[4]
	}
.Ltmp1848:
	.loc	1 1136 5
	{
		ldaw r1, sp[18]
		ldw r2, r0[9]
	}
.Ltmp1849:
	.loc	1 1136 5
	{
		mov r0, r4
		nop
	}
	{
		nop
		bla r3
	}
	.loc	1 1136 5
	bf r0, .LBB40_13
.Ltmp1850:
	{
		nop
		ldw r0, r4[1]
	}
	.loc	1 1137 3
.Ltmp1851:
	{
		add r0, r0, r5
		nop
	}
	bu .LBB40_11
.Ltmp1852:
.LBB40_13:
	{
		nop
		stw r7, sp[16]
	}
	{
		nop
		ldw r0, r4[0]
	}
	.loc	1 1143 3
.Ltmp1853:
	{
		ldc r1, 2
		ldw r0, r0[0]
	}
	.loc	1 1143 3
	{
		lsu r0, r0, r1
		nop
	}
	.loc	1 1143 3
	bf r0, .LBB40_14
.Ltmp1854:
	.loc	1 1017 2
	{
		mov r0, r10
		nop
	}
	bl assert
	{
		nop
		ldw r0, r4[0]
	}
	.loc	1 1018 2
	{
		eq r0, r0, 0
		nop
	}
	{
		eq r0, r0, 0
		nop
	}
	.loc	1 1018 2
	bl assert
	{
		mkmsk r5, 3
		nop
	}
.Ltmp1855:
.LBB40_26:
	{
		nop
		ldw r0, r4[0]
	}
	{
		nop
		ldw r0, r0[0]
	}
	.loc	1 1021 3
.Ltmp1856:
	{
		lsu r1, r5, r0
		nop
	}
	bt r1, .LBB40_30
.Ltmp1857:

	.xtabranch .Ljumptable11+4,.Ljumptable11+8,.Ljumptable11+12,.Ljumptable11+16,.Ljumptable11+20,.Ljumptable11+24,.Ljumptable11+28,.Ljumptable11+32
.Ljumptable11:
		
	{
		nop
		bru r0
	}
	.jmptable32 .LBB40_28,.LBB40_29,.LBB40_31,.LBB40_31,.LBB40_31,.LBB40_30,.LBB40_30,.LBB40_31
.Ltmp1858:
.LBB40_28:
	.loc	1 1023 9
	{
		mov r0, r4
		nop
	}
	bl find_metadata_
	bt r0, .LBB40_26
	bu .LBB40_30
.Ltmp1859:
.LBB40_29:
	.loc	1 1027 9
	{
		mov r0, r4
		nop
	}
	bl read_metadata_
	bt r0, .LBB40_26
.Ltmp1860:
.LBB40_30:
	{
		nop
		ldw r0, r4[1]
	}
.Ltmp1861:
.LBB40_38:
	ldc r1, 4680
	.loc	1 1153 4
.Ltmp1862:
	{
		add r0, r0, r1
		ldc r9, 0
	}
.Ltmp1863:
.LBB40_11:
	{
		nop
		stw r9, r0[0]
	}
	bu .LBB40_12
.LBB40_14:
.Ltmp1864:
	{
		nop
		ldw r0, r4[1]
	}
.Ltmp1865:
.LBB40_15:
	{
		nop
		stw r8, sp[13]
	}
.Ltmp1866:
	.loc	1 1164 4
	ldd r2, r1, sp[9]
.Ltmp1867:
	{
		nop
		stw r2, sp[14]
	}
	{
		nop
		stw r1, sp[15]
	}
	ldc r1, 8312
	.loc	1 3242 2
.Ltmp1868:
	{
		add r0, r0, r1
		nop
	}
	.loc	1 3242 2
	ldd r0, r1, r0[0]
.Ltmp1869:
	{
		nop
		stw r1, sp[7]
	}
	.loc	1 818 2
.Ltmp1870:
	{
		mov r0, r10
		stw r0, sp[8]
	}
	{
		mov r8, r10
		nop
	}
	bl assert
	{
		nop
		ldw r0, r4[0]
	}
	.loc	1 819 2
	{
		eq r0, r0, 0
		nop
	}
	{
		eq r0, r0, 0
		nop
	}
	.loc	1 819 2
	bl assert
	{
		nop
		ldw r0, r4[1]
	}
	.loc	1 820 2
	{
		add r1, r0, r6
		nop
	}
	.loc	1 820 2
	{
		ldc r7, 0
		ldw r1, r1[0]
	}
	.loc	1 820 2
	{
		mov r2, r7
		stw r7, sp[17]
	}
	bf r1, .LBB40_17
.Ltmp1871:
	ldc r1, 296
	.loc	1 820 2
	{
		add r1, r0, r1
		nop
	}
	.loc	1 820 2
	ldd r1, r2, r1[0]
	{
		nop
		stw r1, sp[17]
	}
.Ltmp1872:
.LBB40_17:
	{
		mov r5, r2
		nop
	}
	ldc r1, 264
	.loc	1 3248 2
	{
		add r1, r0, r1
		nop
	}
	{
		nop
		ldw r9, r1[0]
	}
.Ltmp1873:
	ldc r1, 268
	.loc	1 3249 2
	{
		add r1, r0, r1
		nop
	}
	{
		nop
		ldw r1, r1[0]
	}
.Ltmp1874:
	{
		nop
		stw r1, sp[10]
	}
	ldc r1, 276
	.loc	1 3250 2
	{
		add r1, r0, r1
		nop
	}
	{
		nop
		ldw r10, r1[0]
	}
.Ltmp1875:
	ldc r1, 272
	.loc	1 3251 2
	{
		add r0, r0, r1
		nop
	}
	{
		nop
		ldw r0, r0[0]
	}
.Ltmp1876:
	.loc	1 825 2
	{
		mov r6, r8
		stw r0, sp[11]
	}
	{
		mov r0, r6
		stw r6, sp[12]
	}
	bl assert
	{
		nop
		ldw r0, r4[0]
	}
	.loc	1 826 2
	{
		eq r0, r0, 0
		nop
	}
	{
		eq r0, r0, 0
		nop
	}
	.loc	1 826 2
	bl assert
	{
		nop
		ldw r0, r4[0]
	}
.Ltmp1877:
	.loc	1 827 2
	{
		mov r0, r6
		ldw r8, r0[2]
	}
.Ltmp1878:
	.loc	1 839 2
	bl assert
	{
		nop
		ldw r0, r4[0]
	}
	.loc	1 840 2
	{
		eq r0, r0, 0
		nop
	}
	{
		eq r0, r0, 0
		nop
	}
	.loc	1 840 2
	bl assert
	{
		nop
		ldw r1, r4[0]
	}
	{
		nop
		ldw r2, r1[4]
	}
.Ltmp1879:
	{
		nop
		ldw r0, r4[1]
	}
	ldc r3, 244
.Ltmp1880:
	.loc	1 3255 2
	{
		add r3, r0, r3
		nop
	}
	{
		nop
		ldw r3, r3[0]
	}
	bf r3, .LBB40_19
.Ltmp1881:
	ldc r3, 440
	.loc	1 3255 2
	{
		add r7, r0, r3
		nop
	}
.Ltmp1882:
.LBB40_19:
	{
		mov r6, r5
		nop
	}
	bt r8, .LBB40_21
.Ltmp1883:
	ldc r3, 284
	.loc	1 3259 3
.Ltmp1884:
	{
		add r3, r0, r3
		nop
	}
	{
		nop
		ldw r8, r3[0]
	}
.Ltmp1885:
.LBB40_21:
	bt r2, .LBB40_23
.Ltmp1886:
	ldc r2, 288
	.loc	1 3261 3
.Ltmp1887:
	{
		add r2, r0, r2
		nop
	}
	{
		nop
		ldw r2, r2[0]
	}
.Ltmp1888:
.LBB40_23:
	bf r10, .LBB40_39
.Ltmp1889:
	{
		nop
		ldw r2, sp[11]
	}
	.loc	1 3265 3
.Ltmp1890:
	{
		add r2, r2, r10
		nop
	}
	.loc	1 3265 3
	{
		shr r2, r2, 1
		nop
	}
	.loc	1 3265 3
	{
		add r2, r2, 1
		nop
	}
.Ltmp1891:
	{
		nop
		stw r2, sp[9]
	}
	{
		nop
		ldw r10, sp[13]
	}
.Ltmp1892:
	bu .LBB40_44
.Ltmp1893:
.LBB40_39:
	{
		nop
		ldw r3, sp[10]
	}
.Ltmp1894:
	.loc	1 3272 10
	{
		eq r3, r9, r3
		ldw r10, sp[13]
	}
.Ltmp1895:
	bf r3, .LBB40_42
.Ltmp1896:
	bf r9, .LBB40_42
.Ltmp1897:
	.loc	1 3274 3
	mul r3, r8, r9
	.loc	1 3274 3
	mul r2, r3, r2
	.loc	1 3274 3
	{
		shr r2, r2, 3
		nop
	}
	ldc r3, 64
	.loc	1 3274 3
	{
		add r2, r2, r3
		nop
	}
	bu .LBB40_43
.Ltmp1898:
.LBB40_31:
	.loc	1 818 2
	{
		mov r0, r10
		nop
	}
	bl assert
	{
		nop
		ldw r0, r4[0]
	}
	.loc	1 819 2
	{
		eq r0, r0, 0
		nop
	}
	{
		eq r0, r0, 0
		nop
	}
	.loc	1 819 2
	bl assert
	{
		nop
		ldw r0, r4[1]
	}
	.loc	1 820 2
	{
		add r1, r0, r6
		nop
	}
	{
		nop
		ldw r1, r1[0]
	}
	bf r1, .LBB40_15
.Ltmp1899:
	ldc r5, 296
	.loc	1 820 2
	{
		add r1, r0, r5
		nop
	}
	.loc	1 820 2
	ldd r2, r1, r1[0]
.Ltmp1900:
	.loc	1 1152 6
	{
		or r1, r1, r2
		nop
	}
	bf r1, .LBB40_15
.Ltmp1901:
	.loc	1 818 2
	{
		mov r0, r10
		nop
	}
	bl assert
	{
		nop
		ldw r0, r4[0]
	}
	.loc	1 819 2
	{
		eq r0, r0, 0
		nop
	}
	{
		eq r0, r0, 0
		nop
	}
	.loc	1 819 2
	bl assert
	{
		nop
		ldw r0, r4[1]
	}
	.loc	1 820 2
	{
		add r1, r0, r6
		nop
	}
	{
		nop
		ldw r1, r1[0]
	}
	bf r1, .LBB40_38
.Ltmp1902:
	.loc	1 820 2
	{
		add r1, r0, r5
		nop
	}
	.loc	1 820 2
	ldd r2, r1, r1[0]
	{
		nop
		ldw r11, sp[16]
	}
.Ltmp1903:
	.loc	1 1152 71
	{
		eq r3, r2, r11
		nop
	}
	bt r3, .LBB40_35
.Ltmp1904:
	{
		lsu r1, r11, r2
		nop
	}
	bu .LBB40_37
.Ltmp1905:
.LBB40_42:
	.loc	1 3277 3
	mul r2, r8, r2
	{
		ldc r3, 12
		nop
	}
	{
		shl r2, r2, r3
		nop
	}
	.loc	1 3277 3
	{
		shr r2, r2, 3
		nop
	}
	ldc r3, 64
	.loc	1 3277 3
	{
		or r2, r2, r3
		nop
	}
.Ltmp1906:
.LBB40_43:
	{
		nop
		stw r2, sp[9]
	}
.Ltmp1907:
.LBB40_44:
	{
		nop
		ldw r2, sp[8]
	}
	{
		nop
		ldw r3, sp[7]
	}
	.loc	1 3286 2
	std r2, r3, sp[11]
	{
		nop
		ldw r2, sp[15]
	}
	{
		nop
		ldw r3, sp[14]
	}
	.loc	1 3288 2
	std r3, r2, sp[10]
	{
		nop
		ldw r9, sp[17]
	}
	.loc	1 3289 2
	{
		or r2, r6, r9
		mov r8, r9
	}
	bt r2, .LBB40_46
.Ltmp1908:
	{
		nop
		ldw r8, sp[16]
	}
.Ltmp1909:
.LBB40_46:
	{
		nop
		stw r6, sp[10]
	}
	bt r2, .LBB40_48
.Ltmp1910:
	{
		nop
		stw r10, sp[10]
	}
.Ltmp1911:
.LBB40_48:
	.loc	1 3291 5
	{
		ldc r3, 0
		ldw r1, r1[0]
	}
	.loc	1 3291 5
	{
		eq r1, r1, 2
		nop
	}
	bf r1, .LBB40_49
.Ltmp1912:
	ldc r5, 232
	.loc	1 3291 5
	{
		add r0, r0, r5
		nop
	}
	.loc	1 3291 5
	ldd r1, r0, r0[0]
	.loc	1 3291 5
	{
		or r2, r0, r1
		ldc r3, 0
	}
	.loc	1 3291 5
	bf r2, .LBB40_51
.Ltmp1913:
	{
		nop
		ldw r3, sp[16]
	}
	.loc	1 3293 6
.Ltmp1914:
	{
		eq r2, r1, r3
		nop
	}
	bt r2, .LBB40_53
.Ltmp1915:
	{
		lsu r0, r3, r1
		nop
	}
	bu .LBB40_55
.Ltmp1916:
.LBB40_49:
	.loc	1 1164 4
	{
		mov r9, r3
		nop
	}
	bu .LBB40_61
.Ltmp1917:
.LBB40_51:
	{
		mov r9, r3
		nop
	}
	bu .LBB40_61
.Ltmp1918:
.LBB40_53:
	.loc	1 3293 6
	{
		lsu r0, r10, r0
		nop
	}
.Ltmp1919:
.LBB40_55:
	{
		eq r0, r0, 0
		nop
	}
.Ltmp1920:
	bt r0, .LBB40_58
.Ltmp1921:
	{
		ldaw r1, sp[20]
		mov r0, r4
	}
.Ltmp1922:
	.loc	1 3294 7
	bl FLAC__stream_decoder_get_decode_position
	{
		ldc r3, 0
		nop
	}
.Ltmp1923:
	.loc	1 1164 4
	{
		mov r9, r3
		nop
	}
	bf r0, .LBB40_61
.Ltmp1924:
	{
		nop
		ldw r0, r4[1]
	}
	.loc	1 3295 5
.Ltmp1925:
	{
		add r0, r0, r5
		nop
	}
	.loc	1 3295 5
	ldd r8, r0, r0[0]
	{
		ldc r3, 0
		stw r0, sp[10]
	}
.Ltmp1926:
	.loc	1 1164 4
	{
		mov r9, r3
		nop
	}
	bu .LBB40_61
.Ltmp1927:
.LBB40_58:
	{
		ldaw r1, sp[22]
		mov r0, r4
	}
.Ltmp1928:
	.loc	1 3297 7
	bl FLAC__stream_decoder_get_decode_position
	{
		ldc r3, 0
		nop
	}
	.loc	1 3297 7
	bf r0, .LBB40_59
.Ltmp1929:
	{
		nop
		ldw r0, r4[1]
	}
	.loc	1 3298 5
	{
		add r0, r0, r5
		nop
	}
	.loc	1 3298 5
	ldd r9, r3, r0[0]
	bu .LBB40_61
.Ltmp1930:
.LBB40_59:
	.loc	1 1164 4
	{
		mov r9, r3
		nop
	}
.Ltmp1931:
.LBB40_61:
	{
		nop
		stw r3, sp[14]
	}
	.loc	1 3312 5
.Ltmp1932:
	bf r7, .LBB40_62
.Ltmp1933:
	{
		nop
		stw r10, sp[13]
	}
.Ltmp1934:
	.loc	1 3313 3
	ldd r1, r0, sp[11]
	{
		nop
		stw r0, sp[4]
	}
	.loc	1 3314 3
	ldd r2, r0, sp[10]
	{
		nop
		stw r2, sp[6]
	}
	{
		nop
		stw r0, sp[5]
	}
	.loc	1 3319 7
.Ltmp1935:
	{
		mkmsk r5, 1
		ldw r10, r7[0]
	}
	.loc	1 3319 3
.Ltmp1936:
	{
		lss r0, r10, r5
		nop
	}
	bt r0, .LBB40_64
.Ltmp1937:
	{
		nop
		stw r1, sp[3]
	}
	{
		nop
		stw r8, sp[1]
	}
	{
		nop
		stw r9, sp[15]
	}
	{
		nop
		ldw r1, r7[1]
	}
.Ltmp1938:
	{
		ldc r0, 24
		stw r7, sp[2]
	}
	.loc	1 3319 3
	mul r0, r10, r0
	.loc	1 3321 5
.Ltmp1939:
	{
		add r0, r0, r1
		nop
	}
	.loc	1 3321 5
	ldaw r11, cp[FLAC__STREAM_METADATA_SEEKPOINT_PLACEHOLDER]
	ldd r8, r3, r11[0]
	{
		ldc r2, 0
		mkmsk r11, 32
	}
	.loc	1 3321 5
	ladd r5, r6, r6, r11, r2
	{
		nop
		stw r6, sp[11]
	}
	{
		nop
		ldw r6, sp[17]
	}
	ladd r11, r9, r6, r11, r5
	ldaw r5, r0[-6]
.Ltmp1940:
	.loc	1 1164 4
	{
		mov r0, r10
		stw r10, sp[17]
	}
.Ltmp1941:
.LBB40_66:
	.loc	1 3319 7
	{
		sub r0, r0, 1
		nop
	}
	.loc	1 3321 5
.Ltmp1942:
	ldd r6, r11, r5[0]
	.loc	1 3321 5
	xor r7, r6, r8
	{
		mov r10, r9
		nop
	}
	xor r9, r11, r3
	{
		or r7, r9, r7
		mov r9, r10
	}
	bf r7, .LBB40_68
.Ltmp1943:
	{
		nop
		ldw r7, r5[4]
	}
	bf r7, .LBB40_68
.Ltmp1944:
	.loc	1 3321 5
	{
		eq r7, r9, r6
		nop
	}
	bt r7, .LBB40_71
.Ltmp1945:
	{
		lsu r7, r9, r6
		nop
	}
	bu .LBB40_73
.Ltmp1946:
.LBB40_71:
	{
		nop
		ldw r7, sp[11]
	}
	{
		lsu r7, r7, r11
		nop
	}
.Ltmp1947:
.LBB40_73:
	bt r7, .LBB40_68
.Ltmp1948:
	{
		mov r10, r9
		ldw r9, sp[16]
	}
	{
		eq r7, r6, r9
		nop
	}
	bt r7, .LBB40_75
.Ltmp1949:
	{
		lsu r7, r9, r6
		nop
	}
	bu .LBB40_77
.Ltmp1950:
.LBB40_75:
	{
		nop
		ldw r7, sp[13]
	}
	{
		lsu r7, r7, r11
		nop
	}
.Ltmp1951:
.LBB40_77:
	{
		mov r9, r10
		nop
	}
.Ltmp1952:
	bf r7, .LBB40_78
.Ltmp1953:
.LBB40_68:
	.loc	1 3319 3
	ldaw r5, r5[-6]
	.loc	1 3319 3
	{
		lss r11, r2, r0
		nop
	}
	bt r11, .LBB40_66
.Ltmp1954:
	{
		nop
		ldw r11, sp[14]
	}
	{
		nop
		ldw r6, sp[15]
	}
	bu .LBB40_79
.Ltmp1955:
.LBB40_62:
	{
		mkmsk r5, 1
		ldw r7, sp[10]
	}
	bu .LBB40_99
.Ltmp1956:
.LBB40_64:
	{
		ldc r2, 0
		stw r1, sp[3]
	}
	.loc	1 1164 4
	{
		mov r6, r9
		ldw r11, sp[14]
	}
	bu .LBB40_92
.Ltmp1957:
.LBB40_78:
	{
		ldc r5, 24
		nop
	}
	.loc	1 3329 4
.Ltmp1958:
	mul r0, r0, r5
	{
		add r0, r1, r0
		nop
	}
	{
		add r0, r0, 8
		nop
	}
	.loc	1 3329 4
	ldd r5, r0, r0[0]
	{
		nop
		ldw r7, sp[7]
	}
	.loc	1 3329 4
	ladd r0, r7, r0, r7, r2
	{
		nop
		stw r7, sp[4]
	}
	{
		nop
		ldw r7, sp[8]
	}
	ladd r0, r5, r5, r7, r0
	{
		nop
		stw r5, sp[3]
	}
.Ltmp1959:
.LBB40_79:
	{
		mov r10, r9
		nop
	}
.Ltmp1960:
.LBB40_80:
	.loc	1 3336 5
	ldd r5, r0, r1[0]
	.loc	1 3336 5
	xor r7, r5, r8
	xor r9, r0, r3
	{
		or r7, r9, r7
		nop
	}
	bf r7, .LBB40_90
.Ltmp1961:
	{
		nop
		ldw r7, r1[4]
	}
	bf r7, .LBB40_90
.Ltmp1962:
	.loc	1 3336 5
	{
		eq r7, r10, r5
		nop
	}
	bt r7, .LBB40_83
.Ltmp1963:
	{
		lsu r7, r10, r5
		nop
	}
	bu .LBB40_85
.Ltmp1964:
.LBB40_83:
	{
		nop
		ldw r7, sp[11]
	}
	{
		lsu r7, r7, r0
		nop
	}
.Ltmp1965:
.LBB40_85:
	bt r7, .LBB40_90
.Ltmp1966:
	{
		nop
		ldw r9, sp[16]
	}
	{
		eq r7, r5, r9
		nop
	}
	bt r7, .LBB40_87
.Ltmp1967:
	{
		lsu r0, r9, r5
		nop
	}
	bu .LBB40_89
.Ltmp1968:
.LBB40_87:
	{
		nop
		ldw r5, sp[13]
	}
	{
		lsu r0, r5, r0
		nop
	}
.Ltmp1969:
.LBB40_89:
	bt r0, .LBB40_91
.Ltmp1970:
.LBB40_90:
	.loc	1 3334 47
	{
		add r2, r2, 1
		nop
	}
.Ltmp1971:
	.loc	1 3334 3
	ldaw r1, r1[6]
	{
		nop
		ldw r0, sp[17]
	}
	.loc	1 3334 3
	{
		lss r0, r2, r0
		nop
	}
	bt r0, .LBB40_80
.Ltmp1972:
.LBB40_91:
	{
		mkmsk r5, 1
		ldw r9, sp[15]
	}
	{
		nop
		ldw r7, sp[2]
	}
	{
		nop
		ldw r8, sp[1]
	}
	{
		nop
		ldw r10, sp[17]
	}
.Ltmp1973:
.LBB40_92:
	.loc	1 3343 6
	{
		lss r3, r2, r10
		ldw r0, sp[10]
	}
.Ltmp1974:
	.loc	1 1164 4
	{
		mov r1, r8
		nop
	}
	bf r3, .LBB40_94
.Ltmp1975:
	.loc	1 3344 4
	{
		ldc r1, 24
		ldw r0, r7[1]
	}
	.loc	1 3344 4
	mul r1, r2, r1
	{
		add r0, r0, r1
		nop
	}
	{
		add r1, r0, 8
		nop
	}
	.loc	1 3344 4
	ldd r2, r1, r1[0]
	{
		ldc r3, 0
		mov r7, r8
	}
.Ltmp1976:
	{
		nop
		ldw r8, sp[7]
	}
	.loc	1 3344 4
	ladd r1, r3, r1, r8, r3
	{
		mov r8, r7
		stw r3, sp[5]
	}
	{
		nop
		ldw r3, sp[8]
	}
	ladd r1, r2, r2, r3, r1
	{
		nop
		stw r2, sp[6]
	}
	.loc	1 3345 4
	ldd r1, r0, r0[0]
.Ltmp1977:
.LBB40_94:
	{
		nop
		stw r0, sp[17]
	}
	{
		nop
		ldw r3, sp[3]
	}
	{
		nop
		ldw r0, sp[6]
	}
.Ltmp1978:
	.loc	1 3348 6
	{
		eq r2, r0, r3
		ldw r10, sp[13]
	}
.Ltmp1979:
	bt r2, .LBB40_95
.Ltmp1980:
	{
		lsu r2, r0, r3
		nop
	}
	bu .LBB40_97
.Ltmp1981:
.LBB40_95:
	{
		nop
		ldw r2, sp[4]
	}
	{
		nop
		ldw r7, sp[5]
	}
	{
		lsu r2, r7, r2
		nop
	}
.Ltmp1982:
.LBB40_97:
	{
		nop
		ldw r7, sp[10]
	}
.Ltmp1983:
	bt r2, .LBB40_99
.Ltmp1984:
	{
		nop
		ldw r2, sp[4]
	}
	.loc	1 3349 4
.Ltmp1985:
	std r3, r2, sp[11]
	{
		nop
		ldw r2, sp[5]
	}
	.loc	1 3350 4
	std r0, r2, sp[10]
.Ltmp1986:
	.loc	1 1164 4
	{
		mov r8, r1
		ldw r7, sp[17]
	}
	{
		mov r9, r6
		stw r11, sp[14]
	}
.Ltmp1987:
.LBB40_99:
	.loc	1 3356 2
	{
		eq r0, r8, r9
		nop
	}
	bt r0, .LBB40_100
.Ltmp1988:
	{
		lsu r0, r8, r9
		nop
	}
	{
		eq r0, r0, 0
		ldw r6, sp[14]
	}
	bu .LBB40_102
.Ltmp1989:
.LBB40_100:
	{
		nop
		ldw r6, sp[14]
	}
	{
		lsu r0, r7, r6
		nop
	}
	{
		eq r0, r0, 0
		nop
	}
.Ltmp1990:
.LBB40_102:
	.loc	1 3356 2
	bl assert
	.loc	1 3366 5
.Ltmp1991:
	xor r0, r7, r6
	xor r1, r8, r9
	{
		mov r2, r9
		or r0, r0, r1
	}
	{
		eq r0, r0, 0
		ldc r3, 0
	}
	.loc	1 3366 5
	ladd r0, r1, r0, r7, r3
	{
		add r8, r8, r0
		stw r1, sp[10]
	}
	{
		nop
		ldw r0, r4[1]
	}
	ldc r1, 8328
.Ltmp1992:
	.loc	1 3369 2
	{
		add r0, r0, r1
		ldw r1, sp[16]
	}
	.loc	1 3369 2
	std r1, r10, r0[0]
	{
		nop
		stw r5, sp[6]
	}
	bu .LBB40_103
.Ltmp1993:
.LBB40_35:
	.loc	1 1152 71
	{
		lsu r1, r8, r1
		nop
	}
.Ltmp1994:
.LBB40_37:
	bt r1, .LBB40_15
	bu .LBB40_38
.Ltmp1995:
.LBB40_178:
	.loc	1 3470 4
	ldd r1, r0, sp[10]
	{
		mov r7, r5
		ldw r2, sp[17]
	}
	.loc	1 3470 4
	lsub r2, r0, r0, r2, r7
	lsub r2, r1, r1, r10, r2
	{
		mkmsk r2, 5
		nop
	}
	.loc	1 3470 4
	{
		shr r2, r0, r2
		shl r1, r1, 1
	}
	{
		or r1, r1, r2
		shl r0, r0, 1
	}
	{
		mkmsk r2, 2
		mov r3, r7
	}
	.loc	1 3470 4
	bl __udivdi3
	{
		mov r3, r7
		ldc r1, 16
	}
	.loc	1 3470 4
	ladd r0, r1, r0, r1, r3
	{
		nop
		stw r1, sp[9]
	}
	{
		nop
		stw r3, sp[6]
	}
	{
		nop
		ldw r0, sp[8]
	}
	{
		nop
		stw r0, sp[10]
	}
	{
		mov r8, r6
		stw r9, sp[16]
	}
	{
		nop
		ldw r10, sp[13]
	}
.Ltmp1996:
	{
		nop
		ldw r6, sp[14]
	}
	{
		nop
		ldw r2, sp[15]
	}
.Ltmp1997:
.LBB40_103:
	{
		nop
		stw r8, sp[11]
	}
	bu .LBB40_104
.Ltmp1998:
.LBB40_180:
	.loc	1 3478 4
	ldd r1, r0, sp[11]
	{
		mov r7, r5
		ldw r2, sp[17]
	}
	.loc	1 3478 4
	lsub r2, r0, r0, r2, r7
	lsub r2, r1, r1, r10, r2
	{
		mkmsk r2, 5
		nop
	}
	.loc	1 3478 4
	{
		shr r2, r0, r2
		shl r1, r1, 1
	}
	{
		or r1, r1, r2
		shl r0, r0, 1
	}
	{
		mkmsk r2, 2
		mov r3, r7
	}
	.loc	1 3478 4
	bl __udivdi3
	{
		mov r3, r7
		ldc r1, 16
	}
	.loc	1 3478 4
	ladd r0, r1, r0, r1, r3
	{
		nop
		stw r1, sp[9]
	}
	{
		nop
		stw r3, sp[6]
	}
.Ltmp1999:
	.loc	1 1164 4
	{
		mov r1, r6
		ldw r0, sp[8]
	}
	{
		mov r6, r0
		stw r9, sp[16]
	}
.Ltmp2000:
	{
		mov r2, r1
		ldw r10, sp[13]
	}
.Ltmp2001:
.LBB40_104:
	{
		mov r7, r2
		nop
	}
	{
		nop
		stw r7, sp[15]
	}
	{
		nop
		stw r6, sp[14]
	}
	{
		nop
		stw r10, sp[13]
	}
	.loc	1 3388 4
.Ltmp2002:
	lsub r1, r0, r10, r6, r3
	{
		nop
		ldw r2, sp[16]
	}
.Ltmp2003:
	lsub r2, r1, r2, r7, r1
	{
		mov r5, r3
		nop
	}
	.loc	1 3388 4
	bl __floatundidf
	{
		mov r9, r0
		mov r10, r1
	}
	{
		nop
		ldw r0, sp[10]
	}
	.loc	1 3388 4
	lsub r1, r0, r0, r6, r5
	lsub r2, r1, r8, r7, r1
	{
		mov r6, r7
		nop
	}
	.loc	1 3388 4
	bl __floatundidf
	{
		mov r2, r0
		mov r3, r1
	}
	.loc	1 3388 4
	{
		mov r0, r9
		mov r1, r10
	}
	bl __divdf3
	{
		mov r11, r5
		stw r0, sp[8]
	}
	{
		ldc r7, 2
		stw r1, sp[7]
	}
	bu .LBB40_105
.Ltmp2004:
.LBB40_165:
	{
		mov r6, r9
		shl r0, r0, 1
	}
	{
		nop
		stw r0, sp[9]
	}
.Ltmp2005:
.LBB40_105:
	.loc	1 1164 4
	{
		mov r0, r11
		nop
	}
	ldw r2, cp[.LCPI40_0]
	{
		mov r9, r6
		nop
	}
.Ltmp2006:
.LBB40_106:
	{
		mov r6, r0
		ldw r0, r4[0]
	}
	{
		nop
		ldw r1, r0[0]
	}
	.loc	1 3373 6
.Ltmp2007:
	{
		sub r1, r1, 7
		nop
	}
	.loc	1 3373 6
	{
		lsu r1, r1, r7
		nop
	}
	.loc	1 3373 6
	bt r1, .LBB40_107
.Ltmp2008:
	.loc	1 3377 7
	{
		eq r1, r8, r9
		nop
	}
	bt r1, .LBB40_109
.Ltmp2009:
	{
		lsu r1, r9, r8
		nop
	}
	bu .LBB40_111
.Ltmp2010:
.LBB40_109:
	{
		nop
		ldw r1, sp[14]
	}
	{
		nop
		ldw r3, sp[10]
	}
	{
		lsu r1, r1, r3
		nop
	}
.Ltmp2011:
.LBB40_111:
	{
		eq r1, r1, 0
		nop
	}
.Ltmp2012:
	bt r1, .LBB40_120
.Ltmp2013:
	.loc	1 3377 7
	ldd r10, r9, sp[11]
	.loc	1 3377 7
	ldd r5, r8, sp[10]
	.loc	1 3377 7
	{
		eq r1, r5, r10
		nop
	}
	bt r1, .LBB40_113
.Ltmp2014:
	{
		lsu r1, r5, r10
		nop
	}
	bu .LBB40_115
.Ltmp2015:
.LBB40_113:
	{
		lsu r1, r8, r9
		nop
	}
.Ltmp2016:
.LBB40_115:
	bt r1, .LBB40_120
.Ltmp2017:
	{
		eq r1, r5, r2
		nop
	}
	bt r1, .LBB40_117
.Ltmp2018:
	{
		lsu r1, r5, r2
		nop
	}
	bu .LBB40_119
.Ltmp2019:
.LBB40_117:
	{
		mkmsk r1, 32
		nop
	}
	{
		eq r1, r8, r1
		nop
	}
	{
		eq r1, r1, 0
		nop
	}
.Ltmp2020:
.LBB40_119:
	bf r1, .LBB40_120
.Ltmp2021:
	.loc	1 1164 4
	{
		mov r0, r9
		mov r1, r10
	}
	bt r6, .LBB40_123
.Ltmp2022:
	.loc	1 3388 4
	lsub r1, r0, r8, r9, r11
	lsub r2, r1, r5, r10, r1
	{
		mov r7, r11
		nop
	}
	.loc	1 3388 4
	bl __floatundidf
	{
		mov r2, r0
		mov r3, r1
	}
	{
		nop
		ldw r0, sp[8]
	}
	{
		nop
		ldw r1, sp[7]
	}
	.loc	1 3388 4
	bl __muldf3
	.loc	1 3388 4
	bl __fixdfdi
	{
		mov r11, r7
		ldw r2, sp[9]
	}
	.loc	1 3388 4
	lsub r3, r2, r9, r2, r11
	{
		sub r3, r10, r3
		nop
	}
	.loc	1 3388 4
	ladd r2, r0, r2, r0, r11
	ladd r2, r1, r3, r1, r2
.Ltmp2023:
.LBB40_123:
	.loc	1 3399 6
	{
		eq r2, r1, r5
		nop
	}
	bt r2, .LBB40_124
.Ltmp2024:
	{
		lss r2, r1, r5
		stw r9, sp[17]
	}
	bu .LBB40_126
.Ltmp2025:
.LBB40_124:
	{
		lsu r2, r0, r8
		stw r9, sp[17]
	}
.Ltmp2026:
.LBB40_126:
	{
		mov r7, r11
		mkmsk r3, 32
	}
	{
		mov r9, r3
		nop
	}
	.loc	1 3400 4
	ladd r3, r11, r8, r9, r7
	{
		mov r8, r7
		nop
	}
	ladd r5, r3, r5, r9, r3
	bt r2, .LBB40_128
.Ltmp2027:
	.loc	1 3399 6
	{
		mov r0, r11
		nop
	}
.Ltmp2028:
.LBB40_128:
	{
		mkmsk r5, 1
		ldw r9, sp[15]
	}
	bt r2, .LBB40_130
.Ltmp2029:
	{
		mov r1, r3
		nop
	}
.Ltmp2030:
.LBB40_130:
	.loc	1 3401 6
	{
		eq r2, r1, r10
		nop
	}
	ldc r7, 4672
	bt r2, .LBB40_131
.Ltmp2031:
	{
		lss r2, r1, r10
		nop
	}
	bu .LBB40_133
.Ltmp2032:
.LBB40_131:
	{
		nop
		ldw r2, sp[17]
	}
	{
		lsu r2, r0, r2
		nop
	}
.Ltmp2033:
.LBB40_133:
	bt r2, .LBB40_135
.Ltmp2034:
	.loc	1 3401 6
	{
		mov r10, r1
		nop
	}
.Ltmp2035:
.LBB40_135:
	bt r2, .LBB40_137
.Ltmp2036:
	{
		nop
		stw r0, sp[17]
	}
.Ltmp2037:
.LBB40_137:
	{
		nop
		ldw r0, r4[1]
	}
	{
		nop
		ldw r11, r0[2]
	}
	.loc	1 3403 6
.Ltmp2038:
	{
		mov r0, r4
		ldw r3, r0[9]
	}
	.loc	1 3403 6
	{
		mov r2, r10
		ldw r1, sp[17]
	}
	{
		nop
		bla r11
	}
	.loc	1 3403 6
	bt r0, .LBB40_138
.Ltmp2039:
	{
		nop
		ldw r0, sp[12]
	}
	.loc	1 886 2
.Ltmp2040:
	bl assert
	{
		nop
		ldw r0, r4[1]
	}
	.loc	1 887 2
	{
		eq r0, r0, 0
		nop
	}
	{
		eq r0, r0, 0
		nop
	}
	.loc	1 887 2
	bl assert
	{
		nop
		ldw r0, r4[0]
	}
	.loc	1 888 2
	{
		eq r0, r0, 0
		nop
	}
	{
		eq r0, r0, 0
		nop
	}
	.loc	1 888 2
	bl assert
	{
		nop
		ldw r0, r4[1]
	}
	ldc r1, 4676
	.loc	1 890 5
.Ltmp2041:
	{
		add r1, r0, r1
		nop
	}
	{
		nop
		ldw r1, r1[0]
	}
	bt r1, .LBB40_142
.Ltmp2042:
	{
		nop
		ldw r1, r4[0]
	}
	{
		nop
		ldw r1, r1[0]
	}
	.loc	1 890 5
	{
		eq r1, r1, 9
		nop
	}
	bt r1, .LBB40_141
.Ltmp2043:
.LBB40_142:
	ldc r1, 232
	.loc	1 893 2
	{
		add r1, r0, r1
		nop
	}
	.loc	1 893 2
	std r8, r8, r1[0]
	.loc	1 894 2
	{
		add r1, r0, r7
		nop
	}
	{
		nop
		stw r8, r1[0]
	}
	ldc r1, 8320
	.loc	1 895 2
	{
		add r1, r0, r1
		nop
	}
	.loc	1 895 2
	std r8, r8, r1[0]
	ldc r1, 8304
	.loc	1 896 2
	{
		add r1, r0, r1
		nop
	}
	{
		nop
		stw r8, r1[0]
	}
	{
		nop
		ldw r0, r0[11]
	}
	.loc	1 903 6
.Ltmp2044:
	bl FLAC__bitreader_clear
	{
		nop
		ldw r1, r4[0]
	}
	.loc	1 903 6
	bf r0, .LBB40_143
.Ltmp2045:
	{
		ldc r7, 2
		nop
	}
	{
		nop
		stw r7, r1[0]
	}
	{
		nop
		ldw r0, r4[1]
	}
	ldc r1, 8336
	.loc	1 3417 3
	{
		add r0, r0, r1
		nop
	}
	.loc	1 3417 3
	{
		mov r0, r4
		stw r8, r0[0]
	}
	.loc	1 3418 7
.Ltmp2046:
	bl FLAC__stream_decoder_process_single
	{
		nop
		ldw r1, r4[0]
	}
	{
		nop
		ldw r2, r1[0]
	}
	.loc	1 3418 7
	bf r0, .LBB40_151
.Ltmp2047:
	{
		eq r0, r2, 7
		nop
	}
	bt r0, .LBB40_156
.Ltmp2048:
	{
		nop
		ldw r0, r4[1]
	}
	ldc r1, 232
	.loc	1 3418 7
	{
		add r1, r0, r1
		nop
	}
	.loc	1 3418 7
	ldd r2, r1, r1[0]
	.loc	1 3418 7
	{
		or r1, r1, r2
		nop
	}
	bf r1, .LBB40_153
	bu .LBB40_149
.Ltmp2049:
.LBB40_151:
	{
		eq r0, r2, 7
		nop
	}
	bt r0, .LBB40_156
.Ltmp2050:
	{
		nop
		ldw r0, r4[1]
	}
.Ltmp2051:
.LBB40_153:
	{
		nop
		ldw r2, r0[5]
	}
	.loc	1 3420 69
.Ltmp2052:
	{
		mov r0, r4
		ldw r1, r0[9]
	}
	{
		nop
		bla r2
	}
	{
		mov r11, r8
		nop
	}
	ldw r2, cp[.LCPI40_0]
	{
		nop
		ldw r8, sp[11]
	}
	bf r0, .LBB40_155
.Ltmp2053:
	.loc	1 1164 4
	{
		mov r0, r5
		nop
	}
	bf r6, .LBB40_106
	bu .LBB40_155
.Ltmp2054:
.LBB40_149:
	ldc r2, 4680
	.loc	1 3437 6
.Ltmp2055:
	{
		add r1, r0, r2
		nop
	}
	{
		nop
		ldw r1, r1[0]
	}
	bf r1, .LBB40_150
.Ltmp2056:
	ldc r1, 4820
	.loc	1 3440 3
	{
		add r0, r0, r1
		nop
	}
	{
		nop
		ldw r0, r0[0]
	}
	.loc	1 3440 3
	{
		eq r0, r0, 1
		nop
	}
	.loc	1 3440 3
	bl assert
	{
		nop
		ldw r0, r4[1]
	}
	ldc r1, 4800
	.loc	1 3441 3
	{
		add r2, r0, r1
		nop
	}
	ldc r1, 4824
	{
		add r0, r0, r1
		nop
	}
	.loc	1 3441 3
	ldd r1, r0, r0[0]
	.loc	1 3443 6
.Ltmp2057:
	{
		mov r11, r8
		ldw r2, r2[0]
	}
	.loc	1 3443 6
	ladd r2, r3, r2, r0, r11
	{
		add r6, r1, r2
		ldw r8, sp[11]
	}
	.loc	1 3443 6
	{
		eq r2, r6, r8
		nop
	}
	bt r2, .LBB40_158
.Ltmp2058:
	{
		lsu r2, r6, r8
		nop
	}
	bu .LBB40_160
.Ltmp2059:
.LBB40_158:
	{
		nop
		ldw r2, sp[10]
	}
	{
		lsu r2, r3, r2
		nop
	}
.Ltmp2060:
.LBB40_160:
	bt r2, .LBB40_168
.Ltmp2061:
	{
		nop
		ldw r2, sp[6]
	}
	bt r2, .LBB40_168
.Ltmp2062:
	.loc	1 3444 8
	ldd r1, r0, sp[11]
	{
		nop
		ldw r2, sp[17]
	}
	.loc	1 3444 8
	xor r0, r2, r0
	xor r1, r10, r1
	{
		or r0, r0, r1
		nop
	}
	bf r0, .LBB40_163
.Ltmp2063:
	{
		nop
		ldw r0, sp[9]
	}
	.loc	1 3450 4
	bt r0, .LBB40_165
.Ltmp2064:
	{
		mov r6, r9
		ldc r0, 16
	}
	{
		nop
		stw r0, sp[9]
	}
.Ltmp2065:
	bu .LBB40_105
.Ltmp2066:
.LBB40_168:
	{
		mov r5, r11
		stw r3, sp[8]
	}
	{
		mov r2, r9
		ldw r7, sp[16]
	}
	.loc	1 3457 7
.Ltmp2067:
	{
		eq r2, r1, r2
		nop
	}
	bt r2, .LBB40_169
.Ltmp2068:
	{
		nop
		ldw r2, sp[15]
	}
	{
		lsu r2, r1, r2
		nop
	}
	bu .LBB40_171
.Ltmp2069:
.LBB40_169:
	{
		nop
		ldw r2, sp[14]
	}
	{
		lsu r2, r0, r2
		nop
	}
.Ltmp2070:
.LBB40_171:
	{
		eq r2, r2, 0
		nop
	}
.Ltmp2071:
	bf r2, .LBB40_172
.Ltmp2072:
	.loc	1 3463 6
	{
		eq r2, r1, r7
		nop
	}
	bt r2, .LBB40_174
.Ltmp2073:
	{
		lsu r0, r7, r1
		mov r9, r7
	}
	bu .LBB40_176
.Ltmp2074:
.LBB40_174:
	{
		mov r9, r7
		ldw r1, sp[13]
	}
	{
		lsu r0, r1, r0
		nop
	}
.Ltmp2075:
.LBB40_176:
	{
		eq r0, r0, 0
		nop
	}
.Ltmp2076:
	bf r0, .LBB40_177
.Ltmp2077:
	.loc	1 3474 8
	{
		mov r0, r4
		ldaw r1, sp[22]
	}
	bl FLAC__stream_decoder_get_decode_position
	bt r0, .LBB40_180
	bu .LBB40_172
.Ltmp2078:
.LBB40_177:
	.loc	1 3466 8
	{
		mov r0, r4
		ldaw r1, sp[20]
	}
	bl FLAC__stream_decoder_get_decode_position
	bt r0, .LBB40_178
.Ltmp2079:
.LBB40_172:
	.loc	1 3458 4
	{
		ldc r1, 6
		ldw r0, r4[0]
	}
	.loc	1 3458 4
	{
		mov r11, r5
		stw r1, r0[0]
	}
	bu .LBB40_107
.Ltmp2080:
.LBB40_138:
	.loc	1 3404 4
	{
		ldc r1, 6
		ldw r0, r4[0]
	}
	.loc	1 3404 4
	{
		mov r11, r8
		stw r1, r0[0]
	}
	bu .LBB40_107
.Ltmp2081:
.LBB40_143:
	{
		ldc r0, 8
		nop
	}
	.loc	1 904 3
.Ltmp2082:
	{
		mov r9, r8
		stw r0, r1[0]
	}
	ldc r2, 4680
.Ltmp2083:
.LBB40_144:
	{
		mov r11, r8
		nop
	}
	bu .LBB40_145
.LBB40_155:
.Ltmp2084:
	{
		mov r8, r11
		ldw r1, r4[0]
	}
.Ltmp2085:
.LBB40_156:
	{
		ldc r0, 6
		nop
	}
	.loc	1 3429 5
.Ltmp2086:
	{
		mov r11, r8
		stw r0, r1[0]
	}
	bu .LBB40_107
.Ltmp2087:
.LBB40_141:
	{
		mov r11, r8
		nop
	}
	bu .LBB40_107
.Ltmp2088:
.LBB40_150:
	.loc	1 1164 4
	{
		mov r9, r5
		nop
	}
	bu .LBB40_144
.Ltmp2089:
.LBB40_163:
	{
		nop
		ldw r0, r4[0]
	}
.Ltmp2090:
.LBB40_120:
	{
		ldc r1, 6
		nop
	}
	{
		nop
		stw r1, r0[0]
	}
.Ltmp2091:
.LBB40_107:
	{
		mov r9, r11
		nop
	}
	ldc r2, 4680
.Ltmp2092:
.LBB40_145:
	{
		nop
		ldw r0, r4[1]
	}
	.loc	1 1166 3
	{
		add r0, r0, r2
		nop
	}
	{
		nop
		stw r11, r0[0]
	}
.Ltmp2093:
.LBB40_12:
	.loc	1 1169 1
	{
		mov r0, r9
		ldw r10, sp[30]
	}
	{
		nop
		ldw r8, sp[28]
	}
	{
		nop
		ldw r9, sp[29]
	}
	{
		nop
		ldw r6, sp[26]
	}
	{
		nop
		ldw r7, sp[27]
	}
	{
		nop
		ldw r4, sp[24]
	}
	{
		nop
		ldw r5, sp[25]
	}
	{
		nop
		retsp 32
	}
	# RETURN_REG_HOLDER
.Ltmp2094:
	.cc_bottom FLAC__stream_decoder_seek_absolute.function

	.globl	FLAC__stream_decoder_seek_absolute.maxcores

	.globl	FLAC__stream_decoder_seek_absolute.maxtimers

	.globl	FLAC__stream_decoder_seek_absolute.maxchanends
.Ltmp2095:
