	.text
	.file	"stream_encoder_framing.c"
	.text
	.globl	FLAC__add_metadata_block
	.align	4
	.type	FLAC__add_metadata_block,@function
	.cc_top FLAC__add_metadata_block.function,FLAC__add_metadata_block
FLAC__add_metadata_block:
.Lfunc_begin0:
	.file	4 "C:/Users/takaaki/git/sw_xSSDAC/module_libFLAC/source\\stream_encoder_framing.c"
	.loc	4 48 0
	.cfi_startproc
	.issue_mode dual
	{
		nop
		dualentsp 16
	}
.Ltmp0:
	.cfi_def_cfa_offset 64
.Ltmp1:
	.cfi_offset 15, 0
	std r5, r4, sp[4]
.Ltmp2:
	.cfi_offset 4, -32
.Ltmp3:
	.cfi_offset 5, -28
	std r7, r6, sp[5]
.Ltmp4:
	.cfi_offset 6, -24
.Ltmp5:
	.cfi_offset 7, -20
	std r9, r8, sp[6]
.Ltmp6:
	.cfi_offset 8, -16
.Ltmp7:
	.cfi_offset 9, -12
.Ltmp8:
	.cfi_offset 10, -8
.Ltmp9:
	{
		mov r4, r1
		stw r10, sp[14]
	}
.Ltmp10:
	{
		mov r7, r0
		nop
	}
.Ltmp11:
	.loc	4 50 50 prologue_end
	ldw r0, dp[FLAC__VENDOR_STRING]
	.loc	4 50 50
	bl strlen
.Ltmp12:
	{
		mov r8, r0
		mov r0, r4
	}
.Ltmp13:
	.loc	4 51 30
	bl FLAC__bitwriter_get_input_bits_unconsumed
.Ltmp14:
	{
		mov r5, r0
		mov r0, r4
	}
.Ltmp15:
	.loc	4 53 2
	bl FLAC__bitwriter_is_byte_aligned
	.loc	4 53 2
	bl assert
	{
		nop
		ldw r1, r7[1]
	}
	.loc	4 55 6
.Ltmp16:
	ldw r2, cp[FLAC__STREAM_METADATA_IS_LAST_LEN]
	.loc	4 55 6
	{
		mov r0, r4
		nop
	}
	bl FLAC__bitwriter_write_raw_uint32
	{
		ldc r10, 0
		nop
	}
	bf r0, .LBB0_114
.Ltmp17:
	{
		nop
		ldw r1, r7[0]
	}
	.loc	4 58 6
.Ltmp18:
	ldw r2, cp[FLAC__STREAM_METADATA_TYPE_LEN]
	.loc	4 58 6
	{
		mov r0, r4
		nop
	}
	bl FLAC__bitwriter_write_raw_uint32
	bf r0, .LBB0_114
.Ltmp19:
	{
		nop
		ldw r6, r7[2]
	}
.Ltmp20:
	{
		nop
		ldw r0, r7[0]
	}
	.loc	4 65 5
.Ltmp21:
	{
		eq r0, r0, 4
		nop
	}
	bf r0, .LBB0_7
.Ltmp22:
	{
		nop
		ldw r0, r7[4]
	}
	.loc	4 66 3
.Ltmp23:
	bf r0, .LBB0_4
.Ltmp24:
	{
		nop
		ldw r0, r7[5]
	}
	.loc	4 66 3
	{
		eq r0, r0, 0
		nop
	}
	{
		eq r0, r0, 0
		nop
	}
	bu .LBB0_6
.Ltmp25:
.LBB0_4:
	{
		mkmsk r0, 1
		nop
	}
.Ltmp26:
.LBB0_6:
	.loc	4 66 3
	bl assert
.Ltmp27:
	.loc	4 67 3
	{
		add r1, r6, r8
		ldw r0, r7[4]
	}
.Ltmp28:
	.loc	4 68 3
	{
		sub r6, r1, r0
		nop
	}
.Ltmp29:
.LBB0_7:
	.loc	4 70 2
	ldw r9, cp[FLAC__STREAM_METADATA_LENGTH_LEN]
	{
		mkmsk r0, 1
		nop
	}
	.loc	4 70 2
	{
		shl r0, r0, r9
		nop
	}
	.loc	4 72 5
.Ltmp30:
	{
		lsu r10, r6, r0
		nop
	}
.Ltmp31:
	.loc	4 70 2
	{
		mov r0, r10
		nop
	}
	bl assert
	.loc	4 72 5
.Ltmp32:
	bf r10, .LBB0_8
.Ltmp33:
	.loc	4 74 6
	{
		mov r0, r4
		mov r1, r6
	}
	{
		mov r2, r9
		nop
	}
	bl FLAC__bitwriter_write_raw_uint32
	.loc	4 74 6
	bf r0, .LBB0_10
.Ltmp34:
	.loc	4 77 2
	{
		ldc r1, 6
		ldw r0, r7[0]
	}
	.loc	4 77 2
	{
		lsu r1, r1, r0
		nop
	}
	bf r1, .LBB0_12
.Ltmp35:
	{
		nop
		ldw r1, r7[4]
	}
	.loc	4 218 8
.Ltmp36:
	{
		mov r0, r4
		ldw r2, r7[2]
	}
	.loc	4 218 8
	bl FLAC__bitwriter_write_byte_block
	bt r0, .LBB0_108
.Ltmp37:
	{
		ldc r10, 0
		nop
	}
	bu .LBB0_114
.LBB0_8:
	{
		ldc r10, 0
		nop
	}
	bu .LBB0_114
.LBB0_10:
	{
		ldc r10, 0
		nop
	}
	bu .LBB0_114
.LBB0_12:
.Ltmp38:

	.xtabranch .Ljumptable0+4,.Ljumptable0+8,.Ljumptable0+12,.Ljumptable0+16,.Ljumptable0+20,.Ljumptable0+24,.Ljumptable0+28
.Ljumptable0:
		
	{
		nop
		bru r0
	}
	.jmptable32 .LBB0_15,.LBB0_37,.LBB0_39,.LBB0_13,.LBB0_47,.LBB0_58,.LBB0_83
.Ltmp39:
.LBB0_15:
	{
		nop
		ldw r0, r7[4]
	}
	.loc	4 79 4
	ldw r8, cp[FLAC__STREAM_METADATA_STREAMINFO_MIN_BLOCK_SIZE_LEN]
	{
		mkmsk r9, 1
		nop
	}
	.loc	4 79 4
	{
		shl r1, r9, r8
		nop
	}
	.loc	4 79 4
	{
		lsu r0, r0, r1
		nop
	}
	.loc	4 79 4
	bl assert
	.loc	4 80 8
.Ltmp40:
	{
		mov r0, r4
		ldw r1, r7[4]
	}
	.loc	4 80 8
	{
		mov r2, r8
		nop
	}
	bl FLAC__bitwriter_write_raw_uint32
	.loc	4 80 8
	bf r0, .LBB0_16
.Ltmp41:
	{
		nop
		ldw r0, r7[5]
	}
	.loc	4 82 4
	ldw r8, cp[FLAC__STREAM_METADATA_STREAMINFO_MAX_BLOCK_SIZE_LEN]
	.loc	4 82 4
	{
		shl r1, r9, r8
		nop
	}
	.loc	4 82 4
	{
		lsu r0, r0, r1
		nop
	}
	.loc	4 82 4
	bl assert
	.loc	4 83 8
.Ltmp42:
	{
		mov r0, r4
		ldw r1, r7[5]
	}
	.loc	4 83 8
	{
		mov r2, r8
		nop
	}
	bl FLAC__bitwriter_write_raw_uint32
	.loc	4 83 8
	bf r0, .LBB0_18
.Ltmp43:
	{
		nop
		ldw r0, r7[6]
	}
	.loc	4 85 4
	ldw r8, cp[FLAC__STREAM_METADATA_STREAMINFO_MIN_FRAME_SIZE_LEN]
	.loc	4 85 4
	{
		shl r1, r9, r8
		nop
	}
	.loc	4 85 4
	{
		lsu r0, r0, r1
		nop
	}
	.loc	4 85 4
	bl assert
	.loc	4 86 8
.Ltmp44:
	{
		mov r0, r4
		ldw r1, r7[6]
	}
	.loc	4 86 8
	{
		mov r2, r8
		nop
	}
	bl FLAC__bitwriter_write_raw_uint32
	.loc	4 86 8
	bf r0, .LBB0_20
.Ltmp45:
	{
		nop
		ldw r0, r7[7]
	}
	.loc	4 88 4
	ldw r8, cp[FLAC__STREAM_METADATA_STREAMINFO_MAX_FRAME_SIZE_LEN]
	.loc	4 88 4
	{
		shl r1, r9, r8
		nop
	}
	.loc	4 88 4
	{
		lsu r0, r0, r1
		nop
	}
	.loc	4 88 4
	bl assert
	.loc	4 89 8
.Ltmp46:
	{
		mov r0, r4
		ldw r1, r7[7]
	}
	.loc	4 89 8
	{
		mov r2, r8
		nop
	}
	bl FLAC__bitwriter_write_raw_uint32
	.loc	4 89 8
	bf r0, .LBB0_22
.Ltmp47:
	{
		nop
		ldw r0, r7[8]
	}
	.loc	4 91 4
	bl FLAC__format_sample_rate_is_valid
	.loc	4 91 4
	bl assert
	{
		nop
		ldw r1, r7[8]
	}
	.loc	4 92 8
.Ltmp48:
	ldw r2, cp[FLAC__STREAM_METADATA_STREAMINFO_SAMPLE_RATE_LEN]
	.loc	4 92 8
	{
		mov r0, r4
		nop
	}
	bl FLAC__bitwriter_write_raw_uint32
	.loc	4 92 8
	bf r0, .LBB0_24
.Ltmp49:
	{
		nop
		ldw r0, r7[9]
	}
	.loc	4 94 4
	{
		eq r0, r0, 0
		nop
	}
	{
		eq r0, r0, 0
		nop
	}
	.loc	4 94 4
	bl assert
	{
		nop
		ldw r0, r7[9]
	}
	.loc	4 95 4
	ldw r8, cp[FLAC__STREAM_METADATA_STREAMINFO_CHANNELS_LEN]
	.loc	4 95 4
	{
		shl r1, r9, r8
		nop
	}
	.loc	4 95 4
	{
		lsu r0, r1, r0
		nop
	}
	{
		eq r0, r0, 0
		nop
	}
	.loc	4 95 4
	bl assert
	{
		nop
		ldw r0, r7[9]
	}
	.loc	4 96 8
.Ltmp50:
	{
		sub r1, r0, 1
		mov r0, r4
	}
	.loc	4 96 8
	{
		mov r2, r8
		nop
	}
	bl FLAC__bitwriter_write_raw_uint32
	.loc	4 96 8
	bf r0, .LBB0_26
.Ltmp51:
	{
		nop
		ldw r0, r7[10]
	}
	.loc	4 98 4
	{
		eq r0, r0, 0
		nop
	}
	{
		eq r0, r0, 0
		nop
	}
	.loc	4 98 4
	bl assert
	{
		nop
		ldw r0, r7[10]
	}
	.loc	4 99 4
	ldw r8, cp[FLAC__STREAM_METADATA_STREAMINFO_BITS_PER_SAMPLE_LEN]
	.loc	4 99 4
	{
		shl r1, r9, r8
		nop
	}
	.loc	4 99 4
	{
		lsu r0, r1, r0
		nop
	}
	{
		eq r0, r0, 0
		nop
	}
	.loc	4 99 4
	bl assert
	{
		nop
		ldw r0, r7[10]
	}
	.loc	4 100 8
.Ltmp52:
	{
		sub r1, r0, 1
		mov r0, r4
	}
	.loc	4 100 8
	{
		mov r2, r8
		nop
	}
	bl FLAC__bitwriter_write_raw_uint32
	.loc	4 100 8
	bf r0, .LBB0_28
.Ltmp53:
	{
		ldc r0, 48
		nop
	}
	.loc	4 102 7
.Ltmp54:
	{
		add r0, r7, r0
		nop
	}
	.loc	4 102 7
	ldd r8, r9, r0[0]
	.loc	4 102 7
	ldw r2, cp[FLAC__STREAM_METADATA_STREAMINFO_TOTAL_SAMPLES_LEN]
	{
		mkmsk r0, 1
		ldc r10, 0
	}
	.loc	4 102 7
	{
		mov r1, r10
		nop
	}
	bl __ashldi3
	.loc	4 102 7
	{
		eq r2, r8, r1
		nop
	}
	bt r2, .LBB0_30
.Ltmp55:
	{
		lsu r0, r8, r1
		nop
	}
	bu .LBB0_32
.Ltmp56:
.LBB0_37:
	{
		nop
		ldw r0, r7[2]
	}
	.loc	4 113 8
.Ltmp57:
	{
		shl r1, r0, 3
		mov r0, r4
	}
	.loc	4 113 8
	bl FLAC__bitwriter_write_zeroes
	bt r0, .LBB0_108
.Ltmp58:
	{
		ldc r10, 0
		nop
	}
	bu .LBB0_114
.LBB0_39:
.Ltmp59:
	.loc	4 117 8
	ldaw r1, r7[4]
	.loc	4 117 8
	ldw r0, cp[FLAC__STREAM_METADATA_APPLICATION_ID_LEN]
	.loc	4 117 8
	{
		shr r8, r0, 3
		mov r0, r4
	}
	.loc	4 117 8
	{
		mov r2, r8
		nop
	}
	bl FLAC__bitwriter_write_byte_block
	.loc	4 117 8
	bf r0, .LBB0_40
.Ltmp60:
	{
		nop
		ldw r1, r7[5]
	}
	{
		nop
		ldw r0, r7[2]
	}
	.loc	4 119 8
.Ltmp61:
	{
		sub r2, r0, r8
		mov r0, r4
	}
	.loc	4 119 8
	bl FLAC__bitwriter_write_byte_block
	bt r0, .LBB0_108
.Ltmp62:
	{
		ldc r10, 0
		nop
	}
	bu .LBB0_114
.LBB0_13:
.Ltmp63:
	{
		nop
		ldw r0, r7[4]
	}
	bf r0, .LBB0_108
.Ltmp64:
	{
		ldc r10, 0
		nop
	}
	{
		mov r8, r10
		mov r9, r10
	}
.Ltmp65:
.LBB0_44:
	{
		nop
		ldw r0, r7[5]
	}
	{
		add r0, r0, r8
		nop
	}
	.loc	4 124 9
.Ltmp66:
	ldd r2, r1, r0[0]
	.loc	4 124 9
	{
		mov r0, r4
		nop
	}
	.loc	4 124 9
	ldw r3, cp[FLAC__STREAM_METADATA_SEEKPOINT_SAMPLE_NUMBER_LEN]
	.loc	4 124 9
	bl FLAC__bitwriter_write_raw_uint64
	bf r0, .LBB0_114
.Ltmp67:
	{
		nop
		ldw r0, r7[5]
	}
	{
		add r0, r0, r8
		nop
	}
	{
		add r0, r0, 8
		nop
	}
	.loc	4 126 9
.Ltmp68:
	ldd r2, r1, r0[0]
	.loc	4 126 9
	{
		mov r0, r4
		nop
	}
	.loc	4 126 9
	ldw r3, cp[FLAC__STREAM_METADATA_SEEKPOINT_STREAM_OFFSET_LEN]
	.loc	4 126 9
	bl FLAC__bitwriter_write_raw_uint64
	bf r0, .LBB0_114
.Ltmp69:
	{
		nop
		ldw r0, r7[5]
	}
	{
		add r0, r0, r8
		nop
	}
	.loc	4 128 9
.Ltmp70:
	{
		mov r0, r4
		ldw r1, r0[4]
	}
	.loc	4 128 9
	ldw r2, cp[FLAC__STREAM_METADATA_SEEKPOINT_FRAME_SAMPLES_LEN]
	.loc	4 128 9
	bl FLAC__bitwriter_write_raw_uint32
	bf r0, .LBB0_114
.Ltmp71:
	.loc	4 123 57
	{
		add r9, r9, 1
		ldw r0, r7[4]
	}
.Ltmp72:
	.loc	4 123 4
	ldaw r8, r8[6]
	.loc	4 123 4
	{
		lsu r0, r9, r0
		nop
	}
	bt r0, .LBB0_44
	bu .LBB0_108
.Ltmp73:
.LBB0_47:
	.loc	4 133 8
	{
		mov r0, r4
		mov r1, r8
	}
	bl FLAC__bitwriter_write_raw_uint32_little_endian
	.loc	4 133 8
	bf r0, .LBB0_48
.Ltmp74:
	.loc	4 135 8
	ldw r1, dp[FLAC__VENDOR_STRING]
	.loc	4 135 8
	{
		mov r0, r4
		mov r2, r8
	}
	bl FLAC__bitwriter_write_byte_block
	.loc	4 135 8
	bf r0, .LBB0_50
.Ltmp75:
	.loc	4 137 8
	{
		mov r0, r4
		ldw r1, r7[6]
	}
	.loc	4 137 8
	bl FLAC__bitwriter_write_raw_uint32_little_endian
	.loc	4 137 8
	bf r0, .LBB0_52
.Ltmp76:
	{
		nop
		ldw r0, r7[6]
	}
	bf r0, .LBB0_108
.Ltmp77:
	{
		ldc r10, 0
		nop
	}
	{
		mov r8, r10
		mov r9, r10
	}
.Ltmp78:
.LBB0_56:
	{
		nop
		ldw r0, r7[7]
	}
	{
		add r0, r0, r8
		nop
	}
	.loc	4 140 9
.Ltmp79:
	{
		mov r0, r4
		ldw r1, r0[0]
	}
	.loc	4 140 9
	bl FLAC__bitwriter_write_raw_uint32_little_endian
	bf r0, .LBB0_114
.Ltmp80:
	{
		nop
		ldw r0, r7[7]
	}
	{
		add r0, r0, r8
		nop
	}
	{
		nop
		ldw r1, r0[1]
	}
	.loc	4 142 9
.Ltmp81:
	{
		mov r0, r4
		ldw r2, r0[0]
	}
	.loc	4 142 9
	bl FLAC__bitwriter_write_byte_block
	bf r0, .LBB0_114
.Ltmp82:
	.loc	4 139 63
	{
		add r9, r9, 1
		ldw r0, r7[6]
	}
.Ltmp83:
	.loc	4 139 4
	{
		add r8, r8, 8
		lsu r0, r9, r0
	}
	bt r0, .LBB0_56
	bu .LBB0_108
.Ltmp84:
.LBB0_58:
	.loc	4 147 4
	ldw r8, cp[FLAC__STREAM_METADATA_CUESHEET_MEDIA_CATALOG_NUMBER_LEN]
	.loc	4 147 4
	{
		mov r0, r8
		nop
	}
	{
		zext r0, 3
		nop
	}
	.loc	4 147 4
	{
		eq r0, r0, 0
		nop
	}
	.loc	4 147 4
	bl assert
	.loc	4 148 8
.Ltmp85:
	ldaw r1, r7[4]
	.loc	4 148 8
	{
		shr r2, r8, 3
		mov r0, r4
	}
	.loc	4 148 8
	bl FLAC__bitwriter_write_byte_block
	.loc	4 148 8
	bf r0, .LBB0_59
.Ltmp86:
	ldc r0, 152
	.loc	4 150 8
.Ltmp87:
	{
		add r0, r7, r0
		nop
	}
	.loc	4 150 8
	ldd r2, r1, r0[0]
	.loc	4 150 8
	ldw r3, cp[FLAC__STREAM_METADATA_CUESHEET_LEAD_IN_LEN]
	.loc	4 150 8
	{
		mov r0, r4
		nop
	}
	bl FLAC__bitwriter_write_raw_uint64
	.loc	4 150 8
	bf r0, .LBB0_61
.Ltmp88:
	ldc r0, 160
	.loc	4 152 8
.Ltmp89:
	{
		add r0, r7, r0
		nop
	}
	{
		nop
		ldw r0, r0[0]
	}
	.loc	4 152 8
	{
		eq r0, r0, 0
		nop
	}
	{
		eq r1, r0, 0
		nop
	}
	.loc	4 152 8
	ldw r2, cp[FLAC__STREAM_METADATA_CUESHEET_IS_CD_LEN]
	.loc	4 152 8
	{
		mov r0, r4
		nop
	}
	bl FLAC__bitwriter_write_raw_uint32
	.loc	4 152 8
	bf r0, .LBB0_63
.Ltmp90:
	.loc	4 154 8
	ldw r1, cp[FLAC__STREAM_METADATA_CUESHEET_RESERVED_LEN]
	.loc	4 154 8
	{
		mov r0, r4
		nop
	}
	bl FLAC__bitwriter_write_zeroes
	.loc	4 154 8
	bf r0, .LBB0_65
.Ltmp91:
	ldc r0, 164
	.loc	4 156 8
.Ltmp92:
	{
		add r8, r7, r0
		nop
	}
	{
		nop
		ldw r1, r8[0]
	}
	.loc	4 156 8
	ldw r2, cp[FLAC__STREAM_METADATA_CUESHEET_NUM_TRACKS_LEN]
	.loc	4 156 8
	{
		mov r0, r4
		nop
	}
	bl FLAC__bitwriter_write_raw_uint32
	.loc	4 156 8
	bf r0, .LBB0_67
.Ltmp93:
	{
		nop
		ldw r0, r8[0]
	}
	bf r0, .LBB0_108
.Ltmp94:
	ldc r0, 168
	.loc	4 159 5
.Ltmp95:
	{
		add r1, r7, r0
		nop
	}
	{
		nop
		stw r1, sp[1]
	}
	.loc	4 161 9
.Ltmp96:
	ldw r3, cp[FLAC__STREAM_METADATA_CUESHEET_TRACK_OFFSET_LEN]
.Ltmp97:
	.loc	4 163 9
	ldw r9, cp[FLAC__STREAM_METADATA_CUESHEET_TRACK_NUMBER_LEN]
.Ltmp98:
	.loc	4 165 5
	ldw r0, cp[FLAC__STREAM_METADATA_CUESHEET_TRACK_ISRC_LEN]
	.loc	4 166 9
.Ltmp99:
	{
		shr r2, r0, 3
		nop
	}
.Ltmp100:
	.loc	4 165 5
	{
		zext r0, 3
		stw r2, sp[5]
	}
	.loc	4 165 5
	{
		eq r0, r0, 0
		nop
	}
	.loc	4 168 9
.Ltmp101:
	{
		ldc r10, 0
		stw r0, sp[4]
	}
	{
		mov r2, r10
		nop
	}
.Ltmp102:
.LBB0_70:
	{
		nop
		stw r2, sp[3]
	}
	.loc	4 159 5
	{
		shl r1, r2, 5
		ldw r0, r1[0]
	}
	.loc	4 161 9
.Ltmp103:
	{
		add r7, r0, r1
		nop
	}
	.loc	4 161 9
	ldd r2, r1, r7[0]
	.loc	4 161 9
	{
		mov r0, r4
		nop
	}
	bl FLAC__bitwriter_write_raw_uint64
	bf r0, .LBB0_114
.Ltmp104:
	{
		ldc r0, 8
		nop
	}
	.loc	4 163 9
.Ltmp105:
	{
		mov r0, r4
		ld8u r1, r7[r0]
	}
	.loc	4 163 9
	{
		mov r2, r9
		nop
	}
	bl FLAC__bitwriter_write_raw_uint32
	bf r0, .LBB0_114
.Ltmp106:
	{
		nop
		ldw r0, sp[4]
	}
	.loc	4 165 5
	bl assert
	.loc	4 166 9
.Ltmp107:
	{
		add r1, r7, 9
		mov r0, r4
	}
	{
		nop
		ldw r2, sp[5]
	}
	.loc	4 166 9
	bl FLAC__bitwriter_write_byte_block
	{
		ldc r9, 22
		nop
	}
	bf r0, .LBB0_114
.Ltmp108:
	{
		nop
		ld8u r1, r7[r9]
	}
	.loc	4 168 9
.Ltmp109:
	{
		zext r1, 1
		mov r0, r4
	}
	.loc	4 168 9
	ldw r2, cp[FLAC__STREAM_METADATA_CUESHEET_TRACK_TYPE_LEN]
	.loc	4 168 9
	bl FLAC__bitwriter_write_raw_uint32
	bf r0, .LBB0_114
.Ltmp110:
	.loc	4 168 9
	{
		add r0, r7, r9
		nop
	}
	{
		nop
		ld8u r0, r0[r10]
	}
.Ltmp111:
	.loc	4 170 9
	{
		shr r1, r0, 1
		nop
	}
	.loc	4 170 9
	{
		zext r1, 1
		mov r0, r4
	}
	.loc	4 170 9
	ldw r2, cp[FLAC__STREAM_METADATA_CUESHEET_TRACK_PRE_EMPHASIS_LEN]
	.loc	4 170 9
	bl FLAC__bitwriter_write_raw_uint32
	bf r0, .LBB0_114
.Ltmp112:
	{
		mov r0, r4
		stw r8, sp[2]
	}
	.loc	4 172 9
.Ltmp113:
	ldw r1, cp[FLAC__STREAM_METADATA_CUESHEET_TRACK_RESERVED_LEN]
	.loc	4 172 9
	bl FLAC__bitwriter_write_zeroes
	bf r0, .LBB0_114
.Ltmp114:
	{
		ldc r8, 23
		nop
	}
	.loc	4 174 9
.Ltmp115:
	{
		mov r0, r4
		ld8u r1, r7[r8]
	}
	.loc	4 174 9
	ldw r2, cp[FLAC__STREAM_METADATA_CUESHEET_TRACK_NUM_INDICES_LEN]
	.loc	4 174 9
	bl FLAC__bitwriter_write_raw_uint32
	bf r0, .LBB0_114
.Ltmp116:
	.loc	4 174 9
	{
		add r0, r7, r8
		nop
	}
	{
		nop
		stw r0, sp[6]
	}
	{
		nop
		ld8u r0, r0[r10]
	}
	bf r0, .LBB0_107
.Ltmp117:
	.loc	4 177 6
	ldaw r0, r7[6]
	{
		ldc r8, 8
		stw r0, sp[7]
	}
	{
		mov r7, r10
		nop
	}
.Ltmp118:
.LBB0_80:
	{
		nop
		ldw r0, sp[7]
	}
	{
		nop
		ldw r9, r0[0]
	}
	{
		add r0, r9, r8
		nop
	}
	{
		sub r0, r0, 8
		nop
	}
	.loc	4 179 10
.Ltmp119:
	ldd r2, r1, r0[0]
	.loc	4 179 10
	{
		mov r0, r4
		nop
	}
	.loc	4 179 10
	ldw r3, cp[FLAC__STREAM_METADATA_CUESHEET_INDEX_OFFSET_LEN]
	.loc	4 179 10
	bl FLAC__bitwriter_write_raw_uint64
	bf r0, .LBB0_114
.Ltmp120:
	.loc	4 181 10
	{
		mov r0, r4
		ld8u r1, r9[r8]
	}
	.loc	4 181 10
	ldw r2, cp[FLAC__STREAM_METADATA_CUESHEET_INDEX_NUMBER_LEN]
	.loc	4 181 10
	bl FLAC__bitwriter_write_raw_uint32
	bf r0, .LBB0_114
.Ltmp121:
	.loc	4 183 10
	{
		mov r0, r4
		nop
	}
	.loc	4 183 10
	ldw r1, cp[FLAC__STREAM_METADATA_CUESHEET_INDEX_RESERVED_LEN]
	.loc	4 183 10
	bl FLAC__bitwriter_write_zeroes
	bf r0, .LBB0_114
.Ltmp122:
	.loc	4 176 40
	{
		add r7, r7, 1
		ldw r0, sp[6]
	}
.Ltmp123:
	{
		nop
		ld8u r0, r0[r10]
	}
	.loc	4 176 5
	ldaw r8, r8[4]
	.loc	4 176 5
	{
		lsu r0, r7, r0
		nop
	}
	bt r0, .LBB0_80
.Ltmp124:
.LBB0_107:
	{
		nop
		ldw r2, sp[3]
	}
.Ltmp125:
	.loc	4 158 56
	{
		add r2, r2, 1
		ldw r8, sp[2]
	}
.Ltmp126:
	{
		nop
		ldw r0, r8[0]
	}
	.loc	4 158 4
	{
		lsu r0, r2, r0
		ldw r1, sp[1]
	}
	.loc	4 161 9
.Ltmp127:
	ldw r3, cp[FLAC__STREAM_METADATA_CUESHEET_TRACK_OFFSET_LEN]
.Ltmp128:
	.loc	4 163 9
	ldw r9, cp[FLAC__STREAM_METADATA_CUESHEET_TRACK_NUMBER_LEN]
	bt r0, .LBB0_70
	bu .LBB0_108
.Ltmp129:
.LBB0_83:
	{
		nop
		ldw r1, r7[4]
	}
	.loc	4 191 9
.Ltmp130:
	ldw r2, cp[FLAC__STREAM_METADATA_PICTURE_TYPE_LEN]
	.loc	4 191 9
	{
		mov r0, r4
		nop
	}
	bl FLAC__bitwriter_write_raw_uint32
	.loc	4 191 9
	bf r0, .LBB0_84
.Ltmp131:
	{
		nop
		ldw r0, r7[5]
	}
	.loc	4 193 11
	bl strlen
	{
		mov r8, r0
		nop
	}
.Ltmp132:
	.loc	4 194 9
	ldw r2, cp[FLAC__STREAM_METADATA_PICTURE_MIME_TYPE_LENGTH_LEN]
	.loc	4 194 9
	{
		mov r0, r4
		mov r1, r8
	}
	bl FLAC__bitwriter_write_raw_uint32
	.loc	4 194 9
	bf r0, .LBB0_86
.Ltmp133:
	.loc	4 196 9
	{
		mov r0, r4
		ldw r1, r7[5]
	}
	.loc	4 196 9
	{
		mov r2, r8
		nop
	}
	bl FLAC__bitwriter_write_byte_block
	.loc	4 196 9
	bf r0, .LBB0_88
.Ltmp134:
	{
		nop
		ldw r0, r7[6]
	}
	.loc	4 198 11
	bl strlen
	{
		mov r8, r0
		nop
	}
.Ltmp135:
	.loc	4 199 9
	ldw r2, cp[FLAC__STREAM_METADATA_PICTURE_DESCRIPTION_LENGTH_LEN]
	.loc	4 199 9
	{
		mov r0, r4
		mov r1, r8
	}
	bl FLAC__bitwriter_write_raw_uint32
	.loc	4 199 9
	bf r0, .LBB0_90
.Ltmp136:
	.loc	4 201 9
	{
		mov r0, r4
		ldw r1, r7[6]
	}
	.loc	4 201 9
	{
		mov r2, r8
		nop
	}
	bl FLAC__bitwriter_write_byte_block
	.loc	4 201 9
	bf r0, .LBB0_92
.Ltmp137:
	{
		nop
		ldw r1, r7[7]
	}
	.loc	4 203 9
.Ltmp138:
	ldw r2, cp[FLAC__STREAM_METADATA_PICTURE_WIDTH_LEN]
	.loc	4 203 9
	{
		mov r0, r4
		nop
	}
	bl FLAC__bitwriter_write_raw_uint32
	.loc	4 203 9
	bf r0, .LBB0_94
.Ltmp139:
	{
		nop
		ldw r1, r7[8]
	}
	.loc	4 205 9
.Ltmp140:
	ldw r2, cp[FLAC__STREAM_METADATA_PICTURE_HEIGHT_LEN]
	.loc	4 205 9
	{
		mov r0, r4
		nop
	}
	bl FLAC__bitwriter_write_raw_uint32
	.loc	4 205 9
	bf r0, .LBB0_96
.Ltmp141:
	{
		nop
		ldw r1, r7[9]
	}
	.loc	4 207 9
.Ltmp142:
	ldw r2, cp[FLAC__STREAM_METADATA_PICTURE_DEPTH_LEN]
	.loc	4 207 9
	{
		mov r0, r4
		nop
	}
	bl FLAC__bitwriter_write_raw_uint32
	.loc	4 207 9
	bf r0, .LBB0_98
.Ltmp143:
	{
		nop
		ldw r1, r7[10]
	}
	.loc	4 209 9
.Ltmp144:
	ldw r2, cp[FLAC__STREAM_METADATA_PICTURE_COLORS_LEN]
	.loc	4 209 9
	{
		mov r0, r4
		nop
	}
	bl FLAC__bitwriter_write_raw_uint32
	.loc	4 209 9
	bf r0, .LBB0_100
.Ltmp145:
	{
		nop
		ldw r1, r7[11]
	}
	.loc	4 211 9
.Ltmp146:
	ldw r2, cp[FLAC__STREAM_METADATA_PICTURE_DATA_LENGTH_LEN]
	.loc	4 211 9
	{
		mov r0, r4
		nop
	}
	bl FLAC__bitwriter_write_raw_uint32
	.loc	4 211 9
	bf r0, .LBB0_102
.Ltmp147:
	{
		ldc r0, 48
		nop
	}
	.loc	4 213 9
.Ltmp148:
	{
		add r0, r7, r0
		nop
	}
	{
		nop
		ldw r1, r0[0]
	}
	.loc	4 213 9
	{
		mov r0, r4
		ldw r2, r7[11]
	}
	.loc	4 213 9
	bl FLAC__bitwriter_write_byte_block
	bt r0, .LBB0_108
.Ltmp149:
	{
		ldc r10, 0
		nop
	}
	bu .LBB0_114
.LBB0_16:
	{
		ldc r10, 0
		nop
	}
	bu .LBB0_114
.LBB0_40:
	{
		ldc r10, 0
		nop
	}
	bu .LBB0_114
.LBB0_48:
	{
		ldc r10, 0
		nop
	}
	bu .LBB0_114
.LBB0_59:
	{
		ldc r10, 0
		nop
	}
	bu .LBB0_114
.LBB0_84:
	{
		ldc r10, 0
		nop
	}
	bu .LBB0_114
.LBB0_18:
	{
		ldc r10, 0
		nop
	}
	bu .LBB0_114
.LBB0_50:
	{
		ldc r10, 0
		nop
	}
	bu .LBB0_114
.LBB0_61:
	{
		ldc r10, 0
		nop
	}
	bu .LBB0_114
.LBB0_86:
	{
		ldc r10, 0
		nop
	}
	bu .LBB0_114
.LBB0_20:
	{
		ldc r10, 0
		nop
	}
	bu .LBB0_114
.LBB0_52:
	{
		ldc r10, 0
		nop
	}
	bu .LBB0_114
.LBB0_63:
	{
		ldc r10, 0
		nop
	}
	bu .LBB0_114
.LBB0_88:
	{
		ldc r10, 0
		nop
	}
	bu .LBB0_114
.LBB0_22:
	{
		ldc r10, 0
		nop
	}
	bu .LBB0_114
.LBB0_65:
	{
		ldc r10, 0
		nop
	}
	bu .LBB0_114
.LBB0_90:
	{
		ldc r10, 0
		nop
	}
	bu .LBB0_114
.LBB0_24:
	{
		ldc r10, 0
		nop
	}
	bu .LBB0_114
.LBB0_67:
	{
		ldc r10, 0
		nop
	}
	bu .LBB0_114
.LBB0_92:
	{
		ldc r10, 0
		nop
	}
	bu .LBB0_114
.LBB0_26:
	{
		ldc r10, 0
		nop
	}
	bu .LBB0_114
.LBB0_94:
	{
		ldc r10, 0
		nop
	}
	bu .LBB0_114
.LBB0_28:
	{
		ldc r10, 0
		nop
	}
	bu .LBB0_114
.LBB0_96:
	{
		ldc r10, 0
		nop
	}
	bu .LBB0_114
.LBB0_30:
.Ltmp150:
	.loc	4 102 7
	{
		lsu r0, r9, r0
		nop
	}
.Ltmp151:
.LBB0_32:
	{
		mov r1, r9
		nop
	}
.Ltmp152:
	.loc	4 102 7
	bf r0, .LBB0_33
.Ltmp153:
	.loc	4 106 9
	{
		mov r0, r4
		mov r2, r8
	}
	bu .LBB0_35
.Ltmp154:
.LBB0_33:
	.loc	4 103 9
	{
		mov r0, r4
		mov r1, r10
	}
	{
		mov r2, r10
		nop
	}
.Ltmp155:
.LBB0_35:
	.loc	4 102 7
	ldw r3, cp[FLAC__STREAM_METADATA_STREAMINFO_TOTAL_SAMPLES_LEN]
	.loc	4 106 9
.Ltmp156:
	bl FLAC__bitwriter_write_raw_uint64
	bf r0, .LBB0_114
.Ltmp157:
	{
		ldc r0, 56
		nop
	}
	.loc	4 109 8
.Ltmp158:
	{
		add r1, r7, r0
		ldc r2, 16
	}
	.loc	4 109 8
	{
		mov r0, r4
		nop
	}
	bl FLAC__bitwriter_write_byte_block
	bf r0, .LBB0_114
.Ltmp159:
.LBB0_108:
	.loc	4 225 29
	{
		mov r0, r4
		nop
	}
	bl FLAC__bitwriter_get_input_bits_unconsumed
.Ltmp160:
	.loc	4 226 6
	{
		lsu r1, r0, r5
		nop
	}
	.loc	4 226 6
	bf r1, .LBB0_110
.Ltmp161:
	{
		ldc r10, 0
		nop
	}
	bu .LBB0_114
.LBB0_110:
.Ltmp162:
	.loc	4 228 3
	{
		sub r0, r0, r5
		nop
	}
.Ltmp163:
	.loc	4 229 6
	{
		mov r1, r0
		nop
	}
	{
		zext r1, 3
		nop
	}
	.loc	4 229 6
	bf r1, .LBB0_112
.Ltmp164:
	{
		ldc r10, 0
		nop
	}
	bu .LBB0_114
.LBB0_112:
.Ltmp165:
	.loc	4 229 6
	{
		shl r1, r6, 3
		nop
	}
	.loc	4 229 6
	ldaw r1, r1[8]
	.loc	4 229 6
	{
		eq r0, r0, r1
		ldc r10, 0
	}
.Ltmp166:
	bf r0, .LBB0_114
.Ltmp167:
	.loc	4 233 2
	{
		mov r0, r4
		nop
	}
	bl FLAC__bitwriter_is_byte_aligned
	.loc	4 233 2
	bl assert
	{
		mkmsk r10, 1
		nop
	}
.Ltmp168:
.LBB0_114:
	.loc	4 235 1
	{
		mov r0, r10
		ldw r10, sp[14]
	}
	ldd r9, r8, sp[6]
	ldd r7, r6, sp[5]
	ldd r5, r4, sp[4]
	{
		nop
		retsp 16
	}
	# RETURN_REG_HOLDER
.Ltmp169:
.LBB0_98:
	{
		ldc r10, 0
		nop
	}
	bu .LBB0_114
.LBB0_100:
	{
		ldc r10, 0
		nop
	}
	bu .LBB0_114
.LBB0_102:
	{
		ldc r10, 0
		nop
	}
	bu .LBB0_114
	.cc_bottom FLAC__add_metadata_block.function
	.set	FLAC__add_metadata_block.nstackwords,((FLAC__bitwriter_get_input_bits_unconsumed.nstackwords $M FLAC__bitwriter_is_byte_aligned.nstackwords $M FLAC__format_sample_rate_is_valid.nstackwords $M __ashldi3.nstackwords $M FLAC__bitwriter_write_raw_uint32_little_endian.nstackwords $M assert.nstackwords $M FLAC__bitwriter_write_raw_uint64.nstackwords $M FLAC__bitwriter_write_zeroes.nstackwords $M strlen.nstackwords $M FLAC__bitwriter_write_raw_uint32.nstackwords $M FLAC__bitwriter_write_byte_block.nstackwords) + 16)
	.globl	FLAC__add_metadata_block.nstackwords
	.set	FLAC__add_metadata_block.maxcores,FLAC__bitwriter_get_input_bits_unconsumed.maxcores $M FLAC__bitwriter_is_byte_aligned.maxcores $M FLAC__bitwriter_write_byte_block.maxcores $M FLAC__bitwriter_write_raw_uint32.maxcores $M FLAC__bitwriter_write_raw_uint32_little_endian.maxcores $M FLAC__bitwriter_write_raw_uint64.maxcores $M FLAC__bitwriter_write_zeroes.maxcores $M FLAC__format_sample_rate_is_valid.maxcores $M strlen.maxcores $M 1
	.globl	FLAC__add_metadata_block.maxcores
	.set	FLAC__add_metadata_block.maxtimers,FLAC__bitwriter_get_input_bits_unconsumed.maxtimers $M FLAC__bitwriter_is_byte_aligned.maxtimers $M FLAC__bitwriter_write_byte_block.maxtimers $M FLAC__bitwriter_write_raw_uint32.maxtimers $M FLAC__bitwriter_write_raw_uint32_little_endian.maxtimers $M FLAC__bitwriter_write_raw_uint64.maxtimers $M FLAC__bitwriter_write_zeroes.maxtimers $M FLAC__format_sample_rate_is_valid.maxtimers $M strlen.maxtimers $M 0
	.globl	FLAC__add_metadata_block.maxtimers
	.set	FLAC__add_metadata_block.maxchanends,FLAC__bitwriter_get_input_bits_unconsumed.maxchanends $M FLAC__bitwriter_is_byte_aligned.maxchanends $M FLAC__bitwriter_write_byte_block.maxchanends $M FLAC__bitwriter_write_raw_uint32.maxchanends $M FLAC__bitwriter_write_raw_uint32_little_endian.maxchanends $M FLAC__bitwriter_write_raw_uint64.maxchanends $M FLAC__bitwriter_write_zeroes.maxchanends $M FLAC__format_sample_rate_is_valid.maxchanends $M strlen.maxchanends $M 0
	.globl	FLAC__add_metadata_block.maxchanends
.Ltmp170:
	.size	FLAC__add_metadata_block, .Ltmp170-FLAC__add_metadata_block
.Lfunc_end0:
	.cfi_endproc

	.section	.cp.rodata.cst4,"aMc",@progbits,4
	.cc_top .LCPI1_0.data,.LCPI1_0
	.align	4
	.type	.LCPI1_0,@object
	.size	.LCPI1_0, 4
.LCPI1_0:
	.long	191999
	.cc_bottom .LCPI1_0.data
	.cc_top .LCPI1_1.data,.LCPI1_1
	.align	4
	.type	.LCPI1_1,@object
	.size	.LCPI1_1, 4
.LCPI1_1:
	.long	192000
	.cc_bottom .LCPI1_1.data
	.cc_top .LCPI1_2.data,.LCPI1_2
	.align	4
	.type	.LCPI1_2,@object
	.size	.LCPI1_2, 4
.LCPI1_2:
	.long	176399
	.cc_bottom .LCPI1_2.data
	.cc_top .LCPI1_3.data,.LCPI1_3
	.align	4
	.type	.LCPI1_3,@object
	.size	.LCPI1_3, 4
.LCPI1_3:
	.long	176400
	.cc_bottom .LCPI1_3.data
	.cc_top .LCPI1_4.data,.LCPI1_4
	.align	4
	.type	.LCPI1_4,@object
	.size	.LCPI1_4, 4
.LCPI1_4:
	.long	95999
	.cc_bottom .LCPI1_4.data
	.cc_top .LCPI1_5.data,.LCPI1_5
	.align	4
	.type	.LCPI1_5,@object
	.size	.LCPI1_5, 4
.LCPI1_5:
	.long	96000
	.cc_bottom .LCPI1_5.data
	.cc_top .LCPI1_6.data,.LCPI1_6
	.align	4
	.type	.LCPI1_6,@object
	.size	.LCPI1_6, 4
.LCPI1_6:
	.long	88199
	.cc_bottom .LCPI1_6.data
	.cc_top .LCPI1_7.data,.LCPI1_7
	.align	4
	.type	.LCPI1_7,@object
	.size	.LCPI1_7, 4
.LCPI1_7:
	.long	88200
	.cc_bottom .LCPI1_7.data
	.cc_top .LCPI1_8.data,.LCPI1_8
	.align	4
	.type	.LCPI1_8,@object
	.size	.LCPI1_8, 4
.LCPI1_8:
	.long	274877907
	.cc_bottom .LCPI1_8.data
	.cc_top .LCPI1_9.data,.LCPI1_9
	.align	4
	.type	.LCPI1_9,@object
	.size	.LCPI1_9, 4
.LCPI1_9:
	.long	255000
	.cc_bottom .LCPI1_9.data
	.cc_top .LCPI1_10.data,.LCPI1_10
	.align	4
	.type	.LCPI1_10,@object
	.size	.LCPI1_10, 4
.LCPI1_10:
	.long	3435973837
	.cc_bottom .LCPI1_10.data
	.cc_top .LCPI1_11.data,.LCPI1_11
	.align	4
	.type	.LCPI1_11,@object
	.size	.LCPI1_11, 4
.LCPI1_11:
	.long	655350
	.cc_bottom .LCPI1_11.data
	.text
	.globl	FLAC__frame_add_header
	.align	4
	.type	FLAC__frame_add_header,@function
	.cc_top FLAC__frame_add_header.function,FLAC__frame_add_header
FLAC__frame_add_header:
.Lfunc_begin1:
	.loc	4 238 0
	.cfi_startproc
	.issue_mode dual
	{
		nop
		dualentsp 8
	}
.Ltmp171:
	.cfi_def_cfa_offset 32
.Ltmp172:
	.cfi_offset 15, 0
	std r5, r4, sp[1]
.Ltmp173:
	.cfi_offset 4, -24
.Ltmp174:
	.cfi_offset 5, -20
	std r7, r6, sp[2]
.Ltmp175:
	.cfi_offset 6, -16
.Ltmp176:
	.cfi_offset 7, -12
	std r9, r8, sp[3]
.Ltmp177:
	.cfi_offset 8, -8
.Ltmp178:
	.cfi_offset 9, -4
.Ltmp179:
	{
		mov r4, r1
		mov r5, r0
	}
.Ltmp180:
	.loc	4 242 2 prologue_end
	{
		mov r0, r4
		nop
	}
	bl FLAC__bitwriter_is_byte_aligned
	.loc	4 242 2
	bl assert
	.loc	4 244 6
.Ltmp181:
	ldw r1, cp[FLAC__FRAME_HEADER_SYNC]
	.loc	4 244 6
	ldw r2, cp[FLAC__FRAME_HEADER_SYNC_LEN]
	.loc	4 244 6
	{
		mov r0, r4
		nop
	}
	bl FLAC__bitwriter_write_raw_uint32
	.loc	4 244 6
	bf r0, .LBB1_1
.Ltmp182:
	.loc	4 247 6
	ldw r2, cp[FLAC__FRAME_HEADER_RESERVED_LEN]
	{
		ldc r6, 0
		mov r0, r4
	}
	.loc	4 247 6
	{
		mov r1, r6
		nop
	}
	bl FLAC__bitwriter_write_raw_uint32
	bf r0, .LBB1_140
.Ltmp183:
	{
		nop
		ldw r0, r5[5]
	}
	.loc	4 250 6
.Ltmp184:
	{
		eq r0, r0, 0
		nop
	}
	{
		eq r1, r0, 0
		nop
	}
	.loc	4 250 6
	ldw r2, cp[FLAC__FRAME_HEADER_BLOCKING_STRATEGY_LEN]
	.loc	4 250 6
	{
		mov r0, r4
		nop
	}
	bl FLAC__bitwriter_write_raw_uint32
	bf r0, .LBB1_140
.Ltmp185:
	{
		nop
		ldw r0, r5[0]
	}
	.loc	4 253 2
	{
		shr r1, r0, 16
		nop
	}
	{
		eq r1, r1, 0
		eq r0, r0, 0
	}
	.loc	4 253 2
	{
		eq r0, r0, 0
		nop
	}
	.loc	4 253 2
	{
		and r0, r1, r0
		nop
	}
	.loc	4 253 2
	bl assert
	{
		mkmsk r7, 1
		nop
	}
	.loc	4 255 2
	{
		mov r0, r7
		nop
	}
	bl assert
.Ltmp186:
	.loc	4 257 2
	{
		ldc r6, 0
		ldw r0, r5[0]
	}
	ldc r1, 32767
	.loc	4 257 2
	{
		lss r1, r1, r0
		nop
	}
	bt r1, .LBB1_39
.Ltmp187:
	ldc r1, 16383
	{
		lss r1, r1, r0
		nop
	}
	bt r1, .LBB1_37
.Ltmp188:
	ldc r1, 8191
	{
		lss r1, r1, r0
		nop
	}
	bt r1, .LBB1_35
.Ltmp189:
	ldc r1, 4607
	{
		lss r1, r1, r0
		nop
	}
	bt r1, .LBB1_25
.Ltmp190:
	ldc r1, 4095
	{
		lss r1, r1, r0
		nop
	}
	bt r1, .LBB1_33
.Ltmp191:
	ldc r1, 2303
	{
		lss r1, r1, r0
		nop
	}
	bt r1, .LBB1_23
.Ltmp192:
	ldc r1, 2047
	{
		lss r1, r1, r0
		nop
	}
	bt r1, .LBB1_31
.Ltmp193:
	ldc r1, 1151
	{
		lss r1, r1, r0
		nop
	}
	bt r1, .LBB1_21
.Ltmp194:
	ldc r1, 1023
	{
		lss r1, r1, r0
		nop
	}
	bt r1, .LBB1_29
.Ltmp195:
	{
		mkmsk r1, 8
		nop
	}
	{
		lss r1, r1, r0
		nop
	}
	bt r1, .LBB1_17
.Ltmp196:
	ldc r1, 192
	{
		eq r1, r0, r1
		mov r8, r6
	}
	bt r1, .LBB1_43
	bu .LBB1_15
.Ltmp197:
.LBB1_1:
	{
		ldc r6, 0
		nop
	}
	bu .LBB1_140
.LBB1_39:
.Ltmp198:
	ldc r1, 32768
	{
		eq r1, r0, r1
		nop
	}
	bf r1, .LBB1_15
.Ltmp199:
	{
		mkmsk r7, 4
		mov r8, r6
	}
	bu .LBB1_43
.Ltmp200:
.LBB1_37:
	ldc r1, 16384
	{
		eq r1, r0, r1
		nop
	}
	bf r1, .LBB1_15
.Ltmp201:
	{
		ldc r7, 14
		mov r8, r6
	}
	bu .LBB1_43
.Ltmp202:
.LBB1_35:
	ldc r1, 8192
	{
		eq r1, r0, r1
		nop
	}
	bf r1, .LBB1_15
.Ltmp203:
	{
		ldc r7, 13
		mov r8, r6
	}
	bu .LBB1_43
.Ltmp204:
.LBB1_25:
	ldc r1, 4608
	{
		eq r1, r0, r1
		nop
	}
	bf r1, .LBB1_15
.Ltmp205:
	{
		ldc r7, 5
		mov r8, r6
	}
	bu .LBB1_43
.Ltmp206:
.LBB1_33:
	ldc r1, 4096
	{
		eq r1, r0, r1
		nop
	}
	bf r1, .LBB1_15
.Ltmp207:
	{
		ldc r7, 12
		mov r8, r6
	}
	bu .LBB1_43
.Ltmp208:
.LBB1_23:
	ldc r1, 2304
	{
		eq r1, r0, r1
		nop
	}
	bf r1, .LBB1_15
.Ltmp209:
	{
		ldc r7, 4
		mov r8, r6
	}
	bu .LBB1_43
.Ltmp210:
.LBB1_31:
	ldc r1, 2048
	{
		eq r1, r0, r1
		nop
	}
	bf r1, .LBB1_15
.Ltmp211:
	{
		ldc r7, 11
		mov r8, r6
	}
	bu .LBB1_43
.Ltmp212:
.LBB1_21:
	ldc r1, 1152
	{
		eq r1, r0, r1
		nop
	}
	bf r1, .LBB1_15
.Ltmp213:
	{
		mkmsk r7, 2
		mov r8, r6
	}
	bu .LBB1_43
.Ltmp214:
.LBB1_29:
	ldc r1, 1024
	{
		eq r1, r0, r1
		nop
	}
	bf r1, .LBB1_15
.Ltmp215:
	{
		ldc r7, 10
		mov r8, r6
	}
	bu .LBB1_43
.Ltmp216:
.LBB1_17:
	ldc r1, 256
	{
		eq r1, r0, r1
		nop
	}
	bt r1, .LBB1_27
.Ltmp217:
	ldc r1, 512
	{
		eq r1, r0, r1
		nop
	}
	bf r1, .LBB1_19
.Ltmp218:
	{
		ldc r7, 9
		mov r8, r6
	}
	bu .LBB1_43
.Ltmp219:
.LBB1_27:
	{
		ldc r7, 8
		mov r8, r6
	}
	bu .LBB1_43
.Ltmp220:
.LBB1_19:
	ldc r1, 576
	{
		eq r1, r0, r1
		nop
	}
	bf r1, .LBB1_15
.Ltmp221:
	{
		ldc r7, 2
		mov r8, r6
	}
	bu .LBB1_43
.Ltmp222:
.LBB1_15:
	ldc r1, 257
	.loc	4 272 7
.Ltmp223:
	{
		lsu r0, r0, r1
		nop
	}
	bt r0, .LBB1_16
.Ltmp224:
	{
		mkmsk r7, 3
		nop
	}
	bu .LBB1_42
.Ltmp225:
.LBB1_16:
	{
		ldc r7, 6
		nop
	}
.Ltmp226:
.LBB1_42:
	{
		mov r8, r7
		nop
	}
.Ltmp227:
.LBB1_43:
	.loc	4 278 6
	ldw r2, cp[FLAC__FRAME_HEADER_BLOCK_SIZE_LEN]
	.loc	4 278 6
	{
		mov r0, r4
		mov r1, r7
	}
	bl FLAC__bitwriter_write_raw_uint32
	bf r0, .LBB1_140
.Ltmp228:
	{
		nop
		ldw r0, r5[1]
	}
	.loc	4 281 2
	bl FLAC__format_sample_rate_is_valid
	.loc	4 281 2
	bl assert
.Ltmp229:
	.loc	4 283 2
	{
		ldc r6, 0
		ldw r0, r5[1]
	}
	ldw r1, cp[.LCPI1_0]
	.loc	4 283 2
	{
		lss r1, r1, r0
		nop
	}
	bt r1, .LBB1_64
.Ltmp230:
	ldw r1, cp[.LCPI1_2]
	{
		lss r1, r1, r0
		nop
	}
	bt r1, .LBB1_62
.Ltmp231:
	ldc r1, 15999
	{
		lss r1, r1, r0
		nop
	}
	bt r1, .LBB1_49
.Ltmp232:
	ldc r1, 8000
	{
		eq r1, r0, r1
		nop
	}
	bf r1, .LBB1_74
.Ltmp233:
	{
		ldc r7, 4
		mov r9, r6
	}
	bu .LBB1_83
.Ltmp234:
.LBB1_64:
	ldw r1, cp[.LCPI1_1]
	{
		eq r1, r0, r1
		nop
	}
	bf r1, .LBB1_74
.Ltmp235:
	{
		mkmsk r7, 2
		mov r9, r6
	}
	bu .LBB1_83
.Ltmp236:
.LBB1_62:
	ldw r1, cp[.LCPI1_3]
	{
		eq r1, r0, r1
		nop
	}
	bf r1, .LBB1_74
.Ltmp237:
	{
		ldc r7, 2
		mov r9, r6
	}
	bu .LBB1_83
.Ltmp238:
.LBB1_49:
	ldw r1, cp[.LCPI1_4]
	{
		lss r1, r1, r0
		nop
	}
	bt r1, .LBB1_72
.Ltmp239:
	ldw r1, cp[.LCPI1_6]
	{
		lss r1, r1, r0
		nop
	}
	bt r1, .LBB1_60
.Ltmp240:
	ldc r1, 22049
	{
		lss r1, r1, r0
		nop
	}
	bt r1, .LBB1_54
.Ltmp241:
	ldc r1, 16000
	{
		eq r1, r0, r1
		nop
	}
	bf r1, .LBB1_74
.Ltmp242:
	{
		ldc r7, 5
		mov r9, r6
	}
	bu .LBB1_83
.Ltmp243:
.LBB1_72:
	ldw r1, cp[.LCPI1_5]
	{
		eq r1, r0, r1
		nop
	}
	bf r1, .LBB1_74
.Ltmp244:
	{
		ldc r7, 11
		mov r9, r6
	}
	bu .LBB1_83
.Ltmp245:
.LBB1_60:
	ldw r1, cp[.LCPI1_7]
	{
		eq r1, r0, r1
		nop
	}
	bf r1, .LBB1_74
.Ltmp246:
	{
		mkmsk r7, 1
		mov r9, r6
	}
	bu .LBB1_83
.Ltmp247:
.LBB1_54:
	ldc r1, 47999
	{
		lss r1, r1, r0
		nop
	}
	bt r1, .LBB1_70
.Ltmp248:
	ldc r1, 44099
	{
		lss r1, r1, r0
		nop
	}
	bt r1, .LBB1_68
.Ltmp249:
	ldc r1, 22050
	{
		eq r1, r0, r1
		nop
	}
	bt r1, .LBB1_66
.Ltmp250:
	ldc r1, 24000
	{
		eq r1, r0, r1
		nop
	}
	bf r1, .LBB1_58
.Ltmp251:
	{
		mkmsk r7, 3
		mov r9, r6
	}
	bu .LBB1_83
.Ltmp252:
.LBB1_70:
	ldc r1, 48000
	{
		eq r1, r0, r1
		nop
	}
	bf r1, .LBB1_74
.Ltmp253:
	{
		ldc r7, 10
		mov r9, r6
	}
	bu .LBB1_83
.Ltmp254:
.LBB1_68:
	ldc r1, 44100
	{
		eq r1, r0, r1
		nop
	}
	bf r1, .LBB1_74
.Ltmp255:
	{
		ldc r7, 9
		mov r9, r6
	}
	bu .LBB1_83
.Ltmp256:
.LBB1_66:
	{
		ldc r7, 6
		mov r9, r6
	}
	bu .LBB1_83
.Ltmp257:
.LBB1_58:
	ldc r1, 32000
	{
		eq r1, r0, r1
		nop
	}
	bf r1, .LBB1_74
.Ltmp258:
	{
		ldc r7, 8
		mov r9, r6
	}
	bu .LBB1_83
.Ltmp259:
.LBB1_74:
	{
		ldc r7, 0
		nop
	}
	ldw r1, cp[.LCPI1_8]
	lmul r1, r2, r0, r1, r7, r7
	ldw r2, cp[.LCPI1_9]
	.loc	4 296 7
.Ltmp260:
	{
		lsu r2, r2, r0
		nop
	}
	bt r2, .LBB1_77
.Ltmp261:
	{
		shr r1, r1, 6
		nop
	}
	ldc r2, 1000
	mul r1, r1, r2
	{
		sub r1, r0, r1
		nop
	}
	bt r1, .LBB1_77
.Ltmp262:
	{
		ldc r7, 12
		nop
	}
	bu .LBB1_82
.Ltmp263:
.LBB1_77:
	ldw r1, cp[.LCPI1_10]
	lmul r1, r2, r0, r1, r7, r7
	ldw r2, cp[.LCPI1_11]
	.loc	4 298 12
.Ltmp264:
	{
		lsu r2, r2, r0
		nop
	}
	bt r2, .LBB1_80
.Ltmp265:
	{
		shr r1, r1, 3
		ldc r2, 10
	}
	mul r1, r1, r2
	{
		sub r1, r0, r1
		nop
	}
	bt r1, .LBB1_80
.Ltmp266:
	{
		ldc r7, 14
		nop
	}
	bu .LBB1_82
.Ltmp267:
.LBB1_80:
	.loc	4 300 12
	{
		shr r0, r0, 16
		nop
	}
	bt r0, .LBB1_82
.Ltmp268:
	{
		ldc r7, 13
		nop
	}
.Ltmp269:
.LBB1_82:
	{
		mov r9, r7
		nop
	}
.Ltmp270:
.LBB1_83:
	.loc	4 306 6
	ldw r2, cp[FLAC__FRAME_HEADER_SAMPLE_RATE_LEN]
	.loc	4 306 6
	{
		mov r0, r4
		mov r1, r7
	}
	bl FLAC__bitwriter_write_raw_uint32
	bf r0, .LBB1_140
.Ltmp271:
	{
		nop
		ldw r0, r5[2]
	}
	.loc	4 309 2
	bf r0, .LBB1_85
.Ltmp272:
	.loc	4 309 2
	ldw r1, cp[FLAC__STREAM_METADATA_STREAMINFO_CHANNELS_LEN]
	{
		mkmsk r2, 1
		nop
	}
	.loc	4 309 2
	{
		shl r1, r2, r1
		ldc r2, 9
	}
	.loc	4 309 2
	{
		lsu r2, r0, r2
		lsu r0, r1, r0
	}
	.loc	4 309 2
	{
		eq r0, r0, 0
		nop
	}
	.loc	4 309 2
	{
		and r0, r2, r0
		nop
	}
	bu .LBB1_87
.Ltmp273:
.LBB1_85:
	{
		ldc r0, 0
		nop
	}
.Ltmp274:
.LBB1_87:
	.loc	4 309 2
	bl assert
	.loc	4 310 2
	{
		mkmsk r1, 2
		ldw r0, r5[3]
	}
	.loc	4 310 2
	{
		lsu r1, r1, r0
		nop
	}
	bf r1, .LBB1_88
.Ltmp275:
	{
		ldc r0, 0
		nop
	}
	.loc	4 327 4
.Ltmp276:
	bl assert
	bu .LBB1_94
.Ltmp277:
.LBB1_88:

	.xtabranch .Ljumptable1+4,.Ljumptable1+8,.Ljumptable1+12,.Ljumptable1+16
.Ljumptable1:
		
	{
		nop
		bru r0
	}
	.jmptable32 .LBB1_89,.LBB1_90,.LBB1_91,.LBB1_92
.Ltmp278:
.LBB1_89:
	{
		nop
		ldw r0, r5[2]
	}
	.loc	4 312 4
	{
		sub r7, r0, 1
		nop
	}
.Ltmp279:
	bu .LBB1_94
.Ltmp280:
.LBB1_90:
	{
		nop
		ldw r0, r5[2]
	}
	.loc	4 315 4
	{
		eq r0, r0, 2
		nop
	}
	.loc	4 315 4
	bl assert
.Ltmp281:
	{
		ldc r7, 8
		nop
	}
	bu .LBB1_94
.Ltmp282:
.LBB1_91:
	{
		nop
		ldw r0, r5[2]
	}
	.loc	4 319 4
	{
		eq r0, r0, 2
		nop
	}
	.loc	4 319 4
	bl assert
.Ltmp283:
	{
		ldc r7, 9
		nop
	}
	bu .LBB1_94
.Ltmp284:
.LBB1_92:
	{
		nop
		ldw r0, r5[2]
	}
	.loc	4 323 4
	{
		eq r0, r0, 2
		nop
	}
	.loc	4 323 4
	bl assert
.Ltmp285:
	{
		ldc r7, 10
		nop
	}
.Ltmp286:
.LBB1_94:
	.loc	4 329 6
	ldw r2, cp[FLAC__FRAME_HEADER_CHANNEL_ASSIGNMENT_LEN]
	.loc	4 329 6
	{
		mov r0, r4
		mov r1, r7
	}
	bl FLAC__bitwriter_write_raw_uint32
	.loc	4 329 6
	bf r0, .LBB1_95
.Ltmp287:
	{
		nop
		ldw r0, r5[4]
	}
	.loc	4 332 2
	bf r0, .LBB1_97
.Ltmp288:
	.loc	4 332 2
	ldw r1, cp[FLAC__STREAM_METADATA_STREAMINFO_BITS_PER_SAMPLE_LEN]
	{
		mkmsk r2, 1
		nop
	}
	.loc	4 332 2
	{
		shl r1, r2, r1
		nop
	}
	.loc	4 332 2
	{
		lsu r0, r1, r0
		nop
	}
	{
		eq r0, r0, 0
		nop
	}
	bu .LBB1_99
.Ltmp289:
.LBB1_95:
	{
		ldc r6, 0
		nop
	}
	bu .LBB1_140
.LBB1_97:
.Ltmp290:
	{
		ldc r0, 0
		nop
	}
.Ltmp291:
.LBB1_99:
	.loc	4 332 2
	bl assert
	.loc	4 333 2
	{
		mkmsk r1, 5
		ldw r0, r5[4]
	}
	.loc	4 333 2
	{
		lss r1, r1, r0
		nop
	}
	bt r1, .LBB1_112
.Ltmp292:
	{
		ldc r1, 11
		nop
	}
	{
		lss r1, r1, r0
		nop
	}
	bt r1, .LBB1_103
.Ltmp293:
	{
		eq r0, r0, 8
		nop
	}
	bf r0, .LBB1_114
.Ltmp294:
	{
		mkmsk r1, 1
		nop
	}
	bu .LBB1_115
.Ltmp295:
.LBB1_112:
	{
		ldc r1, 32
		nop
	}
	{
		eq r0, r0, r1
		nop
	}
	bf r0, .LBB1_114
.Ltmp296:
	{
		mkmsk r1, 3
		nop
	}
.Ltmp297:
	bu .LBB1_115
.Ltmp298:
.LBB1_103:
	{
		mkmsk r1, 4
		nop
	}
	{
		lss r1, r1, r0
		nop
	}
	bt r1, .LBB1_106
.Ltmp299:
	{
		ldc r1, 12
		nop
	}
	{
		eq r0, r0, r1
		nop
	}
	bf r0, .LBB1_114
.Ltmp300:
	{
		ldc r1, 2
		nop
	}
.Ltmp301:
	bu .LBB1_115
.Ltmp302:
.LBB1_106:
	{
		ldc r1, 16
		nop
	}
	{
		eq r1, r0, r1
		nop
	}
	bt r1, .LBB1_110
.Ltmp303:
	{
		ldc r1, 20
		nop
	}
	{
		eq r1, r0, r1
		nop
	}
	bf r1, .LBB1_108
.Ltmp304:
	{
		ldc r1, 5
		nop
	}
.Ltmp305:
	bu .LBB1_115
.Ltmp306:
.LBB1_110:
	{
		ldc r1, 4
		nop
	}
.Ltmp307:
	bu .LBB1_115
.Ltmp308:
.LBB1_108:
	{
		ldc r1, 24
		nop
	}
	{
		eq r0, r0, r1
		nop
	}
	bf r0, .LBB1_114
.Ltmp309:
	{
		ldc r1, 6
		nop
	}
.Ltmp310:
	bu .LBB1_115
.Ltmp311:
.LBB1_114:
	{
		ldc r1, 0
		nop
	}
.Ltmp312:
.LBB1_115:
	.loc	4 342 6
	ldw r2, cp[FLAC__FRAME_HEADER_BITS_PER_SAMPLE_LEN]
	.loc	4 342 6
	{
		mov r0, r4
		nop
	}
	bl FLAC__bitwriter_write_raw_uint32
	.loc	4 342 6
	bf r0, .LBB1_116
.Ltmp313:
	.loc	4 345 6
	ldw r2, cp[FLAC__FRAME_HEADER_ZERO_PAD_LEN]
	{
		ldc r7, 0
		mov r0, r4
	}
	.loc	4 345 6
	{
		mov r1, r7
		nop
	}
	bl FLAC__bitwriter_write_raw_uint32
	.loc	4 345 6
	bf r0, .LBB1_118
.Ltmp314:
	{
		nop
		ldw r0, r5[5]
	}
	.loc	4 348 5
.Ltmp315:
	bf r0, .LBB1_120
.Ltmp316:
	.loc	4 353 7
	ldaw r0, r5[6]
	.loc	4 353 7
	ldd r2, r1, r0[0]
	.loc	4 353 7
	{
		mov r0, r4
		nop
	}
	bl FLAC__bitwriter_write_utf8_uint64
	bt r0, .LBB1_124
.Ltmp317:
	{
		mov r6, r7
		nop
	}
	bu .LBB1_140
.LBB1_116:
	{
		ldc r6, 0
		nop
	}
	bu .LBB1_140
.LBB1_118:
	{
		mov r6, r7
		nop
	}
	bu .LBB1_140
.LBB1_120:
.Ltmp318:
	.loc	4 349 7
	{
		mov r0, r4
		ldw r1, r5[6]
	}
	.loc	4 349 7
	bl FLAC__bitwriter_write_utf8_uint32
	bf r0, .LBB1_121
.Ltmp319:
.LBB1_124:
	bf r8, .LBB1_130
.Ltmp320:
	{
		nop
		ldw r0, r5[0]
	}
	.loc	4 358 7
.Ltmp321:
	{
		sub r1, r0, 1
		eq r0, r8, 6
	}
	.loc	4 358 7
	bt r0, .LBB1_126
.Ltmp322:
	{
		ldc r2, 16
		nop
	}
	bu .LBB1_128
.Ltmp323:
.LBB1_126:
	{
		ldc r2, 8
		nop
	}
.Ltmp324:
.LBB1_128:
	.loc	4 358 7
	{
		mov r0, r4
		nop
	}
	bl FLAC__bitwriter_write_raw_uint32
	bf r0, .LBB1_129
.Ltmp325:
.LBB1_130:
	{
		ldc r0, 14
		nop
	}
	.loc	4 361 2
	{
		eq r0, r9, r0
		nop
	}
	bt r0, .LBB1_136
.Ltmp326:
	{
		ldc r0, 13
		nop
	}
	{
		eq r0, r9, r0
		nop
	}
	bf r0, .LBB1_132
.Ltmp327:
	.loc	4 367 8
	{
		ldc r2, 16
		ldw r1, r5[1]
	}
	.loc	4 367 8
	{
		mov r0, r4
		nop
	}
	bl FLAC__bitwriter_write_raw_uint32
	bt r0, .LBB1_138
.Ltmp328:
	{
		mov r6, r7
		nop
	}
	bu .LBB1_140
.LBB1_136:
.Ltmp329:
	.loc	4 371 8
	{
		ldc r6, 0
		ldw r0, r5[1]
	}
	ldw r1, cp[.LCPI1_10]
	.loc	4 371 8
	lmul r0, r1, r0, r1, r6, r6
	{
		shr r1, r0, 3
		ldc r2, 16
	}
	bu .LBB1_137
.Ltmp330:
.LBB1_132:
	{
		ldc r0, 12
		nop
	}
	{
		eq r0, r9, r0
		nop
	}
	bf r0, .LBB1_138
.Ltmp331:
	.loc	4 363 8
	{
		ldc r6, 0
		ldw r0, r5[1]
	}
	ldw r1, cp[.LCPI1_8]
	.loc	4 363 8
	lmul r0, r1, r0, r1, r6, r6
	{
		shr r1, r0, 6
		ldc r2, 8
	}
.Ltmp332:
.LBB1_137:
	.loc	4 371 8
	{
		mov r0, r4
		nop
	}
	bl FLAC__bitwriter_write_raw_uint32
	bf r0, .LBB1_140
.Ltmp333:
.LBB1_138:
	{
		ldaw r5, sp[1]
		mov r0, r4
	}
.Ltmp334:
	.loc	4 377 6
	{
		mov r1, r5
		nop
	}
	bl FLAC__bitwriter_get_write_crc8
	{
		mov r6, r7
		nop
	}
	bf r0, .LBB1_140
.Ltmp335:
	.loc	4 379 6
	{
		ldc r0, 0
		nop
	}
	{
		nop
		ld8u r1, r5[r0]
	}
	.loc	4 379 6
	ldw r2, cp[FLAC__FRAME_HEADER_CRC_LEN]
	.loc	4 379 6
	{
		mov r0, r4
		nop
	}
	bl FLAC__bitwriter_write_raw_uint32
	.loc	4 380 3
	{
		eq r0, r0, 0
		nop
	}
	{
		eq r6, r0, 0
		nop
	}
	bu .LBB1_140
.Ltmp336:
.LBB1_129:
	{
		mov r6, r7
		nop
	}
	bu .LBB1_140
.LBB1_121:
	{
		mov r6, r7
		nop
	}
.LBB1_140:
	.loc	4 383 1
	{
		mov r0, r6
		nop
	}
	ldd r9, r8, sp[3]
	ldd r7, r6, sp[2]
	ldd r5, r4, sp[1]
	{
		nop
		retsp 8
	}
	# RETURN_REG_HOLDER
.Ltmp337:
	.cc_bottom FLAC__frame_add_header.function
	.set	FLAC__frame_add_header.nstackwords,((FLAC__bitwriter_is_byte_aligned.nstackwords $M FLAC__format_sample_rate_is_valid.nstackwords $M FLAC__bitwriter_write_utf8_uint32.nstackwords $M FLAC__bitwriter_get_write_crc8.nstackwords $M FLAC__bitwriter_write_raw_uint32.nstackwords $M FLAC__bitwriter_write_utf8_uint64.nstackwords $M assert.nstackwords) + 8)
	.globl	FLAC__frame_add_header.nstackwords
	.set	FLAC__frame_add_header.maxcores,FLAC__bitwriter_get_write_crc8.maxcores $M FLAC__bitwriter_is_byte_aligned.maxcores $M FLAC__bitwriter_write_raw_uint32.maxcores $M FLAC__bitwriter_write_utf8_uint32.maxcores $M FLAC__bitwriter_write_utf8_uint64.maxcores $M FLAC__format_sample_rate_is_valid.maxcores $M 1
	.globl	FLAC__frame_add_header.maxcores
	.set	FLAC__frame_add_header.maxtimers,FLAC__bitwriter_get_write_crc8.maxtimers $M FLAC__bitwriter_is_byte_aligned.maxtimers $M FLAC__bitwriter_write_raw_uint32.maxtimers $M FLAC__bitwriter_write_utf8_uint32.maxtimers $M FLAC__bitwriter_write_utf8_uint64.maxtimers $M FLAC__format_sample_rate_is_valid.maxtimers $M 0
	.globl	FLAC__frame_add_header.maxtimers
	.set	FLAC__frame_add_header.maxchanends,FLAC__bitwriter_get_write_crc8.maxchanends $M FLAC__bitwriter_is_byte_aligned.maxchanends $M FLAC__bitwriter_write_raw_uint32.maxchanends $M FLAC__bitwriter_write_utf8_uint32.maxchanends $M FLAC__bitwriter_write_utf8_uint64.maxchanends $M FLAC__format_sample_rate_is_valid.maxchanends $M 0
	.globl	FLAC__frame_add_header.maxchanends
.Ltmp338:
	.size	FLAC__frame_add_header, .Ltmp338-FLAC__frame_add_header
.Lfunc_end1:
	.cfi_endproc

	.globl	FLAC__subframe_add_constant
	.align	4
	.type	FLAC__subframe_add_constant,@function
	.cc_top FLAC__subframe_add_constant.function,FLAC__subframe_add_constant
FLAC__subframe_add_constant:
.Lfunc_begin2:
	.loc	4 386 0
	.cfi_startproc
	.issue_mode dual
	{
		nop
		dualentsp 8
	}
.Ltmp339:
	.cfi_def_cfa_offset 32
.Ltmp340:
	.cfi_offset 15, 0
	std r5, r4, sp[1]
.Ltmp341:
	.cfi_offset 4, -24
.Ltmp342:
	.cfi_offset 5, -20
	std r7, r6, sp[2]
.Ltmp343:
	.cfi_offset 6, -16
.Ltmp344:
	.cfi_offset 7, -12
.Ltmp345:
	.cfi_offset 8, -8
.Ltmp346:
	{
		mov r5, r3
		stw r8, sp[6]
	}
.Ltmp347:
	{
		mov r7, r2
		mov r4, r1
	}
.Ltmp348:
	{
		mov r6, r0
		nop
	}
.Ltmp349:
	.loc	4 390 3 prologue_end
	ldw r0, cp[FLAC__SUBFRAME_TYPE_CONSTANT_BYTE_ALIGNED_MASK]
	.loc	4 390 3
	{
		eq r1, r7, 0
		nop
	}
	{
		eq r1, r1, 0
		nop
	}
	.loc	4 390 3
	{
		or r1, r0, r1
		nop
	}
	.loc	4 390 3
	ldw r0, cp[FLAC__SUBFRAME_ZERO_PAD_LEN]
	.loc	4 390 3
	ldw r2, cp[FLAC__SUBFRAME_TYPE_LEN]
	.loc	4 390 3
	{
		add r0, r2, r0
		nop
	}
	.loc	4 390 3
	ldw r2, cp[FLAC__SUBFRAME_WASTED_BITS_FLAG_LEN]
	.loc	4 390 3
	{
		add r2, r0, r2
		mov r0, r5
	}
	.loc	4 390 3
	bl FLAC__bitwriter_write_raw_uint32
	{
		ldc r8, 0
		nop
	}
	bf r0, .LBB2_4
.Ltmp350:
	bf r7, .LBB2_3
.Ltmp351:
	.loc	4 391 17
	{
		sub r1, r7, 1
		mov r0, r5
	}
	.loc	4 391 17
	bl FLAC__bitwriter_write_unary_unsigned
	bf r0, .LBB2_4
.Ltmp352:
.LBB2_3:
	.loc	4 392 3
	ldd r2, r1, r6[0]
	.loc	4 392 3
	{
		mov r0, r5
		mov r3, r4
	}
	bl FLAC__bitwriter_write_raw_int64
	.loc	4 392 3
	{
		eq r0, r0, 0
		nop
	}
	{
		eq r8, r0, 0
		nop
	}
.Ltmp353:
.LBB2_4:
	.loc	4 395 2
	{
		mov r0, r8
		ldw r8, sp[6]
	}
	ldd r7, r6, sp[2]
	ldd r5, r4, sp[1]
	{
		nop
		retsp 8
	}
	# RETURN_REG_HOLDER
.Ltmp354:
	.cc_bottom FLAC__subframe_add_constant.function
	.set	FLAC__subframe_add_constant.nstackwords,((FLAC__bitwriter_write_raw_uint32.nstackwords $M FLAC__bitwriter_write_unary_unsigned.nstackwords $M FLAC__bitwriter_write_raw_int64.nstackwords) + 8)
	.globl	FLAC__subframe_add_constant.nstackwords
	.set	FLAC__subframe_add_constant.maxcores,FLAC__bitwriter_write_raw_int64.maxcores $M FLAC__bitwriter_write_raw_uint32.maxcores $M FLAC__bitwriter_write_unary_unsigned.maxcores $M 1
	.globl	FLAC__subframe_add_constant.maxcores
	.set	FLAC__subframe_add_constant.maxtimers,FLAC__bitwriter_write_raw_int64.maxtimers $M FLAC__bitwriter_write_raw_uint32.maxtimers $M FLAC__bitwriter_write_unary_unsigned.maxtimers $M 0
	.globl	FLAC__subframe_add_constant.maxtimers
	.set	FLAC__subframe_add_constant.maxchanends,FLAC__bitwriter_write_raw_int64.maxchanends $M FLAC__bitwriter_write_raw_uint32.maxchanends $M FLAC__bitwriter_write_unary_unsigned.maxchanends $M 0
	.globl	FLAC__subframe_add_constant.maxchanends
.Ltmp355:
	.size	FLAC__subframe_add_constant, .Ltmp355-FLAC__subframe_add_constant
.Lfunc_end2:
	.cfi_endproc

	.globl	FLAC__subframe_add_fixed
	.align	4
	.type	FLAC__subframe_add_fixed,@function
	.cc_top FLAC__subframe_add_fixed.function,FLAC__subframe_add_fixed
FLAC__subframe_add_fixed:
.Lfunc_begin3:
	.loc	4 399 0
	.cfi_startproc
	.issue_mode dual
	{
		nop
		dualentsp 14
	}
.Ltmp356:
	.cfi_def_cfa_offset 56
.Ltmp357:
	.cfi_offset 15, 0
	std r5, r4, sp[3]
.Ltmp358:
	.cfi_offset 4, -32
.Ltmp359:
	.cfi_offset 5, -28
	std r7, r6, sp[4]
.Ltmp360:
	.cfi_offset 6, -24
.Ltmp361:
	.cfi_offset 7, -20
	std r9, r8, sp[5]
.Ltmp362:
	.cfi_offset 8, -16
.Ltmp363:
	.cfi_offset 9, -12
.Ltmp364:
	.cfi_offset 10, -8
.Ltmp365:
	{
		mov r9, r3
		stw r10, sp[12]
	}
.Ltmp366:
	{
		mov r8, r2
		mov r5, r1
	}
.Ltmp367:
	{
		mov r7, r0
		ldw r6, sp[15]
	}
.Ltmp368:
	.loc	4 402 6 prologue_end
	ldw r0, cp[FLAC__SUBFRAME_TYPE_FIXED_BYTE_ALIGNED_MASK]
	{
		nop
		ldw r1, r7[3]
	}
	.loc	4 402 6
	{
		shl r1, r1, 1
		eq r2, r9, 0
	}
	.loc	4 402 6
	{
		eq r2, r2, 0
		nop
	}
	.loc	4 402 6
	{
		or r0, r0, r2
		nop
	}
	.loc	4 402 6
	{
		or r1, r0, r1
		nop
	}
	.loc	4 402 6
	ldw r0, cp[FLAC__SUBFRAME_ZERO_PAD_LEN]
	.loc	4 402 6
	ldw r2, cp[FLAC__SUBFRAME_TYPE_LEN]
	.loc	4 402 6
	{
		add r0, r2, r0
		nop
	}
	.loc	4 402 6
	ldw r2, cp[FLAC__SUBFRAME_WASTED_BITS_FLAG_LEN]
	.loc	4 402 6
	{
		add r2, r0, r2
		mov r0, r6
	}
	.loc	4 402 6
	bl FLAC__bitwriter_write_raw_uint32
	{
		ldc r4, 0
		nop
	}
	bf r0, .LBB3_16
.Ltmp369:
	bf r9, .LBB3_3
.Ltmp370:
	.loc	4 405 7
	{
		sub r1, r9, 1
		mov r0, r6
	}
	.loc	4 405 7
	bl FLAC__bitwriter_write_unary_unsigned
	bf r0, .LBB3_16
.Ltmp371:
.LBB3_3:
	{
		nop
		stw r5, sp[5]
	}
.Ltmp372:
	{
		nop
		ldw r0, r7[3]
	}
	bf r0, .LBB3_8
.Ltmp373:
	ldaw r10, r7[4]
	{
		ldc r0, 0
		nop
	}
	{
		mov r9, r0
		mov r5, r0
	}
.Ltmp374:
.LBB3_6:
	.loc	4 409 7
	ldd r2, r1, r10[0]
	.loc	4 409 7
	{
		mov r0, r6
		mov r3, r8
	}
	bl FLAC__bitwriter_write_raw_int64
	.loc	4 409 7
	bf r0, .LBB3_7
.Ltmp375:
	.loc	4 408 34
	{
		add r9, r9, 1
		ldw r0, r7[3]
	}
.Ltmp376:
	.loc	4 408 2
	{
		add r10, r10, 8
		lsu r0, r9, r0
	}
	bt r0, .LBB3_6
.Ltmp377:
.LBB3_8:
	{
		nop
		ldw r1, r7[0]
	}
	.loc	4 516 6
.Ltmp378:
	ldw r2, cp[FLAC__ENTROPY_CODING_METHOD_TYPE_LEN]
.Ltmp379:
	.loc	4 516 6
	{
		mov r0, r6
		nop
	}
	bl FLAC__bitwriter_write_raw_uint32
	bf r0, .LBB3_16
.Ltmp380:
	.loc	4 518 2
	{
		mkmsk r8, 1
		ldw r0, r7[0]
	}
	.loc	4 518 2
	{
		lsu r0, r8, r0
		nop
	}
	bt r0, .LBB3_11
.Ltmp381:
	{
		nop
		ldw r1, r7[1]
	}
	.loc	4 521 8
.Ltmp382:
	ldw r2, cp[FLAC__ENTROPY_CODING_METHOD_PARTITIONED_RICE_ORDER_LEN]
	.loc	4 521 8
	{
		mov r0, r6
		nop
	}
	bl FLAC__bitwriter_write_raw_uint32
	{
		nop
		ldw r2, sp[5]
	}
.Ltmp383:
	bt r0, .LBB3_12
	bu .LBB3_16
.Ltmp384:
.LBB3_7:
	{
		mov r4, r5
		nop
	}
	bu .LBB3_16
.LBB3_11:
.Ltmp385:
	{
		ldc r0, 0
		nop
	}
	.loc	4 525 4
	bl assert
	{
		nop
		ldw r2, sp[5]
	}
.Ltmp386:
.LBB3_12:
	{
		nop
		ldw r0, r7[0]
	}
	.loc	4 414 2
	{
		lsu r1, r8, r0
		nop
	}
	bt r1, .LBB3_14
.Ltmp387:
	{
		ldc r1, 48
		nop
	}
	.loc	4 417 8
.Ltmp388:
	{
		add r1, r7, r1
		nop
	}
	{
		nop
		ldw r1, r1[0]
	}
	{
		nop
		ldw r3, r7[3]
	}
	{
		nop
		ldw r5, r7[2]
	}
	{
		nop
		ldw r11, r5[0]
	}
	{
		nop
		ldw r5, r5[1]
	}
	.loc	4 417 8
	{
		eq r0, r0, 1
		ldw r7, r7[1]
	}
.Ltmp389:
	.loc	4 417 8
	std r7, r5, sp[1]
	{
		nop
		stw r0, sp[4]
	}
	{
		mov r0, r6
		stw r11, sp[1]
	}
	bl add_residual_partitioned_rice_
.Ltmp390:
	bt r0, .LBB3_15
	bu .LBB3_16
.Ltmp391:
.LBB3_14:
	{
		ldc r0, 0
		nop
	}
	.loc	4 430 4
	bl assert
.Ltmp392:
.LBB3_15:
	{
		mov r4, r8
		nop
	}
.LBB3_16:
	.loc	4 434 1
	{
		mov r0, r4
		ldw r10, sp[12]
	}
	ldd r9, r8, sp[5]
	ldd r7, r6, sp[4]
	ldd r5, r4, sp[3]
	{
		nop
		retsp 14
	}
	# RETURN_REG_HOLDER
.Ltmp393:
	.cc_bottom FLAC__subframe_add_fixed.function
	.set	FLAC__subframe_add_fixed.nstackwords,((FLAC__bitwriter_write_unary_unsigned.nstackwords $M FLAC__bitwriter_write_raw_uint32.nstackwords $M add_residual_partitioned_rice_.nstackwords $M assert.nstackwords $M FLAC__bitwriter_write_raw_int64.nstackwords) + 14)
	.globl	FLAC__subframe_add_fixed.nstackwords
	.set	FLAC__subframe_add_fixed.maxcores,FLAC__bitwriter_write_raw_int64.maxcores $M FLAC__bitwriter_write_raw_uint32.maxcores $M FLAC__bitwriter_write_unary_unsigned.maxcores $M add_residual_partitioned_rice_.maxcores $M 1
	.globl	FLAC__subframe_add_fixed.maxcores
	.set	FLAC__subframe_add_fixed.maxtimers,FLAC__bitwriter_write_raw_int64.maxtimers $M FLAC__bitwriter_write_raw_uint32.maxtimers $M FLAC__bitwriter_write_unary_unsigned.maxtimers $M add_residual_partitioned_rice_.maxtimers $M 0
	.globl	FLAC__subframe_add_fixed.maxtimers
	.set	FLAC__subframe_add_fixed.maxchanends,FLAC__bitwriter_write_raw_int64.maxchanends $M FLAC__bitwriter_write_raw_uint32.maxchanends $M FLAC__bitwriter_write_unary_unsigned.maxchanends $M add_residual_partitioned_rice_.maxchanends $M 0
	.globl	FLAC__subframe_add_fixed.maxchanends
.Ltmp394:
	.size	FLAC__subframe_add_fixed, .Ltmp394-FLAC__subframe_add_fixed
.Lfunc_end3:
	.file	5 "C:/Users/takaaki/git/sw_xSSDAC/module_libFLAC/source/private\\bitwriter.h"
	.cfi_endproc

	.align	4
	.type	add_residual_partitioned_rice_,@function
	.cc_top add_residual_partitioned_rice_.function,add_residual_partitioned_rice_
add_residual_partitioned_rice_:
.Lfunc_begin4:
	.loc	4 531 0
	.cfi_startproc
	.issue_mode dual
	{
		nop
		dualentsp 18
	}
.Ltmp395:
	.cfi_def_cfa_offset 72
.Ltmp396:
	.cfi_offset 15, 0
	std r5, r4, sp[5]
.Ltmp397:
	.cfi_offset 4, -32
.Ltmp398:
	.cfi_offset 5, -28
	std r7, r6, sp[6]
.Ltmp399:
	.cfi_offset 6, -24
.Ltmp400:
	.cfi_offset 7, -20
	std r9, r8, sp[7]
.Ltmp401:
	.cfi_offset 8, -16
.Ltmp402:
	.cfi_offset 9, -12
	{
		nop
		stw r10, sp[16]
	}
.Ltmp403:
	.cfi_offset 10, -8
.Ltmp404:
	{
		mov r10, r2
		stw r3, sp[7]
	}
.Ltmp405:
	{
		mov r4, r1
		mov r5, r0
	}
.Ltmp406:
	ldd r2, r7, sp[10]
	{
		nop
		stw r7, sp[3]
	}
	{
		nop
		ldw r3, sp[22]
	}
	.loc	4 532 2 prologue_end
.Ltmp407:
	ldaw r11, cp[FLAC__ENTROPY_CODING_METHOD_PARTITIONED_RICE2_PARAMETER_LEN]
	{
		mov r0, r11
		nop
	}
	.loc	4 532 2
	ldaw r11, cp[FLAC__ENTROPY_CODING_METHOD_PARTITIONED_RICE_PARAMETER_LEN]
	bt r3, .LBB4_2
.Ltmp408:
	.loc	4 532 2
	{
		mov r0, r11
		nop
	}
.Ltmp409:
.LBB4_2:
	.loc	4 533 2
	ldaw r11, cp[FLAC__ENTROPY_CODING_METHOD_PARTITIONED_RICE2_ESCAPE_PARAMETER]
	{
		mov r1, r11
		nop
	}
	.loc	4 533 2
	ldaw r11, cp[FLAC__ENTROPY_CODING_METHOD_PARTITIONED_RICE_ESCAPE_PARAMETER]
	bt r3, .LBB4_4
.Ltmp410:
	.loc	4 533 2
	{
		mov r1, r11
		nop
	}
.Ltmp411:
.LBB4_4:
	{
		nop
		ldw r6, sp[19]
	}
	{
		nop
		ldw r0, r0[0]
	}
	{
		nop
		stw r0, sp[9]
	}
	{
		nop
		ldw r0, r1[0]
	}
	{
		nop
		stw r0, sp[6]
	}
	.loc	4 535 5
.Ltmp412:
	bf r2, .LBB4_5
.Ltmp413:
	{
		nop
		ldw r0, sp[7]
	}
	.loc	4 560 3
.Ltmp414:
	{
		add r0, r0, r10
		nop
	}
	.loc	4 560 3
	{
		shr r0, r0, r2
		nop
	}
.Ltmp415:
	{
		mkmsk r0, 1
		stw r0, sp[8]
	}
	.loc	4 561 3
.Ltmp416:
	{
		shl r0, r0, r2
		nop
	}
	{
		ldc r0, 0
		stw r0, sp[5]
	}
	.loc	4 575 9
.Ltmp417:
	{
		mov r9, r0
		stw r0, sp[4]
	}
	{
		mov r6, r0
		nop
	}
.Ltmp418:
.LBB4_15:
	{
		mov r8, r9
		ldc r0, 0
	}
	bt r6, .LBB4_17
.Ltmp419:
	{
		nop
		ldw r0, sp[7]
	}
.Ltmp420:
.LBB4_17:
	{
		nop
		ldw r1, sp[8]
	}
	.loc	4 563 7
.Ltmp421:
	{
		sub r10, r1, r0
		nop
	}
.Ltmp422:
	.loc	4 565 4
	{
		add r9, r10, r8
		ldw r0, r7[r6]
	}
.Ltmp423:
	.loc	4 566 7
	bf r0, .LBB4_18
.Ltmp424:
	.loc	4 573 9
	{
		mov r0, r5
		ldw r1, sp[6]
	}
	{
		nop
		ldw r2, sp[9]
	}
	bl FLAC__bitwriter_write_raw_uint32
	bf r0, .LBB4_27
.Ltmp425:
	.loc	4 575 9
	{
		mov r0, r5
		ldw r1, r7[r6]
	}
	.loc	4 575 9
	ldw r2, cp[FLAC__ENTROPY_CODING_METHOD_PARTITIONED_RICE_RAW_LEN]
	.loc	4 575 9
	bl FLAC__bitwriter_write_raw_uint32
	bt r0, .LBB4_25
	bu .LBB4_27
.Ltmp426:
.LBB4_24:
	.loc	4 577 28
	{
		add r8, r8, 1
		nop
	}
.Ltmp427:
.LBB4_25:
	.loc	4 577 5
	{
		lsu r0, r8, r9
		nop
	}
	bf r0, .LBB4_20
.Ltmp428:
	{
		nop
		ldw r1, r4[r8]
	}
	.loc	4 578 10
.Ltmp429:
	{
		mov r0, r5
		ldw r2, r7[r6]
	}
	.loc	4 578 10
	bl FLAC__bitwriter_write_raw_int32
	.loc	4 578 10
	bt r0, .LBB4_24
	bu .LBB4_27
.Ltmp430:
.LBB4_18:
	{
		mov r7, r5
		mov r5, r4
	}
.Ltmp431:
	{
		nop
		ldw r4, sp[19]
	}
.Ltmp432:
	.loc	4 567 9
	{
		mov r0, r7
		ldw r1, r4[r6]
	}
	{
		nop
		ldw r2, sp[9]
	}
	.loc	4 567 9
	bl FLAC__bitwriter_write_raw_uint32
	bf r0, .LBB4_27
.Ltmp433:
	.loc	4 569 9
	ldaw r1, r5[r8]
.Ltmp434:
	.loc	4 569 9
	{
		mov r4, r5
		ldw r3, r4[r6]
	}
.Ltmp435:
	.loc	4 569 9
	{
		mov r0, r7
		mov r2, r10
	}
	bl FLAC__bitwriter_write_rice_signed_block
.Ltmp436:
	{
		mov r5, r7
		ldw r7, sp[3]
	}
.Ltmp437:
	bf r0, .LBB4_27
.Ltmp438:
.LBB4_20:
	.loc	4 561 41
	{
		add r6, r6, 1
		ldw r0, sp[5]
	}
.Ltmp439:
	.loc	4 561 3
	{
		lsu r0, r6, r0
		nop
	}
	bt r0, .LBB4_15
	bu .LBB4_21
.Ltmp440:
.LBB4_5:
	{
		nop
		ldw r0, r7[0]
	}
	{
		nop
		ldw r1, r6[0]
	}
	.loc	4 538 6
.Ltmp441:
	bf r0, .LBB4_6
.Ltmp442:
	.loc	4 545 4
	{
		eq r0, r1, 0
		nop
	}
	.loc	4 545 4
	bl assert
	.loc	4 546 8
.Ltmp443:
	{
		mov r0, r5
		ldw r1, sp[6]
	}
	{
		nop
		ldw r2, sp[9]
	}
	bl FLAC__bitwriter_write_raw_uint32
	{
		ldc r1, 0
		nop
	}
	{
		nop
		stw r1, sp[4]
	}
	bf r0, .LBB4_27
.Ltmp444:
	{
		nop
		ldw r1, r7[0]
	}
	.loc	4 548 8
.Ltmp445:
	ldw r2, cp[FLAC__ENTROPY_CODING_METHOD_PARTITIONED_RICE_RAW_LEN]
	.loc	4 548 8
	{
		mov r0, r5
		nop
	}
	bl FLAC__bitwriter_write_raw_uint32
	bf r0, .LBB4_27
.Ltmp446:
	bf r10, .LBB4_21
.Ltmp447:
	{
		ldc r6, 0
		ldc r0, 0
	}
	{
		nop
		stw r0, sp[4]
	}
.Ltmp448:
.LBB4_13:
	{
		nop
		ldw r1, r4[r6]
	}
	.loc	4 551 9
.Ltmp449:
	{
		mov r0, r5
		ldw r2, r7[0]
	}
	.loc	4 551 9
	bl FLAC__bitwriter_write_raw_int32
	bf r0, .LBB4_27
.Ltmp450:
	.loc	4 550 37
	{
		add r6, r6, 1
		nop
	}
.Ltmp451:
	.loc	4 550 4
	{
		lsu r0, r6, r10
		nop
	}
	bt r0, .LBB4_13
	bu .LBB4_21
.Ltmp452:
.LBB4_6:
	.loc	4 539 8
	{
		mov r0, r5
		ldw r2, sp[9]
	}
	bl FLAC__bitwriter_write_raw_uint32
	{
		ldc r1, 0
		nop
	}
	{
		nop
		stw r1, sp[4]
	}
	bf r0, .LBB4_27
.Ltmp453:
	.loc	4 541 8
	{
		mov r0, r5
		ldw r3, r6[0]
	}
	.loc	4 541 8
	{
		mov r1, r4
		mov r2, r10
	}
	bl FLAC__bitwriter_write_rice_signed_block
	bf r0, .LBB4_27
.Ltmp454:
.LBB4_21:
	{
		mkmsk r0, 1
		nop
	}
	{
		nop
		stw r0, sp[4]
	}
.Ltmp455:
.LBB4_27:
	{
		nop
		ldw r0, sp[4]
	}
	{
		nop
		ldw r10, sp[16]
	}
	.loc	4 586 1
	ldd r9, r8, sp[7]
	ldd r7, r6, sp[6]
	ldd r5, r4, sp[5]
	{
		nop
		retsp 18
	}
.Ltmp456:
	# RETURN_REG_HOLDER
.Ltmp457:
	.cc_bottom add_residual_partitioned_rice_.function
	.set	add_residual_partitioned_rice_.nstackwords,((assert.nstackwords $M FLAC__bitwriter_write_rice_signed_block.nstackwords $M FLAC__bitwriter_write_raw_uint32.nstackwords $M FLAC__bitwriter_write_raw_int32.nstackwords) + 18)
	.set	add_residual_partitioned_rice_.maxcores,FLAC__bitwriter_write_raw_int32.maxcores $M FLAC__bitwriter_write_raw_uint32.maxcores $M FLAC__bitwriter_write_rice_signed_block.maxcores $M 1
	.set	add_residual_partitioned_rice_.maxtimers,FLAC__bitwriter_write_raw_int32.maxtimers $M FLAC__bitwriter_write_raw_uint32.maxtimers $M FLAC__bitwriter_write_rice_signed_block.maxtimers $M 0
	.set	add_residual_partitioned_rice_.maxchanends,FLAC__bitwriter_write_raw_int32.maxchanends $M FLAC__bitwriter_write_raw_uint32.maxchanends $M FLAC__bitwriter_write_rice_signed_block.maxchanends $M 0
.Ltmp458:
	.size	add_residual_partitioned_rice_, .Ltmp458-add_residual_partitioned_rice_
.Lfunc_end4:
	.cfi_endproc

	.section	.cp.rodata.cst4,"aMc",@progbits,4
	.cc_top .LCPI5_0.data,.LCPI5_0
	.align	4
	.type	.LCPI5_0,@object
	.size	.LCPI5_0, 4
.LCPI5_0:
	.long	4294967294
	.cc_bottom .LCPI5_0.data
	.text
	.globl	FLAC__subframe_add_lpc
	.align	4
	.type	FLAC__subframe_add_lpc,@function
	.cc_top FLAC__subframe_add_lpc.function,FLAC__subframe_add_lpc
FLAC__subframe_add_lpc:
.Lfunc_begin5:
	.loc	4 437 0
	.cfi_startproc
	.issue_mode dual
	{
		nop
		dualentsp 14
	}
.Ltmp459:
	.cfi_def_cfa_offset 56
.Ltmp460:
	.cfi_offset 15, 0
	std r5, r4, sp[3]
.Ltmp461:
	.cfi_offset 4, -32
.Ltmp462:
	.cfi_offset 5, -28
	std r7, r6, sp[4]
.Ltmp463:
	.cfi_offset 6, -24
.Ltmp464:
	.cfi_offset 7, -20
	std r9, r8, sp[5]
.Ltmp465:
	.cfi_offset 8, -16
.Ltmp466:
	.cfi_offset 9, -12
.Ltmp467:
	.cfi_offset 10, -8
.Ltmp468:
	{
		mov r9, r3
		stw r10, sp[12]
	}
.Ltmp469:
	{
		mov r8, r2
		mov r5, r1
	}
.Ltmp470:
	{
		mov r7, r0
		ldw r6, sp[15]
	}
.Ltmp471:
	.loc	4 440 6 prologue_end
	ldw r0, cp[FLAC__SUBFRAME_TYPE_LPC_BYTE_ALIGNED_MASK]
	{
		nop
		ldw r1, r7[3]
	}
	ldw r2, cp[.LCPI5_0]
	.loc	4 440 6
	lda16 r1, r2[r1]
	.loc	4 440 6
	{
		eq r2, r9, 0
		nop
	}
	{
		eq r2, r2, 0
		nop
	}
	.loc	4 440 6
	{
		or r0, r0, r2
		nop
	}
	.loc	4 440 6
	{
		or r1, r0, r1
		nop
	}
	.loc	4 440 6
	ldw r0, cp[FLAC__SUBFRAME_ZERO_PAD_LEN]
	.loc	4 440 6
	ldw r2, cp[FLAC__SUBFRAME_TYPE_LEN]
	.loc	4 440 6
	{
		add r0, r2, r0
		nop
	}
	.loc	4 440 6
	ldw r2, cp[FLAC__SUBFRAME_WASTED_BITS_FLAG_LEN]
	.loc	4 440 6
	{
		add r2, r0, r2
		mov r0, r6
	}
	.loc	4 440 6
	bl FLAC__bitwriter_write_raw_uint32
	{
		ldc r4, 0
		nop
	}
	bf r0, .LBB5_23
.Ltmp472:
	bf r9, .LBB5_3
.Ltmp473:
	.loc	4 443 7
	{
		sub r1, r9, 1
		mov r0, r6
	}
	.loc	4 443 7
	bl FLAC__bitwriter_write_unary_unsigned
	bf r0, .LBB5_23
.Ltmp474:
.LBB5_3:
	{
		nop
		stw r5, sp[5]
	}
.Ltmp475:
	{
		nop
		ldw r0, r7[3]
	}
	bf r0, .LBB5_8
.Ltmp476:
	ldc r0, 152
	{
		add r10, r7, r0
		ldc r5, 0
	}
	{
		mov r9, r5
		nop
	}
.Ltmp477:
.LBB5_6:
	.loc	4 447 7
	ldd r2, r1, r10[0]
	.loc	4 447 7
	{
		mov r0, r6
		mov r3, r8
	}
	bl FLAC__bitwriter_write_raw_int64
	.loc	4 447 7
	bf r0, .LBB5_7
.Ltmp478:
	.loc	4 446 34
	{
		add r9, r9, 1
		ldw r0, r7[3]
	}
.Ltmp479:
	.loc	4 446 2
	{
		add r10, r10, 8
		lsu r0, r9, r0
	}
	bt r0, .LBB5_6
.Ltmp480:
.LBB5_8:
	{
		nop
		ldw r0, r7[4]
	}
	.loc	4 450 6
.Ltmp481:
	{
		sub r1, r0, 1
		nop
	}
	.loc	4 450 6
	ldw r2, cp[FLAC__SUBFRAME_LPC_QLP_COEFF_PRECISION_LEN]
	.loc	4 450 6
	{
		mov r0, r6
		nop
	}
	bl FLAC__bitwriter_write_raw_uint32
	bf r0, .LBB5_23
.Ltmp482:
	{
		nop
		ldw r1, r7[5]
	}
	.loc	4 452 6
.Ltmp483:
	ldw r2, cp[FLAC__SUBFRAME_LPC_QLP_SHIFT_LEN]
	.loc	4 452 6
	{
		mov r0, r6
		nop
	}
	bl FLAC__bitwriter_write_raw_int32
	bf r0, .LBB5_23
.Ltmp484:
	{
		nop
		ldw r0, r7[3]
	}
	bf r0, .LBB5_15
.Ltmp485:
	ldaw r8, r7[6]
	{
		ldc r5, 0
		nop
	}
	{
		mov r9, r5
		nop
	}
.Ltmp486:
.LBB5_13:
	{
		nop
		ldw r1, r8[r9]
	}
	.loc	4 455 7
.Ltmp487:
	{
		mov r0, r6
		ldw r2, r7[4]
	}
	.loc	4 455 7
	bl FLAC__bitwriter_write_raw_int32
	.loc	4 455 7
	bf r0, .LBB5_14
.Ltmp488:
	.loc	4 454 34
	{
		add r9, r9, 1
		ldw r0, r7[3]
	}
.Ltmp489:
	.loc	4 454 2
	{
		lsu r0, r9, r0
		nop
	}
	bt r0, .LBB5_13
.Ltmp490:
.LBB5_15:
	{
		nop
		ldw r1, r7[0]
	}
	.loc	4 516 6
.Ltmp491:
	ldw r2, cp[FLAC__ENTROPY_CODING_METHOD_TYPE_LEN]
.Ltmp492:
	.loc	4 516 6
	{
		mov r0, r6
		nop
	}
	bl FLAC__bitwriter_write_raw_uint32
	bf r0, .LBB5_23
.Ltmp493:
	.loc	4 518 2
	{
		mkmsk r8, 1
		ldw r0, r7[0]
	}
	.loc	4 518 2
	{
		lsu r0, r8, r0
		nop
	}
	bt r0, .LBB5_18
.Ltmp494:
	{
		nop
		ldw r1, r7[1]
	}
	.loc	4 521 8
.Ltmp495:
	ldw r2, cp[FLAC__ENTROPY_CODING_METHOD_PARTITIONED_RICE_ORDER_LEN]
	.loc	4 521 8
	{
		mov r0, r6
		nop
	}
	bl FLAC__bitwriter_write_raw_uint32
	bt r0, .LBB5_19
	bu .LBB5_23
.Ltmp496:
.LBB5_7:
	{
		mov r4, r5
		nop
	}
	bu .LBB5_23
.LBB5_14:
	{
		mov r4, r5
		nop
	}
	bu .LBB5_23
.LBB5_18:
.Ltmp497:
	{
		ldc r0, 0
		nop
	}
	.loc	4 525 4
	bl assert
.Ltmp498:
.LBB5_19:
	{
		nop
		ldw r0, r7[0]
	}
	.loc	4 460 2
	{
		lsu r1, r8, r0
		nop
	}
	bt r1, .LBB5_21
.Ltmp499:
	ldc r1, 408
	.loc	4 463 8
.Ltmp500:
	{
		add r1, r7, r1
		nop
	}
	{
		nop
		ldw r1, r1[0]
	}
	{
		nop
		ldw r3, r7[3]
	}
	{
		nop
		ldw r2, r7[2]
	}
	{
		nop
		ldw r11, r2[0]
	}
	{
		nop
		ldw r2, r2[1]
	}
	.loc	4 463 8
	{
		eq r0, r0, 1
		ldw r5, r7[1]
	}
	.loc	4 463 8
	std r5, r2, sp[1]
	{
		nop
		stw r0, sp[4]
	}
	{
		mov r0, r6
		stw r11, sp[1]
	}
	{
		nop
		ldw r2, sp[5]
	}
	bl add_residual_partitioned_rice_
	bt r0, .LBB5_22
	bu .LBB5_23
.Ltmp501:
.LBB5_21:
	{
		ldc r0, 0
		nop
	}
	.loc	4 476 4
	bl assert
.Ltmp502:
.LBB5_22:
	{
		mov r4, r8
		nop
	}
.LBB5_23:
	.loc	4 480 1
	{
		mov r0, r4
		ldw r10, sp[12]
	}
	ldd r9, r8, sp[5]
	ldd r7, r6, sp[4]
	ldd r5, r4, sp[3]
	{
		nop
		retsp 14
	}
	# RETURN_REG_HOLDER
.Ltmp503:
	.cc_bottom FLAC__subframe_add_lpc.function
	.set	FLAC__subframe_add_lpc.nstackwords,((FLAC__bitwriter_write_unary_unsigned.nstackwords $M FLAC__bitwriter_write_raw_uint32.nstackwords $M add_residual_partitioned_rice_.nstackwords $M assert.nstackwords $M FLAC__bitwriter_write_raw_int32.nstackwords $M FLAC__bitwriter_write_raw_int64.nstackwords) + 14)
	.globl	FLAC__subframe_add_lpc.nstackwords
	.set	FLAC__subframe_add_lpc.maxcores,FLAC__bitwriter_write_raw_int32.maxcores $M FLAC__bitwriter_write_raw_int64.maxcores $M FLAC__bitwriter_write_raw_uint32.maxcores $M FLAC__bitwriter_write_unary_unsigned.maxcores $M add_residual_partitioned_rice_.maxcores $M 1
	.globl	FLAC__subframe_add_lpc.maxcores
	.set	FLAC__subframe_add_lpc.maxtimers,FLAC__bitwriter_write_raw_int32.maxtimers $M FLAC__bitwriter_write_raw_int64.maxtimers $M FLAC__bitwriter_write_raw_uint32.maxtimers $M FLAC__bitwriter_write_unary_unsigned.maxtimers $M add_residual_partitioned_rice_.maxtimers $M 0
	.globl	FLAC__subframe_add_lpc.maxtimers
	.set	FLAC__subframe_add_lpc.maxchanends,FLAC__bitwriter_write_raw_int32.maxchanends $M FLAC__bitwriter_write_raw_int64.maxchanends $M FLAC__bitwriter_write_raw_uint32.maxchanends $M FLAC__bitwriter_write_unary_unsigned.maxchanends $M add_residual_partitioned_rice_.maxchanends $M 0
	.globl	FLAC__subframe_add_lpc.maxchanends
.Ltmp504:
	.size	FLAC__subframe_add_lpc, .Ltmp504-FLAC__subframe_add_lpc
.Lfunc_end5:
	.cfi_endproc

	.globl	FLAC__subframe_add_verbatim
	.align	4
	.type	FLAC__subframe_add_verbatim,@function
	.cc_top FLAC__subframe_add_verbatim.function,FLAC__subframe_add_verbatim
FLAC__subframe_add_verbatim:
.Lfunc_begin6:
	.loc	4 483 0
	.cfi_startproc
	.issue_mode dual
	{
		nop
		dualentsp 10
	}
.Ltmp505:
	.cfi_def_cfa_offset 40
.Ltmp506:
	.cfi_offset 15, 0
	std r5, r4, sp[1]
.Ltmp507:
	.cfi_offset 4, -32
.Ltmp508:
	.cfi_offset 5, -28
	std r7, r6, sp[2]
.Ltmp509:
	.cfi_offset 6, -24
.Ltmp510:
	.cfi_offset 7, -20
	std r9, r8, sp[3]
.Ltmp511:
	.cfi_offset 8, -16
.Ltmp512:
	.cfi_offset 9, -12
.Ltmp513:
	.cfi_offset 10, -8
.Ltmp514:
	{
		mov r9, r3
		stw r10, sp[8]
	}
.Ltmp515:
	{
		mov r4, r2
		mov r5, r1
	}
.Ltmp516:
	{
		mov r8, r0
		ldw r6, sp[11]
	}
.Ltmp517:
	.loc	4 486 6 prologue_end
	ldw r0, cp[FLAC__SUBFRAME_TYPE_VERBATIM_BYTE_ALIGNED_MASK]
	.loc	4 486 6
	{
		eq r1, r9, 0
		nop
	}
	{
		eq r1, r1, 0
		nop
	}
	.loc	4 486 6
	{
		or r1, r0, r1
		nop
	}
	.loc	4 486 6
	ldw r0, cp[FLAC__SUBFRAME_ZERO_PAD_LEN]
	.loc	4 486 6
	ldw r2, cp[FLAC__SUBFRAME_TYPE_LEN]
	.loc	4 486 6
	{
		add r0, r2, r0
		nop
	}
	.loc	4 486 6
	ldw r2, cp[FLAC__SUBFRAME_WASTED_BITS_FLAG_LEN]
	.loc	4 486 6
	{
		add r2, r0, r2
		mov r0, r6
	}
	.loc	4 486 6
	bl FLAC__bitwriter_write_raw_uint32
	{
		ldc r7, 0
		nop
	}
	bf r0, .LBB6_13
.Ltmp518:
	bf r9, .LBB6_3
.Ltmp519:
	.loc	4 489 7
	{
		sub r1, r9, 1
		mov r0, r6
	}
	.loc	4 489 7
	bl FLAC__bitwriter_write_unary_unsigned
	bf r0, .LBB6_13
.Ltmp520:
.LBB6_3:
	{
		nop
		ldw r0, r8[1]
	}
	.loc	4 492 5
.Ltmp521:
	bf r0, .LBB6_4
.Ltmp522:
	.loc	4 502 3
	{
		ldc r0, 33
		ldw r8, r8[0]
	}
.Ltmp523:
	.loc	4 504 3
	{
		eq r0, r4, r0
		nop
	}
	.loc	4 504 3
	bl assert
.Ltmp524:
	{
		mkmsk r7, 1
		nop
	}
	bf r5, .LBB6_13
.Ltmp525:
	{
		ldc r10, 0
		ldc r9, 0
	}
.Ltmp526:
.LBB6_11:
	.loc	4 507 8
	ldd r2, r1, r8[0]
	.loc	4 507 8
	{
		mov r0, r6
		mov r3, r4
	}
	bl FLAC__bitwriter_write_raw_int64
	.loc	4 507 8
	bf r0, .LBB6_12
.Ltmp527:
	.loc	4 506 27
	{
		add r10, r10, 1
		add r8, r8, 8
	}
.Ltmp528:
	.loc	4 506 3
	{
		lsu r0, r10, r5
		nop
	}
	bt r0, .LBB6_11
	bu .LBB6_13
.Ltmp529:
.LBB6_4:
	.loc	4 493 3
	{
		ldc r0, 33
		ldw r8, r8[0]
	}
.Ltmp530:
	.loc	4 495 3
	{
		lsu r0, r4, r0
		nop
	}
	.loc	4 495 3
	bl assert
.Ltmp531:
	{
		mkmsk r7, 1
		nop
	}
	bf r5, .LBB6_13
.Ltmp532:
	{
		ldc r10, 0
		ldc r9, 0
	}
.Ltmp533:
.LBB6_7:
	.loc	4 498 8
	{
		mov r0, r6
		ldw r1, r8[r10]
	}
	.loc	4 498 8
	{
		mov r2, r4
		nop
	}
	bl FLAC__bitwriter_write_raw_int32
	bf r0, .LBB6_12
.Ltmp534:
	.loc	4 497 27
	{
		add r10, r10, 1
		nop
	}
.Ltmp535:
	.loc	4 497 3
	{
		lsu r0, r10, r5
		nop
	}
	bt r0, .LBB6_7
	bu .LBB6_13
.Ltmp536:
.LBB6_12:
	{
		mov r7, r9
		nop
	}
.LBB6_13:
	.loc	4 512 1
	{
		mov r0, r7
		ldw r10, sp[8]
	}
	ldd r9, r8, sp[3]
	ldd r7, r6, sp[2]
	ldd r5, r4, sp[1]
	{
		nop
		retsp 10
	}
	# RETURN_REG_HOLDER
.Ltmp537:
	.cc_bottom FLAC__subframe_add_verbatim.function
	.set	FLAC__subframe_add_verbatim.nstackwords,((FLAC__bitwriter_write_raw_uint32.nstackwords $M FLAC__bitwriter_write_unary_unsigned.nstackwords $M FLAC__bitwriter_write_raw_int32.nstackwords $M assert.nstackwords $M FLAC__bitwriter_write_raw_int64.nstackwords) + 10)
	.globl	FLAC__subframe_add_verbatim.nstackwords
	.set	FLAC__subframe_add_verbatim.maxcores,FLAC__bitwriter_write_raw_int32.maxcores $M FLAC__bitwriter_write_raw_int64.maxcores $M FLAC__bitwriter_write_raw_uint32.maxcores $M FLAC__bitwriter_write_unary_unsigned.maxcores $M 1
	.globl	FLAC__subframe_add_verbatim.maxcores
	.set	FLAC__subframe_add_verbatim.maxtimers,FLAC__bitwriter_write_raw_int32.maxtimers $M FLAC__bitwriter_write_raw_int64.maxtimers $M FLAC__bitwriter_write_raw_uint32.maxtimers $M FLAC__bitwriter_write_unary_unsigned.maxtimers $M 0
	.globl	FLAC__subframe_add_verbatim.maxtimers
	.set	FLAC__subframe_add_verbatim.maxchanends,FLAC__bitwriter_write_raw_int32.maxchanends $M FLAC__bitwriter_write_raw_int64.maxchanends $M FLAC__bitwriter_write_raw_uint32.maxchanends $M FLAC__bitwriter_write_unary_unsigned.maxchanends $M 0
	.globl	FLAC__subframe_add_verbatim.maxchanends
.Ltmp538:
	.size	FLAC__subframe_add_verbatim, .Ltmp538-FLAC__subframe_add_verbatim
.Lfunc_end6:
	.cfi_endproc

.Ldebug_end0:
	.file	6 "C:\\Program Files (x86)\\XMOS\\xTIMEcomposer\\Community_14.4.1\\target/include/clang\\stddef.h"
	.section	.trap_info,"",@progbits
.Ltrap_info_entries_start0:
	.long	.Ltrap_info_entries_end0-.Ltrap_info_entries_start0
	.long	1
.Ltrap_info_entries_end0: