	.text
	.file	"C:/Users/takaaki/git/sw_xSSDAC/module_human_interface/src/button_listener.xc"
                                        # Start of file scope inline assembly
	.inline_definition delay_seconds
	.inline_definition delay_milliseconds
	.inline_definition delay_microseconds
	.globalresource 0x80300,"p_key","tile[1]"
	.pushsection .netinfo, "", @netinfo
	.int      0x1eaba15c
.globl p_key.info, "i:p"
p_key.info:
	.int 0x00080300
	.long tile + 4
	.popsection
	.set usage.anon.0,0
	.set usage.anon.1,0
	.set usage.anon.2,0
	.globread button_listener,console_mode,"C:/Users/takaaki/git/sw_xSSDAC/module_human_interface/src/button_listener.xc:287:31: note: object used here\n    unsafe {p_console_mode = &console_mode;}\n                              ^~~~~~~~~~~~"
	.globread KeyEvent,fixed_intpol_mode,"C:/Users/takaaki/git/sw_xSSDAC/module_human_interface/src/button_listener.xc:173:36: note: object used here\n            p_fixed_intpol_mode = &fixed_intpol_mode;\n                                   ^~~~~~~~~~~~~~~~~"
	.globread KeyEvent,proposed_intpol_mode,"C:/Users/takaaki/git/sw_xSSDAC/module_human_interface/src/button_listener.xc:172:39: note: object used here\n            p_proposed_intpol_mode = &proposed_intpol_mode;\n                                      ^~~~~~~~~~~~~~~~~~~~"
	.globread HandleDacCommand,fixed_intpol_mode,"C:/Users/takaaki/git/sw_xSSDAC/module_human_interface/src/button_listener.xc:96:22: note: object used here\n        c_control <: fixed_intpol_mode;\n                     ^~~~~~~~~~~~~~~~~"
	.globwrite button_listener,play_command_request,"C:/Users/takaaki/git/sw_xSSDAC/module_human_interface/src/button_listener.xc:312:13: note: object used here\n            play_command_request = 0;\n            ^~~~~~~~~~~~~~~~~~~~"
	.globwrite button_listener,play_command,"C:/Users/takaaki/git/sw_xSSDAC/module_human_interface/src/button_listener.xc:311:13: note: object used here\n            play_command = _PLAY_CMD_EMPTY;\n            ^~~~~~~~~~~~"
	.globwrite button_listener,scan_time,"C:/Users/takaaki/git/sw_xSSDAC/module_human_interface/src/button_listener.xc:295:10: note: object used here\n    t :> scan_time;\n         ^~~~~~~~~"
	.globwrite button_listener,key_buff,8,4,"C:/Users/takaaki/git/sw_xSSDAC/module_human_interface/src/button_listener.xc:293:5: note: object used here (bytes 8..12)\n    key_buff[2] = key_buff[1];\n    ^~~~~~~~~~~"
	.globwrite button_listener,key_buff,4,4,"C:/Users/takaaki/git/sw_xSSDAC/module_human_interface/src/button_listener.xc:292:5: note: object used here (bytes 4..8)\n    key_buff[1] = key_buff[0];\n    ^~~~~~~~~~~"
	.globwrite button_listener,key_buff,0,4,"C:/Users/takaaki/git/sw_xSSDAC/module_human_interface/src/button_listener.xc:291:14: note: object used here (bytes 0..4)\n    p_key :> key_buff[0];\n             ^~~~~~~~~~~"
	.globwrite button_listener,p_key,"C:/Users/takaaki/git/sw_xSSDAC/module_human_interface/src/button_listener.xc:291:5: note: object used here\n    p_key :> key_buff[0];\n    ^~~~~"
	.globwrite ExamineKeyInput,last_event_time,"C:/Users/takaaki/git/sw_xSSDAC/module_human_interface/src/button_listener.xc:225:9: note: object used here\n        last_event_time = now;\n        ^~~~~~~~~~~~~~~"
	.globwrite ExamineKeyInput,key_buff,8,4,"C:/Users/takaaki/git/sw_xSSDAC/module_human_interface/src/button_listener.xc:217:5: note: object used here (bytes 8..12)\n    key_buff[2] = key_buff[1];\n    ^~~~~~~~~~~"
	.globwrite ExamineKeyInput,key_buff,4,4,"C:/Users/takaaki/git/sw_xSSDAC/module_human_interface/src/button_listener.xc:218:5: note: object used here (bytes 4..8)\n    key_buff[1] = key_buff[0];\n    ^~~~~~~~~~~"
	.globwrite ExamineKeyInput,key_buff,0,4,"C:/Users/takaaki/git/sw_xSSDAC/module_human_interface/src/button_listener.xc:219:14: note: object used here (bytes 0..4)\n    p_key :> key_buff[0];\n             ^~~~~~~~~~~"
	.globwrite ExamineKeyInput,p_key,"C:/Users/takaaki/git/sw_xSSDAC/module_human_interface/src/button_listener.xc:219:5: note: object used here\n    p_key :> key_buff[0];\n    ^~~~~"
	.globwrite KeyEvent,play_command,"C:/Users/takaaki/git/sw_xSSDAC/module_human_interface/src/button_listener.xc:128:13: note: object used here\n            play_command = _PLAY_CMD_PREV_FOLDER;\n            ^~~~~~~~~~~~"
	.globwrite HandlePlayCommand,play_command_request,"C:/Users/takaaki/git/sw_xSSDAC/module_human_interface/src/button_listener.xc:82:9: note: object used here\n        play_command_request = 1;\n        ^~~~~~~~~~~~~~~~~~~~"
	.globwrite HandlePlayCommand,play_command,"C:/Users/takaaki/git/sw_xSSDAC/module_human_interface/src/button_listener.xc:77:9: note: object used here\n        play_command = _PLAY_CMD_EMPTY;\n        ^~~~~~~~~~~~"
	.globwrite HandlePlayCommand,p_key,"C:/Users/takaaki/git/sw_xSSDAC/module_human_interface/src/button_listener.xc:87:9: note: object used here\n        p_key :> temp;\n        ^~~~~"
	.call button_listener,set_display_control_flag
	.call button_listener,set_console_mode
	.call button_listener,HandleDacCommand
	.call button_listener,ExamineKeyInput
	.call ExamineKeyInput,KeyEvent
	.call KeyEvent,set_display_control_flag
	.call KeyEvent,printf
	.call KeyEvent,fflush
	.call KeyEvent,__getstdout
	.call KeyEvent,SwitchConsoleMode
	.call SwitchConsoleMode,set_display_control_flag
	.call HandleDacCommand,set_display_control_flag
	.call HandleDacCommand,debug_printf
	.call usage.anon.2,delay_ticks_longlong
	.call usage.anon.1,delay_ticks_longlong
	.call usage.anon.0,delay_ticks_longlong
	.set QueryChannel.locnoside, 0
	.set HandlePlayCommand.locnoside, 0
	.set HandleDacCommand.locnoside, 0
	.set KeyEvent.locnoside, 0
	.set ExamineKeyInput.locnoside, 0
	.set button_listener.locnoside, 0
	.set HandlePlayCommand.locnoglobalaccess, 0
	.set HandleDacCommand.locnoglobalaccess, 0
	.set SwitchConsoleMode.locnoglobalaccess, 0
	.set KeyEvent.locnoglobalaccess, 0
	.set ExamineKeyInput.locnoglobalaccess, 0
	.set button_listener.locnoglobalaccess, 0

                                        # End of file scope inline assembly
	.text
	.globl	QueryChannel
	.align	4
	.type	QueryChannel,@function
	.cc_top QueryChannel.function,QueryChannel
QueryChannel:                           # @QueryChannel
.Lfunc_begin0:
	.loc	1 65 0                  # C:/Users/takaaki/git/sw_xSSDAC/module_human_interface/src/button_listener.xc:65:0
	.cfi_startproc
	.issue_mode dual
# BB#0:                                 # %allocas
.Lxtalabel0:
	#DEBUG_VALUE: QueryChannel:ch <- R0
	#DEBUG_VALUE: QueryChannel:command <- R1
	{
		outct res[r0], 1
		dualentsp 0
	}
	.loc	1 67 18 prologue_end    # C:/Users/takaaki/git/sw_xSSDAC/module_human_interface/src/button_listener.xc:67:18
.Ltmp0:
	{
		chkct res[r0], 1
		nop
	}
	.loc	1 67 18                 # C:/Users/takaaki/git/sw_xSSDAC/module_human_interface/src/button_listener.xc:67:18
.Lxta.endpoint_labels0:
	{
		out res[r0], r1
		nop
	}
	.loc	1 67 18                 # C:/Users/takaaki/git/sw_xSSDAC/module_human_interface/src/button_listener.xc:67:18
	{
		outct res[r0], 1
		nop
	}
	.loc	1 67 18                 # C:/Users/takaaki/git/sw_xSSDAC/module_human_interface/src/button_listener.xc:67:18
	{
		chkct res[r0], 1
		nop
	}
	.loc	1 68 0                  # C:/Users/takaaki/git/sw_xSSDAC/module_human_interface/src/button_listener.xc:68:0
	{
		chkct res[r0], 1
		nop
	}
	.loc	1 68 0                  # C:/Users/takaaki/git/sw_xSSDAC/module_human_interface/src/button_listener.xc:68:0
	{
		outct res[r0], 1
		nop
	}
	.loc	1 68 0                  # C:/Users/takaaki/git/sw_xSSDAC/module_human_interface/src/button_listener.xc:68:0
.Lxta.endpoint_labels1:
	{
		in r1, res[r0]
		nop
	}
.Ltmp1:
	#DEBUG_VALUE: reply <- R1
	.loc	1 68 0                  # C:/Users/takaaki/git/sw_xSSDAC/module_human_interface/src/button_listener.xc:68:0
	{
		chkct res[r0], 1
		nop
	}
	.loc	1 68 0                  # C:/Users/takaaki/git/sw_xSSDAC/module_human_interface/src/button_listener.xc:68:0
	{
		outct res[r0], 1
		mov r0, r1
	}
.Ltmp2:
	{
		nop
		retsp 0
	}
	# RETURN_REG_HOLDER
.Ltmp3:
	.cc_bottom QueryChannel.function
	.set	QueryChannel.nstackwords,0
	.globl	QueryChannel.nstackwords
	.set	QueryChannel.maxcores,1
	.globl	QueryChannel.maxcores
	.set	QueryChannel.maxtimers,0
	.globl	QueryChannel.maxtimers
	.set	QueryChannel.maxchanends,0
	.globl	QueryChannel.maxchanends
.Ltmp4:
	.size	QueryChannel, .Ltmp4-QueryChannel
.Lfunc_end0:
	.cfi_endproc

	.section	.cp.rodata.cst4,"aMc",@progbits,4
	.cc_top .LCPI1_0.data,.LCPI1_0
	.align	4
	.type	.LCPI1_0,@object
	.size	.LCPI1_0, 4
.LCPI1_0:
	.long	1000000                 # 0xf4240
	.cc_bottom .LCPI1_0.data
	.text
	.globl	button_listener
	.align	4
	.type	button_listener,@function
	.cc_top button_listener.function,button_listener
button_listener:                        # @button_listener
.Lfunc_begin1:
	.loc	1 285 0                 # C:/Users/takaaki/git/sw_xSSDAC/module_human_interface/src/button_listener.xc:285:0
	.cfi_startproc
	.issue_mode dual
# BB#0:                                 # %allocas
.Lxtalabel1:
	{
		nop
		dualentsp 8
	}
.Ltmp5:
	.cfi_def_cfa_offset 32
.Ltmp6:
	.cfi_offset 15, 0
	std r5, r4, sp[1]               # 4-byte Folded Spill
.Ltmp7:
	.cfi_offset 4, -24
.Ltmp8:
	.cfi_offset 5, -20
	std r7, r6, sp[2]               # 4-byte Folded Spill
.Ltmp9:
	.cfi_offset 6, -16
.Ltmp10:
	.cfi_offset 7, -12
.Ltmp11:
	.cfi_offset 8, -8
	#DEBUG_VALUE: button_listener:c_play_control <- R0
	#DEBUG_VALUE: button_listener:c_dac_control <- R1
.Ltmp12:
	#DEBUG_VALUE: button_listener:c_dac_control <- R4
	{
		mov r4, r1
		stw r8, sp[6]
	}
.Ltmp13:
	{
		mov r5, r0
		nop
	}
.Ltmp14:
	#DEBUG_VALUE: button_listener:c_play_control <- R5
	.loc	1 287 0 prologue_end    # C:/Users/takaaki/git/sw_xSSDAC/module_human_interface/src/button_listener.xc:287:0
	ldaw r0, dp[console_mode]
	stw r0, dp[p_console_mode]
	.loc	1 291 0                 # C:/Users/takaaki/git/sw_xSSDAC/module_human_interface/src/button_listener.xc:291:0
.Ltmp15:
	ldw r0, dp[p_key]
	.loc	1 291 0                 # C:/Users/takaaki/git/sw_xSSDAC/module_human_interface/src/button_listener.xc:291:0
	{
		setc res[r0], 1
		nop
	}
	.loc	1 291 0                 # C:/Users/takaaki/git/sw_xSSDAC/module_human_interface/src/button_listener.xc:291:0
.Lxta.endpoint_labels2:
	{
		in r0, res[r0]
		nop
	}
	.loc	1 291 0                 # C:/Users/takaaki/git/sw_xSSDAC/module_human_interface/src/button_listener.xc:291:0
	stw r0, dp[key_buff]
	.loc	1 292 0                 # C:/Users/takaaki/git/sw_xSSDAC/module_human_interface/src/button_listener.xc:292:0
	stw r0, dp[key_buff+4]
	.loc	1 293 0                 # C:/Users/takaaki/git/sw_xSSDAC/module_human_interface/src/button_listener.xc:293:0
	stw r0, dp[key_buff+8]
	.loc	1 295 0                 # C:/Users/takaaki/git/sw_xSSDAC/module_human_interface/src/button_listener.xc:295:0
	{
		gettime r0
		nop
	}
	.loc	1 295 0                 # C:/Users/takaaki/git/sw_xSSDAC/module_human_interface/src/button_listener.xc:295:0
	stw r0, dp[scan_time]
	.loc	1 300 0                 # C:/Users/takaaki/git/sw_xSSDAC/module_human_interface/src/button_listener.xc:300:0
.Ltmp16:
.Lxta.call_labels0:
	bl _Sset_console_mode_0
	{
		ldc r0, 16
		nop
	}
	.loc	1 302 0                 # C:/Users/takaaki/git/sw_xSSDAC/module_human_interface/src/button_listener.xc:302:0
.Lxta.call_labels1:
	bl set_display_control_flag
	.loc	1 318 9                 # C:/Users/takaaki/git/sw_xSSDAC/module_human_interface/src/button_listener.xc:318:9
.Ltmp17:
	{
		get r11, id
		nop
	}
	.loc	1 318 9                 # C:/Users/takaaki/git/sw_xSSDAC/module_human_interface/src/button_listener.xc:318:9
	ldaw r0, dp[__timers]
	{
		nop
		ldw r6, r0[r11]
	}
	ldw r7, cp[.LCPI1_0]
	{
		ldc r8, 0
		nop
	}
	bu .LBB1_1
.Ltmp18:
.Ltmp19:                                # Block address taken
.LBB1_5:                                # %selectcase10
                                        #   in Loop: Header=BB1_1 Depth=1
.Lxtalabel2:
	#DEBUG_VALUE: button_listener:c_play_control <- R5
	#DEBUG_VALUE: button_listener:c_dac_control <- R4
	.loc	1 330 0                 # C:/Users/takaaki/git/sw_xSSDAC/module_human_interface/src/button_listener.xc:330:0
.Lxta.endpoint_labels3:
	{
		in r0, res[r6]
		nop
	}
.Ltmp20:
	.loc	1 331 0                 # C:/Users/takaaki/git/sw_xSSDAC/module_human_interface/src/button_listener.xc:331:0
.Lxta.call_labels2:
	bl ExamineKeyInput
	.loc	1 332 0                 # C:/Users/takaaki/git/sw_xSSDAC/module_human_interface/src/button_listener.xc:332:0
	ldw r0, dp[scan_time]
	.loc	1 332 0                 # C:/Users/takaaki/git/sw_xSSDAC/module_human_interface/src/button_listener.xc:332:0
	{
		add r0, r0, r7
		nop
	}
	.loc	1 332 0                 # C:/Users/takaaki/git/sw_xSSDAC/module_human_interface/src/button_listener.xc:332:0
	stw r0, dp[scan_time]
.Ltmp21:
.LBB1_1:                                # %LoopBody
                                        # =>This Inner Loop Header: Depth=1
.Lxtalabel3:
	#DEBUG_VALUE: button_listener:c_play_control <- R5
	#DEBUG_VALUE: button_listener:c_dac_control <- R4
	.loc	1 309 9                 # C:/Users/takaaki/git/sw_xSSDAC/module_human_interface/src/button_listener.xc:309:9
	ldw r0, dp[play_command_request]
	.loc	1 309 9                 # C:/Users/takaaki/git/sw_xSSDAC/module_human_interface/src/button_listener.xc:309:9
	{
		eq r0, r0, 1
		nop
	}
	bf r0, .LBB1_4
.Ltmp22:
# BB#2:                                 # %LoopBody
                                        #   in Loop: Header=BB1_1 Depth=1
.Lxtalabel4:
	#DEBUG_VALUE: button_listener:c_play_control <- R5
	#DEBUG_VALUE: button_listener:c_dac_control <- R4
	ldw r0, dp[play_command]
	bf r0, .LBB1_4
.Ltmp23:
# BB#3:                                 # %iftrue3
                                        #   in Loop: Header=BB1_1 Depth=1
.Lxtalabel5:
	#DEBUG_VALUE: button_listener:c_play_control <- R5
	#DEBUG_VALUE: button_listener:c_dac_control <- R4
	.loc	1 310 43                # C:/Users/takaaki/git/sw_xSSDAC/module_human_interface/src/button_listener.xc:310:43
	{
		outct res[r5], 1
		nop
	}
	.loc	1 310 43                # C:/Users/takaaki/git/sw_xSSDAC/module_human_interface/src/button_listener.xc:310:43
	{
		chkct res[r5], 1
		nop
	}
	.loc	1 310 43                # C:/Users/takaaki/git/sw_xSSDAC/module_human_interface/src/button_listener.xc:310:43
.Lxta.endpoint_labels4:
	{
		out res[r5], r0
		nop
	}
	.loc	1 310 43                # C:/Users/takaaki/git/sw_xSSDAC/module_human_interface/src/button_listener.xc:310:43
	{
		outct res[r5], 1
		nop
	}
	.loc	1 310 43                # C:/Users/takaaki/git/sw_xSSDAC/module_human_interface/src/button_listener.xc:310:43
	{
		chkct res[r5], 1
		nop
	}
	.loc	1 311 0                 # C:/Users/takaaki/git/sw_xSSDAC/module_human_interface/src/button_listener.xc:311:0
	stw r8, dp[play_command]
	.loc	1 312 0                 # C:/Users/takaaki/git/sw_xSSDAC/module_human_interface/src/button_listener.xc:312:0
	stw r8, dp[play_command_request]
.Ltmp24:
.LBB1_4:                                # %ifdone4
                                        #   in Loop: Header=BB1_1 Depth=1
.Lxtalabel6:
	#DEBUG_VALUE: button_listener:c_play_control <- R5
	#DEBUG_VALUE: button_listener:c_dac_control <- R4
	.loc	1 318 9                 # C:/Users/takaaki/git/sw_xSSDAC/module_human_interface/src/button_listener.xc:318:9
	{
		clre
		nop
	}
	ldap r11, .Ltmp25
	.loc	1 318 9                 # C:/Users/takaaki/git/sw_xSSDAC/module_human_interface/src/button_listener.xc:318:9
	{
		setv res[r4], r11
		nop
	}
	.loc	1 318 9                 # C:/Users/takaaki/git/sw_xSSDAC/module_human_interface/src/button_listener.xc:318:9
	{
		eeu res[r4]
		nop
	}
	.loc	1 318 9                 # C:/Users/takaaki/git/sw_xSSDAC/module_human_interface/src/button_listener.xc:318:9
	ldw r0, dp[scan_time]
	.loc	1 318 9                 # C:/Users/takaaki/git/sw_xSSDAC/module_human_interface/src/button_listener.xc:318:9
	{
		setd res[r6], r0
		nop
	}
	.loc	1 318 9                 # C:/Users/takaaki/git/sw_xSSDAC/module_human_interface/src/button_listener.xc:318:9
	{
		setc res[r6], 9
		nop
	}
	ldap r11, .Ltmp19
	.loc	1 318 9                 # C:/Users/takaaki/git/sw_xSSDAC/module_human_interface/src/button_listener.xc:318:9
	{
		setv res[r6], r11
		nop
	}
	.loc	1 318 9                 # C:/Users/takaaki/git/sw_xSSDAC/module_human_interface/src/button_listener.xc:318:9
	{
		eeu res[r6]
		nop
	}
	.loc	1 333 0                 # C:/Users/takaaki/git/sw_xSSDAC/module_human_interface/src/button_listener.xc:333:0

	.xtabranch .LBB1_6, .LBB1_5
	{
		waiteu
		nop
	}
.Ltmp26:
.Ltmp25:                                # Block address taken
.LBB1_6:                                # %selectcase
                                        #   in Loop: Header=BB1_1 Depth=1
.Lxtalabel7:
	#DEBUG_VALUE: button_listener:c_play_control <- R5
	#DEBUG_VALUE: button_listener:c_dac_control <- R4
	.loc	1 326 0                 # C:/Users/takaaki/git/sw_xSSDAC/module_human_interface/src/button_listener.xc:326:0
	{
		chkct res[r4], 1
		nop
	}
	.loc	1 326 0                 # C:/Users/takaaki/git/sw_xSSDAC/module_human_interface/src/button_listener.xc:326:0
	{
		outct res[r4], 1
		nop
	}
	.loc	1 326 0                 # C:/Users/takaaki/git/sw_xSSDAC/module_human_interface/src/button_listener.xc:326:0
.Lxta.endpoint_labels5:
	{
		in r1, res[r4]
		nop
	}
.Ltmp27:
	#DEBUG_VALUE: dac_command <- R1
	.loc	1 326 0                 # C:/Users/takaaki/git/sw_xSSDAC/module_human_interface/src/button_listener.xc:326:0
	{
		chkct res[r4], 1
		nop
	}
	#DEBUG_VALUE: button_listener:c_play_control <- R5
	#DEBUG_VALUE: button_listener:c_dac_control <- R4
	#DEBUG_VALUE: dac_command <- R1
	.loc	1 326 0                 # C:/Users/takaaki/git/sw_xSSDAC/module_human_interface/src/button_listener.xc:326:0
.Ltrap_info0:
	{
		outct res[r4], 1
		ecallf r4
	}
	.loc	1 327 0                 # C:/Users/takaaki/git/sw_xSSDAC/module_human_interface/src/button_listener.xc:327:0
	{
		mov r0, r4
		nop
	}
.Lxta.call_labels3:
	bl HandleDacCommand
.Ltmp28:
	bu .LBB1_1
.Ltmp29:
	.cc_bottom button_listener.function
	.set	button_listener.nstackwords,((_Sset_console_mode_0.nstackwords $M set_display_control_flag.nstackwords $M HandleDacCommand.nstackwords $M ExamineKeyInput.nstackwords) + 8)
	.globl	button_listener.nstackwords
	.set	button_listener.maxcores,ExamineKeyInput.maxcores $M HandleDacCommand.maxcores $M _Sset_console_mode_0.maxcores $M set_display_control_flag.maxcores $M 1
	.globl	button_listener.maxcores
	.set	button_listener.maxtimers,ExamineKeyInput.maxtimers $M HandleDacCommand.maxtimers $M _Sset_console_mode_0.maxtimers $M set_display_control_flag.maxtimers $M 0
	.globl	button_listener.maxtimers
	.set	button_listener.maxchanends,ExamineKeyInput.maxchanends $M HandleDacCommand.maxchanends $M _Sset_console_mode_0.maxchanends $M set_display_control_flag.maxchanends $M 0
	.globl	button_listener.maxchanends
.Ltmp30:
	.size	button_listener, .Ltmp30-button_listener
.Lfunc_end1:
	.cfi_endproc

	.section	.cp.rodata.cst4,"aMc",@progbits,4
	.cc_top .LCPI2_0.data,.LCPI2_0
	.align	4
	.type	.LCPI2_0,@object
	.size	.LCPI2_0, 4
.LCPI2_0:
	.long	1000000                 # 0xf4240
	.cc_bottom .LCPI2_0.data
	.text
	.globl	_Sbutton_listener_0
	.align	4
	.type	_Sbutton_listener_0,@function
	.cc_top _Sbutton_listener_0.function,_Sbutton_listener_0
_Sbutton_listener_0:                    # @_Sbutton_listener_0
.Lfunc_begin2:
	.loc	1 285 0                 # C:/Users/takaaki/git/sw_xSSDAC/module_human_interface/src/button_listener.xc:285:0
	.cfi_startproc
	.issue_mode dual
# BB#0:                                 # %allocas
.Lxtalabel8:
	{
		nop
		dualentsp 6
	}
.Ltmp31:
	.cfi_def_cfa_offset 24
.Ltmp32:
	.cfi_offset 15, 0
	std r5, r4, sp[1]               # 4-byte Folded Spill
.Ltmp33:
	.cfi_offset 4, -16
.Ltmp34:
	.cfi_offset 5, -12
	std r7, r6, sp[2]               # 4-byte Folded Spill
.Ltmp35:
	.cfi_offset 6, -8
.Ltmp36:
	.cfi_offset 7, -4
	#DEBUG_VALUE: button_listener:c_dac_control <- R0
	{
		mov r4, r0
		nop
	}
.Ltmp37:
	#DEBUG_VALUE: button_listener:c_dac_control <- R4
	.loc	1 287 0 prologue_end    # C:/Users/takaaki/git/sw_xSSDAC/module_human_interface/src/button_listener.xc:287:0
	ldaw r0, dp[console_mode]
	stw r0, dp[p_console_mode]
	.loc	1 291 0                 # C:/Users/takaaki/git/sw_xSSDAC/module_human_interface/src/button_listener.xc:291:0
.Ltmp38:
	ldw r0, dp[p_key]
	.loc	1 291 0                 # C:/Users/takaaki/git/sw_xSSDAC/module_human_interface/src/button_listener.xc:291:0
	{
		setc res[r0], 1
		nop
	}
	.loc	1 291 0                 # C:/Users/takaaki/git/sw_xSSDAC/module_human_interface/src/button_listener.xc:291:0
.Lxta.endpoint_labels6:
	{
		in r0, res[r0]
		nop
	}
	.loc	1 291 0                 # C:/Users/takaaki/git/sw_xSSDAC/module_human_interface/src/button_listener.xc:291:0
	stw r0, dp[key_buff]
	.loc	1 292 0                 # C:/Users/takaaki/git/sw_xSSDAC/module_human_interface/src/button_listener.xc:292:0
	stw r0, dp[key_buff+4]
	.loc	1 293 0                 # C:/Users/takaaki/git/sw_xSSDAC/module_human_interface/src/button_listener.xc:293:0
	stw r0, dp[key_buff+8]
	.loc	1 295 0                 # C:/Users/takaaki/git/sw_xSSDAC/module_human_interface/src/button_listener.xc:295:0
	{
		gettime r0
		nop
	}
	.loc	1 295 0                 # C:/Users/takaaki/git/sw_xSSDAC/module_human_interface/src/button_listener.xc:295:0
	stw r0, dp[scan_time]
	.loc	1 300 0                 # C:/Users/takaaki/git/sw_xSSDAC/module_human_interface/src/button_listener.xc:300:0
.Ltmp39:
.Lxta.call_labels4:
	bl _Sset_console_mode_0
	{
		ldc r0, 16
		nop
	}
	.loc	1 302 0                 # C:/Users/takaaki/git/sw_xSSDAC/module_human_interface/src/button_listener.xc:302:0
.Lxta.call_labels5:
	bl set_display_control_flag
	.loc	1 318 9                 # C:/Users/takaaki/git/sw_xSSDAC/module_human_interface/src/button_listener.xc:318:9
.Ltmp40:
	{
		get r11, id
		nop
	}
	.loc	1 318 9                 # C:/Users/takaaki/git/sw_xSSDAC/module_human_interface/src/button_listener.xc:318:9
	ldaw r0, dp[__timers]
	{
		nop
		ldw r5, r0[r11]
	}
	ldw r6, cp[.LCPI2_0]
	{
		ldc r7, 0
		nop
	}
	bu .LBB2_1
.Ltmp41:
.Ltmp42:                                # Block address taken
.LBB2_5:                                # %selectcase10
                                        #   in Loop: Header=BB2_1 Depth=1
.Lxtalabel9:
	#DEBUG_VALUE: button_listener:c_dac_control <- R4
	.loc	1 330 0                 # C:/Users/takaaki/git/sw_xSSDAC/module_human_interface/src/button_listener.xc:330:0
.Lxta.endpoint_labels7:
	{
		in r0, res[r5]
		nop
	}
.Ltmp43:
	.loc	1 331 0                 # C:/Users/takaaki/git/sw_xSSDAC/module_human_interface/src/button_listener.xc:331:0
.Lxta.call_labels6:
	bl ExamineKeyInput
	.loc	1 332 0                 # C:/Users/takaaki/git/sw_xSSDAC/module_human_interface/src/button_listener.xc:332:0
	ldw r0, dp[scan_time]
	.loc	1 332 0                 # C:/Users/takaaki/git/sw_xSSDAC/module_human_interface/src/button_listener.xc:332:0
	{
		add r0, r0, r6
		nop
	}
	.loc	1 332 0                 # C:/Users/takaaki/git/sw_xSSDAC/module_human_interface/src/button_listener.xc:332:0
	stw r0, dp[scan_time]
.Ltmp44:
.LBB2_1:                                # %LoopBody
                                        # =>This Inner Loop Header: Depth=1
.Lxtalabel10:
	#DEBUG_VALUE: button_listener:c_dac_control <- R4
	.loc	1 309 9                 # C:/Users/takaaki/git/sw_xSSDAC/module_human_interface/src/button_listener.xc:309:9
	ldw r0, dp[play_command_request]
	.loc	1 309 9                 # C:/Users/takaaki/git/sw_xSSDAC/module_human_interface/src/button_listener.xc:309:9
	{
		eq r0, r0, 1
		nop
	}
	bf r0, .LBB2_4
.Ltmp45:
# BB#2:                                 # %LoopBody
                                        #   in Loop: Header=BB2_1 Depth=1
.Lxtalabel11:
	#DEBUG_VALUE: button_listener:c_dac_control <- R4
	ldw r0, dp[play_command]
	bf r0, .LBB2_4
.Ltmp46:
# BB#3:                                 # %iftrue3
                                        #   in Loop: Header=BB2_1 Depth=1
.Lxtalabel12:
	#DEBUG_VALUE: button_listener:c_dac_control <- R4
	#DEBUG_VALUE: c_play_control <- R7
	.loc	1 310 43                # C:/Users/takaaki/git/sw_xSSDAC/module_human_interface/src/button_listener.xc:310:43
	{
		outct res[r7], 1
		nop
	}
	.loc	1 310 43                # C:/Users/takaaki/git/sw_xSSDAC/module_human_interface/src/button_listener.xc:310:43
	{
		chkct res[r7], 1
		nop
	}
	.loc	1 310 43                # C:/Users/takaaki/git/sw_xSSDAC/module_human_interface/src/button_listener.xc:310:43
.Lxta.endpoint_labels8:
	{
		out res[r7], r0
		nop
	}
	.loc	1 310 43                # C:/Users/takaaki/git/sw_xSSDAC/module_human_interface/src/button_listener.xc:310:43
	{
		outct res[r7], 1
		nop
	}
	.loc	1 310 43                # C:/Users/takaaki/git/sw_xSSDAC/module_human_interface/src/button_listener.xc:310:43
	{
		chkct res[r7], 1
		nop
	}
	.loc	1 311 0                 # C:/Users/takaaki/git/sw_xSSDAC/module_human_interface/src/button_listener.xc:311:0
	stw r7, dp[play_command]
	.loc	1 312 0                 # C:/Users/takaaki/git/sw_xSSDAC/module_human_interface/src/button_listener.xc:312:0
	stw r7, dp[play_command_request]
.Ltmp47:
.LBB2_4:                                # %ifdone4
                                        #   in Loop: Header=BB2_1 Depth=1
.Lxtalabel13:
	#DEBUG_VALUE: button_listener:c_dac_control <- R4
	.loc	1 318 9                 # C:/Users/takaaki/git/sw_xSSDAC/module_human_interface/src/button_listener.xc:318:9
	{
		clre
		nop
	}
	ldap r11, .Ltmp48
	.loc	1 318 9                 # C:/Users/takaaki/git/sw_xSSDAC/module_human_interface/src/button_listener.xc:318:9
	{
		setv res[r4], r11
		nop
	}
	.loc	1 318 9                 # C:/Users/takaaki/git/sw_xSSDAC/module_human_interface/src/button_listener.xc:318:9
	{
		eeu res[r4]
		nop
	}
	.loc	1 318 9                 # C:/Users/takaaki/git/sw_xSSDAC/module_human_interface/src/button_listener.xc:318:9
	ldw r0, dp[scan_time]
	.loc	1 318 9                 # C:/Users/takaaki/git/sw_xSSDAC/module_human_interface/src/button_listener.xc:318:9
	{
		setd res[r5], r0
		nop
	}
	.loc	1 318 9                 # C:/Users/takaaki/git/sw_xSSDAC/module_human_interface/src/button_listener.xc:318:9
	{
		setc res[r5], 9
		nop
	}
	ldap r11, .Ltmp42
	.loc	1 318 9                 # C:/Users/takaaki/git/sw_xSSDAC/module_human_interface/src/button_listener.xc:318:9
	{
		setv res[r5], r11
		nop
	}
	.loc	1 318 9                 # C:/Users/takaaki/git/sw_xSSDAC/module_human_interface/src/button_listener.xc:318:9
	{
		eeu res[r5]
		nop
	}
	.loc	1 333 0                 # C:/Users/takaaki/git/sw_xSSDAC/module_human_interface/src/button_listener.xc:333:0

	.xtabranch .LBB2_6, .LBB2_5
	{
		waiteu
		nop
	}
.Ltmp49:
.Ltmp48:                                # Block address taken
.LBB2_6:                                # %selectcase
                                        #   in Loop: Header=BB2_1 Depth=1
.Lxtalabel14:
	#DEBUG_VALUE: button_listener:c_dac_control <- R4
	.loc	1 326 0                 # C:/Users/takaaki/git/sw_xSSDAC/module_human_interface/src/button_listener.xc:326:0
	{
		chkct res[r4], 1
		nop
	}
	.loc	1 326 0                 # C:/Users/takaaki/git/sw_xSSDAC/module_human_interface/src/button_listener.xc:326:0
	{
		outct res[r4], 1
		nop
	}
	.loc	1 326 0                 # C:/Users/takaaki/git/sw_xSSDAC/module_human_interface/src/button_listener.xc:326:0
.Lxta.endpoint_labels9:
	{
		in r1, res[r4]
		nop
	}
.Ltmp50:
	#DEBUG_VALUE: dac_command <- R1
	.loc	1 326 0                 # C:/Users/takaaki/git/sw_xSSDAC/module_human_interface/src/button_listener.xc:326:0
	{
		chkct res[r4], 1
		nop
	}
	#DEBUG_VALUE: button_listener:c_dac_control <- R4
	#DEBUG_VALUE: dac_command <- R1
	.loc	1 326 0                 # C:/Users/takaaki/git/sw_xSSDAC/module_human_interface/src/button_listener.xc:326:0
.Ltrap_info1:
	{
		outct res[r4], 1
		ecallf r4
	}
	.loc	1 327 0                 # C:/Users/takaaki/git/sw_xSSDAC/module_human_interface/src/button_listener.xc:327:0
	{
		mov r0, r4
		nop
	}
.Lxta.call_labels7:
	bl HandleDacCommand
.Ltmp51:
	bu .LBB2_1
.Ltmp52:
	.cc_bottom _Sbutton_listener_0.function
	.set	_Sbutton_listener_0.nstackwords,((_Sset_console_mode_0.nstackwords $M set_display_control_flag.nstackwords $M HandleDacCommand.nstackwords $M ExamineKeyInput.nstackwords) + 6)
	.globl	_Sbutton_listener_0.nstackwords
	.set	_Sbutton_listener_0.maxcores,ExamineKeyInput.maxcores $M HandleDacCommand.maxcores $M _Sset_console_mode_0.maxcores $M set_display_control_flag.maxcores $M 1
	.globl	_Sbutton_listener_0.maxcores
	.set	_Sbutton_listener_0.maxtimers,ExamineKeyInput.maxtimers $M HandleDacCommand.maxtimers $M _Sset_console_mode_0.maxtimers $M set_display_control_flag.maxtimers $M 0
	.globl	_Sbutton_listener_0.maxtimers
	.set	_Sbutton_listener_0.maxchanends,ExamineKeyInput.maxchanends $M HandleDacCommand.maxchanends $M _Sset_console_mode_0.maxchanends $M set_display_control_flag.maxchanends $M 0
	.globl	_Sbutton_listener_0.maxchanends
.Ltmp53:
	.size	_Sbutton_listener_0, .Ltmp53-_Sbutton_listener_0
.Lfunc_end2:
	.cfi_endproc

	.globl	HandlePlayCommand
	.align	4
	.type	HandlePlayCommand,@function
	.cc_top HandlePlayCommand.function,HandlePlayCommand
HandlePlayCommand:                      # @HandlePlayCommand
.Lfunc_begin3:
	.loc	1 72 0                  # C:/Users/takaaki/git/sw_xSSDAC/module_human_interface/src/button_listener.xc:72:0
	.cfi_startproc
	.issue_mode dual
# BB#0:                                 # %allocas
.Lxtalabel15:
	#DEBUG_VALUE: HandlePlayCommand:c_control <- R0
	#DEBUG_VALUE: HandlePlayCommand:type <- R1
	{
		eq r2, r1, 2
		dualentsp 0
	}
	.loc	1 74 0 prologue_end     # C:/Users/takaaki/git/sw_xSSDAC/module_human_interface/src/button_listener.xc:74:0
.Ltmp54:
	bt r2, .LBB3_5
.Ltmp55:
# BB#1:                                 # %allocas
.Lxtalabel16:
	#DEBUG_VALUE: HandlePlayCommand:c_control <- R0
	#DEBUG_VALUE: HandlePlayCommand:type <- R1
	{
		eq r2, r1, 1
		nop
	}
	bf r2, .LBB3_2
.Ltmp56:
# BB#4:                                 # %switchcase1
.Lxtalabel17:
	{
		ldc r0, 0
		nop
	}
	.loc	1 81 0                  # C:/Users/takaaki/git/sw_xSSDAC/module_human_interface/src/button_listener.xc:81:0
	stw r0, dp[play_command]
	{
		mkmsk r0, 1
		nop
	}
	.loc	1 82 0                  # C:/Users/takaaki/git/sw_xSSDAC/module_human_interface/src/button_listener.xc:82:0
	stw r0, dp[play_command_request]
	{
		nop
		retsp 0
	}
	# RETURN_REG_HOLDER
.LBB3_5:                                # %switchcase2
.Lxtalabel18:
.Ltmp57:
	#DEBUG_VALUE: HandlePlayCommand:c_control <- R0
	.loc	1 87 0                  # C:/Users/takaaki/git/sw_xSSDAC/module_human_interface/src/button_listener.xc:87:0
	ldw r1, dp[p_key]
	.loc	1 87 0                  # C:/Users/takaaki/git/sw_xSSDAC/module_human_interface/src/button_listener.xc:87:0
	{
		setc res[r1], 1
		nop
	}
	.loc	1 87 0                  # C:/Users/takaaki/git/sw_xSSDAC/module_human_interface/src/button_listener.xc:87:0
.Lxta.endpoint_labels10:
	{
		in r1, res[r1]
		nop
	}
.Ltmp58:
	#DEBUG_VALUE: temp <- R1
	.loc	1 88 26                 # C:/Users/takaaki/git/sw_xSSDAC/module_human_interface/src/button_listener.xc:88:26
	{
		outct res[r0], 1
		nop
	}
	.loc	1 88 26                 # C:/Users/takaaki/git/sw_xSSDAC/module_human_interface/src/button_listener.xc:88:26
	{
		chkct res[r0], 1
		nop
	}
	.loc	1 88 26                 # C:/Users/takaaki/git/sw_xSSDAC/module_human_interface/src/button_listener.xc:88:26
.Lxta.endpoint_labels11:
	{
		out res[r0], r1
		nop
	}
	.loc	1 88 26                 # C:/Users/takaaki/git/sw_xSSDAC/module_human_interface/src/button_listener.xc:88:26
	{
		outct res[r0], 1
		nop
	}
	.loc	1 88 26                 # C:/Users/takaaki/git/sw_xSSDAC/module_human_interface/src/button_listener.xc:88:26
	{
		chkct res[r0], 1
		nop
	}
	bu .LBB3_6
.Ltmp59:
.LBB3_2:                                # %allocas
.Lxtalabel19:
	#DEBUG_VALUE: HandlePlayCommand:c_control <- R0
	#DEBUG_VALUE: HandlePlayCommand:type <- R1
	bt r1, .LBB3_6
.Ltmp60:
# BB#3:                                 # %switchcase
.Lxtalabel20:
	#DEBUG_VALUE: HandlePlayCommand:c_control <- R0
	.loc	1 76 34                 # C:/Users/takaaki/git/sw_xSSDAC/module_human_interface/src/button_listener.xc:76:34
	ldw r1, dp[play_command]
	.loc	1 76 34                 # C:/Users/takaaki/git/sw_xSSDAC/module_human_interface/src/button_listener.xc:76:34
	{
		outct res[r0], 1
		nop
	}
	.loc	1 76 34                 # C:/Users/takaaki/git/sw_xSSDAC/module_human_interface/src/button_listener.xc:76:34
	{
		chkct res[r0], 1
		nop
	}
	.loc	1 76 34                 # C:/Users/takaaki/git/sw_xSSDAC/module_human_interface/src/button_listener.xc:76:34
.Lxta.endpoint_labels12:
	{
		out res[r0], r1
		nop
	}
	.loc	1 76 34                 # C:/Users/takaaki/git/sw_xSSDAC/module_human_interface/src/button_listener.xc:76:34
	{
		outct res[r0], 1
		nop
	}
	.loc	1 76 34                 # C:/Users/takaaki/git/sw_xSSDAC/module_human_interface/src/button_listener.xc:76:34
	{
		chkct res[r0], 1
		ldc r0, 0
	}
.Ltmp61:
	.loc	1 77 0                  # C:/Users/takaaki/git/sw_xSSDAC/module_human_interface/src/button_listener.xc:77:0
	stw r0, dp[play_command]
	{
		nop
		retsp 0
	}
	# RETURN_REG_HOLDER
.Ltmp62:
.LBB3_6:                                # %return
.Lxtalabel21:
	{
		nop
		retsp 0
	}
	# RETURN_REG_HOLDER
	.cc_bottom HandlePlayCommand.function
	.set	HandlePlayCommand.nstackwords,0
	.globl	HandlePlayCommand.nstackwords
	.set	HandlePlayCommand.maxcores,1
	.globl	HandlePlayCommand.maxcores
	.set	HandlePlayCommand.maxtimers,0
	.globl	HandlePlayCommand.maxtimers
	.set	HandlePlayCommand.maxchanends,0
	.globl	HandlePlayCommand.maxchanends
.Ltmp63:
	.size	HandlePlayCommand, .Ltmp63-HandlePlayCommand
.Lfunc_end3:
	.cfi_endproc

	.globl	HandleDacCommand
	.align	4
	.type	HandleDacCommand,@function
	.cc_top HandleDacCommand.function,HandleDacCommand
HandleDacCommand:                       # @HandleDacCommand
.Lfunc_begin4:
	.loc	1 93 0                  # C:/Users/takaaki/git/sw_xSSDAC/module_human_interface/src/button_listener.xc:93:0
	.cfi_startproc
	.issue_mode dual
# BB#0:                                 # %allocas
.Lxtalabel22:
.Ltmp64:
	.cfi_def_cfa_offset 8
.Ltmp65:
	.cfi_offset 15, 0
	#DEBUG_VALUE: HandleDacCommand:c_control <- R0
	#DEBUG_VALUE: HandleDacCommand:command <- R1
	{
		eq r2, r1, 1
		dualentsp 2
	}
	.loc	1 94 0 prologue_end     # C:/Users/takaaki/git/sw_xSSDAC/module_human_interface/src/button_listener.xc:94:0
.Ltmp66:
	bf r2, .LBB4_1
.Ltmp67:
# BB#3:                                 # %switchcase
.Lxtalabel23:
	#DEBUG_VALUE: HandleDacCommand:c_control <- R0
	.loc	1 96 39                 # C:/Users/takaaki/git/sw_xSSDAC/module_human_interface/src/button_listener.xc:96:39
	ldw r1, dp[fixed_intpol_mode]
	.loc	1 96 39                 # C:/Users/takaaki/git/sw_xSSDAC/module_human_interface/src/button_listener.xc:96:39
	{
		outct res[r0], 1
		nop
	}
	.loc	1 96 39                 # C:/Users/takaaki/git/sw_xSSDAC/module_human_interface/src/button_listener.xc:96:39
	{
		chkct res[r0], 1
		nop
	}
	.loc	1 96 39                 # C:/Users/takaaki/git/sw_xSSDAC/module_human_interface/src/button_listener.xc:96:39
.Lxta.endpoint_labels13:
	{
		out res[r0], r1
		nop
	}
	.loc	1 96 39                 # C:/Users/takaaki/git/sw_xSSDAC/module_human_interface/src/button_listener.xc:96:39
	{
		outct res[r0], 1
		nop
	}
	.loc	1 96 39                 # C:/Users/takaaki/git/sw_xSSDAC/module_human_interface/src/button_listener.xc:96:39
	{
		chkct res[r0], 1
		retsp 2
	}
	# RETURN_REG_HOLDER
.Ltmp68:
.LBB4_1:                                # %allocas
.Lxtalabel24:
	#DEBUG_VALUE: HandleDacCommand:c_control <- R0
	#DEBUG_VALUE: HandleDacCommand:command <- R1
	{
		eq r2, r1, 2
		nop
	}
	bf r2, .LBB4_2
.Ltmp69:
# BB#4:                                 # %switchcase1
.Lxtalabel25:
	#DEBUG_VALUE: HandleDacCommand:c_control <- R0
	.loc	1 101 0                 # C:/Users/takaaki/git/sw_xSSDAC/module_human_interface/src/button_listener.xc:101:0
	{
		chkct res[r0], 1
		nop
	}
	.loc	1 101 0                 # C:/Users/takaaki/git/sw_xSSDAC/module_human_interface/src/button_listener.xc:101:0
	{
		outct res[r0], 1
		nop
	}
	.loc	1 101 0                 # C:/Users/takaaki/git/sw_xSSDAC/module_human_interface/src/button_listener.xc:101:0
.Lxta.endpoint_labels14:
	{
		in r1, res[r0]
		nop
	}
.Ltmp70:
	#DEBUG_VALUE: temp <- R1
	.loc	1 101 0                 # C:/Users/takaaki/git/sw_xSSDAC/module_human_interface/src/button_listener.xc:101:0
	{
		chkct res[r0], 1
		nop
	}
	.loc	1 101 0                 # C:/Users/takaaki/git/sw_xSSDAC/module_human_interface/src/button_listener.xc:101:0
	{
		outct res[r0], 1
		nop
	}
	.loc	1 102 0                 # C:/Users/takaaki/git/sw_xSSDAC/module_human_interface/src/button_listener.xc:102:0
	stw r1, dp[fixed_intpol_mode]
	ldc r0, 512
.Ltmp71:
	.loc	1 103 0                 # C:/Users/takaaki/git/sw_xSSDAC/module_human_interface/src/button_listener.xc:103:0
.Lxta.call_labels8:
	bl set_display_control_flag
.Ltmp72:
	{
		nop
		retsp 2
	}
	# RETURN_REG_HOLDER
.Ltmp73:
.LBB4_2:                                # %switchdefault
.Lxtalabel26:
	#DEBUG_VALUE: HandleDacCommand:command <- R1
	.loc	1 106 0                 # C:/Users/takaaki/git/sw_xSSDAC/module_human_interface/src/button_listener.xc:106:0
	ldaw r11, cp[.str]
	{
		mov r0, r11
		nop
	}
.Lxta.call_labels9:
	bl debug_printf
.Ltmp74:
	{
		nop
		retsp 2
	}
	# RETURN_REG_HOLDER
.Ltmp75:
	.cc_bottom HandleDacCommand.function
	.set	HandleDacCommand.nstackwords,((set_display_control_flag.nstackwords $M debug_printf.nstackwords) + 2)
	.globl	HandleDacCommand.nstackwords
	.set	HandleDacCommand.maxcores,debug_printf.maxcores $M set_display_control_flag.maxcores $M 1
	.globl	HandleDacCommand.maxcores
	.set	HandleDacCommand.maxtimers,debug_printf.maxtimers $M set_display_control_flag.maxtimers $M 0
	.globl	HandleDacCommand.maxtimers
	.set	HandleDacCommand.maxchanends,debug_printf.maxchanends $M set_display_control_flag.maxchanends $M 0
	.globl	HandleDacCommand.maxchanends
.Ltmp76:
	.size	HandleDacCommand, .Ltmp76-HandleDacCommand
.Lfunc_end4:
	.cfi_endproc

	.globl	SwitchConsoleMode
	.align	4
	.type	SwitchConsoleMode,@function
	.cc_top SwitchConsoleMode.function,SwitchConsoleMode
SwitchConsoleMode:                      # @SwitchConsoleMode
.Lfunc_begin5:
	.loc	1 111 0                 # C:/Users/takaaki/git/sw_xSSDAC/module_human_interface/src/button_listener.xc:111:0
	.cfi_startproc
	.issue_mode dual
# BB#0:                                 # %allocas
.Lxtalabel27:
	{
		nop
		dualentsp 2
	}
.Ltmp77:
	.cfi_def_cfa_offset 8
.Ltmp78:
	.cfi_offset 15, 0
	#DEBUG_VALUE: SwitchConsoleMode:mode <- R0
	.loc	1 112 0 prologue_end    # C:/Users/takaaki/git/sw_xSSDAC/module_human_interface/src/button_listener.xc:112:0
.Ltmp79:
	ldw r1, dp[p_console_mode]
	.loc	1 112 0                 # C:/Users/takaaki/git/sw_xSSDAC/module_human_interface/src/button_listener.xc:112:0
	{
		ldc r0, 16
		stw r0, r1[0]
	}
.Ltmp80:
	.loc	1 113 0                 # C:/Users/takaaki/git/sw_xSSDAC/module_human_interface/src/button_listener.xc:113:0
.Lxta.call_labels10:
	bl set_display_control_flag
	{
		nop
		retsp 2
	}
	# RETURN_REG_HOLDER
.Ltmp81:
	.cc_bottom SwitchConsoleMode.function
	.set	SwitchConsoleMode.nstackwords,(set_display_control_flag.nstackwords + 2)
	.globl	SwitchConsoleMode.nstackwords
	.set	SwitchConsoleMode.maxcores,set_display_control_flag.maxcores $M 1
	.globl	SwitchConsoleMode.maxcores
	.set	SwitchConsoleMode.maxtimers,set_display_control_flag.maxtimers $M 0
	.globl	SwitchConsoleMode.maxtimers
	.set	SwitchConsoleMode.maxchanends,set_display_control_flag.maxchanends $M 0
	.globl	SwitchConsoleMode.maxchanends
.Ltmp82:
	.size	SwitchConsoleMode, .Ltmp82-SwitchConsoleMode
.Lfunc_end5:
	.cfi_endproc

	.globl	KeyEvent
	.align	4
	.type	KeyEvent,@function
	.cc_top KeyEvent.function,KeyEvent
KeyEvent:                               # @KeyEvent
.Lfunc_begin6:
	.loc	1 116 0                 # C:/Users/takaaki/git/sw_xSSDAC/module_human_interface/src/button_listener.xc:116:0
	.cfi_startproc
	.issue_mode dual
# BB#0:                                 # %allocas
.Lxtalabel28:
	{
		nop
		dualentsp 4
	}
.Ltmp83:
	.cfi_def_cfa_offset 16
.Ltmp84:
	.cfi_offset 15, 0
	std r5, r4, sp[1]               # 4-byte Folded Spill
.Ltmp85:
	.cfi_offset 4, -8
.Ltmp86:
	.cfi_offset 5, -4
	#DEBUG_VALUE: KeyEvent:event <- R0
	{
		mov r4, r0
		nop
	}
.Ltmp87:
	#DEBUG_VALUE: KeyEvent:event <- R4
	.loc	1 119 0 prologue_end    # C:/Users/takaaki/git/sw_xSSDAC/module_human_interface/src/button_listener.xc:119:0
	ldw r0, dp[p_console_mode]
	{
		nop
		ldw r5, r0[0]
	}
.Ltmp88:
	#DEBUG_VALUE: mode <- R5
	.loc	1 121 0                 # C:/Users/takaaki/git/sw_xSSDAC/module_human_interface/src/button_listener.xc:121:0
	ldaw r11, cp[.str1]
	{
		mov r0, r11
		mov r1, r5
	}
	{
		mov r2, r4
		nop
	}
.Lxta.call_labels11:
	bl iprintf
	.loc	1 122 0                 # C:/Users/takaaki/git/sw_xSSDAC/module_human_interface/src/button_listener.xc:122:0
	bl __getstdout
	.loc	1 122 0                 # C:/Users/takaaki/git/sw_xSSDAC/module_human_interface/src/button_listener.xc:122:0
.Lxta.call_labels12:
	bl fflush
	.loc	1 124 0                 # C:/Users/takaaki/git/sw_xSSDAC/module_human_interface/src/button_listener.xc:124:0
	{
		eq r0, r5, 3
		nop
	}
	bt r0, .LBB6_14
.Ltmp89:
# BB#1:                                 # %allocas
.Lxtalabel29:
	#DEBUG_VALUE: KeyEvent:event <- R4
	{
		eq r0, r5, 2
		nop
	}
	bf r0, .LBB6_2
.Ltmp90:
# BB#16:                                # %switchcase2
.Lxtalabel30:
	#DEBUG_VALUE: KeyEvent:event <- R4
	.loc	1 160 0                 # C:/Users/takaaki/git/sw_xSSDAC/module_human_interface/src/button_listener.xc:160:0
	{
		eq r0, r4, 7
		nop
	}
	bf r0, .LBB6_27
	bu .LBB6_17
.Ltmp91:
.LBB6_14:                               # %switchcase26
.Lxtalabel31:
	#DEBUG_VALUE: KeyEvent:event <- R4
	.loc	1 176 0                 # C:/Users/takaaki/git/sw_xSSDAC/module_human_interface/src/button_listener.xc:176:0
	{
		sub r1, r4, 1
		ldc r0, 6
	}
	{
		lsu r2, r0, r1
		nop
	}
	bt r2, .LBB6_18
.Ltmp92:
# BB#15:                                # %switchcase26
.Lxtalabel32:

	.xtabranch .Ljumptable0+4,.Ljumptable0+8,.Ljumptable0+12,.Ljumptable0+16,.Ljumptable0+20,.Ljumptable0+24,.Ljumptable0+28
.Ljumptable0:
		
	{
		nop
		bru r1
	}
	.jmptable32 .LBB6_19,.LBB6_20,.LBB6_21,.LBB6_22,.LBB6_23,.LBB6_18,.LBB6_24
.LBB6_19:                               # %switchcase36
.Lxtalabel33:
	{
		mkmsk r0, 1
		nop
	}
	bu .LBB6_23
.LBB6_2:                                # %allocas
.Lxtalabel34:
.Ltmp93:
	#DEBUG_VALUE: KeyEvent:event <- R4
	{
		eq r0, r5, 1
		nop
	}
	bf r0, .LBB6_27
.Ltmp94:
# BB#3:                                 # %switchcase
.Lxtalabel35:
	#DEBUG_VALUE: KeyEvent:event <- R4
	.loc	1 126 0                 # C:/Users/takaaki/git/sw_xSSDAC/module_human_interface/src/button_listener.xc:126:0
	{
		sub r0, r4, 4
		nop
	}
	{
		shr r1, r0, 1
		ldc r2, 10
	}
	{
		lsu r1, r2, r1
		nop
	}
	bt r1, .LBB6_27
.Ltmp95:
# BB#4:                                 # %switchcase
.Lxtalabel36:

	.xtabranch .Ljumptable1+4,.Ljumptable1+8,.Ljumptable1+12,.Ljumptable1+16,.Ljumptable1+20,.Ljumptable1+24,.Ljumptable1+28,.Ljumptable1+32,.Ljumptable1+36,.Ljumptable1+40,.Ljumptable1+44,.Ljumptable1+48,.Ljumptable1+52,.Ljumptable1+56,.Ljumptable1+60,.Ljumptable1+64,.Ljumptable1+68,.Ljumptable1+72,.Ljumptable1+76,.Ljumptable1+80,.Ljumptable1+84,.Ljumptable1+88
.Ljumptable1:
		
	{
		nop
		bru r0
	}
	.jmptable32 .LBB6_11,.LBB6_27,.LBB6_27,.LBB6_17,.LBB6_27,.LBB6_27,.LBB6_27,.LBB6_6,.LBB6_7,.LBB6_9,.LBB6_27,.LBB6_12,.LBB6_27,.LBB6_27,.LBB6_27,.LBB6_27,.LBB6_27,.LBB6_5,.LBB6_8,.LBB6_10,.LBB6_27,.LBB6_13
.LBB6_11:                               # %switchcase16
.Lxtalabel37:
	{
		mkmsk r0, 3
		nop
	}
	.loc	1 146 0                 # C:/Users/takaaki/git/sw_xSSDAC/module_human_interface/src/button_listener.xc:146:0
	stw r0, dp[play_command]
	bu .LBB6_27
.LBB6_18:                               # %switchdefault34
.Lxtalabel38:
	.loc	1 207 0                 # C:/Users/takaaki/git/sw_xSSDAC/module_human_interface/src/button_listener.xc:207:0
.Ltmp96:
	ldw r0, dp[proposed_intpol_mode]
	.loc	1 207 0                 # C:/Users/takaaki/git/sw_xSSDAC/module_human_interface/src/button_listener.xc:207:0
	stw r0, dp[fixed_intpol_mode]
	bu .LBB6_27
.Ltmp97:
.LBB6_17:                               # %switchcase22
.Lxtalabel39:
	#DEBUG_VALUE: SwitchConsoleMode:mode <- 3
	.loc	1 112 0                 # C:/Users/takaaki/git/sw_xSSDAC/module_human_interface/src/button_listener.xc:112:0
	ldw r0, dp[p_console_mode]
	{
		mkmsk r1, 2
		nop
	}
.Ltmp98:
.LBB6_25:                               # %return
.Lxtalabel40:
	.loc	1 112 0                 # C:/Users/takaaki/git/sw_xSSDAC/module_human_interface/src/button_listener.xc:112:0
	{
		ldc r0, 16
		stw r1, r0[0]
	}
	bu .LBB6_26
.Ltmp99:
.LBB6_20:                               # %switchcase37
.Lxtalabel41:
	{
		ldc r0, 2
		nop
	}
	bu .LBB6_23
.LBB6_21:                               # %switchcase39
.Lxtalabel42:
	{
		ldc r0, 4
		nop
	}
	bu .LBB6_23
.LBB6_22:                               # %switchcase42
.Lxtalabel43:
	{
		ldc r0, 5
		nop
	}
.LBB6_23:                               # %switchcase45
.Lxtalabel44:
	.loc	1 194 0                 # C:/Users/takaaki/git/sw_xSSDAC/module_human_interface/src/button_listener.xc:194:0
	stw r0, dp[proposed_intpol_mode]
	ldc r0, 256
.LBB6_26:                               # %return
.Lxtalabel45:
	.loc	1 113 0                 # C:/Users/takaaki/git/sw_xSSDAC/module_human_interface/src/button_listener.xc:113:0
.Ltmp100:
.Lxta.call_labels13:
	bl set_display_control_flag
.Ltmp101:
.LBB6_27:                               # %return
.Lxtalabel46:
	ldd r5, r4, sp[1]               # 4-byte Folded Reload
	{
		nop
		retsp 4
	}
	# RETURN_REG_HOLDER
.LBB6_24:                               # %switchcase48
.Lxtalabel47:
	.loc	1 201 0                 # C:/Users/takaaki/git/sw_xSSDAC/module_human_interface/src/button_listener.xc:201:0
	ldaw r11, cp[.str2]
	{
		mov r0, r11
		nop
	}
.Lxta.call_labels14:
	bl iprintf
.Ltmp102:
	#DEBUG_VALUE: SwitchConsoleMode:mode <- 2
	.loc	1 112 0                 # C:/Users/takaaki/git/sw_xSSDAC/module_human_interface/src/button_listener.xc:112:0
	ldw r0, dp[p_console_mode]
	{
		ldc r1, 2
		nop
	}
	bu .LBB6_25
.Ltmp103:
.LBB6_6:                                # %switchcase7
.Lxtalabel48:
	{
		mkmsk r0, 2
		nop
	}
	.loc	1 131 0                 # C:/Users/takaaki/git/sw_xSSDAC/module_human_interface/src/button_listener.xc:131:0
	stw r0, dp[play_command]
	bu .LBB6_27
.LBB6_7:                                # %switchcase8
.Lxtalabel49:
	{
		ldc r0, 6
		nop
	}
	.loc	1 134 0                 # C:/Users/takaaki/git/sw_xSSDAC/module_human_interface/src/button_listener.xc:134:0
	stw r0, dp[play_command]
	bu .LBB6_27
.LBB6_9:                                # %switchcase12
.Lxtalabel50:
	{
		ldc r0, 8
		nop
	}
	.loc	1 140 0                 # C:/Users/takaaki/git/sw_xSSDAC/module_human_interface/src/button_listener.xc:140:0
	stw r0, dp[play_command]
	bu .LBB6_27
.LBB6_12:                               # %switchcase18
.Lxtalabel51:
	{
		ldc r0, 4
		nop
	}
	.loc	1 149 0                 # C:/Users/takaaki/git/sw_xSSDAC/module_human_interface/src/button_listener.xc:149:0
	stw r0, dp[play_command]
	bu .LBB6_27
.LBB6_5:                                # %switchcase6
.Lxtalabel52:
	{
		mkmsk r0, 1
		nop
	}
	.loc	1 128 0                 # C:/Users/takaaki/git/sw_xSSDAC/module_human_interface/src/button_listener.xc:128:0
	stw r0, dp[play_command]
	bu .LBB6_27
.LBB6_8:                                # %switchcase10
.Lxtalabel53:
	{
		ldc r0, 5
		nop
	}
	.loc	1 137 0                 # C:/Users/takaaki/git/sw_xSSDAC/module_human_interface/src/button_listener.xc:137:0
	stw r0, dp[play_command]
	bu .LBB6_27
.LBB6_10:                               # %switchcase14
.Lxtalabel54:
	{
		ldc r0, 9
		nop
	}
	.loc	1 143 0                 # C:/Users/takaaki/git/sw_xSSDAC/module_human_interface/src/button_listener.xc:143:0
	stw r0, dp[play_command]
	bu .LBB6_27
.LBB6_13:                               # %switchcase20
.Lxtalabel55:
	{
		ldc r0, 2
		nop
	}
	.loc	1 152 0                 # C:/Users/takaaki/git/sw_xSSDAC/module_human_interface/src/button_listener.xc:152:0
	stw r0, dp[play_command]
	bu .LBB6_27
.Ltmp104:
	.cc_bottom KeyEvent.function
	.set	KeyEvent.nstackwords,((__getstdout.nstackwords $M fflush.nstackwords $M set_display_control_flag.nstackwords $M iprintf.nstackwords) + 4)
	.globl	KeyEvent.nstackwords
	.set	KeyEvent.maxcores,__getstdout.maxcores $M fflush.maxcores $M iprintf.maxcores $M set_display_control_flag.maxcores $M 1
	.globl	KeyEvent.maxcores
	.set	KeyEvent.maxtimers,__getstdout.maxtimers $M fflush.maxtimers $M iprintf.maxtimers $M set_display_control_flag.maxtimers $M 0
	.globl	KeyEvent.maxtimers
	.set	KeyEvent.maxchanends,__getstdout.maxchanends $M fflush.maxchanends $M iprintf.maxchanends $M set_display_control_flag.maxchanends $M 0
	.globl	KeyEvent.maxchanends
.Ltmp105:
	.size	KeyEvent, .Ltmp105-KeyEvent
.Lfunc_end6:
	.cfi_endproc

	.section	.cp.rodata.cst4,"aMc",@progbits,4
	.cc_top .LCPI7_0.data,.LCPI7_0
	.align	4
	.type	.LCPI7_0,@object
	.size	.LCPI7_0, 4
.LCPI7_0:
	.long	4294967177              # 0xffffff89
	.cc_bottom .LCPI7_0.data
	.cc_top .LCPI7_1.data,.LCPI7_1
	.align	4
	.type	.LCPI7_1,@object
	.size	.LCPI7_1, 4
.LCPI7_1:
	.long	50000000                # 0x2faf080
	.cc_bottom .LCPI7_1.data
	.text
	.globl	ExamineKeyInput
	.align	4
	.type	ExamineKeyInput,@function
	.cc_top ExamineKeyInput.function,ExamineKeyInput
ExamineKeyInput:                        # @ExamineKeyInput
.Lfunc_begin7:
	.loc	1 214 0                 # C:/Users/takaaki/git/sw_xSSDAC/module_human_interface/src/button_listener.xc:214:0
	.cfi_startproc
	.issue_mode dual
# BB#0:                                 # %allocas
.Lxtalabel56:
	{
		nop
		dualentsp 6
	}
.Ltmp106:
	.cfi_def_cfa_offset 24
.Ltmp107:
	.cfi_offset 15, 0
	.loc	1 217 0 prologue_end    # C:/Users/takaaki/git/sw_xSSDAC/module_human_interface/src/button_listener.xc:217:0
.Ltmp108:
	std r5, r4, sp[1]               # 4-byte Folded Spill
.Ltmp109:
	.cfi_offset 4, -16
.Ltmp110:
	.cfi_offset 5, -12
	std r7, r6, sp[2]               # 4-byte Folded Spill
.Ltmp111:
	.cfi_offset 6, -8
.Ltmp112:
	.cfi_offset 7, -4
	ldw r0, dp[key_buff+4]
	.loc	1 217 0                 # C:/Users/takaaki/git/sw_xSSDAC/module_human_interface/src/button_listener.xc:217:0
	stw r0, dp[key_buff+8]
	.loc	1 218 0                 # C:/Users/takaaki/git/sw_xSSDAC/module_human_interface/src/button_listener.xc:218:0
	ldw r1, dp[key_buff]
	.loc	1 218 0                 # C:/Users/takaaki/git/sw_xSSDAC/module_human_interface/src/button_listener.xc:218:0
	stw r1, dp[key_buff+4]
	.loc	1 219 0                 # C:/Users/takaaki/git/sw_xSSDAC/module_human_interface/src/button_listener.xc:219:0
	ldw r2, dp[p_key]
	.loc	1 219 0                 # C:/Users/takaaki/git/sw_xSSDAC/module_human_interface/src/button_listener.xc:219:0
	{
		setc res[r2], 1
		nop
	}
	.loc	1 219 0                 # C:/Users/takaaki/git/sw_xSSDAC/module_human_interface/src/button_listener.xc:219:0
.Lxta.endpoint_labels15:
	{
		in r2, res[r2]
		nop
	}
	.loc	1 219 0                 # C:/Users/takaaki/git/sw_xSSDAC/module_human_interface/src/button_listener.xc:219:0
	stw r2, dp[key_buff]
	.loc	1 221 5                 # C:/Users/takaaki/git/sw_xSSDAC/module_human_interface/src/button_listener.xc:221:5
	{
		eq r3, r2, r1
		nop
	}
	bf r3, .LBB7_47
# BB#1:                                 # %allocas
.Lxtalabel57:
	{
		eq r2, r2, r0
		nop
	}
	bt r2, .LBB7_47
# BB#2:                                 # %iftrue
.Lxtalabel58:
	.loc	1 223 0                 # C:/Users/takaaki/git/sw_xSSDAC/module_human_interface/src/button_listener.xc:223:0
	{
		gettime r2
		nop
	}
.Ltmp113:
	#DEBUG_VALUE: now <- R2
	.loc	1 224 0                 # C:/Users/takaaki/git/sw_xSSDAC/module_human_interface/src/button_listener.xc:224:0
	ldw r3, dp[last_event_time]
	.loc	1 225 0                 # C:/Users/takaaki/git/sw_xSSDAC/module_human_interface/src/button_listener.xc:225:0
	stw r2, dp[last_event_time]
	.loc	1 227 0                 # C:/Users/takaaki/git/sw_xSSDAC/module_human_interface/src/button_listener.xc:227:0
	{
		zext r1, 7
		nop
	}
	ldc r11, 94
	.loc	1 227 0                 # C:/Users/takaaki/git/sw_xSSDAC/module_human_interface/src/button_listener.xc:227:0
	{
		lss r4, r11, r1
		nop
	}
	bt r4, .LBB7_5
.Ltmp114:
# BB#3:                                 # %iftrue
.Lxtalabel59:
	{
		mkmsk r0, 6
		nop
	}
	{
		eq r0, r1, r0
		nop
	}
	bf r0, .LBB7_47
# BB#4:                                 # %switchcase14
.Lxtalabel60:
	{
		mkmsk r0, 1
		nop
	}
	bu .LBB7_46
.LBB7_5:                                # %iftrue
.Lxtalabel61:
	ldc r4, 110
	{
		lss r5, r4, r1
		nop
	}
	bt r5, .LBB7_8
# BB#6:                                 # %iftrue
.Lxtalabel62:
	ldc r0, 95
	{
		eq r0, r1, r0
		nop
	}
	bf r0, .LBB7_47
# BB#7:                                 # %switchcase80
.Lxtalabel63:
	{
		ldc r0, 2
		nop
	}
	bu .LBB7_46
.LBB7_8:                                # %iftrue
.Lxtalabel64:
	ldc r5, 118
	{
		lss r6, r5, r1
		nop
	}
	bt r6, .LBB7_11
# BB#9:                                 # %iftrue
.Lxtalabel65:
	ldc r0, 111
	{
		eq r0, r1, r0
		nop
	}
	bf r0, .LBB7_47
# BB#10:                                # %switchcase82
.Lxtalabel66:
	{
		mkmsk r0, 2
		nop
	}
.LBB7_46:                               # %return
.Lxtalabel67:
	.loc	1 279 0                 # C:/Users/takaaki/git/sw_xSSDAC/module_human_interface/src/button_listener.xc:279:0
.Lxta.call_labels15:
	bl KeyEvent
.LBB7_47:                               # %return
.Lxtalabel68:
	ldd r7, r6, sp[2]               # 4-byte Folded Reload
	ldd r5, r4, sp[1]               # 4-byte Folded Reload
	{
		nop
		retsp 6
	}
	# RETURN_REG_HOLDER
.LBB7_11:                               # %iftrue
.Lxtalabel69:
	ldw r6, cp[.LCPI7_0]
	{
		add r1, r1, r6
		ldc r7, 8
	}
	{
		lsu r7, r7, r1
		nop
	}
	bt r7, .LBB7_47
# BB#12:                                # %iftrue
.Lxtalabel70:

	.xtabranch .Ljumptable2+4,.Ljumptable2+8,.Ljumptable2+12,.Ljumptable2+16,.Ljumptable2+20,.Ljumptable2+24,.Ljumptable2+28,.Ljumptable2+32,.Ljumptable2+36
.Ljumptable2:
		
	{
		nop
		bru r1
	}
	.jmptable32 .LBB7_42,.LBB7_47,.LBB7_47,.LBB7_47,.LBB7_43,.LBB7_47,.LBB7_44,.LBB7_45,.LBB7_13
.LBB7_42:                               # %switchcase84
.Lxtalabel71:
	{
		ldc r0, 4
		nop
	}
	bu .LBB7_46
.LBB7_43:                               # %switchcase86
.Lxtalabel72:
	{
		ldc r0, 5
		nop
	}
	bu .LBB7_46
.LBB7_44:                               # %switchcase88
.Lxtalabel73:
	{
		ldc r0, 6
		nop
	}
	bu .LBB7_46
.LBB7_45:                               # %switchcase90
.Lxtalabel74:
	{
		mkmsk r0, 3
		nop
	}
	bu .LBB7_46
.LBB7_13:                               # %switchcase
.Lxtalabel75:
.Ltmp115:
	#DEBUG_VALUE: elapsed_time <- R1
	.loc	1 224 0                 # C:/Users/takaaki/git/sw_xSSDAC/module_human_interface/src/button_listener.xc:224:0
	{
		sub r1, r2, r3
		zext r0, 7
	}
.Ltmp116:
	.loc	1 229 0                 # C:/Users/takaaki/git/sw_xSSDAC/module_human_interface/src/button_listener.xc:229:0
	{
		lss r2, r11, r0
		nop
	}
	bt r2, .LBB7_17
# BB#14:                                # %switchcase
.Lxtalabel76:
	{
		mkmsk r2, 6
		nop
	}
	{
		eq r0, r0, r2
		nop
	}
	bf r0, .LBB7_47
# BB#15:                                # %switchcase19
.Lxtalabel77:
	ldw r0, cp[.LCPI7_1]
	.loc	1 231 19                # C:/Users/takaaki/git/sw_xSSDAC/module_human_interface/src/button_listener.xc:231:19
	{
		lsu r0, r0, r1
		nop
	}
	.loc	1 231 19                # C:/Users/takaaki/git/sw_xSSDAC/module_human_interface/src/button_listener.xc:231:19
	bf r0, .LBB7_27
# BB#16:                                # %iftrue21
	{
		ldc r0, 21
		nop
	}
	bu .LBB7_46
.LBB7_17:                               # %switchcase
.Lxtalabel78:
	{
		lss r2, r4, r0
		nop
	}
	bt r2, .LBB7_21
# BB#18:                                # %switchcase
.Lxtalabel79:
	ldc r2, 95
	{
		eq r0, r0, r2
		nop
	}
	bf r0, .LBB7_47
# BB#19:                                # %switchcase20
.Lxtalabel80:
	ldw r0, cp[.LCPI7_1]
	.loc	1 235 19                # C:/Users/takaaki/git/sw_xSSDAC/module_human_interface/src/button_listener.xc:235:19
	{
		lsu r0, r0, r1
		nop
	}
	.loc	1 235 19                # C:/Users/takaaki/git/sw_xSSDAC/module_human_interface/src/button_listener.xc:235:19
	bf r0, .LBB7_28
# BB#20:                                # %iftrue27
	{
		ldc r0, 22
		nop
	}
	bu .LBB7_46
.LBB7_21:                               # %switchcase
.Lxtalabel81:
	{
		lss r2, r5, r0
		nop
	}
	bt r2, .LBB7_25
# BB#22:                                # %switchcase
.Lxtalabel82:
	ldc r2, 111
	{
		eq r0, r0, r2
		nop
	}
	bf r0, .LBB7_47
# BB#23:                                # %switchcase26
.Lxtalabel83:
	ldw r0, cp[.LCPI7_1]
	.loc	1 239 19                # C:/Users/takaaki/git/sw_xSSDAC/module_human_interface/src/button_listener.xc:239:19
	{
		lsu r0, r0, r1
		nop
	}
	.loc	1 239 19                # C:/Users/takaaki/git/sw_xSSDAC/module_human_interface/src/button_listener.xc:239:19
	bf r0, .LBB7_29
# BB#24:                                # %iftrue36
	{
		ldc r0, 23
		nop
	}
	bu .LBB7_46
.LBB7_27:                               # %iffalse
.Lxtalabel84:
	{
		ldc r0, 11
		nop
	}
	bu .LBB7_46
.LBB7_25:                               # %switchcase
.Lxtalabel85:
	{
		add r0, r0, r6
		mkmsk r2, 3
	}
	{
		lsu r2, r2, r0
		nop
	}
	bt r2, .LBB7_47
# BB#26:                                # %switchcase
.Lxtalabel86:

	.xtabranch .Ljumptable3+4,.Ljumptable3+8,.Ljumptable3+12,.Ljumptable3+16,.Ljumptable3+20,.Ljumptable3+24,.Ljumptable3+28,.Ljumptable3+32
.Ljumptable3:
		
	{
		nop
		bru r0
	}
	.jmptable32 .LBB7_30,.LBB7_47,.LBB7_47,.LBB7_47,.LBB7_33,.LBB7_47,.LBB7_36,.LBB7_39
.LBB7_30:                               # %switchcase35
.Lxtalabel87:
	ldw r0, cp[.LCPI7_1]
	.loc	1 243 19                # C:/Users/takaaki/git/sw_xSSDAC/module_human_interface/src/button_listener.xc:243:19
	{
		lsu r0, r0, r1
		nop
	}
	.loc	1 243 19                # C:/Users/takaaki/git/sw_xSSDAC/module_human_interface/src/button_listener.xc:243:19
	bf r0, .LBB7_32
# BB#31:                                # %iftrue45
	{
		ldc r0, 24
		nop
	}
	bu .LBB7_46
.LBB7_28:                               # %iffalse33
.Lxtalabel88:
	{
		ldc r0, 12
		nop
	}
	bu .LBB7_46
.LBB7_29:                               # %iffalse42
.Lxtalabel89:
	{
		ldc r0, 13
		nop
	}
	bu .LBB7_46
.LBB7_33:                               # %switchcase44
.Lxtalabel90:
	ldw r0, cp[.LCPI7_1]
	.loc	1 247 19                # C:/Users/takaaki/git/sw_xSSDAC/module_human_interface/src/button_listener.xc:247:19
	{
		lsu r0, r0, r1
		nop
	}
	.loc	1 247 19                # C:/Users/takaaki/git/sw_xSSDAC/module_human_interface/src/button_listener.xc:247:19
	bf r0, .LBB7_35
# BB#34:                                # %iftrue54
	{
		ldc r0, 25
		nop
	}
	bu .LBB7_46
.LBB7_36:                               # %switchcase53
.Lxtalabel91:
	ldw r0, cp[.LCPI7_1]
	.loc	1 251 19                # C:/Users/takaaki/git/sw_xSSDAC/module_human_interface/src/button_listener.xc:251:19
	{
		lsu r0, r0, r1
		nop
	}
	.loc	1 251 19                # C:/Users/takaaki/git/sw_xSSDAC/module_human_interface/src/button_listener.xc:251:19
	bf r0, .LBB7_38
# BB#37:                                # %iftrue63
	{
		ldc r0, 26
		nop
	}
	bu .LBB7_46
.LBB7_39:                               # %switchcase62
.Lxtalabel92:
	ldw r0, cp[.LCPI7_1]
	.loc	1 255 19                # C:/Users/takaaki/git/sw_xSSDAC/module_human_interface/src/button_listener.xc:255:19
	{
		lsu r0, r0, r1
		nop
	}
	.loc	1 255 19                # C:/Users/takaaki/git/sw_xSSDAC/module_human_interface/src/button_listener.xc:255:19
	bf r0, .LBB7_41
.Ltmp117:
# BB#40:                                # %iftrue71
	{
		ldc r0, 27
		nop
	}
	bu .LBB7_46
.LBB7_32:                               # %iffalse51
.Lxtalabel93:
	{
		ldc r0, 14
		nop
	}
	bu .LBB7_46
.LBB7_35:                               # %iffalse60
.Lxtalabel94:
	{
		mkmsk r0, 4
		nop
	}
	bu .LBB7_46
.LBB7_38:                               # %iffalse69
.Lxtalabel95:
	{
		ldc r0, 16
		nop
	}
	bu .LBB7_46
.LBB7_41:                               # %iffalse77
.Lxtalabel96:
	{
		ldc r0, 17
		nop
	}
	bu .LBB7_46
	.cc_bottom ExamineKeyInput.function
	.set	ExamineKeyInput.nstackwords,(KeyEvent.nstackwords + 6)
	.globl	ExamineKeyInput.nstackwords
	.set	ExamineKeyInput.maxcores,KeyEvent.maxcores $M 1
	.globl	ExamineKeyInput.maxcores
	.set	ExamineKeyInput.maxtimers,KeyEvent.maxtimers $M 0
	.globl	ExamineKeyInput.maxtimers
	.set	ExamineKeyInput.maxchanends,KeyEvent.maxchanends $M 0
	.globl	ExamineKeyInput.maxchanends
.Ltmp118:
	.size	ExamineKeyInput, .Ltmp118-ExamineKeyInput
.Lfunc_end7:
	.cfi_endproc

	.section	.dp.bss,"awd",@nobits
	.cc_top key_buff.data,key_buff
	.globl	key_buff.globound
key_buff.globound = 3
	.globl	key_buff
	.align	8
	.type	key_buff,@object
	.size	key_buff, 12
key_buff:
	.space	12
	.cc_bottom key_buff.data
	.section	.dp.bss.4,"awd",@nobits
	.cc_top scan_time.data,scan_time
	.globl	scan_time
	.align	4
	.type	scan_time,@object
	.size	scan_time, 4
scan_time:
	.long	0                       # 0x0
	.cc_bottom scan_time.data
	.cc_top p_console_mode.data,p_console_mode
	.globl	p_console_mode
	.align	4
	.type	p_console_mode,@object
	.size	p_console_mode, 4
p_console_mode:
	.long	0
	.cc_bottom p_console_mode.data
	.cc_top play_command.data,play_command
	.globl	play_command
	.align	4
	.type	play_command,@object
	.size	play_command, 4
play_command:
	.long	0                       # 0x0
	.cc_bottom play_command.data
	.section	.dp.data.4,"awd",@progbits
	.cc_top proposed_intpol_mode.data,proposed_intpol_mode
	.globl	proposed_intpol_mode
	.align	4
	.type	proposed_intpol_mode,@object
	.size	proposed_intpol_mode, 4
proposed_intpol_mode:
	.long	4                       # 0x4
	.cc_bottom proposed_intpol_mode.data
	.cc_top fixed_intpol_mode.data,fixed_intpol_mode
	.globl	fixed_intpol_mode
	.align	4
	.type	fixed_intpol_mode,@object
	.size	fixed_intpol_mode, 4
fixed_intpol_mode:
	.long	4                       # 0x4
	.cc_bottom fixed_intpol_mode.data
	.section	.dp.bss.4,"awd",@nobits
	.cc_top play_command_request.data,play_command_request
	.globl	play_command_request
	.align	4
	.type	play_command_request,@object
	.size	play_command_request, 4
play_command_request:
	.long	0                       # 0x0
	.cc_bottom play_command_request.data
	.cc_top last_event_time.data,last_event_time
	.globl	last_event_time
	.align	4
	.type	last_event_time,@object
	.size	last_event_time, 4
last_event_time:
	.long	0                       # 0x0
	.cc_bottom last_event_time.data
	.section	.cp.rodata.4,"ac",@progbits
	.cc_top .str.data,.str
	.align	4
	.type	.str,@object
	.size	.str, 44
.str:
.asciiz"\nbutton listner received invalid command:%d"
	.cc_bottom .str.data
	.cc_top .str1.data,.str1
	.align	4
	.type	.str1,@object
	.size	.str1, 21
.str1:
.asciiz"\nMode:%d KeyEvent:%d"
	.cc_bottom .str1.data
	.cc_top .str2.data,.str2
	.align	4
	.type	.str2,@object
	.size	.str2, 29
.str2:
.asciiz"\nSwitching to USB Audio Menu"
	.cc_bottom .str2.data
	.section	.dp.bss.4,"awd",@nobits
.Ldebug_end1:
	.section	.dp.bss,"awd",@nobits
.Ldebug_end2:
	.section	.dp.data.4,"awd",@progbits
.Ldebug_end3:
	.text
.Ldebug_end4:
	.file	2 "C:\\Program Files (x86)\\XMOS\\xTIMEcomposer\\Community_14.4.1\\target/include\\timer.h"
	.section	.xtacalltable,"",@progbits
.Lentries_start0:
	.long	.Lentries_end1-.Lentries_start0
	.long	0
	.ascii	"C:\\MEGA\\HobbyElec\\SSDAC\\xSSDAC\\xTIME\\WORKSPACE\\app_usb_ssdac_xSSDAC-SD-V2\\.build_2i10o10xxxxxx"
	.byte	0
.cc_top cc_0,.Lxta.call_labels8
	.ascii	"C:/Users/takaaki/git/sw_xSSDAC/module_human_interface/src/button_listener.xc"
	.byte	0
	.long	103
	.long	.Lxta.call_labels8
.cc_bottom cc_0
.cc_top cc_1,.Lxta.call_labels9
	.ascii	"C:/Users/takaaki/git/sw_xSSDAC/module_human_interface/src/button_listener.xc"
	.byte	0
	.long	106
	.long	.Lxta.call_labels9
.cc_bottom cc_1
.cc_top cc_2,.Lxta.call_labels10
	.ascii	"C:/Users/takaaki/git/sw_xSSDAC/module_human_interface/src/button_listener.xc"
	.byte	0
	.long	113
	.long	.Lxta.call_labels10
.cc_bottom cc_2
.cc_top cc_3,.Lxta.call_labels13
	.ascii	"C:/Users/takaaki/git/sw_xSSDAC/module_human_interface/src/button_listener.xc"
	.byte	0
	.long	113
	.long	.Lxta.call_labels13
.cc_bottom cc_3
.cc_top cc_4,.Lxta.call_labels11
	.ascii	"C:/Users/takaaki/git/sw_xSSDAC/module_human_interface/src/button_listener.xc"
	.byte	0
	.long	121
	.long	.Lxta.call_labels11
.cc_bottom cc_4
.cc_top cc_5,.Lxta.call_labels12
	.ascii	"C:/Users/takaaki/git/sw_xSSDAC/module_human_interface/src/button_listener.xc"
	.byte	0
	.long	122
	.long	.Lxta.call_labels12
.cc_bottom cc_5
.cc_top cc_6,.Lxta.call_labels14
	.ascii	"C:/Users/takaaki/git/sw_xSSDAC/module_human_interface/src/button_listener.xc"
	.byte	0
	.long	201
	.long	.Lxta.call_labels14
.cc_bottom cc_6
.cc_top cc_7,.Lxta.call_labels15
	.ascii	"C:/Users/takaaki/git/sw_xSSDAC/module_human_interface/src/button_listener.xc"
	.byte	0
	.long	279
	.long	.Lxta.call_labels15
.cc_bottom cc_7
.cc_top cc_8,.Lxta.call_labels0
	.ascii	"C:/Users/takaaki/git/sw_xSSDAC/module_human_interface/src/button_listener.xc"
	.byte	0
	.long	300
	.long	.Lxta.call_labels0
.cc_bottom cc_8
.cc_top cc_9,.Lxta.call_labels4
	.ascii	"C:/Users/takaaki/git/sw_xSSDAC/module_human_interface/src/button_listener.xc"
	.byte	0
	.long	300
	.long	.Lxta.call_labels4
.cc_bottom cc_9
.cc_top cc_10,.Lxta.call_labels1
	.ascii	"C:/Users/takaaki/git/sw_xSSDAC/module_human_interface/src/button_listener.xc"
	.byte	0
	.long	302
	.long	.Lxta.call_labels1
.cc_bottom cc_10
.cc_top cc_11,.Lxta.call_labels5
	.ascii	"C:/Users/takaaki/git/sw_xSSDAC/module_human_interface/src/button_listener.xc"
	.byte	0
	.long	302
	.long	.Lxta.call_labels5
.cc_bottom cc_11
.cc_top cc_12,.Lxta.call_labels3
	.ascii	"C:/Users/takaaki/git/sw_xSSDAC/module_human_interface/src/button_listener.xc"
	.byte	0
	.long	327
	.long	.Lxta.call_labels3
.cc_bottom cc_12
.cc_top cc_13,.Lxta.call_labels7
	.ascii	"C:/Users/takaaki/git/sw_xSSDAC/module_human_interface/src/button_listener.xc"
	.byte	0
	.long	327
	.long	.Lxta.call_labels7
.cc_bottom cc_13
.cc_top cc_14,.Lxta.call_labels2
	.ascii	"C:/Users/takaaki/git/sw_xSSDAC/module_human_interface/src/button_listener.xc"
	.byte	0
	.long	331
	.long	.Lxta.call_labels2
.cc_bottom cc_14
.cc_top cc_15,.Lxta.call_labels6
	.ascii	"C:/Users/takaaki/git/sw_xSSDAC/module_human_interface/src/button_listener.xc"
	.byte	0
	.long	331
	.long	.Lxta.call_labels6
.cc_bottom cc_15
.Lentries_end1:
	.section	.xtaendpointtable,"",@progbits
.Lentries_start2:
	.long	.Lentries_end3-.Lentries_start2
	.long	0
	.ascii	"C:\\MEGA\\HobbyElec\\SSDAC\\xSSDAC\\xTIME\\WORKSPACE\\app_usb_ssdac_xSSDAC-SD-V2\\.build_2i10o10xxxxxx"
	.byte	0
.cc_top cc_16,.Lxta.endpoint_labels0
	.ascii	"C:/Users/takaaki/git/sw_xSSDAC/module_human_interface/src/button_listener.xc"
	.byte	0
	.long	67
	.long	.Lxta.endpoint_labels0
.cc_bottom cc_16
.cc_top cc_17,.Lxta.endpoint_labels1
	.ascii	"C:/Users/takaaki/git/sw_xSSDAC/module_human_interface/src/button_listener.xc"
	.byte	0
	.long	68
	.long	.Lxta.endpoint_labels1
.cc_bottom cc_17
.cc_top cc_18,.Lxta.endpoint_labels12
	.ascii	"C:/Users/takaaki/git/sw_xSSDAC/module_human_interface/src/button_listener.xc"
	.byte	0
	.long	76
	.long	.Lxta.endpoint_labels12
.cc_bottom cc_18
.cc_top cc_19,.Lxta.endpoint_labels10
	.ascii	"C:/Users/takaaki/git/sw_xSSDAC/module_human_interface/src/button_listener.xc"
	.byte	0
	.long	87
	.long	.Lxta.endpoint_labels10
.cc_bottom cc_19
.cc_top cc_20,.Lxta.endpoint_labels11
	.ascii	"C:/Users/takaaki/git/sw_xSSDAC/module_human_interface/src/button_listener.xc"
	.byte	0
	.long	88
	.long	.Lxta.endpoint_labels11
.cc_bottom cc_20
.cc_top cc_21,.Lxta.endpoint_labels13
	.ascii	"C:/Users/takaaki/git/sw_xSSDAC/module_human_interface/src/button_listener.xc"
	.byte	0
	.long	96
	.long	.Lxta.endpoint_labels13
.cc_bottom cc_21
.cc_top cc_22,.Lxta.endpoint_labels14
	.ascii	"C:/Users/takaaki/git/sw_xSSDAC/module_human_interface/src/button_listener.xc"
	.byte	0
	.long	101
	.long	.Lxta.endpoint_labels14
.cc_bottom cc_22
.cc_top cc_23,.Lxta.endpoint_labels15
	.ascii	"C:/Users/takaaki/git/sw_xSSDAC/module_human_interface/src/button_listener.xc"
	.byte	0
	.long	219
	.long	.Lxta.endpoint_labels15
.cc_bottom cc_23
.cc_top cc_24,.Lxta.endpoint_labels2
	.ascii	"C:/Users/takaaki/git/sw_xSSDAC/module_human_interface/src/button_listener.xc"
	.byte	0
	.long	291
	.long	.Lxta.endpoint_labels2
.cc_bottom cc_24
.cc_top cc_25,.Lxta.endpoint_labels6
	.ascii	"C:/Users/takaaki/git/sw_xSSDAC/module_human_interface/src/button_listener.xc"
	.byte	0
	.long	291
	.long	.Lxta.endpoint_labels6
.cc_bottom cc_25
.cc_top cc_26,.Lxta.endpoint_labels4
	.ascii	"C:/Users/takaaki/git/sw_xSSDAC/module_human_interface/src/button_listener.xc"
	.byte	0
	.long	310
	.long	.Lxta.endpoint_labels4
.cc_bottom cc_26
.cc_top cc_27,.Lxta.endpoint_labels8
	.ascii	"C:/Users/takaaki/git/sw_xSSDAC/module_human_interface/src/button_listener.xc"
	.byte	0
	.long	310
	.long	.Lxta.endpoint_labels8
.cc_bottom cc_27
.cc_top cc_28,.Lxta.endpoint_labels3
	.ascii	"C:/Users/takaaki/git/sw_xSSDAC/module_human_interface/src/button_listener.xc"
	.byte	0
	.long	318
	.long	.Lxta.endpoint_labels3
.cc_bottom cc_28
.cc_top cc_29,.Lxta.endpoint_labels5
	.ascii	"C:/Users/takaaki/git/sw_xSSDAC/module_human_interface/src/button_listener.xc"
	.byte	0
	.long	318
	.long	.Lxta.endpoint_labels5
.cc_bottom cc_29
.cc_top cc_30,.Lxta.endpoint_labels7
	.ascii	"C:/Users/takaaki/git/sw_xSSDAC/module_human_interface/src/button_listener.xc"
	.byte	0
	.long	318
	.long	.Lxta.endpoint_labels7
.cc_bottom cc_30
.cc_top cc_31,.Lxta.endpoint_labels9
	.ascii	"C:/Users/takaaki/git/sw_xSSDAC/module_human_interface/src/button_listener.xc"
	.byte	0
	.long	318
	.long	.Lxta.endpoint_labels9
.cc_bottom cc_31
.Lentries_end3:
	.section	.xtalabeltable,"",@progbits
.Lentries_start4:
	.long	.Lentries_end5-.Lentries_start4
	.long	0
	.ascii	"C:\\MEGA\\HobbyElec\\SSDAC\\xSSDAC\\xTIME\\WORKSPACE\\app_usb_ssdac_xSSDAC-SD-V2\\.build_2i10o10xxxxxx"
	.byte	0
.cc_top cc_32,.Lxtalabel0
	.ascii	"C:/Users/takaaki/git/sw_xSSDAC/module_human_interface/src/button_listener.xc"
	.byte	0
	.long	66
	.long	70
	.long	.Lxtalabel0
.cc_bottom cc_32
.cc_top cc_33,.Lxtalabel19
	.ascii	"C:/Users/takaaki/git/sw_xSSDAC/module_human_interface/src/button_listener.xc"
	.byte	0
	.long	74
	.long	75
	.long	.Lxtalabel19
.cc_bottom cc_33
.cc_top cc_34,.Lxtalabel16
	.ascii	"C:/Users/takaaki/git/sw_xSSDAC/module_human_interface/src/button_listener.xc"
	.byte	0
	.long	74
	.long	75
	.long	.Lxtalabel16
.cc_bottom cc_34
.cc_top cc_35,.Lxtalabel15
	.ascii	"C:/Users/takaaki/git/sw_xSSDAC/module_human_interface/src/button_listener.xc"
	.byte	0
	.long	74
	.long	75
	.long	.Lxtalabel15
.cc_bottom cc_35
.cc_top cc_36,.Lxtalabel20
	.ascii	"C:/Users/takaaki/git/sw_xSSDAC/module_human_interface/src/button_listener.xc"
	.byte	0
	.long	76
	.long	78
	.long	.Lxtalabel20
.cc_bottom cc_36
.cc_top cc_37,.Lxtalabel20
	.ascii	"C:/Users/takaaki/git/sw_xSSDAC/module_human_interface/src/button_listener.xc"
	.byte	0
	.long	80
	.long	80
	.long	.Lxtalabel20
.cc_bottom cc_37
.cc_top cc_38,.Lxtalabel17
	.ascii	"C:/Users/takaaki/git/sw_xSSDAC/module_human_interface/src/button_listener.xc"
	.byte	0
	.long	81
	.long	83
	.long	.Lxtalabel17
.cc_bottom cc_38
.cc_top cc_39,.Lxtalabel17
	.ascii	"C:/Users/takaaki/git/sw_xSSDAC/module_human_interface/src/button_listener.xc"
	.byte	0
	.long	85
	.long	85
	.long	.Lxtalabel17
.cc_bottom cc_39
.cc_top cc_40,.Lxtalabel18
	.ascii	"C:/Users/takaaki/git/sw_xSSDAC/module_human_interface/src/button_listener.xc"
	.byte	0
	.long	86
	.long	90
	.long	.Lxtalabel18
.cc_bottom cc_40
.cc_top cc_41,.Lxtalabel21
	.ascii	"C:/Users/takaaki/git/sw_xSSDAC/module_human_interface/src/button_listener.xc"
	.byte	0
	.long	91
	.long	91
	.long	.Lxtalabel21
.cc_bottom cc_41
.cc_top cc_42,.Lxtalabel22
	.ascii	"C:/Users/takaaki/git/sw_xSSDAC/module_human_interface/src/button_listener.xc"
	.byte	0
	.long	94
	.long	95
	.long	.Lxtalabel22
.cc_bottom cc_42
.cc_top cc_43,.Lxtalabel24
	.ascii	"C:/Users/takaaki/git/sw_xSSDAC/module_human_interface/src/button_listener.xc"
	.byte	0
	.long	94
	.long	95
	.long	.Lxtalabel24
.cc_bottom cc_43
.cc_top cc_44,.Lxtalabel23
	.ascii	"C:/Users/takaaki/git/sw_xSSDAC/module_human_interface/src/button_listener.xc"
	.byte	0
	.long	96
	.long	98
	.long	.Lxtalabel23
.cc_bottom cc_44
.cc_top cc_45,.Lxtalabel25
	.ascii	"C:/Users/takaaki/git/sw_xSSDAC/module_human_interface/src/button_listener.xc"
	.byte	0
	.long	99
	.long	105
	.long	.Lxtalabel25
.cc_bottom cc_45
.cc_top cc_46,.Lxtalabel26
	.ascii	"C:/Users/takaaki/git/sw_xSSDAC/module_human_interface/src/button_listener.xc"
	.byte	0
	.long	106
	.long	106
	.long	.Lxtalabel26
.cc_bottom cc_46
.cc_top cc_47,.Lxtalabel26
	.ascii	"C:/Users/takaaki/git/sw_xSSDAC/module_human_interface/src/button_listener.xc"
	.byte	0
	.long	107
	.long	108
	.long	.Lxtalabel26
.cc_bottom cc_47
.cc_top cc_48,.Lxtalabel27
	.ascii	"C:/Users/takaaki/git/sw_xSSDAC/module_human_interface/src/button_listener.xc"
	.byte	0
	.long	112
	.long	114
	.long	.Lxtalabel27
.cc_bottom cc_48
.cc_top cc_49,.Lxtalabel47
	.ascii	"C:/Users/takaaki/git/sw_xSSDAC/module_human_interface/src/button_listener.xc"
	.byte	0
	.long	112
	.long	114
	.long	.Lxtalabel47
.cc_bottom cc_49
.cc_top cc_50,.Lxtalabel39
	.ascii	"C:/Users/takaaki/git/sw_xSSDAC/module_human_interface/src/button_listener.xc"
	.byte	0
	.long	112
	.long	114
	.long	.Lxtalabel39
.cc_bottom cc_50
.cc_top cc_51,.Lxtalabel28
	.ascii	"C:/Users/takaaki/git/sw_xSSDAC/module_human_interface/src/button_listener.xc"
	.byte	0
	.long	118
	.long	119
	.long	.Lxtalabel28
.cc_bottom cc_51
.cc_top cc_52,.Lxtalabel29
	.ascii	"C:/Users/takaaki/git/sw_xSSDAC/module_human_interface/src/button_listener.xc"
	.byte	0
	.long	118
	.long	119
	.long	.Lxtalabel29
.cc_bottom cc_52
.cc_top cc_53,.Lxtalabel34
	.ascii	"C:/Users/takaaki/git/sw_xSSDAC/module_human_interface/src/button_listener.xc"
	.byte	0
	.long	118
	.long	119
	.long	.Lxtalabel34
.cc_bottom cc_53
.cc_top cc_54,.Lxtalabel28
	.ascii	"C:/Users/takaaki/git/sw_xSSDAC/module_human_interface/src/button_listener.xc"
	.byte	0
	.long	121
	.long	122
	.long	.Lxtalabel28
.cc_bottom cc_54
.cc_top cc_55,.Lxtalabel29
	.ascii	"C:/Users/takaaki/git/sw_xSSDAC/module_human_interface/src/button_listener.xc"
	.byte	0
	.long	121
	.long	122
	.long	.Lxtalabel29
.cc_bottom cc_55
.cc_top cc_56,.Lxtalabel34
	.ascii	"C:/Users/takaaki/git/sw_xSSDAC/module_human_interface/src/button_listener.xc"
	.byte	0
	.long	121
	.long	122
	.long	.Lxtalabel34
.cc_bottom cc_56
.cc_top cc_57,.Lxtalabel29
	.ascii	"C:/Users/takaaki/git/sw_xSSDAC/module_human_interface/src/button_listener.xc"
	.byte	0
	.long	124
	.long	125
	.long	.Lxtalabel29
.cc_bottom cc_57
.cc_top cc_58,.Lxtalabel34
	.ascii	"C:/Users/takaaki/git/sw_xSSDAC/module_human_interface/src/button_listener.xc"
	.byte	0
	.long	124
	.long	125
	.long	.Lxtalabel34
.cc_bottom cc_58
.cc_top cc_59,.Lxtalabel28
	.ascii	"C:/Users/takaaki/git/sw_xSSDAC/module_human_interface/src/button_listener.xc"
	.byte	0
	.long	124
	.long	125
	.long	.Lxtalabel28
.cc_bottom cc_59
.cc_top cc_60,.Lxtalabel35
	.ascii	"C:/Users/takaaki/git/sw_xSSDAC/module_human_interface/src/button_listener.xc"
	.byte	0
	.long	126
	.long	127
	.long	.Lxtalabel35
.cc_bottom cc_60
.cc_top cc_61,.Lxtalabel36
	.ascii	"C:/Users/takaaki/git/sw_xSSDAC/module_human_interface/src/button_listener.xc"
	.byte	0
	.long	126
	.long	127
	.long	.Lxtalabel36
.cc_bottom cc_61
.cc_top cc_62,.Lxtalabel52
	.ascii	"C:/Users/takaaki/git/sw_xSSDAC/module_human_interface/src/button_listener.xc"
	.byte	0
	.long	128
	.long	130
	.long	.Lxtalabel52
.cc_bottom cc_62
.cc_top cc_63,.Lxtalabel48
	.ascii	"C:/Users/takaaki/git/sw_xSSDAC/module_human_interface/src/button_listener.xc"
	.byte	0
	.long	131
	.long	133
	.long	.Lxtalabel48
.cc_bottom cc_63
.cc_top cc_64,.Lxtalabel49
	.ascii	"C:/Users/takaaki/git/sw_xSSDAC/module_human_interface/src/button_listener.xc"
	.byte	0
	.long	134
	.long	136
	.long	.Lxtalabel49
.cc_bottom cc_64
.cc_top cc_65,.Lxtalabel53
	.ascii	"C:/Users/takaaki/git/sw_xSSDAC/module_human_interface/src/button_listener.xc"
	.byte	0
	.long	137
	.long	139
	.long	.Lxtalabel53
.cc_bottom cc_65
.cc_top cc_66,.Lxtalabel50
	.ascii	"C:/Users/takaaki/git/sw_xSSDAC/module_human_interface/src/button_listener.xc"
	.byte	0
	.long	140
	.long	142
	.long	.Lxtalabel50
.cc_bottom cc_66
.cc_top cc_67,.Lxtalabel54
	.ascii	"C:/Users/takaaki/git/sw_xSSDAC/module_human_interface/src/button_listener.xc"
	.byte	0
	.long	143
	.long	145
	.long	.Lxtalabel54
.cc_bottom cc_67
.cc_top cc_68,.Lxtalabel37
	.ascii	"C:/Users/takaaki/git/sw_xSSDAC/module_human_interface/src/button_listener.xc"
	.byte	0
	.long	146
	.long	148
	.long	.Lxtalabel37
.cc_bottom cc_68
.cc_top cc_69,.Lxtalabel51
	.ascii	"C:/Users/takaaki/git/sw_xSSDAC/module_human_interface/src/button_listener.xc"
	.byte	0
	.long	149
	.long	151
	.long	.Lxtalabel51
.cc_bottom cc_69
.cc_top cc_70,.Lxtalabel55
	.ascii	"C:/Users/takaaki/git/sw_xSSDAC/module_human_interface/src/button_listener.xc"
	.byte	0
	.long	152
	.long	154
	.long	.Lxtalabel55
.cc_bottom cc_70
.cc_top cc_71,.Lxtalabel39
	.ascii	"C:/Users/takaaki/git/sw_xSSDAC/module_human_interface/src/button_listener.xc"
	.byte	0
	.long	155
	.long	157
	.long	.Lxtalabel39
.cc_bottom cc_71
.cc_top cc_72,.Lxtalabel30
	.ascii	"C:/Users/takaaki/git/sw_xSSDAC/module_human_interface/src/button_listener.xc"
	.byte	0
	.long	160
	.long	161
	.long	.Lxtalabel30
.cc_bottom cc_72
.cc_top cc_73,.Lxtalabel31
	.ascii	"C:/Users/takaaki/git/sw_xSSDAC/module_human_interface/src/button_listener.xc"
	.byte	0
	.long	169
	.long	174
	.long	.Lxtalabel31
.cc_bottom cc_73
.cc_top cc_74,.Lxtalabel32
	.ascii	"C:/Users/takaaki/git/sw_xSSDAC/module_human_interface/src/button_listener.xc"
	.byte	0
	.long	169
	.long	174
	.long	.Lxtalabel32
.cc_bottom cc_74
.cc_top cc_75,.Lxtalabel32
	.ascii	"C:/Users/takaaki/git/sw_xSSDAC/module_human_interface/src/button_listener.xc"
	.byte	0
	.long	176
	.long	177
	.long	.Lxtalabel32
.cc_bottom cc_75
.cc_top cc_76,.Lxtalabel31
	.ascii	"C:/Users/takaaki/git/sw_xSSDAC/module_human_interface/src/button_listener.xc"
	.byte	0
	.long	176
	.long	177
	.long	.Lxtalabel31
.cc_bottom cc_76
.cc_top cc_77,.Lxtalabel33
	.ascii	"C:/Users/takaaki/git/sw_xSSDAC/module_human_interface/src/button_listener.xc"
	.byte	0
	.long	178
	.long	181
	.long	.Lxtalabel33
.cc_bottom cc_77
.cc_top cc_78,.Lxtalabel41
	.ascii	"C:/Users/takaaki/git/sw_xSSDAC/module_human_interface/src/button_listener.xc"
	.byte	0
	.long	182
	.long	185
	.long	.Lxtalabel41
.cc_bottom cc_78
.cc_top cc_79,.Lxtalabel42
	.ascii	"C:/Users/takaaki/git/sw_xSSDAC/module_human_interface/src/button_listener.xc"
	.byte	0
	.long	186
	.long	189
	.long	.Lxtalabel42
.cc_bottom cc_79
.cc_top cc_80,.Lxtalabel43
	.ascii	"C:/Users/takaaki/git/sw_xSSDAC/module_human_interface/src/button_listener.xc"
	.byte	0
	.long	190
	.long	193
	.long	.Lxtalabel43
.cc_bottom cc_80
.cc_top cc_81,.Lxtalabel44
	.ascii	"C:/Users/takaaki/git/sw_xSSDAC/module_human_interface/src/button_listener.xc"
	.byte	0
	.long	194
	.long	197
	.long	.Lxtalabel44
.cc_bottom cc_81
.cc_top cc_82,.Lxtalabel47
	.ascii	"C:/Users/takaaki/git/sw_xSSDAC/module_human_interface/src/button_listener.xc"
	.byte	0
	.long	201
	.long	202
	.long	.Lxtalabel47
.cc_bottom cc_82
.cc_top cc_83,.Lxtalabel47
	.ascii	"C:/Users/takaaki/git/sw_xSSDAC/module_human_interface/src/button_listener.xc"
	.byte	0
	.long	204
	.long	205
	.long	.Lxtalabel47
.cc_bottom cc_83
.cc_top cc_84,.Lxtalabel38
	.ascii	"C:/Users/takaaki/git/sw_xSSDAC/module_human_interface/src/button_listener.xc"
	.byte	0
	.long	207
	.long	209
	.long	.Lxtalabel38
.cc_bottom cc_84
.cc_top cc_85,.Lxtalabel40
	.ascii	"C:/Users/takaaki/git/sw_xSSDAC/module_human_interface/src/button_listener.xc"
	.byte	0
	.long	212
	.long	212
	.long	.Lxtalabel40
.cc_bottom cc_85
.cc_top cc_86,.Lxtalabel45
	.ascii	"C:/Users/takaaki/git/sw_xSSDAC/module_human_interface/src/button_listener.xc"
	.byte	0
	.long	212
	.long	212
	.long	.Lxtalabel45
.cc_bottom cc_86
.cc_top cc_87,.Lxtalabel46
	.ascii	"C:/Users/takaaki/git/sw_xSSDAC/module_human_interface/src/button_listener.xc"
	.byte	0
	.long	212
	.long	212
	.long	.Lxtalabel46
.cc_bottom cc_87
.cc_top cc_88,.Lxtalabel57
	.ascii	"C:/Users/takaaki/git/sw_xSSDAC/module_human_interface/src/button_listener.xc"
	.byte	0
	.long	215
	.long	219
	.long	.Lxtalabel57
.cc_bottom cc_88
.cc_top cc_89,.Lxtalabel56
	.ascii	"C:/Users/takaaki/git/sw_xSSDAC/module_human_interface/src/button_listener.xc"
	.byte	0
	.long	215
	.long	219
	.long	.Lxtalabel56
.cc_bottom cc_89
.cc_top cc_90,.Lxtalabel56
	.ascii	"C:/Users/takaaki/git/sw_xSSDAC/module_human_interface/src/button_listener.xc"
	.byte	0
	.long	221
	.long	221
	.long	.Lxtalabel56
.cc_bottom cc_90
.cc_top cc_91,.Lxtalabel57
	.ascii	"C:/Users/takaaki/git/sw_xSSDAC/module_human_interface/src/button_listener.xc"
	.byte	0
	.long	221
	.long	221
	.long	.Lxtalabel57
.cc_bottom cc_91
.cc_top cc_92,.Lxtalabel69
	.ascii	"C:/Users/takaaki/git/sw_xSSDAC/module_human_interface/src/button_listener.xc"
	.byte	0
	.long	223
	.long	225
	.long	.Lxtalabel69
.cc_bottom cc_92
.cc_top cc_93,.Lxtalabel59
	.ascii	"C:/Users/takaaki/git/sw_xSSDAC/module_human_interface/src/button_listener.xc"
	.byte	0
	.long	223
	.long	225
	.long	.Lxtalabel59
.cc_bottom cc_93
.cc_top cc_94,.Lxtalabel64
	.ascii	"C:/Users/takaaki/git/sw_xSSDAC/module_human_interface/src/button_listener.xc"
	.byte	0
	.long	223
	.long	225
	.long	.Lxtalabel64
.cc_bottom cc_94
.cc_top cc_95,.Lxtalabel58
	.ascii	"C:/Users/takaaki/git/sw_xSSDAC/module_human_interface/src/button_listener.xc"
	.byte	0
	.long	223
	.long	225
	.long	.Lxtalabel58
.cc_bottom cc_95
.cc_top cc_96,.Lxtalabel65
	.ascii	"C:/Users/takaaki/git/sw_xSSDAC/module_human_interface/src/button_listener.xc"
	.byte	0
	.long	223
	.long	225
	.long	.Lxtalabel65
.cc_bottom cc_96
.cc_top cc_97,.Lxtalabel70
	.ascii	"C:/Users/takaaki/git/sw_xSSDAC/module_human_interface/src/button_listener.xc"
	.byte	0
	.long	223
	.long	225
	.long	.Lxtalabel70
.cc_bottom cc_97
.cc_top cc_98,.Lxtalabel62
	.ascii	"C:/Users/takaaki/git/sw_xSSDAC/module_human_interface/src/button_listener.xc"
	.byte	0
	.long	223
	.long	225
	.long	.Lxtalabel62
.cc_bottom cc_98
.cc_top cc_99,.Lxtalabel61
	.ascii	"C:/Users/takaaki/git/sw_xSSDAC/module_human_interface/src/button_listener.xc"
	.byte	0
	.long	223
	.long	225
	.long	.Lxtalabel61
.cc_bottom cc_99
.cc_top cc_100,.Lxtalabel65
	.ascii	"C:/Users/takaaki/git/sw_xSSDAC/module_human_interface/src/button_listener.xc"
	.byte	0
	.long	227
	.long	228
	.long	.Lxtalabel65
.cc_bottom cc_100
.cc_top cc_101,.Lxtalabel64
	.ascii	"C:/Users/takaaki/git/sw_xSSDAC/module_human_interface/src/button_listener.xc"
	.byte	0
	.long	227
	.long	228
	.long	.Lxtalabel64
.cc_bottom cc_101
.cc_top cc_102,.Lxtalabel69
	.ascii	"C:/Users/takaaki/git/sw_xSSDAC/module_human_interface/src/button_listener.xc"
	.byte	0
	.long	227
	.long	228
	.long	.Lxtalabel69
.cc_bottom cc_102
.cc_top cc_103,.Lxtalabel59
	.ascii	"C:/Users/takaaki/git/sw_xSSDAC/module_human_interface/src/button_listener.xc"
	.byte	0
	.long	227
	.long	228
	.long	.Lxtalabel59
.cc_bottom cc_103
.cc_top cc_104,.Lxtalabel61
	.ascii	"C:/Users/takaaki/git/sw_xSSDAC/module_human_interface/src/button_listener.xc"
	.byte	0
	.long	227
	.long	228
	.long	.Lxtalabel61
.cc_bottom cc_104
.cc_top cc_105,.Lxtalabel58
	.ascii	"C:/Users/takaaki/git/sw_xSSDAC/module_human_interface/src/button_listener.xc"
	.byte	0
	.long	227
	.long	228
	.long	.Lxtalabel58
.cc_bottom cc_105
.cc_top cc_106,.Lxtalabel70
	.ascii	"C:/Users/takaaki/git/sw_xSSDAC/module_human_interface/src/button_listener.xc"
	.byte	0
	.long	227
	.long	228
	.long	.Lxtalabel70
.cc_bottom cc_106
.cc_top cc_107,.Lxtalabel62
	.ascii	"C:/Users/takaaki/git/sw_xSSDAC/module_human_interface/src/button_listener.xc"
	.byte	0
	.long	227
	.long	228
	.long	.Lxtalabel62
.cc_bottom cc_107
.cc_top cc_108,.Lxtalabel79
	.ascii	"C:/Users/takaaki/git/sw_xSSDAC/module_human_interface/src/button_listener.xc"
	.byte	0
	.long	229
	.long	230
	.long	.Lxtalabel79
.cc_bottom cc_108
.cc_top cc_109,.Lxtalabel78
	.ascii	"C:/Users/takaaki/git/sw_xSSDAC/module_human_interface/src/button_listener.xc"
	.byte	0
	.long	229
	.long	230
	.long	.Lxtalabel78
.cc_bottom cc_109
.cc_top cc_110,.Lxtalabel76
	.ascii	"C:/Users/takaaki/git/sw_xSSDAC/module_human_interface/src/button_listener.xc"
	.byte	0
	.long	229
	.long	230
	.long	.Lxtalabel76
.cc_bottom cc_110
.cc_top cc_111,.Lxtalabel75
	.ascii	"C:/Users/takaaki/git/sw_xSSDAC/module_human_interface/src/button_listener.xc"
	.byte	0
	.long	229
	.long	230
	.long	.Lxtalabel75
.cc_bottom cc_111
.cc_top cc_112,.Lxtalabel85
	.ascii	"C:/Users/takaaki/git/sw_xSSDAC/module_human_interface/src/button_listener.xc"
	.byte	0
	.long	229
	.long	230
	.long	.Lxtalabel85
.cc_bottom cc_112
.cc_top cc_113,.Lxtalabel82
	.ascii	"C:/Users/takaaki/git/sw_xSSDAC/module_human_interface/src/button_listener.xc"
	.byte	0
	.long	229
	.long	230
	.long	.Lxtalabel82
.cc_bottom cc_113
.cc_top cc_114,.Lxtalabel81
	.ascii	"C:/Users/takaaki/git/sw_xSSDAC/module_human_interface/src/button_listener.xc"
	.byte	0
	.long	229
	.long	230
	.long	.Lxtalabel81
.cc_bottom cc_114
.cc_top cc_115,.Lxtalabel86
	.ascii	"C:/Users/takaaki/git/sw_xSSDAC/module_human_interface/src/button_listener.xc"
	.byte	0
	.long	229
	.long	230
	.long	.Lxtalabel86
.cc_bottom cc_115
.cc_top cc_116,.Lxtalabel77
	.ascii	"C:/Users/takaaki/git/sw_xSSDAC/module_human_interface/src/button_listener.xc"
	.byte	0
	.long	231
	.long	231
	.long	.Lxtalabel77
.cc_bottom cc_116
.cc_top cc_117,.Lxtalabel84
	.ascii	"C:/Users/takaaki/git/sw_xSSDAC/module_human_interface/src/button_listener.xc"
	.byte	0
	.long	232
	.long	232
	.long	.Lxtalabel84
.cc_bottom cc_117
.cc_top cc_118,.Lxtalabel80
	.ascii	"C:/Users/takaaki/git/sw_xSSDAC/module_human_interface/src/button_listener.xc"
	.byte	0
	.long	235
	.long	235
	.long	.Lxtalabel80
.cc_bottom cc_118
.cc_top cc_119,.Lxtalabel88
	.ascii	"C:/Users/takaaki/git/sw_xSSDAC/module_human_interface/src/button_listener.xc"
	.byte	0
	.long	236
	.long	236
	.long	.Lxtalabel88
.cc_bottom cc_119
.cc_top cc_120,.Lxtalabel83
	.ascii	"C:/Users/takaaki/git/sw_xSSDAC/module_human_interface/src/button_listener.xc"
	.byte	0
	.long	239
	.long	239
	.long	.Lxtalabel83
.cc_bottom cc_120
.cc_top cc_121,.Lxtalabel89
	.ascii	"C:/Users/takaaki/git/sw_xSSDAC/module_human_interface/src/button_listener.xc"
	.byte	0
	.long	240
	.long	240
	.long	.Lxtalabel89
.cc_bottom cc_121
.cc_top cc_122,.Lxtalabel87
	.ascii	"C:/Users/takaaki/git/sw_xSSDAC/module_human_interface/src/button_listener.xc"
	.byte	0
	.long	243
	.long	243
	.long	.Lxtalabel87
.cc_bottom cc_122
.cc_top cc_123,.Lxtalabel93
	.ascii	"C:/Users/takaaki/git/sw_xSSDAC/module_human_interface/src/button_listener.xc"
	.byte	0
	.long	244
	.long	244
	.long	.Lxtalabel93
.cc_bottom cc_123
.cc_top cc_124,.Lxtalabel90
	.ascii	"C:/Users/takaaki/git/sw_xSSDAC/module_human_interface/src/button_listener.xc"
	.byte	0
	.long	247
	.long	247
	.long	.Lxtalabel90
.cc_bottom cc_124
.cc_top cc_125,.Lxtalabel94
	.ascii	"C:/Users/takaaki/git/sw_xSSDAC/module_human_interface/src/button_listener.xc"
	.byte	0
	.long	248
	.long	248
	.long	.Lxtalabel94
.cc_bottom cc_125
.cc_top cc_126,.Lxtalabel91
	.ascii	"C:/Users/takaaki/git/sw_xSSDAC/module_human_interface/src/button_listener.xc"
	.byte	0
	.long	251
	.long	251
	.long	.Lxtalabel91
.cc_bottom cc_126
.cc_top cc_127,.Lxtalabel95
	.ascii	"C:/Users/takaaki/git/sw_xSSDAC/module_human_interface/src/button_listener.xc"
	.byte	0
	.long	252
	.long	252
	.long	.Lxtalabel95
.cc_bottom cc_127
.cc_top cc_128,.Lxtalabel92
	.ascii	"C:/Users/takaaki/git/sw_xSSDAC/module_human_interface/src/button_listener.xc"
	.byte	0
	.long	255
	.long	255
	.long	.Lxtalabel92
.cc_bottom cc_128
.cc_top cc_129,.Lxtalabel96
	.ascii	"C:/Users/takaaki/git/sw_xSSDAC/module_human_interface/src/button_listener.xc"
	.byte	0
	.long	256
	.long	256
	.long	.Lxtalabel96
.cc_bottom cc_129
.cc_top cc_130,.Lxtalabel60
	.ascii	"C:/Users/takaaki/git/sw_xSSDAC/module_human_interface/src/button_listener.xc"
	.byte	0
	.long	261
	.long	263
	.long	.Lxtalabel60
.cc_bottom cc_130
.cc_top cc_131,.Lxtalabel63
	.ascii	"C:/Users/takaaki/git/sw_xSSDAC/module_human_interface/src/button_listener.xc"
	.byte	0
	.long	264
	.long	266
	.long	.Lxtalabel63
.cc_bottom cc_131
.cc_top cc_132,.Lxtalabel66
	.ascii	"C:/Users/takaaki/git/sw_xSSDAC/module_human_interface/src/button_listener.xc"
	.byte	0
	.long	267
	.long	269
	.long	.Lxtalabel66
.cc_bottom cc_132
.cc_top cc_133,.Lxtalabel71
	.ascii	"C:/Users/takaaki/git/sw_xSSDAC/module_human_interface/src/button_listener.xc"
	.byte	0
	.long	270
	.long	272
	.long	.Lxtalabel71
.cc_bottom cc_133
.cc_top cc_134,.Lxtalabel72
	.ascii	"C:/Users/takaaki/git/sw_xSSDAC/module_human_interface/src/button_listener.xc"
	.byte	0
	.long	273
	.long	275
	.long	.Lxtalabel72
.cc_bottom cc_134
.cc_top cc_135,.Lxtalabel73
	.ascii	"C:/Users/takaaki/git/sw_xSSDAC/module_human_interface/src/button_listener.xc"
	.byte	0
	.long	276
	.long	278
	.long	.Lxtalabel73
.cc_bottom cc_135
.cc_top cc_136,.Lxtalabel74
	.ascii	"C:/Users/takaaki/git/sw_xSSDAC/module_human_interface/src/button_listener.xc"
	.byte	0
	.long	279
	.long	281
	.long	.Lxtalabel74
.cc_bottom cc_136
.cc_top cc_137,.Lxtalabel67
	.ascii	"C:/Users/takaaki/git/sw_xSSDAC/module_human_interface/src/button_listener.xc"
	.byte	0
	.long	283
	.long	283
	.long	.Lxtalabel67
.cc_bottom cc_137
.cc_top cc_138,.Lxtalabel68
	.ascii	"C:/Users/takaaki/git/sw_xSSDAC/module_human_interface/src/button_listener.xc"
	.byte	0
	.long	283
	.long	283
	.long	.Lxtalabel68
.cc_bottom cc_138
.cc_top cc_139,.Lxtalabel1
	.ascii	"C:/Users/takaaki/git/sw_xSSDAC/module_human_interface/src/button_listener.xc"
	.byte	0
	.long	287
	.long	287
	.long	.Lxtalabel1
.cc_bottom cc_139
.cc_top cc_140,.Lxtalabel8
	.ascii	"C:/Users/takaaki/git/sw_xSSDAC/module_human_interface/src/button_listener.xc"
	.byte	0
	.long	287
	.long	287
	.long	.Lxtalabel8
.cc_bottom cc_140
.cc_top cc_141,.Lxtalabel8
	.ascii	"C:/Users/takaaki/git/sw_xSSDAC/module_human_interface/src/button_listener.xc"
	.byte	0
	.long	289
	.long	289
	.long	.Lxtalabel8
.cc_bottom cc_141
.cc_top cc_142,.Lxtalabel1
	.ascii	"C:/Users/takaaki/git/sw_xSSDAC/module_human_interface/src/button_listener.xc"
	.byte	0
	.long	289
	.long	289
	.long	.Lxtalabel1
.cc_bottom cc_142
.cc_top cc_143,.Lxtalabel8
	.ascii	"C:/Users/takaaki/git/sw_xSSDAC/module_human_interface/src/button_listener.xc"
	.byte	0
	.long	291
	.long	293
	.long	.Lxtalabel8
.cc_bottom cc_143
.cc_top cc_144,.Lxtalabel1
	.ascii	"C:/Users/takaaki/git/sw_xSSDAC/module_human_interface/src/button_listener.xc"
	.byte	0
	.long	291
	.long	293
	.long	.Lxtalabel1
.cc_bottom cc_144
.cc_top cc_145,.Lxtalabel8
	.ascii	"C:/Users/takaaki/git/sw_xSSDAC/module_human_interface/src/button_listener.xc"
	.byte	0
	.long	295
	.long	295
	.long	.Lxtalabel8
.cc_bottom cc_145
.cc_top cc_146,.Lxtalabel1
	.ascii	"C:/Users/takaaki/git/sw_xSSDAC/module_human_interface/src/button_listener.xc"
	.byte	0
	.long	295
	.long	295
	.long	.Lxtalabel1
.cc_bottom cc_146
.cc_top cc_147,.Lxtalabel8
	.ascii	"C:/Users/takaaki/git/sw_xSSDAC/module_human_interface/src/button_listener.xc"
	.byte	0
	.long	300
	.long	300
	.long	.Lxtalabel8
.cc_bottom cc_147
.cc_top cc_148,.Lxtalabel1
	.ascii	"C:/Users/takaaki/git/sw_xSSDAC/module_human_interface/src/button_listener.xc"
	.byte	0
	.long	300
	.long	300
	.long	.Lxtalabel1
.cc_bottom cc_148
.cc_top cc_149,.Lxtalabel8
	.ascii	"C:/Users/takaaki/git/sw_xSSDAC/module_human_interface/src/button_listener.xc"
	.byte	0
	.long	302
	.long	302
	.long	.Lxtalabel8
.cc_bottom cc_149
.cc_top cc_150,.Lxtalabel1
	.ascii	"C:/Users/takaaki/git/sw_xSSDAC/module_human_interface/src/button_listener.xc"
	.byte	0
	.long	302
	.long	302
	.long	.Lxtalabel1
.cc_bottom cc_150
.cc_top cc_151,.Lxtalabel8
	.ascii	"C:/Users/takaaki/git/sw_xSSDAC/module_human_interface/src/button_listener.xc"
	.byte	0
	.long	304
	.long	304
	.long	.Lxtalabel8
.cc_bottom cc_151
.cc_top cc_152,.Lxtalabel1
	.ascii	"C:/Users/takaaki/git/sw_xSSDAC/module_human_interface/src/button_listener.xc"
	.byte	0
	.long	304
	.long	304
	.long	.Lxtalabel1
.cc_bottom cc_152
.cc_top cc_153,.Lxtalabel3
	.ascii	"C:/Users/takaaki/git/sw_xSSDAC/module_human_interface/src/button_listener.xc"
	.byte	0
	.long	309
	.long	309
	.long	.Lxtalabel3
.cc_bottom cc_153
.cc_top cc_154,.Lxtalabel4
	.ascii	"C:/Users/takaaki/git/sw_xSSDAC/module_human_interface/src/button_listener.xc"
	.byte	0
	.long	309
	.long	309
	.long	.Lxtalabel4
.cc_bottom cc_154
.cc_top cc_155,.Lxtalabel11
	.ascii	"C:/Users/takaaki/git/sw_xSSDAC/module_human_interface/src/button_listener.xc"
	.byte	0
	.long	309
	.long	309
	.long	.Lxtalabel11
.cc_bottom cc_155
.cc_top cc_156,.Lxtalabel10
	.ascii	"C:/Users/takaaki/git/sw_xSSDAC/module_human_interface/src/button_listener.xc"
	.byte	0
	.long	309
	.long	309
	.long	.Lxtalabel10
.cc_bottom cc_156
.cc_top cc_157,.Lxtalabel5
	.ascii	"C:/Users/takaaki/git/sw_xSSDAC/module_human_interface/src/button_listener.xc"
	.byte	0
	.long	310
	.long	313
	.long	.Lxtalabel5
.cc_bottom cc_157
.cc_top cc_158,.Lxtalabel12
	.ascii	"C:/Users/takaaki/git/sw_xSSDAC/module_human_interface/src/button_listener.xc"
	.byte	0
	.long	310
	.long	313
	.long	.Lxtalabel12
.cc_bottom cc_158
.cc_top cc_159,.Lxtalabel6
	.ascii	"C:/Users/takaaki/git/sw_xSSDAC/module_human_interface/src/button_listener.xc"
	.byte	0
	.long	315
	.long	316
	.long	.Lxtalabel6
.cc_bottom cc_159
.cc_top cc_160,.Lxtalabel13
	.ascii	"C:/Users/takaaki/git/sw_xSSDAC/module_human_interface/src/button_listener.xc"
	.byte	0
	.long	315
	.long	316
	.long	.Lxtalabel13
.cc_bottom cc_160
.cc_top cc_161,.Lxtalabel13
	.ascii	"C:/Users/takaaki/git/sw_xSSDAC/module_human_interface/src/button_listener.xc"
	.byte	0
	.long	318
	.long	318
	.long	.Lxtalabel13
.cc_bottom cc_161
.cc_top cc_162,.Lxtalabel6
	.ascii	"C:/Users/takaaki/git/sw_xSSDAC/module_human_interface/src/button_listener.xc"
	.byte	0
	.long	318
	.long	318
	.long	.Lxtalabel6
.cc_bottom cc_162
.cc_top cc_163,.Lxtalabel6
	.ascii	"C:/Users/takaaki/git/sw_xSSDAC/module_human_interface/src/button_listener.xc"
	.byte	0
	.long	326
	.long	326
	.long	.Lxtalabel6
.cc_bottom cc_163
.cc_top cc_164,.Lxtalabel13
	.ascii	"C:/Users/takaaki/git/sw_xSSDAC/module_human_interface/src/button_listener.xc"
	.byte	0
	.long	326
	.long	326
	.long	.Lxtalabel13
.cc_bottom cc_164
.cc_top cc_165,.Lxtalabel14
	.ascii	"C:/Users/takaaki/git/sw_xSSDAC/module_human_interface/src/button_listener.xc"
	.byte	0
	.long	327
	.long	328
	.long	.Lxtalabel14
.cc_bottom cc_165
.cc_top cc_166,.Lxtalabel7
	.ascii	"C:/Users/takaaki/git/sw_xSSDAC/module_human_interface/src/button_listener.xc"
	.byte	0
	.long	327
	.long	328
	.long	.Lxtalabel7
.cc_bottom cc_166
.cc_top cc_167,.Lxtalabel14
	.ascii	"C:/Users/takaaki/git/sw_xSSDAC/module_human_interface/src/button_listener.xc"
	.byte	0
	.long	330
	.long	330
	.long	.Lxtalabel14
.cc_bottom cc_167
.cc_top cc_168,.Lxtalabel7
	.ascii	"C:/Users/takaaki/git/sw_xSSDAC/module_human_interface/src/button_listener.xc"
	.byte	0
	.long	330
	.long	330
	.long	.Lxtalabel7
.cc_bottom cc_168
.cc_top cc_169,.Lxtalabel2
	.ascii	"C:/Users/takaaki/git/sw_xSSDAC/module_human_interface/src/button_listener.xc"
	.byte	0
	.long	331
	.long	334
	.long	.Lxtalabel2
.cc_bottom cc_169
.cc_top cc_170,.Lxtalabel9
	.ascii	"C:/Users/takaaki/git/sw_xSSDAC/module_human_interface/src/button_listener.xc"
	.byte	0
	.long	331
	.long	334
	.long	.Lxtalabel9
.cc_bottom cc_170
.Lentries_end5:
	.section	.trap_info,"",@progbits
.Ltrap_info_entries_start0:
	.long	.Ltrap_info_entries_end0-.Ltrap_info_entries_start0
	.long	1
	.section	.trap_info_str,"MS",@progbits
.Ltrap_info_str0:
.asciiz"C:/Users/takaaki/git/sw_xSSDAC/module_human_interface/src/button_listener.xc:327:34: error: passing null argument to a non-null parameter\n                HandleDacCommand(c_dac_control, dac_command);\n                                 ^~~~~~~~~~~~~\n"
	.section	.trap_info,"",@progbits
.cc_top cc_trapinfo_0,.Ltrap_info0
	.long	.Ltrap_info0
	.long	.Ltrap_info_str0
.cc_bottom cc_trapinfo_0
	.section	.trap_info_str,"MS",@progbits
.Ltrap_info_str1:
.asciiz"C:/Users/takaaki/git/sw_xSSDAC/module_human_interface/src/button_listener.xc:327:34: error: passing null argument to a non-null parameter\n                HandleDacCommand(c_dac_control, dac_command);\n                                 ^~~~~~~~~~~~~\n"
	.section	.trap_info,"",@progbits
.cc_top cc_trapinfo_1,.Ltrap_info1
	.long	.Ltrap_info1
	.long	.Ltrap_info_str1
.cc_bottom cc_trapinfo_1
.Ltrap_info_entries_end0: