	.text
	.file	"bitwriter.c"
	.text
	.globl	FLAC__bitwriter_new
	.align	4
	.type	FLAC__bitwriter_new,@function
	.cc_top FLAC__bitwriter_new.function,FLAC__bitwriter_new
FLAC__bitwriter_new:
.Lfunc_begin0:
	.loc	2 152 0
	.cfi_startproc
	.issue_mode dual
.Ltmp0:
	.cfi_def_cfa_offset 8
.Ltmp1:
	.cfi_offset 15, 0
	{
		mkmsk r0, 1
		dualentsp 2
	}
	{
		ldc r1, 20
		nop
	}
	.loc	2 153 24 prologue_end
.Ltmp2:
	bl calloc
.Ltmp3:
	{
		nop
		retsp 2
	}
	.loc	2 155 2
	# RETURN_REG_HOLDER
.Ltmp4:
	.cc_bottom FLAC__bitwriter_new.function
	.set	FLAC__bitwriter_new.nstackwords,(calloc.nstackwords + 2)
	.globl	FLAC__bitwriter_new.nstackwords
	.set	FLAC__bitwriter_new.maxcores,calloc.maxcores $M 1
	.globl	FLAC__bitwriter_new.maxcores
	.set	FLAC__bitwriter_new.maxtimers,calloc.maxtimers $M 0
	.globl	FLAC__bitwriter_new.maxtimers
	.set	FLAC__bitwriter_new.maxchanends,calloc.maxchanends $M 0
	.globl	FLAC__bitwriter_new.maxchanends
.Ltmp5:
	.size	FLAC__bitwriter_new, .Ltmp5-FLAC__bitwriter_new
.Lfunc_end0:
	.cfi_endproc

	.globl	FLAC__bitwriter_delete
	.align	4
	.type	FLAC__bitwriter_delete,@function
	.cc_top FLAC__bitwriter_delete.function,FLAC__bitwriter_delete
FLAC__bitwriter_delete:
.Lfunc_begin1:
	.loc	2 159 0
	.cfi_startproc
	.issue_mode dual
	{
		nop
		dualentsp 4
	}
.Ltmp6:
	.cfi_def_cfa_offset 16
.Ltmp7:
	.cfi_offset 15, 0
.Ltmp8:
	.cfi_offset 4, -8
.Ltmp9:
	{
		mov r4, r0
		stw r4, sp[2]
	}
.Ltmp10:
	{
		nop
		ldw r0, r4[0]
	}
	bf r0, .LBB1_2
.Ltmp11:
	.loc	2 190 3 prologue_end
	bl free
.Ltmp12:
.LBB1_2:
	.loc	2 163 2
	{
		mov r0, r4
		nop
	}
	bl free
	{
		nop
		ldw r4, sp[2]
	}
.Ltmp13:
	{
		nop
		retsp 4
	}
	.loc	2 164 1
	# RETURN_REG_HOLDER
.Ltmp14:
	.cc_bottom FLAC__bitwriter_delete.function
	.set	FLAC__bitwriter_delete.nstackwords,(free.nstackwords + 4)
	.globl	FLAC__bitwriter_delete.nstackwords
	.set	FLAC__bitwriter_delete.maxcores,free.maxcores $M 1
	.globl	FLAC__bitwriter_delete.maxcores
	.set	FLAC__bitwriter_delete.maxtimers,free.maxtimers $M 0
	.globl	FLAC__bitwriter_delete.maxtimers
	.set	FLAC__bitwriter_delete.maxchanends,free.maxchanends $M 0
	.globl	FLAC__bitwriter_delete.maxchanends
.Ltmp15:
	.size	FLAC__bitwriter_delete, .Ltmp15-FLAC__bitwriter_delete
.Lfunc_end1:
	.file	4 "C:/Users/takaaki/git/sw_xSSDAC/module_libFLAC/source/private\\bitwriter.h"
	.cfi_endproc

	.globl	FLAC__bitwriter_free
	.align	4
	.type	FLAC__bitwriter_free,@function
	.cc_top FLAC__bitwriter_free.function,FLAC__bitwriter_free
FLAC__bitwriter_free:
.Lfunc_begin2:
	.loc	2 186 0
	.cfi_startproc
	.issue_mode dual
	{
		nop
		dualentsp 4
	}
.Ltmp16:
	.cfi_def_cfa_offset 16
.Ltmp17:
	.cfi_offset 15, 0
.Ltmp18:
	.cfi_offset 4, -8
.Ltmp19:
	{
		mov r4, r0
		stw r4, sp[2]
	}
.Ltmp20:
	{
		nop
		ldw r0, r4[0]
	}
	bf r0, .LBB2_2
.Ltmp21:
	.loc	2 190 3 prologue_end
	bl free
.Ltmp22:
.LBB2_2:
	{
		ldc r0, 0
		nop
	}
	{
		nop
		stw r0, r4[0]
	}
	{
		nop
		stw r0, r4[2]
	}
	{
		nop
		stw r0, r4[4]
	}
	{
		nop
		stw r0, r4[3]
	}
	{
		nop
		ldw r4, sp[2]
	}
.Ltmp23:
	{
		nop
		retsp 4
	}
	.loc	2 194 1
	# RETURN_REG_HOLDER
.Ltmp24:
	.cc_bottom FLAC__bitwriter_free.function
	.set	FLAC__bitwriter_free.nstackwords,(free.nstackwords + 4)
	.globl	FLAC__bitwriter_free.nstackwords
	.set	FLAC__bitwriter_free.maxcores,free.maxcores $M 1
	.globl	FLAC__bitwriter_free.maxcores
	.set	FLAC__bitwriter_free.maxtimers,free.maxtimers $M 0
	.globl	FLAC__bitwriter_free.maxtimers
	.set	FLAC__bitwriter_free.maxchanends,free.maxchanends $M 0
	.globl	FLAC__bitwriter_free.maxchanends
.Ltmp25:
	.size	FLAC__bitwriter_free, .Ltmp25-FLAC__bitwriter_free
.Lfunc_end2:
	.cfi_endproc

	.globl	FLAC__bitwriter_init
	.align	4
	.type	FLAC__bitwriter_init,@function
	.cc_top FLAC__bitwriter_init.function,FLAC__bitwriter_init
FLAC__bitwriter_init:
.Lfunc_begin3:
	.loc	2 173 0
	.cfi_startproc
	.issue_mode dual
	{
		nop
		dualentsp 4
	}
.Ltmp26:
	.cfi_def_cfa_offset 16
.Ltmp27:
	.cfi_offset 15, 0
.Ltmp28:
	.cfi_offset 4, -8
.Ltmp29:
	{
		mov r4, r0
		stw r4, sp[2]
	}
.Ltmp30:
	{
		ldc r0, 0
		nop
	}
	{
		nop
		stw r0, r4[4]
	}
	{
		nop
		stw r0, r4[3]
	}
	ldc r0, 8192
	{
		nop
		stw r0, r4[2]
	}
	ldc r0, 32768
	.loc	2 178 15 prologue_end
.Ltmp31:
	bl malloc
	.loc	2 178 15
	{
		eq r0, r0, 0
		stw r0, r4[0]
	}
	.loc	2 180 3
.Ltmp32:
	{
		eq r0, r0, 0
		ldw r4, sp[2]
	}
	{
		nop
		retsp 4
	}
.Ltmp33:
	.loc	2 183 1
	# RETURN_REG_HOLDER
.Ltmp34:
	.cc_bottom FLAC__bitwriter_init.function
	.set	FLAC__bitwriter_init.nstackwords,(malloc.nstackwords + 4)
	.globl	FLAC__bitwriter_init.nstackwords
	.set	FLAC__bitwriter_init.maxcores,malloc.maxcores $M 1
	.globl	FLAC__bitwriter_init.maxcores
	.set	FLAC__bitwriter_init.maxtimers,malloc.maxtimers $M 0
	.globl	FLAC__bitwriter_init.maxtimers
	.set	FLAC__bitwriter_init.maxchanends,malloc.maxchanends $M 0
	.globl	FLAC__bitwriter_init.maxchanends
.Ltmp35:
	.size	FLAC__bitwriter_init, .Ltmp35-FLAC__bitwriter_init
.Lfunc_end3:
	.cfi_endproc

	.globl	FLAC__bitwriter_clear
	.align	4
	.type	FLAC__bitwriter_clear,@function
	.cc_top FLAC__bitwriter_clear.function,FLAC__bitwriter_clear
FLAC__bitwriter_clear:
.Lfunc_begin4:
	.loc	2 197 0
	.cfi_startproc
	.issue_mode dual
	{
		ldc r1, 0
		dualentsp 0
	}
	{
		nop
		stw r1, r0[4]
	}
	{
		nop
		stw r1, r0[3]
	}
	{
		nop
		retsp 0
	}
	.loc	2 199 1 prologue_end
.Ltmp36:
	# RETURN_REG_HOLDER
.Ltmp37:
	.cc_bottom FLAC__bitwriter_clear.function
	.set	FLAC__bitwriter_clear.nstackwords,0
	.globl	FLAC__bitwriter_clear.nstackwords
	.set	FLAC__bitwriter_clear.maxcores,1
	.globl	FLAC__bitwriter_clear.maxcores
	.set	FLAC__bitwriter_clear.maxtimers,0
	.globl	FLAC__bitwriter_clear.maxtimers
	.set	FLAC__bitwriter_clear.maxchanends,0
	.globl	FLAC__bitwriter_clear.maxchanends
.Ltmp38:
	.size	FLAC__bitwriter_clear, .Ltmp38-FLAC__bitwriter_clear
.Lfunc_end4:
	.cfi_endproc

	.globl	FLAC__bitwriter_get_write_crc16
	.align	4
	.type	FLAC__bitwriter_get_write_crc16,@function
	.cc_top FLAC__bitwriter_get_write_crc16.function,FLAC__bitwriter_get_write_crc16
FLAC__bitwriter_get_write_crc16:
.Lfunc_begin5:
	.loc	2 202 0
	.cfi_startproc
	.issue_mode dual
	{
		nop
		dualentsp 6
	}
.Ltmp39:
	.cfi_def_cfa_offset 24
.Ltmp40:
	.cfi_offset 15, 0
.Ltmp41:
	.cfi_offset 4, -8
.Ltmp42:
	{
		mov r4, r1
		stw r4, sp[4]
	}
.Ltmp43:
	{
		ldaw r1, sp[3]
		ldaw r2, sp[2]
	}
.Ltmp44:
	.loc	2 208 6 prologue_end
	bl FLAC__bitwriter_get_buffer
.Ltmp45:
	.loc	2 208 6
	bf r0, .LBB5_1
.Ltmp46:
	{
		nop
		ldw r0, sp[3]
	}
	{
		nop
		ldw r1, sp[2]
	}
	.loc	2 211 23
	bl FLAC__crc16
	.loc	2 211 23
	{
		ldc r1, 0
		nop
	}
	st16 r0, r4[r1]
	{
		mkmsk r0, 1
		nop
	}
	bu .LBB5_3
.Ltmp47:
.LBB5_1:
	{
		ldc r0, 0
		nop
	}
.LBB5_3:
	{
		nop
		ldw r4, sp[4]
	}
	{
		nop
		retsp 6
	}
	.loc	2 214 1
	# RETURN_REG_HOLDER
.Ltmp48:
	.cc_bottom FLAC__bitwriter_get_write_crc16.function
	.set	FLAC__bitwriter_get_write_crc16.nstackwords,((FLAC__bitwriter_get_buffer.nstackwords $M FLAC__crc16.nstackwords) + 6)
	.globl	FLAC__bitwriter_get_write_crc16.nstackwords
	.set	FLAC__bitwriter_get_write_crc16.maxcores,FLAC__bitwriter_get_buffer.maxcores $M FLAC__crc16.maxcores $M 1
	.globl	FLAC__bitwriter_get_write_crc16.maxcores
	.set	FLAC__bitwriter_get_write_crc16.maxtimers,FLAC__bitwriter_get_buffer.maxtimers $M FLAC__crc16.maxtimers $M 0
	.globl	FLAC__bitwriter_get_write_crc16.maxtimers
	.set	FLAC__bitwriter_get_write_crc16.maxchanends,FLAC__bitwriter_get_buffer.maxchanends $M FLAC__crc16.maxchanends $M 0
	.globl	FLAC__bitwriter_get_write_crc16.maxchanends
.Ltmp49:
	.size	FLAC__bitwriter_get_write_crc16, .Ltmp49-FLAC__bitwriter_get_write_crc16
.Lfunc_end5:
	.cfi_endproc

	.globl	FLAC__bitwriter_get_buffer
	.align	4
	.type	FLAC__bitwriter_get_buffer,@function
	.cc_top FLAC__bitwriter_get_buffer.function,FLAC__bitwriter_get_buffer
FLAC__bitwriter_get_buffer:
.Lfunc_begin6:
	.loc	2 242 0
	.cfi_startproc
	.issue_mode dual
	{
		nop
		dualentsp 8
	}
.Ltmp50:
	.cfi_def_cfa_offset 32
.Ltmp51:
	.cfi_offset 15, 0
	std r5, r4, sp[1]
.Ltmp52:
	.cfi_offset 4, -24
.Ltmp53:
	.cfi_offset 5, -20
	std r7, r6, sp[2]
.Ltmp54:
	.cfi_offset 6, -16
.Ltmp55:
	.cfi_offset 7, -12
.Ltmp56:
	.cfi_offset 8, -8
.Ltmp57:
	{
		mov r4, r2
		stw r8, sp[6]
	}
.Ltmp58:
	{
		mov r5, r1
		mov r6, r0
	}
.Ltmp59:
	{
		nop
		ldw r0, r6[4]
	}
	.loc	2 245 5 prologue_end
.Ltmp60:
	{
		mov r1, r0
		nop
	}
	{
		zext r1, 3
		ldc r7, 0
	}
	bt r1, .LBB6_16
.Ltmp61:
	.loc	2 248 5
	bf r0, .LBB6_2
.Ltmp62:
	{
		nop
		ldw r1, r6[3]
	}
	{
		nop
		ldw r2, r6[2]
	}
	.loc	2 250 6
.Ltmp63:
	{
		eq r2, r1, r2
		nop
	}
	bf r2, .LBB6_14
.Ltmp64:
	{
		mkmsk r2, 6
		nop
	}
	.loc	2 113 2
.Ltmp65:
	{
		add r2, r0, r2
		nop
	}
	.loc	2 113 2
	{
		shr r2, r2, 5
		nop
	}
	.loc	2 113 2
	{
		add r8, r1, r2
		nop
	}
.Ltmp66:
	.loc	2 118 5
	{
		lsu r3, r1, r8
		nop
	}
	bf r3, .LBB6_14
.Ltmp67:
	.loc	2 121 5
	{
		shl r0, r8, 2
		nop
	}
	.loc	2 121 5
	ldw r1, cp[FLAC__STREAM_METADATA_LENGTH_LEN]
	{
		mkmsk r3, 1
		nop
	}
	.loc	2 121 5
	{
		shl r1, r3, r1
		nop
	}
	.loc	2 121 5
	{
		lsu r0, r1, r0
		nop
	}
	bt r0, .LBB6_16
.Ltmp68:
	ldc r0, 1023
	.loc	2 129 5
.Ltmp69:
	{
		and r0, r2, r0
		nop
	}
	bf r0, .LBB6_8
.Ltmp70:
	ldc r1, 1024
	.loc	2 130 3
	{
		add r1, r8, r1
		nop
	}
	.loc	2 130 3
	{
		sub r8, r1, r0
		nop
	}
.Ltmp71:
.LBB6_8:
	{
		nop
		ldw r0, r6[0]
	}
	.file	5 "C:/Users/takaaki/git/sw_xSSDAC/module_libFLAC/source/share\\alloc.h"
	.loc	5 286 5
.Ltmp72:
	bf r8, .LBB6_9
.Ltmp73:
	{
		mkmsk r1, 32
		nop
	}
	.loc	5 288 5
.Ltmp74:
	divu r1, r1, r8
	{
		ldc r2, 4
		nop
	}
	.loc	5 288 5
	{
		lsu r1, r1, r2
		nop
	}
	bt r1, .LBB6_16
.Ltmp75:
	.loc	5 290 9
	{
		shl r1, r8, 2
		nop
	}
	bu .LBB6_12
.Ltmp76:
.LBB6_2:
	{
		nop
		ldw r0, r6[0]
	}
	.loc	2 257 2
	ldaw r2, r6[3]
	{
		ldc r1, 0
		nop
	}
	bu .LBB6_15
.Ltmp77:
.LBB6_9:
	{
		ldc r1, 0
		nop
	}
.Ltmp78:
.LBB6_12:
	.loc	5 290 9
	bl realloc
.Ltmp79:
	bf r0, .LBB6_16
.Ltmp80:
	{
		nop
		stw r0, r6[0]
	}
	{
		nop
		stw r8, r6[2]
	}
	{
		nop
		ldw r0, r6[4]
	}
	{
		nop
		ldw r1, r6[3]
	}
.Ltmp81:
.LBB6_14:
	.loc	2 250 6
	ldaw r2, r6[3]
.Ltmp82:
	.loc	2 253 3
	{
		ldc r11, 32
		ldw r3, r6[1]
	}
	.loc	2 253 3
	{
		sub r0, r11, r0
		nop
	}
	.loc	2 253 3
	{
		shl r0, r3, r0
		nop
	}
	.loc	2 253 3
	{
		byterev r3, r0
		ldw r0, r6[0]
	}
	.loc	2 253 3
	stw r3, r0[r1]
	{
		nop
		ldw r1, r6[4]
	}
	.loc	2 254 2
	{
		shr r1, r1, 3
		nop
	}
.Ltmp83:
.LBB6_15:
	{
		nop
		stw r0, r5[0]
	}
	{
		nop
		ldw r0, r2[0]
	}
	.loc	2 257 2
	ldaw r0, r1[r0]
	.loc	2 257 2
	{
		mkmsk r7, 1
		stw r0, r4[0]
	}
.Ltmp84:
.LBB6_16:
	.loc	2 259 1
	{
		mov r0, r7
		ldw r8, sp[6]
	}
	ldd r7, r6, sp[2]
	ldd r5, r4, sp[1]
	{
		nop
		retsp 8
	}
	# RETURN_REG_HOLDER
.Ltmp85:
	.cc_bottom FLAC__bitwriter_get_buffer.function
	.set	FLAC__bitwriter_get_buffer.nstackwords,(realloc.nstackwords + 8)
	.globl	FLAC__bitwriter_get_buffer.nstackwords
	.set	FLAC__bitwriter_get_buffer.maxcores,realloc.maxcores $M 1
	.globl	FLAC__bitwriter_get_buffer.maxcores
	.set	FLAC__bitwriter_get_buffer.maxtimers,realloc.maxtimers $M 0
	.globl	FLAC__bitwriter_get_buffer.maxtimers
	.set	FLAC__bitwriter_get_buffer.maxchanends,realloc.maxchanends $M 0
	.globl	FLAC__bitwriter_get_buffer.maxchanends
.Ltmp86:
	.size	FLAC__bitwriter_get_buffer, .Ltmp86-FLAC__bitwriter_get_buffer
.Lfunc_end6:
	.file	6 "C:\\Program Files (x86)\\XMOS\\xTIMEcomposer\\Community_14.4.1\\target/include/clang\\stddef.h"
	.cfi_endproc

	.globl	FLAC__bitwriter_release_buffer
	.align	4
	.type	FLAC__bitwriter_release_buffer,@function
	.cc_top FLAC__bitwriter_release_buffer.function,FLAC__bitwriter_release_buffer
FLAC__bitwriter_release_buffer:
.Lfunc_begin7:
	.loc	2 262 0
	.cfi_startproc
	.issue_mode dual
	{
		nop
		dualentsp 0
	}
	{
		nop
		retsp 0
	}
	.loc	2 267 1 prologue_end
.Ltmp87:
	# RETURN_REG_HOLDER
.Ltmp88:
	.cc_bottom FLAC__bitwriter_release_buffer.function
	.set	FLAC__bitwriter_release_buffer.nstackwords,0
	.globl	FLAC__bitwriter_release_buffer.nstackwords
	.set	FLAC__bitwriter_release_buffer.maxcores,1
	.globl	FLAC__bitwriter_release_buffer.maxcores
	.set	FLAC__bitwriter_release_buffer.maxtimers,0
	.globl	FLAC__bitwriter_release_buffer.maxtimers
	.set	FLAC__bitwriter_release_buffer.maxchanends,0
	.globl	FLAC__bitwriter_release_buffer.maxchanends
.Ltmp89:
	.size	FLAC__bitwriter_release_buffer, .Ltmp89-FLAC__bitwriter_release_buffer
.Lfunc_end7:
	.cfi_endproc

	.globl	FLAC__bitwriter_get_write_crc8
	.align	4
	.type	FLAC__bitwriter_get_write_crc8,@function
	.cc_top FLAC__bitwriter_get_write_crc8.function,FLAC__bitwriter_get_write_crc8
FLAC__bitwriter_get_write_crc8:
.Lfunc_begin8:
	.loc	2 217 0
	.cfi_startproc
	.issue_mode dual
	{
		nop
		dualentsp 6
	}
.Ltmp90:
	.cfi_def_cfa_offset 24
.Ltmp91:
	.cfi_offset 15, 0
.Ltmp92:
	.cfi_offset 4, -8
.Ltmp93:
	{
		mov r4, r1
		stw r4, sp[4]
	}
.Ltmp94:
	{
		ldaw r1, sp[3]
		ldaw r2, sp[2]
	}
.Ltmp95:
	.loc	2 223 6 prologue_end
	bl FLAC__bitwriter_get_buffer
.Ltmp96:
	.loc	2 223 6
	bf r0, .LBB8_1
.Ltmp97:
	{
		nop
		ldw r0, sp[3]
	}
	{
		nop
		ldw r1, sp[2]
	}
	.loc	2 226 9
	bl FLAC__crc8
	.loc	2 226 9
	{
		ldc r1, 0
		nop
	}
	st8 r0, r4[r1]
	{
		mkmsk r0, 1
		nop
	}
	bu .LBB8_3
.Ltmp98:
.LBB8_1:
	{
		ldc r0, 0
		nop
	}
.LBB8_3:
	{
		nop
		ldw r4, sp[4]
	}
	{
		nop
		retsp 6
	}
	.loc	2 229 1
	# RETURN_REG_HOLDER
.Ltmp99:
	.cc_bottom FLAC__bitwriter_get_write_crc8.function
	.set	FLAC__bitwriter_get_write_crc8.nstackwords,((FLAC__bitwriter_get_buffer.nstackwords $M FLAC__crc8.nstackwords) + 6)
	.globl	FLAC__bitwriter_get_write_crc8.nstackwords
	.set	FLAC__bitwriter_get_write_crc8.maxcores,FLAC__bitwriter_get_buffer.maxcores $M FLAC__crc8.maxcores $M 1
	.globl	FLAC__bitwriter_get_write_crc8.maxcores
	.set	FLAC__bitwriter_get_write_crc8.maxtimers,FLAC__bitwriter_get_buffer.maxtimers $M FLAC__crc8.maxtimers $M 0
	.globl	FLAC__bitwriter_get_write_crc8.maxtimers
	.set	FLAC__bitwriter_get_write_crc8.maxchanends,FLAC__bitwriter_get_buffer.maxchanends $M FLAC__crc8.maxchanends $M 0
	.globl	FLAC__bitwriter_get_write_crc8.maxchanends
.Ltmp100:
	.size	FLAC__bitwriter_get_write_crc8, .Ltmp100-FLAC__bitwriter_get_write_crc8
.Lfunc_end8:
	.cfi_endproc

	.globl	FLAC__bitwriter_is_byte_aligned
	.align	4
	.type	FLAC__bitwriter_is_byte_aligned,@function
	.cc_top FLAC__bitwriter_is_byte_aligned.function,FLAC__bitwriter_is_byte_aligned
FLAC__bitwriter_is_byte_aligned:
.Lfunc_begin9:
	.loc	2 232 0
	.cfi_startproc
	.issue_mode dual
	{
		ldc r1, 16
		dualentsp 0
	}
	{
		nop
		ld8u r0, r0[r1]
	}
.Ltmp101:
	.loc	2 233 2 prologue_end
	{
		zext r0, 3
		nop
	}
	{
		eq r0, r0, 0
		retsp 0
	}
	.loc	2 233 2
	# RETURN_REG_HOLDER
.Ltmp102:
	.cc_bottom FLAC__bitwriter_is_byte_aligned.function
	.set	FLAC__bitwriter_is_byte_aligned.nstackwords,0
	.globl	FLAC__bitwriter_is_byte_aligned.nstackwords
	.set	FLAC__bitwriter_is_byte_aligned.maxcores,1
	.globl	FLAC__bitwriter_is_byte_aligned.maxcores
	.set	FLAC__bitwriter_is_byte_aligned.maxtimers,0
	.globl	FLAC__bitwriter_is_byte_aligned.maxtimers
	.set	FLAC__bitwriter_is_byte_aligned.maxchanends,0
	.globl	FLAC__bitwriter_is_byte_aligned.maxchanends
.Ltmp103:
	.size	FLAC__bitwriter_is_byte_aligned, .Ltmp103-FLAC__bitwriter_is_byte_aligned
.Lfunc_end9:
	.cfi_endproc

	.globl	FLAC__bitwriter_get_input_bits_unconsumed
	.align	4
	.type	FLAC__bitwriter_get_input_bits_unconsumed,@function
	.cc_top FLAC__bitwriter_get_input_bits_unconsumed.function,FLAC__bitwriter_get_input_bits_unconsumed
FLAC__bitwriter_get_input_bits_unconsumed:
.Lfunc_begin10:
	.loc	2 237 0
	.cfi_startproc
	.issue_mode dual
	{
		nop
		dualentsp 0
	}
	{
		nop
		ldw r1, r0[3]
	}
	.loc	2 238 2 prologue_end
.Ltmp104:
	{
		shl r1, r1, 5
		ldw r0, r0[4]
	}
.Ltmp105:
	.loc	2 238 2
	{
		add r0, r1, r0
		retsp 0
	}
	.loc	2 238 2
	# RETURN_REG_HOLDER
.Ltmp106:
	.cc_bottom FLAC__bitwriter_get_input_bits_unconsumed.function
	.set	FLAC__bitwriter_get_input_bits_unconsumed.nstackwords,0
	.globl	FLAC__bitwriter_get_input_bits_unconsumed.nstackwords
	.set	FLAC__bitwriter_get_input_bits_unconsumed.maxcores,1
	.globl	FLAC__bitwriter_get_input_bits_unconsumed.maxcores
	.set	FLAC__bitwriter_get_input_bits_unconsumed.maxtimers,0
	.globl	FLAC__bitwriter_get_input_bits_unconsumed.maxtimers
	.set	FLAC__bitwriter_get_input_bits_unconsumed.maxchanends,0
	.globl	FLAC__bitwriter_get_input_bits_unconsumed.maxchanends
.Ltmp107:
	.size	FLAC__bitwriter_get_input_bits_unconsumed, .Ltmp107-FLAC__bitwriter_get_input_bits_unconsumed
.Lfunc_end10:
	.cfi_endproc

	.globl	FLAC__bitwriter_write_zeroes
	.align	4
	.type	FLAC__bitwriter_write_zeroes,@function
	.cc_top FLAC__bitwriter_write_zeroes.function,FLAC__bitwriter_write_zeroes
FLAC__bitwriter_write_zeroes:
.Lfunc_begin11:
	.loc	2 270 0
	.cfi_startproc
	.issue_mode dual
	{
		nop
		dualentsp 8
	}
.Ltmp108:
	.cfi_def_cfa_offset 32
.Ltmp109:
	.cfi_offset 15, 0
	std r5, r4, sp[1]
.Ltmp110:
	.cfi_offset 4, -24
.Ltmp111:
	.cfi_offset 5, -20
	std r7, r6, sp[2]
.Ltmp112:
	.cfi_offset 6, -16
.Ltmp113:
	.cfi_offset 7, -12
.Ltmp114:
	.cfi_offset 8, -8
.Ltmp115:
	{
		mov r4, r1
		stw r8, sp[6]
	}
.Ltmp116:
	{
		mov r5, r0
		mkmsk r7, 1
	}
.Ltmp117:
	bf r4, .LBB11_23
.Ltmp118:
	{
		nop
		ldw r0, r5[2]
	}
	{
		nop
		ldw r1, r5[3]
	}
	.loc	2 279 5 prologue_end
.Ltmp119:
	{
		add r2, r1, r4
		nop
	}
	.loc	2 279 5
	{
		lsu r2, r2, r0
		nop
	}
	bt r2, .LBB11_12
.Ltmp120:
	{
		nop
		ldw r2, r5[4]
	}
	.loc	2 113 2
.Ltmp121:
	{
		add r2, r4, r2
		mkmsk r3, 5
	}
	.loc	2 113 2
	{
		add r2, r2, r3
		nop
	}
	.loc	2 113 2
	{
		shr r2, r2, 5
		nop
	}
	.loc	2 113 2
	{
		add r8, r2, r1
		nop
	}
.Ltmp122:
	.loc	2 118 5
	{
		lsu r1, r0, r8
		nop
	}
	bf r1, .LBB11_12
.Ltmp123:
	.loc	2 121 5
	{
		shl r1, r8, 2
		nop
	}
	.loc	2 121 5
	ldw r2, cp[FLAC__STREAM_METADATA_LENGTH_LEN]
	{
		mkmsk r3, 1
		nop
	}
	.loc	2 121 5
	{
		shl r2, r3, r2
		nop
	}
	.loc	2 121 5
	{
		lsu r1, r2, r1
		ldc r6, 0
	}
	bt r1, .LBB11_24
.Ltmp124:
	.loc	2 129 5
	{
		sub r0, r8, r0
		nop
	}
	ldc r1, 1023
	.loc	2 129 5
	{
		and r0, r0, r1
		nop
	}
	bf r0, .LBB11_6
.Ltmp125:
	ldc r1, 1024
	.loc	2 130 3
	{
		add r1, r8, r1
		nop
	}
	.loc	2 130 3
	{
		sub r8, r1, r0
		nop
	}
.Ltmp126:
.LBB11_6:
	{
		nop
		ldw r0, r5[0]
	}
	.loc	5 286 5
.Ltmp127:
	bf r8, .LBB11_7
.Ltmp128:
	{
		mkmsk r1, 32
		nop
	}
	.loc	5 288 5
.Ltmp129:
	divu r1, r1, r8
	{
		ldc r2, 4
		nop
	}
	.loc	5 288 5
	{
		lsu r1, r1, r2
		nop
	}
	bt r1, .LBB11_24
.Ltmp130:
	.loc	5 290 9
	{
		shl r1, r8, 2
		nop
	}
	bu .LBB11_10
.Ltmp131:
.LBB11_7:
	{
		ldc r1, 0
		nop
	}
.Ltmp132:
.LBB11_10:
	.loc	5 290 9
	bl realloc
.Ltmp133:
	bf r0, .LBB11_24
.Ltmp134:
	{
		nop
		stw r0, r5[0]
	}
	{
		nop
		stw r8, r5[2]
	}
.Ltmp135:
.LBB11_12:
	{
		nop
		ldw r0, r5[4]
	}
	bf r0, .LBB11_17
.Ltmp136:
	{
		ldc r1, 32
		nop
	}
	.loc	2 283 3
.Ltmp137:
	{
		sub r3, r1, r0
		nop
	}
	.loc	2 283 3
	{
		lsu r11, r4, r3
		mov r2, r4
	}
	bt r11, .LBB11_15
.Ltmp138:
	.loc	2 283 3
	{
		mov r2, r3
		nop
	}
.Ltmp139:
.LBB11_15:
	{
		nop
		ldw r3, r5[1]
	}
	.loc	2 284 3
	{
		shl r3, r3, r2
		nop
	}
	.loc	2 284 3
	{
		add r0, r0, r2
		stw r3, r5[1]
	}
	.loc	2 286 3
	{
		eq r0, r0, r1
		stw r0, r5[4]
	}
	bf r0, .LBB11_23
.Ltmp140:
	.loc	2 285 3
	{
		sub r4, r4, r2
		byterev r0, r3
	}
.Ltmp141:
	{
		nop
		ldw r1, r5[3]
	}
	.loc	2 288 4
.Ltmp142:
	{
		add r2, r1, 1
		nop
	}
.Ltmp143:
	{
		nop
		stw r2, r5[3]
	}
	{
		nop
		ldw r2, r5[0]
	}
	.loc	2 288 4
	stw r0, r2[r1]
	{
		ldc r0, 0
		nop
	}
	{
		nop
		stw r0, r5[4]
	}
.Ltmp144:
.LBB11_17:
	.loc	2 295 2
	{
		shr r0, r4, 5
		nop
	}
	bf r0, .LBB11_21
.Ltmp145:
	.loc	2 296 3
	{
		ldc r1, 0
		ldw r0, r5[0]
	}
	{
		mov r2, r4
		nop
	}
.Ltmp146:
.LBB11_19:
	{
		nop
		ldw r3, r5[3]
	}
	.loc	2 296 3
	{
		add r11, r3, 1
		nop
	}
	{
		nop
		stw r11, r5[3]
	}
	.loc	2 296 3
	stw r1, r0[r3]
	.loc	2 297 3
	ldaw r2, r2[-8]
.Ltmp147:
	.loc	2 295 2
	{
		shr r3, r2, 5
		nop
	}
	.loc	2 295 2
	bt r3, .LBB11_19
.Ltmp148:
	.loc	2 295 2
	{
		zext r4, 5
		nop
	}
.Ltmp149:
.LBB11_21:
	bf r4, .LBB11_23
.Ltmp150:
	{
		ldc r0, 0
		nop
	}
	{
		nop
		stw r0, r5[1]
	}
	{
		nop
		stw r4, r5[4]
	}
.Ltmp151:
.LBB11_23:
	{
		mov r6, r7
		nop
	}
.LBB11_24:
	.loc	2 305 1
	{
		mov r0, r6
		ldw r8, sp[6]
	}
	ldd r7, r6, sp[2]
	ldd r5, r4, sp[1]
	{
		nop
		retsp 8
	}
	# RETURN_REG_HOLDER
.Ltmp152:
	.cc_bottom FLAC__bitwriter_write_zeroes.function
	.set	FLAC__bitwriter_write_zeroes.nstackwords,(realloc.nstackwords + 8)
	.globl	FLAC__bitwriter_write_zeroes.nstackwords
	.set	FLAC__bitwriter_write_zeroes.maxcores,realloc.maxcores $M 1
	.globl	FLAC__bitwriter_write_zeroes.maxcores
	.set	FLAC__bitwriter_write_zeroes.maxtimers,realloc.maxtimers $M 0
	.globl	FLAC__bitwriter_write_zeroes.maxtimers
	.set	FLAC__bitwriter_write_zeroes.maxchanends,realloc.maxchanends $M 0
	.globl	FLAC__bitwriter_write_zeroes.maxchanends
.Ltmp153:
	.size	FLAC__bitwriter_write_zeroes, .Ltmp153-FLAC__bitwriter_write_zeroes
.Lfunc_end11:
	.cfi_endproc

	.globl	FLAC__bitwriter_write_raw_uint32
	.align	4
	.type	FLAC__bitwriter_write_raw_uint32,@function
	.cc_top FLAC__bitwriter_write_raw_uint32.function,FLAC__bitwriter_write_raw_uint32
FLAC__bitwriter_write_raw_uint32:
.Lfunc_begin12:
	.loc	2 349 0
	.cfi_startproc
	.issue_mode dual
.Ltmp154:
	.cfi_def_cfa_offset 8
.Ltmp155:
	.cfi_offset 15, 0
	{
		shr r3, r2, 5
		dualentsp 2
	}
	bt r3, .LBB12_3
.Ltmp156:
	{
		shr r3, r1, r2
		nop
	}
	bf r3, .LBB12_3
.Ltmp157:
	{
		ldc r0, 0
		retsp 2
	}
	.loc	2 355 1 prologue_end
.Ltmp158:
	# RETURN_REG_HOLDER
.LBB12_3:
.Ltmp159:
	.loc	2 354 9
	bl FLAC__bitwriter_write_raw_uint32_nocheck
.Ltmp160:
	{
		nop
		retsp 2
	}
	.loc	2 355 1
	# RETURN_REG_HOLDER
.Ltmp161:
	.cc_bottom FLAC__bitwriter_write_raw_uint32.function
	.set	FLAC__bitwriter_write_raw_uint32.nstackwords,(FLAC__bitwriter_write_raw_uint32_nocheck.nstackwords + 2)
	.globl	FLAC__bitwriter_write_raw_uint32.nstackwords
	.set	FLAC__bitwriter_write_raw_uint32.maxcores,FLAC__bitwriter_write_raw_uint32_nocheck.maxcores $M 1
	.globl	FLAC__bitwriter_write_raw_uint32.maxcores
	.set	FLAC__bitwriter_write_raw_uint32.maxtimers,FLAC__bitwriter_write_raw_uint32_nocheck.maxtimers $M 0
	.globl	FLAC__bitwriter_write_raw_uint32.maxtimers
	.set	FLAC__bitwriter_write_raw_uint32.maxchanends,FLAC__bitwriter_write_raw_uint32_nocheck.maxchanends $M 0
	.globl	FLAC__bitwriter_write_raw_uint32.maxchanends
.Ltmp162:
	.size	FLAC__bitwriter_write_raw_uint32, .Ltmp162-FLAC__bitwriter_write_raw_uint32
.Lfunc_end12:
	.cfi_endproc

	.section	.cp.rodata.cst4,"aMc",@progbits,4
	.cc_top .LCPI13_0.data,.LCPI13_0
	.align	4
	.type	.LCPI13_0,@object
	.size	.LCPI13_0, 4
.LCPI13_0:
	.long	16711680
	.cc_bottom .LCPI13_0.data
	.text
	.align	4
	.type	FLAC__bitwriter_write_raw_uint32_nocheck,@function
	.cc_top FLAC__bitwriter_write_raw_uint32_nocheck.function,FLAC__bitwriter_write_raw_uint32_nocheck
FLAC__bitwriter_write_raw_uint32_nocheck:
.Lfunc_begin13:
	.loc	2 308 0
	.cfi_startproc
	.issue_mode dual
	{
		nop
		dualentsp 10
	}
.Ltmp163:
	.cfi_def_cfa_offset 40
.Ltmp164:
	.cfi_offset 15, 0
	std r5, r4, sp[1]
.Ltmp165:
	.cfi_offset 4, -32
.Ltmp166:
	.cfi_offset 5, -28
	std r7, r6, sp[2]
.Ltmp167:
	.cfi_offset 6, -24
.Ltmp168:
	.cfi_offset 7, -20
	std r9, r8, sp[3]
.Ltmp169:
	.cfi_offset 8, -16
.Ltmp170:
	.cfi_offset 9, -12
.Ltmp171:
	.cfi_offset 10, -8
.Ltmp172:
	{
		mov r6, r2
		stw r10, sp[8]
	}
.Ltmp173:
	{
		mov r5, r1
		mov r4, r0
	}
.Ltmp174:
	{
		ldc r7, 0
		nop
	}
	bf r4, .LBB13_21
.Ltmp175:
	{
		nop
		ldw r0, r4[0]
	}
	bf r0, .LBB13_21
.Ltmp176:
	{
		ldc r9, 32
		nop
	}
	{
		lsu r1, r9, r6
		nop
	}
	bt r1, .LBB13_21
.Ltmp177:
	{
		mkmsk r8, 1
		nop
	}
	bf r6, .LBB13_20
.Ltmp178:
	{
		nop
		ldw r1, r4[2]
	}
	{
		nop
		ldw r2, r4[3]
	}
	.loc	2 326 5 prologue_end
.Ltmp179:
	{
		add r3, r2, r6
		nop
	}
	.loc	2 326 5
	{
		lsu r3, r3, r1
		nop
	}
	bt r3, .LBB13_15
.Ltmp180:
	{
		nop
		ldw r3, r4[4]
	}
	.loc	2 113 2
.Ltmp181:
	{
		add r3, r6, r3
		mkmsk r11, 5
	}
	.loc	2 113 2
	{
		add r3, r3, r11
		nop
	}
	.loc	2 113 2
	{
		shr r3, r3, 5
		nop
	}
	.loc	2 113 2
	{
		add r10, r3, r2
		nop
	}
.Ltmp182:
	.loc	2 118 5
	{
		lsu r2, r1, r10
		nop
	}
	bf r2, .LBB13_15
.Ltmp183:
	.loc	2 121 5
	{
		shl r2, r10, 2
		nop
	}
	.loc	2 121 5
	ldw r3, cp[FLAC__STREAM_METADATA_LENGTH_LEN]
	{
		mkmsk r11, 1
		nop
	}
	.loc	2 121 5
	{
		shl r3, r11, r3
		nop
	}
	.loc	2 121 5
	{
		lsu r2, r3, r2
		nop
	}
	bt r2, .LBB13_21
.Ltmp184:
	.loc	2 129 5
	{
		sub r1, r10, r1
		nop
	}
	ldc r2, 1023
	.loc	2 129 5
	{
		and r1, r1, r2
		nop
	}
	bf r1, .LBB13_9
.Ltmp185:
	ldc r2, 1024
	.loc	2 130 3
	{
		add r2, r10, r2
		nop
	}
	.loc	2 130 3
	{
		sub r10, r2, r1
		nop
	}
.Ltmp186:
.LBB13_9:
	.loc	5 286 5
	bf r10, .LBB13_10
.Ltmp187:
	{
		mkmsk r1, 32
		nop
	}
	.loc	5 288 5
.Ltmp188:
	divu r1, r1, r10
	{
		ldc r2, 4
		nop
	}
	.loc	5 288 5
	{
		lsu r1, r1, r2
		nop
	}
	bt r1, .LBB13_21
.Ltmp189:
	.loc	5 290 9
	{
		shl r1, r10, 2
		nop
	}
	bu .LBB13_13
.Ltmp190:
.LBB13_10:
	{
		ldc r1, 0
		nop
	}
.Ltmp191:
.LBB13_13:
	.loc	5 290 9
	bl realloc
.Ltmp192:
	bf r0, .LBB13_21
.Ltmp193:
	{
		nop
		stw r0, r4[0]
	}
	{
		nop
		stw r10, r4[2]
	}
.Ltmp194:
.LBB13_15:
	{
		nop
		ldw r1, r4[4]
	}
	.loc	2 329 2
	{
		sub r2, r9, r1
		nop
	}
.Ltmp195:
	.loc	2 330 5
	{
		lsu r3, r6, r2
		nop
	}
	bf r3, .LBB13_17
.Ltmp196:
	{
		nop
		ldw r0, r4[1]
	}
	.loc	2 331 3
.Ltmp197:
	{
		shl r0, r0, r6
		nop
	}
	.loc	2 332 3
	{
		or r0, r0, r5
		nop
	}
	.loc	2 332 3
	{
		add r0, r1, r6
		stw r0, r4[1]
	}
	{
		nop
		stw r0, r4[4]
	}
	bu .LBB13_20
.Ltmp198:
.LBB13_17:
	.loc	2 335 10
	bf r1, .LBB13_19
.Ltmp199:
	{
		nop
		ldw r1, r4[1]
	}
	.loc	2 336 3
.Ltmp200:
	{
		shl r1, r1, r2
		sub r2, r6, r2
	}
.Ltmp201:
	.loc	2 337 3
	{
		shr r2, r5, r2
		stw r2, r4[4]
	}
	.loc	2 337 3
	{
		or r1, r1, r2
		nop
	}
	.loc	2 338 3
	{
		shr r2, r1, 24
		shr r3, r1, 8
	}
	ldc r11, 65280
	.loc	2 338 3
	{
		and r3, r3, r11
		shl r11, r1, 8
	}
	ldw r6, cp[.LCPI13_0]
.Ltmp202:
	.loc	2 338 3
	{
		and r11, r11, r6
		shl r1, r1, 24
	}
	.loc	2 338 3
	{
		or r1, r1, r2
		nop
	}
	.loc	2 338 3
	{
		or r1, r1, r3
		nop
	}
	.loc	2 338 3
	{
		or r1, r1, r11
		ldw r2, r4[3]
	}
	.loc	2 338 3
	{
		add r3, r2, 1
		nop
	}
	{
		nop
		stw r3, r4[3]
	}
	.loc	2 338 3
	stw r1, r0[r2]
	{
		nop
		stw r5, r4[1]
	}
	bu .LBB13_20
.Ltmp203:
.LBB13_19:
	.loc	2 342 3
	{
		byterev r1, r5
		ldw r2, r4[3]
	}
	.loc	2 342 3
	{
		add r3, r2, 1
		nop
	}
	{
		nop
		stw r3, r4[3]
	}
	.loc	2 342 3
	stw r1, r0[r2]
.Ltmp204:
.LBB13_20:
	{
		mov r7, r8
		nop
	}
.LBB13_21:
	.loc	2 346 1
	{
		mov r0, r7
		ldw r10, sp[8]
	}
	ldd r9, r8, sp[3]
	ldd r7, r6, sp[2]
	ldd r5, r4, sp[1]
	{
		nop
		retsp 10
	}
	# RETURN_REG_HOLDER
.Ltmp205:
	.cc_bottom FLAC__bitwriter_write_raw_uint32_nocheck.function
	.set	FLAC__bitwriter_write_raw_uint32_nocheck.nstackwords,(realloc.nstackwords + 10)
	.set	FLAC__bitwriter_write_raw_uint32_nocheck.maxcores,realloc.maxcores $M 1
	.set	FLAC__bitwriter_write_raw_uint32_nocheck.maxtimers,realloc.maxtimers $M 0
	.set	FLAC__bitwriter_write_raw_uint32_nocheck.maxchanends,realloc.maxchanends $M 0
.Ltmp206:
	.size	FLAC__bitwriter_write_raw_uint32_nocheck, .Ltmp206-FLAC__bitwriter_write_raw_uint32_nocheck
.Lfunc_end13:
	.cfi_endproc

	.globl	FLAC__bitwriter_write_raw_int32
	.align	4
	.type	FLAC__bitwriter_write_raw_int32,@function
	.cc_top FLAC__bitwriter_write_raw_int32.function,FLAC__bitwriter_write_raw_int32
FLAC__bitwriter_write_raw_int32:
.Lfunc_begin14:
	.loc	2 358 0
	.cfi_startproc
	.issue_mode dual
.Ltmp207:
	.cfi_def_cfa_offset 8
.Ltmp208:
	.cfi_offset 15, 0
	{
		shr r3, r2, 5
		dualentsp 2
	}
	bt r3, .LBB14_2
.Ltmp209:
	{
		mkmsk r3, 32
		nop
	}
	.loc	2 361 3 prologue_end
.Ltmp210:
	{
		shl r3, r3, r2
		nop
	}
	.loc	2 361 3
	{
		andnot r1, r3
		nop
	}
.Ltmp211:
.LBB14_2:
	.loc	2 363 9
	bl FLAC__bitwriter_write_raw_uint32_nocheck
.Ltmp212:
	{
		nop
		retsp 2
	}
	.loc	2 363 9
	# RETURN_REG_HOLDER
.Ltmp213:
	.cc_bottom FLAC__bitwriter_write_raw_int32.function
	.set	FLAC__bitwriter_write_raw_int32.nstackwords,(FLAC__bitwriter_write_raw_uint32_nocheck.nstackwords + 2)
	.globl	FLAC__bitwriter_write_raw_int32.nstackwords
	.set	FLAC__bitwriter_write_raw_int32.maxcores,FLAC__bitwriter_write_raw_uint32_nocheck.maxcores $M 1
	.globl	FLAC__bitwriter_write_raw_int32.maxcores
	.set	FLAC__bitwriter_write_raw_int32.maxtimers,FLAC__bitwriter_write_raw_uint32_nocheck.maxtimers $M 0
	.globl	FLAC__bitwriter_write_raw_int32.maxtimers
	.set	FLAC__bitwriter_write_raw_int32.maxchanends,FLAC__bitwriter_write_raw_uint32_nocheck.maxchanends $M 0
	.globl	FLAC__bitwriter_write_raw_int32.maxchanends
.Ltmp214:
	.size	FLAC__bitwriter_write_raw_int32, .Ltmp214-FLAC__bitwriter_write_raw_int32
.Lfunc_end14:
	.cfi_endproc

	.globl	FLAC__bitwriter_write_raw_uint64
	.align	4
	.type	FLAC__bitwriter_write_raw_uint64,@function
	.cc_top FLAC__bitwriter_write_raw_uint64.function,FLAC__bitwriter_write_raw_uint64
FLAC__bitwriter_write_raw_uint64:
.Lfunc_begin15:
	.loc	2 367 0
	.cfi_startproc
	.issue_mode dual
	{
		nop
		dualentsp 6
	}
.Ltmp215:
	.cfi_def_cfa_offset 24
.Ltmp216:
	.cfi_offset 15, 0
	std r5, r4, sp[1]
.Ltmp217:
	.cfi_offset 4, -16
.Ltmp218:
	.cfi_offset 5, -12
.Ltmp219:
	.cfi_offset 6, -8
	{
		mov r4, r1
		stw r6, sp[4]
	}
.Ltmp220:
	{
		mov r5, r0
		ldc r0, 33
	}
.Ltmp221:
	.loc	2 369 5 prologue_end
	{
		lsu r0, r3, r0
		nop
	}
	bt r0, .LBB15_5
.Ltmp222:
	.loc	2 371 4
	ldaw r3, r3[-8]
.Ltmp223:
	.loc	2 351 5
	{
		shr r0, r3, 5
		ldc r6, 0
	}
	bt r0, .LBB15_3
.Ltmp224:
	.loc	2 371 4
	{
		shr r0, r2, r3
		nop
	}
	bt r0, .LBB15_9
.Ltmp225:
.LBB15_3:
	.loc	2 354 9
	{
		mov r0, r5
		mov r1, r2
	}
	{
		mov r2, r3
		nop
	}
	bl FLAC__bitwriter_write_raw_uint32_nocheck
.Ltmp226:
	bf r0, .LBB15_9
.Ltmp227:
	{
		ldc r2, 32
		mov r0, r5
	}
	.loc	2 372 4
	{
		mov r1, r4
		nop
	}
	bl FLAC__bitwriter_write_raw_uint32_nocheck
	.loc	2 372 4
	{
		eq r0, r0, 0
		nop
	}
	{
		eq r6, r0, 0
		nop
	}
	bu .LBB15_9
.Ltmp228:
.LBB15_5:
	.loc	2 351 5
	{
		shr r0, r3, 5
		nop
	}
	bt r0, .LBB15_8
.Ltmp229:
	.loc	2 375 10
	{
		shr r0, r4, r3
		nop
	}
	bf r0, .LBB15_8
.Ltmp230:
	{
		ldc r6, 0
		nop
	}
	bu .LBB15_9
.LBB15_8:
.Ltmp231:
	.loc	2 354 9
	{
		mov r0, r5
		mov r1, r4
	}
	{
		mov r2, r3
		nop
	}
	bl FLAC__bitwriter_write_raw_uint32_nocheck
.Ltmp232:
	{
		mov r6, r0
		nop
	}
.Ltmp233:
.LBB15_9:
	.loc	2 376 1
	{
		mov r0, r6
		ldw r6, sp[4]
	}
	ldd r5, r4, sp[1]
	{
		nop
		retsp 6
	}
	# RETURN_REG_HOLDER
.Ltmp234:
	.cc_bottom FLAC__bitwriter_write_raw_uint64.function
	.set	FLAC__bitwriter_write_raw_uint64.nstackwords,(FLAC__bitwriter_write_raw_uint32_nocheck.nstackwords + 6)
	.globl	FLAC__bitwriter_write_raw_uint64.nstackwords
	.set	FLAC__bitwriter_write_raw_uint64.maxcores,FLAC__bitwriter_write_raw_uint32_nocheck.maxcores $M 1
	.globl	FLAC__bitwriter_write_raw_uint64.maxcores
	.set	FLAC__bitwriter_write_raw_uint64.maxtimers,FLAC__bitwriter_write_raw_uint32_nocheck.maxtimers $M 0
	.globl	FLAC__bitwriter_write_raw_uint64.maxtimers
	.set	FLAC__bitwriter_write_raw_uint64.maxchanends,FLAC__bitwriter_write_raw_uint32_nocheck.maxchanends $M 0
	.globl	FLAC__bitwriter_write_raw_uint64.maxchanends
.Ltmp235:
	.size	FLAC__bitwriter_write_raw_uint64, .Ltmp235-FLAC__bitwriter_write_raw_uint64
.Lfunc_end15:
	.cfi_endproc

	.globl	FLAC__bitwriter_write_raw_int64
	.align	4
	.type	FLAC__bitwriter_write_raw_int64,@function
	.cc_top FLAC__bitwriter_write_raw_int64.function,FLAC__bitwriter_write_raw_int64
FLAC__bitwriter_write_raw_int64:
.Lfunc_begin16:
	.loc	2 379 0
	.cfi_startproc
	.issue_mode dual
	{
		nop
		dualentsp 6
	}
.Ltmp236:
	.cfi_def_cfa_offset 24
.Ltmp237:
	.cfi_offset 15, 0
	std r5, r4, sp[1]
.Ltmp238:
	.cfi_offset 4, -16
.Ltmp239:
	.cfi_offset 5, -12
	std r7, r6, sp[2]
.Ltmp240:
	.cfi_offset 6, -8
.Ltmp241:
	.cfi_offset 7, -4
.Ltmp242:
	{
		mov r6, r3
		mov r7, r2
	}
.Ltmp243:
	{
		mov r4, r1
		mov r5, r0
	}
.Ltmp244:
	.loc	2 382 5 prologue_end
	{
		shr r0, r6, 6
		nop
	}
	bt r0, .LBB16_3
.Ltmp245:
	{
		mkmsk r0, 32
		nop
	}
	.loc	2 383 3
	{
		mov r1, r0
		mov r2, r6
	}
	bl __ashldi3
.Ltmp246:
	.loc	2 383 3
	{
		andnot r4, r0
		ldc r0, 33
	}
.Ltmp247:
	.loc	2 369 5
	{
		lsu r0, r6, r0
		nop
	}
	bt r0, .LBB16_7
.Ltmp248:
	.loc	2 383 3
	{
		andnot r7, r1
		nop
	}
.Ltmp249:
.LBB16_3:
	.loc	2 371 4
	ldaw r2, r6[-8]
.Ltmp250:
	.loc	2 351 5
	{
		shr r0, r2, 5
		ldc r6, 0
	}
.Ltmp251:
	bt r0, .LBB16_5
.Ltmp252:
	.loc	2 371 4
	{
		shr r0, r7, r2
		nop
	}
	bt r0, .LBB16_11
.Ltmp253:
.LBB16_5:
	.loc	2 354 9
	{
		mov r0, r5
		mov r1, r7
	}
	bl FLAC__bitwriter_write_raw_uint32_nocheck
.Ltmp254:
	bf r0, .LBB16_11
.Ltmp255:
	{
		ldc r2, 32
		mov r0, r5
	}
	.loc	2 372 4
	{
		mov r1, r4
		nop
	}
	bl FLAC__bitwriter_write_raw_uint32_nocheck
	.loc	2 372 4
	{
		eq r0, r0, 0
		nop
	}
	{
		eq r6, r0, 0
		nop
	}
	bu .LBB16_11
.Ltmp256:
.LBB16_7:
	.loc	2 351 5
	{
		shr r0, r6, 5
		nop
	}
	bt r0, .LBB16_10
.Ltmp257:
	.loc	2 375 10
	{
		shr r0, r4, r6
		nop
	}
	bf r0, .LBB16_10
.Ltmp258:
	{
		ldc r6, 0
		nop
	}
	bu .LBB16_11
.LBB16_10:
.Ltmp259:
	.loc	2 354 9
	{
		mov r0, r5
		mov r1, r4
	}
	{
		mov r2, r6
		nop
	}
	bl FLAC__bitwriter_write_raw_uint32_nocheck
	{
		mov r6, r0
		nop
	}
.Ltmp260:
.LBB16_11:
	.loc	2 384 9
	{
		mov r0, r6
		nop
	}
	ldd r7, r6, sp[2]
	ldd r5, r4, sp[1]
	{
		nop
		retsp 6
	}
	# RETURN_REG_HOLDER
.Ltmp261:
	.cc_bottom FLAC__bitwriter_write_raw_int64.function
	.set	FLAC__bitwriter_write_raw_int64.nstackwords,((__ashldi3.nstackwords $M FLAC__bitwriter_write_raw_uint32_nocheck.nstackwords) + 6)
	.globl	FLAC__bitwriter_write_raw_int64.nstackwords
	.set	FLAC__bitwriter_write_raw_int64.maxcores,FLAC__bitwriter_write_raw_uint32_nocheck.maxcores $M 1
	.globl	FLAC__bitwriter_write_raw_int64.maxcores
	.set	FLAC__bitwriter_write_raw_int64.maxtimers,FLAC__bitwriter_write_raw_uint32_nocheck.maxtimers $M 0
	.globl	FLAC__bitwriter_write_raw_int64.maxtimers
	.set	FLAC__bitwriter_write_raw_int64.maxchanends,FLAC__bitwriter_write_raw_uint32_nocheck.maxchanends $M 0
	.globl	FLAC__bitwriter_write_raw_int64.maxchanends
.Ltmp262:
	.size	FLAC__bitwriter_write_raw_int64, .Ltmp262-FLAC__bitwriter_write_raw_int64
.Lfunc_end16:
	.cfi_endproc

	.globl	FLAC__bitwriter_write_raw_uint32_little_endian
	.align	4
	.type	FLAC__bitwriter_write_raw_uint32_little_endian,@function
	.cc_top FLAC__bitwriter_write_raw_uint32_little_endian.function,FLAC__bitwriter_write_raw_uint32_little_endian
FLAC__bitwriter_write_raw_uint32_little_endian:
.Lfunc_begin17:
	.loc	2 388 0
	.cfi_startproc
	.issue_mode dual
	{
		nop
		dualentsp 6
	}
.Ltmp263:
	.cfi_def_cfa_offset 24
.Ltmp264:
	.cfi_offset 15, 0
	std r5, r4, sp[1]
.Ltmp265:
	.cfi_offset 4, -16
.Ltmp266:
	.cfi_offset 5, -12
.Ltmp267:
	.cfi_offset 6, -8
.Ltmp268:
	{
		mov r5, r1
		stw r6, sp[4]
	}
.Ltmp269:
	{
		mov r4, r0
		zext r1, 8
	}
.Ltmp270:
	{
		ldc r2, 8
		nop
	}
	.loc	2 391 6 prologue_end
.Ltmp271:
	bl FLAC__bitwriter_write_raw_uint32_nocheck
	{
		ldc r6, 0
		nop
	}
	bf r0, .LBB17_4
.Ltmp272:
	.loc	2 393 6
	{
		shr r1, r5, 8
		nop
	}
	.loc	2 393 6
	{
		zext r1, 8
		ldc r2, 8
	}
	.loc	2 393 6
	{
		mov r0, r4
		nop
	}
	bl FLAC__bitwriter_write_raw_uint32_nocheck
	bf r0, .LBB17_4
.Ltmp273:
	.loc	2 395 6
	{
		shr r1, r5, 16
		nop
	}
	.loc	2 395 6
	{
		zext r1, 8
		ldc r2, 8
	}
	.loc	2 395 6
	{
		mov r0, r4
		nop
	}
	bl FLAC__bitwriter_write_raw_uint32_nocheck
	bf r0, .LBB17_4
.Ltmp274:
	.loc	2 397 6
	{
		shr r1, r5, 24
		ldc r2, 8
	}
	.loc	2 397 6
	{
		mov r0, r4
		nop
	}
	bl FLAC__bitwriter_write_raw_uint32_nocheck
	.loc	2 398 3
	{
		eq r0, r0, 0
		nop
	}
	{
		eq r6, r0, 0
		nop
	}
.Ltmp275:
.LBB17_4:
	.loc	2 401 1
	{
		mov r0, r6
		ldw r6, sp[4]
	}
	ldd r5, r4, sp[1]
	{
		nop
		retsp 6
	}
	# RETURN_REG_HOLDER
.Ltmp276:
	.cc_bottom FLAC__bitwriter_write_raw_uint32_little_endian.function
	.set	FLAC__bitwriter_write_raw_uint32_little_endian.nstackwords,(FLAC__bitwriter_write_raw_uint32_nocheck.nstackwords + 6)
	.globl	FLAC__bitwriter_write_raw_uint32_little_endian.nstackwords
	.set	FLAC__bitwriter_write_raw_uint32_little_endian.maxcores,FLAC__bitwriter_write_raw_uint32_nocheck.maxcores $M 1
	.globl	FLAC__bitwriter_write_raw_uint32_little_endian.maxcores
	.set	FLAC__bitwriter_write_raw_uint32_little_endian.maxtimers,FLAC__bitwriter_write_raw_uint32_nocheck.maxtimers $M 0
	.globl	FLAC__bitwriter_write_raw_uint32_little_endian.maxtimers
	.set	FLAC__bitwriter_write_raw_uint32_little_endian.maxchanends,FLAC__bitwriter_write_raw_uint32_nocheck.maxchanends $M 0
	.globl	FLAC__bitwriter_write_raw_uint32_little_endian.maxchanends
.Ltmp277:
	.size	FLAC__bitwriter_write_raw_uint32_little_endian, .Ltmp277-FLAC__bitwriter_write_raw_uint32_little_endian
.Lfunc_end17:
	.cfi_endproc

	.globl	FLAC__bitwriter_write_byte_block
	.align	4
	.type	FLAC__bitwriter_write_byte_block,@function
	.cc_top FLAC__bitwriter_write_byte_block.function,FLAC__bitwriter_write_byte_block
FLAC__bitwriter_write_byte_block:
.Lfunc_begin18:
	.loc	2 404 0
	.cfi_startproc
	.issue_mode dual
	{
		nop
		dualentsp 10
	}
.Ltmp278:
	.cfi_def_cfa_offset 40
.Ltmp279:
	.cfi_offset 15, 0
	std r5, r4, sp[1]
.Ltmp280:
	.cfi_offset 4, -32
.Ltmp281:
	.cfi_offset 5, -28
	std r7, r6, sp[2]
.Ltmp282:
	.cfi_offset 6, -24
.Ltmp283:
	.cfi_offset 7, -20
	std r9, r8, sp[3]
.Ltmp284:
	.cfi_offset 8, -16
.Ltmp285:
	.cfi_offset 9, -12
.Ltmp286:
	.cfi_offset 10, -8
.Ltmp287:
	{
		mov r4, r2
		stw r10, sp[8]
	}
.Ltmp288:
	{
		mov r5, r1
		mov r6, r0
	}
.Ltmp289:
	{
		nop
		ldw r0, r6[2]
	}
	.loc	2 408 5 prologue_end
.Ltmp290:
	{
		shr r2, r4, 2
		ldw r1, r6[3]
	}
	.loc	2 408 5
	{
		add r2, r2, r1
		nop
	}
	.loc	2 408 5
	{
		add r2, r2, 1
		nop
	}
	.loc	2 408 5
	{
		lsu r2, r2, r0
		nop
	}
	bt r2, .LBB18_11
.Ltmp291:
	.loc	2 408 75
	{
		shl r2, r4, 3
		ldw r3, r6[4]
	}
.Ltmp292:
	.loc	2 113 2
	{
		add r2, r2, r3
		mkmsk r3, 5
	}
	.loc	2 113 2
	{
		add r2, r2, r3
		nop
	}
	.loc	2 113 2
	{
		shr r2, r2, 5
		nop
	}
	.loc	2 113 2
	{
		add r8, r2, r1
		nop
	}
.Ltmp293:
	.loc	2 118 5
	{
		lsu r1, r0, r8
		nop
	}
.Ltmp294:
	bf r1, .LBB18_11
.Ltmp295:
	.loc	2 121 5
	{
		shl r1, r8, 2
		nop
	}
	.loc	2 121 5
	ldw r2, cp[FLAC__STREAM_METADATA_LENGTH_LEN]
	{
		mkmsk r3, 1
		nop
	}
	.loc	2 121 5
	{
		shl r2, r3, r2
		nop
	}
	.loc	2 121 5
	{
		lsu r1, r2, r1
		ldc r7, 0
	}
	bt r1, .LBB18_16
.Ltmp296:
	.loc	2 129 5
	{
		sub r0, r8, r0
		nop
	}
	ldc r1, 1023
	.loc	2 129 5
	{
		and r0, r0, r1
		nop
	}
	bf r0, .LBB18_5
.Ltmp297:
	ldc r1, 1024
	.loc	2 130 3
	{
		add r1, r8, r1
		nop
	}
	.loc	2 130 3
	{
		sub r8, r1, r0
		nop
	}
.Ltmp298:
.LBB18_5:
	{
		nop
		ldw r0, r6[0]
	}
	.loc	5 286 5
.Ltmp299:
	bf r8, .LBB18_6
.Ltmp300:
	{
		mkmsk r1, 32
		nop
	}
	.loc	5 288 5
.Ltmp301:
	divu r1, r1, r8
	{
		ldc r2, 4
		nop
	}
	.loc	5 288 5
	{
		lsu r1, r1, r2
		nop
	}
	bt r1, .LBB18_16
.Ltmp302:
	.loc	5 290 9
	{
		shl r1, r8, 2
		nop
	}
	bu .LBB18_9
.Ltmp303:
.LBB18_6:
	{
		ldc r1, 0
		nop
	}
.Ltmp304:
.LBB18_9:
	.loc	5 290 9
	bl realloc
.Ltmp305:
	bf r0, .LBB18_16
.Ltmp306:
	{
		nop
		stw r0, r6[0]
	}
	{
		nop
		stw r8, r6[2]
	}
.Ltmp307:
.LBB18_11:
	{
		mkmsk r7, 1
		nop
	}
	bf r4, .LBB18_16
.Ltmp308:
	{
		ldc r9, 0
		ldc r8, 8
	}
	{
		ldc r10, 0
		nop
	}
.Ltmp309:
.LBB18_14:
	.loc	2 413 7
	{
		mov r0, r6
		ld8u r1, r5[r9]
	}
	.loc	2 413 7
	{
		mov r2, r8
		nop
	}
	bl FLAC__bitwriter_write_raw_uint32_nocheck
	.loc	2 413 7
	bf r0, .LBB18_15
.Ltmp310:
	.loc	2 412 24
	{
		add r9, r9, 1
		nop
	}
.Ltmp311:
	.loc	2 412 2
	{
		lsu r0, r9, r4
		nop
	}
	bt r0, .LBB18_14
	bu .LBB18_16
.Ltmp312:
.LBB18_15:
	{
		mov r7, r10
		nop
	}
.LBB18_16:
	.loc	2 418 1
	{
		mov r0, r7
		ldw r10, sp[8]
	}
	ldd r9, r8, sp[3]
	ldd r7, r6, sp[2]
	ldd r5, r4, sp[1]
	{
		nop
		retsp 10
	}
	# RETURN_REG_HOLDER
.Ltmp313:
	.cc_bottom FLAC__bitwriter_write_byte_block.function
	.set	FLAC__bitwriter_write_byte_block.nstackwords,((FLAC__bitwriter_write_raw_uint32_nocheck.nstackwords $M realloc.nstackwords) + 10)
	.globl	FLAC__bitwriter_write_byte_block.nstackwords
	.set	FLAC__bitwriter_write_byte_block.maxcores,FLAC__bitwriter_write_raw_uint32_nocheck.maxcores $M realloc.maxcores $M 1
	.globl	FLAC__bitwriter_write_byte_block.maxcores
	.set	FLAC__bitwriter_write_byte_block.maxtimers,FLAC__bitwriter_write_raw_uint32_nocheck.maxtimers $M realloc.maxtimers $M 0
	.globl	FLAC__bitwriter_write_byte_block.maxtimers
	.set	FLAC__bitwriter_write_byte_block.maxchanends,FLAC__bitwriter_write_raw_uint32_nocheck.maxchanends $M realloc.maxchanends $M 0
	.globl	FLAC__bitwriter_write_byte_block.maxchanends
.Ltmp314:
	.size	FLAC__bitwriter_write_byte_block, .Ltmp314-FLAC__bitwriter_write_byte_block
.Lfunc_end18:
	.cfi_endproc

	.globl	FLAC__bitwriter_write_unary_unsigned
	.align	4
	.type	FLAC__bitwriter_write_unary_unsigned,@function
	.cc_top FLAC__bitwriter_write_unary_unsigned.function,FLAC__bitwriter_write_unary_unsigned
FLAC__bitwriter_write_unary_unsigned:
.Lfunc_begin19:
	.loc	2 421 0
	.cfi_startproc
	.issue_mode dual
	{
		nop
		dualentsp 4
	}
.Ltmp315:
	.cfi_def_cfa_offset 16
.Ltmp316:
	.cfi_offset 15, 0
.Ltmp317:
	.cfi_offset 4, -8
.Ltmp318:
	{
		mov r4, r0
		stw r4, sp[2]
	}
.Ltmp319:
	.loc	2 422 5 prologue_end
	{
		shr r0, r1, 5
		nop
	}
	bt r0, .LBB19_2
.Ltmp320:
	.loc	2 423 10
	{
		add r2, r1, 1
		mkmsk r1, 1
	}
.Ltmp321:
	.loc	2 423 10
	{
		mov r0, r4
		nop
	}
	bl FLAC__bitwriter_write_raw_uint32_nocheck
	bu .LBB19_5
.Ltmp322:
.LBB19_2:
	.loc	2 426 4
	{
		mov r0, r4
		nop
	}
	bl FLAC__bitwriter_write_zeroes
.Ltmp323:
	.loc	2 426 4
	bf r0, .LBB19_3
.Ltmp324:
	{
		mkmsk r1, 1
		mov r0, r4
	}
	.loc	2 427 4
	{
		mov r2, r1
		nop
	}
	bl FLAC__bitwriter_write_raw_uint32_nocheck
	.loc	2 427 4
	{
		eq r0, r0, 0
		nop
	}
	{
		eq r0, r0, 0
		nop
	}
	bu .LBB19_5
.Ltmp325:
.LBB19_3:
	{
		ldc r0, 0
		nop
	}
.LBB19_5:
	{
		nop
		ldw r4, sp[2]
	}
	{
		nop
		retsp 4
	}
	.loc	2 428 1
	# RETURN_REG_HOLDER
.Ltmp326:
	.cc_bottom FLAC__bitwriter_write_unary_unsigned.function
	.set	FLAC__bitwriter_write_unary_unsigned.nstackwords,((FLAC__bitwriter_write_zeroes.nstackwords $M FLAC__bitwriter_write_raw_uint32_nocheck.nstackwords) + 4)
	.globl	FLAC__bitwriter_write_unary_unsigned.nstackwords
	.set	FLAC__bitwriter_write_unary_unsigned.maxcores,FLAC__bitwriter_write_raw_uint32_nocheck.maxcores $M FLAC__bitwriter_write_zeroes.maxcores $M 1
	.globl	FLAC__bitwriter_write_unary_unsigned.maxcores
	.set	FLAC__bitwriter_write_unary_unsigned.maxtimers,FLAC__bitwriter_write_raw_uint32_nocheck.maxtimers $M FLAC__bitwriter_write_zeroes.maxtimers $M 0
	.globl	FLAC__bitwriter_write_unary_unsigned.maxtimers
	.set	FLAC__bitwriter_write_unary_unsigned.maxchanends,FLAC__bitwriter_write_raw_uint32_nocheck.maxchanends $M FLAC__bitwriter_write_zeroes.maxchanends $M 0
	.globl	FLAC__bitwriter_write_unary_unsigned.maxchanends
.Ltmp327:
	.size	FLAC__bitwriter_write_unary_unsigned, .Ltmp327-FLAC__bitwriter_write_unary_unsigned
.Lfunc_end19:
	.cfi_endproc

	.section	.cp.rodata.cst4,"aMc",@progbits,4
	.cc_top .LCPI20_0.data,.LCPI20_0
	.align	4
	.type	.LCPI20_0,@object
	.size	.LCPI20_0, 4
.LCPI20_0:
	.long	16711680
	.cc_bottom .LCPI20_0.data
	.text
	.globl	FLAC__bitwriter_write_rice_signed_block
	.align	4
	.type	FLAC__bitwriter_write_rice_signed_block,@function
	.cc_top FLAC__bitwriter_write_rice_signed_block.function,FLAC__bitwriter_write_rice_signed_block
FLAC__bitwriter_write_rice_signed_block:
.Lfunc_begin20:
	.loc	2 537 0
	.cfi_startproc
	.issue_mode dual
	{
		nop
		dualentsp 14
	}
.Ltmp328:
	.cfi_def_cfa_offset 56
.Ltmp329:
	.cfi_offset 15, 0
	std r5, r4, sp[3]
.Ltmp330:
	.cfi_offset 4, -32
.Ltmp331:
	.cfi_offset 5, -28
	std r7, r6, sp[4]
.Ltmp332:
	.cfi_offset 6, -24
.Ltmp333:
	.cfi_offset 7, -20
	std r9, r8, sp[5]
.Ltmp334:
	.cfi_offset 8, -16
.Ltmp335:
	.cfi_offset 9, -12
	{
		nop
		stw r10, sp[12]
	}
.Ltmp336:
	.cfi_offset 10, -8
.Ltmp337:
	{
		mov r5, r2
		stw r3, sp[3]
	}
.Ltmp338:
	{
		mov r6, r1
		mov r7, r0
	}
.Ltmp339:
	bf r5, .LBB20_32
.Ltmp340:
	{
		mkmsk r1, 32
		nop
	}
	.loc	2 538 2 prologue_end
.Ltmp341:
	{
		shl r0, r1, r3
		nop
	}
.Ltmp342:
	{
		mkmsk r0, 5
		stw r0, sp[5]
	}
	.loc	2 539 2
	{
		sub r0, r0, r3
		nop
	}
	.loc	2 539 2
	{
		shr r0, r1, r0
		nop
	}
.Ltmp343:
	.loc	2 542 2
	{
		add r10, r3, 1
		stw r0, sp[4]
	}
.Ltmp344:
	{
		nop
		stw r10, sp[2]
	}
	.loc	2 121 5
.Ltmp345:
	ldw r0, cp[FLAC__STREAM_METADATA_LENGTH_LEN]
	{
		mkmsk r1, 1
		nop
	}
	.loc	2 121 5
	{
		shl r0, r1, r0
		nop
	}
	{
		ldc r8, 0
		stw r0, sp[1]
	}
.Ltmp346:
.LBB20_2:
	{
		nop
		ldw r0, r6[0]
	}
.Ltmp347:
	.loc	2 554 3
	{
		shl r1, r0, 1
		nop
	}
.Ltmp348:
	.loc	2 555 3
	ashr r0, r0, 32
	.loc	2 555 3
	xor r9, r1, r0
.Ltmp349:
	.loc	2 557 3
	{
		shr r4, r9, r3
		nop
	}
.Ltmp350:
	.loc	2 558 3
	{
		add r0, r4, r10
		ldw r2, r7[4]
	}
.Ltmp351:
	bf r2, .LBB20_5
.Ltmp352:
	.loc	2 560 6
	{
		add r1, r0, r2
		nop
	}
	.loc	2 560 6
	{
		shr r11, r1, 5
		nop
	}
	bt r11, .LBB20_5
.Ltmp353:
	{
		nop
		stw r1, r7[4]
	}
	{
		nop
		ldw r1, sp[5]
	}
.Ltmp354:
	.loc	2 563 4
	{
		or r1, r9, r1
		ldw r2, sp[4]
	}
.Ltmp355:
	.loc	2 564 4
	{
		and r1, r1, r2
		ldw r2, r7[1]
	}
	.loc	2 565 4
	{
		shl r0, r2, r0
		nop
	}
.Ltmp356:
	.loc	2 566 4
	{
		or r0, r0, r1
		nop
	}
	{
		nop
		stw r0, r7[1]
	}
	bu .LBB20_31
.Ltmp357:
.LBB20_5:
	{
		nop
		ldw r1, r7[2]
	}
	{
		nop
		ldw r3, r7[3]
	}
	.loc	2 571 7
.Ltmp358:
	{
		add r11, r4, r3
		nop
	}
	.loc	2 571 7
	{
		add r11, r11, r2
		nop
	}
	.loc	2 571 7
	{
		add r11, r11, 1
		nop
	}
	.loc	2 571 7
	{
		lsu r11, r11, r1
		nop
	}
	bt r11, .LBB20_16
.Ltmp359:
	.loc	2 113 2
	{
		add r0, r0, r2
		mkmsk r2, 5
	}
.Ltmp360:
	.loc	2 113 2
	{
		add r0, r0, r2
		nop
	}
	.loc	2 113 2
	{
		shr r0, r0, 5
		nop
	}
	.loc	2 113 2
	{
		add r10, r0, r3
		nop
	}
.Ltmp361:
	.loc	2 118 5
	{
		lsu r0, r1, r10
		nop
	}
	bf r0, .LBB20_16
.Ltmp362:
	.loc	2 121 5
	{
		shl r0, r10, 2
		ldw r2, sp[1]
	}
	.loc	2 121 5
	{
		lsu r0, r2, r0
		nop
	}
	bt r0, .LBB20_33
.Ltmp363:
	.loc	2 129 5
	{
		sub r0, r10, r1
		nop
	}
	ldc r1, 1023
	.loc	2 129 5
	{
		and r0, r0, r1
		nop
	}
	bf r0, .LBB20_10
.Ltmp364:
	ldc r1, 1024
	.loc	2 130 3
	{
		add r1, r10, r1
		nop
	}
	.loc	2 130 3
	{
		sub r10, r1, r0
		nop
	}
.Ltmp365:
.LBB20_10:
	{
		nop
		ldw r0, r7[0]
	}
	.loc	5 286 5
.Ltmp366:
	bf r10, .LBB20_11
.Ltmp367:
	{
		mkmsk r1, 32
		nop
	}
	.loc	5 288 5
.Ltmp368:
	divu r1, r1, r10
	{
		ldc r2, 4
		nop
	}
	.loc	5 288 5
	{
		lsu r1, r1, r2
		nop
	}
	bt r1, .LBB20_33
.Ltmp369:
	.loc	5 290 9
	{
		shl r1, r10, 2
		nop
	}
	bu .LBB20_14
.Ltmp370:
.LBB20_11:
	.loc	5 287 10
	{
		mov r1, r8
		nop
	}
.Ltmp371:
.LBB20_14:
	.loc	5 290 9
	bl realloc
.Ltmp372:
	bf r0, .LBB20_33
.Ltmp373:
	{
		nop
		stw r0, r7[0]
	}
	{
		nop
		stw r10, r7[2]
	}
.Ltmp374:
.LBB20_16:
	{
		nop
		ldw r10, sp[2]
	}
.Ltmp375:
	bf r4, .LBB20_27
.Ltmp376:
	{
		nop
		ldw r0, r7[4]
	}
	bf r0, .LBB20_21
.Ltmp377:
	{
		ldc r1, 32
		nop
	}
.Ltmp378:
	.loc	2 577 6
	{
		sub r1, r1, r0
		ldw r2, r7[1]
	}
.Ltmp379:
	.loc	2 578 9
	{
		lsu r3, r4, r1
		nop
	}
	bf r3, .LBB20_20
.Ltmp380:
	.loc	2 579 7
	{
		shl r1, r2, r4
		nop
	}
	.loc	2 579 7
	{
		add r0, r0, r4
		stw r1, r7[1]
	}
	{
		nop
		stw r0, r7[4]
	}
	bu .LBB20_27
.Ltmp381:
.LBB20_20:
	.loc	2 584 7
	{
		shl r0, r2, r1
		nop
	}
	.loc	2 584 7
	{
		sub r4, r4, r1
		stw r0, r7[1]
	}
.Ltmp382:
	.loc	2 586 7
	{
		byterev r0, r0
		ldw r1, r7[3]
	}
.Ltmp383:
	.loc	2 586 7
	{
		add r2, r1, 1
		nop
	}
	{
		nop
		stw r2, r7[3]
	}
	{
		nop
		ldw r2, r7[0]
	}
	.loc	2 586 7
	stw r0, r2[r1]
	{
		nop
		stw r8, r7[4]
	}
.Ltmp384:
.LBB20_21:
	.loc	2 591 5
	{
		shr r0, r4, 5
		nop
	}
	bf r0, .LBB20_25
.Ltmp385:
	.loc	2 592 6
	{
		mov r1, r4
		ldw r0, r7[0]
	}
.Ltmp386:
.LBB20_23:
	{
		nop
		ldw r2, r7[3]
	}
	.loc	2 592 6
	{
		add r3, r2, 1
		nop
	}
	{
		nop
		stw r3, r7[3]
	}
	.loc	2 592 6
	stw r8, r0[r2]
	.loc	2 593 6
	ldaw r1, r1[-8]
.Ltmp387:
	.loc	2 591 5
	{
		shr r2, r1, 5
		nop
	}
	.loc	2 591 5
	bt r2, .LBB20_23
.Ltmp388:
	.loc	2 591 5
	{
		zext r4, 5
		nop
	}
.Ltmp389:
.LBB20_25:
	bf r4, .LBB20_27
.Ltmp390:
	{
		nop
		stw r8, r7[1]
	}
	{
		nop
		stw r4, r7[4]
	}
.Ltmp391:
.LBB20_27:
	{
		nop
		ldw r0, sp[5]
	}
.Ltmp392:
	.loc	2 602 4
	{
		or r0, r9, r0
		ldw r1, sp[4]
	}
.Ltmp393:
	.loc	2 603 4
	{
		and r0, r0, r1
		ldw r1, r7[4]
	}
	{
		ldc r2, 32
		nop
	}
.Ltmp394:
	.loc	2 605 4
	{
		sub r2, r2, r1
		ldw r3, r7[1]
	}
.Ltmp395:
	.loc	2 606 7
	{
		lsu r11, r10, r2
		nop
	}
	bf r11, .LBB20_29
.Ltmp396:
	.loc	2 607 5
	{
		shl r2, r3, r10
		nop
	}
	.loc	2 608 5
	{
		or r0, r2, r0
		nop
	}
.Ltmp397:
	.loc	2 608 5
	{
		add r0, r1, r10
		stw r0, r7[1]
	}
	{
		nop
		stw r0, r7[4]
	}
	bu .LBB20_30
.Ltmp398:
.LBB20_29:
	.loc	2 618 5
	{
		shl r1, r3, r2
		sub r2, r10, r2
	}
.Ltmp399:
	.loc	2 619 5
	{
		shr r2, r0, r2
		stw r2, r7[4]
	}
	.loc	2 619 5
	{
		or r1, r1, r2
		nop
	}
	.loc	2 620 5
	{
		shr r2, r1, 24
		shr r3, r1, 8
	}
	ldc r11, 65280
	.loc	2 620 5
	{
		and r3, r3, r11
		shl r11, r1, 8
	}
	ldw r4, cp[.LCPI20_0]
	.loc	2 620 5
	{
		and r11, r11, r4
		shl r1, r1, 24
	}
	.loc	2 620 5
	{
		or r1, r1, r2
		nop
	}
	.loc	2 620 5
	{
		or r1, r1, r3
		nop
	}
	.loc	2 620 5
	{
		or r1, r1, r11
		ldw r2, r7[3]
	}
	.loc	2 620 5
	{
		add r3, r2, 1
		nop
	}
	{
		nop
		stw r3, r7[3]
	}
	{
		nop
		ldw r3, r7[0]
	}
	.loc	2 620 5
	stw r1, r3[r2]
	{
		nop
		stw r0, r7[1]
	}
.Ltmp400:
.LBB20_30:
	{
		nop
		ldw r3, sp[3]
	}
.Ltmp401:
.LBB20_31:
	.loc	2 624 3
	{
		add r6, r6, 4
		sub r5, r5, 1
	}
.Ltmp402:
	bt r5, .LBB20_2
.Ltmp403:
.LBB20_32:
	{
		mkmsk r8, 1
		nop
	}
.LBB20_33:
	.loc	2 628 1
	{
		mov r0, r8
		ldw r10, sp[12]
	}
	ldd r9, r8, sp[5]
	ldd r7, r6, sp[4]
	ldd r5, r4, sp[3]
	{
		nop
		retsp 14
	}
	# RETURN_REG_HOLDER
.Ltmp404:
	.cc_bottom FLAC__bitwriter_write_rice_signed_block.function
	.set	FLAC__bitwriter_write_rice_signed_block.nstackwords,(realloc.nstackwords + 14)
	.globl	FLAC__bitwriter_write_rice_signed_block.nstackwords
	.set	FLAC__bitwriter_write_rice_signed_block.maxcores,realloc.maxcores $M 1
	.globl	FLAC__bitwriter_write_rice_signed_block.maxcores
	.set	FLAC__bitwriter_write_rice_signed_block.maxtimers,realloc.maxtimers $M 0
	.globl	FLAC__bitwriter_write_rice_signed_block.maxtimers
	.set	FLAC__bitwriter_write_rice_signed_block.maxchanends,realloc.maxchanends $M 0
	.globl	FLAC__bitwriter_write_rice_signed_block.maxchanends
.Ltmp405:
	.size	FLAC__bitwriter_write_rice_signed_block, .Ltmp405-FLAC__bitwriter_write_rice_signed_block
.Lfunc_end20:
	.cfi_endproc

	.globl	FLAC__bitwriter_write_utf8_uint32
	.align	4
	.type	FLAC__bitwriter_write_utf8_uint32,@function
	.cc_top FLAC__bitwriter_write_utf8_uint32.function,FLAC__bitwriter_write_utf8_uint32
FLAC__bitwriter_write_utf8_uint32:
.Lfunc_begin21:
	.loc	2 755 0
	.cfi_startproc
	.issue_mode dual
	{
		nop
		dualentsp 8
	}
.Ltmp406:
	.cfi_def_cfa_offset 32
.Ltmp407:
	.cfi_offset 15, 0
	std r5, r4, sp[1]
.Ltmp408:
	.cfi_offset 4, -24
.Ltmp409:
	.cfi_offset 5, -20
	std r7, r6, sp[2]
.Ltmp410:
	.cfi_offset 6, -16
.Ltmp411:
	.cfi_offset 7, -12
.Ltmp412:
	.cfi_offset 8, -8
.Ltmp413:
	{
		mov r5, r1
		stw r8, sp[6]
	}
.Ltmp414:
	{
		mov r4, r0
		nop
	}
.Ltmp415:
	.loc	2 761 5 prologue_end
	ashr r0, r5, 32
	bt r0, .LBB21_1
.Ltmp416:
	.loc	2 764 5
	{
		shr r0, r5, 7
		nop
	}
	bt r0, .LBB21_4
.Ltmp417:
	{
		ldc r2, 8
		mov r0, r4
	}
	.loc	2 765 10
.Ltmp418:
	{
		mov r1, r5
		nop
	}
	bl FLAC__bitwriter_write_raw_uint32_nocheck
	bu .LBB21_17
.Ltmp419:
.LBB21_1:
	{
		ldc r0, 0
		nop
	}
	bu .LBB21_17
.LBB21_4:
.Ltmp420:
	{
		ldc r0, 11
		nop
	}
	.loc	2 767 10
.Ltmp421:
	{
		shr r0, r5, r0
		nop
	}
	bt r0, .LBB21_6
.Ltmp422:
	.loc	2 768 9
	{
		shr r0, r5, 6
		nop
	}
	ldc r1, 192
	.loc	2 768 9
	{
		or r1, r0, r1
		ldc r6, 8
	}
	.loc	2 768 9
	{
		mov r0, r4
		mov r2, r6
	}
	bl FLAC__bitwriter_write_raw_uint32_nocheck
	{
		mov r7, r0
		zext r5, 6
	}
.Ltmp423:
	ldc r0, 128
	.loc	2 769 9
	{
		or r1, r5, r0
		nop
	}
	bu .LBB21_16
.Ltmp424:
.LBB21_6:
	.loc	2 771 10
	{
		shr r0, r5, 16
		nop
	}
	bt r0, .LBB21_8
.Ltmp425:
	{
		ldc r0, 12
		nop
	}
	.loc	2 772 9
.Ltmp426:
	{
		shr r0, r5, r0
		nop
	}
	ldc r1, 224
	.loc	2 772 9
	{
		or r1, r0, r1
		ldc r6, 8
	}
	.loc	2 772 9
	{
		mov r0, r4
		mov r2, r6
	}
	bl FLAC__bitwriter_write_raw_uint32_nocheck
	{
		mov r7, r0
		shr r0, r5, 6
	}
	.loc	2 773 9
	{
		zext r0, 6
		nop
	}
	ldc r8, 128
	bu .LBB21_15
.Ltmp427:
.LBB21_8:
	{
		ldc r0, 21
		nop
	}
	.loc	2 776 10
.Ltmp428:
	{
		shr r0, r5, r0
		nop
	}
	bt r0, .LBB21_10
.Ltmp429:
	{
		ldc r0, 18
		nop
	}
	.loc	2 777 9
.Ltmp430:
	{
		shr r0, r5, r0
		nop
	}
	ldc r1, 240
	.loc	2 777 9
	{
		or r1, r0, r1
		ldc r6, 8
	}
	.loc	2 777 9
	{
		mov r0, r4
		mov r2, r6
	}
	bl FLAC__bitwriter_write_raw_uint32_nocheck
	{
		mov r7, r0
		ldc r0, 12
	}
	.loc	2 778 9
	{
		shr r0, r5, r0
		nop
	}
	.loc	2 778 9
	{
		zext r0, 6
		nop
	}
	ldc r8, 128
	bu .LBB21_14
.Ltmp431:
.LBB21_10:
	{
		ldc r0, 26
		nop
	}
	.loc	2 782 10
.Ltmp432:
	{
		shr r0, r5, r0
		nop
	}
	bt r0, .LBB21_12
.Ltmp433:
	.loc	2 783 9
	{
		shr r0, r5, 24
		nop
	}
	ldc r1, 248
	.loc	2 783 9
	{
		or r1, r0, r1
		ldc r6, 8
	}
	.loc	2 783 9
	{
		mov r0, r4
		mov r2, r6
	}
	bl FLAC__bitwriter_write_raw_uint32_nocheck
	{
		mov r7, r0
		ldc r0, 18
	}
	.loc	2 784 9
	{
		shr r0, r5, r0
		nop
	}
	.loc	2 784 9
	{
		zext r0, 6
		nop
	}
	ldc r8, 128
	bu .LBB21_13
.Ltmp434:
.LBB21_12:
	{
		ldc r0, 30
		nop
	}
	.loc	2 790 9
.Ltmp435:
	{
		shr r0, r5, r0
		nop
	}
	ldc r1, 252
	.loc	2 790 9
	{
		or r1, r0, r1
		ldc r6, 8
	}
	.loc	2 790 9
	{
		mov r0, r4
		mov r2, r6
	}
	bl FLAC__bitwriter_write_raw_uint32_nocheck
	{
		mov r7, r0
		shr r0, r5, 24
	}
	.loc	2 791 9
	{
		zext r0, 6
		nop
	}
	ldc r8, 128
	.loc	2 791 9
	{
		or r1, r0, r8
		mov r0, r4
	}
	.loc	2 791 9
	{
		mov r2, r6
		nop
	}
	bl FLAC__bitwriter_write_raw_uint32_nocheck
	.loc	2 790 9
	{
		and r7, r7, r0
		ldc r0, 18
	}
	.loc	2 792 9
	{
		shr r0, r5, r0
		nop
	}
	.loc	2 792 9
	{
		zext r0, 6
		nop
	}
.Ltmp436:
.LBB21_13:
	.loc	2 792 9
	{
		or r1, r0, r8
		mov r0, r4
	}
	.loc	2 792 9
	{
		mov r2, r6
		nop
	}
	bl FLAC__bitwriter_write_raw_uint32_nocheck
	.loc	2 791 9
	{
		and r7, r7, r0
		ldc r0, 12
	}
	.loc	2 793 9
	{
		shr r0, r5, r0
		nop
	}
	.loc	2 793 9
	{
		zext r0, 6
		nop
	}
.LBB21_14:
	.loc	2 793 9
	{
		or r1, r0, r8
		mov r0, r4
	}
	.loc	2 793 9
	{
		mov r2, r6
		nop
	}
	bl FLAC__bitwriter_write_raw_uint32_nocheck
	.loc	2 792 9
	{
		and r7, r7, r0
		shr r0, r5, 6
	}
	.loc	2 794 9
	{
		zext r0, 6
		nop
	}
.LBB21_15:
	.loc	2 794 9
	{
		or r1, r0, r8
		mov r0, r4
	}
	.loc	2 794 9
	{
		mov r2, r6
		nop
	}
	bl FLAC__bitwriter_write_raw_uint32_nocheck
	.loc	2 793 9
	{
		and r7, r7, r0
		zext r5, 6
	}
	.loc	2 795 9
	{
		or r1, r5, r8
		nop
	}
.LBB21_16:
	.loc	2 795 9
	{
		mov r0, r4
		mov r2, r6
	}
	bl FLAC__bitwriter_write_raw_uint32_nocheck
	.loc	2 794 9
	{
		and r0, r7, r0
		nop
	}
	.loc	2 795 9
	{
		zext r0, 1
		nop
	}
.Ltmp437:
.LBB21_17:
	{
		nop
		ldw r8, sp[6]
	}
	.loc	2 799 1
	ldd r7, r6, sp[2]
	ldd r5, r4, sp[1]
	{
		nop
		retsp 8
	}
	# RETURN_REG_HOLDER
.Ltmp438:
	.cc_bottom FLAC__bitwriter_write_utf8_uint32.function
	.set	FLAC__bitwriter_write_utf8_uint32.nstackwords,(FLAC__bitwriter_write_raw_uint32_nocheck.nstackwords + 8)
	.globl	FLAC__bitwriter_write_utf8_uint32.nstackwords
	.set	FLAC__bitwriter_write_utf8_uint32.maxcores,FLAC__bitwriter_write_raw_uint32_nocheck.maxcores $M 1
	.globl	FLAC__bitwriter_write_utf8_uint32.maxcores
	.set	FLAC__bitwriter_write_utf8_uint32.maxtimers,FLAC__bitwriter_write_raw_uint32_nocheck.maxtimers $M 0
	.globl	FLAC__bitwriter_write_utf8_uint32.maxtimers
	.set	FLAC__bitwriter_write_utf8_uint32.maxchanends,FLAC__bitwriter_write_raw_uint32_nocheck.maxchanends $M 0
	.globl	FLAC__bitwriter_write_utf8_uint32.maxchanends
.Ltmp439:
	.size	FLAC__bitwriter_write_utf8_uint32, .Ltmp439-FLAC__bitwriter_write_utf8_uint32
.Lfunc_end21:
	.cfi_endproc

	.globl	FLAC__bitwriter_write_utf8_uint64
	.align	4
	.type	FLAC__bitwriter_write_utf8_uint64,@function
	.cc_top FLAC__bitwriter_write_utf8_uint64.function,FLAC__bitwriter_write_utf8_uint64
FLAC__bitwriter_write_utf8_uint64:
.Lfunc_begin22:
	.loc	2 802 0
	.cfi_startproc
	.issue_mode dual
	{
		nop
		dualentsp 8
	}
.Ltmp440:
	.cfi_def_cfa_offset 32
.Ltmp441:
	.cfi_offset 15, 0
	std r5, r4, sp[1]
.Ltmp442:
	.cfi_offset 4, -24
.Ltmp443:
	.cfi_offset 5, -20
	std r7, r6, sp[2]
.Ltmp444:
	.cfi_offset 6, -16
.Ltmp445:
	.cfi_offset 7, -12
.Ltmp446:
	.cfi_offset 8, -8
	{
		mov r6, r2
		stw r8, sp[6]
	}
.Ltmp447:
	{
		mov r5, r1
		mov r4, r0
	}
.Ltmp448:
	.loc	2 808 5 prologue_end
	{
		shr r0, r6, 4
		nop
	}
	.loc	2 808 5
	bf r0, .LBB22_2
.Ltmp449:
	{
		ldc r0, 0
		nop
	}
	bu .LBB22_20
.LBB22_2:
.Ltmp450:
	{
		ldc r0, 25
		nop
	}
	.loc	2 811 5
.Ltmp451:
	{
		shl r0, r6, r0
		shr r1, r5, 7
	}
	{
		or r0, r1, r0
		shr r1, r6, 7
	}
	{
		or r0, r0, r1
		nop
	}
	bt r0, .LBB22_4
.Ltmp452:
	{
		ldc r2, 8
		mov r0, r4
	}
	.loc	2 812 10
.Ltmp453:
	{
		mov r1, r5
		nop
	}
	bl FLAC__bitwriter_write_raw_uint32_nocheck
	bu .LBB22_20
.Ltmp454:
.LBB22_4:
	{
		ldc r0, 11
		nop
	}
	.loc	2 814 10
.Ltmp455:
	{
		shr r2, r5, r0
		ldc r1, 21
	}
	{
		shl r3, r6, r1
		nop
	}
	{
		or r2, r2, r3
		shr r3, r6, r0
	}
	{
		or r2, r2, r3
		nop
	}
	bt r2, .LBB22_6
.Ltmp456:
	{
		ldc r0, 26
		nop
	}
	.loc	2 815 9
.Ltmp457:
	{
		shl r0, r6, r0
		shr r1, r5, 6
	}
	{
		or r0, r1, r0
		nop
	}
	ldc r1, 192
	.loc	2 815 9
	{
		or r1, r0, r1
		ldc r6, 8
	}
	.loc	2 815 9
	{
		mov r0, r4
		mov r2, r6
	}
	bl FLAC__bitwriter_write_raw_uint32_nocheck
	{
		mov r7, r0
		zext r5, 6
	}
	ldc r0, 128
	.loc	2 816 9
	{
		or r1, r5, r0
		nop
	}
	bu .LBB22_15
.Ltmp458:
.LBB22_6:
	.loc	2 818 10
	{
		shr r2, r5, 16
		shl r3, r6, 16
	}
	{
		or r2, r2, r3
		shr r3, r6, 16
	}
	{
		or r2, r2, r3
		nop
	}
	bt r2, .LBB22_8
.Ltmp459:
	{
		ldc r0, 12
		nop
	}
	.loc	2 819 9
.Ltmp460:
	{
		shr r0, r5, r0
		ldc r1, 20
	}
	{
		shl r1, r6, r1
		nop
	}
	{
		or r0, r0, r1
		nop
	}
	ldc r1, 224
	.loc	2 819 9
	{
		or r1, r0, r1
		ldc r6, 8
	}
	.loc	2 819 9
	{
		mov r0, r4
		mov r2, r6
	}
	bl FLAC__bitwriter_write_raw_uint32_nocheck
	{
		mov r7, r0
		shr r0, r5, 6
	}
	.loc	2 820 9
	{
		zext r0, 6
		nop
	}
	ldc r8, 128
	bu .LBB22_14
.Ltmp461:
.LBB22_8:
	.loc	2 823 10
	{
		shr r2, r5, r1
		shl r0, r6, r0
	}
	{
		or r0, r2, r0
		shr r1, r6, r1
	}
	{
		or r0, r0, r1
		nop
	}
	bt r0, .LBB22_10
.Ltmp462:
	{
		ldc r0, 18
		nop
	}
	.loc	2 824 9
.Ltmp463:
	{
		shr r0, r5, r0
		ldc r1, 14
	}
	{
		shl r1, r6, r1
		nop
	}
	{
		or r0, r0, r1
		nop
	}
	ldc r1, 240
	.loc	2 824 9
	{
		or r1, r0, r1
		ldc r6, 8
	}
	.loc	2 824 9
	{
		mov r0, r4
		mov r2, r6
	}
	bl FLAC__bitwriter_write_raw_uint32_nocheck
	{
		mov r7, r0
		ldc r0, 12
	}
	.loc	2 825 9
	{
		shr r0, r5, r0
		nop
	}
	.loc	2 825 9
	{
		zext r0, 6
		nop
	}
	ldc r8, 128
	bu .LBB22_13
.Ltmp464:
.LBB22_10:
	{
		ldc r0, 26
		nop
	}
	.loc	2 829 10
.Ltmp465:
	{
		shr r1, r6, r0
		shr r0, r5, r0
	}
	{
		shl r2, r6, 6
		nop
	}
	{
		or r0, r0, r2
		nop
	}
	{
		or r0, r0, r1
		nop
	}
	bt r0, .LBB22_16
.Ltmp466:
	.loc	2 830 9
	{
		shr r0, r5, 24
		shl r1, r6, 8
	}
	{
		or r0, r0, r1
		nop
	}
	ldc r1, 248
	.loc	2 830 9
	{
		or r1, r0, r1
		ldc r6, 8
	}
	.loc	2 830 9
	{
		mov r0, r4
		mov r2, r6
	}
	bl FLAC__bitwriter_write_raw_uint32_nocheck
	{
		mov r7, r0
		ldc r0, 18
	}
	.loc	2 831 9
	{
		shr r0, r5, r0
		nop
	}
	.loc	2 831 9
	{
		zext r0, 6
		nop
	}
	ldc r8, 128
	bu .LBB22_12
.Ltmp467:
.LBB22_16:
	{
		mkmsk r0, 5
		nop
	}
	.loc	2 836 10
.Ltmp468:
	{
		shr r1, r6, r0
		shr r0, r5, r0
	}
	{
		shl r2, r6, 1
		nop
	}
	{
		or r0, r0, r2
		nop
	}
	{
		or r0, r0, r1
		nop
	}
	bt r0, .LBB22_18
.Ltmp469:
	{
		ldc r0, 30
		nop
	}
	.loc	2 837 9
.Ltmp470:
	{
		shr r0, r5, r0
		shl r1, r6, 2
	}
	{
		or r0, r0, r1
		nop
	}
	ldc r1, 252
	.loc	2 837 9
	{
		or r1, r0, r1
		ldc r6, 8
	}
	.loc	2 837 9
	{
		mov r0, r4
		mov r2, r6
	}
	bl FLAC__bitwriter_write_raw_uint32_nocheck
	{
		mov r7, r0
		shr r0, r5, 24
	}
	.loc	2 838 9
	{
		zext r0, 6
		nop
	}
	ldc r8, 128
	.loc	2 838 9
	{
		or r1, r0, r8
		mov r0, r4
	}
	.loc	2 838 9
	{
		mov r2, r6
		nop
	}
	bl FLAC__bitwriter_write_raw_uint32_nocheck
	.loc	2 837 9
	{
		and r7, r7, r0
		ldc r0, 18
	}
	.loc	2 839 9
	{
		shr r0, r5, r0
		nop
	}
	.loc	2 839 9
	{
		zext r0, 6
		nop
	}
.Ltmp471:
.LBB22_12:
	.loc	2 831 9
	{
		or r1, r0, r8
		mov r0, r4
	}
	.loc	2 831 9
	{
		mov r2, r6
		nop
	}
	bl FLAC__bitwriter_write_raw_uint32_nocheck
	.loc	2 830 9
	{
		and r7, r7, r0
		ldc r0, 12
	}
	.loc	2 832 9
	{
		shr r0, r5, r0
		nop
	}
	.loc	2 832 9
	{
		zext r0, 6
		nop
	}
.LBB22_13:
	.loc	2 832 9
	{
		or r1, r0, r8
		mov r0, r4
	}
	.loc	2 832 9
	{
		mov r2, r6
		nop
	}
	bl FLAC__bitwriter_write_raw_uint32_nocheck
	.loc	2 831 9
	{
		and r7, r7, r0
		shr r0, r5, 6
	}
	.loc	2 833 9
	{
		zext r0, 6
		nop
	}
.LBB22_14:
	.loc	2 833 9
	{
		or r1, r0, r8
		mov r0, r4
	}
	.loc	2 833 9
	{
		mov r2, r6
		nop
	}
	bl FLAC__bitwriter_write_raw_uint32_nocheck
	.loc	2 832 9
	{
		and r7, r7, r0
		zext r5, 6
	}
	.loc	2 834 9
	{
		or r1, r5, r8
		nop
	}
.LBB22_15:
	.loc	2 834 9
	{
		mov r0, r4
		mov r2, r6
	}
	bl FLAC__bitwriter_write_raw_uint32_nocheck
	.loc	2 833 9
	{
		and r0, r7, r0
		nop
	}
.Ltmp472:
.LBB22_19:
	.loc	2 851 9
	{
		zext r0, 1
		nop
	}
.Ltmp473:
.LBB22_20:
	{
		nop
		ldw r8, sp[6]
	}
	.loc	2 855 1
	ldd r7, r6, sp[2]
	ldd r5, r4, sp[1]
	{
		nop
		retsp 8
	}
	# RETURN_REG_HOLDER
.LBB22_18:
.Ltmp474:
	ldc r1, 254
	{
		ldc r7, 8
		mov r0, r4
	}
	.loc	2 845 9
.Ltmp475:
	{
		mov r2, r7
		nop
	}
	bl FLAC__bitwriter_write_raw_uint32_nocheck
	{
		mov r8, r0
		ldc r0, 30
	}
	.loc	2 846 9
	{
		shr r0, r5, r0
		shl r1, r6, 2
	}
	{
		or r0, r0, r1
		nop
	}
	.loc	2 846 9
	{
		zext r0, 6
		nop
	}
	ldc r6, 128
	.loc	2 846 9
	{
		or r1, r0, r6
		mov r0, r4
	}
	.loc	2 846 9
	{
		mov r2, r7
		nop
	}
	bl FLAC__bitwriter_write_raw_uint32_nocheck
	.loc	2 845 9
	{
		and r8, r8, r0
		shr r0, r5, 24
	}
	.loc	2 847 9
	{
		zext r0, 6
		nop
	}
	.loc	2 847 9
	{
		or r1, r0, r6
		mov r0, r4
	}
	.loc	2 847 9
	{
		mov r2, r7
		nop
	}
	bl FLAC__bitwriter_write_raw_uint32_nocheck
	.loc	2 846 9
	{
		and r8, r8, r0
		ldc r0, 18
	}
	.loc	2 848 9
	{
		shr r0, r5, r0
		nop
	}
	.loc	2 848 9
	{
		zext r0, 6
		nop
	}
	.loc	2 848 9
	{
		or r1, r0, r6
		mov r0, r4
	}
	.loc	2 848 9
	{
		mov r2, r7
		nop
	}
	bl FLAC__bitwriter_write_raw_uint32_nocheck
	.loc	2 847 9
	{
		and r8, r8, r0
		ldc r0, 12
	}
	.loc	2 849 9
	{
		shr r0, r5, r0
		nop
	}
	.loc	2 849 9
	{
		zext r0, 6
		nop
	}
	.loc	2 849 9
	{
		or r1, r0, r6
		mov r0, r4
	}
	.loc	2 849 9
	{
		mov r2, r7
		nop
	}
	bl FLAC__bitwriter_write_raw_uint32_nocheck
	.loc	2 848 9
	{
		and r8, r8, r0
		shr r0, r5, 6
	}
	.loc	2 850 9
	{
		zext r0, 6
		nop
	}
	.loc	2 850 9
	{
		or r1, r0, r6
		mov r0, r4
	}
	.loc	2 850 9
	{
		mov r2, r7
		nop
	}
	bl FLAC__bitwriter_write_raw_uint32_nocheck
	.loc	2 849 9
	{
		and r8, r8, r0
		zext r5, 6
	}
	.loc	2 851 9
	{
		or r1, r5, r6
		mov r0, r4
	}
	.loc	2 851 9
	{
		mov r2, r7
		nop
	}
	bl FLAC__bitwriter_write_raw_uint32_nocheck
	.loc	2 850 9
	{
		and r0, r8, r0
		nop
	}
	bu .LBB22_19
.Ltmp476:
	.cc_bottom FLAC__bitwriter_write_utf8_uint64.function
	.set	FLAC__bitwriter_write_utf8_uint64.nstackwords,(FLAC__bitwriter_write_raw_uint32_nocheck.nstackwords + 8)
	.globl	FLAC__bitwriter_write_utf8_uint64.nstackwords
	.set	FLAC__bitwriter_write_utf8_uint64.maxcores,FLAC__bitwriter_write_raw_uint32_nocheck.maxcores $M 1
	.globl	FLAC__bitwriter_write_utf8_uint64.maxcores
	.set	FLAC__bitwriter_write_utf8_uint64.maxtimers,FLAC__bitwriter_write_raw_uint32_nocheck.maxtimers $M 0
	.globl	FLAC__bitwriter_write_utf8_uint64.maxtimers
	.set	FLAC__bitwriter_write_utf8_uint64.maxchanends,FLAC__bitwriter_write_raw_uint32_nocheck.maxchanends $M 0
	.globl	FLAC__bitwriter_write_utf8_uint64.maxchanends
.Ltmp477:
	.size	FLAC__bitwriter_write_utf8_uint64, .Ltmp477-FLAC__bitwriter_write_utf8_uint64
.Lfunc_end22:
	.cfi_endproc

	.globl	FLAC__bitwriter_zero_pad_to_byte_boundary
	.align	4
	.type	FLAC__bitwriter_zero_pad_to_byte_boundary,@function
	.cc_top FLAC__bitwriter_zero_pad_to_byte_boundary.function,FLAC__bitwriter_zero_pad_to_byte_boundary
FLAC__bitwriter_zero_pad_to_byte_boundary:
.Lfunc_begin23:
	.loc	2 858 0
	.cfi_startproc
	.issue_mode dual
	{
		nop
		dualentsp 2
	}
.Ltmp478:
	.cfi_def_cfa_offset 8
.Ltmp479:
	.cfi_offset 15, 0
	{
		nop
		ldw r1, r0[4]
	}
	.loc	2 860 5 prologue_end
.Ltmp480:
	{
		zext r1, 3
		nop
	}
	.loc	2 860 5
	bf r1, .LBB23_1
.Ltmp481:
	{
		ldc r2, 8
		nop
	}
	.loc	2 861 10
	{
		sub r1, r2, r1
		nop
	}
	.loc	2 861 10
	bl FLAC__bitwriter_write_zeroes
.Ltmp482:
	{
		nop
		retsp 2
	}
.Ltmp483:
	.loc	2 864 1
	# RETURN_REG_HOLDER
.LBB23_1:
	{
		mkmsk r0, 1
		retsp 2
	}
	# RETURN_REG_HOLDER
.Ltmp484:
	.cc_bottom FLAC__bitwriter_zero_pad_to_byte_boundary.function
	.set	FLAC__bitwriter_zero_pad_to_byte_boundary.nstackwords,(FLAC__bitwriter_write_zeroes.nstackwords + 2)
	.globl	FLAC__bitwriter_zero_pad_to_byte_boundary.nstackwords
	.set	FLAC__bitwriter_zero_pad_to_byte_boundary.maxcores,FLAC__bitwriter_write_zeroes.maxcores $M 1
	.globl	FLAC__bitwriter_zero_pad_to_byte_boundary.maxcores
	.set	FLAC__bitwriter_zero_pad_to_byte_boundary.maxtimers,FLAC__bitwriter_write_zeroes.maxtimers $M 0
	.globl	FLAC__bitwriter_zero_pad_to_byte_boundary.maxtimers
	.set	FLAC__bitwriter_zero_pad_to_byte_boundary.maxchanends,FLAC__bitwriter_write_zeroes.maxchanends $M 0
	.globl	FLAC__bitwriter_zero_pad_to_byte_boundary.maxchanends
.Ltmp485:
	.size	FLAC__bitwriter_zero_pad_to_byte_boundary, .Ltmp485-FLAC__bitwriter_zero_pad_to_byte_boundary
.Lfunc_end23:
	.cfi_endproc

.Ldebug_end0:
	.section	.trap_info,"",@progbits
.Ltrap_info_entries_start0:
	.long	.Ltrap_info_entries_end0-.Ltrap_info_entries_start0
	.long	1
.Ltrap_info_entries_end0: