	.text
	.file	"md5.c"
	.section	.cp.rodata.cst4,"aMc",@progbits,4
	.cc_top .LCPI0_0.data,.LCPI0_0
	.align	4
	.type	.LCPI0_0,@object
	.size	.LCPI0_0, 4
.LCPI0_0:
	.long	1732584193
	.cc_bottom .LCPI0_0.data
	.cc_top .LCPI0_1.data,.LCPI0_1
	.align	4
	.type	.LCPI0_1,@object
	.size	.LCPI0_1, 4
.LCPI0_1:
	.long	4023233417
	.cc_bottom .LCPI0_1.data
	.cc_top .LCPI0_2.data,.LCPI0_2
	.align	4
	.type	.LCPI0_2,@object
	.size	.LCPI0_2, 4
.LCPI0_2:
	.long	2562383102
	.cc_bottom .LCPI0_2.data
	.cc_top .LCPI0_3.data,.LCPI0_3
	.align	4
	.type	.LCPI0_3,@object
	.size	.LCPI0_3, 4
.LCPI0_3:
	.long	271733878
	.cc_bottom .LCPI0_3.data
	.text
	.globl	FLAC__MD5Init
	.align	4
	.type	FLAC__MD5Init,@function
	.cc_top FLAC__MD5Init.function,FLAC__MD5Init
FLAC__MD5Init:
.Lfunc_begin0:
	.file	4 "C:/Users/takaaki/git/sw_xSSDAC/module_libFLAC/source\\md5.c"
	.loc	4 219 0
	.cfi_startproc
	.issue_mode dual
	{
		nop
		dualentsp 0
	}
	ldc r1, 64
	.loc	4 220 2 prologue_end
.Ltmp0:
	{
		add r1, r0, r1
		nop
	}
	ldw r2, cp[.LCPI0_0]
	{
		nop
		stw r2, r1[0]
	}
	ldc r1, 68
	.loc	4 221 2
	{
		add r1, r0, r1
		nop
	}
	ldw r2, cp[.LCPI0_1]
	{
		nop
		stw r2, r1[0]
	}
	ldc r1, 72
	.loc	4 222 2
	{
		add r1, r0, r1
		nop
	}
	ldw r2, cp[.LCPI0_2]
	{
		nop
		stw r2, r1[0]
	}
	ldc r1, 76
	.loc	4 223 2
	{
		add r1, r0, r1
		nop
	}
	ldw r2, cp[.LCPI0_3]
	{
		nop
		stw r2, r1[0]
	}
	ldc r1, 80
	.loc	4 225 2
	{
		add r1, r0, r1
		nop
	}
	ldc r2, 92
	.loc	4 226 2
	{
		add r2, r0, r2
		ldc r3, 0
	}
	{
		nop
		stw r3, r2[0]
	}
	ldc r2, 88
	{
		add r2, r0, r2
		nop
	}
	{
		nop
		stw r3, r2[0]
	}
	ldc r2, 84
	{
		add r0, r0, r2
		nop
	}
.Ltmp1:
	{
		nop
		stw r3, r0[0]
	}
	{
		nop
		stw r3, r1[0]
	}
	{
		nop
		retsp 0
	}
	.loc	4 230 1
	# RETURN_REG_HOLDER
.Ltmp2:
	.cc_bottom FLAC__MD5Init.function
	.set	FLAC__MD5Init.nstackwords,0
	.globl	FLAC__MD5Init.nstackwords
	.set	FLAC__MD5Init.maxcores,1
	.globl	FLAC__MD5Init.maxcores
	.set	FLAC__MD5Init.maxtimers,0
	.globl	FLAC__MD5Init.maxtimers
	.set	FLAC__MD5Init.maxchanends,0
	.globl	FLAC__MD5Init.maxchanends
.Ltmp3:
	.size	FLAC__MD5Init, .Ltmp3-FLAC__MD5Init
.Lfunc_end0:
	.cfi_endproc

	.globl	FLAC__MD5Final
	.align	4
	.type	FLAC__MD5Final,@function
	.cc_top FLAC__MD5Final.function,FLAC__MD5Final
FLAC__MD5Final:
.Lfunc_begin1:
	.loc	4 237 0
	.cfi_startproc
	.issue_mode dual
	{
		nop
		dualentsp 6
	}
.Ltmp4:
	.cfi_def_cfa_offset 24
.Ltmp5:
	.cfi_offset 15, 0
	std r5, r4, sp[1]
.Ltmp6:
	.cfi_offset 4, -16
.Ltmp7:
	.cfi_offset 5, -12
	std r7, r6, sp[2]
.Ltmp8:
	.cfi_offset 6, -8
.Ltmp9:
	.cfi_offset 7, -4
.Ltmp10:
	{
		mov r4, r1
		mov r5, r0
	}
.Ltmp11:
	ldc r0, 80
	.loc	4 238 2 prologue_end
.Ltmp12:
	{
		add r7, r4, r0
		nop
	}
	{
		nop
		ldw r1, r7[0]
	}
	.loc	4 238 2
	{
		zext r1, 6
		nop
	}
.Ltmp13:
	.loc	4 239 2
	{
		add r0, r4, r1
		nop
	}
.Ltmp14:
	.loc	4 242 2
	{
		add r0, r0, 1
		nop
	}
.Ltmp15:
	ldc r2, 128
	.loc	4 242 2
	st8 r2, r4[r1]
	{
		ldc r2, 55
		nop
	}
	.loc	4 245 2
	{
		sub r2, r2, r1
		nop
	}
.Ltmp16:
	.loc	4 247 6
	ashr r1, r2, 32
	bf r1, .LBB1_2
.Ltmp17:
	.loc	4 248 3
	{
		add r2, r2, 8
		ldc r1, 0
	}
.Ltmp18:
	.loc	4 248 3
	bl memset
.Ltmp19:
	ldc r0, 64
	.loc	4 250 3
	{
		add r0, r4, r0
		mov r1, r4
	}
	.loc	4 250 3
	bl FLAC__MD5Transform
.Ltmp20:
	{
		ldc r2, 56
		mov r0, r4
	}
.Ltmp21:
.LBB1_2:
	{
		ldc r6, 0
		nop
	}
	.loc	4 254 2
	{
		mov r1, r6
		nop
	}
	bl memset
	{
		nop
		ldw r0, r7[0]
	}
	.loc	4 258 2
	{
		shl r1, r0, 3
		ldc r2, 56
	}
	.loc	4 258 2
	{
		add r2, r4, r2
		nop
	}
	{
		nop
		stw r1, r2[0]
	}
	ldc r1, 84
	.loc	4 259 2
	{
		add r1, r4, r1
		nop
	}
	{
		nop
		ldw r1, r1[0]
	}
	.loc	4 259 2
	{
		shl r1, r1, 3
		ldc r2, 29
	}
	.loc	4 259 2
	{
		shr r0, r0, r2
		nop
	}
	.loc	4 259 2
	{
		or r0, r0, r1
		ldc r1, 60
	}
	.loc	4 259 2
	{
		add r1, r4, r1
		nop
	}
	{
		nop
		stw r0, r1[0]
	}
	ldc r0, 64
	.loc	4 260 2
	{
		add r7, r4, r0
		nop
	}
	.loc	4 260 2
	{
		mov r0, r7
		mov r1, r4
	}
	bl FLAC__MD5Transform
	{
		ldc r2, 16
		mov r0, r5
	}
	.loc	4 263 2
	{
		mov r1, r7
		nop
	}
	bl memcpy
	ldc r0, 88
	.loc	4 264 6
.Ltmp22:
	{
		add r5, r4, r0
		nop
	}
.Ltmp23:
	{
		nop
		ldw r0, r5[0]
	}
	bf r0, .LBB1_4
.Ltmp24:
	.loc	4 265 3
	bl free
	{
		nop
		stw r6, r5[0]
	}
	ldc r0, 92
	.loc	4 267 3
	{
		add r0, r4, r0
		nop
	}
	{
		nop
		stw r6, r0[0]
	}
.Ltmp25:
.LBB1_4:
	{
		ldc r1, 0
		nop
	}
	ldc r2, 96
	.loc	4 269 2
	{
		mov r0, r4
		nop
	}
	bl memset
	.loc	4 270 1
	ldd r7, r6, sp[2]
	ldd r5, r4, sp[1]
.Ltmp26:
	{
		nop
		retsp 6
	}
	# RETURN_REG_HOLDER
.Ltmp27:
	.cc_bottom FLAC__MD5Final.function
	.set	FLAC__MD5Final.nstackwords,((FLAC__MD5Transform.nstackwords $M memcpy.nstackwords $M memset.nstackwords $M free.nstackwords) + 6)
	.globl	FLAC__MD5Final.nstackwords
	.set	FLAC__MD5Final.maxcores,FLAC__MD5Transform.maxcores $M free.maxcores $M 1
	.globl	FLAC__MD5Final.maxcores
	.set	FLAC__MD5Final.maxtimers,FLAC__MD5Transform.maxtimers $M free.maxtimers $M 0
	.globl	FLAC__MD5Final.maxtimers
	.set	FLAC__MD5Final.maxchanends,FLAC__MD5Transform.maxchanends $M free.maxchanends $M 0
	.globl	FLAC__MD5Final.maxchanends
.Ltmp28:
	.size	FLAC__MD5Final, .Ltmp28-FLAC__MD5Final
.Lfunc_end1:
	.cfi_endproc

	.section	.cp.rodata.cst4,"aMc",@progbits,4
	.cc_top .LCPI2_0.data,.LCPI2_0
	.align	4
	.type	.LCPI2_0,@object
	.size	.LCPI2_0, 4
.LCPI2_0:
	.long	3614090360
	.cc_bottom .LCPI2_0.data
	.cc_top .LCPI2_1.data,.LCPI2_1
	.align	4
	.type	.LCPI2_1,@object
	.size	.LCPI2_1, 4
.LCPI2_1:
	.long	3905402710
	.cc_bottom .LCPI2_1.data
	.cc_top .LCPI2_2.data,.LCPI2_2
	.align	4
	.type	.LCPI2_2,@object
	.size	.LCPI2_2, 4
.LCPI2_2:
	.long	606105819
	.cc_bottom .LCPI2_2.data
	.cc_top .LCPI2_3.data,.LCPI2_3
	.align	4
	.type	.LCPI2_3,@object
	.size	.LCPI2_3, 4
.LCPI2_3:
	.long	3250441966
	.cc_bottom .LCPI2_3.data
	.cc_top .LCPI2_4.data,.LCPI2_4
	.align	4
	.type	.LCPI2_4,@object
	.size	.LCPI2_4, 4
.LCPI2_4:
	.long	4118548399
	.cc_bottom .LCPI2_4.data
	.cc_top .LCPI2_5.data,.LCPI2_5
	.align	4
	.type	.LCPI2_5,@object
	.size	.LCPI2_5, 4
.LCPI2_5:
	.long	1200080426
	.cc_bottom .LCPI2_5.data
	.cc_top .LCPI2_6.data,.LCPI2_6
	.align	4
	.type	.LCPI2_6,@object
	.size	.LCPI2_6, 4
.LCPI2_6:
	.long	2821735955
	.cc_bottom .LCPI2_6.data
	.cc_top .LCPI2_7.data,.LCPI2_7
	.align	4
	.type	.LCPI2_7,@object
	.size	.LCPI2_7, 4
.LCPI2_7:
	.long	4249261313
	.cc_bottom .LCPI2_7.data
	.cc_top .LCPI2_8.data,.LCPI2_8
	.align	4
	.type	.LCPI2_8,@object
	.size	.LCPI2_8, 4
.LCPI2_8:
	.long	1770035416
	.cc_bottom .LCPI2_8.data
	.cc_top .LCPI2_9.data,.LCPI2_9
	.align	4
	.type	.LCPI2_9,@object
	.size	.LCPI2_9, 4
.LCPI2_9:
	.long	2336552879
	.cc_bottom .LCPI2_9.data
	.cc_top .LCPI2_10.data,.LCPI2_10
	.align	4
	.type	.LCPI2_10,@object
	.size	.LCPI2_10, 4
.LCPI2_10:
	.long	4294925233
	.cc_bottom .LCPI2_10.data
	.cc_top .LCPI2_11.data,.LCPI2_11
	.align	4
	.type	.LCPI2_11,@object
	.size	.LCPI2_11, 4
.LCPI2_11:
	.long	2304563134
	.cc_bottom .LCPI2_11.data
	.cc_top .LCPI2_12.data,.LCPI2_12
	.align	4
	.type	.LCPI2_12,@object
	.size	.LCPI2_12, 4
.LCPI2_12:
	.long	1804603682
	.cc_bottom .LCPI2_12.data
	.cc_top .LCPI2_13.data,.LCPI2_13
	.align	4
	.type	.LCPI2_13,@object
	.size	.LCPI2_13, 4
.LCPI2_13:
	.long	4254626195
	.cc_bottom .LCPI2_13.data
	.cc_top .LCPI2_14.data,.LCPI2_14
	.align	4
	.type	.LCPI2_14,@object
	.size	.LCPI2_14, 4
.LCPI2_14:
	.long	2792965006
	.cc_bottom .LCPI2_14.data
	.cc_top .LCPI2_15.data,.LCPI2_15
	.align	4
	.type	.LCPI2_15,@object
	.size	.LCPI2_15, 4
.LCPI2_15:
	.long	1236535329
	.cc_bottom .LCPI2_15.data
	.cc_top .LCPI2_16.data,.LCPI2_16
	.align	4
	.type	.LCPI2_16,@object
	.size	.LCPI2_16, 4
.LCPI2_16:
	.long	4129170786
	.cc_bottom .LCPI2_16.data
	.cc_top .LCPI2_17.data,.LCPI2_17
	.align	4
	.type	.LCPI2_17,@object
	.size	.LCPI2_17, 4
.LCPI2_17:
	.long	3225465664
	.cc_bottom .LCPI2_17.data
	.cc_top .LCPI2_18.data,.LCPI2_18
	.align	4
	.type	.LCPI2_18,@object
	.size	.LCPI2_18, 4
.LCPI2_18:
	.long	643717713
	.cc_bottom .LCPI2_18.data
	.cc_top .LCPI2_19.data,.LCPI2_19
	.align	4
	.type	.LCPI2_19,@object
	.size	.LCPI2_19, 4
.LCPI2_19:
	.long	3921069994
	.cc_bottom .LCPI2_19.data
	.cc_top .LCPI2_20.data,.LCPI2_20
	.align	4
	.type	.LCPI2_20,@object
	.size	.LCPI2_20, 4
.LCPI2_20:
	.long	3593408605
	.cc_bottom .LCPI2_20.data
	.cc_top .LCPI2_21.data,.LCPI2_21
	.align	4
	.type	.LCPI2_21,@object
	.size	.LCPI2_21, 4
.LCPI2_21:
	.long	38016083
	.cc_bottom .LCPI2_21.data
	.cc_top .LCPI2_22.data,.LCPI2_22
	.align	4
	.type	.LCPI2_22,@object
	.size	.LCPI2_22, 4
.LCPI2_22:
	.long	3634488961
	.cc_bottom .LCPI2_22.data
	.cc_top .LCPI2_23.data,.LCPI2_23
	.align	4
	.type	.LCPI2_23,@object
	.size	.LCPI2_23, 4
.LCPI2_23:
	.long	3889429448
	.cc_bottom .LCPI2_23.data
	.cc_top .LCPI2_24.data,.LCPI2_24
	.align	4
	.type	.LCPI2_24,@object
	.size	.LCPI2_24, 4
.LCPI2_24:
	.long	568446438
	.cc_bottom .LCPI2_24.data
	.cc_top .LCPI2_25.data,.LCPI2_25
	.align	4
	.type	.LCPI2_25,@object
	.size	.LCPI2_25, 4
.LCPI2_25:
	.long	3275163606
	.cc_bottom .LCPI2_25.data
	.cc_top .LCPI2_26.data,.LCPI2_26
	.align	4
	.type	.LCPI2_26,@object
	.size	.LCPI2_26, 4
.LCPI2_26:
	.long	4107603335
	.cc_bottom .LCPI2_26.data
	.cc_top .LCPI2_27.data,.LCPI2_27
	.align	4
	.type	.LCPI2_27,@object
	.size	.LCPI2_27, 4
.LCPI2_27:
	.long	1163531501
	.cc_bottom .LCPI2_27.data
	.cc_top .LCPI2_28.data,.LCPI2_28
	.align	4
	.type	.LCPI2_28,@object
	.size	.LCPI2_28, 4
.LCPI2_28:
	.long	2850285829
	.cc_bottom .LCPI2_28.data
	.cc_top .LCPI2_29.data,.LCPI2_29
	.align	4
	.type	.LCPI2_29,@object
	.size	.LCPI2_29, 4
.LCPI2_29:
	.long	4243563512
	.cc_bottom .LCPI2_29.data
	.cc_top .LCPI2_30.data,.LCPI2_30
	.align	4
	.type	.LCPI2_30,@object
	.size	.LCPI2_30, 4
.LCPI2_30:
	.long	1735328473
	.cc_bottom .LCPI2_30.data
	.cc_top .LCPI2_31.data,.LCPI2_31
	.align	4
	.type	.LCPI2_31,@object
	.size	.LCPI2_31, 4
.LCPI2_31:
	.long	2368359562
	.cc_bottom .LCPI2_31.data
	.cc_top .LCPI2_32.data,.LCPI2_32
	.align	4
	.type	.LCPI2_32,@object
	.size	.LCPI2_32, 4
.LCPI2_32:
	.long	4294588738
	.cc_bottom .LCPI2_32.data
	.cc_top .LCPI2_33.data,.LCPI2_33
	.align	4
	.type	.LCPI2_33,@object
	.size	.LCPI2_33, 4
.LCPI2_33:
	.long	2272392833
	.cc_bottom .LCPI2_33.data
	.cc_top .LCPI2_34.data,.LCPI2_34
	.align	4
	.type	.LCPI2_34,@object
	.size	.LCPI2_34, 4
.LCPI2_34:
	.long	1839030562
	.cc_bottom .LCPI2_34.data
	.cc_top .LCPI2_35.data,.LCPI2_35
	.align	4
	.type	.LCPI2_35,@object
	.size	.LCPI2_35, 4
.LCPI2_35:
	.long	4259657740
	.cc_bottom .LCPI2_35.data
	.cc_top .LCPI2_36.data,.LCPI2_36
	.align	4
	.type	.LCPI2_36,@object
	.size	.LCPI2_36, 4
.LCPI2_36:
	.long	2763975236
	.cc_bottom .LCPI2_36.data
	.cc_top .LCPI2_37.data,.LCPI2_37
	.align	4
	.type	.LCPI2_37,@object
	.size	.LCPI2_37, 4
.LCPI2_37:
	.long	1272893353
	.cc_bottom .LCPI2_37.data
	.cc_top .LCPI2_38.data,.LCPI2_38
	.align	4
	.type	.LCPI2_38,@object
	.size	.LCPI2_38, 4
.LCPI2_38:
	.long	4139469664
	.cc_bottom .LCPI2_38.data
	.cc_top .LCPI2_39.data,.LCPI2_39
	.align	4
	.type	.LCPI2_39,@object
	.size	.LCPI2_39, 4
.LCPI2_39:
	.long	3200236656
	.cc_bottom .LCPI2_39.data
	.cc_top .LCPI2_40.data,.LCPI2_40
	.align	4
	.type	.LCPI2_40,@object
	.size	.LCPI2_40, 4
.LCPI2_40:
	.long	681279174
	.cc_bottom .LCPI2_40.data
	.cc_top .LCPI2_41.data,.LCPI2_41
	.align	4
	.type	.LCPI2_41,@object
	.size	.LCPI2_41, 4
.LCPI2_41:
	.long	3936430074
	.cc_bottom .LCPI2_41.data
	.cc_top .LCPI2_42.data,.LCPI2_42
	.align	4
	.type	.LCPI2_42,@object
	.size	.LCPI2_42, 4
.LCPI2_42:
	.long	3572445317
	.cc_bottom .LCPI2_42.data
	.cc_top .LCPI2_43.data,.LCPI2_43
	.align	4
	.type	.LCPI2_43,@object
	.size	.LCPI2_43, 4
.LCPI2_43:
	.long	76029189
	.cc_bottom .LCPI2_43.data
	.cc_top .LCPI2_44.data,.LCPI2_44
	.align	4
	.type	.LCPI2_44,@object
	.size	.LCPI2_44, 4
.LCPI2_44:
	.long	3654602809
	.cc_bottom .LCPI2_44.data
	.cc_top .LCPI2_45.data,.LCPI2_45
	.align	4
	.type	.LCPI2_45,@object
	.size	.LCPI2_45, 4
.LCPI2_45:
	.long	3873151461
	.cc_bottom .LCPI2_45.data
	.cc_top .LCPI2_46.data,.LCPI2_46
	.align	4
	.type	.LCPI2_46,@object
	.size	.LCPI2_46, 4
.LCPI2_46:
	.long	530742520
	.cc_bottom .LCPI2_46.data
	.cc_top .LCPI2_47.data,.LCPI2_47
	.align	4
	.type	.LCPI2_47,@object
	.size	.LCPI2_47, 4
.LCPI2_47:
	.long	3299628645
	.cc_bottom .LCPI2_47.data
	.cc_top .LCPI2_48.data,.LCPI2_48
	.align	4
	.type	.LCPI2_48,@object
	.size	.LCPI2_48, 4
.LCPI2_48:
	.long	4096336452
	.cc_bottom .LCPI2_48.data
	.cc_top .LCPI2_49.data,.LCPI2_49
	.align	4
	.type	.LCPI2_49,@object
	.size	.LCPI2_49, 4
.LCPI2_49:
	.long	1126891415
	.cc_bottom .LCPI2_49.data
	.cc_top .LCPI2_50.data,.LCPI2_50
	.align	4
	.type	.LCPI2_50,@object
	.size	.LCPI2_50, 4
.LCPI2_50:
	.long	2878612391
	.cc_bottom .LCPI2_50.data
	.cc_top .LCPI2_51.data,.LCPI2_51
	.align	4
	.type	.LCPI2_51,@object
	.size	.LCPI2_51, 4
.LCPI2_51:
	.long	4237533241
	.cc_bottom .LCPI2_51.data
	.cc_top .LCPI2_52.data,.LCPI2_52
	.align	4
	.type	.LCPI2_52,@object
	.size	.LCPI2_52, 4
.LCPI2_52:
	.long	1700485571
	.cc_bottom .LCPI2_52.data
	.cc_top .LCPI2_53.data,.LCPI2_53
	.align	4
	.type	.LCPI2_53,@object
	.size	.LCPI2_53, 4
.LCPI2_53:
	.long	2399980690
	.cc_bottom .LCPI2_53.data
	.cc_top .LCPI2_54.data,.LCPI2_54
	.align	4
	.type	.LCPI2_54,@object
	.size	.LCPI2_54, 4
.LCPI2_54:
	.long	4293915773
	.cc_bottom .LCPI2_54.data
	.cc_top .LCPI2_55.data,.LCPI2_55
	.align	4
	.type	.LCPI2_55,@object
	.size	.LCPI2_55, 4
.LCPI2_55:
	.long	2240044497
	.cc_bottom .LCPI2_55.data
	.cc_top .LCPI2_56.data,.LCPI2_56
	.align	4
	.type	.LCPI2_56,@object
	.size	.LCPI2_56, 4
.LCPI2_56:
	.long	1873313359
	.cc_bottom .LCPI2_56.data
	.cc_top .LCPI2_57.data,.LCPI2_57
	.align	4
	.type	.LCPI2_57,@object
	.size	.LCPI2_57, 4
.LCPI2_57:
	.long	4264355552
	.cc_bottom .LCPI2_57.data
	.cc_top .LCPI2_58.data,.LCPI2_58
	.align	4
	.type	.LCPI2_58,@object
	.size	.LCPI2_58, 4
.LCPI2_58:
	.long	2734768916
	.cc_bottom .LCPI2_58.data
	.cc_top .LCPI2_59.data,.LCPI2_59
	.align	4
	.type	.LCPI2_59,@object
	.size	.LCPI2_59, 4
.LCPI2_59:
	.long	1309151649
	.cc_bottom .LCPI2_59.data
	.cc_top .LCPI2_60.data,.LCPI2_60
	.align	4
	.type	.LCPI2_60,@object
	.size	.LCPI2_60, 4
.LCPI2_60:
	.long	4149444226
	.cc_bottom .LCPI2_60.data
	.cc_top .LCPI2_61.data,.LCPI2_61
	.align	4
	.type	.LCPI2_61,@object
	.size	.LCPI2_61, 4
.LCPI2_61:
	.long	3174756917
	.cc_bottom .LCPI2_61.data
	.cc_top .LCPI2_62.data,.LCPI2_62
	.align	4
	.type	.LCPI2_62,@object
	.size	.LCPI2_62, 4
.LCPI2_62:
	.long	718787259
	.cc_bottom .LCPI2_62.data
	.cc_top .LCPI2_63.data,.LCPI2_63
	.align	4
	.type	.LCPI2_63,@object
	.size	.LCPI2_63, 4
.LCPI2_63:
	.long	3951481745
	.cc_bottom .LCPI2_63.data
	.text
	.align	4
	.type	FLAC__MD5Transform,@function
	.cc_top FLAC__MD5Transform.function,FLAC__MD5Transform
FLAC__MD5Transform:
.Lfunc_begin2:
	.loc	4 56 0
	.cfi_startproc
	.issue_mode dual
	{
		nop
		dualentsp 26
	}
.Ltmp29:
	.cfi_def_cfa_offset 104
.Ltmp30:
	.cfi_offset 15, 0
	std r5, r4, sp[9]
.Ltmp31:
	.cfi_offset 4, -32
.Ltmp32:
	.cfi_offset 5, -28
	std r7, r6, sp[10]
.Ltmp33:
	.cfi_offset 6, -24
.Ltmp34:
	.cfi_offset 7, -20
	std r9, r8, sp[11]
.Ltmp35:
	.cfi_offset 8, -16
.Ltmp36:
	.cfi_offset 9, -12
.Ltmp37:
	.cfi_offset 10, -8
.Ltmp38:
	{
		mov r2, r1
		stw r10, sp[24]
	}
.Ltmp39:
	{
		nop
		stw r0, sp[0]
	}
	{
		nop
		ldw r11, r0[0]
	}
.Ltmp40:
	{
		nop
		stw r11, sp[1]
	}
	{
		nop
		ldw r3, r0[1]
	}
.Ltmp41:
	{
		nop
		ldw r1, r0[2]
	}
.Ltmp42:
	{
		nop
		ldw r5, r0[3]
	}
.Ltmp43:
	.loc	4 64 2 prologue_end
	xor r0, r5, r1
	.loc	4 64 2
	{
		and r0, r0, r3
		nop
	}
	.loc	4 64 2
	xor r0, r0, r5
	{
		nop
		ldw r4, r2[0]
	}
.Ltmp44:
	.loc	4 64 2
	{
		add r11, r11, r4
		stw r4, sp[3]
	}
	.loc	4 64 2
	{
		add r0, r11, r0
		nop
	}
	ldw r11, cp[.LCPI2_0]
	.loc	4 64 2
	{
		add r11, r0, r11
		nop
	}
.Ltmp45:
	.loc	4 64 2
	{
		shl r6, r11, 7
		ldc r0, 25
	}
	.loc	4 64 2
	{
		shr r11, r11, r0
		mov r7, r0
	}
.Ltmp46:
	.loc	4 64 2
	{
		or r11, r6, r11
		nop
	}
	.loc	4 64 2
	{
		add r11, r11, r3
		nop
	}
.Ltmp47:
	.loc	4 65 2
	xor r6, r1, r3
	.loc	4 65 2
	{
		and r6, r11, r6
		nop
	}
	.loc	4 65 2
	xor r6, r6, r1
	{
		nop
		ldw r0, r2[1]
	}
	.loc	4 65 2
	{
		add r5, r5, r0
		stw r0, sp[15]
	}
.Ltmp48:
	.loc	4 65 2
	{
		add r5, r5, r6
		nop
	}
	ldw r6, cp[.LCPI2_1]
.Ltmp49:
	.loc	4 65 2
	{
		add r5, r5, r6
		ldc r0, 12
	}
.Ltmp50:
	.loc	4 65 2
	{
		shl r6, r5, r0
		mov r10, r0
	}
	{
		ldc r0, 20
		nop
	}
	.loc	4 65 2
	{
		shr r5, r5, r0
		nop
	}
	.loc	4 65 2
	{
		or r5, r6, r5
		nop
	}
	.loc	4 65 2
	{
		add r5, r5, r11
		nop
	}
.Ltmp51:
	.loc	4 66 2
	xor r6, r11, r3
	.loc	4 66 2
	{
		and r6, r5, r6
		nop
	}
	.loc	4 66 2
	xor r6, r6, r3
	{
		nop
		ldw r0, r2[2]
	}
	.loc	4 66 2
	{
		add r1, r1, r0
		stw r0, sp[12]
	}
.Ltmp52:
	.loc	4 66 2
	{
		add r1, r1, r6
		nop
	}
	ldw r6, cp[.LCPI2_2]
.Ltmp53:
	.loc	4 66 2
	{
		add r1, r1, r6
		ldc r4, 17
	}
.Ltmp54:
	.loc	4 66 2
	{
		shl r6, r1, r4
		mov r9, r4
	}
	{
		mkmsk r4, 4
		nop
	}
	.loc	4 66 2
	{
		shr r1, r1, r4
		mov r0, r4
	}
	.loc	4 66 2
	{
		or r1, r6, r1
		nop
	}
	.loc	4 66 2
	{
		add r6, r1, r5
		nop
	}
.Ltmp55:
	.loc	4 67 2
	xor r1, r5, r11
	.loc	4 67 2
	{
		and r1, r6, r1
		nop
	}
	.loc	4 67 2
	xor r1, r1, r11
	{
		nop
		ldw r4, r2[3]
	}
	.loc	4 67 2
	{
		add r3, r3, r4
		stw r4, sp[16]
	}
.Ltmp56:
	.loc	4 67 2
	{
		add r1, r3, r1
		nop
	}
	ldw r3, cp[.LCPI2_3]
.Ltmp57:
	.loc	4 67 2
	{
		add r1, r1, r3
		ldc r3, 22
	}
.Ltmp58:
	.loc	4 67 2
	{
		shl r3, r1, r3
		ldc r4, 10
	}
	.loc	4 67 2
	{
		shr r1, r1, r4
		nop
	}
	.loc	4 67 2
	{
		or r1, r3, r1
		nop
	}
	.loc	4 67 2
	{
		add r1, r1, r6
		nop
	}
.Ltmp59:
	.loc	4 68 2
	xor r3, r6, r5
	.loc	4 68 2
	{
		and r3, r1, r3
		nop
	}
	.loc	4 68 2
	xor r3, r3, r5
	{
		nop
		ldw r4, r2[4]
	}
	.loc	4 68 2
	{
		add r11, r4, r11
		stw r4, sp[9]
	}
.Ltmp60:
	.loc	4 68 2
	{
		add r3, r11, r3
		nop
	}
	ldw r11, cp[.LCPI2_4]
	.loc	4 68 2
	{
		add r3, r3, r11
		nop
	}
.Ltmp61:
	.loc	4 68 2
	{
		shl r11, r3, 7
		mov r8, r7
	}
	.loc	4 68 2
	{
		shr r3, r3, r8
		nop
	}
.Ltmp62:
	.loc	4 68 2
	{
		or r3, r11, r3
		nop
	}
	.loc	4 68 2
	{
		add r3, r3, r1
		nop
	}
.Ltmp63:
	.loc	4 69 2
	xor r11, r1, r6
	.loc	4 69 2
	{
		and r11, r3, r11
		nop
	}
	.loc	4 69 2
	xor r11, r11, r6
	{
		nop
		ldw r4, r2[5]
	}
	.loc	4 69 2
	{
		add r5, r4, r5
		stw r4, sp[6]
	}
.Ltmp64:
	.loc	4 69 2
	{
		add r11, r5, r11
		nop
	}
	ldw r5, cp[.LCPI2_5]
	.loc	4 69 2
	{
		add r11, r11, r5
		nop
	}
.Ltmp65:
	.loc	4 69 2
	{
		shl r5, r11, r10
		ldc r10, 20
	}
	.loc	4 69 2
	{
		shr r11, r11, r10
		nop
	}
.Ltmp66:
	.loc	4 69 2
	{
		or r11, r5, r11
		nop
	}
	.loc	4 69 2
	{
		add r11, r11, r3
		nop
	}
.Ltmp67:
	.loc	4 70 2
	xor r5, r3, r1
	.loc	4 70 2
	{
		and r5, r11, r5
		nop
	}
	.loc	4 70 2
	xor r5, r5, r1
	{
		nop
		ldw r4, r2[6]
	}
	.loc	4 70 2
	{
		add r6, r4, r6
		stw r4, sp[14]
	}
.Ltmp68:
	.loc	4 70 2
	{
		add r5, r6, r5
		nop
	}
	ldw r6, cp[.LCPI2_6]
	.loc	4 70 2
	{
		add r5, r5, r6
		nop
	}
.Ltmp69:
	.loc	4 70 2
	{
		shl r6, r5, r9
		mov r4, r0
	}
	.loc	4 70 2
	{
		shr r5, r5, r4
		nop
	}
.Ltmp70:
	.loc	4 70 2
	{
		or r5, r6, r5
		nop
	}
	.loc	4 70 2
	{
		add r7, r5, r11
		nop
	}
.Ltmp71:
	.loc	4 71 2
	xor r5, r11, r3
	.loc	4 71 2
	{
		and r5, r7, r5
		nop
	}
	.loc	4 71 2
	xor r5, r5, r3
	{
		nop
		ldw r0, r2[7]
	}
	.loc	4 71 2
	{
		add r1, r0, r1
		stw r0, sp[11]
	}
.Ltmp72:
	.loc	4 71 2
	{
		add r1, r1, r5
		nop
	}
	ldw r5, cp[.LCPI2_7]
.Ltmp73:
	.loc	4 71 2
	{
		add r1, r1, r5
		ldc r0, 22
	}
.Ltmp74:
	.loc	4 71 2
	{
		shl r5, r1, r0
		ldc r0, 10
	}
	.loc	4 71 2
	{
		shr r1, r1, r0
		nop
	}
	.loc	4 71 2
	{
		or r1, r5, r1
		nop
	}
	.loc	4 71 2
	{
		add r1, r1, r7
		nop
	}
.Ltmp75:
	.loc	4 72 2
	xor r5, r7, r11
	.loc	4 72 2
	{
		and r5, r1, r5
		nop
	}
	.loc	4 72 2
	xor r5, r5, r11
	{
		nop
		ldw r0, r2[8]
	}
	.loc	4 72 2
	{
		add r3, r0, r3
		stw r0, sp[2]
	}
.Ltmp76:
	.loc	4 72 2
	{
		add r3, r3, r5
		nop
	}
	ldw r5, cp[.LCPI2_8]
	.loc	4 72 2
	{
		add r3, r3, r5
		nop
	}
.Ltmp77:
	.loc	4 72 2
	{
		shl r5, r3, 7
		shr r3, r3, r8
	}
.Ltmp78:
	.loc	4 72 2
	{
		or r3, r5, r3
		nop
	}
	.loc	4 72 2
	{
		add r6, r3, r1
		nop
	}
.Ltmp79:
	.loc	4 73 2
	xor r3, r1, r7
	.loc	4 73 2
	{
		and r3, r6, r3
		nop
	}
	.loc	4 73 2
	xor r3, r3, r7
	{
		nop
		ldw r0, r2[9]
	}
	.loc	4 73 2
	{
		add r11, r0, r11
		stw r0, sp[8]
	}
.Ltmp80:
	.loc	4 73 2
	{
		add r3, r11, r3
		nop
	}
	ldw r11, cp[.LCPI2_9]
.Ltmp81:
	.loc	4 73 2
	{
		add r3, r3, r11
		ldc r0, 12
	}
.Ltmp82:
	.loc	4 73 2
	{
		shl r11, r3, r0
		shr r3, r3, r10
	}
	.loc	4 73 2
	{
		or r3, r11, r3
		nop
	}
	.loc	4 73 2
	{
		add r5, r3, r6
		nop
	}
.Ltmp83:
	.loc	4 74 2
	xor r3, r6, r1
	.loc	4 74 2
	{
		and r3, r5, r3
		nop
	}
	.loc	4 74 2
	xor r3, r3, r1
	{
		nop
		ldw r0, r2[10]
	}
	.loc	4 74 2
	{
		add r11, r0, r7
		stw r0, sp[5]
	}
	.loc	4 74 2
	{
		add r3, r11, r3
		nop
	}
	ldw r11, cp[.LCPI2_10]
	.loc	4 74 2
	{
		add r3, r3, r11
		nop
	}
.Ltmp84:
	.loc	4 74 2
	{
		shl r11, r3, r9
		mov r7, r9
	}
	.loc	4 74 2
	{
		shr r3, r3, r4
		mov r8, r4
	}
.Ltmp85:
	.loc	4 74 2
	{
		or r3, r11, r3
		nop
	}
	.loc	4 74 2
	{
		add r9, r3, r5
		nop
	}
.Ltmp86:
	.loc	4 75 2
	xor r3, r5, r6
	.loc	4 75 2
	{
		and r3, r9, r3
		nop
	}
	.loc	4 75 2
	xor r3, r3, r6
	{
		nop
		ldw r0, r2[11]
	}
	.loc	4 75 2
	{
		add r1, r0, r1
		stw r0, sp[17]
	}
.Ltmp87:
	.loc	4 75 2
	{
		add r1, r1, r3
		nop
	}
	ldw r3, cp[.LCPI2_11]
.Ltmp88:
	.loc	4 75 2
	{
		add r1, r1, r3
		ldc r4, 22
	}
.Ltmp89:
	.loc	4 75 2
	{
		shl r3, r1, r4
		ldc r10, 10
	}
	.loc	4 75 2
	{
		shr r1, r1, r10
		nop
	}
	.loc	4 75 2
	{
		or r1, r3, r1
		nop
	}
	.loc	4 75 2
	{
		add r1, r1, r9
		nop
	}
.Ltmp90:
	.loc	4 76 2
	xor r3, r9, r5
	.loc	4 76 2
	{
		and r3, r1, r3
		nop
	}
	.loc	4 76 2
	xor r3, r3, r5
	{
		ldc r11, 48
		nop
	}
	.loc	4 76 2
	{
		add r11, r2, r11
		nop
	}
	{
		nop
		ldw r0, r11[0]
	}
	.loc	4 76 2
	{
		add r11, r0, r6
		stw r0, sp[13]
	}
	.loc	4 76 2
	{
		add r3, r11, r3
		nop
	}
	ldw r11, cp[.LCPI2_12]
	.loc	4 76 2
	{
		add r3, r3, r11
		nop
	}
.Ltmp91:
	.loc	4 76 2
	{
		shl r11, r3, 7
		ldc r0, 25
	}
	.loc	4 76 2
	{
		shr r0, r3, r0
		nop
	}
	.loc	4 76 2
	{
		or r0, r11, r0
		nop
	}
	.loc	4 76 2
	{
		add r11, r0, r1
		nop
	}
.Ltmp92:
	.loc	4 77 2
	xor r0, r1, r9
	.loc	4 77 2
	{
		and r0, r11, r0
		nop
	}
	.loc	4 77 2
	xor r0, r0, r9
	{
		ldc r3, 52
		nop
	}
	.loc	4 77 2
	{
		add r3, r2, r3
		nop
	}
	{
		nop
		ldw r3, r3[0]
	}
	.loc	4 77 2
	{
		add r3, r3, r5
		stw r3, sp[7]
	}
	.loc	4 77 2
	{
		add r0, r3, r0
		nop
	}
	ldw r3, cp[.LCPI2_13]
.Ltmp93:
	.loc	4 77 2
	{
		add r0, r0, r3
		ldc r3, 12
	}
.Ltmp94:
	.loc	4 77 2
	{
		shl r3, r0, r3
		ldc r5, 20
	}
	.loc	4 77 2
	{
		shr r0, r0, r5
		nop
	}
	.loc	4 77 2
	{
		or r0, r3, r0
		nop
	}
	.loc	4 77 2
	{
		add r5, r0, r11
		nop
	}
.Ltmp95:
	.loc	4 78 2
	xor r0, r11, r1
	.loc	4 78 2
	{
		and r0, r5, r0
		nop
	}
	.loc	4 78 2
	xor r0, r0, r1
	{
		ldc r3, 56
		nop
	}
	.loc	4 78 2
	{
		add r3, r2, r3
		nop
	}
	{
		nop
		ldw r3, r3[0]
	}
	.loc	4 78 2
	{
		add r3, r3, r9
		stw r3, sp[4]
	}
	.loc	4 78 2
	{
		add r0, r3, r0
		nop
	}
	ldw r3, cp[.LCPI2_14]
	.loc	4 78 2
	{
		add r0, r0, r3
		nop
	}
.Ltmp96:
	.loc	4 78 2
	{
		shl r3, r0, r7
		shr r0, r0, r8
	}
.Ltmp97:
	.loc	4 78 2
	{
		or r0, r3, r0
		nop
	}
	.loc	4 78 2
	{
		add r0, r0, r5
		nop
	}
.Ltmp98:
	.loc	4 79 2
	xor r3, r5, r11
	.loc	4 79 2
	{
		and r3, r0, r3
		nop
	}
	.loc	4 79 2
	xor r3, r3, r11
	{
		ldc r6, 60
		nop
	}
	.loc	4 79 2
	{
		add r2, r2, r6
		nop
	}
	{
		nop
		ldw r2, r2[0]
	}
	.loc	4 79 2
	{
		add r1, r2, r1
		stw r2, sp[10]
	}
.Ltmp99:
	.loc	4 79 2
	{
		add r1, r1, r3
		nop
	}
	ldw r2, cp[.LCPI2_15]
	.loc	4 79 2
	{
		add r1, r1, r2
		nop
	}
.Ltmp100:
	.loc	4 79 2
	{
		shl r2, r1, r4
		shr r1, r1, r10
	}
.Ltmp101:
	.loc	4 79 2
	{
		or r1, r2, r1
		nop
	}
	.loc	4 79 2
	{
		add r3, r1, r0
		nop
	}
.Ltmp102:
	.loc	4 81 2
	xor r1, r3, r0
	.loc	4 81 2
	{
		and r1, r1, r5
		nop
	}
	.loc	4 81 2
	xor r1, r1, r0
	{
		nop
		ldw r2, sp[15]
	}
	.loc	4 81 2
	{
		add r2, r2, r11
		nop
	}
	.loc	4 81 2
	{
		add r1, r2, r1
		nop
	}
	ldw r2, cp[.LCPI2_16]
	.loc	4 81 2
	{
		add r1, r1, r2
		nop
	}
.Ltmp103:
	.loc	4 81 2
	{
		shl r2, r1, 5
		ldc r11, 27
	}
	.loc	4 81 2
	{
		shr r1, r1, r11
		mov r6, r11
	}
.Ltmp104:
	.loc	4 81 2
	{
		or r1, r2, r1
		nop
	}
	.loc	4 81 2
	{
		add r2, r1, r3
		nop
	}
.Ltmp105:
	.loc	4 82 2
	xor r1, r2, r3
	.loc	4 82 2
	{
		and r1, r1, r0
		nop
	}
	.loc	4 82 2
	xor r1, r1, r3
	{
		nop
		ldw r11, sp[14]
	}
	.loc	4 82 2
	{
		add r11, r11, r5
		nop
	}
	.loc	4 82 2
	{
		add r1, r11, r1
		nop
	}
	ldw r11, cp[.LCPI2_17]
.Ltmp106:
	.loc	4 82 2
	{
		add r1, r1, r11
		ldc r4, 9
	}
.Ltmp107:
	.loc	4 82 2
	{
		shl r11, r1, r4
		mov r10, r4
	}
	{
		ldc r4, 23
		nop
	}
	.loc	4 82 2
	{
		shr r1, r1, r4
		mov r7, r4
	}
	.loc	4 82 2
	{
		or r1, r11, r1
		nop
	}
	.loc	4 82 2
	{
		add r1, r1, r2
		nop
	}
.Ltmp108:
	.loc	4 83 2
	xor r11, r1, r2
	.loc	4 83 2
	{
		and r11, r11, r3
		nop
	}
	.loc	4 83 2
	xor r11, r11, r2
	{
		nop
		ldw r4, sp[17]
	}
	.loc	4 83 2
	{
		add r0, r4, r0
		nop
	}
.Ltmp109:
	.loc	4 83 2
	{
		add r0, r0, r11
		nop
	}
	ldw r11, cp[.LCPI2_18]
.Ltmp110:
	.loc	4 83 2
	{
		add r0, r0, r11
		ldc r5, 14
	}
.Ltmp111:
	.loc	4 83 2
	{
		shl r11, r0, r5
		mov r8, r5
	}
	{
		ldc r4, 18
		nop
	}
	.loc	4 83 2
	{
		shr r0, r0, r4
		nop
	}
	.loc	4 83 2
	{
		or r0, r11, r0
		nop
	}
	.loc	4 83 2
	{
		add r4, r0, r1
		nop
	}
.Ltmp112:
	.loc	4 84 2
	xor r11, r4, r1
	.loc	4 84 2
	{
		and r11, r11, r2
		nop
	}
	.loc	4 84 2
	xor r11, r11, r1
	{
		nop
		ldw r5, sp[3]
	}
	.loc	4 84 2
	{
		add r3, r5, r3
		nop
	}
.Ltmp113:
	.loc	4 84 2
	{
		add r3, r3, r11
		nop
	}
	ldw r11, cp[.LCPI2_19]
.Ltmp114:
	.loc	4 84 2
	{
		add r3, r3, r11
		ldc r9, 20
	}
.Ltmp115:
	.loc	4 84 2
	{
		shl r11, r3, r9
		ldc r5, 12
	}
	.loc	4 84 2
	{
		shr r3, r3, r5
		nop
	}
	.loc	4 84 2
	{
		or r3, r11, r3
		nop
	}
	.loc	4 84 2
	{
		add r3, r3, r4
		nop
	}
.Ltmp116:
	.loc	4 85 2
	xor r11, r3, r4
	.loc	4 85 2
	{
		and r11, r11, r1
		nop
	}
	.loc	4 85 2
	xor r11, r11, r4
	{
		nop
		ldw r0, sp[6]
	}
	.loc	4 85 2
	{
		add r2, r0, r2
		nop
	}
.Ltmp117:
	.loc	4 85 2
	{
		add r2, r2, r11
		nop
	}
	ldw r11, cp[.LCPI2_20]
	.loc	4 85 2
	{
		add r2, r2, r11
		nop
	}
.Ltmp118:
	.loc	4 85 2
	{
		shl r11, r2, 5
		shr r2, r2, r6
	}
.Ltmp119:
	.loc	4 85 2
	{
		or r2, r11, r2
		nop
	}
	.loc	4 85 2
	{
		add r2, r2, r3
		nop
	}
.Ltmp120:
	.loc	4 86 2
	xor r11, r2, r3
	.loc	4 86 2
	{
		and r11, r11, r4
		nop
	}
	.loc	4 86 2
	xor r11, r11, r3
	{
		nop
		ldw r6, sp[5]
	}
	.loc	4 86 2
	{
		add r1, r6, r1
		nop
	}
.Ltmp121:
	.loc	4 86 2
	{
		add r1, r1, r11
		nop
	}
	ldw r11, cp[.LCPI2_21]
	.loc	4 86 2
	{
		add r1, r1, r11
		nop
	}
.Ltmp122:
	.loc	4 86 2
	{
		shl r11, r1, r10
		shr r1, r1, r7
	}
.Ltmp123:
	.loc	4 86 2
	{
		or r1, r11, r1
		nop
	}
	.loc	4 86 2
	{
		add r1, r1, r2
		nop
	}
.Ltmp124:
	.loc	4 87 2
	xor r11, r1, r2
	.loc	4 87 2
	{
		and r11, r11, r3
		nop
	}
	.loc	4 87 2
	xor r11, r11, r2
	{
		nop
		ldw r0, sp[10]
	}
	.loc	4 87 2
	{
		add r0, r0, r4
		nop
	}
	.loc	4 87 2
	{
		add r0, r0, r11
		nop
	}
	ldw r11, cp[.LCPI2_22]
	.loc	4 87 2
	{
		add r0, r0, r11
		nop
	}
.Ltmp125:
	.loc	4 87 2
	{
		shl r11, r0, r8
		ldc r8, 18
	}
	.loc	4 87 2
	{
		shr r0, r0, r8
		nop
	}
.Ltmp126:
	.loc	4 87 2
	{
		or r0, r11, r0
		nop
	}
	.loc	4 87 2
	{
		add r0, r0, r1
		nop
	}
.Ltmp127:
	.loc	4 88 2
	xor r11, r0, r1
	.loc	4 88 2
	{
		and r11, r11, r2
		nop
	}
	.loc	4 88 2
	xor r11, r11, r1
	{
		nop
		ldw r6, sp[9]
	}
	.loc	4 88 2
	{
		add r3, r6, r3
		nop
	}
.Ltmp128:
	.loc	4 88 2
	{
		add r3, r3, r11
		nop
	}
	ldw r11, cp[.LCPI2_23]
	.loc	4 88 2
	{
		add r3, r3, r11
		nop
	}
.Ltmp129:
	.loc	4 88 2
	{
		shl r11, r3, r9
		shr r3, r3, r5
	}
.Ltmp130:
	.loc	4 88 2
	{
		or r3, r11, r3
		nop
	}
	.loc	4 88 2
	{
		add r3, r3, r0
		nop
	}
.Ltmp131:
	.loc	4 89 2
	xor r11, r3, r0
	.loc	4 89 2
	{
		and r11, r11, r1
		nop
	}
	.loc	4 89 2
	xor r11, r11, r0
	{
		nop
		ldw r6, sp[8]
	}
	.loc	4 89 2
	{
		add r2, r6, r2
		nop
	}
.Ltmp132:
	.loc	4 89 2
	{
		add r2, r2, r11
		nop
	}
	ldw r11, cp[.LCPI2_24]
	.loc	4 89 2
	{
		add r2, r2, r11
		nop
	}
.Ltmp133:
	.loc	4 89 2
	{
		shl r11, r2, 5
		ldc r4, 27
	}
	.loc	4 89 2
	{
		shr r2, r2, r4
		nop
	}
.Ltmp134:
	.loc	4 89 2
	{
		or r2, r11, r2
		nop
	}
	.loc	4 89 2
	{
		add r2, r2, r3
		nop
	}
.Ltmp135:
	.loc	4 90 2
	xor r11, r2, r3
	.loc	4 90 2
	{
		and r11, r11, r0
		nop
	}
	.loc	4 90 2
	xor r11, r11, r3
	{
		nop
		ldw r4, sp[4]
	}
	.loc	4 90 2
	{
		add r1, r4, r1
		nop
	}
.Ltmp136:
	.loc	4 90 2
	{
		add r1, r1, r11
		nop
	}
	ldw r11, cp[.LCPI2_25]
	.loc	4 90 2
	{
		add r1, r1, r11
		nop
	}
.Ltmp137:
	.loc	4 90 2
	{
		shl r11, r1, r10
		shr r1, r1, r7
	}
.Ltmp138:
	.loc	4 90 2
	{
		or r1, r11, r1
		nop
	}
	.loc	4 90 2
	{
		add r1, r1, r2
		nop
	}
.Ltmp139:
	.loc	4 91 2
	xor r11, r1, r2
	.loc	4 91 2
	{
		and r11, r11, r3
		nop
	}
	.loc	4 91 2
	xor r11, r11, r2
	{
		nop
		ldw r6, sp[16]
	}
	.loc	4 91 2
	{
		add r0, r6, r0
		nop
	}
.Ltmp140:
	.loc	4 91 2
	{
		add r0, r0, r11
		nop
	}
	ldw r11, cp[.LCPI2_26]
.Ltmp141:
	.loc	4 91 2
	{
		add r0, r0, r11
		ldc r9, 14
	}
.Ltmp142:
	.loc	4 91 2
	{
		shl r11, r0, r9
		shr r0, r0, r8
	}
	.loc	4 91 2
	{
		or r0, r11, r0
		nop
	}
	.loc	4 91 2
	{
		add r0, r0, r1
		nop
	}
.Ltmp143:
	.loc	4 92 2
	xor r11, r0, r1
	.loc	4 92 2
	{
		and r11, r11, r2
		nop
	}
	.loc	4 92 2
	xor r11, r11, r1
	{
		nop
		ldw r6, sp[2]
	}
	.loc	4 92 2
	{
		add r3, r6, r3
		nop
	}
.Ltmp144:
	.loc	4 92 2
	{
		add r3, r3, r11
		nop
	}
	ldw r11, cp[.LCPI2_27]
.Ltmp145:
	.loc	4 92 2
	{
		add r3, r3, r11
		ldc r11, 20
	}
.Ltmp146:
	.loc	4 92 2
	{
		shl r11, r3, r11
		shr r3, r3, r5
	}
	.loc	4 92 2
	{
		or r3, r11, r3
		nop
	}
	.loc	4 92 2
	{
		add r3, r3, r0
		nop
	}
.Ltmp147:
	.loc	4 93 2
	xor r11, r3, r0
	.loc	4 93 2
	{
		and r11, r11, r1
		nop
	}
	.loc	4 93 2
	xor r11, r11, r0
	{
		nop
		ldw r4, sp[7]
	}
	.loc	4 93 2
	{
		add r2, r4, r2
		nop
	}
.Ltmp148:
	.loc	4 93 2
	{
		add r2, r2, r11
		nop
	}
	ldw r11, cp[.LCPI2_28]
	.loc	4 93 2
	{
		add r2, r2, r11
		nop
	}
.Ltmp149:
	.loc	4 93 2
	{
		shl r11, r2, 5
		ldc r4, 27
	}
	.loc	4 93 2
	{
		shr r2, r2, r4
		nop
	}
.Ltmp150:
	.loc	4 93 2
	{
		or r2, r11, r2
		nop
	}
	.loc	4 93 2
	{
		add r2, r2, r3
		nop
	}
.Ltmp151:
	.loc	4 94 2
	xor r11, r2, r3
	.loc	4 94 2
	{
		and r11, r11, r0
		nop
	}
	.loc	4 94 2
	xor r11, r11, r3
	{
		nop
		ldw r4, sp[12]
	}
	.loc	4 94 2
	{
		add r1, r4, r1
		nop
	}
.Ltmp152:
	.loc	4 94 2
	{
		add r1, r1, r11
		nop
	}
	ldw r11, cp[.LCPI2_29]
	.loc	4 94 2
	{
		add r1, r1, r11
		nop
	}
.Ltmp153:
	.loc	4 94 2
	{
		shl r11, r1, r10
		shr r1, r1, r7
	}
.Ltmp154:
	.loc	4 94 2
	{
		or r1, r11, r1
		nop
	}
	.loc	4 94 2
	{
		add r1, r1, r2
		nop
	}
.Ltmp155:
	.loc	4 95 2
	xor r11, r1, r2
	.loc	4 95 2
	{
		and r11, r11, r3
		nop
	}
	.loc	4 95 2
	xor r11, r11, r2
	{
		nop
		ldw r4, sp[11]
	}
	.loc	4 95 2
	{
		add r0, r4, r0
		nop
	}
.Ltmp156:
	.loc	4 95 2
	{
		add r0, r0, r11
		nop
	}
	ldw r11, cp[.LCPI2_30]
	.loc	4 95 2
	{
		add r0, r0, r11
		nop
	}
.Ltmp157:
	.loc	4 95 2
	{
		shl r11, r0, r9
		shr r0, r0, r8
	}
.Ltmp158:
	.loc	4 95 2
	{
		or r0, r11, r0
		nop
	}
	.loc	4 95 2
	{
		add r11, r0, r1
		nop
	}
.Ltmp159:
	.loc	4 96 2
	xor r0, r11, r1
	.loc	4 96 2
	{
		and r4, r0, r2
		nop
	}
	.loc	4 96 2
	xor r4, r4, r1
	{
		nop
		ldw r10, sp[13]
	}
	.loc	4 96 2
	{
		add r3, r10, r3
		nop
	}
.Ltmp160:
	.loc	4 96 2
	{
		add r3, r3, r4
		nop
	}
	ldw r4, cp[.LCPI2_31]
.Ltmp161:
	.loc	4 96 2
	{
		add r3, r3, r4
		ldc r4, 20
	}
.Ltmp162:
	.loc	4 96 2
	{
		shl r4, r3, r4
		shr r3, r3, r5
	}
	.loc	4 96 2
	{
		or r3, r4, r3
		nop
	}
	.loc	4 96 2
	{
		add r3, r3, r11
		nop
	}
.Ltmp163:
	.loc	4 98 2
	xor r0, r0, r3
	{
		nop
		ldw r4, sp[6]
	}
	.loc	4 98 2
	{
		add r2, r4, r2
		nop
	}
.Ltmp164:
	.loc	4 98 2
	{
		add r0, r2, r0
		nop
	}
	ldw r2, cp[.LCPI2_32]
	.loc	4 98 2
	{
		add r2, r0, r2
		nop
	}
.Ltmp165:
	.loc	4 98 2
	{
		shl r4, r2, 4
		ldc r0, 28
	}
	.loc	4 98 2
	{
		shr r2, r2, r0
		nop
	}
.Ltmp166:
	.loc	4 98 2
	{
		or r2, r4, r2
		nop
	}
	.loc	4 98 2
	{
		add r5, r2, r3
		nop
	}
.Ltmp167:
	.loc	4 99 2
	xor r2, r3, r11
	.loc	4 99 2
	xor r2, r2, r5
	.loc	4 99 2
	{
		add r1, r6, r1
		nop
	}
.Ltmp168:
	.loc	4 99 2
	{
		add r1, r1, r2
		nop
	}
	ldw r2, cp[.LCPI2_33]
.Ltmp169:
	.loc	4 99 2
	{
		add r4, r1, r2
		ldc r1, 11
	}
.Ltmp170:
	.loc	4 99 2
	{
		shl r6, r4, r1
		mov r10, r1
	}
	{
		ldc r1, 21
		nop
	}
	.loc	4 99 2
	{
		shr r4, r4, r1
		mov r9, r1
	}
	.loc	4 99 2
	{
		or r4, r6, r4
		nop
	}
	.loc	4 99 2
	{
		add r6, r4, r5
		nop
	}
.Ltmp171:
	.loc	4 100 2
	xor r4, r5, r3
	.loc	4 100 2
	xor r4, r4, r6
	{
		nop
		ldw r1, sp[17]
	}
	.loc	4 100 2
	{
		add r11, r1, r11
		nop
	}
.Ltmp172:
	.loc	4 100 2
	{
		add r11, r11, r4
		nop
	}
	ldw r4, cp[.LCPI2_34]
	.loc	4 100 2
	{
		add r11, r11, r4
		nop
	}
.Ltmp173:
	.loc	4 100 2
	{
		shl r4, r11, 16
		shr r11, r11, 16
	}
.Ltmp174:
	.loc	4 100 2
	{
		or r11, r4, r11
		nop
	}
	.loc	4 100 2
	{
		add r11, r11, r6
		nop
	}
.Ltmp175:
	.loc	4 101 2
	xor r4, r6, r5
	.loc	4 101 2
	xor r4, r4, r11
	{
		nop
		ldw r1, sp[4]
	}
	.loc	4 101 2
	{
		add r3, r1, r3
		nop
	}
.Ltmp176:
	.loc	4 101 2
	{
		add r3, r3, r4
		nop
	}
	ldw r4, cp[.LCPI2_35]
.Ltmp177:
	.loc	4 101 2
	{
		add r3, r3, r4
		mov r8, r7
	}
.Ltmp178:
	.loc	4 101 2
	{
		shl r4, r3, r8
		ldc r2, 9
	}
	.loc	4 101 2
	{
		shr r3, r3, r2
		nop
	}
	.loc	4 101 2
	{
		or r3, r4, r3
		nop
	}
	.loc	4 101 2
	{
		add r3, r3, r11
		nop
	}
.Ltmp179:
	.loc	4 102 2
	xor r4, r11, r6
	.loc	4 102 2
	xor r4, r4, r3
	{
		nop
		ldw r1, sp[15]
	}
	.loc	4 102 2
	{
		add r5, r1, r5
		nop
	}
.Ltmp180:
	.loc	4 102 2
	{
		add r4, r5, r4
		nop
	}
	ldw r5, cp[.LCPI2_36]
	.loc	4 102 2
	{
		add r4, r4, r5
		nop
	}
.Ltmp181:
	.loc	4 102 2
	{
		shl r5, r4, 4
		shr r4, r4, r0
	}
.Ltmp182:
	.loc	4 102 2
	{
		or r4, r5, r4
		nop
	}
	.loc	4 102 2
	{
		add r5, r4, r3
		nop
	}
.Ltmp183:
	.loc	4 103 2
	xor r4, r3, r11
	.loc	4 103 2
	xor r4, r4, r5
	{
		nop
		ldw r1, sp[9]
	}
	.loc	4 103 2
	{
		add r6, r1, r6
		nop
	}
.Ltmp184:
	.loc	4 103 2
	{
		add r4, r6, r4
		nop
	}
	ldw r6, cp[.LCPI2_37]
	.loc	4 103 2
	{
		add r4, r4, r6
		nop
	}
.Ltmp185:
	.loc	4 103 2
	{
		shl r6, r4, r10
		shr r4, r4, r9
	}
.Ltmp186:
	.loc	4 103 2
	{
		or r4, r6, r4
		nop
	}
	.loc	4 103 2
	{
		add r6, r4, r5
		nop
	}
.Ltmp187:
	.loc	4 104 2
	xor r4, r5, r3
	.loc	4 104 2
	xor r4, r4, r6
	{
		nop
		ldw r1, sp[11]
	}
	.loc	4 104 2
	{
		add r11, r1, r11
		nop
	}
.Ltmp188:
	.loc	4 104 2
	{
		add r11, r11, r4
		nop
	}
	ldw r4, cp[.LCPI2_38]
	.loc	4 104 2
	{
		add r11, r11, r4
		nop
	}
.Ltmp189:
	.loc	4 104 2
	{
		shl r4, r11, 16
		shr r11, r11, 16
	}
.Ltmp190:
	.loc	4 104 2
	{
		or r11, r4, r11
		nop
	}
	.loc	4 104 2
	{
		add r11, r11, r6
		nop
	}
.Ltmp191:
	.loc	4 105 2
	xor r4, r6, r5
	.loc	4 105 2
	xor r4, r4, r11
	{
		nop
		ldw r1, sp[5]
	}
	.loc	4 105 2
	{
		add r3, r1, r3
		nop
	}
.Ltmp192:
	.loc	4 105 2
	{
		add r3, r3, r4
		nop
	}
	ldw r4, cp[.LCPI2_39]
	.loc	4 105 2
	{
		add r3, r3, r4
		nop
	}
.Ltmp193:
	.loc	4 105 2
	{
		shl r4, r3, r8
		shr r3, r3, r2
	}
.Ltmp194:
	{
		mov r7, r2
		or r3, r4, r3
	}
	.loc	4 105 2
	{
		add r3, r3, r11
		nop
	}
.Ltmp195:
	.loc	4 106 2
	xor r4, r11, r6
	.loc	4 106 2
	xor r4, r4, r3
	{
		nop
		ldw r1, sp[7]
	}
	.loc	4 106 2
	{
		add r5, r1, r5
		nop
	}
.Ltmp196:
	.loc	4 106 2
	{
		add r4, r5, r4
		nop
	}
	ldw r5, cp[.LCPI2_40]
	.loc	4 106 2
	{
		add r4, r4, r5
		nop
	}
.Ltmp197:
	.loc	4 106 2
	{
		shl r5, r4, 4
		shr r4, r4, r0
	}
.Ltmp198:
	.loc	4 106 2
	{
		or r4, r5, r4
		nop
	}
	.loc	4 106 2
	{
		add r5, r4, r3
		nop
	}
.Ltmp199:
	.loc	4 107 2
	xor r4, r3, r11
	.loc	4 107 2
	xor r4, r4, r5
	{
		nop
		ldw r1, sp[3]
	}
	.loc	4 107 2
	{
		add r6, r1, r6
		nop
	}
.Ltmp200:
	.loc	4 107 2
	{
		add r4, r6, r4
		nop
	}
	ldw r6, cp[.LCPI2_41]
	.loc	4 107 2
	{
		add r4, r4, r6
		nop
	}
.Ltmp201:
	.loc	4 107 2
	{
		shl r6, r4, r10
		shr r4, r4, r9
	}
.Ltmp202:
	.loc	4 107 2
	{
		or r4, r6, r4
		nop
	}
	.loc	4 107 2
	{
		add r6, r4, r5
		nop
	}
.Ltmp203:
	.loc	4 108 2
	xor r4, r5, r3
	.loc	4 108 2
	xor r4, r4, r6
	{
		nop
		ldw r2, sp[16]
	}
	.loc	4 108 2
	{
		add r11, r2, r11
		nop
	}
.Ltmp204:
	.loc	4 108 2
	{
		add r11, r11, r4
		nop
	}
	ldw r4, cp[.LCPI2_42]
	.loc	4 108 2
	{
		add r11, r11, r4
		nop
	}
.Ltmp205:
	.loc	4 108 2
	{
		shl r4, r11, 16
		shr r11, r11, 16
	}
.Ltmp206:
	.loc	4 108 2
	{
		or r11, r4, r11
		nop
	}
	.loc	4 108 2
	{
		add r11, r11, r6
		nop
	}
.Ltmp207:
	.loc	4 109 2
	xor r4, r6, r5
	.loc	4 109 2
	xor r4, r4, r11
	{
		nop
		ldw r2, sp[14]
	}
	.loc	4 109 2
	{
		add r3, r2, r3
		nop
	}
.Ltmp208:
	.loc	4 109 2
	{
		add r3, r3, r4
		nop
	}
	ldw r4, cp[.LCPI2_43]
	.loc	4 109 2
	{
		add r3, r3, r4
		nop
	}
.Ltmp209:
	.loc	4 109 2
	{
		shl r4, r3, r8
		shr r3, r3, r7
	}
.Ltmp210:
	.loc	4 109 2
	{
		or r3, r4, r3
		nop
	}
	.loc	4 109 2
	{
		add r3, r3, r11
		nop
	}
.Ltmp211:
	.loc	4 110 2
	xor r4, r11, r6
	.loc	4 110 2
	xor r4, r4, r3
	{
		nop
		ldw r2, sp[8]
	}
	.loc	4 110 2
	{
		add r5, r2, r5
		nop
	}
.Ltmp212:
	.loc	4 110 2
	{
		add r4, r5, r4
		nop
	}
	ldw r5, cp[.LCPI2_44]
	.loc	4 110 2
	{
		add r4, r4, r5
		nop
	}
.Ltmp213:
	.loc	4 110 2
	{
		shl r5, r4, 4
		shr r0, r4, r0
	}
	.loc	4 110 2
	{
		or r0, r5, r0
		nop
	}
	.loc	4 110 2
	{
		add r0, r0, r3
		nop
	}
.Ltmp214:
	.loc	4 111 2
	xor r4, r3, r11
	.loc	4 111 2
	xor r4, r4, r0
	{
		nop
		ldw r2, sp[13]
	}
	.loc	4 111 2
	{
		add r5, r2, r6
		nop
	}
	.loc	4 111 2
	{
		add r4, r5, r4
		nop
	}
	ldw r5, cp[.LCPI2_45]
	.loc	4 111 2
	{
		add r4, r4, r5
		nop
	}
.Ltmp215:
	.loc	4 111 2
	{
		shl r5, r4, r10
		mov r2, r10
	}
	.loc	4 111 2
	{
		shr r4, r4, r9
		nop
	}
.Ltmp216:
	.loc	4 111 2
	{
		or r4, r5, r4
		nop
	}
	.loc	4 111 2
	{
		add r6, r4, r0
		nop
	}
.Ltmp217:
	.loc	4 112 2
	xor r4, r0, r3
	.loc	4 112 2
	xor r4, r4, r6
	{
		nop
		ldw r5, sp[10]
	}
	.loc	4 112 2
	{
		add r11, r5, r11
		nop
	}
.Ltmp218:
	.loc	4 112 2
	{
		add r11, r11, r4
		nop
	}
	ldw r4, cp[.LCPI2_46]
	.loc	4 112 2
	{
		add r11, r11, r4
		nop
	}
.Ltmp219:
	.loc	4 112 2
	{
		shl r4, r11, 16
		shr r11, r11, 16
	}
.Ltmp220:
	.loc	4 112 2
	{
		or r11, r4, r11
		nop
	}
	.loc	4 112 2
	{
		add r11, r11, r6
		nop
	}
.Ltmp221:
	.loc	4 113 2
	xor r4, r6, r0
	.loc	4 113 2
	xor r4, r4, r11
	{
		nop
		ldw r5, sp[12]
	}
	.loc	4 113 2
	{
		add r3, r5, r3
		nop
	}
.Ltmp222:
	.loc	4 113 2
	{
		add r3, r3, r4
		nop
	}
	ldw r4, cp[.LCPI2_47]
	.loc	4 113 2
	{
		add r3, r3, r4
		nop
	}
.Ltmp223:
	.loc	4 113 2
	{
		shl r4, r3, r8
		shr r3, r3, r7
	}
.Ltmp224:
	.loc	4 113 2
	{
		or r3, r4, r3
		nop
	}
.Ltmp225:
	.loc	4 113 2
	{
		add r3, r3, r11
		not r4, r6
	}
.Ltmp226:
	.loc	4 115 2
	{
		or r4, r3, r4
		nop
	}
	.loc	4 115 2
	xor r4, r4, r11
	.loc	4 115 2
	{
		add r0, r1, r0
		nop
	}
.Ltmp227:
	.loc	4 115 2
	{
		add r0, r0, r4
		nop
	}
	ldw r4, cp[.LCPI2_48]
	.loc	4 115 2
	{
		add r4, r0, r4
		nop
	}
.Ltmp228:
	.loc	4 115 2
	{
		shl r5, r4, 6
		ldc r0, 26
	}
	.loc	4 115 2
	{
		shr r4, r4, r0
		mov r7, r0
	}
.Ltmp229:
	.loc	4 115 2
	{
		or r4, r5, r4
		nop
	}
.Ltmp230:
	.loc	4 115 2
	{
		add r5, r4, r3
		not r4, r11
	}
.Ltmp231:
	.loc	4 116 2
	{
		or r4, r5, r4
		nop
	}
	.loc	4 116 2
	xor r4, r4, r3
	{
		nop
		ldw r0, sp[11]
	}
	.loc	4 116 2
	{
		add r6, r0, r6
		nop
	}
.Ltmp232:
	.loc	4 116 2
	{
		add r4, r6, r4
		nop
	}
	ldw r6, cp[.LCPI2_49]
.Ltmp233:
	.loc	4 116 2
	{
		add r4, r4, r6
		ldc r0, 10
	}
.Ltmp234:
	.loc	4 116 2
	{
		shl r6, r4, r0
		ldc r1, 22
	}
	.loc	4 116 2
	{
		shr r4, r4, r1
		nop
	}
	.loc	4 116 2
	{
		or r4, r6, r4
		nop
	}
.Ltmp235:
	.loc	4 116 2
	{
		add r6, r4, r5
		not r4, r3
	}
.Ltmp236:
	.loc	4 117 2
	{
		or r4, r6, r4
		nop
	}
	.loc	4 117 2
	xor r4, r4, r5
	{
		nop
		ldw r8, sp[4]
	}
	.loc	4 117 2
	{
		add r11, r8, r11
		nop
	}
.Ltmp237:
	.loc	4 117 2
	{
		add r11, r11, r4
		nop
	}
	ldw r4, cp[.LCPI2_50]
.Ltmp238:
	.loc	4 117 2
	{
		add r11, r11, r4
		mkmsk r10, 4
	}
.Ltmp239:
	.loc	4 117 2
	{
		shl r4, r11, r10
		ldc r9, 17
	}
	.loc	4 117 2
	{
		shr r11, r11, r9
		nop
	}
	.loc	4 117 2
	{
		or r11, r4, r11
		nop
	}
.Ltmp240:
	.loc	4 117 2
	{
		add r11, r11, r6
		not r4, r5
	}
.Ltmp241:
	.loc	4 118 2
	{
		or r4, r11, r4
		nop
	}
	.loc	4 118 2
	xor r4, r4, r6
	{
		nop
		ldw r8, sp[6]
	}
	.loc	4 118 2
	{
		add r3, r8, r3
		nop
	}
	.loc	4 118 2
	{
		add r3, r3, r4
		nop
	}
	ldw r4, cp[.LCPI2_51]
.Ltmp242:
	.loc	4 118 2
	{
		add r3, r3, r4
		ldc r8, 21
	}
.Ltmp243:
	.loc	4 118 2
	{
		shl r4, r3, r8
		shr r3, r3, r2
	}
	.loc	4 118 2
	{
		or r3, r4, r3
		nop
	}
.Ltmp244:
	.loc	4 118 2
	{
		add r3, r3, r11
		not r4, r6
	}
.Ltmp245:
	.loc	4 119 2
	{
		or r4, r3, r4
		nop
	}
	.loc	4 119 2
	xor r4, r4, r11
	{
		nop
		ldw r2, sp[13]
	}
	.loc	4 119 2
	{
		add r5, r2, r5
		nop
	}
	.loc	4 119 2
	{
		add r4, r5, r4
		nop
	}
	ldw r5, cp[.LCPI2_52]
	.loc	4 119 2
	{
		add r4, r4, r5
		nop
	}
.Ltmp246:
	.loc	4 119 2
	{
		shl r5, r4, 6
		shr r4, r4, r7
	}
.Ltmp247:
	.loc	4 119 2
	{
		or r4, r5, r4
		nop
	}
.Ltmp248:
	.loc	4 119 2
	{
		add r5, r4, r3
		not r4, r11
	}
.Ltmp249:
	.loc	4 120 2
	{
		or r4, r5, r4
		nop
	}
	.loc	4 120 2
	xor r4, r4, r3
	{
		nop
		ldw r2, sp[16]
	}
	.loc	4 120 2
	{
		add r6, r2, r6
		nop
	}
	.loc	4 120 2
	{
		add r4, r6, r4
		nop
	}
	ldw r6, cp[.LCPI2_53]
	.loc	4 120 2
	{
		add r4, r4, r6
		nop
	}
.Ltmp250:
	.loc	4 120 2
	{
		shl r6, r4, r0
		shr r4, r4, r1
	}
.Ltmp251:
	{
		mov r2, r1
		or r4, r6, r4
	}
.Ltmp252:
	.loc	4 120 2
	{
		add r6, r4, r5
		not r4, r3
	}
.Ltmp253:
	.loc	4 121 2
	{
		or r4, r6, r4
		nop
	}
	.loc	4 121 2
	xor r4, r4, r5
	{
		nop
		ldw r0, sp[5]
	}
	.loc	4 121 2
	{
		add r11, r0, r11
		nop
	}
	.loc	4 121 2
	{
		add r11, r11, r4
		nop
	}
	ldw r4, cp[.LCPI2_54]
	.loc	4 121 2
	{
		add r11, r11, r4
		nop
	}
.Ltmp254:
	.loc	4 121 2
	{
		shl r4, r11, r10
		shr r11, r11, r9
	}
.Ltmp255:
	.loc	4 121 2
	{
		or r11, r4, r11
		nop
	}
.Ltmp256:
	.loc	4 121 2
	{
		add r11, r11, r6
		not r4, r5
	}
.Ltmp257:
	.loc	4 122 2
	{
		or r4, r11, r4
		nop
	}
	.loc	4 122 2
	xor r4, r4, r6
	{
		nop
		ldw r0, sp[15]
	}
	.loc	4 122 2
	{
		add r3, r0, r3
		nop
	}
	.loc	4 122 2
	{
		add r3, r3, r4
		nop
	}
	ldw r4, cp[.LCPI2_55]
.Ltmp258:
	.loc	4 122 2
	{
		add r3, r3, r4
		mov r7, r8
	}
.Ltmp259:
	.loc	4 122 2
	{
		shl r4, r3, r7
		ldc r0, 11
	}
	.loc	4 122 2
	{
		shr r3, r3, r0
		nop
	}
	.loc	4 122 2
	{
		or r3, r4, r3
		nop
	}
.Ltmp260:
	.loc	4 122 2
	{
		add r3, r3, r11
		not r4, r6
	}
.Ltmp261:
	.loc	4 123 2
	{
		or r4, r3, r4
		nop
	}
	.loc	4 123 2
	xor r4, r4, r11
	{
		nop
		ldw r8, sp[2]
	}
	.loc	4 123 2
	{
		add r5, r8, r5
		nop
	}
	.loc	4 123 2
	{
		add r4, r5, r4
		nop
	}
	ldw r5, cp[.LCPI2_56]
	.loc	4 123 2
	{
		add r4, r4, r5
		nop
	}
.Ltmp262:
	.loc	4 123 2
	{
		shl r5, r4, 6
		ldc r1, 26
	}
	.loc	4 123 2
	{
		shr r4, r4, r1
		nop
	}
.Ltmp263:
	.loc	4 123 2
	{
		or r4, r5, r4
		nop
	}
.Ltmp264:
	.loc	4 123 2
	{
		add r5, r4, r3
		not r4, r11
	}
.Ltmp265:
	.loc	4 124 2
	{
		or r4, r5, r4
		nop
	}
	.loc	4 124 2
	xor r4, r4, r3
	{
		nop
		ldw r8, sp[10]
	}
	.loc	4 124 2
	{
		add r6, r8, r6
		nop
	}
	.loc	4 124 2
	{
		add r4, r6, r4
		nop
	}
	ldw r6, cp[.LCPI2_57]
.Ltmp266:
	.loc	4 124 2
	{
		add r4, r4, r6
		ldc r10, 10
	}
.Ltmp267:
	.loc	4 124 2
	{
		shl r6, r4, r10
		shr r4, r4, r2
	}
	.loc	4 124 2
	{
		or r4, r6, r4
		nop
	}
.Ltmp268:
	.loc	4 124 2
	{
		add r6, r4, r5
		not r4, r3
	}
.Ltmp269:
	.loc	4 125 2
	{
		or r4, r6, r4
		nop
	}
	.loc	4 125 2
	xor r4, r4, r5
	{
		nop
		ldw r8, sp[14]
	}
	.loc	4 125 2
	{
		add r11, r8, r11
		nop
	}
	.loc	4 125 2
	{
		add r11, r11, r4
		nop
	}
	ldw r4, cp[.LCPI2_58]
.Ltmp270:
	.loc	4 125 2
	{
		add r11, r11, r4
		mkmsk r4, 4
	}
.Ltmp271:
	.loc	4 125 2
	{
		shl r4, r11, r4
		shr r11, r11, r9
	}
	.loc	4 125 2
	{
		or r11, r4, r11
		nop
	}
.Ltmp272:
	.loc	4 125 2
	{
		add r11, r11, r6
		not r4, r5
	}
.Ltmp273:
	.loc	4 126 2
	{
		or r4, r11, r4
		nop
	}
	.loc	4 126 2
	xor r4, r4, r6
	{
		nop
		ldw r8, sp[7]
	}
	.loc	4 126 2
	{
		add r3, r8, r3
		nop
	}
	.loc	4 126 2
	{
		add r3, r3, r4
		nop
	}
	ldw r4, cp[.LCPI2_59]
	.loc	4 126 2
	{
		add r3, r3, r4
		nop
	}
.Ltmp274:
	.loc	4 126 2
	{
		shl r4, r3, r7
		mov r8, r7
	}
	.loc	4 126 2
	{
		shr r3, r3, r0
		mov r7, r0
	}
.Ltmp275:
	.loc	4 126 2
	{
		or r3, r4, r3
		nop
	}
.Ltmp276:
	.loc	4 126 2
	{
		add r3, r3, r11
		not r4, r6
	}
.Ltmp277:
	.loc	4 127 2
	{
		or r4, r3, r4
		nop
	}
	.loc	4 127 2
	xor r4, r4, r11
	{
		nop
		ldw r0, sp[9]
	}
	.loc	4 127 2
	{
		add r5, r0, r5
		nop
	}
	.loc	4 127 2
	{
		add r4, r5, r4
		nop
	}
	ldw r5, cp[.LCPI2_60]
	.loc	4 127 2
	{
		add r4, r4, r5
		nop
	}
.Ltmp278:
	.loc	4 127 2
	{
		shl r5, r4, 6
		shr r0, r4, r1
	}
	.loc	4 127 2
	{
		or r0, r5, r0
		nop
	}
.Ltmp279:
	.loc	4 127 2
	{
		add r0, r0, r3
		not r4, r11
	}
.Ltmp280:
	.loc	4 128 2
	{
		or r4, r0, r4
		nop
	}
	.loc	4 128 2
	xor r4, r4, r3
	{
		nop
		ldw r5, sp[17]
	}
	.loc	4 128 2
	{
		add r5, r5, r6
		nop
	}
	.loc	4 128 2
	{
		add r4, r5, r4
		nop
	}
	ldw r5, cp[.LCPI2_61]
	.loc	4 128 2
	{
		add r4, r4, r5
		nop
	}
.Ltmp281:
	.loc	4 128 2
	{
		shl r5, r4, r10
		shr r4, r4, r2
	}
.Ltmp282:
	.loc	4 128 2
	{
		or r4, r5, r4
		nop
	}
.Ltmp283:
	.loc	4 128 2
	{
		add r5, r4, r0
		not r4, r3
	}
.Ltmp284:
	.loc	4 129 2
	{
		or r4, r5, r4
		nop
	}
	.loc	4 129 2
	xor r4, r4, r0
	{
		nop
		ldw r1, sp[12]
	}
	.loc	4 129 2
	{
		add r11, r1, r11
		nop
	}
	.loc	4 129 2
	{
		add r11, r11, r4
		nop
	}
	ldw r4, cp[.LCPI2_62]
.Ltmp285:
	.loc	4 129 2
	{
		add r11, r11, r4
		mkmsk r1, 4
	}
.Ltmp286:
	.loc	4 129 2
	{
		shl r4, r11, r1
		shr r11, r11, r9
	}
	.loc	4 129 2
	{
		or r11, r4, r11
		nop
	}
.Ltmp287:
	.loc	4 129 2
	{
		add r11, r11, r5
		not r4, r0
	}
.Ltmp288:
	.loc	4 130 2
	{
		or r4, r11, r4
		nop
	}
	.loc	4 130 2
	xor r4, r4, r5
	{
		nop
		ldw r1, sp[8]
	}
	.loc	4 130 2
	{
		add r3, r1, r3
		nop
	}
	.loc	4 130 2
	{
		add r3, r3, r4
		nop
	}
	ldw r4, cp[.LCPI2_63]
	.loc	4 130 2
	{
		add r3, r3, r4
		nop
	}
.Ltmp289:
	.loc	4 130 2
	{
		shl r2, r3, r8
		shr r1, r3, r7
	}
	.loc	4 130 2
	{
		or r1, r2, r1
		ldw r2, sp[1]
	}
.Ltmp290:
	.loc	4 132 2
	{
		add r0, r0, r2
		ldw r2, sp[0]
	}
.Ltmp291:
	{
		nop
		stw r0, r2[0]
	}
	{
		nop
		ldw r0, r2[1]
	}
	.loc	4 130 2
	{
		add r0, r11, r0
		nop
	}
.Ltmp292:
	.loc	4 133 2
	{
		add r0, r0, r1
		nop
	}
.Ltmp293:
	{
		nop
		stw r0, r2[1]
	}
	{
		nop
		ldw r0, r2[2]
	}
	.loc	4 134 2
	{
		add r0, r11, r0
		nop
	}
	{
		nop
		stw r0, r2[2]
	}
	{
		nop
		ldw r0, r2[3]
	}
	.loc	4 135 2
	{
		add r0, r5, r0
		nop
	}
	{
		nop
		stw r0, r2[3]
	}
	{
		nop
		ldw r10, sp[24]
	}
	.loc	4 136 1
	ldd r9, r8, sp[11]
	ldd r7, r6, sp[10]
	ldd r5, r4, sp[9]
	{
		nop
		retsp 26
	}
	# RETURN_REG_HOLDER
.Ltmp294:
	.cc_bottom FLAC__MD5Transform.function
	.set	FLAC__MD5Transform.nstackwords,26
	.set	FLAC__MD5Transform.maxcores,1
	.set	FLAC__MD5Transform.maxtimers,0
	.set	FLAC__MD5Transform.maxchanends,0
.Ltmp295:
	.size	FLAC__MD5Transform, .Ltmp295-FLAC__MD5Transform
.Lfunc_end2:
	.cfi_endproc

	.section	.cp.rodata.cst4,"aMc",@progbits,4
	.cc_top .LCPI3_0.data,.LCPI3_0
	.align	4
	.type	.LCPI3_0,@object
	.size	.LCPI3_0, 4
.LCPI3_0:
	.long	4294966895
	.cc_bottom .LCPI3_0.data
	.cc_top .LCPI3_1.data,.LCPI3_1
	.align	4
	.type	.LCPI3_1,@object
	.size	.LCPI3_1, 4
.LCPI3_1:
	.long	4294967095
	.cc_bottom .LCPI3_1.data
	.cc_top .LCPI3_2.data,.LCPI3_2
	.align	4
	.type	.LCPI3_2,@object
	.size	.LCPI3_2, 4
.LCPI3_2:
	.long	4294967195
	.cc_bottom .LCPI3_2.data
	.cc_top .LCPI3_3.data,.LCPI3_3
	.align	4
	.type	.LCPI3_3,@object
	.size	.LCPI3_3, 4
.LCPI3_3:
	.long	4294967168
	.cc_bottom .LCPI3_3.data
	.cc_top .LCPI3_4.data,.LCPI3_4
	.align	4
	.type	.LCPI3_4,@object
	.size	.LCPI3_4, 4
.LCPI3_4:
	.long	4294967232
	.cc_bottom .LCPI3_4.data
	.text
	.globl	FLAC__MD5Accumulate
	.align	4
	.type	FLAC__MD5Accumulate,@function
	.cc_top FLAC__MD5Accumulate.function,FLAC__MD5Accumulate
FLAC__MD5Accumulate:
.Lfunc_begin3:
	.loc	4 493 0
	.cfi_startproc
	.issue_mode dual
	{
		nop
		dualentsp 14
	}
.Ltmp296:
	.cfi_def_cfa_offset 56
.Ltmp297:
	.cfi_offset 15, 0
	std r5, r4, sp[3]
.Ltmp298:
	.cfi_offset 4, -32
.Ltmp299:
	.cfi_offset 5, -28
	std r7, r6, sp[4]
.Ltmp300:
	.cfi_offset 6, -24
.Ltmp301:
	.cfi_offset 7, -20
	std r9, r8, sp[5]
.Ltmp302:
	.cfi_offset 8, -16
.Ltmp303:
	.cfi_offset 9, -12
.Ltmp304:
	.cfi_offset 10, -8
.Ltmp305:
	{
		mov r6, r3
		stw r10, sp[12]
	}
.Ltmp306:
	{
		mov r9, r2
		mov r8, r1
	}
.Ltmp307:
	{
		mov r3, r0
		ldw r5, sp[15]
	}
.Ltmp308:
	{
		mkmsk r1, 32
		nop
	}
	.loc	4 497 6 prologue_end
.Ltmp309:
	divu r0, r1, r5
	.loc	4 497 6
	{
		lsu r2, r0, r9
		ldc r0, 0
	}
	bt r2, .LBB3_110
.Ltmp310:
	.loc	4 499 6
	mul r2, r5, r9
	.loc	4 499 6
	divu r1, r1, r6
	.loc	4 499 6
	{
		lsu r1, r1, r2
		nop
	}
	bt r1, .LBB3_110
.Ltmp311:
	.loc	4 494 2
	mul r0, r6, r9
	.loc	4 494 2
	mul r11, r0, r5
.Ltmp312:
	ldc r0, 92
	.loc	4 502 6
.Ltmp313:
	{
		add r4, r3, r0
		nop
	}
	{
		nop
		ldw r0, r4[0]
	}
	ldc r1, 88
	.loc	4 503 36
.Ltmp314:
	{
		add r1, r3, r1
		nop
	}
	{
		nop
		stw r1, sp[4]
	}
	{
		nop
		stw r3, sp[3]
	}
.Ltmp315:
	.loc	4 503 36
	{
		lsu r0, r0, r11
		ldw r10, r1[0]
	}
.Ltmp316:
	.loc	4 502 6
	bf r0, .LBB3_3
.Ltmp317:
	{
		mov r0, r10
		stw r6, sp[5]
	}
.Ltmp318:
	.file	5 "C:/Users/takaaki/git/sw_xSSDAC/module_libFLAC/source/share\\alloc.h"
	.loc	5 206 17
	{
		mov r1, r11
		mov r6, r11
	}
.Ltmp319:
	bl realloc
.Ltmp320:
	{
		mov r11, r6
		mov r7, r0
	}
.Ltmp321:
	bf r11, .LBB3_7
.Ltmp322:
	bt r7, .LBB3_7
.Ltmp323:
	.loc	5 208 3
	{
		mov r0, r10
		mov r6, r11
	}
.Ltmp324:
	bl free
	{
		mov r11, r6
		nop
	}
.Ltmp325:
.LBB3_7:
	{
		nop
		ldw r10, sp[4]
	}
	{
		nop
		stw r7, r10[0]
	}
	{
		nop
		ldw r6, sp[5]
	}
.Ltmp326:
	bt r7, .LBB3_10
.Ltmp327:
	.loc	5 93 5
	{
		eq r0, r11, 0
		nop
	}
.Ltmp328:
	.loc	5 93 5
	{
		add r0, r0, r11
		mov r7, r6
	}
.Ltmp329:
	{
		mov r6, r11
		nop
	}
.Ltmp330:
	.loc	5 95 9
	bl malloc
.Ltmp331:
	{
		mov r11, r6
		mov r6, r7
	}
.Ltmp332:
	{
		mov r7, r0
		nop
	}
	{
		nop
		stw r7, r10[0]
	}
	bf r7, .LBB3_9
.Ltmp333:
.LBB3_10:
	{
		nop
		stw r11, r4[0]
	}
	bu .LBB3_11
.Ltmp334:
.LBB3_3:
	{
		mov r7, r10
		nop
	}
.Ltmp335:
.LBB3_11:
	ldc r0, 100
	.loc	4 288 2
.Ltmp336:
	mul r0, r5, r0
	.loc	4 288 2
	{
		add r0, r0, r9
		nop
	}
	ldc r1, 400
	.loc	4 288 2
	{
		lss r1, r1, r0
		nop
	}
	bt r1, .LBB3_23
.Ltmp337:
	ldc r1, 300
	{
		lss r1, r1, r0
		nop
	}
	bt r1, .LBB3_18
.Ltmp338:
	ldc r1, 200
	{
		lss r1, r1, r0
		nop
	}
	bt r1, .LBB3_16
.Ltmp339:
	ldw r1, cp[.LCPI3_2]
	{
		add r1, r0, r1
		mkmsk r0, 3
	}
	{
		lsu r2, r0, r1
		nop
	}
	bt r2, .LBB3_77
.Ltmp340:

	.xtabranch .Ljumptable0+4,.Ljumptable0+8,.Ljumptable0+12,.Ljumptable0+16,.Ljumptable0+20,.Ljumptable0+24,.Ljumptable0+28,.Ljumptable0+32
.Ljumptable0:
		
	{
		nop
		bru r1
	}
	.jmptable32 .LBB3_74,.LBB3_71,.LBB3_77,.LBB3_68,.LBB3_77,.LBB3_65,.LBB3_77,.LBB3_62
.Ltmp341:
.LBB3_74:
	{
		nop
		stw r11, sp[2]
	}
.Ltmp342:
	bf r6, .LBB3_28
.Ltmp343:
	{
		ldc r0, 0
		nop
	}
.Ltmp344:
.LBB3_76:
	{
		nop
		ldw r1, r8[0]
	}
	{
		nop
		ldw r1, r1[r0]
	}
	.loc	4 292 5
.Ltmp345:
	st8 r1, r7[r0]
	.loc	4 291 39
	{
		add r0, r0, 1
		nop
	}
.Ltmp346:
	.loc	4 291 4
	{
		eq r1, r6, r0
		nop
	}
	bf r1, .LBB3_76
	bu .LBB3_28
.Ltmp347:
.LBB3_23:
	ldw r1, cp[.LCPI3_0]
	{
		add r0, r0, r1
		mkmsk r1, 3
	}
	{
		lsu r1, r1, r0
		nop
	}
	bt r1, .LBB3_77
.Ltmp348:

	.xtabranch .Ljumptable1+4,.Ljumptable1+8,.Ljumptable1+12,.Ljumptable1+16,.Ljumptable1+20,.Ljumptable1+24,.Ljumptable1+28,.Ljumptable1+32
.Ljumptable1:
		
	{
		nop
		bru r0
	}
	.jmptable32 .LBB3_41,.LBB3_38,.LBB3_77,.LBB3_35,.LBB3_77,.LBB3_32,.LBB3_77,.LBB3_25
.Ltmp349:
.LBB3_41:
	{
		nop
		stw r11, sp[2]
	}
.Ltmp350:
	bf r6, .LBB3_28
.Ltmp351:
	{
		nop
		ldw r0, r8[0]
	}
.Ltmp352:
.LBB3_43:
	.loc	4 407 5
	{
		add r2, r7, 4
		ldw r1, r0[0]
	}
.Ltmp353:
	.loc	4 407 5
	{
		sub r6, r6, 1
		stw r1, r7[0]
	}
.Ltmp354:
	.loc	4 406 4
	{
		add r0, r0, 4
		mov r7, r2
	}
.Ltmp355:
	bt r6, .LBB3_43
	bu .LBB3_28
.Ltmp356:
.LBB3_18:
	ldc r1, 301
	{
		eq r1, r0, r1
		nop
	}
	bf r1, .LBB3_19
.Ltmp357:
	{
		nop
		stw r11, sp[2]
	}
.Ltmp358:
	bf r6, .LBB3_28
.Ltmp359:
	{
		ldc r0, 0
		ldc r1, 0
	}
	{
		mkmsk r2, 1
		ldc r3, 2
	}
.Ltmp360:
.LBB3_46:
	{
		nop
		ldw r11, r8[0]
	}
	{
		nop
		ldw r11, r11[r0]
	}
.Ltmp361:
	.loc	4 385 5
	st8 r11, r7[r1]
	.loc	4 385 35
	{
		shr r4, r11, 8
		nop
	}
	.loc	4 386 5
	st8 r4, r7[r2]
	.loc	4 386 35
	{
		shr r11, r11, 16
		nop
	}
.Ltmp362:
	.loc	4 387 5
	st8 r11, r7[r3]
.Ltmp363:
	.loc	4 383 39
	{
		add r0, r0, 1
		nop
	}
.Ltmp364:
	.loc	4 383 4
	{
		eq r11, r6, r0
		add r7, r7, 3
	}
	bf r11, .LBB3_46
	bu .LBB3_28
.Ltmp365:
.LBB3_16:
	ldw r1, cp[.LCPI3_1]
	{
		add r0, r0, r1
		mkmsk r1, 3
	}
	{
		lsu r1, r1, r0
		nop
	}
	bt r1, .LBB3_77
.Ltmp366:

	.xtabranch .Ljumptable2+4,.Ljumptable2+8,.Ljumptable2+12,.Ljumptable2+16,.Ljumptable2+20,.Ljumptable2+24,.Ljumptable2+28,.Ljumptable2+32
.Ljumptable2:
		
	{
		nop
		bru r0
	}
	.jmptable32 .LBB3_59,.LBB3_56,.LBB3_77,.LBB3_53,.LBB3_77,.LBB3_50,.LBB3_77,.LBB3_47
.Ltmp367:
.LBB3_59:
	{
		nop
		stw r11, sp[2]
	}
.Ltmp368:
	bf r6, .LBB3_28
.Ltmp369:
	.loc	4 338 5
	{
		ldc r1, 0
		ldw r0, r8[0]
	}
.Ltmp370:
.LBB3_61:
	.loc	4 338 5
	{
		add r3, r7, 2
		ldw r2, r0[0]
	}
.Ltmp371:
	.loc	4 338 5
	st16 r2, r7[r1]
	.loc	4 337 4
	{
		sub r6, r6, 1
		add r0, r0, 4
	}
.Ltmp372:
	.loc	4 512 2
	{
		mov r7, r3
		nop
	}
.Ltmp373:
	bt r6, .LBB3_61
	bu .LBB3_28
.Ltmp374:
.LBB3_19:
	ldc r1, 302
	{
		eq r0, r0, r1
		nop
	}
	bf r0, .LBB3_77
.Ltmp375:
	{
		nop
		stw r11, sp[2]
	}
.Ltmp376:
	bf r6, .LBB3_28
.Ltmp377:
	{
		ldc r0, 0
		mkmsk r1, 1
	}
	{
		ldc r2, 2
		mkmsk r3, 2
	}
	{
		ldc r11, 4
		ldc r4, 5
	}
	{
		mov r5, r0
		nop
	}
.Ltmp378:
.LBB3_22:
	{
		nop
		ldw r9, r8[0]
	}
	{
		nop
		ldw r9, r9[r5]
	}
.Ltmp379:
	.loc	4 394 5
	st8 r9, r7[r0]
	.loc	4 394 35
	{
		shr r10, r9, 8
		nop
	}
	.loc	4 395 5
	st8 r10, r7[r1]
	.loc	4 395 35
	{
		shr r9, r9, 16
		nop
	}
.Ltmp380:
	.loc	4 396 5
	st8 r9, r7[r2]
	{
		nop
		ldw r9, r8[1]
	}
	{
		nop
		ldw r9, r9[r5]
	}
.Ltmp381:
	.loc	4 398 5
	st8 r9, r7[r3]
	.loc	4 398 35
	{
		shr r10, r9, 8
		nop
	}
	.loc	4 399 5
	st8 r10, r7[r11]
	.loc	4 399 35
	{
		shr r9, r9, 16
		nop
	}
.Ltmp382:
	.loc	4 400 5
	st8 r9, r7[r4]
.Ltmp383:
	.loc	4 392 39
	{
		add r5, r5, 1
		nop
	}
.Ltmp384:
	.loc	4 392 4
	{
		eq r9, r6, r5
		add r7, r7, 6
	}
	bf r9, .LBB3_22
	bu .LBB3_28
.Ltmp385:
.LBB3_77:
	{
		sub r0, r5, 1
		stw r11, sp[2]
	}
	{
		mkmsk r1, 2
		nop
	}
	.loc	4 455 2
	{
		lsu r1, r1, r0
		nop
	}
	bt r1, .LBB3_28
.Ltmp386:

	.xtabranch .Ljumptable3+4,.Ljumptable3+8,.Ljumptable3+12,.Ljumptable3+16
.Ljumptable3:
		
	{
		nop
		bru r0
	}
	.jmptable32 .LBB3_98,.LBB3_92,.LBB3_86,.LBB3_79
.Ltmp387:
.LBB3_98:
	bf r6, .LBB3_28
.Ltmp388:
	bf r9, .LBB3_28
.Ltmp389:
	{
		ldc r0, 0
		ldc r1, 0
	}
	.loc	4 512 2
	{
		mov r2, r1
		nop
	}
	bu .LBB3_101
.Ltmp390:
.LBB3_103:
	{
		mov r2, r1
		nop
	}
.Ltmp391:
.LBB3_101:
	{
		nop
		ldw r3, r8[r2]
	}
	{
		nop
		ldw r3, r3[r0]
	}
	.loc	4 459 6
.Ltmp392:
	st8 r3, r7[r2]
	.loc	4 458 43
	{
		add r2, r2, 1
		nop
	}
.Ltmp393:
	.loc	4 458 5
	{
		eq r3, r9, r2
		nop
	}
	.loc	4 458 5
	bf r3, .LBB3_101
.Ltmp394:
	.loc	4 512 2
	{
		add r7, r7, r9
		add r0, r0, 1
	}
.Ltmp395:
	.loc	4 457 4
	{
		eq r2, r0, r6
		nop
	}
	bf r2, .LBB3_103
	bu .LBB3_28
.Ltmp396:
.LBB3_9:
	{
		ldc r0, 0
		nop
	}
	{
		nop
		stw r0, r4[0]
	}
	bu .LBB3_110
.LBB3_92:
.Ltmp397:
	bf r6, .LBB3_28
.Ltmp398:
	bf r9, .LBB3_28
.Ltmp399:
	.loc	4 464 5
	{
		shl r0, r9, 1
		ldc r1, 0
	}
.Ltmp400:
	.loc	4 512 2
	{
		mov r2, r1
		mov r3, r1
	}
	bu .LBB3_95
.Ltmp401:
.LBB3_97:
	{
		mov r3, r1
		nop
	}
.Ltmp402:
.LBB3_95:
	{
		nop
		ldw r11, r8[r3]
	}
	{
		nop
		ldw r11, r11[r2]
	}
	.loc	4 465 6
.Ltmp403:
	st16 r11, r7[r3]
	.loc	4 464 43
	{
		add r3, r3, 1
		nop
	}
.Ltmp404:
	.loc	4 464 5
	{
		eq r11, r9, r3
		nop
	}
	.loc	4 464 5
	bf r11, .LBB3_95
.Ltmp405:
	.loc	4 463 39
	{
		add r2, r2, 1
		add r7, r7, r0
	}
.Ltmp406:
	.loc	4 463 4
	{
		eq r3, r2, r6
		nop
	}
	bf r3, .LBB3_97
	bu .LBB3_28
.Ltmp407:
.LBB3_86:
	bf r6, .LBB3_28
.Ltmp408:
	bf r9, .LBB3_28
.Ltmp409:
	.loc	4 469 4
	lda16 r0, r9[r9]
	{
		ldc r11, 0
		stw r0, sp[1]
	}
	{
		mkmsk r2, 1
		ldc r3, 2
	}
.Ltmp410:
.LBB3_91:
	{
		ldc r4, 0
		stw r6, sp[5]
	}
	{
		mov r5, r8
		mov r10, r9
	}
.Ltmp411:
.LBB3_89:
	{
		nop
		ldw r1, r5[0]
	}
.Ltmp412:
	.loc	4 471 6
	{
		add r0, r7, r4
		ldw r1, r1[r11]
	}
.Ltmp413:
	.loc	4 472 6
	st8 r1, r7[r4]
	.loc	4 472 36
	{
		shr r6, r1, 8
		nop
	}
	.loc	4 473 6
	st8 r6, r0[r2]
	.loc	4 473 36
	{
		shr r1, r1, 16
		nop
	}
	.loc	4 474 6
	st8 r1, r0[r3]
.Ltmp414:
	.loc	4 470 5
	{
		sub r10, r10, 1
		add r5, r5, 4
	}
	.loc	4 470 5
	{
		add r4, r4, 3
		nop
	}
	.loc	4 470 5
	bt r10, .LBB3_89
.Ltmp415:
	{
		nop
		ldw r0, sp[1]
	}
.Ltmp416:
	.loc	4 512 2
	{
		add r7, r7, r0
		add r11, r11, 1
	}
.Ltmp417:
	{
		nop
		ldw r6, sp[5]
	}
.Ltmp418:
	.loc	4 469 4
	{
		eq r4, r11, r6
		nop
	}
	bf r4, .LBB3_91
	bu .LBB3_28
.Ltmp419:
.LBB3_79:
	bf r6, .LBB3_28
.Ltmp420:
	bf r9, .LBB3_85
.Ltmp421:
	.loc	4 481 6
	{
		shl r0, r9, 2
		ldc r1, 0
	}
.Ltmp422:
	.loc	4 512 2
	{
		mov r2, r1
		nop
	}
.Ltmp423:
.LBB3_82:
	{
		mov r3, r1
		nop
	}
.Ltmp424:
.LBB3_83:
	{
		nop
		ldw r11, r8[r3]
	}
	{
		nop
		ldw r11, r11[r2]
	}
	.loc	4 481 6
.Ltmp425:
	stw r11, r7[r3]
	.loc	4 480 43
	{
		add r3, r3, 1
		nop
	}
.Ltmp426:
	.loc	4 480 5
	{
		eq r11, r9, r3
		nop
	}
	bf r11, .LBB3_83
.Ltmp427:
	.loc	4 479 39
	{
		add r2, r2, 1
		add r7, r7, r0
	}
.Ltmp428:
	.loc	4 479 4
	{
		eq r3, r2, r6
		nop
	}
	bf r3, .LBB3_82
	bu .LBB3_28
.Ltmp429:
.LBB3_85:
	.loc	4 479 4
	{
		sub r6, r6, 1
		nop
	}
	bt r6, .LBB3_85
	bu .LBB3_28
.Ltmp430:
.LBB3_38:
	{
		nop
		stw r11, sp[2]
	}
.Ltmp431:
	bf r6, .LBB3_28
.Ltmp432:
	{
		nop
		ldw r0, r8[0]
	}
	{
		nop
		ldw r1, r8[1]
	}
.Ltmp433:
.LBB3_40:
	{
		nop
		ldw r2, r0[0]
	}
	{
		nop
		stw r2, r7[0]
	}
	{
		nop
		ldw r2, r1[0]
	}
	.loc	4 413 5
.Ltmp434:
	{
		sub r6, r6, 1
		stw r2, r7[1]
	}
.Ltmp435:
	.loc	4 411 4
	{
		add r1, r1, 4
		add r0, r0, 4
	}
	{
		add r7, r7, 8
		nop
	}
	bt r6, .LBB3_40
	bu .LBB3_28
.Ltmp436:
.LBB3_35:
	{
		nop
		stw r11, sp[2]
	}
.Ltmp437:
	bf r6, .LBB3_28
.Ltmp438:
	{
		nop
		ldw r0, r8[0]
	}
	{
		nop
		ldw r1, r8[1]
	}
	{
		nop
		ldw r2, r8[2]
	}
	{
		nop
		ldw r3, r8[3]
	}
.Ltmp439:
.LBB3_37:
	{
		nop
		ldw r11, r0[0]
	}
	{
		nop
		stw r11, r7[0]
	}
	{
		nop
		ldw r11, r1[0]
	}
	{
		nop
		stw r11, r7[1]
	}
	{
		nop
		ldw r11, r2[0]
	}
	{
		nop
		stw r11, r7[2]
	}
	{
		nop
		ldw r11, r3[0]
	}
	.loc	4 422 5
.Ltmp440:
	{
		sub r6, r6, 1
		stw r11, r7[3]
	}
.Ltmp441:
	.loc	4 418 4
	{
		add r3, r3, 4
		add r2, r2, 4
	}
	.loc	4 418 4
	{
		add r1, r1, 4
		add r0, r0, 4
	}
	ldaw r7, r7[4]
	bt r6, .LBB3_37
	bu .LBB3_28
.Ltmp442:
.LBB3_32:
	{
		nop
		stw r11, sp[2]
	}
.Ltmp443:
	bf r6, .LBB3_28
.Ltmp444:
	{
		nop
		ldw r0, r8[0]
	}
	{
		nop
		ldw r1, r8[1]
	}
	{
		nop
		ldw r2, r8[2]
	}
	{
		nop
		ldw r3, r8[3]
	}
	{
		nop
		ldw r11, r8[4]
	}
	{
		nop
		ldw r5, r8[5]
	}
.Ltmp445:
.LBB3_34:
	{
		nop
		ldw r4, r0[0]
	}
	{
		nop
		stw r4, r7[0]
	}
	{
		nop
		ldw r4, r1[0]
	}
	{
		nop
		stw r4, r7[1]
	}
	{
		nop
		ldw r4, r2[0]
	}
	{
		nop
		stw r4, r7[2]
	}
	{
		nop
		ldw r4, r3[0]
	}
	{
		nop
		stw r4, r7[3]
	}
	{
		nop
		ldw r4, r11[0]
	}
	{
		nop
		stw r4, r7[4]
	}
	{
		nop
		ldw r4, r5[0]
	}
	.loc	4 433 5
.Ltmp446:
	{
		sub r6, r6, 1
		stw r4, r7[5]
	}
.Ltmp447:
	.loc	4 427 4
	{
		add r5, r5, 4
		add r11, r11, 4
	}
	.loc	4 427 4
	{
		add r3, r3, 4
		add r2, r2, 4
	}
	.loc	4 427 4
	{
		add r1, r1, 4
		add r0, r0, 4
	}
	ldaw r7, r7[6]
	bt r6, .LBB3_34
	bu .LBB3_28
.Ltmp448:
.LBB3_25:
	{
		nop
		stw r11, sp[2]
	}
.Ltmp449:
	bf r6, .LBB3_28
.Ltmp450:
	{
		nop
		ldw r0, r8[0]
	}
.Ltmp451:
	{
		nop
		ldw r1, r8[1]
	}
	{
		nop
		ldw r2, r8[2]
	}
	{
		nop
		ldw r3, r8[3]
	}
	{
		nop
		ldw r11, r8[4]
	}
	{
		nop
		ldw r5, r8[5]
	}
	{
		nop
		ldw r9, r8[6]
	}
	{
		nop
		ldw r8, r8[7]
	}
.Ltmp452:
.LBB3_27:
	{
		nop
		ldw r4, r0[0]
	}
	{
		nop
		stw r4, r7[0]
	}
	{
		nop
		ldw r4, r1[0]
	}
	{
		nop
		stw r4, r7[1]
	}
	{
		nop
		ldw r4, r2[0]
	}
	{
		nop
		stw r4, r7[2]
	}
	{
		nop
		ldw r4, r3[0]
	}
	{
		nop
		stw r4, r7[3]
	}
	{
		nop
		ldw r4, r11[0]
	}
	{
		nop
		stw r4, r7[4]
	}
	{
		nop
		ldw r4, r5[0]
	}
	{
		nop
		stw r4, r7[5]
	}
	{
		nop
		ldw r4, r9[0]
	}
	{
		nop
		stw r4, r7[6]
	}
	{
		nop
		ldw r4, r8[0]
	}
	.loc	4 446 5
.Ltmp453:
	{
		sub r6, r6, 1
		stw r4, r7[7]
	}
.Ltmp454:
	.loc	4 438 4
	{
		add r8, r8, 4
		add r9, r9, 4
	}
	.loc	4 438 4
	{
		add r5, r5, 4
		add r11, r11, 4
	}
	.loc	4 438 4
	{
		add r3, r3, 4
		add r2, r2, 4
	}
	.loc	4 438 4
	{
		add r1, r1, 4
		add r0, r0, 4
	}
	ldaw r7, r7[8]
	bt r6, .LBB3_27
	bu .LBB3_28
.Ltmp455:
.LBB3_71:
	{
		nop
		stw r11, sp[2]
	}
.Ltmp456:
	bf r6, .LBB3_28
.Ltmp457:
	{
		ldc r0, 0
		mkmsk r1, 1
	}
	.loc	4 512 2
	{
		mov r2, r0
		nop
	}
.Ltmp458:
.LBB3_73:
	{
		nop
		ldw r3, r8[0]
	}
	{
		nop
		ldw r3, r3[r2]
	}
	.loc	4 297 5
.Ltmp459:
	st8 r3, r7[r0]
	{
		nop
		ldw r3, r8[1]
	}
	{
		nop
		ldw r3, r3[r2]
	}
	.loc	4 298 5
	st8 r3, r7[r1]
.Ltmp460:
	.loc	4 296 39
	{
		add r2, r2, 1
		nop
	}
.Ltmp461:
	.loc	4 296 4
	{
		eq r3, r6, r2
		add r7, r7, 2
	}
	bf r3, .LBB3_73
	bu .LBB3_28
.Ltmp462:
.LBB3_68:
	{
		nop
		stw r11, sp[2]
	}
.Ltmp463:
	bf r6, .LBB3_28
.Ltmp464:
	{
		ldc r0, 0
		mkmsk r1, 1
	}
	{
		ldc r2, 2
		mkmsk r3, 2
	}
	.loc	4 512 2
	{
		mov r11, r0
		nop
	}
.Ltmp465:
.LBB3_70:
	{
		nop
		ldw r4, r8[0]
	}
	{
		nop
		ldw r4, r4[r11]
	}
	.loc	4 304 5
.Ltmp466:
	st8 r4, r7[r0]
	{
		nop
		ldw r4, r8[1]
	}
	{
		nop
		ldw r4, r4[r11]
	}
	.loc	4 305 5
	st8 r4, r7[r1]
	{
		nop
		ldw r4, r8[2]
	}
	{
		nop
		ldw r4, r4[r11]
	}
	.loc	4 306 5
	st8 r4, r7[r2]
	{
		nop
		ldw r4, r8[3]
	}
	{
		nop
		ldw r4, r4[r11]
	}
	.loc	4 307 5
	st8 r4, r7[r3]
.Ltmp467:
	.loc	4 303 39
	{
		add r11, r11, 1
		nop
	}
.Ltmp468:
	.loc	4 303 4
	{
		eq r4, r6, r11
		add r7, r7, 4
	}
	bf r4, .LBB3_70
	bu .LBB3_28
.Ltmp469:
.LBB3_65:
	{
		nop
		stw r11, sp[2]
	}
.Ltmp470:
	bf r6, .LBB3_28
.Ltmp471:
	{
		ldc r0, 0
		mkmsk r1, 1
	}
	{
		ldc r2, 2
		mkmsk r3, 2
	}
	{
		ldc r11, 4
		ldc r4, 5
	}
	.loc	4 512 2
	{
		mov r5, r0
		nop
	}
.Ltmp472:
.LBB3_67:
	{
		nop
		ldw r9, r8[0]
	}
	{
		nop
		ldw r9, r9[r5]
	}
	.loc	4 313 5
.Ltmp473:
	st8 r9, r7[r0]
	{
		nop
		ldw r9, r8[1]
	}
	{
		nop
		ldw r9, r9[r5]
	}
	.loc	4 314 5
	st8 r9, r7[r1]
	{
		nop
		ldw r9, r8[2]
	}
	{
		nop
		ldw r9, r9[r5]
	}
	.loc	4 315 5
	st8 r9, r7[r2]
	{
		nop
		ldw r9, r8[3]
	}
	{
		nop
		ldw r9, r9[r5]
	}
	.loc	4 316 5
	st8 r9, r7[r3]
	{
		nop
		ldw r9, r8[4]
	}
	{
		nop
		ldw r9, r9[r5]
	}
	.loc	4 317 5
	st8 r9, r7[r11]
	{
		nop
		ldw r9, r8[5]
	}
	{
		nop
		ldw r9, r9[r5]
	}
	.loc	4 318 5
	st8 r9, r7[r4]
.Ltmp474:
	.loc	4 312 39
	{
		add r5, r5, 1
		nop
	}
.Ltmp475:
	.loc	4 312 4
	{
		eq r9, r6, r5
		add r7, r7, 6
	}
	bf r9, .LBB3_67
	bu .LBB3_28
.Ltmp476:
.LBB3_62:
	{
		nop
		stw r11, sp[2]
	}
.Ltmp477:
	bf r6, .LBB3_28
.Ltmp478:
	{
		ldc r1, 0
		mkmsk r11, 2
	}
	{
		ldc r4, 4
		ldc r5, 5
	}
	{
		ldc r9, 6
		mov r10, r1
	}
.Ltmp479:
.LBB3_64:
	{
		nop
		ldw r2, r8[0]
	}
	{
		nop
		ldw r2, r2[r10]
	}
	.loc	4 324 5
.Ltmp480:
	st8 r2, r7[r1]
	{
		nop
		ldw r2, r8[1]
	}
	.loc	4 325 5
	{
		mkmsk r3, 1
		ldw r2, r2[r10]
	}
	.loc	4 325 5
	st8 r2, r7[r3]
	{
		nop
		ldw r2, r8[2]
	}
	.loc	4 326 5
	{
		ldc r3, 2
		ldw r2, r2[r10]
	}
	.loc	4 326 5
	st8 r2, r7[r3]
	{
		nop
		ldw r2, r8[3]
	}
	{
		nop
		ldw r2, r2[r10]
	}
	.loc	4 327 5
	st8 r2, r7[r11]
	{
		nop
		ldw r2, r8[4]
	}
	{
		nop
		ldw r2, r2[r10]
	}
	.loc	4 328 5
	st8 r2, r7[r4]
	{
		nop
		ldw r2, r8[5]
	}
	{
		nop
		ldw r2, r2[r10]
	}
	.loc	4 329 5
	st8 r2, r7[r5]
	{
		nop
		ldw r2, r8[6]
	}
	{
		nop
		ldw r2, r2[r10]
	}
	.loc	4 330 5
	st8 r2, r7[r9]
	{
		nop
		ldw r2, r8[7]
	}
	{
		nop
		ldw r2, r2[r10]
	}
	.loc	4 331 5
	st8 r2, r7[r0]
.Ltmp481:
	.loc	4 323 39
	{
		add r10, r10, 1
		nop
	}
.Ltmp482:
	.loc	4 323 4
	{
		eq r2, r6, r10
		add r7, r7, 8
	}
	bf r2, .LBB3_64
	bu .LBB3_28
.Ltmp483:
.LBB3_56:
	{
		nop
		stw r11, sp[2]
	}
.Ltmp484:
	bf r6, .LBB3_28
.Ltmp485:
	{
		nop
		ldw r0, r8[0]
	}
	.loc	4 344 5
.Ltmp486:
	{
		ldc r2, 0
		ldw r1, r8[1]
	}
.Ltmp487:
.LBB3_58:
	{
		nop
		ldw r3, r0[0]
	}
	.loc	4 343 5
	st16 r3, r7[r2]
	.loc	4 344 5
	{
		add r11, r7, 2
		ldw r3, r1[0]
	}
	.loc	4 344 5
	st16 r3, r11[r2]
.Ltmp488:
	.loc	4 342 4
	{
		sub r6, r6, 1
		add r1, r1, 4
	}
	.loc	4 342 4
	{
		add r0, r0, 4
		add r7, r7, 4
	}
	bt r6, .LBB3_58
	bu .LBB3_28
.Ltmp489:
.LBB3_53:
	{
		nop
		stw r11, sp[2]
	}
.Ltmp490:
	bf r6, .LBB3_28
.Ltmp491:
	{
		nop
		ldw r0, r8[0]
	}
	{
		nop
		ldw r1, r8[1]
	}
	{
		nop
		ldw r2, r8[2]
	}
	.loc	4 353 5
.Ltmp492:
	{
		ldc r11, 0
		ldw r3, r8[3]
	}
.Ltmp493:
.LBB3_55:
	{
		nop
		ldw r4, r0[0]
	}
	.loc	4 350 5
	st16 r4, r7[r11]
	.loc	4 351 5
	{
		add r5, r7, 2
		ldw r4, r1[0]
	}
	.loc	4 351 5
	st16 r4, r5[r11]
	.loc	4 352 5
	{
		add r5, r7, 4
		ldw r4, r2[0]
	}
	.loc	4 352 5
	st16 r4, r5[r11]
	.loc	4 353 5
	{
		add r5, r7, 6
		ldw r4, r3[0]
	}
	.loc	4 353 5
	st16 r4, r5[r11]
.Ltmp494:
	.loc	4 349 4
	{
		sub r6, r6, 1
		add r3, r3, 4
	}
	.loc	4 349 4
	{
		add r2, r2, 4
		add r1, r1, 4
	}
	.loc	4 349 4
	{
		add r0, r0, 4
		add r7, r7, 8
	}
	bt r6, .LBB3_55
	bu .LBB3_28
.Ltmp495:
.LBB3_50:
	{
		nop
		stw r11, sp[2]
	}
.Ltmp496:
	bf r6, .LBB3_28
.Ltmp497:
	{
		nop
		ldw r0, r8[0]
	}
	{
		nop
		ldw r1, r8[1]
	}
	{
		nop
		ldw r2, r8[2]
	}
	{
		nop
		ldw r3, r8[3]
	}
	{
		nop
		ldw r11, r8[4]
	}
	.loc	4 364 5
.Ltmp498:
	{
		ldc r8, 0
		ldw r5, r8[5]
	}
.Ltmp499:
.LBB3_52:
	{
		nop
		ldw r4, r0[0]
	}
	.loc	4 359 5
	st16 r4, r7[r8]
	.loc	4 360 5
	{
		add r9, r7, 2
		ldw r4, r1[0]
	}
	.loc	4 360 5
	st16 r4, r9[r8]
	.loc	4 361 5
	{
		add r9, r7, 4
		ldw r4, r2[0]
	}
	.loc	4 361 5
	st16 r4, r9[r8]
	.loc	4 362 5
	{
		add r9, r7, 6
		ldw r4, r3[0]
	}
	.loc	4 362 5
	st16 r4, r9[r8]
	.loc	4 363 5
	{
		add r9, r7, 8
		ldw r4, r11[0]
	}
	.loc	4 363 5
	st16 r4, r9[r8]
	.loc	4 364 5
	{
		add r9, r7, 10
		ldw r4, r5[0]
	}
	.loc	4 364 5
	st16 r4, r9[r8]
.Ltmp500:
	.loc	4 358 4
	{
		sub r6, r6, 1
		add r5, r5, 4
	}
	.loc	4 358 4
	{
		add r11, r11, 4
		add r3, r3, 4
	}
	.loc	4 358 4
	{
		add r2, r2, 4
		add r1, r1, 4
	}
	.loc	4 358 4
	{
		add r0, r0, 4
		nop
	}
	ldaw r7, r7[3]
	bt r6, .LBB3_52
	bu .LBB3_28
.Ltmp501:
.LBB3_47:
	{
		nop
		stw r11, sp[2]
	}
.Ltmp502:
	bf r6, .LBB3_28
.Ltmp503:
	{
		nop
		ldw r0, r8[0]
	}
	{
		nop
		ldw r1, r8[1]
	}
	{
		nop
		ldw r2, r8[2]
	}
	{
		nop
		ldw r3, r8[3]
	}
	{
		nop
		ldw r11, r8[4]
	}
	{
		nop
		ldw r5, r8[5]
	}
	{
		nop
		ldw r9, r8[6]
	}
	.loc	4 377 5
.Ltmp504:
	{
		ldc r10, 0
		ldw r8, r8[7]
	}
.Ltmp505:
.LBB3_49:
	{
		nop
		stw r0, sp[5]
	}
	.loc	4 370 5
	{
		mov r0, r10
		ldw r4, r0[0]
	}
	.loc	4 370 5
	st16 r4, r7[r0]
	.loc	4 371 5
	{
		add r10, r7, 2
		ldw r4, r1[0]
	}
	.loc	4 371 5
	st16 r4, r10[r0]
	.loc	4 372 5
	{
		add r10, r7, 4
		ldw r4, r2[0]
	}
	.loc	4 372 5
	st16 r4, r10[r0]
	.loc	4 373 5
	{
		add r10, r7, 6
		ldw r4, r3[0]
	}
	.loc	4 373 5
	st16 r4, r10[r0]
	.loc	4 374 5
	{
		add r10, r7, 8
		ldw r4, r11[0]
	}
	.loc	4 374 5
	st16 r4, r10[r0]
	.loc	4 375 5
	{
		add r10, r7, 10
		ldw r4, r5[0]
	}
	.loc	4 375 5
	st16 r4, r10[r0]
	{
		nop
		ldw r4, r9[0]
	}
	ldaw r10, r7[3]
	.loc	4 376 5
	st16 r4, r10[r0]
	.loc	4 377 5
	{
		ldc r10, 14
		ldw r4, r8[0]
	}
	{
		add r10, r7, r10
		nop
	}
	.loc	4 377 5
	st16 r4, r10[r0]
	{
		mov r10, r0
		ldw r0, sp[5]
	}
.Ltmp506:
	.loc	4 369 4
	{
		sub r6, r6, 1
		add r8, r8, 4
	}
	.loc	4 369 4
	{
		add r9, r9, 4
		add r5, r5, 4
	}
	.loc	4 369 4
	{
		add r11, r11, 4
		add r3, r3, 4
	}
	.loc	4 369 4
	{
		add r2, r2, 4
		add r1, r1, 4
	}
	.loc	4 369 4
	{
		add r0, r0, 4
		nop
	}
	ldaw r7, r7[4]
	bt r6, .LBB3_49
.Ltmp507:
.LBB3_28:
	{
		nop
		ldw r0, sp[4]
	}
	{
		nop
		ldw r6, r0[0]
	}
.Ltmp508:
	ldc r0, 80
	{
		nop
		ldw r5, sp[3]
	}
.Ltmp509:
	.loc	4 185 2
	{
		add r0, r5, r0
		nop
	}
	{
		nop
		ldw r4, r0[0]
	}
.Ltmp510:
	{
		nop
		ldw r3, sp[2]
	}
.Ltmp511:
	.loc	4 186 6
	{
		add r1, r4, r3
		nop
	}
.Ltmp512:
	.loc	4 186 6
	{
		lsu r0, r1, r4
		stw r1, r0[0]
	}
	bf r0, .LBB3_30
.Ltmp513:
	ldc r0, 84
	.loc	4 187 3
	{
		add r0, r5, r0
		nop
	}
	{
		nop
		ldw r1, r0[0]
	}
	.loc	4 187 3
	{
		add r1, r1, 1
		nop
	}
	{
		nop
		stw r1, r0[0]
	}
.Ltmp514:
.LBB3_30:
	.loc	4 189 2
	{
		zext r4, 6
		nop
	}
.Ltmp515:
	ldc r7, 64
	.loc	4 189 2
	{
		sub r8, r7, r4
		nop
	}
.Ltmp516:
	.loc	4 191 3
	{
		sub r0, r5, r8
		nop
	}
	.loc	4 191 3
	{
		add r0, r0, r7
		lsu r1, r3, r8
	}
	bf r1, .LBB3_104
.Ltmp517:
	.loc	4 191 3
	{
		mov r1, r6
		mov r2, r3
	}
	bu .LBB3_109
.Ltmp518:
.LBB3_104:
	.loc	4 195 2
	{
		mov r1, r6
		mov r2, r8
	}
	{
		mov r9, r3
		nop
	}
.Ltmp519:
	bl memcpy
	{
		mov r1, r5
		nop
	}
.Ltmp520:
	.loc	4 197 2
	{
		add r10, r1, r7
		nop
	}
	.loc	4 197 2
	{
		mov r0, r10
		nop
	}
.Ltmp521:
	bl FLAC__MD5Transform
.Ltmp522:
	{
		mov r1, r9
		add r9, r6, r8
	}
.Ltmp523:
	.loc	4 199 2
	{
		sub r8, r1, r8
		nop
	}
.Ltmp524:
	.loc	4 202 2
	{
		shr r0, r8, 6
		nop
	}
	bf r0, .LBB3_108
.Ltmp525:
	.loc	4 202 2
	{
		add r0, r1, r4
		nop
	}
	ldw r1, cp[.LCPI3_3]
.Ltmp526:
	.loc	4 202 2
	{
		add r0, r0, r1
		nop
	}
	{
		nop
		stw r0, sp[5]
	}
	ldc r0, 128
	.loc	4 202 2
	{
		sub r0, r0, r4
		nop
	}
	{
		nop
		stw r0, sp[4]
	}
	ldw r4, cp[.LCPI3_4]
.Ltmp527:
.LBB3_106:
	.loc	4 203 3
	{
		mov r0, r5
		mov r1, r9
	}
	{
		mov r2, r7
		nop
	}
	bl memcpy
	.loc	4 205 3
	{
		mov r0, r10
		mov r1, r5
	}
	bl FLAC__MD5Transform
	.loc	4 206 3
	{
		add r9, r9, r7
		add r8, r8, r4
	}
.Ltmp528:
	.loc	4 202 2
	{
		shr r0, r8, 6
		nop
	}
	.loc	4 202 2
	bt r0, .LBB3_106
.Ltmp529:
	{
		nop
		ldw r2, sp[5]
	}
	.loc	4 202 2
	{
		and r0, r2, r4
		ldw r1, sp[4]
	}
	.loc	4 202 2
	{
		add r1, r1, r0
		sub r8, r2, r0
	}
.Ltmp530:
	.loc	4 514 2
	{
		add r9, r6, r1
		nop
	}
.Ltmp531:
.LBB3_108:
	.loc	4 211 2
	{
		mov r0, r5
		mov r1, r9
	}
	{
		mov r2, r8
		nop
	}
.Ltmp532:
.LBB3_109:
	bl memcpy
	{
		mkmsk r0, 1
		nop
	}
.Ltmp533:
.LBB3_110:
	{
		nop
		ldw r10, sp[12]
	}
	.loc	4 517 1
	ldd r9, r8, sp[5]
	ldd r7, r6, sp[4]
	ldd r5, r4, sp[3]
	{
		nop
		retsp 14
	}
	# RETURN_REG_HOLDER
.Ltmp534:
	.cc_bottom FLAC__MD5Accumulate.function
	.set	FLAC__MD5Accumulate.nstackwords,((realloc.nstackwords $M free.nstackwords $M malloc.nstackwords $M memcpy.nstackwords $M FLAC__MD5Transform.nstackwords) + 14)
	.globl	FLAC__MD5Accumulate.nstackwords
	.set	FLAC__MD5Accumulate.maxcores,FLAC__MD5Transform.maxcores $M free.maxcores $M malloc.maxcores $M realloc.maxcores $M 1
	.globl	FLAC__MD5Accumulate.maxcores
	.set	FLAC__MD5Accumulate.maxtimers,FLAC__MD5Transform.maxtimers $M free.maxtimers $M malloc.maxtimers $M realloc.maxtimers $M 0
	.globl	FLAC__MD5Accumulate.maxtimers
	.set	FLAC__MD5Accumulate.maxchanends,FLAC__MD5Transform.maxchanends $M free.maxchanends $M malloc.maxchanends $M realloc.maxchanends $M 0
	.globl	FLAC__MD5Accumulate.maxchanends
.Ltmp535:
	.size	FLAC__MD5Accumulate, .Ltmp535-FLAC__MD5Accumulate
.Lfunc_end3:
	.file	6 "C:/Users/takaaki/git/sw_xSSDAC/module_libFLAC/source/private\\md5.h"
	.cfi_endproc

.Ldebug_end0:
	.section	.trap_info,"",@progbits
.Ltrap_info_entries_start0:
	.long	.Ltrap_info_entries_end0-.Ltrap_info_entries_start0
	.long	1
.Ltrap_info_entries_end0: