	.text
	.file	"C:/Users/takaaki/git/sw_xSSDAC/module_oled_SSD1306/src/OLED_SSD1306.xc"
                                        # Start of file scope inline assembly
	.inline_definition delay_seconds
	.inline_definition delay_milliseconds
	.inline_definition delay_microseconds
	.inline_definition _safe_memcmp
	.inline_definition _safe_memmove
	.inline_definition _safe_memset
	.set usage.anon.0,0
	.set usage.anon.1,0
	.set usage.anon.2,0
	.set usage.anon.3,0
	.set usage.anon.4,0
	.set usage.anon.5,0
	.globread OLED_SSD1306_shift_left,terminator_found_before_eol,"C:/Users/takaaki/git/sw_xSSDAC/module_oled_SSD1306/src/OLED_SSD1306.xc:199:9: note: object used here\n    if (terminator_found_before_eol[row]) return _END_OF_LINE;\n        ^~~~~~~~~~~~~~~~~~~~~~~~~~~~~~~~"
	.globread OLED_SSD1306_shift_left,string_ptr,"C:/Users/takaaki/git/sw_xSSDAC/module_oled_SSD1306/src/OLED_SSD1306.xc:202:20: note: object used here\n    unsafe {code = string_ptr[row][rendering_col[row]];}\n                   ^~~~~~~~~~~~~~~"
	.globread OLED_SSD1306_shift_left,string_ptr,"C:/Users/takaaki/git/sw_xSSDAC/module_oled_SSD1306/src/OLED_SSD1306.xc:202:20: note: object used here\n    unsafe {code = string_ptr[row][rendering_col[row]];}\n                   ^~~~~~~~~~~~~~~"
	.globread OLED_SSD1306_shift_left,CHARBITMAP,"C:/Users/takaaki/git/sw_xSSDAC/module_oled_SSD1306/src/OLED_SSD1306.xc:215:28: note: object used here\n        raster_buffer[p] = CHARBITMAP[char_index + part * 8 + rendering_x[row]];\n                           ^~~~~~~~~~~~~~~~~~~~~~~~~~~~~~~~~~~~~~~~~~~~~~~~~~~~"
	.globread OLED_SSD1306_put_string,string_ptr,"C:/Users/takaaki/git/sw_xSSDAC/module_oled_SSD1306/src/OLED_SSD1306.xc:170:24: note: object used here\n        unsafe {code = string_ptr[row][rendering_col[row]];}\n                       ^~~~~~~~~~~~~~~"
	.globread OLED_SSD1306_put_string,CHARBITMAP,"C:/Users/takaaki/git/sw_xSSDAC/module_oled_SSD1306/src/OLED_SSD1306.xc:186:36: note: object used here\n                raster_buffer[p] = CHARBITMAP[char_index + part * 8 + cx];\n                                   ^~~~~~~~~~~~~~~~~~~~~~~~~~~~~~~~~~~~~~"
	.globread send_page,raster_buffer,"C:/Users/takaaki/git/sw_xSSDAC/module_oled_SSD1306/src/OLED_SSD1306.xc:148:13: note: object used here\n            raster_buffer,\n            ^~~~~~~~~~~~~"
	.globread OLED_SSD1306_begin,OLED_SSD1306_DISPLAY_INIT,"C:/Users/takaaki/git/sw_xSSDAC/module_oled_SSD1306/src/OLED_SSD1306.xc:107:13: note: object used here\n            OLED_SSD1306_DISPLAY_INIT,\n            ^~~~~~~~~~~~~~~~~~~~~~~~~"
	.globwrite OLED_SSD1306_shift_left,rendering_x,"C:/Users/takaaki/git/sw_xSSDAC/module_oled_SSD1306/src/OLED_SSD1306.xc:221:5: note: object used here\n    rendering_x[row]++;\n    ^~~~~~~~~~~~~~~~"
	.globwrite OLED_SSD1306_shift_left,rendering_col,"C:/Users/takaaki/git/sw_xSSDAC/module_oled_SSD1306/src/OLED_SSD1306.xc:205:9: note: object used here\n        rendering_col[row]=0;\n        ^~~~~~~~~~~~~~~~~~"
	.globwrite OLED_SSD1306_shift_left,display_offset,"C:/Users/takaaki/git/sw_xSSDAC/module_oled_SSD1306/src/OLED_SSD1306.xc:218:5: note: object used here\n    display_offset[row]++;\n    ^~~~~~~~~~~~~~~~~~~"
	.globwrite OLED_SSD1306_shift_left,raster_buffer,"C:/Users/takaaki/git/sw_xSSDAC/module_oled_SSD1306/src/OLED_SSD1306.xc:215:9: note: object used here\n        raster_buffer[p] = CHARBITMAP[char_index + part * 8 + rendering_x[row]];\n        ^~~~~~~~~~~~~~~~"
	.globwrite OLED_SSD1306_put_string,rendering_x,"C:/Users/takaaki/git/sw_xSSDAC/module_oled_SSD1306/src/OLED_SSD1306.xc:165:5: note: object used here\n    rendering_x[row] = 0;\n    ^~~~~~~~~~~~~~~~"
	.globwrite OLED_SSD1306_put_string,rendering_col,"C:/Users/takaaki/git/sw_xSSDAC/module_oled_SSD1306/src/OLED_SSD1306.xc:168:10: note: object used here\n    for (rendering_col[row] = 0 ; rendering_col[row] < CHAR_COUNT_PAR_LINE ; rendering_col[row]++){\n         ^~~~~~~~~~~~~~~~~~"
	.globwrite OLED_SSD1306_put_string,display_offset,"C:/Users/takaaki/git/sw_xSSDAC/module_oled_SSD1306/src/OLED_SSD1306.xc:164:5: note: object used here\n    display_offset[row] = 0;\n    ^~~~~~~~~~~~~~~~~~~"
	.globwrite OLED_SSD1306_put_string,raster_buffer,"C:/Users/takaaki/git/sw_xSSDAC/module_oled_SSD1306/src/OLED_SSD1306.xc:186:17: note: object used here\n                raster_buffer[p] = CHARBITMAP[char_index + part * 8 + cx];\n                ^~~~~~~~~~~~~~~~"
	.globwrite OLED_SSD1306_put_string,terminator_found_before_eol,"C:/Users/takaaki/git/sw_xSSDAC/module_oled_SSD1306/src/OLED_SSD1306.xc:167:5: note: object used here\n    terminator_found_before_eol[row] = 0;\n    ^~~~~~~~~~~~~~~~~~~~~~~~~~~~~~~~"
	.globwrite OLED_SSD1306_put_string,string_ptr,"C:/Users/takaaki/git/sw_xSSDAC/module_oled_SSD1306/src/OLED_SSD1306.xc:160:17: note: object used here\n        unsafe {string_ptr[row] = string;\n                ^~~~~~~~~~~~~~~"
	.globwrite send_page,r_i2c2,"C:/Users/takaaki/git/sw_xSSDAC/module_oled_SSD1306/src/OLED_SSD1306.xc:134:13: note: object used here\n            r_i2c2,\n            ^~~~~~"
	.globwrite OLED_SSD1306_begin,display_offset,"C:/Users/takaaki/git/sw_xSSDAC/module_oled_SSD1306/src/OLED_SSD1306.xc:111:9: note: object used here\n        display_offset[i] = 0;\n        ^~~~~~~~~~~~~~~~~"
	.globwrite OLED_SSD1306_begin,_y,"C:/Users/takaaki/git/sw_xSSDAC/module_oled_SSD1306/src/OLED_SSD1306.xc:100:5: note: object used here\n    _y = 0;\n    ^~"
	.globwrite OLED_SSD1306_begin,_x,"C:/Users/takaaki/git/sw_xSSDAC/module_oled_SSD1306/src/OLED_SSD1306.xc:99:5: note: object used here\n    _x = 0;\n    ^~"
	.globwrite OLED_SSD1306_begin,r_i2c2,"C:/Users/takaaki/git/sw_xSSDAC/module_oled_SSD1306/src/OLED_SSD1306.xc:102:28: note: object used here\n    i2c_shared_master_init(r_i2c2);\n                           ^~~~~~"
	.call OLED_SSD1306_shift_left,send_page
	.call OLED_SSD1306_put_string,send_page
	.call send_page,i2c_shared_master_write_reg
	.call send_page,i2c_shared_master_write_part
	.call OLED_SSD1306_begin,i2c_shared_master_write_reg
	.call OLED_SSD1306_begin,i2c_shared_master_init
	.call usage.anon.5,memset
	.call usage.anon.4,memmove
	.call usage.anon.3,memcmp
	.call usage.anon.2,delay_ticks_longlong
	.call usage.anon.1,delay_ticks_longlong
	.call usage.anon.0,delay_ticks_longlong
	.set OLED_SSD1306_begin.locnoside, 0
	.set send_page.locnoside, 0
	.set OLED_SSD1306_put_string.locnoside, 0
	.set OLED_SSD1306_shift_left.locnoside, 0
	.set OLED_SSD1306_begin.locnoglobalaccess, 0
	.set send_page.locnoglobalaccess, 0
	.set OLED_SSD1306_put_string.locnoglobalaccess, 0
	.set OLED_SSD1306_shift_left.locnoglobalaccess, 0
	.assert 1,memset.actnoglobalaccess,"In file included from C:/Users/takaaki/git/sw_xSSDAC/module_oled_SSD1306/src/OLED_SSD1306.xc:16:\nIn file included from C:\\Program Files (x86)\\XMOS\\xTIMEcomposer\\Community_14.4.1\\target/include/xc\\string.h:5:\nC:\\Program Files (x86)\\XMOS\\xTIMEcomposer\\Community_14.4.1\\target/include/xc\\safe/string.h:21:3: error: passing non-local alias to function `memset\' which accesses a global variable\n  memset(s, c, n);\n  ^~~~~~~~~~~~~~~"
	.assert 1,memmove.actnoglobalaccess,"In file included from C:/Users/takaaki/git/sw_xSSDAC/module_oled_SSD1306/src/OLED_SSD1306.xc:16:\nIn file included from C:\\Program Files (x86)\\XMOS\\xTIMEcomposer\\Community_14.4.1\\target/include/xc\\string.h:5:\nC:\\Program Files (x86)\\XMOS\\xTIMEcomposer\\Community_14.4.1\\target/include/xc\\safe/string.h:15:3: error: passing non-local alias to function `memmove\' which accesses a global variable\n  memmove(s1, s2, n);\n  ^~~~~~~~~~~~~~~~~~"
	.globpassesref i2c_shared_master_write_part, raster_buffer,"C:/Users/takaaki/git/sw_xSSDAC/module_oled_SSD1306/src/OLED_SSD1306.xc:144:5: error: call to `i2c_shared_master_write_part\' in `send_page\' makes alias of global \'raster_buffer\'\n    i2c_shared_master_write_part(\n    ^~~~~~~~~~~~~~~~~~~~~~~~~~~~~"
	.globpassesref i2c_shared_master_write_part, r_i2c2,"C:/Users/takaaki/git/sw_xSSDAC/module_oled_SSD1306/src/OLED_SSD1306.xc:144:5: error: call to `i2c_shared_master_write_part\' in `send_page\' makes alias of global \'r_i2c2\'\n    i2c_shared_master_write_part(\n    ^~~~~~~~~~~~~~~~~~~~~~~~~~~~~"
	.globpassesref i2c_shared_master_write_reg, r_i2c2,"C:/Users/takaaki/git/sw_xSSDAC/module_oled_SSD1306/src/OLED_SSD1306.xc:133:5: error: call to `i2c_shared_master_write_reg\' in `send_page\' makes alias of global \'r_i2c2\'\n    i2c_shared_master_write_reg(\n    ^~~~~~~~~~~~~~~~~~~~~~~~~~~~"
	.globpassesref i2c_shared_master_write_reg, OLED_SSD1306_DISPLAY_INIT,"C:/Users/takaaki/git/sw_xSSDAC/module_oled_SSD1306/src/OLED_SSD1306.xc:103:5: error: call to `i2c_shared_master_write_reg\' in `OLED_SSD1306_begin\' makes alias of global \'OLED_SSD1306_DISPLAY_INIT\'\n    i2c_shared_master_write_reg(\n    ^~~~~~~~~~~~~~~~~~~~~~~~~~~~"
	.globpassesref i2c_shared_master_write_reg, r_i2c2,"C:/Users/takaaki/git/sw_xSSDAC/module_oled_SSD1306/src/OLED_SSD1306.xc:103:5: error: call to `i2c_shared_master_write_reg\' in `OLED_SSD1306_begin\' makes alias of global \'r_i2c2\'\n    i2c_shared_master_write_reg(\n    ^~~~~~~~~~~~~~~~~~~~~~~~~~~~"
	.globpassesref i2c_shared_master_init, r_i2c2,"C:/Users/takaaki/git/sw_xSSDAC/module_oled_SSD1306/src/OLED_SSD1306.xc:102:5: error: call to `i2c_shared_master_init\' in `OLED_SSD1306_begin\' makes alias of global \'r_i2c2\'\n    i2c_shared_master_init(r_i2c2);\n    ^~~~~~~~~~~~~~~~~~~~~~~~~~~~~~"

                                        # End of file scope inline assembly
	.text
	.globl	OLED_SSD1306_begin
	.align	4
	.type	OLED_SSD1306_begin,@function
	.cc_top OLED_SSD1306_begin.function,OLED_SSD1306_begin
OLED_SSD1306_begin:                     # @OLED_SSD1306_begin
.Lfunc_begin0:
	.loc	2 97 0                  # C:/Users/takaaki/git/sw_xSSDAC/module_oled_SSD1306/src/OLED_SSD1306.xc:97:0
	.cfi_startproc
	.issue_mode single
# BB#0:                                 # %allocas
.Lxtalabel0:
	ENTSP_lu6 6
.Ltmp0:
	.cfi_def_cfa_offset 24
.Ltmp1:
	.cfi_offset 15, 0
	.loc	2 99 0 prologue_end     # C:/Users/takaaki/git/sw_xSSDAC/module_oled_SSD1306/src/OLED_SSD1306.xc:99:0
.Ltmp2:
	std r5, r4, sp[2]               # 4-byte Folded Spill
.Ltmp3:
	.cfi_offset 4, -8
.Ltmp4:
	.cfi_offset 5, -4
	ldaw r0, dp[_x]
	.loc	2 100 0                 # C:/Users/takaaki/git/sw_xSSDAC/module_oled_SSD1306/src/OLED_SSD1306.xc:100:0
	ldc r4, 0
	.loc	2 99 0                  # C:/Users/takaaki/git/sw_xSSDAC/module_oled_SSD1306/src/OLED_SSD1306.xc:99:0
	st8 r4, r0[r4]
	.loc	2 100 0                 # C:/Users/takaaki/git/sw_xSSDAC/module_oled_SSD1306/src/OLED_SSD1306.xc:100:0
	ldaw r0, dp[_y]
	st8 r4, r0[r4]
	.loc	2 102 0                 # C:/Users/takaaki/git/sw_xSSDAC/module_oled_SSD1306/src/OLED_SSD1306.xc:102:0
	ldaw r5, dp[r_i2c2]
	mov r0, r5
.Lxta.call_labels0:
	bl i2c_shared_master_init
	ldc r0, 28
	.loc	2 103 0                 # C:/Users/takaaki/git/sw_xSSDAC/module_oled_SSD1306/src/OLED_SSD1306.xc:103:0
	stw r0, sp[2]
	stw r0, sp[1]
	ldaw r11, cp[OLED_SSD1306_DISPLAY_INIT]
	ldc r1, 60
	mov r0, r5
	mov r2, r4
	mov r3, r11
.Lxta.call_labels1:
	bl i2c_shared_master_write_reg
.Ltmp5:
	#DEBUG_VALUE: i <- 0
	.loc	2 111 0                 # C:/Users/takaaki/git/sw_xSSDAC/module_oled_SSD1306/src/OLED_SSD1306.xc:111:0
	stw r4, dp[display_offset]
.Ltmp6:
	#DEBUG_VALUE: i <- 1
	.loc	2 111 0                 # C:/Users/takaaki/git/sw_xSSDAC/module_oled_SSD1306/src/OLED_SSD1306.xc:111:0
	stw r4, dp[display_offset+4]
	.loc	2 111 0                 # C:/Users/takaaki/git/sw_xSSDAC/module_oled_SSD1306/src/OLED_SSD1306.xc:111:0
	stw r4, dp[display_offset+8]
	.loc	2 111 0                 # C:/Users/takaaki/git/sw_xSSDAC/module_oled_SSD1306/src/OLED_SSD1306.xc:111:0
	stw r4, dp[display_offset+12]
	ldd r5, r4, sp[2]               # 4-byte Folded Reload
	retsp 6
	# RETURN_REG_HOLDER
.Ltmp7:
	.cc_bottom OLED_SSD1306_begin.function
	.set	OLED_SSD1306_begin.nstackwords,((i2c_shared_master_init.nstackwords $M i2c_shared_master_write_reg.nstackwords) + 6)
	.globl	OLED_SSD1306_begin.nstackwords
	.set	OLED_SSD1306_begin.maxcores,i2c_shared_master_init.maxcores $M i2c_shared_master_write_reg.maxcores $M 1
	.globl	OLED_SSD1306_begin.maxcores
	.set	OLED_SSD1306_begin.maxtimers,i2c_shared_master_init.maxtimers $M i2c_shared_master_write_reg.maxtimers $M 0
	.globl	OLED_SSD1306_begin.maxtimers
	.set	OLED_SSD1306_begin.maxchanends,i2c_shared_master_init.maxchanends $M i2c_shared_master_write_reg.maxchanends $M 0
	.globl	OLED_SSD1306_begin.maxchanends
.Ltmp8:
	.size	OLED_SSD1306_begin, .Ltmp8-OLED_SSD1306_begin
.Lfunc_end0:
	.cfi_endproc

	.globl	OLED_SSD1306_put_string
	.align	4
	.type	OLED_SSD1306_put_string,@function
	.cc_top OLED_SSD1306_put_string.function,OLED_SSD1306_put_string
OLED_SSD1306_put_string:                # @OLED_SSD1306_put_string
.Lfunc_begin1:
	.loc	2 157 0                 # C:/Users/takaaki/git/sw_xSSDAC/module_oled_SSD1306/src/OLED_SSD1306.xc:157:0
	.cfi_startproc
	.issue_mode single
# BB#0:                                 # %allocas
.Lxtalabel1:
	ENTSP_lu6 18
.Ltmp9:
	.cfi_def_cfa_offset 72
.Ltmp10:
	.cfi_offset 15, 0
	std r5, r4, sp[5]               # 4-byte Folded Spill
.Ltmp11:
	.cfi_offset 4, -32
.Ltmp12:
	.cfi_offset 5, -28
	std r7, r6, sp[6]               # 4-byte Folded Spill
.Ltmp13:
	.cfi_offset 6, -24
.Ltmp14:
	.cfi_offset 7, -20
	std r9, r8, sp[7]               # 4-byte Folded Spill
.Ltmp15:
	.cfi_offset 8, -16
.Ltmp16:
	.cfi_offset 9, -12
	stw r10, sp[16]                 # 4-byte Folded Spill
.Ltmp17:
	.cfi_offset 10, -8
	#DEBUG_VALUE: OLED_SSD1306_put_string:row <- R0
	#DEBUG_VALUE: OLED_SSD1306_put_string:string <- R1
	mov r4, r0
.Ltmp18:
	#DEBUG_VALUE: OLED_SSD1306_put_string:row <- R4
	.loc	2 159 5 prologue_end    # C:/Users/takaaki/git/sw_xSSDAC/module_oled_SSD1306/src/OLED_SSD1306.xc:159:5
	stw r4, sp[5]                   # 4-byte Folded Spill
.Ltrap_info0:
	ecallf r2
	#DEBUG_VALUE: OLED_SSD1306_put_string:row <- R4
	#DEBUG_VALUE: OLED_SSD1306_put_string:string <- R1
	.loc	2 159 5                 # C:/Users/takaaki/git/sw_xSSDAC/module_oled_SSD1306/src/OLED_SSD1306.xc:159:5
	ldc r9, 0
	ld8u r0, r1[r9]
	bf r0, .LBB1_1
.Ltmp19:
# BB#2:                                 # %iftrue
.Lxtalabel2:
	#DEBUG_VALUE: OLED_SSD1306_put_string:row <- R4
	#DEBUG_VALUE: OLED_SSD1306_put_string:string <- R1
	ldc r0, 4
	lsu r0, r4, r0
.Ltrap_info1:
	ecallf r0
	#DEBUG_VALUE: OLED_SSD1306_put_string:row <- R4
	#DEBUG_VALUE: OLED_SSD1306_put_string:string <- R1
	.loc	2 160 0                 # C:/Users/takaaki/git/sw_xSSDAC/module_oled_SSD1306/src/OLED_SSD1306.xc:160:0
	ldaw r0, dp[string_ptr]
	.loc	2 160 0                 # C:/Users/takaaki/git/sw_xSSDAC/module_oled_SSD1306/src/OLED_SSD1306.xc:160:0
	stw r1, r0[r4]
	bu .LBB1_3
.Ltmp20:
.LBB1_1:                                # %ifdone
.Lxtalabel3:
	#DEBUG_VALUE: OLED_SSD1306_put_string:row <- R4
	mkmsk r0, 2
	.loc	2 164 0                 # C:/Users/takaaki/git/sw_xSSDAC/module_oled_SSD1306/src/OLED_SSD1306.xc:164:0
	lsu r0, r0, r4
.Ltrap_info2:
	ecallt r0
	#DEBUG_VALUE: OLED_SSD1306_put_string:row <- R4
	ldaw r0, dp[string_ptr]
	.loc	2 170 0                 # C:/Users/takaaki/git/sw_xSSDAC/module_oled_SSD1306/src/OLED_SSD1306.xc:170:0
.Ltmp21:
	ldw r1, r0[r4]
.Ltmp22:
.LBB1_3:                                # %afterboundcheck8
	#DEBUG_VALUE: OLED_SSD1306_put_string:row <- R4
	.loc	2 164 0                 # C:/Users/takaaki/git/sw_xSSDAC/module_oled_SSD1306/src/OLED_SSD1306.xc:164:0
	stw r1, sp[4]                   # 4-byte Folded Spill
	ldaw r0, dp[display_offset]
	.loc	2 164 0                 # C:/Users/takaaki/git/sw_xSSDAC/module_oled_SSD1306/src/OLED_SSD1306.xc:164:0
	stw r9, r0[r4]
	.loc	2 165 0                 # C:/Users/takaaki/git/sw_xSSDAC/module_oled_SSD1306/src/OLED_SSD1306.xc:165:0
	ldaw r0, dp[rendering_x]
	.loc	2 165 0                 # C:/Users/takaaki/git/sw_xSSDAC/module_oled_SSD1306/src/OLED_SSD1306.xc:165:0
	stw r9, r0[r4]
	.loc	2 167 0                 # C:/Users/takaaki/git/sw_xSSDAC/module_oled_SSD1306/src/OLED_SSD1306.xc:167:0
	ldaw r0, dp[terminator_found_before_eol]
	.loc	2 167 0                 # C:/Users/takaaki/git/sw_xSSDAC/module_oled_SSD1306/src/OLED_SSD1306.xc:167:0
	stw r9, r0[r4]
	.loc	2 168 0                 # C:/Users/takaaki/git/sw_xSSDAC/module_oled_SSD1306/src/OLED_SSD1306.xc:168:0
	ldaw r0, dp[rendering_col]
	.loc	2 168 0                 # C:/Users/takaaki/git/sw_xSSDAC/module_oled_SSD1306/src/OLED_SSD1306.xc:168:0
	stw r9, r0[r4]
	.loc	2 185 0                 # C:/Users/takaaki/git/sw_xSSDAC/module_oled_SSD1306/src/OLED_SSD1306.xc:185:0
.Ltmp23:
	shl r0, r4, 1
.Ltmp24:
	.loc	2 168 0                 # C:/Users/takaaki/git/sw_xSSDAC/module_oled_SSD1306/src/OLED_SSD1306.xc:168:0
	stw r0, sp[3]                   # 4-byte Folded Spill
	shl r2, r4, 8
	ldaw r0, dp[raster_buffer]
	add r10, r0, r2
	ldc r6, 10
	ldc r5, 8
	stw r9, sp[6]                   # 4-byte Folded Spill
	mov r11, r9
.Ltmp25:
.LBB1_4:                                # %afterboundcheck43
                                        # =>This Loop Header: Depth=1
                                        #     Child Loop BB1_12 Depth 2
                                        #       Child Loop BB1_13 Depth 3
.Lxtalabel4:
	#DEBUG_VALUE: OLED_SSD1306_put_string:row <- R4
	.loc	2 170 0                 # C:/Users/takaaki/git/sw_xSSDAC/module_oled_SSD1306/src/OLED_SSD1306.xc:170:0
	ld8u r0, r1[r11]
	bt r0, .LBB1_6
.Ltmp26:
# BB#5:                                 # %ifdone49.thread
                                        #   in Loop: Header=BB1_4 Depth=1
.Lxtalabel5:
	#DEBUG_VALUE: OLED_SSD1306_put_string:row <- R4
	.loc	2 167 0                 # C:/Users/takaaki/git/sw_xSSDAC/module_oled_SSD1306/src/OLED_SSD1306.xc:167:0
	ldaw r1, dp[terminator_found_before_eol]
	mkmsk r3, 1
	.loc	2 173 0                 # C:/Users/takaaki/git/sw_xSSDAC/module_oled_SSD1306/src/OLED_SSD1306.xc:173:0
.Ltmp27:
	stw r3, r1[r4]
	.loc	2 175 9                 # C:/Users/takaaki/git/sw_xSSDAC/module_oled_SSD1306/src/OLED_SSD1306.xc:175:9
	stw r3, sp[6]                   # 4-byte Folded Spill
.Ltmp28:
.LBB1_6:                                # %afterboundcheck62
                                        #   in Loop: Header=BB1_4 Depth=1
.Lxtalabel6:
	#DEBUG_VALUE: OLED_SSD1306_put_string:row <- R4
	#DEBUG_VALUE: code <- 32
	.loc	2 175 9                 # C:/Users/takaaki/git/sw_xSSDAC/module_oled_SSD1306/src/OLED_SSD1306.xc:175:9
	ldw r1, sp[6]                   # 4-byte Folded Reload
	eq r3, r1, 1
	ldc r1, 32
	bt r3, .LBB1_8
.Ltmp29:
# BB#7:                                 # %afterboundcheck62
                                        #   in Loop: Header=BB1_4 Depth=1
.Lxtalabel7:
	#DEBUG_VALUE: OLED_SSD1306_put_string:row <- R4
	#DEBUG_VALUE: code <- 32
	.loc	2 175 9                 # C:/Users/takaaki/git/sw_xSSDAC/module_oled_SSD1306/src/OLED_SSD1306.xc:175:9
	mov r1, r0
.Ltmp30:
.LBB1_8:                                # %afterboundcheck62
                                        #   in Loop: Header=BB1_4 Depth=1
.Lxtalabel8:
	#DEBUG_VALUE: OLED_SSD1306_put_string:row <- R4
	#DEBUG_VALUE: code <- 32
	mov r0, r1
	sext r0, 8
.Ltmp31:
	#DEBUG_VALUE: char_index <- 0
	.loc	2 178 9                 # C:/Users/takaaki/git/sw_xSSDAC/module_oled_SSD1306/src/OLED_SSD1306.xc:178:9
	lss r0, r9, r0
	.loc	2 178 9                 # C:/Users/takaaki/git/sw_xSSDAC/module_oled_SSD1306/src/OLED_SSD1306.xc:178:9
	bt r0, .LBB1_9
.Ltmp32:
# BB#10:                                # %afterboundcheck62
                                        #   in Loop: Header=BB1_4 Depth=1
.Lxtalabel9:
	#DEBUG_VALUE: OLED_SSD1306_put_string:row <- R4
	#DEBUG_VALUE: code <- 32
	#DEBUG_VALUE: char_index <- 0
	stw r11, sp[7]                  # 4-byte Folded Spill
.Ltmp33:
	#DEBUG_VALUE: OLED_SSD1306_put_string:row <- [SP+20]
	mov r0, r9
	bu .LBB1_11
.Ltmp34:
.LBB1_9:                                #   in Loop: Header=BB1_4 Depth=1
	#DEBUG_VALUE: OLED_SSD1306_put_string:row <- R4
	#DEBUG_VALUE: code <- 32
	#DEBUG_VALUE: char_index <- 0
	stw r11, sp[7]                  # 4-byte Folded Spill
.Ltmp35:
	#DEBUG_VALUE: OLED_SSD1306_put_string:row <- [SP+20]
	.loc	2 179 0                 # C:/Users/takaaki/git/sw_xSSDAC/module_oled_SSD1306/src/OLED_SSD1306.xc:179:0
	shl r0, r1, 4
.Ltmp36:
	#DEBUG_VALUE: char_index <- R0
.LBB1_11:                               # %afterboundcheck62
                                        #   in Loop: Header=BB1_4 Depth=1
.Lxtalabel10:
	#DEBUG_VALUE: OLED_SSD1306_put_string:row <- [SP+20]
	ldaw r11, cp[CHARBITMAP]
	add r7, r11, r0
	stw r2, sp[9]                   # 4-byte Folded Spill
	mov r8, r2
	stw r10, sp[8]                  # 4-byte Folded Spill
	mov r1, r9
.Ltmp37:
.LBB1_12:                               # %LoopBody91
                                        #   Parent Loop BB1_4 Depth=1
                                        # =>  This Loop Header: Depth=2
                                        #       Child Loop BB1_13 Depth 3
.Lxtalabel11:
	#DEBUG_VALUE: OLED_SSD1306_put_string:row <- [SP+20]
	#DEBUG_VALUE: cx <- 0
	mov r11, r7
	mov r4, r8
	mov r3, r10
	mov r0, r9
.Ltmp38:
.LBB1_13:                               # %afterboundcheck109
                                        #   Parent Loop BB1_4 Depth=1
                                        #     Parent Loop BB1_12 Depth=2
                                        # =>    This Inner Loop Header: Depth=3
.Lxtalabel12:
	#DEBUG_VALUE: OLED_SSD1306_put_string:row <- [SP+20]
	#DEBUG_VALUE: cx <- 0
	.loc	2 186 0                 # C:/Users/takaaki/git/sw_xSSDAC/module_oled_SSD1306/src/OLED_SSD1306.xc:186:0
	shr r2, r4, r6
.Ltrap_info3:
	ecallt r2
	#DEBUG_VALUE: OLED_SSD1306_put_string:row <- [SP+20]
	#DEBUG_VALUE: cx <- 0
	.loc	2 186 0                 # C:/Users/takaaki/git/sw_xSSDAC/module_oled_SSD1306/src/OLED_SSD1306.xc:186:0
	ld8u r2, r11[r9]
	.loc	2 186 0                 # C:/Users/takaaki/git/sw_xSSDAC/module_oled_SSD1306/src/OLED_SSD1306.xc:186:0
	st8 r2, r3[r9]
.Ltmp39:
	.loc	2 184 0                 # C:/Users/takaaki/git/sw_xSSDAC/module_oled_SSD1306/src/OLED_SSD1306.xc:184:0
	add r0, r0, 1
.Ltmp40:
	#DEBUG_VALUE: cx <- R0
	.loc	2 184 0                 # C:/Users/takaaki/git/sw_xSSDAC/module_oled_SSD1306/src/OLED_SSD1306.xc:184:0
	add r3, r3, 1
	.loc	2 184 0                 # C:/Users/takaaki/git/sw_xSSDAC/module_oled_SSD1306/src/OLED_SSD1306.xc:184:0
	add r4, r4, 1
	.loc	2 184 0                 # C:/Users/takaaki/git/sw_xSSDAC/module_oled_SSD1306/src/OLED_SSD1306.xc:184:0
	add r11, r11, 1
	.loc	2 184 0                 # C:/Users/takaaki/git/sw_xSSDAC/module_oled_SSD1306/src/OLED_SSD1306.xc:184:0
	lss r2, r0, r5
.Lxta.loop_labels0:
	# LOOPMARKER 0
	bt r2, .LBB1_13
.Ltmp41:
# BB#14:                                # %LoopIncrement93
                                        #   in Loop: Header=BB1_12 Depth=2
.Lxtalabel13:
	#DEBUG_VALUE: OLED_SSD1306_put_string:row <- [SP+20]
	.loc	2 182 0                 # C:/Users/takaaki/git/sw_xSSDAC/module_oled_SSD1306/src/OLED_SSD1306.xc:182:0
	add r1, r1, 1
.Ltmp42:
	#DEBUG_VALUE: part <- R1
	ldc r0, 128
	.loc	2 182 0                 # C:/Users/takaaki/git/sw_xSSDAC/module_oled_SSD1306/src/OLED_SSD1306.xc:182:0
	add r10, r10, r0
	.loc	2 182 0                 # C:/Users/takaaki/git/sw_xSSDAC/module_oled_SSD1306/src/OLED_SSD1306.xc:182:0
	add r8, r8, r0
	.loc	2 182 0                 # C:/Users/takaaki/git/sw_xSSDAC/module_oled_SSD1306/src/OLED_SSD1306.xc:182:0
	add r7, r7, 8
	ldc r0, 2
	.loc	2 182 0                 # C:/Users/takaaki/git/sw_xSSDAC/module_oled_SSD1306/src/OLED_SSD1306.xc:182:0
	lss r0, r1, r0
.Lxta.loop_labels1:
	# LOOPMARKER 1
	bt r0, .LBB1_12
.Ltmp43:
# BB#15:                                # %afterboundcheck142
                                        #   in Loop: Header=BB1_4 Depth=1
.Lxtalabel14:
	#DEBUG_VALUE: OLED_SSD1306_put_string:row <- [SP+20]
	ldw r11, sp[7]                  # 4-byte Folded Reload
	.loc	2 168 0                 # C:/Users/takaaki/git/sw_xSSDAC/module_oled_SSD1306/src/OLED_SSD1306.xc:168:0
	add r11, r11, 1
	ldw r4, sp[5]                   # 4-byte Folded Reload
.Ltmp44:
	#DEBUG_VALUE: OLED_SSD1306_put_string:row <- R4
	.loc	2 168 0                 # C:/Users/takaaki/git/sw_xSSDAC/module_oled_SSD1306/src/OLED_SSD1306.xc:168:0
	ldaw r0, dp[rendering_col]
	.loc	2 168 0                 # C:/Users/takaaki/git/sw_xSSDAC/module_oled_SSD1306/src/OLED_SSD1306.xc:168:0
	stw r11, r0[r4]
	ldw r10, sp[8]                  # 4-byte Folded Reload
	.loc	2 168 0                 # C:/Users/takaaki/git/sw_xSSDAC/module_oled_SSD1306/src/OLED_SSD1306.xc:168:0
	add r10, r10, 8
	ldw r2, sp[9]                   # 4-byte Folded Reload
	.loc	2 168 0                 # C:/Users/takaaki/git/sw_xSSDAC/module_oled_SSD1306/src/OLED_SSD1306.xc:168:0
	add r2, r2, 8
	ldc r0, 16
	.loc	2 168 0                 # C:/Users/takaaki/git/sw_xSSDAC/module_oled_SSD1306/src/OLED_SSD1306.xc:168:0
	lss r0, r11, r0
.Lxta.loop_labels2:
	# LOOPMARKER 2
	ldw r1, sp[4]                   # 4-byte Folded Reload
	bt r0, .LBB1_4
.Ltmp45:
# BB#16:                                # %afterboundcheck170.preheader
.Lxtalabel15:
	#DEBUG_VALUE: OLED_SSD1306_put_string:row <- R4
	ldc r1, 0
	ldw r5, sp[3]                   # 4-byte Folded Reload
	.loc	2 192 0                 # C:/Users/takaaki/git/sw_xSSDAC/module_oled_SSD1306/src/OLED_SSD1306.xc:192:0
.Ltmp46:
	mov r0, r5
.Lxta.call_labels2:
	bl send_page
	mkmsk r0, 1
.Ltmp47:
	#DEBUG_VALUE: part <- 1
	.loc	2 192 0                 # C:/Users/takaaki/git/sw_xSSDAC/module_oled_SSD1306/src/OLED_SSD1306.xc:192:0
	or r0, r5, r0
.Ltmp48:
	.loc	2 164 0                 # C:/Users/takaaki/git/sw_xSSDAC/module_oled_SSD1306/src/OLED_SSD1306.xc:164:0
	ldaw r1, dp[display_offset]
	.loc	2 192 0                 # C:/Users/takaaki/git/sw_xSSDAC/module_oled_SSD1306/src/OLED_SSD1306.xc:192:0
.Ltmp49:
	ldw r1, r1[r4]
	.loc	2 192 0                 # C:/Users/takaaki/git/sw_xSSDAC/module_oled_SSD1306/src/OLED_SSD1306.xc:192:0
.Lxta.call_labels3:
	bl send_page
	ldw r10, sp[16]                 # 4-byte Folded Reload
	ldd r9, r8, sp[7]               # 4-byte Folded Reload
	ldd r7, r6, sp[6]               # 4-byte Folded Reload
	ldd r5, r4, sp[5]               # 4-byte Folded Reload
.Ltmp50:
	retsp 18
	# RETURN_REG_HOLDER
.Ltmp51:
	.cc_bottom OLED_SSD1306_put_string.function
	.set	OLED_SSD1306_put_string.nstackwords,(send_page.nstackwords + 18)
	.globl	OLED_SSD1306_put_string.nstackwords
	.set	OLED_SSD1306_put_string.maxcores,send_page.maxcores $M 1
	.globl	OLED_SSD1306_put_string.maxcores
	.set	OLED_SSD1306_put_string.maxtimers,send_page.maxtimers $M 0
	.globl	OLED_SSD1306_put_string.maxtimers
	.set	OLED_SSD1306_put_string.maxchanends,send_page.maxchanends $M 0
	.globl	OLED_SSD1306_put_string.maxchanends
.Ltmp52:
	.size	OLED_SSD1306_put_string, .Ltmp52-OLED_SSD1306_put_string
.Lfunc_end1:
	.cfi_endproc

	.globl	OLED_SSD1306_shift_left
	.align	4
	.type	OLED_SSD1306_shift_left,@function
	.cc_top OLED_SSD1306_shift_left.function,OLED_SSD1306_shift_left
OLED_SSD1306_shift_left:                # @OLED_SSD1306_shift_left
.Lfunc_begin2:
	.loc	2 197 0                 # C:/Users/takaaki/git/sw_xSSDAC/module_oled_SSD1306/src/OLED_SSD1306.xc:197:0
	.cfi_startproc
	.issue_mode single
# BB#0:                                 # %allocas
.Lxtalabel16:
	ENTSP_lu6 12
.Ltmp53:
	.cfi_def_cfa_offset 48
.Ltmp54:
	.cfi_offset 15, 0
	std r5, r4, sp[2]               # 4-byte Folded Spill
.Ltmp55:
	.cfi_offset 4, -32
.Ltmp56:
	.cfi_offset 5, -28
	std r7, r6, sp[3]               # 4-byte Folded Spill
.Ltmp57:
	.cfi_offset 6, -24
.Ltmp58:
	.cfi_offset 7, -20
	std r9, r8, sp[4]               # 4-byte Folded Spill
.Ltmp59:
	.cfi_offset 8, -16
.Ltmp60:
	.cfi_offset 9, -12
	stw r10, sp[10]                 # 4-byte Folded Spill
.Ltmp61:
	.cfi_offset 10, -8
	#DEBUG_VALUE: OLED_SSD1306_shift_left:row <- R0
	mov r4, r0
.Ltmp62:
	#DEBUG_VALUE: OLED_SSD1306_shift_left:row <- R4
	mkmsk r0, 2
	.loc	2 199 5 prologue_end    # C:/Users/takaaki/git/sw_xSSDAC/module_oled_SSD1306/src/OLED_SSD1306.xc:199:5
.Ltmp63:
	lsu r0, r0, r4
.Ltrap_info4:
	ecallt r0
	#DEBUG_VALUE: OLED_SSD1306_shift_left:row <- R4
	.loc	2 199 5                 # C:/Users/takaaki/git/sw_xSSDAC/module_oled_SSD1306/src/OLED_SSD1306.xc:199:5
	ldaw r0, dp[terminator_found_before_eol]
	.loc	2 199 5                 # C:/Users/takaaki/git/sw_xSSDAC/module_oled_SSD1306/src/OLED_SSD1306.xc:199:5
	ldw r0, r0[r4]
	.loc	2 199 5                 # C:/Users/takaaki/git/sw_xSSDAC/module_oled_SSD1306/src/OLED_SSD1306.xc:199:5
	bf r0, .LBB2_2
.Ltmp64:
# BB#1:
	ldc r6, 0
	bu .LBB2_15
.LBB2_2:                                # %afterboundcheck7
.Lxtalabel17:
.Ltmp65:
	#DEBUG_VALUE: OLED_SSD1306_shift_left:row <- R4
	.loc	2 202 0                 # C:/Users/takaaki/git/sw_xSSDAC/module_oled_SSD1306/src/OLED_SSD1306.xc:202:0
	ldaw r0, dp[string_ptr]
	.loc	2 202 0                 # C:/Users/takaaki/git/sw_xSSDAC/module_oled_SSD1306/src/OLED_SSD1306.xc:202:0
	ldw r0, r0[r4]
	.loc	2 202 0                 # C:/Users/takaaki/git/sw_xSSDAC/module_oled_SSD1306/src/OLED_SSD1306.xc:202:0
	ldaw r1, dp[rendering_col]
	.loc	2 202 0                 # C:/Users/takaaki/git/sw_xSSDAC/module_oled_SSD1306/src/OLED_SSD1306.xc:202:0
	ldw r2, r1[r4]
	.loc	2 202 0                 # C:/Users/takaaki/git/sw_xSSDAC/module_oled_SSD1306/src/OLED_SSD1306.xc:202:0
	ld8u r0, r0[r2]
	.loc	2 204 5                 # C:/Users/takaaki/git/sw_xSSDAC/module_oled_SSD1306/src/OLED_SSD1306.xc:204:5
	bf r0, .LBB2_3
.Ltmp66:
# BB#4:                                 # %lhsfalse
.Lxtalabel18:
	#DEBUG_VALUE: OLED_SSD1306_shift_left:row <- R4
	stw r2, sp[1]                   # 4-byte Folded Spill
	.loc	2 202 0                 # C:/Users/takaaki/git/sw_xSSDAC/module_oled_SSD1306/src/OLED_SSD1306.xc:202:0
	mov r1, r0
	sext r1, 8
.Ltmp67:
	#DEBUG_VALUE: char_index <- 0
	.loc	2 209 5                 # C:/Users/takaaki/git/sw_xSSDAC/module_oled_SSD1306/src/OLED_SSD1306.xc:209:5
	ashr r2, r1, 32
	ldc r1, 0
	mov r6, r1
	bt r2, .LBB2_6
.Ltmp68:
# BB#5:                                 # %lhsfalse
.Lxtalabel19:
	#DEBUG_VALUE: OLED_SSD1306_shift_left:row <- R4
	#DEBUG_VALUE: char_index <- 0
	.loc	2 210 0                 # C:/Users/takaaki/git/sw_xSSDAC/module_oled_SSD1306/src/OLED_SSD1306.xc:210:0
	shl r6, r0, 4
.Ltmp69:
	#DEBUG_VALUE: char_index <- R6
.LBB2_6:                                # %lhsfalse
.Lxtalabel20:
	#DEBUG_VALUE: OLED_SSD1306_shift_left:row <- R4
	#DEBUG_VALUE: char_index <- 0
	.loc	2 214 0                 # C:/Users/takaaki/git/sw_xSSDAC/module_oled_SSD1306/src/OLED_SSD1306.xc:214:0
	shl r0, r4, 1
	.loc	2 214 0                 # C:/Users/takaaki/git/sw_xSSDAC/module_oled_SSD1306/src/OLED_SSD1306.xc:214:0
	stw r0, sp[3]                   # 4-byte Folded Spill
	ldaw r0, dp[display_offset]
	.loc	2 214 0                 # C:/Users/takaaki/git/sw_xSSDAC/module_oled_SSD1306/src/OLED_SSD1306.xc:214:0
	ldw r2, r0[r4]
.Ltmp70:
	.loc	2 209 5                 # C:/Users/takaaki/git/sw_xSSDAC/module_oled_SSD1306/src/OLED_SSD1306.xc:209:5
	stw r2, sp[2]                   # 4-byte Folded Spill
	shl r0, r4, 8
	.loc	2 209 5                 # C:/Users/takaaki/git/sw_xSSDAC/module_oled_SSD1306/src/OLED_SSD1306.xc:209:5
	add r9, r2, r0
	ldc r10, 10
	.loc	2 215 0                 # C:/Users/takaaki/git/sw_xSSDAC/module_oled_SSD1306/src/OLED_SSD1306.xc:215:0
.Ltmp71:
	ldaw r3, dp[rendering_x]
	ldc r0, 12
	ldaw r5, dp[raster_buffer]
	ldc r2, 128
	ldc r8, 2
.Ltmp72:
.LBB2_7:                                # %afterboundcheck49
                                        # =>This Inner Loop Header: Depth=1
.Lxtalabel21:
	#DEBUG_VALUE: OLED_SSD1306_shift_left:row <- R4
	#DEBUG_VALUE: char_index <- 0
	.loc	2 215 0                 # C:/Users/takaaki/git/sw_xSSDAC/module_oled_SSD1306/src/OLED_SSD1306.xc:215:0
	shr r11, r9, r10
.Ltrap_info5:
	ecallt r11
	#DEBUG_VALUE: OLED_SSD1306_shift_left:row <- R4
	#DEBUG_VALUE: char_index <- 0
	.loc	2 215 0                 # C:/Users/takaaki/git/sw_xSSDAC/module_oled_SSD1306/src/OLED_SSD1306.xc:215:0
	ldw r7, r3[r4]
	.loc	2 215 0                 # C:/Users/takaaki/git/sw_xSSDAC/module_oled_SSD1306/src/OLED_SSD1306.xc:215:0
	add r11, r6, r7
	.loc	2 215 0                 # C:/Users/takaaki/git/sw_xSSDAC/module_oled_SSD1306/src/OLED_SSD1306.xc:215:0
	shr r11, r11, r0
.Ltrap_info6:
	ecallt r11
	#DEBUG_VALUE: OLED_SSD1306_shift_left:row <- R4
	#DEBUG_VALUE: char_index <- 0
	ldaw r11, cp[CHARBITMAP]
	add r11, r11, r7
	.loc	2 215 0                 # C:/Users/takaaki/git/sw_xSSDAC/module_oled_SSD1306/src/OLED_SSD1306.xc:215:0
	ld8u r11, r11[r6]
	.loc	2 215 0                 # C:/Users/takaaki/git/sw_xSSDAC/module_oled_SSD1306/src/OLED_SSD1306.xc:215:0
	st8 r11, r5[r9]
.Ltmp73:
	.loc	2 213 0                 # C:/Users/takaaki/git/sw_xSSDAC/module_oled_SSD1306/src/OLED_SSD1306.xc:213:0
	add r1, r1, 1
.Ltmp74:
	#DEBUG_VALUE: part <- R1
	.loc	2 213 0                 # C:/Users/takaaki/git/sw_xSSDAC/module_oled_SSD1306/src/OLED_SSD1306.xc:213:0
	add r6, r6, 8
	.loc	2 213 0                 # C:/Users/takaaki/git/sw_xSSDAC/module_oled_SSD1306/src/OLED_SSD1306.xc:213:0
	add r9, r9, r2
	.loc	2 213 0                 # C:/Users/takaaki/git/sw_xSSDAC/module_oled_SSD1306/src/OLED_SSD1306.xc:213:0
	lss r11, r1, r8
.Lxta.loop_labels3:
	# LOOPMARKER 0
	bt r11, .LBB2_7
.Ltmp75:
# BB#8:                                 # %afterboundcheck77
.Lxtalabel22:
	#DEBUG_VALUE: OLED_SSD1306_shift_left:row <- R4
	#DEBUG_VALUE: char_index <- 0
	.loc	2 218 0                 # C:/Users/takaaki/git/sw_xSSDAC/module_oled_SSD1306/src/OLED_SSD1306.xc:218:0
	ldw r0, sp[2]                   # 4-byte Folded Reload
	add r1, r0, 1
	mkmsk r0, 7
	.loc	2 219 5                 # C:/Users/takaaki/git/sw_xSSDAC/module_oled_SSD1306/src/OLED_SSD1306.xc:219:5
	lss r0, r0, r1
	bf r0, .LBB2_10
.Ltmp76:
# BB#9:
	#DEBUG_VALUE: OLED_SSD1306_shift_left:row <- R4
	ldc r1, 0
.Ltmp77:
.LBB2_10:                               # %afterboundcheck77
.Lxtalabel23:
	#DEBUG_VALUE: OLED_SSD1306_shift_left:row <- R4
	.loc	2 214 0                 # C:/Users/takaaki/git/sw_xSSDAC/module_oled_SSD1306/src/OLED_SSD1306.xc:214:0
	ldaw r8, dp[display_offset]
	#DEBUG_VALUE: OLED_SSD1306_shift_left:row <- R4
	#DEBUG_VALUE: char_index <- 0
.Ltmp78:
	.loc	2 219 0                 # C:/Users/takaaki/git/sw_xSSDAC/module_oled_SSD1306/src/OLED_SSD1306.xc:219:0
	stw r1, r8[r4]
	.loc	2 221 0                 # C:/Users/takaaki/git/sw_xSSDAC/module_oled_SSD1306/src/OLED_SSD1306.xc:221:0
	add r0, r7, 1
	.loc	2 221 0                 # C:/Users/takaaki/git/sw_xSSDAC/module_oled_SSD1306/src/OLED_SSD1306.xc:221:0
	stw r0, r3[r4]
	ldc r2, 8
	.loc	2 222 5                 # C:/Users/takaaki/git/sw_xSSDAC/module_oled_SSD1306/src/OLED_SSD1306.xc:222:5
	lss r0, r0, r2
	bt r0, .LBB2_14
.Ltmp79:
# BB#11:                                # %afterboundcheck114
.Lxtalabel24:
	#DEBUG_VALUE: OLED_SSD1306_shift_left:row <- R4
	#DEBUG_VALUE: char_index <- 0
	ldc r0, 0
	.loc	2 223 0                 # C:/Users/takaaki/git/sw_xSSDAC/module_oled_SSD1306/src/OLED_SSD1306.xc:223:0
	stw r0, r3[r4]
	.loc	2 224 0                 # C:/Users/takaaki/git/sw_xSSDAC/module_oled_SSD1306/src/OLED_SSD1306.xc:224:0
	ldw r2, sp[1]                   # 4-byte Folded Reload
	add r2, r2, 1
	ldc r3, 254
	.loc	2 225 9                 # C:/Users/takaaki/git/sw_xSSDAC/module_oled_SSD1306/src/OLED_SSD1306.xc:225:9
	lss r3, r3, r2
	bt r3, .LBB2_13
.Ltmp80:
# BB#12:                                # %afterboundcheck114
.Lxtalabel25:
	#DEBUG_VALUE: OLED_SSD1306_shift_left:row <- R4
	#DEBUG_VALUE: char_index <- 0
	.loc	2 225 9                 # C:/Users/takaaki/git/sw_xSSDAC/module_oled_SSD1306/src/OLED_SSD1306.xc:225:9
	mov r0, r2
.Ltmp81:
.LBB2_13:                               # %afterboundcheck114
.Lxtalabel26:
	#DEBUG_VALUE: OLED_SSD1306_shift_left:row <- R4
	#DEBUG_VALUE: char_index <- 0
	.loc	2 202 0                 # C:/Users/takaaki/git/sw_xSSDAC/module_oled_SSD1306/src/OLED_SSD1306.xc:202:0
	ldaw r2, dp[rendering_col]
	.loc	2 225 0                 # C:/Users/takaaki/git/sw_xSSDAC/module_oled_SSD1306/src/OLED_SSD1306.xc:225:0
.Ltmp82:
	stw r0, r2[r4]
.Ltmp83:
.LBB2_14:                               # %afterboundcheck154.preheader
.Lxtalabel27:
	#DEBUG_VALUE: OLED_SSD1306_shift_left:row <- R4
	#DEBUG_VALUE: char_index <- 0
	ldw r5, sp[3]                   # 4-byte Folded Reload
	.loc	2 229 0                 # C:/Users/takaaki/git/sw_xSSDAC/module_oled_SSD1306/src/OLED_SSD1306.xc:229:0
.Ltmp84:
	mov r0, r5
.Lxta.call_labels4:
	bl send_page
	mkmsk r6, 1
.Ltmp85:
	#DEBUG_VALUE: part <- 1
	.loc	2 229 0                 # C:/Users/takaaki/git/sw_xSSDAC/module_oled_SSD1306/src/OLED_SSD1306.xc:229:0
	or r0, r5, r6
	.loc	2 229 0                 # C:/Users/takaaki/git/sw_xSSDAC/module_oled_SSD1306/src/OLED_SSD1306.xc:229:0
	ldw r1, r8[r4]
	.loc	2 229 0                 # C:/Users/takaaki/git/sw_xSSDAC/module_oled_SSD1306/src/OLED_SSD1306.xc:229:0
.Lxta.call_labels5:
	bl send_page
	bu .LBB2_15
.Ltmp86:
.LBB2_3:                                # %afterboundcheck17
.Lxtalabel28:
	#DEBUG_VALUE: OLED_SSD1306_shift_left:row <- R4
	ldc r6, 0
	.loc	2 205 0                 # C:/Users/takaaki/git/sw_xSSDAC/module_oled_SSD1306/src/OLED_SSD1306.xc:205:0
	stw r6, r1[r4]
.Ltmp87:
.LBB2_15:                               # %return
	mov r0, r6
	ldw r10, sp[10]                 # 4-byte Folded Reload
	ldd r9, r8, sp[4]               # 4-byte Folded Reload
	ldd r7, r6, sp[3]               # 4-byte Folded Reload
	ldd r5, r4, sp[2]               # 4-byte Folded Reload
	retsp 12
	# RETURN_REG_HOLDER
	.cc_bottom OLED_SSD1306_shift_left.function
	.set	OLED_SSD1306_shift_left.nstackwords,(send_page.nstackwords + 12)
	.globl	OLED_SSD1306_shift_left.nstackwords
	.set	OLED_SSD1306_shift_left.maxcores,send_page.maxcores $M 1
	.globl	OLED_SSD1306_shift_left.maxcores
	.set	OLED_SSD1306_shift_left.maxtimers,send_page.maxtimers $M 0
	.globl	OLED_SSD1306_shift_left.maxtimers
	.set	OLED_SSD1306_shift_left.maxchanends,send_page.maxchanends $M 0
	.globl	OLED_SSD1306_shift_left.maxchanends
.Ltmp88:
	.size	OLED_SSD1306_shift_left, .Ltmp88-OLED_SSD1306_shift_left
.Lfunc_end2:
	.cfi_endproc

	.globl	send_page
	.align	4
	.type	send_page,@function
	.cc_top send_page.function,send_page
send_page:                              # @send_page
.Lfunc_begin3:
	.loc	2 115 0                 # C:/Users/takaaki/git/sw_xSSDAC/module_oled_SSD1306/src/OLED_SSD1306.xc:115:0
	.cfi_startproc
	.issue_mode single
# BB#0:                                 # %allocas
.Lxtalabel29:
	ENTSP_lu6 10
.Ltmp89:
	.cfi_def_cfa_offset 40
.Ltmp90:
	.cfi_offset 15, 0
	std r5, r4, sp[3]               # 4-byte Folded Spill
.Ltmp91:
	.cfi_offset 4, -16
.Ltmp92:
	.cfi_offset 5, -12
	std r7, r6, sp[4]               # 4-byte Folded Spill
.Ltmp93:
	.cfi_offset 6, -8
.Ltmp94:
	.cfi_offset 7, -4
	#DEBUG_VALUE: send_page:page <- R0
	#DEBUG_VALUE: send_page:offset <- R1
	mov r4, r1
.Ltmp95:
	#DEBUG_VALUE: send_page:offset <- R4
	mov r5, r0
.Ltmp96:
	#DEBUG_VALUE: send_page:page <- R5
	ldc r0, 176
	.loc	2 119 0 prologue_end    # C:/Users/takaaki/git/sw_xSSDAC/module_oled_SSD1306/src/OLED_SSD1306.xc:119:0
.Ltmp97:
	or r0, r5, r0
	.loc	2 121 0                 # C:/Users/takaaki/git/sw_xSSDAC/module_oled_SSD1306/src/OLED_SSD1306.xc:121:0
	ldc r2, 0
	ldaw r3, sp[5]
	.loc	2 119 0                 # C:/Users/takaaki/git/sw_xSSDAC/module_oled_SSD1306/src/OLED_SSD1306.xc:119:0
	st8 r0, r3[r2]
	mkmsk r0, 1
	.loc	2 120 0                 # C:/Users/takaaki/git/sw_xSSDAC/module_oled_SSD1306/src/OLED_SSD1306.xc:120:0
	or r0, r3, r0
	ldc r1, 16
	.loc	2 120 0                 # C:/Users/takaaki/git/sw_xSSDAC/module_oled_SSD1306/src/OLED_SSD1306.xc:120:0
	st8 r1, r0[r2]
	ldc r0, 2
	.loc	2 121 0                 # C:/Users/takaaki/git/sw_xSSDAC/module_oled_SSD1306/src/OLED_SSD1306.xc:121:0
	or r1, r3, r0
	.loc	2 121 0                 # C:/Users/takaaki/git/sw_xSSDAC/module_oled_SSD1306/src/OLED_SSD1306.xc:121:0
	st8 r0, r1[r2]
	mkmsk r0, 2
	.loc	2 133 0                 # C:/Users/takaaki/git/sw_xSSDAC/module_oled_SSD1306/src/OLED_SSD1306.xc:133:0
	stw r0, sp[2]
	stw r0, sp[1]
	ldaw r6, dp[r_i2c2]
	ldc r7, 60
	mov r0, r6
	mov r1, r7
.Lxta.call_labels6:
	bl i2c_shared_master_write_reg
	.loc	2 141 0                 # C:/Users/takaaki/git/sw_xSSDAC/module_oled_SSD1306/src/OLED_SSD1306.xc:141:0
.Ltmp98:
	shl r0, r5, 7
.Ltmp99:
	#DEBUG_VALUE: start <- R0
	mkmsk r1, 7
	.loc	2 142 0                 # C:/Users/takaaki/git/sw_xSSDAC/module_oled_SSD1306/src/OLED_SSD1306.xc:142:0
.Ltmp100:
	or r1, r0, r1
.Ltmp101:
	#DEBUG_VALUE: end <- R1
	.loc	2 144 0                 # C:/Users/takaaki/git/sw_xSSDAC/module_oled_SSD1306/src/OLED_SSD1306.xc:144:0
	std r4, r1, sp[1]
	ldc r1, 1024
.Ltmp102:
	stw r1, sp[4]
	stw r0, sp[1]
	ldaw r3, dp[raster_buffer]
	ldc r2, 64
	mov r0, r6
.Ltmp103:
	mov r1, r7
.Lxta.call_labels7:
	bl i2c_shared_master_write_part
	ldd r7, r6, sp[4]               # 4-byte Folded Reload
	ldd r5, r4, sp[3]               # 4-byte Folded Reload
.Ltmp104:
	retsp 10
	# RETURN_REG_HOLDER
.Ltmp105:
	.cc_bottom send_page.function
	.set	send_page.nstackwords,((i2c_shared_master_write_reg.nstackwords $M i2c_shared_master_write_part.nstackwords) + 10)
	.globl	send_page.nstackwords
	.set	send_page.maxcores,i2c_shared_master_write_part.maxcores $M i2c_shared_master_write_reg.maxcores $M 1
	.globl	send_page.maxcores
	.set	send_page.maxtimers,i2c_shared_master_write_part.maxtimers $M i2c_shared_master_write_reg.maxtimers $M 0
	.globl	send_page.maxtimers
	.set	send_page.maxchanends,i2c_shared_master_write_part.maxchanends $M i2c_shared_master_write_reg.maxchanends $M 0
	.globl	send_page.maxchanends
.Ltmp106:
	.size	send_page, .Ltmp106-send_page
.Lfunc_end3:
	.cfi_endproc

	.section	.cp.rodata,"ac",@progbits
	.cc_top CHARBITMAP.data,CHARBITMAP
	.globl	CHARBITMAP.globound
CHARBITMAP.globound = 4096
	.globl	CHARBITMAP
	.align	8
	.type	CHARBITMAP,@object
	.size	CHARBITMAP, 4096
CHARBITMAP:
.asciiz"\000\000\000\000\000\000\000\000\000\000\000\000\000\000\000\000\360\bH\bH\b\360\000\017\020\022\026\022\020\017\000\360\370\270\370\270\370\360\000\017\037\035\031\035\037\017\000\200\300\300\200\300\300\200\000\001\003\007\017\007\003\001\000\000\200\300\340\300\200\000\000\001\003\007\017\007\003\001\000\000\000\340\340\340\000\000\000\007\007\027\030\027\007\007\000\000\200\300\340\300\200\000\000\003\007\023\037\023\007\003\000\000\000\000\200\200\000\000\000\000\000\003\007\007\003\000\000\376\376\376~~\376\376\376\377\377\374\370\370\374\377\377\001\201\301AA\301\201\001\000\007\f\b\b\f\007\000\376~>\276\276>~\376\377\370\363\367\367\363\370\377\001\001\001\311)\0319\001\016\021\021\021\021\021\016\000p\210\210\210\210\210p\000\000\004\004\037\004\004\000\000\000\000\000\370((8\000\034\034\034\017\000\000\000\000\000\000\370(((\370\000\034\034\017\000\016\016\007\000\220` 8 `\220\000\023\f\b8\b\f\023\000\300\300\200\000\000\000\000\000\037\037\017\007\002\000\000\000\000\000\200\300\300\000\000\000\002\007\017\037\037\000\000\000@ \020\370\020 @\000\002\004\b\037\b\004\002\000\000\370\000\000\000\370\000\000\000\033\000\000\000\033\000\000p\370\370\370\b\b\370\000\000\000\000\037\000\000\037\000\210T$$D\210\000\000\021\"$$*\021\000\000\000\000\000\000\000\000\000\000\036\036\036\036\036\036\036\000@ \020\370\020 @\000\022\024\030\037\030\024\022\000@ \020\370\020 @\000\000\000\000\037\000\000\000\000\000\000\000\370\000\000\000\000\002\004\b\037\b\004\002\000\000\000\000 @\200\000\000\001\001\001\t\005\003\001\000\000\200@ \000\000\000\000\001\003\005\t\001\001\001\000\200\000\000\000\000\000\000\000\007\004\004\004\004\004\004\000\000\200@\000\000@\200\000\001\003\005\001\001\005\003\001\000\000\200\300\200\000\000\000\006\007\007\007\007\007\006\000\300\300\300\300\300\300\300\000\000\001\003\007\003\001\000\000\000\000\000\000\000\000\000\000\000\000\000\000\000\000\000\000\000\000\000\370\000\000\000\000\000\000\000\033\000\000\000\000\000<\000\000<\000\000\000\000\000\000\000\000\000\000\000@\360@@@\360@\000\004\037\004\004\004\037\004\000\340\020\020|\020\020 \000\b\021\021}\021\021\016\000 pp \200@ \000\b\004\002\t\034\034\b\000\000p\210\210p\000\200\000\016\021\020\020\021\016\021\000\000\000 \034\000\000\000\000\000\000\000\000\000\000\000\000\000\000\340\020\b\000\000\000\000\000\007\b\020\000\000\000\000\000\b\020\340\000\000\000\000\000\020\b\007\000\000\000\000@\200\340\200@\000\000\001\005\003\017\003\005\001\000\000\000\000\340\000\000\000\000\001\001\001\017\001\001\001\000\000\000\000\000\000\000\000\000\000\000@8\000\000\000\000\000\000\000\000\000\000\000\000\001\001\001\001\001\001\001\000\000\000\000\000\000\000\000\000\000\000\030\030\000\000\000\000\000\000\000\000\000\200@\000\020\b\004\002\001\000\000\000\340\020\b\210\b\020\340\000\007\b\020\021\020\b\007\000\000 \020\370\000\000\000\000\000\020\020\037\020\020\000\000\020\b\b\b\b\210p\000\020\030\024\022\021\020\020\000\020\b\210\210\210\210p\000\b\020\020\020\020\020\017\000\000\200@ \020\370\000\000\003\002\002\002\002\037\002\000\370\210\210\210\210\210\b\000\t\020\020\020\020\020\017\000\360\210\210\210\210\210\000\000\017\020\020\020\020\020\017\000\b\b\b\b\210H8\000\000\000\000\037\000\000\000\0000\310\210\210\210\3100\000\017\020\020\020\020\020\017\000\360\b\b\b\b\b\360\000\000\021\021\021\021\021\017\000\000\000\000\300\000\000\000\000\000\000\000\030\000\000\000\000\000\000\000\300\000\000\000\000\000\000@8\000\000\000\000\000\000\200@ \020\000\000\000\001\002\004\b\020\000\000@@@@@@@\000\002\002\002\002\002\002\002\000\000\020 @\200\000\000\000\000\020\b\004\002\001\000\0000\b\b\b\210\210p\000\000\000\000\033\000\000\000\000\360\b\310H\310\b\360\000\017\020\021\022\023\022\001\000\340\020\b\b\b\020\340\000\037\001\001\001\001\001\037\000\370\210\210\210\210\210p\000\037\020\020\020\020\020\017\000\360\b\b\b\b\b\020\000\017\020\020\020\020\020\f\000\370\b\b\b\b\020\340\000\037\020\020\020\020\b\007\000\370\210\210\210\210\210\b\000\037\020\020\020\020\020\020\000\370\210\210\210\210\210\b\000\037\000\000\000\000\000\000\000\360\b\b\210\210\210\220\000\017\020\020\020\020\020\037\000\370\200\200\200\200\200\370\000\037\000\000\000\000\000\037\000\000\b\b\370\b\b\000\000\000\020\020\037\020\020\000\000\000\000\b\b\b\370\b\000\b\020\020\020\020\017\000\000\370\200@ \020\b\000\000\037\000\001\002\004\b\020\000\370\000\000\000\000\000\000\000\037\020\020\020\020\020\020\000\370\020 \300 \020\370\000\037\000\000\000\000\000\037\000\370\020 @\200\000\370\000\037\000\000\000\000\001\037\000\360\b\b\b\b\b\360\000\017\020\020\020\020\020\017\000\370\210\210\210\210\210p\000\037\000\000\000\000\000\000\000\360\b\b\b\b\b\360\000\017\020\020\0360P\017\000\370\210\210\210\210\210p\000\037\000\000\000\000\001\036\0000H\310\210\b\b\020\000\f\020\020\020\021\021\016\000\b\b\b\370\b\b\b\000\000\000\000\037\000\000\000\000\370\000\000\000\000\000\370\000\017\020\020\020\020\020\017\000\370\000\000\000\000\000\370\000\003\004\b\020\b\004\003\000\370\000\000\000\000\000\370\000\017\020\b\007\b\020\017\000\030 @\200@ \030\000\034\002\001\000\001\002\034\0008@\200\000\200@8\000\000\000\000\037\000\000\000\000\b\b\b\210H(\030\000\034\022\021\020\020\020\020\000\000\000\370\b\b\000\000\000\000\000\037\020\020\000\000\000@\200\000\000\000\000\000\000\000\000\001\002\004\b\020\000\000\000\b\b\370\000\000\000\000\000\020\020\037\000\000\000\020\b\004\002\004\b\020\000\000\000\000\000\000\000\000\000\000\000\000\000\000\000\000\000@@@@@@@\000\000\000\034 \000\000\000\000\000\000\000\000\000\000\000\000\000@@@@\200\000\000\f\022\022\022\022\037\020\000\370\200@@@@\200\000\037\020\020\020\020\020\017\000\200@@@@@\200\000\017\020\020\020\020\020\b\000\200@@@@\200\370\000\017\020\020\020\020\020\037\000\200@@@@@\200\000\017\022\022\022\022\022\003\000@@\360HH\b\000\000\000\000\037\000\000\000\000\000\200@@@@@\300\000\017\220\220\220\220\210\177\000\370\200@@@@\200\000\037\000\000\000\000\000\037\000\000@@\330\000\000\000\000\000\020\020\037\020\020\000\000\000\000@@\330\000\000\000\000\200\200\200\177\000\000\000\370\000\000\200\200@@\000\037\001\001\002\004\b\020\000\000\b\370\000\000\000\000\000\000\000\017\020\020\020\000\000\300@@\200@@\200\000\037\000\000\037\000\000\037\000\300\200@@@@\200\000\037\000\000\000\000\000\037\000\200@@@@@\200\000\017\020\020\020\020\020\017\000\300\200@@@@\200\000\377\b\020\020\020\020\017\000\200@@@@@\300\000\017\020\020\020\020\b\377\000\300\200@@@@\200\000\037\000\000\000\000\000\000\000\200@@@@@@\000\021\022\022\022\022\022\f\000@@\360@@@\000\000\000\000\017\020\020\020\000\000\300\000\000\000\000\000\300\000\017\020\020\020\020\b\037\000\300\000\000\000\000\000\300\000\003\004\b\020\b\004\003\000\300\000\000\000\000\000\300\000\017\020\020\016\020\020\017\000@\200\000\000\000\200@\000\020\b\005\002\005\b\020\000\300\000\000\000\000\000\300\000\017\220\220\220\220\210\177\000@@@@@\300@\000\020\030\024\022\021\020\020\000\000\200\200p\b\b\000\000\000\000\000\017\020\020\000\000\000\000\000\374\000\000\000\000\000\000\000\377\000\000\000\000\000\b\bp\200\200\000\000\000\020\020\017\000\000\000\0000\b\b\020  \030\000\000\000\000\000\000\000\000\000\000\000\200@\200\000\000\000\036\021\020\020\020\021\036\000\360\b\b\b\b\b\020\000\017\220\220\260P\020\f\000\220\220\220\220\220\220\220\220\t\t\t\t\t\t\t\t\000\360\020\220\220\220\220\220\000\377\000\377\377\001\371\t\220\237\200\377\377\000\377\000\t\t\t\t\t\b\017\000\000\377\000\377\377\000\377\000\000\377\000\377\377\000\377\000\220\220\220\220\220\020\360\000\t\371\001\377\377\000\377\000\000\377\000\377\377\200\237\220\000\017\b\t\t\t\t\t\200@@@@@\200\000\017\220\220\260P\020\b\000\200PHDHP\200\000\017\022\022\022\022\022\023\000\200X@@@X\200\000\017\022\022\022\022\022\023\000\200@DHP@\200\000\017\022\022\022\022\022\023\000\000X@\300\030\000\000\000\000\020\020\037\020\020\000\000\000PH\304\b\020\000\000\000\020\020\037\020\020\000\000\000DH\320\000\000\000\000\000\020\020\037\020\020\000\000\300&\020\020\020&\300\000\037\002\002\002\002\002\037\000\300,\022\022\022,\300\000\037\002\002\002\002\002\037\000\360\020\024\024\022\022\020\000\037\021\021\021\021\021\020\000\200@@\200@@\200\000\f\022\022\017\022\022\023\000\340\220\210\210\370\210\210\000\037\000\000\000\037\020\020\000\200PHDHP\200\000\017\020\020\020\020\020\017\000\200X@@@X\200\000\017\020\020\020\020\020\017\000\200@DHP@\200\000\017\020\020\020\020\020\017\000\300\020\b\004\b\020\300\000\017\020\020\020\020\b\037\000\300\000\004\b\020\000\300\000\017\020\020\020\020\b\037\000\300\030\000\000\000\030\300\000\017\220\220\220\220\210\177\000\340\026\020\020\020\026\340\000\017\020\020\020\020\020\017\000\360\006\000\000\000\006\360\000\017\020\020\020\020\020\017\000\300  8  @\000\003\004\004\034\004\004\002\000\200\360\210\210\b\020\000\000\020\037\b\b\020\020\b\000\030 @\200@ \030\000\000\005\005\037\005\005\000\000\370HHHH0\000\000\037\000\000\002\017\022\000\000\000\000\000\360\b\b\020\000@\201\201\177\001\001\000\000\000@PHD@\200\000\f\022\022\022\022\022\037\000\000@P\310\004\000\000\000\000\020\020\037\020\020\000\000\200@PHD@\200\000\017\020\020\020\020\020\017\000\300\000\020\b\004\000\300\000\017\020\020\020\020\b\037\000\310\204DHHD\200\000\037\000\000\000\000\000\037\000\364\"B\204\004\002\360\000\037\000\000\000\001\002\037\000\000 TTTx\000\000\000\001\001\001\001\001\000\000\0008DDD8\000\000\000\001\001\001\001\001\000\000\000\000\000\330\000\000\000\000\016\021\021\020\020\020\f\000\200\200\200\200\200\200\000\000\017\000\000\000\000\000\000\000\200\200\200\200\200\200\000\000\000\000\000\000\000\017\000\000|\000\200@ \020\000\000\002\001DdTH\000\000|\000\000\200@ \000\000\004\002\021\030\024~\000\000\000\000\000\330\000\000\000\000\000\000\000\037\000\000\000\000\000\200@\000\200@\000\000\001\002\004\001\002\004\000\000@\200\000@\200\000\000\000\004\002\001\004\002\001\000\000\000T\000\252\000T\000\252\000U\000\252\000U\000\252T\253T\252T\253T\252U\252U\252U\252U\252\253\376U\376\253\376U\376\252\377U\377\252\377U\377\000\001\001\001\376\001\001\001\000\000\000\000\377\000\000\000\000\000\000\000\377\000\000\000\001\001\001\001\377\000\000\000@@@@\377\000\000\000\001\001\001\001\377\000\000\000\000\000\376\000\001\376\000\000\001\001\377\000\000\377\000\000\000\000\001\000\000\001\000\000\001\001\377\001\001\377\000\000@@A@\300\001\000\000\001\001\001\001\377\000\000\000@@~\000\001\376\000\000\001\001\377\000\000\377\000\000\000\000\377\000\000\377\000\000\000\000\377\000\000\377\000\000@@A@@\301\000\000\001\001\377\000\000\377\000\000@@\177\000\000\377\000\000\001\001\001\001\001\001\000\000\000\000\376\000\000\376\000\000\001\001\001\001\001\001\000\000@@@@\376\000\000\000\001\001\001\001\001\000\000\000\000\000\000\000\000\000\000\000\001\001\001\001\377\000\000\000\000\000\000\000\377\000\000\000\000\000\000\000\001\001\001\001\000\000\000\000\376\000\000\000\001\001\001\001\001\001\001\001\000\000\000\000\000\000\000\000\001\001\001\001\377\001\001\001\000\000\000\000\377\000\000\000\000\000\000\000\377\001\001\001\000\000\000\000\001\000\000\000\001\001\001\001\001\001\001\001\000\000\000\000\376\000\000\000\001\001\001\001\377\001\001\001\000\000\000\000\377@@@\000\000\000\000\377\001\001\001\000\000\376\000\001\376\000\000\000\000\377\000\000\377\001\001\000\000\377\000\000\177@@\000\000\001\001\001\001\001\001\000\000\300@@@@@\000\000\377\000\000\377\001\001@@\177\000\000\177@@\001\001\001\001\001\001\001\001@@@@@@@@\001\001\377\000\000\377\001\001\000\000\377\000\000\177@@\000\000\377\000\000\377\001\001@@A@@A@@\001\001\001\001\001\001\001\001@@~\000\000~@@\001\001\377\000\000\377\001\001@@A@~A@@\001\001\001\001\001\001\001\001\000\000\376\000\000\376\000\000\001\001\001\001\001\001\001\001@@@@@@@@\001\001\001\001\377\001\001\001\000\000\000\000\001\000\000\000\001\001\377\001\001\377\001\001\000\000\377\000\000\377\000\000\000\000\001\001\001\001\001\001\000\000\000\000\376@@@\000\000\000\000\001\001\001\001\000\000\000\000\300@@@\000\000\000\000\377\001\001\001\000\000\000\000\001\000\000\000\000\000\377\001\001\377\001\001\000\000\377\000\000\377\000\000\001\001\377\001\001\377\001\001@@A@\376A@@\001\001\001\001\377\001\001\001\000\000\000\000\377\000\000\000\001\001\001\001\001\000\000\000\000\000\000\000\000\000\000\000\000\000\000\000\377\001\001\001\376\376\376\376\377\376\376\376\377\377\377\377\377\377\377\377\001\001\001\001\001\001\001\001\377\377\377\377\377\377\377\377\377\377\377\377\001\001\001\001\377\377\377\377\000\000\000\000\001\001\001\001\376\376\376\376\000\000\000\000\377\377\377\377\376\376\376\376\377\377\377\377\000\000\000\000\000\000\000\000\300 \020\020\020\020 \300\003\004\b\b\b\b\004\003\300 \020\220\220\020 \300\003\004\b\t\t\b\004\003\360\020\020\020\020\020\020\360\017\b\b\b\b\b\b\017\360\020\020\220\220\020\020\360\017\b\b\t\t\b\b\017\000\000\340  \340\000\000\000\000\007\004\004\007\000\000\370\b\350((\350\b\370\037\020\027\024\024\027\020\037U\252U\252\000\000\000\000U\252U\252\000\000\000\000\000\000\000\000\252U\252U\000\000\000\000\252U\252UU\252U\252U\252U\252\000\000\000\000\000\000\000\000\000\000\000\000\000\000\000\000U\252U\252U\252U\252\000\000\000\377\377\000\000\000\000\000\000\377\377\000\000\000\200\200\200\200\200\200\200\200\001\001\001\001\001\001\001\001\200\200\200\377\377\000\000\000\001\001\001\001\001\000\000\000\000\000\000\200\200\200\200\200\000\000\000\377\377\001\001\001\200\200\200\200\200\000\000\000\001\001\001\377\377\000\000\000\340\020\020\020\020\020\340\000\037\000\000\000\000\000\037\000\000\000\000\377\377\200\200\200\000\000\000\001\001\001\001\001@@@\370@@@\000\b\b\b\013\b\b\b\000\000\000\020 @\200\000\000\000\020\024\022\021\020\000\000\000\200@ \020\000\000\000\000\020\021\022\024\020\000\000\000\000\000\360\b\b0\000\000\000\000\377\000\000\000\000\000\000\000\377\000\000\000\000\f\020\020\017\000\000\000\000\000\000\000`\000\000\000\000\001\001\001\r\001\001\001\000\200@@\200\200@\000\000\004\002\002\004\004\002\000\000\3600P\220\220P0\360\017\f\n\t\t\n\f\017\000\000\000\000\000\000\000\000\000\000\003\003\000\000\000\000\000\000\000\000\000\000\000\000\000\000\002\002\000\000\000\000\000\000\000\000\374\004\004\000\002\002\004\b\037\000\000\000\004\370\004\004\004\370\000\000\000\000\000\000\000\000\000\000\210\304\244\230\000\000\000\000\000\000\000\000\000\000\000\000\000\340\340\340\340\340\000\000\000\017\017\017\017\017\000\000\000\000\000\000\000\000\000\000\000\000\000\000\000\000\000"
	.cc_bottom CHARBITMAP.data
	.cc_top OLED_SSD1306_DISPLAY_INIT.data,OLED_SSD1306_DISPLAY_INIT
	.globl	OLED_SSD1306_DISPLAY_INIT.globound
OLED_SSD1306_DISPLAY_INIT.globound = 28
	.globl	OLED_SSD1306_DISPLAY_INIT
	.align	8
	.type	OLED_SSD1306_DISPLAY_INIT,@object
	.size	OLED_SSD1306_DISPLAY_INIT, 28
OLED_SSD1306_DISPLAY_INIT:
	.ascii	"\256\215\024\250?@\240\300\201\177\244\246\325\200. \000!\000\177\"\000\007\323\000\332\022\257"
	.cc_bottom OLED_SSD1306_DISPLAY_INIT.data
	.section	.dp.bss.4,"awd",@nobits
	.cc_top _x.data,_x
	.globl	_x
	.align	4
	.type	_x,@object
	.size	_x, 1
_x:
	.byte	0                       # 0x0
	.space	3
	.cc_bottom _x.data
	.cc_top _y.data,_y
	.globl	_y
	.align	4
	.type	_y,@object
	.size	_y, 1
_y:
	.byte	0                       # 0x0
	.space	3
	.cc_bottom _y.data
	.cc_top time.data,time
	.globl	time
	.align	4
	.type	time,@object
	.size	time, 4
time:
	.long	0                       # 0x0
	.cc_bottom time.data
	.section	.dp.bss,"awd",@nobits
	.cc_top string_ptr.data,string_ptr
	.globl	string_ptr.globound
string_ptr.globound = 4
	.globl	string_ptr
	.align	8
	.type	string_ptr,@object
	.size	string_ptr, 16
string_ptr:
	.space	16
	.cc_bottom string_ptr.data
	.cc_top terminator_found_before_eol.data,terminator_found_before_eol
	.globl	terminator_found_before_eol.globound
terminator_found_before_eol.globound = 4
	.globl	terminator_found_before_eol
	.align	8
	.type	terminator_found_before_eol,@object
	.size	terminator_found_before_eol, 16
terminator_found_before_eol:
	.space	16
	.cc_bottom terminator_found_before_eol.data
	.cc_top raster_buffer.data,raster_buffer
	.globl	raster_buffer.globound
raster_buffer.globound = 1024
	.globl	raster_buffer
	.align	8
	.type	raster_buffer,@object
	.size	raster_buffer, 1024
raster_buffer:
	.space	1024
	.cc_bottom raster_buffer.data
	.cc_top display_offset.data,display_offset
	.globl	display_offset.globound
display_offset.globound = 4
	.globl	display_offset
	.align	8
	.type	display_offset,@object
	.size	display_offset, 16
display_offset:
	.space	16
	.cc_bottom display_offset.data
	.cc_top rendering_col.data,rendering_col
	.globl	rendering_col.globound
rendering_col.globound = 4
	.globl	rendering_col
	.align	8
	.type	rendering_col,@object
	.size	rendering_col, 16
rendering_col:
	.space	16
	.cc_bottom rendering_col.data
	.cc_top rendering_x.data,rendering_x
	.globl	rendering_x.globound
rendering_x.globound = 4
	.globl	rendering_x
	.align	8
	.type	rendering_x,@object
	.size	rendering_x, 16
rendering_x:
	.space	16
	.cc_bottom rendering_x.data
	.section	.cp.rodata,"ac",@progbits
.Ldebug_end0:
	.section	.dp.bss.4,"awd",@nobits
.Ldebug_end1:
	.section	.dp.bss,"awd",@nobits
.Ldebug_end2:
	.text
.Ldebug_end3:
	.file	3 "C:\\Program Files (x86)\\XMOS\\xTIMEcomposer\\Community_14.4.1\\target/include\\timer.h"
	.file	4 "C:\\Program Files (x86)\\XMOS\\xTIMEcomposer\\Community_14.4.1\\target/include/xc\\safe\\string.h"
	.section	.xtacalltable,"",@progbits
.Lentries_start0:
	.long	.Lentries_end1-.Lentries_start0
	.long	0
	.ascii	"C:\\Users\\takaaki\\git\\sw_xSSDAC\\app_usb_sdc_ssdac_xSSDAC-SD-V2\\.build_Release"
	.byte	0
.cc_top cc_0,.Lxta.call_labels0
	.ascii	"C:/Users/takaaki/git/sw_xSSDAC/module_oled_SSD1306/src/OLED_SSD1306.xc"
	.byte	0
	.long	102
	.long	.Lxta.call_labels0
.cc_bottom cc_0
.cc_top cc_1,.Lxta.call_labels1
	.ascii	"C:/Users/takaaki/git/sw_xSSDAC/module_oled_SSD1306/src/OLED_SSD1306.xc"
	.byte	0
	.long	103
	.long	.Lxta.call_labels1
.cc_bottom cc_1
.cc_top cc_2,.Lxta.call_labels6
	.ascii	"C:/Users/takaaki/git/sw_xSSDAC/module_oled_SSD1306/src/OLED_SSD1306.xc"
	.byte	0
	.long	133
	.long	.Lxta.call_labels6
.cc_bottom cc_2
.cc_top cc_3,.Lxta.call_labels7
	.ascii	"C:/Users/takaaki/git/sw_xSSDAC/module_oled_SSD1306/src/OLED_SSD1306.xc"
	.byte	0
	.long	144
	.long	.Lxta.call_labels7
.cc_bottom cc_3
.cc_top cc_4,.Lxta.call_labels2
	.ascii	"C:/Users/takaaki/git/sw_xSSDAC/module_oled_SSD1306/src/OLED_SSD1306.xc"
	.byte	0
	.long	192
	.long	.Lxta.call_labels2
.cc_bottom cc_4
.cc_top cc_5,.Lxta.call_labels3
	.ascii	"C:/Users/takaaki/git/sw_xSSDAC/module_oled_SSD1306/src/OLED_SSD1306.xc"
	.byte	0
	.long	192
	.long	.Lxta.call_labels3
.cc_bottom cc_5
.cc_top cc_6,.Lxta.call_labels4
	.ascii	"C:/Users/takaaki/git/sw_xSSDAC/module_oled_SSD1306/src/OLED_SSD1306.xc"
	.byte	0
	.long	229
	.long	.Lxta.call_labels4
.cc_bottom cc_6
.cc_top cc_7,.Lxta.call_labels5
	.ascii	"C:/Users/takaaki/git/sw_xSSDAC/module_oled_SSD1306/src/OLED_SSD1306.xc"
	.byte	0
	.long	229
	.long	.Lxta.call_labels5
.cc_bottom cc_7
.Lentries_end1:
	.section	.xtalabeltable,"",@progbits
.Lentries_start2:
	.long	.Lentries_end3-.Lentries_start2
	.long	0
	.ascii	"C:\\Users\\takaaki\\git\\sw_xSSDAC\\app_usb_sdc_ssdac_xSSDAC-SD-V2\\.build_Release"
	.byte	0
.cc_top cc_8,.Lxtalabel0
	.ascii	"C:/Users/takaaki/git/sw_xSSDAC/module_oled_SSD1306/src/OLED_SSD1306.xc"
	.byte	0
	.long	99
	.long	100
	.long	.Lxtalabel0
.cc_bottom cc_8
.cc_top cc_9,.Lxtalabel0
	.ascii	"C:/Users/takaaki/git/sw_xSSDAC/module_oled_SSD1306/src/OLED_SSD1306.xc"
	.byte	0
	.long	102
	.long	104
	.long	.Lxtalabel0
.cc_bottom cc_9
.cc_top cc_10,.Lxtalabel0
	.ascii	"C:/Users/takaaki/git/sw_xSSDAC/module_oled_SSD1306/src/OLED_SSD1306.xc"
	.byte	0
	.long	105
	.long	105
	.long	.Lxtalabel0
.cc_bottom cc_10
.cc_top cc_11,.Lxtalabel0
	.ascii	"C:/Users/takaaki/git/sw_xSSDAC/module_oled_SSD1306/src/OLED_SSD1306.xc"
	.byte	0
	.long	106
	.long	106
	.long	.Lxtalabel0
.cc_bottom cc_11
.cc_top cc_12,.Lxtalabel0
	.ascii	"C:/Users/takaaki/git/sw_xSSDAC/module_oled_SSD1306/src/OLED_SSD1306.xc"
	.byte	0
	.long	107
	.long	110
	.long	.Lxtalabel0
.cc_bottom cc_12
.cc_top cc_13,.Lxtalabel29
	.ascii	"C:/Users/takaaki/git/sw_xSSDAC/module_oled_SSD1306/src/OLED_SSD1306.xc"
	.byte	0
	.long	118
	.long	121
	.long	.Lxtalabel29
.cc_bottom cc_13
.cc_top cc_14,.Lxtalabel29
	.ascii	"C:/Users/takaaki/git/sw_xSSDAC/module_oled_SSD1306/src/OLED_SSD1306.xc"
	.byte	0
	.long	133
	.long	134
	.long	.Lxtalabel29
.cc_bottom cc_14
.cc_top cc_15,.Lxtalabel29
	.ascii	"C:/Users/takaaki/git/sw_xSSDAC/module_oled_SSD1306/src/OLED_SSD1306.xc"
	.byte	0
	.long	135
	.long	135
	.long	.Lxtalabel29
.cc_bottom cc_15
.cc_top cc_16,.Lxtalabel29
	.ascii	"C:/Users/takaaki/git/sw_xSSDAC/module_oled_SSD1306/src/OLED_SSD1306.xc"
	.byte	0
	.long	136
	.long	136
	.long	.Lxtalabel29
.cc_bottom cc_16
.cc_top cc_17,.Lxtalabel29
	.ascii	"C:/Users/takaaki/git/sw_xSSDAC/module_oled_SSD1306/src/OLED_SSD1306.xc"
	.byte	0
	.long	137
	.long	139
	.long	.Lxtalabel29
.cc_bottom cc_17
.cc_top cc_18,.Lxtalabel29
	.ascii	"C:/Users/takaaki/git/sw_xSSDAC/module_oled_SSD1306/src/OLED_SSD1306.xc"
	.byte	0
	.long	141
	.long	142
	.long	.Lxtalabel29
.cc_bottom cc_18
.cc_top cc_19,.Lxtalabel29
	.ascii	"C:/Users/takaaki/git/sw_xSSDAC/module_oled_SSD1306/src/OLED_SSD1306.xc"
	.byte	0
	.long	144
	.long	145
	.long	.Lxtalabel29
.cc_bottom cc_19
.cc_top cc_20,.Lxtalabel29
	.ascii	"C:/Users/takaaki/git/sw_xSSDAC/module_oled_SSD1306/src/OLED_SSD1306.xc"
	.byte	0
	.long	146
	.long	146
	.long	.Lxtalabel29
.cc_bottom cc_20
.cc_top cc_21,.Lxtalabel29
	.ascii	"C:/Users/takaaki/git/sw_xSSDAC/module_oled_SSD1306/src/OLED_SSD1306.xc"
	.byte	0
	.long	147
	.long	147
	.long	.Lxtalabel29
.cc_bottom cc_21
.cc_top cc_22,.Lxtalabel29
	.ascii	"C:/Users/takaaki/git/sw_xSSDAC/module_oled_SSD1306/src/OLED_SSD1306.xc"
	.byte	0
	.long	148
	.long	153
	.long	.Lxtalabel29
.cc_bottom cc_22
.cc_top cc_23,.Lxtalabel1
	.ascii	"C:/Users/takaaki/git/sw_xSSDAC/module_oled_SSD1306/src/OLED_SSD1306.xc"
	.byte	0
	.long	159
	.long	159
	.long	.Lxtalabel1
.cc_bottom cc_23
.cc_top cc_24,.Lxtalabel2
	.ascii	"C:/Users/takaaki/git/sw_xSSDAC/module_oled_SSD1306/src/OLED_SSD1306.xc"
	.byte	0
	.long	160
	.long	162
	.long	.Lxtalabel2
.cc_bottom cc_24
.cc_top cc_25,.Lxtalabel3
	.ascii	"C:/Users/takaaki/git/sw_xSSDAC/module_oled_SSD1306/src/OLED_SSD1306.xc"
	.byte	0
	.long	164
	.long	165
	.long	.Lxtalabel3
.cc_bottom cc_25
.cc_top cc_26,.Lxtalabel3
	.ascii	"C:/Users/takaaki/git/sw_xSSDAC/module_oled_SSD1306/src/OLED_SSD1306.xc"
	.byte	0
	.long	167
	.long	168
	.long	.Lxtalabel3
.cc_bottom cc_26
.cc_top cc_27,.Lxtalabel14
	.ascii	"C:/Users/takaaki/git/sw_xSSDAC/module_oled_SSD1306/src/OLED_SSD1306.xc"
	.byte	0
	.long	169
	.long	170
	.long	.Lxtalabel14
.cc_bottom cc_27
.cc_top cc_28,.Lxtalabel14
	.ascii	"C:/Users/takaaki/git/sw_xSSDAC/module_oled_SSD1306/src/OLED_SSD1306.xc"
	.byte	0
	.long	172
	.long	172
	.long	.Lxtalabel14
.cc_bottom cc_28
.cc_top cc_29,.Lxtalabel5
	.ascii	"C:/Users/takaaki/git/sw_xSSDAC/module_oled_SSD1306/src/OLED_SSD1306.xc"
	.byte	0
	.long	173
	.long	174
	.long	.Lxtalabel5
.cc_bottom cc_29
.cc_top cc_30,.Lxtalabel4
	.ascii	"C:/Users/takaaki/git/sw_xSSDAC/module_oled_SSD1306/src/OLED_SSD1306.xc"
	.byte	0
	.long	175
	.long	175
	.long	.Lxtalabel4
.cc_bottom cc_30
.cc_top cc_31,.Lxtalabel5
	.ascii	"C:/Users/takaaki/git/sw_xSSDAC/module_oled_SSD1306/src/OLED_SSD1306.xc"
	.byte	0
	.long	175
	.long	175
	.long	.Lxtalabel5
.cc_bottom cc_31
.cc_top cc_32,.Lxtalabel6
	.ascii	"C:/Users/takaaki/git/sw_xSSDAC/module_oled_SSD1306/src/OLED_SSD1306.xc"
	.byte	0
	.long	177
	.long	178
	.long	.Lxtalabel6
.cc_bottom cc_32
.cc_top cc_33,.Lxtalabel7
	.ascii	"C:/Users/takaaki/git/sw_xSSDAC/module_oled_SSD1306/src/OLED_SSD1306.xc"
	.byte	0
	.long	177
	.long	178
	.long	.Lxtalabel7
.cc_bottom cc_33
.cc_top cc_34,.Lxtalabel8
	.ascii	"C:/Users/takaaki/git/sw_xSSDAC/module_oled_SSD1306/src/OLED_SSD1306.xc"
	.byte	0
	.long	177
	.long	178
	.long	.Lxtalabel8
.cc_bottom cc_34
.cc_top cc_35,.Lxtalabel9
	.ascii	"C:/Users/takaaki/git/sw_xSSDAC/module_oled_SSD1306/src/OLED_SSD1306.xc"
	.byte	0
	.long	177
	.long	178
	.long	.Lxtalabel9
.cc_bottom cc_35
.cc_top cc_36,.Lxtalabel10
	.ascii	"C:/Users/takaaki/git/sw_xSSDAC/module_oled_SSD1306/src/OLED_SSD1306.xc"
	.byte	0
	.long	177
	.long	178
	.long	.Lxtalabel10
.cc_bottom cc_36
.cc_top cc_37,.Lxtalabel11
	.ascii	"C:/Users/takaaki/git/sw_xSSDAC/module_oled_SSD1306/src/OLED_SSD1306.xc"
	.byte	0
	.long	184
	.long	184
	.long	.Lxtalabel11
.cc_bottom cc_37
.cc_top cc_38,.Lxtalabel12
	.ascii	"C:/Users/takaaki/git/sw_xSSDAC/module_oled_SSD1306/src/OLED_SSD1306.xc"
	.byte	0
	.long	185
	.long	187
	.long	.Lxtalabel12
.cc_bottom cc_38
.cc_top cc_39,.Lxtalabel13
	.ascii	"C:/Users/takaaki/git/sw_xSSDAC/module_oled_SSD1306/src/OLED_SSD1306.xc"
	.byte	0
	.long	188
	.long	188
	.long	.Lxtalabel13
.cc_bottom cc_39
.cc_top cc_40,.Lxtalabel14
	.ascii	"C:/Users/takaaki/git/sw_xSSDAC/module_oled_SSD1306/src/OLED_SSD1306.xc"
	.byte	0
	.long	189
	.long	189
	.long	.Lxtalabel14
.cc_bottom cc_40
.cc_top cc_41,.Lxtalabel14
	.ascii	"C:/Users/takaaki/git/sw_xSSDAC/module_oled_SSD1306/src/OLED_SSD1306.xc"
	.byte	0
	.long	191
	.long	191
	.long	.Lxtalabel14
.cc_bottom cc_41
.cc_top cc_42,.Lxtalabel15
	.ascii	"C:/Users/takaaki/git/sw_xSSDAC/module_oled_SSD1306/src/OLED_SSD1306.xc"
	.byte	0
	.long	192
	.long	193
	.long	.Lxtalabel15
.cc_bottom cc_42
.cc_top cc_43,.Lxtalabel15
	.ascii	"C:/Users/takaaki/git/sw_xSSDAC/module_oled_SSD1306/src/OLED_SSD1306.xc"
	.byte	0
	.long	192
	.long	193
	.long	.Lxtalabel15
.cc_bottom cc_43
.cc_top cc_44,.Lxtalabel15
	.ascii	"C:/Users/takaaki/git/sw_xSSDAC/module_oled_SSD1306/src/OLED_SSD1306.xc"
	.byte	0
	.long	195
	.long	195
	.long	.Lxtalabel15
.cc_bottom cc_44
.cc_top cc_45,.Lxtalabel16
	.ascii	"C:/Users/takaaki/git/sw_xSSDAC/module_oled_SSD1306/src/OLED_SSD1306.xc"
	.byte	0
	.long	199
	.long	199
	.long	.Lxtalabel16
.cc_bottom cc_45
.cc_top cc_46,.Lxtalabel17
	.ascii	"C:/Users/takaaki/git/sw_xSSDAC/module_oled_SSD1306/src/OLED_SSD1306.xc"
	.byte	0
	.long	201
	.long	202
	.long	.Lxtalabel17
.cc_bottom cc_46
.cc_top cc_47,.Lxtalabel17
	.ascii	"C:/Users/takaaki/git/sw_xSSDAC/module_oled_SSD1306/src/OLED_SSD1306.xc"
	.byte	0
	.long	204
	.long	204
	.long	.Lxtalabel17
.cc_bottom cc_47
.cc_top cc_48,.Lxtalabel28
	.ascii	"C:/Users/takaaki/git/sw_xSSDAC/module_oled_SSD1306/src/OLED_SSD1306.xc"
	.byte	0
	.long	205
	.long	207
	.long	.Lxtalabel28
.cc_bottom cc_48
.cc_top cc_49,.Lxtalabel18
	.ascii	"C:/Users/takaaki/git/sw_xSSDAC/module_oled_SSD1306/src/OLED_SSD1306.xc"
	.byte	0
	.long	208
	.long	209
	.long	.Lxtalabel18
.cc_bottom cc_49
.cc_top cc_50,.Lxtalabel19
	.ascii	"C:/Users/takaaki/git/sw_xSSDAC/module_oled_SSD1306/src/OLED_SSD1306.xc"
	.byte	0
	.long	208
	.long	209
	.long	.Lxtalabel19
.cc_bottom cc_50
.cc_top cc_51,.Lxtalabel20
	.ascii	"C:/Users/takaaki/git/sw_xSSDAC/module_oled_SSD1306/src/OLED_SSD1306.xc"
	.byte	0
	.long	208
	.long	209
	.long	.Lxtalabel20
.cc_bottom cc_51
.cc_top cc_52,.Lxtalabel21
	.ascii	"C:/Users/takaaki/git/sw_xSSDAC/module_oled_SSD1306/src/OLED_SSD1306.xc"
	.byte	0
	.long	214
	.long	216
	.long	.Lxtalabel21
.cc_bottom cc_52
.cc_top cc_53,.Lxtalabel22
	.ascii	"C:/Users/takaaki/git/sw_xSSDAC/module_oled_SSD1306/src/OLED_SSD1306.xc"
	.byte	0
	.long	218
	.long	219
	.long	.Lxtalabel22
.cc_bottom cc_53
.cc_top cc_54,.Lxtalabel23
	.ascii	"C:/Users/takaaki/git/sw_xSSDAC/module_oled_SSD1306/src/OLED_SSD1306.xc"
	.byte	0
	.long	218
	.long	219
	.long	.Lxtalabel23
.cc_bottom cc_54
.cc_top cc_55,.Lxtalabel23
	.ascii	"C:/Users/takaaki/git/sw_xSSDAC/module_oled_SSD1306/src/OLED_SSD1306.xc"
	.byte	0
	.long	221
	.long	222
	.long	.Lxtalabel23
.cc_bottom cc_55
.cc_top cc_56,.Lxtalabel22
	.ascii	"C:/Users/takaaki/git/sw_xSSDAC/module_oled_SSD1306/src/OLED_SSD1306.xc"
	.byte	0
	.long	221
	.long	222
	.long	.Lxtalabel22
.cc_bottom cc_56
.cc_top cc_57,.Lxtalabel25
	.ascii	"C:/Users/takaaki/git/sw_xSSDAC/module_oled_SSD1306/src/OLED_SSD1306.xc"
	.byte	0
	.long	223
	.long	225
	.long	.Lxtalabel25
.cc_bottom cc_57
.cc_top cc_58,.Lxtalabel26
	.ascii	"C:/Users/takaaki/git/sw_xSSDAC/module_oled_SSD1306/src/OLED_SSD1306.xc"
	.byte	0
	.long	223
	.long	225
	.long	.Lxtalabel26
.cc_bottom cc_58
.cc_top cc_59,.Lxtalabel24
	.ascii	"C:/Users/takaaki/git/sw_xSSDAC/module_oled_SSD1306/src/OLED_SSD1306.xc"
	.byte	0
	.long	223
	.long	225
	.long	.Lxtalabel24
.cc_bottom cc_59
.cc_top cc_60,.Lxtalabel27
	.ascii	"C:/Users/takaaki/git/sw_xSSDAC/module_oled_SSD1306/src/OLED_SSD1306.xc"
	.byte	0
	.long	229
	.long	230
	.long	.Lxtalabel27
.cc_bottom cc_60
.cc_top cc_61,.Lxtalabel27
	.ascii	"C:/Users/takaaki/git/sw_xSSDAC/module_oled_SSD1306/src/OLED_SSD1306.xc"
	.byte	0
	.long	229
	.long	230
	.long	.Lxtalabel27
.cc_bottom cc_61
.cc_top cc_62,.Lxtalabel27
	.ascii	"C:/Users/takaaki/git/sw_xSSDAC/module_oled_SSD1306/src/OLED_SSD1306.xc"
	.byte	0
	.long	231
	.long	232
	.long	.Lxtalabel27
.cc_bottom cc_62
.cc_top cc_63,.Lxtalabel27
	.ascii	"C:/Users/takaaki/git/sw_xSSDAC/module_oled_SSD1306/src/OLED_SSD1306.xc"
	.byte	0
	.long	231
	.long	232
	.long	.Lxtalabel27
.cc_bottom cc_63
.Lentries_end3:
	.section	.xtalooplabeltable,"",@progbits
.Lentries_start4:
	.long	.Lentries_end5-.Lentries_start4
	.long	0
	.ascii	"C:\\Users\\takaaki\\git\\sw_xSSDAC\\app_usb_sdc_ssdac_xSSDAC-SD-V2\\.build_Release"
	.byte	0
.cc_top cc_64,.Lxta.loop_labels2
	.ascii	"C:/Users/takaaki/git/sw_xSSDAC/module_oled_SSD1306/src/OLED_SSD1306.xc"
	.byte	0
	.long	169
	.long	170
	.long	.Lxta.loop_labels2
.cc_bottom cc_64
.cc_top cc_65,.Lxta.loop_labels2
	.ascii	"C:/Users/takaaki/git/sw_xSSDAC/module_oled_SSD1306/src/OLED_SSD1306.xc"
	.byte	0
	.long	172
	.long	175
	.long	.Lxta.loop_labels2
.cc_bottom cc_65
.cc_top cc_66,.Lxta.loop_labels2
	.ascii	"C:/Users/takaaki/git/sw_xSSDAC/module_oled_SSD1306/src/OLED_SSD1306.xc"
	.byte	0
	.long	177
	.long	179
	.long	.Lxta.loop_labels2
.cc_bottom cc_66
.cc_top cc_67,.Lxta.loop_labels2
	.ascii	"C:/Users/takaaki/git/sw_xSSDAC/module_oled_SSD1306/src/OLED_SSD1306.xc"
	.byte	0
	.long	182
	.long	182
	.long	.Lxta.loop_labels2
.cc_bottom cc_67
.cc_top cc_68,.Lxta.loop_labels1
	.ascii	"C:/Users/takaaki/git/sw_xSSDAC/module_oled_SSD1306/src/OLED_SSD1306.xc"
	.byte	0
	.long	184
	.long	184
	.long	.Lxta.loop_labels1
.cc_bottom cc_68
.cc_top cc_69,.Lxta.loop_labels0
	.ascii	"C:/Users/takaaki/git/sw_xSSDAC/module_oled_SSD1306/src/OLED_SSD1306.xc"
	.byte	0
	.long	185
	.long	187
	.long	.Lxta.loop_labels0
.cc_bottom cc_69
.cc_top cc_70,.Lxta.loop_labels1
	.ascii	"C:/Users/takaaki/git/sw_xSSDAC/module_oled_SSD1306/src/OLED_SSD1306.xc"
	.byte	0
	.long	188
	.long	188
	.long	.Lxta.loop_labels1
.cc_bottom cc_70
.cc_top cc_71,.Lxta.loop_labels2
	.ascii	"C:/Users/takaaki/git/sw_xSSDAC/module_oled_SSD1306/src/OLED_SSD1306.xc"
	.byte	0
	.long	189
	.long	189
	.long	.Lxta.loop_labels2
.cc_bottom cc_71
.cc_top cc_72,.Lxta.loop_labels3
	.ascii	"C:/Users/takaaki/git/sw_xSSDAC/module_oled_SSD1306/src/OLED_SSD1306.xc"
	.byte	0
	.long	214
	.long	216
	.long	.Lxta.loop_labels3
.cc_bottom cc_72
.Lentries_end5:
	.section	.trap_info,"",@progbits
.Ltrap_info_entries_start0:
	.long	.Ltrap_info_entries_end0-.Ltrap_info_entries_start0
	.long	1
	.section	.trap_info_str,"MS",@progbits
.Ltrap_info_str0:
.asciiz"C:/Users/takaaki/git/sw_xSSDAC/module_oled_SSD1306/src/OLED_SSD1306.xc:159:9: error: out of bounds array access\n    if (string[0]!='\\0') {\n        ^~~~~~~~~\n"
	.section	.trap_info,"",@progbits
.cc_top cc_trapinfo_0,.Ltrap_info0
	.long	.Ltrap_info0
	.long	.Ltrap_info_str0
.cc_bottom cc_trapinfo_0
	.section	.trap_info_str,"MS",@progbits
.Ltrap_info_str1:
.asciiz"C:/Users/takaaki/git/sw_xSSDAC/module_oled_SSD1306/src/OLED_SSD1306.xc:160:17: error: out of bounds array access\n        unsafe {string_ptr[row] = string;\n                ^~~~~~~~~~~~~~~\n"
	.section	.trap_info,"",@progbits
.cc_top cc_trapinfo_1,.Ltrap_info1
	.long	.Ltrap_info1
	.long	.Ltrap_info_str1
.cc_bottom cc_trapinfo_1
	.section	.trap_info_str,"MS",@progbits
.Ltrap_info_str2:
.asciiz"C:/Users/takaaki/git/sw_xSSDAC/module_oled_SSD1306/src/OLED_SSD1306.xc:164:5: error: out of bounds array access\n    display_offset[row] = 0;\n    ^~~~~~~~~~~~~~~~~~~\n"
	.section	.trap_info,"",@progbits
.cc_top cc_trapinfo_2,.Ltrap_info2
	.long	.Ltrap_info2
	.long	.Ltrap_info_str2
.cc_bottom cc_trapinfo_2
	.section	.trap_info_str,"MS",@progbits
.Ltrap_info_str3:
.asciiz"C:/Users/takaaki/git/sw_xSSDAC/module_oled_SSD1306/src/OLED_SSD1306.xc:186:17: error: out of bounds array access\n                raster_buffer[p] = CHARBITMAP[char_index + part * 8 + cx];\n                ^~~~~~~~~~~~~~~~\n"
	.section	.trap_info,"",@progbits
.cc_top cc_trapinfo_3,.Ltrap_info3
	.long	.Ltrap_info3
	.long	.Ltrap_info_str3
.cc_bottom cc_trapinfo_3
	.section	.trap_info_str,"MS",@progbits
.Ltrap_info_str4:
.asciiz"C:/Users/takaaki/git/sw_xSSDAC/module_oled_SSD1306/src/OLED_SSD1306.xc:199:9: error: out of bounds array access\n    if (terminator_found_before_eol[row]) return _END_OF_LINE;\n        ^~~~~~~~~~~~~~~~~~~~~~~~~~~~~~~~\n"
	.section	.trap_info,"",@progbits
.cc_top cc_trapinfo_4,.Ltrap_info4
	.long	.Ltrap_info4
	.long	.Ltrap_info_str4
.cc_bottom cc_trapinfo_4
	.section	.trap_info_str,"MS",@progbits
.Ltrap_info_str5:
.asciiz"C:/Users/takaaki/git/sw_xSSDAC/module_oled_SSD1306/src/OLED_SSD1306.xc:215:9: error: out of bounds array access\n        raster_buffer[p] = CHARBITMAP[char_index + part * 8 + rendering_x[row]];\n        ^~~~~~~~~~~~~~~~\n"
	.section	.trap_info,"",@progbits
.cc_top cc_trapinfo_5,.Ltrap_info5
	.long	.Ltrap_info5
	.long	.Ltrap_info_str5
.cc_bottom cc_trapinfo_5
	.section	.trap_info_str,"MS",@progbits
.Ltrap_info_str6:
.asciiz"C:/Users/takaaki/git/sw_xSSDAC/module_oled_SSD1306/src/OLED_SSD1306.xc:215:28: error: out of bounds array access\n        raster_buffer[p] = CHARBITMAP[char_index + part * 8 + rendering_x[row]];\n                           ^~~~~~~~~~~~~~~~~~~~~~~~~~~~~~~~~~~~~~~~~~~~~~~~~~~~\n"
	.section	.trap_info,"",@progbits
.cc_top cc_trapinfo_6,.Ltrap_info6
	.long	.Ltrap_info6
	.long	.Ltrap_info_str6
.cc_bottom cc_trapinfo_6
.Ltrap_info_entries_end0: