	.text
	.file	"sdcard_play.c"
	.text
	.globl	GetDirItemAt
	.align	4
	.type	GetDirItemAt,@function
	.cc_top GetDirItemAt.function,GetDirItemAt
GetDirItemAt:
.Lfunc_begin0:
	.loc	1 41 0
	.cfi_startproc
	.issue_mode dual
	{
		nop
		dualentsp 24
	}
.Ltmp0:
	.cfi_def_cfa_offset 96
.Ltmp1:
	.cfi_offset 15, 0
	std r5, r4, sp[9]
.Ltmp2:
	.cfi_offset 4, -24
.Ltmp3:
	.cfi_offset 5, -20
	std r7, r6, sp[10]
.Ltmp4:
	.cfi_offset 6, -16
.Ltmp5:
	.cfi_offset 7, -12
.Ltmp6:
	.cfi_offset 8, -8
.Ltmp7:
	{
		mov r5, r2
		stw r8, sp[22]
	}
.Ltmp8:
	{
		mov r4, r1
		mov r6, r0
	}
.Ltmp9:
	.loc	1 44 18 prologue_end
	ldaw r11, cp[.L.str1]
.Ltmp10:
	{
		ldaw r0, sp[9]
		mov r1, r11
	}
.Ltmp11:
	bl f_opendir
.Ltmp12:
	bt r0, .LBB0_8
.Ltmp13:
	.loc	1 51 5
	ldaw r1, dp[GetDirItemAt.lfn]
	{
		nop
		stw r1, sp[7]
	}
	ldc r0, 256
.Ltmp14:
	{
		nop
		stw r0, sp[8]
	}
	.loc	1 55 5
.Ltmp15:
	ashr r0, r6, 32
	bt r0, .LBB0_5
.Ltmp16:
	.loc	1 43 9
	{
		add r8, r6, 1
		ldaw r7, sp[9]
	}
	{
		ldaw r6, sp[1]
		nop
	}
.Ltmp17:
.LBB0_3:
	.loc	1 56 9
	{
		mov r0, r7
		mov r1, r6
	}
	bl f_readdir
.Ltmp18:
	.loc	1 55 5
	{
		sub r8, r8, 1
		nop
	}
	.loc	1 55 5
	bt r8, .LBB0_3
.Ltmp19:
	.loc	1 60 5
	{
		ldc r0, 8
		ldw r1, sp[7]
	}
	{
		nop
		ld8u r2, r6[r0]
	}
.Ltmp20:
.LBB0_5:
	.loc	1 64 5
	{
		ldc r0, 0
		nop
	}
	{
		nop
		ld8u r3, r1[r0]
	}
	bt r3, .LBB0_7
.Ltmp21:
	{
		ldaw r1, sp[1]
		nop
	}
	.loc	1 60 5
	{
		add r1, r1, 9
		nop
	}
.Ltmp22:
.LBB0_7:
	{
		nop
		stw r1, r5[0]
	}
	.loc	1 64 5
	st8 r2, r4[r0]
.Ltmp23:
.LBB0_8:
	{
		nop
		ldw r8, sp[22]
	}
	.loc	1 66 1
	ldd r7, r6, sp[10]
	ldd r5, r4, sp[9]
	{
		nop
		retsp 24
	}
	# RETURN_REG_HOLDER
.Ltmp24:
	.cc_bottom GetDirItemAt.function
	.set	GetDirItemAt.nstackwords,((f_opendir.nstackwords $M f_readdir.nstackwords) + 24)
	.globl	GetDirItemAt.nstackwords
	.set	GetDirItemAt.maxcores,f_opendir.maxcores $M f_readdir.maxcores $M 1
	.globl	GetDirItemAt.maxcores
	.set	GetDirItemAt.maxtimers,f_opendir.maxtimers $M f_readdir.maxtimers $M 0
	.globl	GetDirItemAt.maxtimers
	.set	GetDirItemAt.maxchanends,f_opendir.maxchanends $M f_readdir.maxchanends $M 0
	.globl	GetDirItemAt.maxchanends
.Ltmp25:
	.size	GetDirItemAt, .Ltmp25-GetDirItemAt
.Lfunc_end0:
	.cfi_endproc

	.globl	GetDirIndexOf
	.align	4
	.type	GetDirIndexOf,@function
	.cc_top GetDirIndexOf.function,GetDirIndexOf
GetDirIndexOf:
.Lfunc_begin1:
	.loc	1 68 0
	.cfi_startproc
	.issue_mode dual
	{
		nop
		dualentsp 28
	}
.Ltmp26:
	.cfi_def_cfa_offset 112
.Ltmp27:
	.cfi_offset 15, 0
	std r5, r4, sp[10]
.Ltmp28:
	.cfi_offset 4, -32
.Ltmp29:
	.cfi_offset 5, -28
	std r7, r6, sp[11]
.Ltmp30:
	.cfi_offset 6, -24
.Ltmp31:
	.cfi_offset 7, -20
	{
		nop
		stw r8, sp[24]
	}
	{
		nop
		stw r9, sp[25]
	}
.Ltmp32:
	.cfi_offset 8, -16
.Ltmp33:
	.cfi_offset 9, -12
.Ltmp34:
	.cfi_offset 10, -8
.Ltmp35:
	{
		mov r5, r1
		stw r10, sp[26]
	}
.Ltmp36:
	{
		nop
		stw r0, sp[2]
	}
.Ltmp37:
	.loc	1 70 18 prologue_end
	ldaw r11, cp[.L.str1]
.Ltmp38:
	{
		ldaw r0, sp[11]
		mov r1, r11
	}
.Ltmp39:
	bl f_opendir
.Ltmp40:
	bt r0, .LBB1_7
.Ltmp41:
	.loc	1 75 5
	ldaw r0, dp[GetDirIndexOf.lfn]
	{
		nop
		stw r0, sp[9]
	}
	ldc r0, 256
.Ltmp42:
	.loc	1 76 5
	{
		ldaw r6, sp[3]
		stw r0, sp[10]
	}
	.loc	1 84 9
.Ltmp43:
	{
		add r9, r6, 9
		ldc r4, 0
	}
	{
		ldaw r7, sp[11]
		mov r10, r4
	}
.Ltmp44:
.LBB1_2:
	.loc	1 81 9
	{
		mov r0, r7
		mov r1, r6
	}
	bl f_readdir
	{
		nop
		ldw r8, sp[9]
	}
	{
		nop
		ld8u r0, r8[r4]
	}
	bt r0, .LBB1_4
.Ltmp45:
	.loc	1 84 9
	{
		mov r8, r9
		nop
	}
.Ltmp46:
.LBB1_4:
	.loc	1 89 13
	{
		mov r0, r5
		mov r1, r8
	}
	bl strcmp
	.loc	1 89 13
	bf r0, .LBB1_5
.Ltmp47:
	.loc	1 93 9
	{
		add r10, r10, 1
		ld8u r1, r8[r4]
	}
.Ltmp48:
	bt r1, .LBB1_2
	bu .LBB1_7
.Ltmp49:
.LBB1_5:
	{
		nop
		ldw r0, sp[2]
	}
	.loc	1 90 13
.Ltmp50:
	{
		ldc r0, 0
		stw r10, r0[0]
	}
.Ltmp51:
.LBB1_7:
	{
		nop
		ldw r10, sp[26]
	}
	{
		nop
		ldw r8, sp[24]
	}
	{
		nop
		ldw r9, sp[25]
	}
	.loc	1 95 1
	ldd r7, r6, sp[11]
	ldd r5, r4, sp[10]
	{
		nop
		retsp 28
	}
	# RETURN_REG_HOLDER
.Ltmp52:
	.cc_bottom GetDirIndexOf.function
	.set	GetDirIndexOf.nstackwords,((f_opendir.nstackwords $M f_readdir.nstackwords $M strcmp.nstackwords) + 28)
	.globl	GetDirIndexOf.nstackwords
	.set	GetDirIndexOf.maxcores,f_opendir.maxcores $M f_readdir.maxcores $M strcmp.maxcores $M 1
	.globl	GetDirIndexOf.maxcores
	.set	GetDirIndexOf.maxtimers,f_opendir.maxtimers $M f_readdir.maxtimers $M strcmp.maxtimers $M 0
	.globl	GetDirIndexOf.maxtimers
	.set	GetDirIndexOf.maxchanends,f_opendir.maxchanends $M f_readdir.maxchanends $M strcmp.maxchanends $M 0
	.globl	GetDirIndexOf.maxchanends
.Ltmp53:
	.size	GetDirIndexOf, .Ltmp53-GetDirIndexOf
.Lfunc_end1:
	.cfi_endproc

	.globl	GoFolder
	.align	4
	.type	GoFolder,@function
	.cc_top GoFolder.function,GoFolder
GoFolder:
.Lfunc_begin2:
	.loc	1 97 0
	.cfi_startproc
	.issue_mode dual
	{
		nop
		dualentsp 6
	}
.Ltmp54:
	.cfi_def_cfa_offset 24
.Ltmp55:
	.cfi_offset 15, 0
	std r5, r4, sp[1]
.Ltmp56:
	.cfi_offset 4, -16
.Ltmp57:
	.cfi_offset 5, -12
	std r7, r6, sp[2]
.Ltmp58:
	.cfi_offset 6, -8
.Ltmp59:
	.cfi_offset 7, -4
	{
		mov r4, r1
		nop
	}
.Ltmp60:
	.loc	1 98 5 prologue_end
	bl f_chdir
.Ltmp61:
	.loc	1 99 5
	ldaw r5, dp[folder_string]
	ldc r6, 256
	{
		mov r0, r5
		mov r1, r6
	}
	bl f_getcwd
	{
		ldc r0, 2
		nop
	}
	.loc	1 100 5
	bl set_display_control_flag
.Ltmp62:
	{
		ldc r7, 0
		mov r0, r4
	}
.Ltmp63:
	.loc	1 101 5
	{
		mov r1, r7
		mov r2, r6
	}
	{
		mov r3, r5
		nop
	}
	bl qspi_if_write
	.loc	1 103 5
	{
		mov r0, r7
		nop
	}
	ldd r7, r6, sp[2]
	ldd r5, r4, sp[1]
	{
		nop
		retsp 6
	}
	# RETURN_REG_HOLDER
.Ltmp64:
	.cc_bottom GoFolder.function
	.set	GoFolder.nstackwords,((f_chdir.nstackwords $M f_getcwd.nstackwords $M set_display_control_flag.nstackwords $M qspi_if_write.nstackwords) + 6)
	.globl	GoFolder.nstackwords
	.set	GoFolder.maxcores,f_chdir.maxcores $M f_getcwd.maxcores $M qspi_if_write.maxcores $M set_display_control_flag.maxcores $M 1
	.globl	GoFolder.maxcores
	.set	GoFolder.maxtimers,f_chdir.maxtimers $M f_getcwd.maxtimers $M qspi_if_write.maxtimers $M set_display_control_flag.maxtimers $M 0
	.globl	GoFolder.maxtimers
	.set	GoFolder.maxchanends,f_chdir.maxchanends $M f_getcwd.maxchanends $M qspi_if_write.maxchanends $M set_display_control_flag.maxchanends $M 0
	.globl	GoFolder.maxchanends
.Ltmp65:
	.size	GoFolder, .Ltmp65-GoFolder
.Lfunc_end2:
	.cfi_endproc

	.globl	ClimbUp
	.align	4
	.type	ClimbUp,@function
	.cc_top ClimbUp.function,ClimbUp
ClimbUp:
.Lfunc_begin3:
	.loc	1 106 0
	.cfi_startproc
	.issue_mode dual
	DUALENTSP_lu6 92
.Ltmp66:
	.cfi_def_cfa_offset 368
.Ltmp67:
	.cfi_offset 15, 0
	stw r4, sp[84]
	stw r5, sp[85]
.Ltmp68:
	.cfi_offset 4, -32
.Ltmp69:
	.cfi_offset 5, -28
	stw r6, sp[86]
	stw r7, sp[87]
.Ltmp70:
	.cfi_offset 6, -24
.Ltmp71:
	.cfi_offset 7, -20
	stw r8, sp[88]
	stw r9, sp[89]
.Ltmp72:
	.cfi_offset 8, -16
.Ltmp73:
	.cfi_offset 9, -12
	stw r10, sp[90]
.Ltmp74:
	.cfi_offset 10, -8
.Ltmp75:
	{
		ldaw r5, sp[3]
		stw r0, sp[2]
	}
.Ltmp76:
	ldc r7, 256
	.loc	1 108 18 prologue_end
.Ltmp77:
	{
		mov r0, r5
		mov r1, r7
	}
	bl f_getcwd
	{
		ldc r1, 47
		mov r0, r5
	}
	.loc	1 111 16
	bl strrchr
	{
		mov r6, r0
		nop
	}
	.loc	1 112 5
	ldaw r11, cp[.L.str2]
	{
		mov r0, r11
		nop
	}
	bl f_chdir
	.loc	1 70 18
.Ltmp78:
	ldaw r11, cp[.L.str1]
	ldaw r0, sp[75]
.Ltmp79:
	{
		mov r1, r11
		nop
	}
	bl f_opendir
.Ltmp80:
	bt r0, .LBB3_6
.Ltmp81:
	.loc	1 111 16
	{
		add r6, r6, 1
		nop
	}
.Ltmp82:
	.loc	1 75 5
	ldaw r0, dp[GetDirIndexOf.lfn]
	stw r0, sp[73]
	.loc	1 76 5
	stw r7, sp[74]
	ldaw r7, sp[67]
.Ltmp83:
	.loc	1 84 9
	{
		add r10, r7, 9
		ldc r4, 0
	}
	ldaw r8, sp[75]
.Ltmp84:
	.loc	1 114 5
	{
		mov r0, r4
		nop
	}
.Ltmp85:
.LBB3_2:
	{
		mov r5, r0
		mov r0, r8
	}
	.loc	1 81 9
.Ltmp86:
	{
		mov r1, r7
		nop
	}
	bl f_readdir
	.loc	1 84 9
	ldw r9, sp[73]
	{
		nop
		ld8u r0, r9[r4]
	}
	bt r0, .LBB3_4
.Ltmp87:
	.loc	1 84 9
	{
		mov r9, r10
		nop
	}
.Ltmp88:
.LBB3_4:
	.loc	1 89 13
	{
		mov r0, r6
		mov r1, r9
	}
	bl strcmp
	bf r0, .LBB3_6
.Ltmp89:
	.loc	1 93 9
	{
		add r0, r5, 1
		ld8u r1, r9[r4]
	}
.Ltmp90:
	bt r1, .LBB3_2
.Ltmp91:
.LBB3_6:
	.loc	1 117 5
	ldaw r6, dp[folder_string]
	ldc r7, 256
	{
		mov r0, r6
		mov r1, r7
	}
	bl f_getcwd
	{
		ldc r0, 2
		nop
	}
	.loc	1 118 5
	bl set_display_control_flag
	{
		ldc r1, 0
		ldw r0, sp[2]
	}
	.loc	1 119 5
	{
		mov r2, r7
		mov r3, r6
	}
	bl qspi_if_write
	.loc	1 122 1
	{
		mov r0, r5
		nop
	}
	ldw r10, sp[90]
	ldw r8, sp[88]
	ldw r9, sp[89]
	ldw r6, sp[86]
	ldw r7, sp[87]
	ldw r4, sp[84]
	ldw r5, sp[85]
	retsp 92
.Ltmp92:
	# RETURN_REG_HOLDER
.Ltmp93:
	.cc_bottom ClimbUp.function
	.set	ClimbUp.nstackwords,((strrchr.nstackwords $M f_chdir.nstackwords $M f_opendir.nstackwords $M f_readdir.nstackwords $M strcmp.nstackwords $M f_getcwd.nstackwords $M set_display_control_flag.nstackwords $M qspi_if_write.nstackwords) + 92)
	.globl	ClimbUp.nstackwords
	.set	ClimbUp.maxcores,f_chdir.maxcores $M f_getcwd.maxcores $M f_opendir.maxcores $M f_readdir.maxcores $M qspi_if_write.maxcores $M set_display_control_flag.maxcores $M strcmp.maxcores $M strrchr.maxcores $M 1
	.globl	ClimbUp.maxcores
	.set	ClimbUp.maxtimers,f_chdir.maxtimers $M f_getcwd.maxtimers $M f_opendir.maxtimers $M f_readdir.maxtimers $M qspi_if_write.maxtimers $M set_display_control_flag.maxtimers $M strcmp.maxtimers $M strrchr.maxtimers $M 0
	.globl	ClimbUp.maxtimers
	.set	ClimbUp.maxchanends,f_chdir.maxchanends $M f_getcwd.maxchanends $M f_opendir.maxchanends $M f_readdir.maxchanends $M qspi_if_write.maxchanends $M set_display_control_flag.maxchanends $M strcmp.maxchanends $M strrchr.maxchanends $M 0
	.globl	ClimbUp.maxchanends
.Ltmp94:
	.size	ClimbUp, .Ltmp94-ClimbUp
.Lfunc_end3:
	.file	5 "C:/Users/takaaki/git/sw_xSSDAC/module_FatFs/src\\integer.h"
	.cfi_endproc

	.globl	GoPreviousFolder
	.align	4
	.type	GoPreviousFolder,@function
	.cc_top GoPreviousFolder.function,GoPreviousFolder
GoPreviousFolder:
.Lfunc_begin4:
	.loc	1 124 0
	.cfi_startproc
	.issue_mode dual
	{
		nop
		dualentsp 8
	}
.Ltmp95:
	.cfi_def_cfa_offset 32
.Ltmp96:
	.cfi_offset 15, 0
	std r5, r4, sp[1]
.Ltmp97:
	.cfi_offset 4, -24
.Ltmp98:
	.cfi_offset 5, -20
	std r7, r6, sp[2]
.Ltmp99:
	.cfi_offset 6, -16
.Ltmp100:
	.cfi_offset 7, -12
.Ltmp101:
	.cfi_offset 8, -8
.Ltmp102:
	{
		mov r4, r0
		stw r8, sp[6]
	}
.Ltmp103:
	.loc	1 129 9 prologue_end
	ldaw r5, dp[folder_string]
	ldc r6, 256
	{
		ldc r8, 4
		nop
	}
.LBB4_1:
.Ltmp104:
	.loc	1 128 17
	{
		mov r0, r4
		nop
	}
	bl ClimbUp
	{
		mov r7, r0
		mov r0, r5
	}
	.loc	1 129 9
	{
		mov r1, r6
		nop
	}
	bl f_getcwd
.Ltmp105:
	.loc	1 130 15
	ldaw r11, cp[.L.str3]
	{
		mov r0, r5
		mov r1, r11
	}
	bl strcmp
	bf r0, .LBB4_3
.Ltmp106:
	{
		lss r0, r7, r8
		nop
	}
	bt r0, .LBB4_1
.Ltmp107:
.LBB4_3:
	.loc	1 128 17
	{
		sub r5, r7, 1
		ldc r0, 2
	}
.Ltmp108:
	.loc	1 132 5
	bl set_display_control_flag
	.loc	1 133 5
	ldaw r3, dp[folder_string]
	{
		ldc r1, 0
		nop
	}
	ldc r2, 256
	{
		mov r0, r4
		nop
	}
	bl qspi_if_write
	.loc	1 135 5
	{
		mov r0, r5
		ldw r8, sp[6]
	}
	ldd r7, r6, sp[2]
	ldd r5, r4, sp[1]
.Ltmp109:
	{
		nop
		retsp 8
	}
	# RETURN_REG_HOLDER
.Ltmp110:
	.cc_bottom GoPreviousFolder.function
	.set	GoPreviousFolder.nstackwords,((ClimbUp.nstackwords $M f_getcwd.nstackwords $M strcmp.nstackwords $M set_display_control_flag.nstackwords $M qspi_if_write.nstackwords) + 8)
	.globl	GoPreviousFolder.nstackwords
	.set	GoPreviousFolder.maxcores,ClimbUp.maxcores $M f_getcwd.maxcores $M qspi_if_write.maxcores $M set_display_control_flag.maxcores $M strcmp.maxcores $M 1
	.globl	GoPreviousFolder.maxcores
	.set	GoPreviousFolder.maxtimers,ClimbUp.maxtimers $M f_getcwd.maxtimers $M qspi_if_write.maxtimers $M set_display_control_flag.maxtimers $M strcmp.maxtimers $M 0
	.globl	GoPreviousFolder.maxtimers
	.set	GoPreviousFolder.maxchanends,ClimbUp.maxchanends $M f_getcwd.maxchanends $M qspi_if_write.maxchanends $M set_display_control_flag.maxchanends $M strcmp.maxchanends $M 0
	.globl	GoPreviousFolder.maxchanends
.Ltmp111:
	.size	GoPreviousFolder, .Ltmp111-GoPreviousFolder
.Lfunc_end4:
	.cfi_endproc

	.globl	PlayTrack
	.align	4
	.type	PlayTrack,@function
	.cc_top PlayTrack.function,PlayTrack
PlayTrack:
.Lfunc_begin5:
	.loc	1 138 0
	.cfi_startproc
	.issue_mode dual
	{
		nop
		dualentsp 20
	}
.Ltmp112:
	.cfi_def_cfa_offset 80
.Ltmp113:
	.cfi_offset 15, 0
	std r5, r4, sp[7]
.Ltmp114:
	.cfi_offset 4, -24
.Ltmp115:
	.cfi_offset 5, -20
	std r7, r6, sp[8]
.Ltmp116:
	.cfi_offset 6, -16
.Ltmp117:
	.cfi_offset 7, -12
	std r9, r8, sp[9]
.Ltmp118:
	.cfi_offset 8, -8
.Ltmp119:
	.cfi_offset 9, -4
.Ltmp120:
	{
		mov r5, r2
		mov r6, r1
	}
.Ltmp121:
	{
		mov r1, r0
		ldc r9, 0
	}
.Ltmp122:
	.loc	1 146 9 prologue_end
	{
		ldc r4, 6
		ld8u r0, r1[r9]
	}
	bf r0, .LBB5_11
.Ltmp123:
	{
		ldaw r0, sp[5]
		mkmsk r2, 1
	}
.Ltmp124:
	.loc	1 148 11
	bl f_open
.Ltmp125:
	bt r0, .LBB5_11
.Ltmp126:
	.loc	1 154 5
	{
		ldaw r0, sp[5]
		stw r9, sp[4]
	}
.Ltmp127:
	{
		ldaw r8, sp[2]
		ldc r7, 4
	}
.Ltmp128:
	{
		ldaw r3, sp[4]
		mov r1, r8
	}
.Ltmp129:
	.loc	1 158 11
	{
		mov r2, r7
		nop
	}
	bl f_read
.Ltmp130:
	bt r0, .LBB5_9
.Ltmp131:
	.loc	1 164 5
	st8 r9, r8[r7]
	.loc	1 174 9
.Ltmp132:
	ldaw r11, cp[.L.str4]
	{
		mov r0, r8
		mov r1, r11
	}
	{
		mov r2, r7
		nop
	}
	bl strncmp
	.loc	1 174 9
	bf r0, .LBB5_4
.Ltmp133:
	.loc	1 179 9
	ldaw r11, cp[.L.str5]
	{
		ldaw r0, sp[2]
		ldc r2, 4
	}
	{
		mov r1, r11
		nop
	}
	bl strncmp
	.loc	1 179 9
	bf r0, .LBB5_7
.Ltmp134:
	.loc	1 186 16
	bl __getstdout
	.loc	1 186 9
	bl fflush
.Ltmp135:
.LBB5_9:
	{
		ldaw r0, sp[5]
		nop
	}
	bu .LBB5_10
.LBB5_4:
.Ltmp136:
	{
		ldaw r7, sp[5]
		nop
	}
.Ltmp137:
	.loc	1 175 14
	{
		mov r0, r7
		mov r1, r6
	}
	{
		mov r2, r5
		nop
	}
	bl PlayRIFF
	bu .LBB5_5
.Ltmp138:
.LBB5_7:
	{
		ldaw r7, sp[5]
		nop
	}
.Ltmp139:
	.loc	1 180 14
	{
		mov r0, r7
		mov r1, r6
	}
	{
		mov r2, r5
		nop
	}
	bl PlayFLAC
.Ltmp140:
.LBB5_5:
	.loc	1 175 14
	{
		mov r4, r0
		mov r0, r7
	}
.Ltmp141:
.LBB5_10:
	.loc	1 187 15
	bl f_close
.Ltmp142:
.LBB5_11:
	.loc	1 190 1
	{
		mov r0, r4
		nop
	}
	ldd r9, r8, sp[9]
	ldd r7, r6, sp[8]
	ldd r5, r4, sp[7]
	{
		nop
		retsp 20
	}
	# RETURN_REG_HOLDER
.Ltmp143:
	.cc_bottom PlayTrack.function
	.set	PlayTrack.nstackwords,((f_open.nstackwords $M f_read.nstackwords $M PlayRIFF.nstackwords $M f_close.nstackwords $M strncmp.nstackwords $M PlayFLAC.nstackwords $M __getstdout.nstackwords $M fflush.nstackwords) + 20)
	.globl	PlayTrack.nstackwords
	.set	PlayTrack.maxcores,PlayFLAC.maxcores $M PlayRIFF.maxcores $M __getstdout.maxcores $M f_close.maxcores $M f_open.maxcores $M f_read.maxcores $M fflush.maxcores $M strncmp.maxcores $M 1
	.globl	PlayTrack.maxcores
	.set	PlayTrack.maxtimers,PlayFLAC.maxtimers $M PlayRIFF.maxtimers $M __getstdout.maxtimers $M f_close.maxtimers $M f_open.maxtimers $M f_read.maxtimers $M fflush.maxtimers $M strncmp.maxtimers $M 0
	.globl	PlayTrack.maxtimers
	.set	PlayTrack.maxchanends,PlayFLAC.maxchanends $M PlayRIFF.maxchanends $M __getstdout.maxchanends $M f_close.maxchanends $M f_open.maxchanends $M f_read.maxchanends $M fflush.maxchanends $M strncmp.maxchanends $M 0
	.globl	PlayTrack.maxchanends
.Ltmp144:
	.size	PlayTrack, .Ltmp144-PlayTrack
.Lfunc_end5:
	.cfi_endproc

	.globl	sdcard_play
	.align	4
	.type	sdcard_play,@function
	.cc_top sdcard_play.function,sdcard_play
sdcard_play:
.Lfunc_begin6:
	.loc	1 204 0
	.cfi_startproc
	.issue_mode dual
	DUALENTSP_lu6 234
.Ltmp145:
	.cfi_def_cfa_offset 936
.Ltmp146:
	.cfi_offset 15, 0
	stw r4, sp[226]
	stw r5, sp[227]
.Ltmp147:
	.cfi_offset 4, -32
.Ltmp148:
	.cfi_offset 5, -28
	stw r6, sp[228]
	stw r7, sp[229]
.Ltmp149:
	.cfi_offset 6, -24
.Ltmp150:
	.cfi_offset 7, -20
	stw r8, sp[230]
	stw r9, sp[231]
.Ltmp151:
	.cfi_offset 8, -16
.Ltmp152:
	.cfi_offset 9, -12
	stw r10, sp[232]
.Ltmp153:
	.cfi_offset 10, -8
.Ltmp154:
	{
		mov r5, r2
		mov r6, r1
	}
.Ltmp155:
	{
		nop
		stw r6, sp[12]
	}
.Ltmp156:
	{
		ldc r4, 2
		stw r0, sp[9]
	}
	.loc	1 206 5 prologue_end
.Ltmp157:
	{
		mov r0, r4
		nop
	}
	bl set_display_control_flag
	{
		mkmsk r0, 1
		nop
	}
	.loc	1 207 5
	bl set_display_control_flag
.Ltmp158:
	{
		ldc r7, 0
		nop
	}
	ldaw r1, sp[77]
.Ltmp159:
	.loc	1 213 5
	{
		mov r0, r7
		nop
	}
	bl f_mount
.Ltmp160:
	.loc	1 215 12
	{
		mov r0, r6
		mov r1, r4
	}
	bl QueryChannel
	.loc	1 215 12
	{
		zext r0, 1
		nop
	}
	bf r0, .LBB6_2
.Ltmp161:
	.loc	1 219 9
	ldaw r3, dp[folder_string]
	ldc r4, 256
	{
		mov r0, r5
		mov r1, r7
	}
	{
		mov r2, r4
		nop
	}
	bl qspi_if_read
.Ltmp162:
	{
		mov r6, r5
		mkmsk r5, 2
	}
.Ltmp163:
	ldaw r0, dp[folder_string+252]
	.loc	1 220 9
	st8 r7, r0[r5]
	.loc	1 222 9
	ldaw r3, dp[track_string]
	{
		mov r0, r6
		mov r1, r4
	}
	{
		mov r2, r4
		nop
	}
	bl qspi_if_read
	ldaw r0, dp[track_string+252]
	.loc	1 224 9
	st8 r7, r0[r5]
	{
		mov r5, r6
		nop
	}
.Ltmp164:
.LBB6_2:
	{
		nop
		stw r5, sp[6]
	}
	.loc	1 98 5
.Ltmp165:
	ldaw r4, dp[folder_string]
.Ltmp166:
	{
		mov r0, r4
		nop
	}
	bl f_chdir
	ldc r6, 256
	.loc	1 99 5
	{
		mov r0, r4
		mov r1, r6
	}
	bl f_getcwd
	{
		ldc r0, 2
		nop
	}
	.loc	1 100 5
	bl set_display_control_flag
.Ltmp167:
	.loc	1 101 5
	{
		mov r0, r5
		mov r1, r7
	}
	{
		mov r2, r6
		mov r8, r6
	}
	{
		mov r3, r4
		nop
	}
	bl qspi_if_write
.Ltmp168:
	.loc	1 70 18
	ldaw r11, cp[.L.str1]
.Ltmp169:
	{
		ldaw r0, sp[13]
		mov r1, r11
	}
.Ltmp170:
	bl f_opendir
.Ltmp171:
	{
		mov r9, r7
		stw r7, sp[8]
	}
	bt r0, .LBB6_9
.Ltmp172:
	.loc	1 75 5
	ldaw r0, dp[GetDirIndexOf.lfn]
	stw r0, sp[224]
	.loc	1 76 5
	stw r8, sp[225]
	ldaw r4, sp[218]
.Ltmp173:
	.loc	1 84 9
	{
		add r10, r4, 9
		ldc r7, 0
	}
	{
		nop
		stw r7, sp[8]
	}
.Ltmp174:
.LBB6_4:
	{
		ldaw r0, sp[13]
		mov r1, r4
	}
	.loc	1 81 9
	bl f_readdir
	.loc	1 84 9
	ldw r6, sp[224]
	{
		nop
		ld8u r0, r6[r7]
	}
	bt r0, .LBB6_6
.Ltmp175:
	.loc	1 84 9
	{
		mov r6, r10
		nop
	}
.Ltmp176:
.LBB6_6:
	.loc	1 89 13
	ldaw r0, dp[track_string]
	{
		mov r1, r6
		nop
	}
	bl strcmp
	bf r0, .LBB6_9
.Ltmp177:
	{
		nop
		ldw r0, sp[8]
	}
	.loc	1 93 9
	{
		add r0, r0, 1
		nop
	}
.Ltmp178:
	{
		nop
		stw r0, sp[8]
	}
	{
		nop
		ld8u r0, r6[r7]
	}
	bt r0, .LBB6_4
.Ltmp179:
	{
		nop
		stw r7, sp[8]
	}
.Ltmp180:
.LBB6_9:
	ldaw r4, sp[218]
	.loc	1 60 5
.Ltmp181:
	{
		add r0, r4, 9
		nop
	}
	{
		mkmsk r7, 2
		stw r0, sp[5]
	}
	{
		ldaw r6, sp[13]
		stw r0, sp[10]
	}
	bu .LBB6_10
.Ltmp182:
.LBB6_55:
	{
		mov r4, r7
		ldw r0, sp[8]
	}
	.loc	1 327 17
.Ltmp183:
	{
		sub r0, r0, 1
		nop
	}
.Ltmp184:
	{
		ldc r7, 2
		stw r0, sp[8]
	}
.Ltmp185:
.LBB6_10:
	{
		nop
		stw r7, sp[11]
	}
	bu .LBB6_11
.LBB6_52:
.Ltmp186:
	{
		nop
		stw r0, sp[11]
	}
.Ltmp187:
.LBB6_11:
	.loc	1 241 9
	ldw r0, dp[state]
.Ltmp188:
	{
		eq r0, r0, 0
		ldw r2, sp[8]
	}
.Ltmp189:
	ashr r1, r2, 32
	bt r1, .LBB6_12
.Ltmp190:
	.loc	1 241 9
	{
		add r1, r2, 1
		nop
	}
	{
		mov r7, r4
		stw r1, sp[7]
	}
	bu .LBB6_28
.Ltmp191:
.LBB6_56:
	.loc	1 333 17
	stw r9, dp[state]
	{
		mkmsk r0, 1
		stw r1, sp[11]
	}
.Ltmp192:
.LBB6_28:
	.loc	1 241 9
	{
		zext r0, 1
		nop
	}
	bf r0, .LBB6_38
.Ltmp193:
	{
		mov r4, r7
		ldw r0, sp[12]
	}
	{
		mkmsk r1, 1
		nop
	}
	.loc	1 253 34
.Ltmp194:
	bl QueryChannel
.Ltmp195:
	.loc	1 254 13
	{
		sub r0, r0, 1
		mkmsk r1, 3
	}
.Ltmp196:
	{
		lsu r1, r1, r0
		nop
	}
	bt r1, .LBB6_11
.Ltmp197:

	.xtabranch .Ljumptable0+4,.Ljumptable0+8,.Ljumptable0+12,.Ljumptable0+16,.Ljumptable0+20,.Ljumptable0+24,.Ljumptable0+28,.Ljumptable0+32
.Ljumptable0:
		
	{
		nop
		bru r0
	}
	.jmptable32 .LBB6_33,.LBB6_36,.LBB6_31,.LBB6_34,.LBB6_11,.LBB6_11,.LBB6_11,.LBB6_37
.Ltmp198:
.LBB6_37:
	{
		mkmsk r0, 1
		nop
	}
	.loc	1 264 17
.Ltmp199:
	stw r0, dp[state]
	{
		mov r7, r4
		nop
	}
.Ltmp200:
.LBB6_38:
	.loc	1 44 18
	ldaw r11, cp[.L.str1]
.Ltmp201:
	{
		mov r0, r6
		mov r1, r11
	}
	bl f_opendir
.Ltmp202:
	{
		mov r3, r10
		nop
	}
	bt r0, .LBB6_43
.Ltmp203:
	.loc	1 51 5
	ldaw r0, dp[GetDirItemAt.lfn]
	.loc	1 51 5
	stw r0, sp[224]
	.loc	1 52 5
	stw r8, sp[225]
.Ltmp204:
	{
		nop
		ldw r4, sp[7]
	}
.Ltmp205:
.LBB6_40:
	.loc	1 56 9
	{
		mov r0, r6
		mov r1, r7
	}
	bl f_readdir
.Ltmp206:
	.loc	1 55 5
	{
		sub r4, r4, 1
		nop
	}
	.loc	1 55 5
	bt r4, .LBB6_40
.Ltmp207:
	.loc	1 60 5
	ldw r3, sp[224]
	{
		ldc r0, 8
		nop
	}
	{
		nop
		ld8u r0, r7[r0]
	}
	{
		nop
		stw r0, sp[10]
	}
	{
		nop
		ld8u r0, r3[r9]
	}
	bt r0, .LBB6_43
.Ltmp208:
	{
		nop
		ldw r3, sp[5]
	}
.Ltmp209:
.LBB6_43:
	{
		nop
		ld8u r0, r3[r9]
	}
	.loc	1 285 12
.Ltmp210:
	bf r0, .LBB6_44
.Ltmp211:
	{
		ldc r1, 16
		ldw r2, sp[10]
	}
	.loc	1 296 18
.Ltmp212:
	{
		and r1, r2, r1
		nop
	}
	.loc	1 296 18
	bt r1, .LBB6_48
.Ltmp213:
	{
		mov r4, r7
		nop
	}
	.loc	1 309 13
.Ltmp214:
	ldaw r7, dp[track_string]
	.loc	1 309 13
	{
		mov r0, r7
		mov r1, r3
	}
	{
		mov r10, r3
		mov r2, r8
	}
	bl strncpy
	.loc	1 313 13
	{
		mov r0, r5
		mov r1, r8
	}
	{
		mov r2, r8
		mov r3, r7
	}
	bl qspi_if_write
	{
		mkmsk r0, 1
		nop
	}
	.loc	1 315 13
	bl set_display_control_flag
	.loc	1 318 18
	{
		mov r0, r7
		ldw r1, sp[9]
	}
	{
		nop
		ldw r2, sp[12]
	}
	bl PlayTrack
.Ltmp215:
	.loc	1 319 13
	{
		sub r2, r0, 1
		ldc r1, 5
	}
	{
		lsu r1, r1, r2
		nop
	}
	bt r1, .LBB6_52
.Ltmp216:
	{
		mkmsk r1, 2
		mov r7, r4
	}

	.xtabranch .Ljumptable1+4,.Ljumptable1+8,.Ljumptable1+12,.Ljumptable1+16,.Ljumptable1+20,.Ljumptable1+24
.Ljumptable1:
		
	{
		nop
		bru r2
	}
	.jmptable32 .LBB6_54,.LBB6_55,.LBB6_56,.LBB6_57,.LBB6_58,.LBB6_62
.Ltmp217:
.LBB6_62:
	{
		nop
		ldw r0, sp[11]
	}
	.loc	1 348 21
.Ltmp218:
	{
		eq r0, r0, 2
		ldc r1, 6
	}
	bt r0, .LBB6_56
	bu .LBB6_63
.Ltmp219:
.LBB6_12:
	{
		mov r7, r4
		nop
	}
	bu .LBB6_13
.Ltmp220:
.LBB6_23:
	.loc	1 333 17
	stw r9, dp[state]
	{
		mkmsk r0, 1
		stw r1, sp[11]
	}
.Ltmp221:
.LBB6_13:
	.loc	1 241 9
	{
		zext r0, 1
		nop
	}
	bf r0, .LBB6_14
.Ltmp222:
	{
		mov r4, r7
		ldw r0, sp[12]
	}
	{
		mkmsk r1, 1
		nop
	}
	.loc	1 253 34
.Ltmp223:
	bl QueryChannel
.Ltmp224:
	.loc	1 254 13
	{
		sub r0, r0, 1
		mkmsk r1, 3
	}
.Ltmp225:
	{
		lsu r1, r1, r0
		nop
	}
	bt r1, .LBB6_11
.Ltmp226:

	.xtabranch .Ljumptable2+4,.Ljumptable2+8,.Ljumptable2+12,.Ljumptable2+16,.Ljumptable2+20,.Ljumptable2+24,.Ljumptable2+28,.Ljumptable2+32
.Ljumptable2:
		
	{
		nop
		bru r0
	}
	.jmptable32 .LBB6_33,.LBB6_36,.LBB6_31,.LBB6_34,.LBB6_11,.LBB6_11,.LBB6_11,.LBB6_26
.Ltmp227:
.LBB6_26:
	{
		mkmsk r0, 1
		nop
	}
	.loc	1 264 17
.Ltmp228:
	stw r0, dp[state]
	{
		mov r7, r4
		nop
	}
.Ltmp229:
.LBB6_14:
	.loc	1 44 18
	ldaw r11, cp[.L.str1]
.Ltmp230:
	{
		mov r0, r6
		mov r1, r11
	}
	bl f_opendir
.Ltmp231:
	{
		mov r3, r10
		nop
	}
	bt r0, .LBB6_17
.Ltmp232:
	.loc	1 51 5
	ldaw r0, dp[GetDirItemAt.lfn]
	{
		mov r1, r0
		nop
	}
	stw r1, sp[224]
	.loc	1 52 5
	stw r8, sp[225]
	.loc	1 60 5
	{
		mov r3, r1
		ld8u r0, r1[r9]
	}
	bt r0, .LBB6_17
.Ltmp233:
	{
		nop
		ldw r3, sp[5]
	}
.Ltmp234:
.LBB6_17:
	{
		nop
		ld8u r0, r3[r9]
	}
	bf r0, .LBB6_44
.Ltmp235:
	{
		ldc r1, 16
		ldw r2, sp[10]
	}
	.loc	1 296 18
.Ltmp236:
	{
		and r1, r2, r1
		nop
	}
	bt r1, .LBB6_48
.Ltmp237:
	{
		mov r4, r7
		nop
	}
	.loc	1 309 13
.Ltmp238:
	ldaw r7, dp[track_string]
	{
		mov r0, r7
		mov r1, r3
	}
	{
		mov r10, r3
		mov r2, r8
	}
	bl strncpy
	.loc	1 313 13
	{
		mov r0, r5
		mov r1, r8
	}
	{
		mov r2, r8
		mov r3, r7
	}
	bl qspi_if_write
	{
		mkmsk r0, 1
		nop
	}
	.loc	1 315 13
	bl set_display_control_flag
	.loc	1 318 18
	{
		mov r0, r7
		ldw r1, sp[9]
	}
	{
		nop
		ldw r2, sp[12]
	}
	bl PlayTrack
.Ltmp239:
	.loc	1 319 13
	{
		sub r2, r0, 1
		ldc r1, 5
	}
	{
		lsu r1, r1, r2
		nop
	}
	bt r1, .LBB6_20
.Ltmp240:
	{
		mkmsk r1, 2
		mov r7, r4
	}

	.xtabranch .Ljumptable3+4,.Ljumptable3+8,.Ljumptable3+12,.Ljumptable3+16,.Ljumptable3+20,.Ljumptable3+24
.Ljumptable3:
		
	{
		nop
		bru r2
	}
	.jmptable32 .LBB6_54,.LBB6_55,.LBB6_23,.LBB6_57,.LBB6_58,.LBB6_22
.Ltmp241:
.LBB6_22:
	{
		nop
		ldw r0, sp[11]
	}
	.loc	1 348 21
.Ltmp242:
	{
		eq r0, r0, 2
		ldc r1, 6
	}
	bt r0, .LBB6_23
.Ltmp243:
.LBB6_63:
	{
		mov r4, r7
		ldw r0, sp[8]
	}
	.loc	1 354 21
.Ltmp244:
	{
		add r0, r0, 1
		nop
	}
.Ltmp245:
	{
		ldc r0, 6
		stw r0, sp[8]
	}
	{
		nop
		stw r0, sp[11]
	}
	bu .LBB6_11
.Ltmp246:
.LBB6_44:
	{
		mov r10, r3
		mov r4, r7
	}
	.loc	1 287 13
.Ltmp247:
	{
		mov r0, r6
		mov r1, r8
	}
	bl f_getcwd
	.loc	1 288 17
.Ltmp248:
	ldaw r11, cp[.L.str3]
	{
		mov r0, r6
		mov r1, r11
	}
	bl strcmp
	{
		mov r1, r9
		nop
	}
	bf r0, .LBB6_46
.Ltmp249:
	.loc	1 293 25
	{
		mov r0, r5
		nop
	}
	bl ClimbUp
	.loc	1 293 25
	{
		add r1, r0, 1
		nop
	}
.Ltmp250:
.LBB6_46:
	{
		nop
		stw r1, sp[8]
	}
	bu .LBB6_11
.Ltmp251:
.LBB6_48:
	{
		ldc r1, 46
		nop
	}
	.loc	1 298 16
.Ltmp252:
	{
		eq r0, r0, r1
		nop
	}
	bf r0, .LBB6_50
.Ltmp253:
	{
		mov r10, r3
		mov r4, r7
	}
.Ltmp254:
.LBB6_34:
	{
		nop
		ldw r0, sp[8]
	}
	bu .LBB6_35
.Ltmp255:
.LBB6_20:
	{
		nop
		stw r0, sp[11]
	}
	bu .LBB6_11
.Ltmp256:
.LBB6_50:
	{
		mov r4, r7
		mov r0, r3
	}
	{
		mov r10, r3
		nop
	}
.Ltmp257:
	.loc	1 98 5
	bl f_chdir
.Ltmp258:
	.loc	1 129 9
	ldaw r7, dp[folder_string]
.Ltmp259:
	.loc	1 99 5
	{
		mov r0, r7
		mov r1, r8
	}
	bl f_getcwd
	{
		ldc r0, 2
		nop
	}
	.loc	1 100 5
	bl set_display_control_flag
.Ltmp260:
	.loc	1 101 5
	{
		mov r0, r5
		mov r1, r9
	}
	{
		mov r2, r8
		mov r3, r7
	}
	bl qspi_if_write
.Ltmp261:
	{
		nop
		stw r9, sp[8]
	}
	bu .LBB6_11
.Ltmp262:
.LBB6_57:
	{
		mov r4, r7
		mov r0, r5
	}
	.loc	1 338 25
.Ltmp263:
	bl ClimbUp
	.loc	1 338 25
	{
		add r0, r0, 1
		nop
	}
.Ltmp264:
	{
		ldc r0, 4
		stw r0, sp[8]
	}
	{
		nop
		stw r0, sp[11]
	}
	bu .LBB6_11
.Ltmp265:
.LBB6_58:
	{
		mov r4, r7
		nop
	}
.Ltmp266:
.LBB6_59:
	{
		nop
		ldw r0, sp[6]
	}
	.loc	1 128 17
.Ltmp267:
	bl ClimbUp
	{
		mov r7, r0
		nop
	}
	.loc	1 129 9
	ldaw r5, dp[folder_string]
	{
		mov r0, r5
		mov r1, r8
	}
	bl f_getcwd
.Ltmp268:
	.loc	1 130 15
	ldaw r11, cp[.L.str3]
	{
		mov r0, r5
		mov r1, r11
	}
	bl strcmp
	bf r0, .LBB6_61
.Ltmp269:
	{
		ldc r0, 4
		nop
	}
	{
		lss r0, r7, r0
		nop
	}
	bt r0, .LBB6_59
.Ltmp270:
.LBB6_61:
	.loc	1 128 17
	{
		sub r0, r7, 1
		nop
	}
.Ltmp271:
	.loc	1 132 5
	{
		ldc r0, 2
		stw r0, sp[8]
	}
	bl set_display_control_flag
	{
		nop
		ldw r0, sp[6]
	}
.Ltmp272:
	{
		mov r5, r0
		mov r1, r9
	}
.Ltmp273:
	.loc	1 133 5
	{
		mov r2, r8
		nop
	}
	.loc	1 129 9
.Ltmp274:
	ldaw r3, dp[folder_string]
.Ltmp275:
	.loc	1 133 5
	bl qspi_if_write
	{
		ldc r0, 5
		nop
	}
	{
		nop
		stw r0, sp[11]
	}
	bu .LBB6_11
.Ltmp276:
.LBB6_33:
	.loc	1 260 25
	{
		mov r0, r5
		nop
	}
	bl ClimbUp
	bu .LBB6_32
.Ltmp277:
.LBB6_36:
	.loc	1 272 25
	{
		mov r0, r5
		nop
	}
	bl ClimbUp
.Ltmp278:
.LBB6_35:
	.loc	1 268 17
	{
		add r0, r0, 1
		nop
	}
.Ltmp279:
	{
		nop
		stw r0, sp[8]
	}
	bu .LBB6_11
.Ltmp280:
.LBB6_31:
	{
		nop
		ldw r0, sp[8]
	}
.Ltmp281:
.LBB6_32:
	.loc	1 256 17
	{
		sub r0, r0, 1
		nop
	}
.Ltmp282:
	{
		nop
		stw r0, sp[8]
	}
	bu .LBB6_11
.Ltmp283:
.LBB6_54:
	{
		mov r4, r7
		ldw r0, sp[8]
	}
	.loc	1 322 17
.Ltmp284:
	{
		add r0, r0, 1
		nop
	}
.Ltmp285:
	{
		mkmsk r7, 1
		stw r0, sp[8]
	}
	bu .LBB6_10
.Ltmp286:
	.cc_bottom sdcard_play.function
	.set	sdcard_play.nstackwords,((f_mount.nstackwords $M ClimbUp.nstackwords $M strcmp.nstackwords $M f_chdir.nstackwords $M f_getcwd.nstackwords $M QueryChannel.nstackwords $M f_opendir.nstackwords $M f_readdir.nstackwords $M strncpy.nstackwords $M qspi_if_write.nstackwords $M set_display_control_flag.nstackwords $M PlayTrack.nstackwords $M qspi_if_read.nstackwords) + 234)
	.globl	sdcard_play.nstackwords
	.set	sdcard_play.maxcores,ClimbUp.maxcores $M PlayTrack.maxcores $M QueryChannel.maxcores $M f_chdir.maxcores $M f_getcwd.maxcores $M f_mount.maxcores $M f_opendir.maxcores $M f_readdir.maxcores $M qspi_if_read.maxcores $M qspi_if_write.maxcores $M set_display_control_flag.maxcores $M strcmp.maxcores $M strncpy.maxcores $M 1
	.globl	sdcard_play.maxcores
	.set	sdcard_play.maxtimers,ClimbUp.maxtimers $M PlayTrack.maxtimers $M QueryChannel.maxtimers $M f_chdir.maxtimers $M f_getcwd.maxtimers $M f_mount.maxtimers $M f_opendir.maxtimers $M f_readdir.maxtimers $M qspi_if_read.maxtimers $M qspi_if_write.maxtimers $M set_display_control_flag.maxtimers $M strcmp.maxtimers $M strncpy.maxtimers $M 0
	.globl	sdcard_play.maxtimers
	.set	sdcard_play.maxchanends,ClimbUp.maxchanends $M PlayTrack.maxchanends $M QueryChannel.maxchanends $M f_chdir.maxchanends $M f_getcwd.maxchanends $M f_mount.maxchanends $M f_opendir.maxchanends $M f_readdir.maxchanends $M qspi_if_read.maxchanends $M qspi_if_write.maxchanends $M set_display_control_flag.maxchanends $M strcmp.maxchanends $M strncpy.maxchanends $M 0
	.globl	sdcard_play.maxchanends
.Ltmp287:
	.size	sdcard_play, .Ltmp287-sdcard_play
.Lfunc_end6:
	.cfi_endproc

	.section	.cp.rodata.string,"aMSc",@progbits
	.cc_top .L.str.data,.L.str
	.align	4
	.type	.L.str,@object
	.size	.L.str, 19
.L.str:
.asciiz"0:/CONTEXTSAVE.TXT"
	.cc_bottom .L.str.data
	.section	.dp.data.4,"awd",@progbits
	.cc_top setting_file_name.data,setting_file_name
	.globl	setting_file_name
	.align	4
	.type	setting_file_name,@object
	.size	setting_file_name, 4
setting_file_name:
	.long	.L.str
	.cc_bottom setting_file_name.data
	.section	.cp.rodata.string,"aMSc",@progbits
	.cc_top .L.str1.data,.L.str1
	.align	4
	.type	.L.str1,@object
	.size	.L.str1, 2
.L.str1:
.asciiz"."
	.space	2
	.cc_bottom .L.str1.data
	.section	.dp.bss.4,"awd",@nobits
	.cc_top GetDirItemAt.lfn.data,GetDirItemAt.lfn
	.align	4
	.type	GetDirItemAt.lfn,@object
	.size	GetDirItemAt.lfn, 256
GetDirItemAt.lfn:
	.space	256
	.cc_bottom GetDirItemAt.lfn.data
	.cc_top GetDirIndexOf.lfn.data,GetDirIndexOf.lfn
	.align	4
	.type	GetDirIndexOf.lfn,@object
	.size	GetDirIndexOf.lfn, 256
GetDirIndexOf.lfn:
	.space	256
	.cc_bottom GetDirIndexOf.lfn.data
	.section	.cp.rodata.string,"aMSc",@progbits
	.cc_top .L.str2.data,.L.str2
	.align	4
	.type	.L.str2,@object
	.size	.L.str2, 3
.L.str2:
.asciiz".."
	.space	1
	.cc_bottom .L.str2.data
	.cc_top .L.str3.data,.L.str3
	.align	4
	.type	.L.str3,@object
	.size	.L.str3, 4
.L.str3:
.asciiz"0:/"
	.cc_bottom .L.str3.data
	.cc_top .L.str4.data,.L.str4
	.align	4
	.type	.L.str4,@object
	.size	.L.str4, 5
.L.str4:
.asciiz"RIFF"
	.cc_bottom .L.str4.data
	.cc_top .L.str5.data,.L.str5
	.align	4
	.type	.L.str5,@object
	.size	.L.str5, 5
.L.str5:
.asciiz"fLaC"
	.cc_bottom .L.str5.data
	.section	.dp.data.4,"awd",@progbits
	.cc_top state.data,state
	.globl	state
	.align	4
	.type	state,@object
	.size	state, 4
state:
	.long	1
	.cc_bottom state.data
	.section	.dp.bss,"awd",@nobits
	.cc_top scratch.data,scratch
	.globl	scratch.globound
scratch.globound = 256
	.globl	scratch
	.align	8
	.type	scratch,@object
	.size	scratch, 256
scratch:
	.space	256
	.cc_bottom scratch.data
	.section	.dp.bss.4,"awd",@nobits
.Ldebug_end0:
	.section	.dp.bss,"awd",@nobits
.Ldebug_end1:
	.section	.dp.data.4,"awd",@progbits
.Ldebug_end2:
	.text
.Ldebug_end3:
	.file	6 "C:\\Program Files (x86)\\XMOS\\xTIMEcomposer\\Community_14.4.1\\target/include\\xccompat.h"
	.file	7 "C:\\Program Files (x86)\\XMOS\\xTIMEcomposer\\Community_14.4.1\\target/include\\sys\\types.h"
	.section	.trap_info,"",@progbits
.Ltrap_info_entries_start0:
	.long	.Ltrap_info_entries_end0-.Ltrap_info_entries_start0
	.long	1
.Ltrap_info_entries_end0: