	.text
	.file	"utils.c"
	.section	.cp.rodata.cst4,"aMc",@progbits,4
	.cc_top .LCPI0_0.data,.LCPI0_0
	.align	4
	.type	.LCPI0_0,@object
	.size	.LCPI0_0, 4
.LCPI0_0:
	.long	4294967288
	.cc_bottom .LCPI0_0.data
	.text
	.globl	ReadUint
	.align	4
	.type	ReadUint,@function
	.cc_top ReadUint.function,ReadUint
ReadUint:
.Lfunc_begin0:
	.file	1 "C:/Users/takaaki/git/sw_xSSDAC/module_sd_audio/src\\utils.c"
	.loc	1 13 0
	.cfi_startproc
	.issue_mode dual
	{
		nop
		dualentsp 8
	}
.Ltmp0:
	.cfi_def_cfa_offset 32
.Ltmp1:
	.cfi_offset 15, 0
.Ltmp2:
	.cfi_offset 10, -24
.Ltmp3:
	.cfi_def_cfa_register 10
	{
		ldaw r10, sp[0]
		stw r10, sp[2]
	}
	std r5, r4, r10[2]
.Ltmp4:
	.cfi_offset 4, -16
.Ltmp5:
	.cfi_offset 5, -12
.Ltmp6:
	.cfi_offset 6, -8
.Ltmp7:
	{
		mov r6, r2
		stw r6, r10[6]
	}
.Ltmp8:
	{
		mov r4, r1
		add r1, r6, 7
	}
.Ltmp9:
	ldw r2, cp[.LCPI0_0]
	.loc	1 15 5 prologue_end
.Ltmp10:
	{
		and r1, r1, r2
		ldaw r2, sp[0]
	}
	{
		sub r5, r2, r1
		nop
	}
.Ltmp11:
	{
		nop
		set sp, r5
	}
	# ALLOCA 0
	.loc	1 18 23
	# STACKUP 
	# ALLOCA 1
	{
		extsp 2
		nop
	}
	ldaw r3, r10[3]
.Ltmp12:
	{
		mov r1, r5
		mov r2, r6
	}
	bl f_read
.Ltmp13:
	# STACKDOWN
	{
		ldaw sp, sp[2]
		ldw r0, r10[3]
	}
	.loc	1 19 9
.Ltmp14:
	{
		eq r0, r0, r6
		nop
	}
	bf r0, .LBB0_1
.Ltmp15:
	{
		ldc r1, 0
		nop
	}
	.loc	1 23 9
.Ltmp16:
	{
		sub r2, r6, 1
		stw r1, r4[0]
	}
	{
		mkmsk r0, 1
		nop
	}
.Ltmp17:
	.loc	1 21 5
	ashr r3, r2, 32
	bt r3, .LBB0_5
.Ltmp18:
.LBB0_3:
	.loc	1 22 9
	{
		shl r1, r1, 8
		ld8u r3, r5[r2]
	}
	.loc	1 23 9
	{
		or r1, r3, r1
		sub r2, r2, 1
	}
.Ltmp19:
	.loc	1 21 5
	ashr r3, r2, 32
	bf r3, .LBB0_3
.Ltmp20:
	{
		nop
		stw r1, r4[0]
	}
	bu .LBB0_5
.Ltmp21:
.LBB0_1:
	{
		ldc r0, 0
		nop
	}
.LBB0_5:
	{
		nop
		ldw r6, r10[6]
	}
	.loc	1 26 1
	ldd r5, r4, r10[2]
	{
		nop
		set sp, r10
	}
	{
		nop
		ldw r10, sp[2]
	}
	{
		nop
		retsp 8
	}
	# RETURN_REG_HOLDER
.Ltmp22:
	.cc_bottom ReadUint.function
	.set	ReadUint.maxcores,f_read.maxcores $M 1
	.globl	ReadUint.maxcores
	.set	ReadUint.maxtimers,f_read.maxtimers $M 0
	.globl	ReadUint.maxtimers
	.set	ReadUint.maxchanends,f_read.maxchanends $M 0
	.globl	ReadUint.maxchanends
.Ltmp23:
	.size	ReadUint, .Ltmp23-ReadUint
.Lfunc_end0:
	.cfi_endproc

	.globl	WriteHex
	.align	4
	.type	WriteHex,@function
	.cc_top WriteHex.function,WriteHex
WriteHex:
.Lfunc_begin1:
	.loc	1 28 0
	.cfi_startproc
	.issue_mode dual
	{
		nop
		dualentsp 0
	}
.Ltmp24:
	{
		nop
		retsp 0
	}
	.loc	1 32 1 prologue_end
.Ltmp25:
	# RETURN_REG_HOLDER
.Ltmp26:
	.cc_bottom WriteHex.function
	.set	WriteHex.nstackwords,0
	.globl	WriteHex.nstackwords
	.set	WriteHex.maxcores,1
	.globl	WriteHex.maxcores
	.set	WriteHex.maxtimers,0
	.globl	WriteHex.maxtimers
	.set	WriteHex.maxchanends,0
	.globl	WriteHex.maxchanends
.Ltmp27:
	.size	WriteHex, .Ltmp27-WriteHex
.Lfunc_end1:
	.cfi_endproc

.Ldebug_end0:
	.file	2 "C:/Users/takaaki/git/sw_xSSDAC/module_FatFs/src\\integer.h"
	.file	3 "C:/Users/takaaki/git/sw_xSSDAC/module_FatFs/src\\ff.h"
	.section	.trap_info,"",@progbits
.Ltrap_info_entries_start0:
	.long	.Ltrap_info_entries_end0-.Ltrap_info_entries_start0
	.long	1
.Ltrap_info_entries_end0: