	.text
	.file	"i2c_shared.c"
	.text
	.globl	i2c_shared_master_init
	.align	4
	.type	i2c_shared_master_init,@function
	.cc_top i2c_shared_master_init.function,i2c_shared_master_init
i2c_shared_master_init:
.Lfunc_begin0:
	.loc	2 7 0
	.cfi_startproc
	.issue_mode dual
	{
		nop
		dualentsp 4
	}
.Ltmp0:
	.cfi_def_cfa_offset 16
.Ltmp1:
	.cfi_offset 15, 0
	std r5, r4, sp[1]
.Ltmp2:
	.cfi_offset 4, -8
.Ltmp3:
	.cfi_offset 5, -4
	{
		mov r4, r0
		nop
	}
.Ltmp4:
	.loc	2 8 5 prologue_end
	ldaw r5, dp[i2c_swlock]
	{
		mov r0, r5
		nop
	}
	bl swlock_acquire
	.loc	2 9 5
	{
		mov r0, r4
		nop
	}
.Ltmp5:
	bl i2c_master_init
.Ltmp6:
	.loc	2 10 5
	{
		mov r0, r5
		nop
	}
	bl swlock_release
	.loc	2 11 1
	ldd r5, r4, sp[1]
	{
		nop
		retsp 4
	}
	# RETURN_REG_HOLDER
.Ltmp7:
	.cc_bottom i2c_shared_master_init.function
	.set	i2c_shared_master_init.nstackwords,((swlock_acquire.nstackwords $M i2c_master_init.nstackwords $M swlock_release.nstackwords) + 4)
	.globl	i2c_shared_master_init.nstackwords
	.set	i2c_shared_master_init.maxcores,i2c_master_init.maxcores $M swlock_acquire.maxcores $M swlock_release.maxcores $M 1
	.globl	i2c_shared_master_init.maxcores
	.set	i2c_shared_master_init.maxtimers,i2c_master_init.maxtimers $M swlock_acquire.maxtimers $M swlock_release.maxtimers $M 0
	.globl	i2c_shared_master_init.maxtimers
	.set	i2c_shared_master_init.maxchanends,i2c_master_init.maxchanends $M swlock_acquire.maxchanends $M swlock_release.maxchanends $M 0
	.globl	i2c_shared_master_init.maxchanends
.Ltmp8:
	.size	i2c_shared_master_init, .Ltmp8-i2c_shared_master_init
.Lfunc_end0:
	.cfi_endproc

	.globl	i2c_shared_master_rx
	.align	4
	.type	i2c_shared_master_rx,@function
	.cc_top i2c_shared_master_rx.function,i2c_shared_master_rx
i2c_shared_master_rx:
.Lfunc_begin1:
	.loc	2 17 0
	.cfi_startproc
	.issue_mode dual
	{
		nop
		dualentsp 8
	}
.Ltmp9:
	.cfi_def_cfa_offset 32
.Ltmp10:
	.cfi_offset 15, 0
	std r5, r4, sp[1]
.Ltmp11:
	.cfi_offset 4, -24
.Ltmp12:
	.cfi_offset 5, -20
	std r7, r6, sp[2]
.Ltmp13:
	.cfi_offset 6, -16
.Ltmp14:
	.cfi_offset 7, -12
.Ltmp15:
	.cfi_offset 8, -8
.Ltmp16:
	{
		mov r4, r3
		stw r8, sp[6]
	}
.Ltmp17:
	{
		mov r5, r2
		mov r6, r1
	}
.Ltmp18:
	{
		mov r7, r0
		nop
	}
.Ltmp19:
	.loc	2 19 5 prologue_end
	ldaw r8, dp[i2c_swlock]
	{
		mov r0, r8
		nop
	}
	bl swlock_acquire
.Ltmp20:
	.loc	2 20 14
	{
		mov r0, r6
		mov r1, r5
	}
.Ltmp21:
	{
		mov r2, r4
		mov r3, r7
	}
.Ltmp22:
	bl i2c_master_rx
.Ltmp23:
	{
		mov r4, r0
		mov r0, r8
	}
.Ltmp24:
	.loc	2 21 5
	bl swlock_release
	.loc	2 22 5
	{
		mov r0, r4
		ldw r8, sp[6]
	}
	ldd r7, r6, sp[2]
	ldd r5, r4, sp[1]
	{
		nop
		retsp 8
	}
	# RETURN_REG_HOLDER
.Ltmp25:
	.cc_bottom i2c_shared_master_rx.function
	.set	i2c_shared_master_rx.nstackwords,((swlock_acquire.nstackwords $M i2c_master_rx.nstackwords $M swlock_release.nstackwords) + 8)
	.globl	i2c_shared_master_rx.nstackwords
	.set	i2c_shared_master_rx.maxcores,i2c_master_rx.maxcores $M swlock_acquire.maxcores $M swlock_release.maxcores $M 1
	.globl	i2c_shared_master_rx.maxcores
	.set	i2c_shared_master_rx.maxtimers,i2c_master_rx.maxtimers $M swlock_acquire.maxtimers $M swlock_release.maxtimers $M 0
	.globl	i2c_shared_master_rx.maxtimers
	.set	i2c_shared_master_rx.maxchanends,i2c_master_rx.maxchanends $M swlock_acquire.maxchanends $M swlock_release.maxchanends $M 0
	.globl	i2c_shared_master_rx.maxchanends
.Ltmp26:
	.size	i2c_shared_master_rx, .Ltmp26-i2c_shared_master_rx
.Lfunc_end1:
	.cfi_endproc

	.globl	i2c_shared_master_read_reg
	.align	4
	.type	i2c_shared_master_read_reg,@function
	.cc_top i2c_shared_master_read_reg.function,i2c_shared_master_read_reg
i2c_shared_master_read_reg:
.Lfunc_begin2:
	.loc	2 27 0
	.cfi_startproc
	.issue_mode dual
	{
		nop
		dualentsp 8
	}
.Ltmp27:
	.cfi_def_cfa_offset 32
.Ltmp28:
	.cfi_offset 15, 0
	std r5, r4, sp[1]
.Ltmp29:
	.cfi_offset 4, -24
.Ltmp30:
	.cfi_offset 5, -20
	std r7, r6, sp[2]
.Ltmp31:
	.cfi_offset 6, -16
.Ltmp32:
	.cfi_offset 7, -12
	std r9, r8, sp[3]
.Ltmp33:
	.cfi_offset 8, -8
.Ltmp34:
	.cfi_offset 9, -4
.Ltmp35:
	{
		mov r4, r3
		mov r5, r2
	}
.Ltmp36:
	{
		mov r6, r1
		mov r7, r0
	}
.Ltmp37:
	{
		nop
		ldw r8, sp[9]
	}
	.loc	2 29 5 prologue_end
.Ltmp38:
	ldaw r9, dp[i2c_swlock]
	{
		mov r0, r9
		nop
	}
	bl swlock_acquire
.Ltmp39:
	.loc	2 30 14
	{
		mov r0, r6
		stw r7, sp[1]
	}
.Ltmp40:
	{
		mov r1, r5
		mov r2, r4
	}
.Ltmp41:
	{
		mov r3, r8
		nop
	}
	bl i2c_master_read_reg
.Ltmp42:
	{
		mov r4, r0
		mov r0, r9
	}
.Ltmp43:
	.loc	2 31 5
	bl swlock_release
	.loc	2 32 5
	{
		mov r0, r4
		nop
	}
	ldd r9, r8, sp[3]
	ldd r7, r6, sp[2]
	ldd r5, r4, sp[1]
	{
		nop
		retsp 8
	}
.Ltmp44:
	# RETURN_REG_HOLDER
.Ltmp45:
	.cc_bottom i2c_shared_master_read_reg.function
	.set	i2c_shared_master_read_reg.nstackwords,((swlock_acquire.nstackwords $M i2c_master_read_reg.nstackwords $M swlock_release.nstackwords) + 8)
	.globl	i2c_shared_master_read_reg.nstackwords
	.set	i2c_shared_master_read_reg.maxcores,i2c_master_read_reg.maxcores $M swlock_acquire.maxcores $M swlock_release.maxcores $M 1
	.globl	i2c_shared_master_read_reg.maxcores
	.set	i2c_shared_master_read_reg.maxtimers,i2c_master_read_reg.maxtimers $M swlock_acquire.maxtimers $M swlock_release.maxtimers $M 0
	.globl	i2c_shared_master_read_reg.maxtimers
	.set	i2c_shared_master_read_reg.maxchanends,i2c_master_read_reg.maxchanends $M swlock_acquire.maxchanends $M swlock_release.maxchanends $M 0
	.globl	i2c_shared_master_read_reg.maxchanends
.Ltmp46:
	.size	i2c_shared_master_read_reg, .Ltmp46-i2c_shared_master_read_reg
.Lfunc_end2:
	.cfi_endproc

	.globl	i2c_shared_master_write_reg
	.align	4
	.type	i2c_shared_master_write_reg,@function
	.cc_top i2c_shared_master_write_reg.function,i2c_shared_master_write_reg
i2c_shared_master_write_reg:
.Lfunc_begin3:
	.loc	2 39 0
	.cfi_startproc
	.issue_mode dual
	{
		nop
		dualentsp 8
	}
.Ltmp47:
	.cfi_def_cfa_offset 32
.Ltmp48:
	.cfi_offset 15, 0
	std r5, r4, sp[1]
.Ltmp49:
	.cfi_offset 4, -24
.Ltmp50:
	.cfi_offset 5, -20
	std r7, r6, sp[2]
.Ltmp51:
	.cfi_offset 6, -16
.Ltmp52:
	.cfi_offset 7, -12
	std r9, r8, sp[3]
.Ltmp53:
	.cfi_offset 8, -8
.Ltmp54:
	.cfi_offset 9, -4
.Ltmp55:
	{
		mov r4, r3
		mov r5, r2
	}
.Ltmp56:
	{
		mov r6, r1
		mov r7, r0
	}
.Ltmp57:
	{
		nop
		ldw r8, sp[9]
	}
	.loc	2 41 5 prologue_end
.Ltmp58:
	ldaw r9, dp[i2c_swlock]
	{
		mov r0, r9
		nop
	}
	bl swlock_acquire
.Ltmp59:
	.loc	2 42 14
	{
		mov r0, r6
		stw r7, sp[1]
	}
.Ltmp60:
	{
		mov r1, r5
		mov r2, r4
	}
.Ltmp61:
	{
		mov r3, r8
		nop
	}
	bl i2c_master_write_reg
.Ltmp62:
	{
		mov r4, r0
		mov r0, r9
	}
.Ltmp63:
	.loc	2 43 5
	bl swlock_release
	.loc	2 44 5
	{
		mov r0, r4
		nop
	}
	ldd r9, r8, sp[3]
	ldd r7, r6, sp[2]
	ldd r5, r4, sp[1]
	{
		nop
		retsp 8
	}
.Ltmp64:
	# RETURN_REG_HOLDER
.Ltmp65:
	.cc_bottom i2c_shared_master_write_reg.function
	.set	i2c_shared_master_write_reg.nstackwords,((swlock_acquire.nstackwords $M i2c_master_write_reg.nstackwords $M swlock_release.nstackwords) + 8)
	.globl	i2c_shared_master_write_reg.nstackwords
	.set	i2c_shared_master_write_reg.maxcores,i2c_master_write_reg.maxcores $M swlock_acquire.maxcores $M swlock_release.maxcores $M 1
	.globl	i2c_shared_master_write_reg.maxcores
	.set	i2c_shared_master_write_reg.maxtimers,i2c_master_write_reg.maxtimers $M swlock_acquire.maxtimers $M swlock_release.maxtimers $M 0
	.globl	i2c_shared_master_write_reg.maxtimers
	.set	i2c_shared_master_write_reg.maxchanends,i2c_master_write_reg.maxchanends $M swlock_acquire.maxchanends $M swlock_release.maxchanends $M 0
	.globl	i2c_shared_master_write_reg.maxchanends
.Ltmp66:
	.size	i2c_shared_master_write_reg, .Ltmp66-i2c_shared_master_write_reg
.Lfunc_end3:
	.cfi_endproc

	.globl	i2c_shared_master_write_part
	.align	4
	.type	i2c_shared_master_write_part,@function
	.cc_top i2c_shared_master_write_part.function,i2c_shared_master_write_part
i2c_shared_master_write_part:
.Lfunc_begin4:
	.loc	2 56 0
	.cfi_startproc
	.issue_mode dual
	{
		nop
		dualentsp 12
	}
.Ltmp67:
	.cfi_def_cfa_offset 48
.Ltmp68:
	.cfi_offset 15, 0
	std r5, r4, sp[2]
.Ltmp69:
	.cfi_offset 4, -32
.Ltmp70:
	.cfi_offset 5, -28
	std r7, r6, sp[3]
.Ltmp71:
	.cfi_offset 6, -24
.Ltmp72:
	.cfi_offset 7, -20
	std r9, r8, sp[4]
.Ltmp73:
	.cfi_offset 8, -16
.Ltmp74:
	.cfi_offset 9, -12
.Ltmp75:
	.cfi_offset 10, -8
.Ltmp76:
	{
		mov r4, r3
		stw r10, sp[10]
	}
.Ltmp77:
	{
		mov r5, r2
		mov r6, r1
	}
.Ltmp78:
	{
		mov r7, r0
		nop
	}
.Ltmp79:
	ldd r8, r10, sp[7]
	.loc	2 58 5 prologue_end
.Ltmp80:
	ldaw r9, dp[i2c_swlock]
	{
		mov r0, r9
		nop
	}
	bl swlock_acquire
	.loc	2 59 14
	std r7, r8, sp[1]
.Ltmp81:
	{
		mov r0, r6
		stw r10, sp[1]
	}
.Ltmp82:
	{
		mov r1, r5
		mov r2, r4
	}
.Ltmp83:
	{
		nop
		ldw r3, sp[13]
	}
	bl i2c_master_write_part
.Ltmp84:
	{
		mov r4, r0
		mov r0, r9
	}
.Ltmp85:
	.loc	2 60 5
	bl swlock_release
	.loc	2 61 5
	{
		mov r0, r4
		ldw r10, sp[10]
	}
	ldd r9, r8, sp[4]
	ldd r7, r6, sp[3]
.Ltmp86:
	ldd r5, r4, sp[2]
	{
		nop
		retsp 12
	}
.Ltmp87:
	# RETURN_REG_HOLDER
.Ltmp88:
	.cc_bottom i2c_shared_master_write_part.function
	.set	i2c_shared_master_write_part.nstackwords,((swlock_acquire.nstackwords $M i2c_master_write_part.nstackwords $M swlock_release.nstackwords) + 12)
	.globl	i2c_shared_master_write_part.nstackwords
	.set	i2c_shared_master_write_part.maxcores,i2c_master_write_part.maxcores $M swlock_acquire.maxcores $M swlock_release.maxcores $M 1
	.globl	i2c_shared_master_write_part.maxcores
	.set	i2c_shared_master_write_part.maxtimers,i2c_master_write_part.maxtimers $M swlock_acquire.maxtimers $M swlock_release.maxtimers $M 0
	.globl	i2c_shared_master_write_part.maxtimers
	.set	i2c_shared_master_write_part.maxchanends,i2c_master_write_part.maxchanends $M swlock_acquire.maxchanends $M swlock_release.maxchanends $M 0
	.globl	i2c_shared_master_write_part.maxchanends
.Ltmp89:
	.size	i2c_shared_master_write_part, .Ltmp89-i2c_shared_master_write_part
.Lfunc_end4:
	.cfi_endproc

	.section	.dp.bss.4,"awd",@nobits
	.cc_top i2c_swlock.data,i2c_swlock
	.globl	i2c_swlock
	.align	4
	.type	i2c_swlock,@object
	.size	i2c_swlock, 4
i2c_swlock:
	.long	0
	.cc_bottom i2c_swlock.data
.Ldebug_end0:
	.text
.Ldebug_end1:
	.file	3 "C:\\Program Files (x86)\\XMOS\\xTIMEcomposer\\Community_14.4.1\\target/include\\xccompat.h"
	.file	4 "C:/Users/takaaki/git/sc_i2c_xken/module_i2c_single_port/src\\i2c.h"
	.section	.trap_info,"",@progbits
.Ltrap_info_entries_start0:
	.long	.Ltrap_info_entries_end0-.Ltrap_info_entries_start0
	.long	1
.Ltrap_info_entries_end0: