	.text
	.file	"C:/Users/takaaki/git/sw_xSSDAC/module_usb_audio/endpoint0/audiorequests.xc"
                                        # Start of file scope inline assembly
	.inline_definition delay_seconds
	.inline_definition delay_milliseconds
	.inline_definition delay_microseconds
	.inline_definition XUD_SetReady_Out
	.inline_definition XUD_SetReady_OutPtr
	.inline_definition XUD_SetReady_InPtr
	.inline_definition XUD_SetReady_In
	.inline_definition array_to_xc_ptr
	.set usage.anon.0,0
	.set usage.anon.1,0
	.set usage.anon.2,0
	.set usage.anon.3,0
	.set usage.anon.4,0
	.set usage.anon.5,0
	.set usage.anon.6,0
	.set usage.anon.7,0
	.set usage.anon.8,0
	.set usage.anon.9,0
	.set usage.anon.10,0
	.set usage.anon.11,0
	.set usage.anon.12,0
	.set usage.anon.13,0
	.set usage.anon.14,0
	.set usage.anon.15,0
	.set usage.anon.16,0
	.set usage.anon.17,0
	.set usage.anon.18,0
	.set usage.anon.19,0
	.set usage.anon.20,0
	.set usage.anon.21,0
	.set usage.anon.22,0
	.set usage.anon.23,0
	.set usage.anon.24,0
	.set usage.anon.25,0
	.globread usage.anon.25,volsIn,0,4,"C:/Users/takaaki/git/sw_xSSDAC/module_usb_audio/endpoint0/audiorequests.xc:248:39: note: object used here (bytes 0..4)\n                unsigned master_vol = volsIn[0] == 0x8000 ? 0 : db_to_mult(volsIn[0], 8, 29);\n                                      ^~~~~~~~~"
	.globread usage.anon.25,volsIn,"C:/Users/takaaki/git/sw_xSSDAC/module_usb_audio/endpoint0/audiorequests.xc:249:33: note: object used here\n                 unsigned vol = volsIn[channel] == 0x8000 ? 0 : db_to_mult(volsIn[channel], 8, 29);\n                                ^~~~~~~~~~~~~~~"
	.globread usage.anon.25,volsOut,0,4,"C:/Users/takaaki/git/sw_xSSDAC/module_usb_audio/endpoint0/audiorequests.xc:226:39: note: object used here (bytes 0..4)\n                unsigned master_vol = volsOut[0] == 0x8000 ? 0 : db_to_mult(volsOut[0], 8, 29);\n                                      ^~~~~~~~~~"
	.globread usage.anon.25,volsOut,"C:/Users/takaaki/git/sw_xSSDAC/module_usb_audio/endpoint0/audiorequests.xc:227:32: note: object used here\n                unsigned vol = volsOut[channel] == 0x8000 ? 0 : db_to_mult(volsOut[channel], 8, 29);\n                               ^~~~~~~~~~~~~~~~"
	.globread usage.anon.25,multIn,"C:/Users/takaaki/git/sw_xSSDAC/module_usb_audio/endpoint0/audiorequests.xc:211:39: note: object used here\n    xc_ptr p_multIn = array_to_xc_ptr(multIn);\n                                      ^~~~~~"
	.globread usage.anon.25,multOut,"C:/Users/takaaki/git/sw_xSSDAC/module_usb_audio/endpoint0/audiorequests.xc:208:40: note: object used here\n    xc_ptr p_multOut = array_to_xc_ptr(multOut);\n                                       ^~~~~~~"
	.globread usage.anon.24,mutesIn,"C:/Users/takaaki/git/sw_xSSDAC/module_usb_audio/endpoint0/audiorequests.xc:251:67: note: object used here\n                x = longMul(master_vol, vol, 29) * !mutesIn[0] * !mutesIn[channel];\n                                                                  ^~~~~~~~~~~~~~~~"
	.globread usage.anon.22,mutesIn,0,4,"C:/Users/takaaki/git/sw_xSSDAC/module_usb_audio/endpoint0/audiorequests.xc:251:53: note: object used here (bytes 0..4)\n                x = longMul(master_vol, vol, 29) * !mutesIn[0] * !mutesIn[channel];\n                                                    ^~~~~~~~~~"
	.globread usage.anon.21,mutesOut,"C:/Users/takaaki/git/sw_xSSDAC/module_usb_audio/endpoint0/audiorequests.xc:229:68: note: object used here\n                x = longMul(master_vol, vol, 29) * !mutesOut[0] * !mutesOut[channel];\n                                                                   ^~~~~~~~~~~~~~~~~"
	.globread usage.anon.19,mutesOut,0,4,"C:/Users/takaaki/git/sw_xSSDAC/module_usb_audio/endpoint0/audiorequests.xc:229:53: note: object used here (bytes 0..4)\n                x = longMul(master_vol, vol, 29) * !mutesOut[0] * !mutesOut[channel];\n                                                    ^~~~~~~~~~~"
	.globread usage.anon.18,volsIn,0,4,"C:/Users/takaaki/git/sw_xSSDAC/module_usb_audio/endpoint0/audiorequests.xc:175:39: note: object used here (bytes 0..4)\n                unsigned master_vol = volsIn[0] == 0x8000 ? 0 : db_to_mult(volsIn[0], 8, 29);\n                                      ^~~~~~~~~"
	.globread usage.anon.18,volsIn,"C:/Users/takaaki/git/sw_xSSDAC/module_usb_audio/endpoint0/audiorequests.xc:180:36: note: object used here\n                    unsigned vol = volsIn[i] == 0x8000 ? 0 : db_to_mult(volsIn[i], 8, 29);\n                                   ^~~~~~~~~"
	.globread usage.anon.18,volsOut,0,4,"C:/Users/takaaki/git/sw_xSSDAC/module_usb_audio/endpoint0/audiorequests.xc:148:39: note: object used here (bytes 0..4)\n                unsigned master_vol = volsOut[0] == 0x8000 ? 0 : db_to_mult(volsOut[0], 8, 29);\n                                      ^~~~~~~~~~"
	.globread usage.anon.18,volsOut,"C:/Users/takaaki/git/sw_xSSDAC/module_usb_audio/endpoint0/audiorequests.xc:154:36: note: object used here\n                    unsigned vol = volsOut[i] == 0x8000 ? 0 : db_to_mult(volsOut[i], 8, 29);\n                                   ^~~~~~~~~~"
	.globread usage.anon.18,multIn,"C:/Users/takaaki/git/sw_xSSDAC/module_usb_audio/endpoint0/audiorequests.xc:142:39: note: object used here\n    xc_ptr p_multIn = array_to_xc_ptr(multIn);\n                                      ^~~~~~"
	.globread usage.anon.18,multOut,"C:/Users/takaaki/git/sw_xSSDAC/module_usb_audio/endpoint0/audiorequests.xc:139:40: note: object used here\n    xc_ptr p_multOut = array_to_xc_ptr(multOut);\n                                       ^~~~~~~"
	.globread usage.anon.17,mutesIn,"C:/Users/takaaki/git/sw_xSSDAC/module_usb_audio/endpoint0/audiorequests.xc:182:71: note: object used here\n                    x = longMul(master_vol, vol, 29) * !mutesIn[0] * !mutesIn[i];\n                                                                      ^~~~~~~~~~"
	.globread usage.anon.15,mutesIn,0,4,"C:/Users/takaaki/git/sw_xSSDAC/module_usb_audio/endpoint0/audiorequests.xc:182:57: note: object used here (bytes 0..4)\n                    x = longMul(master_vol, vol, 29) * !mutesIn[0] * !mutesIn[i];\n                                                        ^~~~~~~~~~"
	.globread usage.anon.14,mutesOut,"C:/Users/takaaki/git/sw_xSSDAC/module_usb_audio/endpoint0/audiorequests.xc:156:72: note: object used here\n                    x = longMul(master_vol, vol, 29) * !mutesOut[0] * !mutesOut[i];\n                                                                       ^~~~~~~~~~~"
	.globread usage.anon.12,mutesOut,0,4,"C:/Users/takaaki/git/sw_xSSDAC/module_usb_audio/endpoint0/audiorequests.xc:156:57: note: object used here (bytes 0..4)\n                    x = longMul(master_vol, vol, 29) * !mutesOut[0] * !mutesOut[i];\n                                                        ^~~~~~~~~~~"
	.globwrite AudioClassRequests_1,mutesIn,"C:/Users/takaaki/git/sw_xSSDAC/module_usb_audio/endpoint0/audiorequests.xc:1226:33: note: object used here\n                                mutesIn[ sp.wValue & 0xff ] = buffer[0];\n                                ^~~~~~~~~~~~~~~~~~~~~~~~~~~"
	.globwrite AudioClassRequests_1,volsIn,"C:/Users/takaaki/git/sw_xSSDAC/module_usb_audio/endpoint0/audiorequests.xc:1207:33: note: object used here\n                                volsIn[ sp.wValue & 0xff ] = buffer[0] | (((int) (signed char) buffer[1]) << 8);\n                                ^~~~~~~~~~~~~~~~~~~~~~~~~~"
	.globwrite AudioClassRequests_1,mutesOut,"C:/Users/takaaki/git/sw_xSSDAC/module_usb_audio/endpoint0/audiorequests.xc:1221:33: note: object used here\n                                mutesOut[ sp.wValue & 0xff ] = buffer[0];\n                                ^~~~~~~~~~~~~~~~~~~~~~~~~~~~"
	.globwrite AudioClassRequests_1,volsOut,"C:/Users/takaaki/git/sw_xSSDAC/module_usb_audio/endpoint0/audiorequests.xc:1202:33: note: object used here\n                                volsOut[ sp.wValue & 0xff ] = buffer[0] | (((int) (signed char) buffer[1]) << 8);\n                                ^~~~~~~~~~~~~~~~~~~~~~~~~~~"
	.globwrite AudioEndpointRequests_1,g_curSamFreq,"C:/Users/takaaki/git/sw_xSSDAC/module_usb_audio/endpoint0/audiorequests.xc:1118:33: note: object used here\n                                g_curSamFreq = newSampleRate;\n                                ^~~~~~~~~~~~"
	.globwrite AudioClassRequests_2,g_curSamFreq,"C:/Users/takaaki/git/sw_xSSDAC/module_usb_audio/endpoint0/audiorequests.xc:325:41: note: object used here\n                                        g_curSamFreq = newSampleRate;\n                                        ^~~~~~~~~~~~"
	.globwrite AudioClassRequests_2,mutesIn,"C:/Users/takaaki/git/sw_xSSDAC/module_usb_audio/endpoint0/audiorequests.xc:599:41: note: object used here\n                                        mutesIn[ sp.wValue&0xff ] = buffer[0];\n                                        ^~~~~~~~~~~~~~~~~~~~~~~~~"
	.globwrite AudioClassRequests_2,volsIn,"C:/Users/takaaki/git/sw_xSSDAC/module_usb_audio/endpoint0/audiorequests.xc:547:41: note: object used here\n                                        volsIn[ sp.wValue&0xff ] = buffer[0] | (((int) (signed char) buffer[1]) << 8);\n                                        ^~~~~~~~~~~~~~~~~~~~~~~~"
	.globwrite AudioClassRequests_2,mutesOut,"C:/Users/takaaki/git/sw_xSSDAC/module_usb_audio/endpoint0/audiorequests.xc:590:41: note: object used here\n                                        mutesOut[sp.wValue & 0xff] = buffer[0];\n                                        ^~~~~~~~~~~~~~~~~~~~~~~~~~"
	.globwrite AudioClassRequests_2,volsOut,"C:/Users/takaaki/git/sw_xSSDAC/module_usb_audio/endpoint0/audiorequests.xc:538:41: note: object used here\n                                        volsOut[ sp.wValue&0xff ] = buffer[0] | (((int) (signed char) buffer[1]) << 8);\n                                        ^~~~~~~~~~~~~~~~~~~~~~~~~"
	.call AudioClassRequests_1,usage.anon.25
	.call AudioClassRequests_1,XUD_GetBuffer
	.call AudioClassRequests_1,XUD_DoSetRequestStatus
	.call AudioClassRequests_1,XUD_DoGetRequest
	.call AudioEndpointRequests_1,XUD_SetBuffer
	.call AudioEndpointRequests_1,XUD_GetBuffer
	.call AudioEndpointRequests_1,XUD_DoGetRequest
	.call AudioEndpointRequests_1,FeedbackStabilityDelay
	.call AudioClassRequests_2,usage.anon.9
	.call AudioClassRequests_2,usage.anon.25
	.call AudioClassRequests_2,usage.anon.10
	.call AudioClassRequests_2,XUD_GetBuffer
	.call AudioClassRequests_2,XUD_DoSetRequestStatus
	.call AudioClassRequests_2,XUD_DoGetRequest
	.call AudioClassRequests_2,FeedbackStabilityDelay
	.call usage.anon.25,usage.anon.7
	.call usage.anon.25,usage.anon.24
	.call usage.anon.25,usage.anon.23
	.call usage.anon.25,usage.anon.21
	.call usage.anon.25,usage.anon.20
	.call usage.anon.25,usage.anon.18
	.call usage.anon.25,db_to_mult
	.call usage.anon.23,usage.anon.22
	.call usage.anon.23,usage.anon.11
	.call usage.anon.20,usage.anon.19
	.call usage.anon.20,usage.anon.11
	.call usage.anon.18,usage.anon.7
	.call usage.anon.18,usage.anon.17
	.call usage.anon.18,usage.anon.16
	.call usage.anon.18,usage.anon.14
	.call usage.anon.18,usage.anon.13
	.call usage.anon.18,db_to_mult
	.call usage.anon.16,usage.anon.15
	.call usage.anon.16,usage.anon.11
	.call usage.anon.13,usage.anon.12
	.call usage.anon.13,usage.anon.11
	.call usage.anon.10,usage.anon.8
	.call usage.anon.6,usage.anon.5
	.call usage.anon.2,delay_ticks_longlong
	.call usage.anon.1,delay_ticks_longlong
	.call usage.anon.0,delay_ticks_longlong
	.par usage.anon.23,usage.anon.24,"C:/Users/takaaki/git/sw_xSSDAC/module_usb_audio/endpoint0/audiorequests.xc:251:21: error: use of `%s\' causes an ambiguous evaluation\n                x = longMul(master_vol, vol, 29) * !mutesIn[0] * !mutesIn[channel];\n                    ^~~~~~~~~~~~~~~~~~~~~~~~~~~~~~~~~~~~~~~~~~~~~~~~~~~~~~~~~~~~~~"
	.par usage.anon.11,usage.anon.22,"C:/Users/takaaki/git/sw_xSSDAC/module_usb_audio/endpoint0/audiorequests.xc:251:21: error: use of `%s\' causes an ambiguous evaluation\n                x = longMul(master_vol, vol, 29) * !mutesIn[0] * !mutesIn[channel];\n                    ^~~~~~~~~~~~~~~~~~~~~~~~~~~~~~~~~~~~~~~~~~"
	.par usage.anon.20,usage.anon.21,"C:/Users/takaaki/git/sw_xSSDAC/module_usb_audio/endpoint0/audiorequests.xc:229:21: error: use of `%s\' causes an ambiguous evaluation\n                x = longMul(master_vol, vol, 29) * !mutesOut[0] * !mutesOut[channel];\n                    ^~~~~~~~~~~~~~~~~~~~~~~~~~~~~~~~~~~~~~~~~~~~~~~~~~~~~~~~~~~~~~~~"
	.par usage.anon.11,usage.anon.19,"C:/Users/takaaki/git/sw_xSSDAC/module_usb_audio/endpoint0/audiorequests.xc:229:21: error: use of `%s\' causes an ambiguous evaluation\n                x = longMul(master_vol, vol, 29) * !mutesOut[0] * !mutesOut[channel];\n                    ^~~~~~~~~~~~~~~~~~~~~~~~~~~~~~~~~~~~~~~~~~~"
	.par usage.anon.16,usage.anon.17,"C:/Users/takaaki/git/sw_xSSDAC/module_usb_audio/endpoint0/audiorequests.xc:182:25: error: use of `%s\' causes an ambiguous evaluation\n                    x = longMul(master_vol, vol, 29) * !mutesIn[0] * !mutesIn[i];\n                        ^~~~~~~~~~~~~~~~~~~~~~~~~~~~~~~~~~~~~~~~~~~~~~~~~~~~~~~~"
	.par usage.anon.11,usage.anon.15,"C:/Users/takaaki/git/sw_xSSDAC/module_usb_audio/endpoint0/audiorequests.xc:182:25: error: use of `%s\' causes an ambiguous evaluation\n                    x = longMul(master_vol, vol, 29) * !mutesIn[0] * !mutesIn[i];\n                        ^~~~~~~~~~~~~~~~~~~~~~~~~~~~~~~~~~~~~~~~~~"
	.par usage.anon.13,usage.anon.14,"C:/Users/takaaki/git/sw_xSSDAC/module_usb_audio/endpoint0/audiorequests.xc:156:25: error: use of `%s\' causes an ambiguous evaluation\n                    x = longMul(master_vol, vol, 29) * !mutesOut[0] * !mutesOut[i];\n                        ^~~~~~~~~~~~~~~~~~~~~~~~~~~~~~~~~~~~~~~~~~~~~~~~~~~~~~~~~~"
	.par usage.anon.11,usage.anon.12,"C:/Users/takaaki/git/sw_xSSDAC/module_usb_audio/endpoint0/audiorequests.xc:156:25: error: use of `%s\' causes an ambiguous evaluation\n                    x = longMul(master_vol, vol, 29) * !mutesOut[0] * !mutesOut[i];\n                        ^~~~~~~~~~~~~~~~~~~~~~~~~~~~~~~~~~~~~~~~~~~"
	.set usage.anon.3.locnoside, 0
	.set usage.anon.6.locnoside, 0
	.set usage.anon.7.locnoside, 0
	.set usage.anon.8.locnoside, 0
	.set usage.anon.9.locnoside, 0
	.set usage.anon.10.locnoside, 0
	.set FeedbackStabilityDelay.locnoside, 0
	.set usage.anon.25.locnoside, 0
	.set AudioClassRequests_2.locnoside, 0
	.set AudioEndpointRequests_1.locnoside, 0
	.set AudioClassRequests_1.locnoside, 0
	.set usage.anon.18.locnoglobalaccess, 0
	.set usage.anon.25.locnoglobalaccess, 0
	.set AudioClassRequests_2.locnoglobalaccess, 0
	.set AudioEndpointRequests_1.locnoglobalaccess, 0
	.set AudioClassRequests_1.locnoglobalaccess, 0
	.globpassesref usage.anon.7, multIn,"C:/Users/takaaki/git/sw_xSSDAC/module_usb_audio/endpoint0/audiorequests.xc:211:23: error: call to `array_to_xc_ptr\' in `updateVol\' makes alias of global \'multIn\'\n    xc_ptr p_multIn = array_to_xc_ptr(multIn);\n                      ^~~~~~~~~~~~~~~~~~~~~~~"
	.globpassesref usage.anon.7, multOut,"C:/Users/takaaki/git/sw_xSSDAC/module_usb_audio/endpoint0/audiorequests.xc:208:24: error: call to `array_to_xc_ptr\' in `updateVol\' makes alias of global \'multOut\'\n    xc_ptr p_multOut = array_to_xc_ptr(multOut);\n                       ^~~~~~~~~~~~~~~~~~~~~~~~"
	.globpassesref usage.anon.7, multIn,"C:/Users/takaaki/git/sw_xSSDAC/module_usb_audio/endpoint0/audiorequests.xc:142:23: error: call to `array_to_xc_ptr\' in `updateMasterVol\' makes alias of global \'multIn\'\n    xc_ptr p_multIn = array_to_xc_ptr(multIn);\n                      ^~~~~~~~~~~~~~~~~~~~~~~"
	.globpassesref usage.anon.7, multOut,"C:/Users/takaaki/git/sw_xSSDAC/module_usb_audio/endpoint0/audiorequests.xc:139:24: error: call to `array_to_xc_ptr\' in `updateMasterVol\' makes alias of global \'multOut\'\n    xc_ptr p_multOut = array_to_xc_ptr(multOut);\n                       ^~~~~~~~~~~~~~~~~~~~~~~~"

                                        # End of file scope inline assembly
	.text
	.align	4
	.type	storeInt,@function
	.cc_top storeInt.function,storeInt
storeInt:                               # @storeInt
.Lfunc_begin0:
	.loc	1 57 0                  # C:/Users/takaaki/git/sw_xSSDAC/module_usb_audio/endpoint0/audiorequests.xc:57:0
	.cfi_startproc
	.issue_mode dual
# BB#0:                                 # %allocas
.Lxtalabel0:
	{
		nop
		dualentsp 0
	}
	{
		extsp 2
		nop
	}
.Ltmp0:
	.cfi_def_cfa_offset 8
.Ltmp1:
	.cfi_offset 4, -8
	.loc	1 58 0 prologue_end     # C:/Users/takaaki/git/sw_xSSDAC/module_usb_audio/endpoint0/audiorequests.xc:58:0
.Ltmp2:
	{
		add r11, r1, 3
		stw r4, sp[0]
	}
	{
		ldc r3, 9
		nop
	}
	.loc	1 58 0                  # C:/Users/takaaki/git/sw_xSSDAC/module_usb_audio/endpoint0/audiorequests.xc:58:0
	{
		shr r4, r11, r3
		nop
	}
.Ltrap_info0:
	{
		ecallt r4
		nop
	}
	.loc	1 58 0                  # C:/Users/takaaki/git/sw_xSSDAC/module_usb_audio/endpoint0/audiorequests.xc:58:0
	{
		shr r4, r2, 24
		nop
	}
	.loc	1 58 0                  # C:/Users/takaaki/git/sw_xSSDAC/module_usb_audio/endpoint0/audiorequests.xc:58:0
	st8 r4, r0[r11]
	.loc	1 59 0                  # C:/Users/takaaki/git/sw_xSSDAC/module_usb_audio/endpoint0/audiorequests.xc:59:0
	{
		add r11, r1, 2
		nop
	}
	.loc	1 59 0                  # C:/Users/takaaki/git/sw_xSSDAC/module_usb_audio/endpoint0/audiorequests.xc:59:0
	{
		shr r4, r11, r3
		nop
	}
.Ltrap_info1:
	{
		ecallt r4
		nop
	}
	.loc	1 59 0                  # C:/Users/takaaki/git/sw_xSSDAC/module_usb_audio/endpoint0/audiorequests.xc:59:0
	{
		shr r4, r2, 16
		nop
	}
	.loc	1 59 0                  # C:/Users/takaaki/git/sw_xSSDAC/module_usb_audio/endpoint0/audiorequests.xc:59:0
	st8 r4, r0[r11]
	.loc	1 60 0                  # C:/Users/takaaki/git/sw_xSSDAC/module_usb_audio/endpoint0/audiorequests.xc:60:0
	{
		add r11, r1, 1
		nop
	}
	.loc	1 60 0                  # C:/Users/takaaki/git/sw_xSSDAC/module_usb_audio/endpoint0/audiorequests.xc:60:0
	{
		shr r4, r11, r3
		nop
	}
.Ltrap_info2:
	{
		ecallt r4
		nop
	}
	.loc	1 60 0                  # C:/Users/takaaki/git/sw_xSSDAC/module_usb_audio/endpoint0/audiorequests.xc:60:0
	{
		shr r4, r2, 8
		nop
	}
	.loc	1 60 0                  # C:/Users/takaaki/git/sw_xSSDAC/module_usb_audio/endpoint0/audiorequests.xc:60:0
	st8 r4, r0[r11]
	.loc	1 61 0                  # C:/Users/takaaki/git/sw_xSSDAC/module_usb_audio/endpoint0/audiorequests.xc:61:0
	{
		shr r3, r1, r3
		nop
	}
.Ltrap_info3:
	{
		ecallt r3
		nop
	}
	.loc	1 61 0                  # C:/Users/takaaki/git/sw_xSSDAC/module_usb_audio/endpoint0/audiorequests.xc:61:0
	st8 r2, r0[r1]
	{
		ldaw sp, sp[2]
		ldw r4, sp[0]
	}
	{
		nop
		retsp 0
	}
	# RETURN_REG_HOLDER
.Ltmp3:
	.cc_bottom storeInt.function
	.set	storeInt.nstackwords,2
	.set	storeInt.maxcores,1
	.set	storeInt.maxtimers,0
	.set	storeInt.maxchanends,0
.Ltmp4:
	.size	storeInt, .Ltmp4-storeInt
.Lfunc_end0:
	.cfi_endproc

	.align	4
	.type	storeFreq,@function
	.cc_top storeFreq.function,storeFreq
storeFreq:                              # @storeFreq
.Lfunc_begin1:
	.loc	1 72 0                  # C:/Users/takaaki/git/sw_xSSDAC/module_usb_audio/endpoint0/audiorequests.xc:72:0
	.cfi_startproc
	.issue_mode dual
# BB#0:                                 # %allocas
.Lxtalabel1:
	{
		nop
		dualentsp 6
	}
.Ltmp5:
	.cfi_def_cfa_offset 24
.Ltmp6:
	.cfi_offset 15, 0
	std r5, r4, sp[1]               # 4-byte Folded Spill
.Ltmp7:
	.cfi_offset 4, -16
.Ltmp8:
	.cfi_offset 5, -12
	std r7, r6, sp[2]               # 4-byte Folded Spill
.Ltmp9:
	.cfi_offset 6, -8
.Ltmp10:
	.cfi_offset 7, -4
	{
		mov r5, r2
		mov r4, r1
	}
	{
		mov r6, r0
		ldw r7, r4[0]
	}
	.loc	1 73 0 prologue_end     # C:/Users/takaaki/git/sw_xSSDAC/module_usb_audio/endpoint0/audiorequests.xc:73:0
.Ltmp11:
	{
		mov r1, r7
		nop
	}
.Lxta.call_labels0:
	bl storeInt
	.loc	1 74 0                  # C:/Users/takaaki/git/sw_xSSDAC/module_usb_audio/endpoint0/audiorequests.xc:74:0
	{
		add r1, r7, 4
		mov r0, r6
	}
	.loc	1 75 0                  # C:/Users/takaaki/git/sw_xSSDAC/module_usb_audio/endpoint0/audiorequests.xc:75:0
	{
		mov r2, r5
		nop
	}
.Lxta.call_labels1:
	bl storeInt
	.loc	1 76 0                  # C:/Users/takaaki/git/sw_xSSDAC/module_usb_audio/endpoint0/audiorequests.xc:76:0
	{
		add r1, r7, 8
		ldc r2, 0
	}
	.loc	1 77 0                  # C:/Users/takaaki/git/sw_xSSDAC/module_usb_audio/endpoint0/audiorequests.xc:77:0
	{
		mov r0, r6
		nop
	}
.Lxta.call_labels2:
	bl storeInt
	.loc	1 78 0                  # C:/Users/takaaki/git/sw_xSSDAC/module_usb_audio/endpoint0/audiorequests.xc:78:0
	ldaw r0, r7[3]
	{
		nop
		stw r0, r4[0]
	}
	ldd r7, r6, sp[2]               # 4-byte Folded Reload
	ldd r5, r4, sp[1]               # 4-byte Folded Reload
	{
		nop
		retsp 6
	}
	# RETURN_REG_HOLDER
.Ltmp12:
	.cc_bottom storeFreq.function
	.set	storeFreq.nstackwords,(storeInt.nstackwords + 6)
	.set	storeFreq.maxcores,storeInt.maxcores $M 1
	.set	storeFreq.maxtimers,storeInt.maxtimers $M 0
	.set	storeFreq.maxchanends,storeInt.maxchanends $M 0
.Ltmp13:
	.size	storeFreq, .Ltmp13-storeFreq
.Lfunc_end1:
	.cfi_endproc

	.section	.cp.rodata.cst4,"aMc",@progbits,4
	.cc_top .LCPI2_0.data,.LCPI2_0
	.align	4
	.type	.LCPI2_0,@object
	.size	.LCPI2_0, 4
.LCPI2_0:
	.long	20000000                # 0x1312d00
	.cc_bottom .LCPI2_0.data
	.cc_top .LCPI2_1.data,.LCPI2_1
	.align	4
	.type	.LCPI2_1,@object
	.size	.LCPI2_1, 4
.LCPI2_1:
	.long	2000000                 # 0x1e8480
	.cc_bottom .LCPI2_1.data
	.text
	.globl	FeedbackStabilityDelay
	.align	4
	.type	FeedbackStabilityDelay,@function
	.cc_top FeedbackStabilityDelay.function,FeedbackStabilityDelay
FeedbackStabilityDelay:                 # @FeedbackStabilityDelay
.Lfunc_begin2:
	.loc	1 84 0                  # C:/Users/takaaki/git/sw_xSSDAC/module_usb_audio/endpoint0/audiorequests.xc:84:0
	.cfi_startproc
	.issue_mode dual
# BB#0:                                 # %allocas
.Lxtalabel2:
	{
		nop
		dualentsp 0
	}
	.loc	1 90 0 prologue_end     # C:/Users/takaaki/git/sw_xSSDAC/module_usb_audio/endpoint0/audiorequests.xc:90:0
.Ltmp14:
	#APP
	ldw   r0, dp[g_curUsbSpeed]
	#NO_APP
.Ltmp15:
	#DEBUG_VALUE: usbSpeed <- R0
	.loc	1 92 5                  # C:/Users/takaaki/git/sw_xSSDAC/module_usb_audio/endpoint0/audiorequests.xc:92:5
	{
		eq r0, r0, 2
		nop
	}
.Ltmp16:
	.loc	1 94 0                  # C:/Users/takaaki/git/sw_xSSDAC/module_usb_audio/endpoint0/audiorequests.xc:94:0
	bt r0, .LBB2_1
# BB#2:                                 # %allocas
.Lxtalabel3:
	ldw r0, cp[.LCPI2_0]
	bu .LBB2_3
.LBB2_1:
	ldw r0, cp[.LCPI2_1]
.LBB2_3:                                # %allocas
.Lxtalabel4:
.Ltmp17:
	#DEBUG_VALUE: time <- R1
	.loc	1 101 0                 # C:/Users/takaaki/git/sw_xSSDAC/module_usb_audio/endpoint0/audiorequests.xc:101:0
	{
		gettime r1
		get r11, id
	}
.Ltmp18:
	.loc	1 102 0                 # C:/Users/takaaki/git/sw_xSSDAC/module_usb_audio/endpoint0/audiorequests.xc:102:0
	ldaw r2, dp[__timers]
	.loc	1 102 0                 # C:/Users/takaaki/git/sw_xSSDAC/module_usb_audio/endpoint0/audiorequests.xc:102:0
	{
		add r0, r0, r1
		ldw r2, r2[r11]
	}
	.loc	1 102 0                 # C:/Users/takaaki/git/sw_xSSDAC/module_usb_audio/endpoint0/audiorequests.xc:102:0
	{
		setd res[r2], r0
		nop
	}
	.loc	1 102 0                 # C:/Users/takaaki/git/sw_xSSDAC/module_usb_audio/endpoint0/audiorequests.xc:102:0
	{
		setc res[r2], 9
		nop
	}
	.loc	1 102 0                 # C:/Users/takaaki/git/sw_xSSDAC/module_usb_audio/endpoint0/audiorequests.xc:102:0
.Ltmp19:
.Lxta.endpoint_labels0:
	{
		in r0, res[r2]
		retsp 0
	}
	# RETURN_REG_HOLDER
.Ltmp20:
	.cc_bottom FeedbackStabilityDelay.function
	.set	FeedbackStabilityDelay.nstackwords,0
	.globl	FeedbackStabilityDelay.nstackwords
	.set	FeedbackStabilityDelay.maxcores,1
	.globl	FeedbackStabilityDelay.maxcores
	.set	FeedbackStabilityDelay.maxtimers,0
	.globl	FeedbackStabilityDelay.maxtimers
	.set	FeedbackStabilityDelay.maxchanends,0
	.globl	FeedbackStabilityDelay.maxchanends
.Ltmp21:
	.size	FeedbackStabilityDelay, .Ltmp21-FeedbackStabilityDelay
.Lfunc_end2:
	.cfi_endproc

	.align	4
	.type	updateVol,@function
	.cc_top updateVol.function,updateVol
updateVol:                              # @updateVol
.Lfunc_begin3:
	.loc	1 205 0                 # C:/Users/takaaki/git/sw_xSSDAC/module_usb_audio/endpoint0/audiorequests.xc:205:0
	.cfi_startproc
	.issue_mode dual
# BB#0:                                 # %allocas
.Lxtalabel5:
	{
		nop
		dualentsp 10
	}
.Ltmp22:
	.cfi_def_cfa_offset 40
.Ltmp23:
	.cfi_offset 15, 0
	std r5, r4, sp[1]               # 4-byte Folded Spill
.Ltmp24:
	.cfi_offset 4, -32
.Ltmp25:
	.cfi_offset 5, -28
	std r7, r6, sp[2]               # 4-byte Folded Spill
.Ltmp26:
	.cfi_offset 6, -24
.Ltmp27:
	.cfi_offset 7, -20
	std r9, r8, sp[3]               # 4-byte Folded Spill
.Ltmp28:
	.cfi_offset 8, -16
.Ltmp29:
	.cfi_offset 9, -12
.Ltmp30:
	.cfi_offset 10, -8
	{
		mov r4, r1
		stw r10, sp[8]
	}
	.file	3 "C:/Users/takaaki/git/sw_xSSDAC/module_usb_audio/usb_buffer\\xc_ptr.h"
	.loc	3 13 0 prologue_end     # C:/Users/takaaki/git/sw_xSSDAC/module_usb_audio/usb_buffer\xc_ptr.h:13:0
.Ltmp31:
	ldaw r6, dp[multOut]
.Ltmp32:
	#DEBUG_VALUE: array_to_xc_ptr:a <- R6
	#DEBUG_VALUE: p_multIn <- R0
	#DEBUG_VALUE: x <- R0
	#DEBUG_VALUE: p_multOut <- R0
	#DEBUG_VALUE: x <- R0
	#DEBUG_VALUE: p_multOut <- R0
	#DEBUG_VALUE: p_multIn <- R0
	.loc	1 220 0                 # C:/Users/takaaki/git/sw_xSSDAC/module_usb_audio/endpoint0/audiorequests.xc:220:0
	{
		eq r1, r0, 11
		nop
	}
	.loc	1 214 5                 # C:/Users/takaaki/git/sw_xSSDAC/module_usb_audio/endpoint0/audiorequests.xc:214:5
	bf r4, .LBB3_1
.Ltmp33:
# BB#13:                                # %iffalse
.Lxtalabel6:
	.loc	1 220 0                 # C:/Users/takaaki/git/sw_xSSDAC/module_usb_audio/endpoint0/audiorequests.xc:220:0
	bf r1, .LBB3_14
# BB#23:                                # %switchcase2
.Lxtalabel7:
.Ltmp34:
	#DEBUG_VALUE: p_multOut <- R0
	#DEBUG_VALUE: p_multIn <- R0
	.loc	1 248 0                 # C:/Users/takaaki/git/sw_xSSDAC/module_usb_audio/endpoint0/audiorequests.xc:248:0
	ldc r7, volsIn.globound
.Ltrap_info4:
	{
		ecallf r7
		nop
	}
	#DEBUG_VALUE: p_multOut <- R0
	#DEBUG_VALUE: p_multIn <- R0
.Ltmp35:
	.loc	3 13 0                  # C:/Users/takaaki/git/sw_xSSDAC/module_usb_audio/usb_buffer\xc_ptr.h:13:0
	ldaw r6, dp[multIn]
.Ltmp36:
	#DEBUG_VALUE: array_to_xc_ptr:a <- R6
	.loc	1 248 0                 # C:/Users/takaaki/git/sw_xSSDAC/module_usb_audio/endpoint0/audiorequests.xc:248:0
	ldw r0, dp[volsIn]
.Ltmp37:
	ldc r8, 32768
	.loc	1 248 0                 # C:/Users/takaaki/git/sw_xSSDAC/module_usb_audio/endpoint0/audiorequests.xc:248:0
	{
		eq r1, r0, r8
		nop
	}
	.loc	1 248 0                 # C:/Users/takaaki/git/sw_xSSDAC/module_usb_audio/endpoint0/audiorequests.xc:248:0
	bf r1, .LBB3_36
.Ltmp38:
# BB#24:
	{
		ldc r5, 0
		nop
	}
	bu .LBB3_25
.LBB3_1:                                # %iftrue
.Lxtalabel8:
	.loc	1 144 0                 # C:/Users/takaaki/git/sw_xSSDAC/module_usb_audio/endpoint0/audiorequests.xc:144:0
.Ltmp39:
	bf r1, .LBB3_2
# BB#11:                                # %switchcase1.i
.Lxtalabel9:
.Ltmp40:
	#DEBUG_VALUE: p_multOut <- R0
	#DEBUG_VALUE: p_multIn <- R0
	.loc	1 175 0                 # C:/Users/takaaki/git/sw_xSSDAC/module_usb_audio/endpoint0/audiorequests.xc:175:0
	ldc r0, volsIn.globound
.Ltmp41:
	.loc	1 216 0                 # C:/Users/takaaki/git/sw_xSSDAC/module_usb_audio/endpoint0/audiorequests.xc:216:0
.Ltrap_info5:
	{
		ecallf r0
		nop
	}
.Ltmp42:
	#DEBUG_VALUE: p_multOut <- R0
	#DEBUG_VALUE: p_multIn <- R0
	.loc	1 175 0                 # C:/Users/takaaki/git/sw_xSSDAC/module_usb_audio/endpoint0/audiorequests.xc:175:0
	ldw r0, dp[volsIn]
.Ltmp43:
	ldc r1, 32768
	.loc	1 175 0                 # C:/Users/takaaki/git/sw_xSSDAC/module_usb_audio/endpoint0/audiorequests.xc:175:0
	{
		eq r1, r0, r1
		nop
	}
	bt r1, .LBB3_31
# BB#12:                                # %afterboundcheck57.i
.Ltmp44:
	#DEBUG_VALUE: p_multOut <- R0
	#DEBUG_VALUE: p_multIn <- R0
	.loc	1 175 0                 # C:/Users/takaaki/git/sw_xSSDAC/module_usb_audio/endpoint0/audiorequests.xc:175:0
.Lxta.call_labels3:
	bl _Sdb_to_mult_0
.Ltmp45:
	bu .LBB3_31
.Ltmp46:
.LBB3_14:                               # %iffalse
.Lxtalabel10:
	{
		eq r0, r0, 10
		nop
	}
	bf r0, .LBB3_31
# BB#15:                                # %switchcase
.Lxtalabel11:
	.loc	1 226 0                 # C:/Users/takaaki/git/sw_xSSDAC/module_usb_audio/endpoint0/audiorequests.xc:226:0
.Ltmp47:
	ldc r8, volsOut.globound
.Ltrap_info6:
	{
		ecallf r8
		nop
	}
	.loc	1 226 0                 # C:/Users/takaaki/git/sw_xSSDAC/module_usb_audio/endpoint0/audiorequests.xc:226:0
	ldw r0, dp[volsOut]
	ldc r7, 32768
	.loc	1 226 0                 # C:/Users/takaaki/git/sw_xSSDAC/module_usb_audio/endpoint0/audiorequests.xc:226:0
	{
		eq r1, r0, r7
		nop
	}
	.loc	1 226 0                 # C:/Users/takaaki/git/sw_xSSDAC/module_usb_audio/endpoint0/audiorequests.xc:226:0
	bf r1, .LBB3_34
.Ltmp48:
# BB#16:
	{
		ldc r5, 0
		nop
	}
	bu .LBB3_17
.LBB3_2:                                # %iftrue
.Lxtalabel12:
	{
		eq r0, r0, 10
		nop
	}
	bf r0, .LBB3_31
# BB#3:                                 # %switchcase.i
.Lxtalabel13:
	.loc	1 148 0                 # C:/Users/takaaki/git/sw_xSSDAC/module_usb_audio/endpoint0/audiorequests.xc:148:0
.Ltmp49:
	ldc r3, volsOut.globound
.Ltmp50:
	.loc	1 216 0                 # C:/Users/takaaki/git/sw_xSSDAC/module_usb_audio/endpoint0/audiorequests.xc:216:0
.Ltrap_info7:
	{
		ecallf r3
		nop
	}
	.loc	3 13 0                  # C:/Users/takaaki/git/sw_xSSDAC/module_usb_audio/usb_buffer\xc_ptr.h:13:0
.Ltmp51:
	#APP
	mov r6, r6
	#NO_APP
.Ltmp52:
	.loc	1 148 0                 # C:/Users/takaaki/git/sw_xSSDAC/module_usb_audio/endpoint0/audiorequests.xc:148:0
	ldw r0, dp[volsOut]
	ldc r10, 32768
	.loc	1 148 0                 # C:/Users/takaaki/git/sw_xSSDAC/module_usb_audio/endpoint0/audiorequests.xc:148:0
	{
		eq r1, r0, r10
		ldc r7, 0
	}
	{
		nop
		stw r7, sp[1]
	}
	bt r1, .LBB3_4
# BB#32:                                # %afterboundcheck2.i
	{
		mov r4, r3
		nop
	}
	.loc	1 148 0                 # C:/Users/takaaki/git/sw_xSSDAC/module_usb_audio/endpoint0/audiorequests.xc:148:0
.Lxta.call_labels4:
	bl _Sdb_to_mult_0
	{
		mov r3, r4
		stw r0, sp[1]
	}
.LBB3_4:                                # %expdone.i
	{
		mkmsk r9, 1
		nop
	}
.Ltmp53:
	#DEBUG_VALUE: i <- 1
	ldaw r11, dp[volsOut]
	.loc	1 156 0                 # C:/Users/takaaki/git/sw_xSSDAC/module_usb_audio/endpoint0/audiorequests.xc:156:0
.Ltmp54:
	ldc r5, mutesOut.globound
	.loc	1 156 0                 # C:/Users/takaaki/git/sw_xSSDAC/module_usb_audio/endpoint0/audiorequests.xc:156:0
	ldaw r4, dp[mutesOut]
	{
		mkmsk r8, 2
		nop
	}
.LBB3_5:                                # %LoopBody.i
                                        # =>This Inner Loop Header: Depth=1
.Lxtalabel14:
	#DEBUG_VALUE: i <- 1
	.loc	1 154 0                 # C:/Users/takaaki/git/sw_xSSDAC/module_usb_audio/endpoint0/audiorequests.xc:154:0
	{
		lsu r0, r9, r3
		nop
	}
.Ltmp55:
	.loc	1 216 0                 # C:/Users/takaaki/git/sw_xSSDAC/module_usb_audio/endpoint0/audiorequests.xc:216:0
.Ltrap_info8:
	{
		ecallf r0
		nop
	}
	#DEBUG_VALUE: i <- 1
	{
		nop
		ldw r1, r11[r9]
	}
	.loc	1 154 0                 # C:/Users/takaaki/git/sw_xSSDAC/module_usb_audio/endpoint0/audiorequests.xc:154:0
.Ltmp56:
	{
		eq r2, r1, r10
		mov r0, r7
	}
	bt r2, .LBB3_6
# BB#33:                                # %afterboundcheck20.i
                                        #   in Loop: Header=BB3_5 Depth=1
	#DEBUG_VALUE: i <- 1
	.loc	1 154 0                 # C:/Users/takaaki/git/sw_xSSDAC/module_usb_audio/endpoint0/audiorequests.xc:154:0
	{
		mov r0, r1
		mov r7, r10
	}
	{
		mov r10, r3
		mov r8, r5
	}
	{
		mov r5, r6
		mov r6, r4
	}
	{
		mov r4, r11
		nop
	}
.Lxta.call_labels5:
	bl _Sdb_to_mult_0
	{
		mov r11, r4
		mov r4, r6
	}
	{
		mov r6, r5
		mov r5, r8
	}
	{
		mkmsk r8, 2
		mov r3, r10
	}
	{
		mov r10, r7
		ldc r7, 0
	}
.Ltmp57:
.LBB3_6:                                # %expdone18.i
                                        #   in Loop: Header=BB3_5 Depth=1
.Lxtalabel15:
	#DEBUG_VALUE: i <- 1
	#DEBUG_VALUE: longMul:b <- R0
	#DEBUG_VALUE: prec <- 29
	#DEBUG_VALUE: master_vol <- [SP+4]
	.loc	1 216 0                 # C:/Users/takaaki/git/sw_xSSDAC/module_usb_audio/endpoint0/audiorequests.xc:216:0
.Ltrap_info9:
	{
		ecallf r5
		nop
	}
	#DEBUG_VALUE: i <- 1
	#DEBUG_VALUE: master_vol <- [SP+4]
	.loc	1 156 0                 # C:/Users/takaaki/git/sw_xSSDAC/module_usb_audio/endpoint0/audiorequests.xc:156:0
.Ltmp58:
	{
		lsu r1, r9, r5
		nop
	}
.Ltmp59:
	.loc	1 216 0                 # C:/Users/takaaki/git/sw_xSSDAC/module_usb_audio/endpoint0/audiorequests.xc:216:0
.Ltrap_info10:
	{
		ecallf r1
		nop
	}
	#DEBUG_VALUE: i <- 1
	#DEBUG_VALUE: master_vol <- [SP+4]
	.loc	1 156 0                 # C:/Users/takaaki/git/sw_xSSDAC/module_usb_audio/endpoint0/audiorequests.xc:156:0
.Ltmp60:
	ldw r2, dp[mutesOut]
	.loc	1 156 0                 # C:/Users/takaaki/git/sw_xSSDAC/module_usb_audio/endpoint0/audiorequests.xc:156:0
	{
		mov r1, r7
		nop
	}
	bt r2, .LBB3_8
.Ltmp61:
# BB#7:                                 # %afterboundcheck32.i
                                        #   in Loop: Header=BB3_5 Depth=1
	#DEBUG_VALUE: i <- 1
	#DEBUG_VALUE: master_vol <- [SP+4]
	{
		nop
		ldw r1, sp[1]
	}
	.loc	1 113 0                 # C:/Users/takaaki/git/sw_xSSDAC/module_usb_audio/endpoint0/audiorequests.xc:113:0
.Ltmp62:
	#APP
	lmul r0, r1, r1, r0, r7, r7
	#NO_APP
	.loc	1 116 0                 # C:/Users/takaaki/git/sw_xSSDAC/module_usb_audio/endpoint0/audiorequests.xc:116:0
	{
		shl r0, r0, 3
		ldc r2, 29
	}
	.loc	1 116 0                 # C:/Users/takaaki/git/sw_xSSDAC/module_usb_audio/endpoint0/audiorequests.xc:116:0
	{
		shr r1, r1, r2
		nop
	}
	.loc	1 116 0                 # C:/Users/takaaki/git/sw_xSSDAC/module_usb_audio/endpoint0/audiorequests.xc:116:0
	{
		or r1, r0, r1
		nop
	}
.Ltmp63:
	#DEBUG_VALUE: ret <- R1
.LBB3_8:                                # %afterboundcheck32.i
                                        #   in Loop: Header=BB3_5 Depth=1
	#DEBUG_VALUE: i <- 1
	#DEBUG_VALUE: master_vol <- [SP+4]
	.loc	1 156 0                 # C:/Users/takaaki/git/sw_xSSDAC/module_usb_audio/endpoint0/audiorequests.xc:156:0
	{
		mov r0, r7
		ldw r2, r4[r9]
	}
	bt r2, .LBB3_10
.Ltmp64:
# BB#9:                                 # %afterboundcheck32.i
                                        #   in Loop: Header=BB3_5 Depth=1
	#DEBUG_VALUE: i <- 1
	#DEBUG_VALUE: master_vol <- [SP+4]
	.loc	1 156 0                 # C:/Users/takaaki/git/sw_xSSDAC/module_usb_audio/endpoint0/audiorequests.xc:156:0
	{
		mov r0, r1
		nop
	}
.Ltmp65:
.LBB3_10:                               # %afterboundcheck32.i
                                        #   in Loop: Header=BB3_5 Depth=1
	#DEBUG_VALUE: i <- 1
	#DEBUG_VALUE: master_vol <- [SP+4]
	#DEBUG_VALUE: x <- R0
	.loc	1 167 0                 # C:/Users/takaaki/git/sw_xSSDAC/module_usb_audio/endpoint0/audiorequests.xc:167:0
	{
		sub r1, r9, 1
		nop
	}
	.loc	1 167 0                 # C:/Users/takaaki/git/sw_xSSDAC/module_usb_audio/endpoint0/audiorequests.xc:167:0
	#APP
	stw r0, r6[r1]
	#NO_APP
.Ltmp66:
	.loc	1 150 0                 # C:/Users/takaaki/git/sw_xSSDAC/module_usb_audio/endpoint0/audiorequests.xc:150:0
	{
		add r9, r9, 1
		nop
	}
	.loc	1 150 0                 # C:/Users/takaaki/git/sw_xSSDAC/module_usb_audio/endpoint0/audiorequests.xc:150:0
	{
		lss r0, r9, r8
		nop
	}
.Ltmp67:
.Lxta.loop_labels0:
	# LOOPMARKER 0
	bt r0, .LBB3_5
	bu .LBB3_31
.Ltmp68:
.LBB3_36:                               # %afterboundcheck53
	#DEBUG_VALUE: p_multOut <- R0
	#DEBUG_VALUE: p_multIn <- R0
	.loc	1 248 0                 # C:/Users/takaaki/git/sw_xSSDAC/module_usb_audio/endpoint0/audiorequests.xc:248:0
.Lxta.call_labels6:
	bl _Sdb_to_mult_0
.Ltmp69:
	{
		mov r5, r0
		nop
	}
.LBB3_25:                               # %expdone52
.Ltmp70:
	#DEBUG_VALUE: p_multOut <- R0
	#DEBUG_VALUE: p_multIn <- R0
	.loc	1 249 0                 # C:/Users/takaaki/git/sw_xSSDAC/module_usb_audio/endpoint0/audiorequests.xc:249:0
	{
		lsu r0, r4, r7
		nop
	}
.Ltmp71:
.Ltrap_info11:
	{
		ecallf r0
		nop
	}
.Ltmp72:
	#DEBUG_VALUE: p_multOut <- R0
	#DEBUG_VALUE: p_multIn <- R0
	.loc	1 249 0                 # C:/Users/takaaki/git/sw_xSSDAC/module_usb_audio/endpoint0/audiorequests.xc:249:0
	ldaw r0, dp[volsIn]
.Ltmp73:
	{
		nop
		ldw r1, r0[r4]
	}
	.loc	1 249 0                 # C:/Users/takaaki/git/sw_xSSDAC/module_usb_audio/endpoint0/audiorequests.xc:249:0
	{
		eq r2, r1, r8
		ldc r7, 0
	}
	.loc	1 249 0                 # C:/Users/takaaki/git/sw_xSSDAC/module_usb_audio/endpoint0/audiorequests.xc:249:0
	{
		mov r0, r7
		nop
	}
	bt r2, .LBB3_26
# BB#37:                                # %afterboundcheck71
.Ltmp74:
	#DEBUG_VALUE: p_multOut <- R0
	#DEBUG_VALUE: p_multIn <- R0
	.loc	1 249 0                 # C:/Users/takaaki/git/sw_xSSDAC/module_usb_audio/endpoint0/audiorequests.xc:249:0
	{
		mov r0, r1
		nop
	}
.Ltmp75:
.Lxta.call_labels7:
	bl _Sdb_to_mult_0
.LBB3_26:                               # %expdone69
.Lxtalabel16:
.Ltmp76:
	#DEBUG_VALUE: p_multOut <- R0
	#DEBUG_VALUE: p_multIn <- R0
	#DEBUG_VALUE: longMul:b <- R0
	#DEBUG_VALUE: prec <- 29
	#DEBUG_VALUE: master_vol <- R5
	.loc	1 251 0                 # C:/Users/takaaki/git/sw_xSSDAC/module_usb_audio/endpoint0/audiorequests.xc:251:0
	ldc r1, mutesIn.globound
.Ltrap_info12:
	{
		ecallf r1
		nop
	}
	#DEBUG_VALUE: p_multOut <- R0
	#DEBUG_VALUE: p_multIn <- R0
	#DEBUG_VALUE: master_vol <- R5
	.loc	1 251 0                 # C:/Users/takaaki/git/sw_xSSDAC/module_usb_audio/endpoint0/audiorequests.xc:251:0
	{
		lsu r1, r4, r1
		nop
	}
.Ltrap_info13:
	{
		ecallf r1
		nop
	}
	#DEBUG_VALUE: p_multOut <- R0
	#DEBUG_VALUE: p_multIn <- R0
	#DEBUG_VALUE: master_vol <- R5
	.loc	1 251 0                 # C:/Users/takaaki/git/sw_xSSDAC/module_usb_audio/endpoint0/audiorequests.xc:251:0
	ldaw r2, dp[mutesIn]
	ldw r11, dp[mutesIn]
	{
		ldc r1, 0
		nop
	}
	.loc	1 251 0                 # C:/Users/takaaki/git/sw_xSSDAC/module_usb_audio/endpoint0/audiorequests.xc:251:0
	{
		mov r3, r1
		nop
	}
	bt r11, .LBB3_28
.Ltmp77:
# BB#27:                                # %afterboundcheck84
	#DEBUG_VALUE: p_multOut <- R0
	#DEBUG_VALUE: p_multIn <- R0
	#DEBUG_VALUE: master_vol <- R5
	.loc	1 113 0                 # C:/Users/takaaki/git/sw_xSSDAC/module_usb_audio/endpoint0/audiorequests.xc:113:0
	#APP
	lmul r0, r3, r5, r0, r7, r7
	#NO_APP
.Ltmp78:
	.loc	1 116 0                 # C:/Users/takaaki/git/sw_xSSDAC/module_usb_audio/endpoint0/audiorequests.xc:116:0
	{
		shl r0, r0, 3
		ldc r11, 29
	}
	.loc	1 116 0                 # C:/Users/takaaki/git/sw_xSSDAC/module_usb_audio/endpoint0/audiorequests.xc:116:0
	{
		shr r3, r3, r11
		nop
	}
	.loc	1 116 0                 # C:/Users/takaaki/git/sw_xSSDAC/module_usb_audio/endpoint0/audiorequests.xc:116:0
	{
		or r3, r0, r3
		nop
	}
.Ltmp79:
	#DEBUG_VALUE: ret <- R3
.LBB3_28:                               # %afterboundcheck84
	#DEBUG_VALUE: p_multOut <- R0
	#DEBUG_VALUE: p_multIn <- R0
	.loc	3 13 0                  # C:/Users/takaaki/git/sw_xSSDAC/module_usb_audio/usb_buffer\xc_ptr.h:13:0
	#APP
	mov r0, r6
	#NO_APP
.Ltmp80:
	{
		nop
		ldw r2, r2[r4]
	}
	bt r2, .LBB3_30
.Ltmp81:
# BB#29:                                # %afterboundcheck84
	#DEBUG_VALUE: p_multOut <- R0
	#DEBUG_VALUE: p_multIn <- R0
	.loc	1 251 0                 # C:/Users/takaaki/git/sw_xSSDAC/module_usb_audio/endpoint0/audiorequests.xc:251:0
	{
		mov r1, r3
		nop
	}
.Ltmp82:
.LBB3_30:                               # %afterboundcheck84
	#DEBUG_VALUE: p_multOut <- R0
	#DEBUG_VALUE: p_multIn <- R0
	#DEBUG_VALUE: x <- R1
	.loc	1 262 0                 # C:/Users/takaaki/git/sw_xSSDAC/module_usb_audio/endpoint0/audiorequests.xc:262:0
	{
		sub r2, r4, 1
		nop
	}
	.loc	1 262 0                 # C:/Users/takaaki/git/sw_xSSDAC/module_usb_audio/endpoint0/audiorequests.xc:262:0
	#APP
	stw r1, r0[r2]
	#NO_APP
	bu .LBB3_31
.Ltmp83:
.LBB3_34:                               # %afterboundcheck6
	.loc	1 226 0                 # C:/Users/takaaki/git/sw_xSSDAC/module_usb_audio/endpoint0/audiorequests.xc:226:0
.Lxta.call_labels8:
	bl _Sdb_to_mult_0
	{
		mov r5, r0
		nop
	}
.LBB3_17:                               # %expdone
	.loc	1 227 0                 # C:/Users/takaaki/git/sw_xSSDAC/module_usb_audio/endpoint0/audiorequests.xc:227:0
.Ltmp84:
	{
		lsu r0, r4, r8
		nop
	}
.Ltrap_info14:
	{
		ecallf r0
		nop
	}
	.loc	1 227 0                 # C:/Users/takaaki/git/sw_xSSDAC/module_usb_audio/endpoint0/audiorequests.xc:227:0
	ldaw r0, dp[volsOut]
	{
		nop
		ldw r1, r0[r4]
	}
	.loc	1 227 0                 # C:/Users/takaaki/git/sw_xSSDAC/module_usb_audio/endpoint0/audiorequests.xc:227:0
	{
		eq r2, r1, r7
		ldc r7, 0
	}
	.loc	1 227 0                 # C:/Users/takaaki/git/sw_xSSDAC/module_usb_audio/endpoint0/audiorequests.xc:227:0
	{
		mov r0, r7
		nop
	}
	bt r2, .LBB3_18
# BB#35:                                # %afterboundcheck21
	.loc	1 227 0                 # C:/Users/takaaki/git/sw_xSSDAC/module_usb_audio/endpoint0/audiorequests.xc:227:0
	{
		mov r0, r1
		nop
	}
.Lxta.call_labels9:
	bl _Sdb_to_mult_0
.LBB3_18:                               # %expdone19
.Lxtalabel17:
.Ltmp85:
	#DEBUG_VALUE: longMul:b <- R0
	#DEBUG_VALUE: prec <- 29
	#DEBUG_VALUE: master_vol <- R5
	.loc	1 229 0                 # C:/Users/takaaki/git/sw_xSSDAC/module_usb_audio/endpoint0/audiorequests.xc:229:0
	ldc r1, mutesOut.globound
.Ltrap_info15:
	{
		ecallf r1
		nop
	}
	#DEBUG_VALUE: master_vol <- R5
	.loc	1 229 0                 # C:/Users/takaaki/git/sw_xSSDAC/module_usb_audio/endpoint0/audiorequests.xc:229:0
	{
		lsu r1, r4, r1
		nop
	}
.Ltrap_info16:
	{
		ecallf r1
		nop
	}
	#DEBUG_VALUE: master_vol <- R5
	.loc	1 229 0                 # C:/Users/takaaki/git/sw_xSSDAC/module_usb_audio/endpoint0/audiorequests.xc:229:0
	ldaw r2, dp[mutesOut]
	ldw r11, dp[mutesOut]
	{
		ldc r1, 0
		nop
	}
	.loc	1 229 0                 # C:/Users/takaaki/git/sw_xSSDAC/module_usb_audio/endpoint0/audiorequests.xc:229:0
	{
		mov r3, r1
		nop
	}
	bt r11, .LBB3_20
.Ltmp86:
# BB#19:                                # %afterboundcheck33
	#DEBUG_VALUE: master_vol <- R5
	.loc	1 113 0                 # C:/Users/takaaki/git/sw_xSSDAC/module_usb_audio/endpoint0/audiorequests.xc:113:0
	#APP
	lmul r0, r3, r5, r0, r7, r7
	#NO_APP
	.loc	1 116 0                 # C:/Users/takaaki/git/sw_xSSDAC/module_usb_audio/endpoint0/audiorequests.xc:116:0
	{
		shl r0, r0, 3
		ldc r11, 29
	}
	.loc	1 116 0                 # C:/Users/takaaki/git/sw_xSSDAC/module_usb_audio/endpoint0/audiorequests.xc:116:0
	{
		shr r3, r3, r11
		nop
	}
	.loc	1 116 0                 # C:/Users/takaaki/git/sw_xSSDAC/module_usb_audio/endpoint0/audiorequests.xc:116:0
	{
		or r3, r0, r3
		nop
	}
.Ltmp87:
	#DEBUG_VALUE: ret <- R3
.LBB3_20:                               # %afterboundcheck33
	.loc	3 13 0                  # C:/Users/takaaki/git/sw_xSSDAC/module_usb_audio/usb_buffer\xc_ptr.h:13:0
	#APP
	mov r0, r6
	#NO_APP
	{
		nop
		ldw r2, r2[r4]
	}
	bt r2, .LBB3_22
.Ltmp88:
# BB#21:                                # %afterboundcheck33
	.loc	1 229 0                 # C:/Users/takaaki/git/sw_xSSDAC/module_usb_audio/endpoint0/audiorequests.xc:229:0
	{
		mov r1, r3
		nop
	}
.LBB3_22:                               # %afterboundcheck33
.Ltmp89:
	#DEBUG_VALUE: x <- R1
	.loc	1 240 0                 # C:/Users/takaaki/git/sw_xSSDAC/module_usb_audio/endpoint0/audiorequests.xc:240:0
	{
		sub r2, r4, 1
		nop
	}
	.loc	1 240 0                 # C:/Users/takaaki/git/sw_xSSDAC/module_usb_audio/endpoint0/audiorequests.xc:240:0
	#APP
	stw r1, r0[r2]
	#NO_APP
.Ltmp90:
.LBB3_31:                               # %return
.Lxtalabel18:
	{
		nop
		ldw r10, sp[8]
	}
	ldd r9, r8, sp[3]               # 4-byte Folded Reload
	ldd r7, r6, sp[2]               # 4-byte Folded Reload
	ldd r5, r4, sp[1]               # 4-byte Folded Reload
	{
		nop
		retsp 10
	}
	# RETURN_REG_HOLDER
	.cc_bottom updateVol.function
	.set	updateVol.nstackwords,(_Sdb_to_mult_0.nstackwords + 10)
	.set	updateVol.maxcores,_Sdb_to_mult_0.maxcores $M 1
	.set	updateVol.maxtimers,_Sdb_to_mult_0.maxtimers $M 0
	.set	updateVol.maxchanends,_Sdb_to_mult_0.maxchanends $M 0
.Ltmp91:
	.size	updateVol, .Ltmp91-updateVol
.Lfunc_end3:
	.cfi_endproc

	.section	.cp.rodata.cst4,"aMc",@progbits,4
	.cc_top .LCPI4_0.data,.LCPI4_0
	.align	4
	.type	.LCPI4_0,@object
	.size	.LCPI4_0, 4
.LCPI4_0:
	.long	4294967255              # 0xffffffd7
	.cc_bottom .LCPI4_0.data
	.cc_top .LCPI4_1.data,.LCPI4_1
	.align	4
	.type	.LCPI4_1,@object
	.size	.LCPI4_1, 4
.LCPI4_1:
	.long	192000                  # 0x2ee00
	.cc_bottom .LCPI4_1.data
	.cc_top .LCPI4_2.data,.LCPI4_2
	.align	4
	.type	.LCPI4_2,@object
	.size	.LCPI4_2, 4
.LCPI4_2:
	.long	4294967040              # 0xffffff00
	.cc_bottom .LCPI4_2.data
	.cc_top .LCPI4_3.data,.LCPI4_3
	.align	4
	.type	.LCPI4_3,@object
	.size	.LCPI4_3, 4
.LCPI4_3:
	.long	20000000                # 0x1312d00
	.cc_bottom .LCPI4_3.data
	.cc_top .LCPI4_4.data,.LCPI4_4
	.align	4
	.type	.LCPI4_4,@object
	.size	.LCPI4_4, 4
.LCPI4_4:
	.long	2000000                 # 0x1e8480
	.cc_bottom .LCPI4_4.data
	.text
	.globl	AudioClassRequests_2
	.align	4
	.type	AudioClassRequests_2,@function
	.cc_top AudioClassRequests_2.function,AudioClassRequests_2
AudioClassRequests_2:                   # @AudioClassRequests_2
.Lfunc_begin4:
	.loc	1 277 0                 # C:/Users/takaaki/git/sw_xSSDAC/module_usb_audio/endpoint0/audiorequests.xc:277:0
	.cfi_startproc
	.issue_mode dual
# BB#0:                                 # %allocas
.Lxtalabel19:
	DUALENTSP_lu6 144
.Ltmp92:
	.cfi_def_cfa_offset 576
.Ltmp93:
	.cfi_offset 15, 0
	stw r4, sp[136]                 # 4-byte Folded Spill
	stw r5, sp[137]                 # 4-byte Folded Spill
.Ltmp94:
	.cfi_offset 4, -32
.Ltmp95:
	.cfi_offset 5, -28
	stw r6, sp[138]                 # 4-byte Folded Spill
	stw r7, sp[139]                 # 4-byte Folded Spill
.Ltmp96:
	.cfi_offset 6, -24
.Ltmp97:
	.cfi_offset 7, -20
	stw r8, sp[140]                 # 4-byte Folded Spill
	stw r9, sp[141]                 # 4-byte Folded Spill
.Ltmp98:
	.cfi_offset 8, -16
.Ltmp99:
	.cfi_offset 9, -12
	stw r10, sp[142]                # 4-byte Folded Spill
.Ltmp100:
	.cfi_offset 10, -8
	#DEBUG_VALUE: AudioClassRequests_2:ep0_out <- R0
	#DEBUG_VALUE: AudioClassRequests_2:ep0_in <- R1
	#DEBUG_VALUE: AudioClassRequests_2:sp <- R2
	#DEBUG_VALUE: AudioClassRequests_2:c_audioControl <- R3
	#DEBUG_VALUE: AudioClassRequests_2:c_mix_ctl <- [SP+580]
.Ltmp101:
	#DEBUG_VALUE: AudioClassRequests_2:c_audioControl <- R9
	#DEBUG_VALUE: AudioClassRequests_2:sp <- R6
	{
		mov r9, r3
		mov r6, r2
	}
.Ltmp102:
	#DEBUG_VALUE: AudioClassRequests_2:ep0_in <- R11
	#DEBUG_VALUE: AudioClassRequests_2:ep0_out <- R8
	{
		mov r11, r1
		mov r8, r0
	}
.Ltmp103:
	{
		mkmsk r7, 2
		nop
	}
	{
		nop
		ld8u r0, r6[r7]
	}
	.loc	1 284 0 prologue_end    # C:/Users/takaaki/git/sw_xSSDAC/module_usb_audio/endpoint0/audiorequests.xc:284:0
.Ltmp104:
	{
		eq r1, r0, 2
		mkmsk r10, 1
	}
	.loc	1 284 0                 # C:/Users/takaaki/git/sw_xSSDAC/module_usb_audio/endpoint0/audiorequests.xc:284:0
	bf r1, .LBB4_1
.Ltmp105:
# BB#7:                                 # %switchcase1
.Lxtalabel20:
	#DEBUG_VALUE: AudioClassRequests_2:ep0_out <- R8
	#DEBUG_VALUE: AudioClassRequests_2:ep0_in <- R11
	#DEBUG_VALUE: AudioClassRequests_2:sp <- R6
	#DEBUG_VALUE: AudioClassRequests_2:c_mix_ctl <- [SP+580]
	.loc	1 843 0                 # C:/Users/takaaki/git/sw_xSSDAC/module_usb_audio/endpoint0/audiorequests.xc:843:0
	{
		add r0, r6, 6
		ldc r4, 0
	}
	{
		nop
		ld16s r0, r0[r4]
	}
	ldc r1, 65280
	.loc	1 843 0                 # C:/Users/takaaki/git/sw_xSSDAC/module_usb_audio/endpoint0/audiorequests.xc:843:0
	{
		and r0, r0, r1
		nop
	}
	.loc	1 843 0                 # C:/Users/takaaki/git/sw_xSSDAC/module_usb_audio/endpoint0/audiorequests.xc:843:0
	{
		shr r0, r0, 8
		nop
	}
.Ltmp106:
	#DEBUG_VALUE: unitID <- R0
	ldw r1, cp[.LCPI4_0]
	.loc	1 845 0                 # C:/Users/takaaki/git/sw_xSSDAC/module_usb_audio/endpoint0/audiorequests.xc:845:0
	{
		add r1, r0, r1
		nop
	}
	{
		lsu r1, r1, r7
		nop
	}
	bf r1, .LBB4_8
.Ltmp107:
# BB#78:                                # %switchcase578
.Lxtalabel21:
	#DEBUG_VALUE: AudioClassRequests_2:ep0_out <- R8
	#DEBUG_VALUE: AudioClassRequests_2:ep0_in <- R11
	#DEBUG_VALUE: AudioClassRequests_2:sp <- R6
	#DEBUG_VALUE: AudioClassRequests_2:c_mix_ctl <- [SP+580]
	#DEBUG_VALUE: AudioClassRequests_2:ep0_in <- [SP+20]
	{
		ldc r0, 5
		stw r11, sp[5]
	}
	{
		nop
		ld8u r0, r6[r0]
	}
.Ltmp108:
	#DEBUG_VALUE: AudioClassRequests_2:sp <- [SP+16]
	{
		eq r1, r0, 1
		stw r6, sp[4]
	}
	{
		mov r0, r10
		nop
	}
	bf r1, .LBB4_89
.Ltmp109:
# BB#79:                                # %afterboundcheck595
.Lxtalabel22:
	#DEBUG_VALUE: AudioClassRequests_2:ep0_out <- R8
	#DEBUG_VALUE: AudioClassRequests_2:ep0_in <- [SP+20]
	#DEBUG_VALUE: AudioClassRequests_2:sp <- [SP+16]
	#DEBUG_VALUE: AudioClassRequests_2:c_mix_ctl <- [SP+580]
	#DEBUG_VALUE: num_freqs <- 0
	#DEBUG_VALUE: i <- 2
	#DEBUG_VALUE: AudioClassRequests_2:ep0_out <- [SP+12]
	{
		ldc r0, 2
		stw r8, sp[3]
	}
	{
		nop
		stw r0, sp[6]
	}
.Ltmp110:
	#DEBUG_VALUE: k <- 1
	#DEBUG_VALUE: maxFreq <- 192000
	#DEBUG_VALUE: currentFreq48 <- 8000
	#DEBUG_VALUE: currentFreq44 <- 11025
	ldc r8, 48000
	ldc r5, 44100
	ldw r6, cp[.LCPI4_1]
	{
		ldaw r7, sp[8]
		ldaw r9, sp[6]
	}
	{
		mov r10, r5
		nop
	}
	bu .LBB4_80
.Ltmp111:
.LBB4_84:                               # %iftrue647
                                        #   in Loop: Header=BB4_80 Depth=1
.Lxtalabel23:
	#DEBUG_VALUE: AudioClassRequests_2:ep0_out <- [SP+12]
	#DEBUG_VALUE: AudioClassRequests_2:ep0_in <- [SP+20]
	#DEBUG_VALUE: AudioClassRequests_2:sp <- [SP+16]
	#DEBUG_VALUE: AudioClassRequests_2:c_mix_ctl <- [SP+580]
	#DEBUG_VALUE: num_freqs <- 0
	#DEBUG_VALUE: i <- 2
	#DEBUG_VALUE: currentFreq44 <- 11025
	#DEBUG_VALUE: currentFreq48 <- 8000
	#DEBUG_VALUE: maxFreq <- 192000
	#DEBUG_VALUE: i <- [R9+0]
	.loc	1 903 0                 # C:/Users/takaaki/git/sw_xSSDAC/module_usb_audio/endpoint0/audiorequests.xc:903:0
	{
		mov r0, r7
		mov r1, r9
	}
	{
		mov r2, r8
		nop
	}
.Lxta.call_labels10:
	bl storeFreq
.Ltmp112:
	#DEBUG_VALUE: num_freqs <- R4
	#DEBUG_VALUE: currentFreq48 <- R8
	.loc	1 904 0                 # C:/Users/takaaki/git/sw_xSSDAC/module_usb_audio/endpoint0/audiorequests.xc:904:0
	{
		add r4, r4, 1
		shl r8, r8, 1
	}
.Ltmp113:
.LBB4_80:                               # %LoopBody625
                                        # =>This Inner Loop Header: Depth=1
.Lxtalabel24:
	#DEBUG_VALUE: AudioClassRequests_2:ep0_out <- [SP+12]
	#DEBUG_VALUE: AudioClassRequests_2:ep0_in <- [SP+20]
	#DEBUG_VALUE: AudioClassRequests_2:sp <- [SP+16]
	#DEBUG_VALUE: AudioClassRequests_2:c_mix_ctl <- [SP+580]
	#DEBUG_VALUE: num_freqs <- 0
	#DEBUG_VALUE: i <- 2
	#DEBUG_VALUE: currentFreq44 <- 11025
	#DEBUG_VALUE: currentFreq48 <- 8000
	#DEBUG_VALUE: maxFreq <- 192000
	.loc	1 893 37                # C:/Users/takaaki/git/sw_xSSDAC/module_usb_audio/endpoint0/audiorequests.xc:893:37
	{
		lsu r0, r6, r10
		nop
	}
	bt r0, .LBB4_83
.Ltmp114:
# BB#81:                                # %LoopBody625
                                        #   in Loop: Header=BB4_80 Depth=1
.Lxtalabel25:
	#DEBUG_VALUE: AudioClassRequests_2:ep0_out <- [SP+12]
	#DEBUG_VALUE: AudioClassRequests_2:ep0_in <- [SP+20]
	#DEBUG_VALUE: AudioClassRequests_2:sp <- [SP+16]
	#DEBUG_VALUE: AudioClassRequests_2:c_mix_ctl <- [SP+580]
	{
		lss r0, r10, r5
		nop
	}
	bt r0, .LBB4_83
.Ltmp115:
# BB#82:                                # %iftrue627
                                        #   in Loop: Header=BB4_80 Depth=1
.Lxtalabel26:
	#DEBUG_VALUE: AudioClassRequests_2:ep0_out <- [SP+12]
	#DEBUG_VALUE: AudioClassRequests_2:ep0_in <- [SP+20]
	#DEBUG_VALUE: AudioClassRequests_2:sp <- [SP+16]
	#DEBUG_VALUE: AudioClassRequests_2:c_mix_ctl <- [SP+580]
	#DEBUG_VALUE: i <- [R9+0]
	.loc	1 895 0                 # C:/Users/takaaki/git/sw_xSSDAC/module_usb_audio/endpoint0/audiorequests.xc:895:0
	{
		mov r0, r7
		mov r1, r9
	}
	{
		mov r2, r10
		nop
	}
.Lxta.call_labels11:
	bl storeFreq
.Ltmp116:
	#DEBUG_VALUE: num_freqs <- R4
	#DEBUG_VALUE: currentFreq44 <- R10
	.loc	1 896 0                 # C:/Users/takaaki/git/sw_xSSDAC/module_usb_audio/endpoint0/audiorequests.xc:896:0
	{
		add r4, r4, 1
		shl r10, r10, 1
	}
.Ltmp117:
.LBB4_83:                               # %ifdone628
                                        #   in Loop: Header=BB4_80 Depth=1
.Lxtalabel27:
	#DEBUG_VALUE: AudioClassRequests_2:ep0_out <- [SP+12]
	#DEBUG_VALUE: AudioClassRequests_2:ep0_in <- [SP+20]
	#DEBUG_VALUE: AudioClassRequests_2:sp <- [SP+16]
	#DEBUG_VALUE: AudioClassRequests_2:c_mix_ctl <- [SP+580]
	#DEBUG_VALUE: num_freqs <- 0
	#DEBUG_VALUE: i <- 2
	#DEBUG_VALUE: currentFreq44 <- 11025
	#DEBUG_VALUE: currentFreq48 <- 8000
	#DEBUG_VALUE: maxFreq <- 192000
	.loc	1 900 37                # C:/Users/takaaki/git/sw_xSSDAC/module_usb_audio/endpoint0/audiorequests.xc:900:37
	{
		lsu r0, r6, r8
		nop
	}
	bf r0, .LBB4_84
.Ltmp118:
# BB#85:                                # %LoopEnd626
.Lxtalabel28:
	#DEBUG_VALUE: AudioClassRequests_2:ep0_out <- [SP+12]
	#DEBUG_VALUE: AudioClassRequests_2:ep0_in <- [SP+20]
	#DEBUG_VALUE: AudioClassRequests_2:sp <- [SP+16]
	#DEBUG_VALUE: AudioClassRequests_2:c_mix_ctl <- [SP+580]
	#DEBUG_VALUE: num_freqs <- 0
	#DEBUG_VALUE: i <- 2
	#DEBUG_VALUE: currentFreq44 <- 11025
	#DEBUG_VALUE: currentFreq48 <- 8000
	#DEBUG_VALUE: maxFreq <- 192000
	{
		mkmsk r0, 1
		nop
	}
	.loc	1 67 0                  # C:/Users/takaaki/git/sw_xSSDAC/module_usb_audio/endpoint0/audiorequests.xc:67:0
.Ltmp119:
	{
		or r0, r7, r0
		shr r1, r4, 8
	}
.Ltmp120:
	.loc	1 923 33                # C:/Users/takaaki/git/sw_xSSDAC/module_usb_audio/endpoint0/audiorequests.xc:923:33
	{
		ldc r2, 0
		nop
	}
	.loc	1 67 0                  # C:/Users/takaaki/git/sw_xSSDAC/module_usb_audio/endpoint0/audiorequests.xc:67:0
.Ltmp121:
	st8 r1, r0[r2]
	.loc	1 68 0                  # C:/Users/takaaki/git/sw_xSSDAC/module_usb_audio/endpoint0/audiorequests.xc:68:0
	st8 r4, r7[r2]
	{
		nop
		ldw r3, sp[6]
	}
	{
		nop
		ldw r0, sp[4]
	}
.Ltmp122:
	.loc	1 923 33                # C:/Users/takaaki/git/sw_xSSDAC/module_usb_audio/endpoint0/audiorequests.xc:923:33
	{
		add r0, r0, 8
		nop
	}
	{
		nop
		ld16s r0, r0[r2]
	}
	.loc	1 923 33                # C:/Users/takaaki/git/sw_xSSDAC/module_usb_audio/endpoint0/audiorequests.xc:923:33
	{
		zext r0, 16
		nop
	}
	{
		nop
		stw r0, sp[1]
	}
	ldc r0, 512
	{
		nop
		stw r0, sp[2]
	}
	{
		nop
		ldw r0, sp[3]
	}
	.loc	1 923 33                # C:/Users/takaaki/git/sw_xSSDAC/module_usb_audio/endpoint0/audiorequests.xc:923:33
	{
		mov r2, r7
		ldw r1, sp[5]
	}
	bu .LBB4_88
.Ltmp123:
.LBB4_1:                                # %allocas
.Lxtalabel29:
	#DEBUG_VALUE: AudioClassRequests_2:ep0_out <- R8
	#DEBUG_VALUE: AudioClassRequests_2:ep0_in <- R11
	#DEBUG_VALUE: AudioClassRequests_2:sp <- R6
	#DEBUG_VALUE: AudioClassRequests_2:c_audioControl <- R9
	#DEBUG_VALUE: AudioClassRequests_2:c_mix_ctl <- [SP+580]
	{
		eq r0, r0, 1
		nop
	}
	bf r0, .LBB4_2
.Ltmp124:
# BB#3:                                 # %switchcase
.Lxtalabel30:
	#DEBUG_VALUE: AudioClassRequests_2:ep0_out <- R8
	#DEBUG_VALUE: AudioClassRequests_2:ep0_in <- R11
	#DEBUG_VALUE: AudioClassRequests_2:sp <- R6
	#DEBUG_VALUE: AudioClassRequests_2:c_audioControl <- R9
	#DEBUG_VALUE: AudioClassRequests_2:c_mix_ctl <- [SP+580]
	{
		mov r5, r8
		nop
	}
.Ltmp125:
	#DEBUG_VALUE: AudioClassRequests_2:ep0_out <- R5
	ldw r3, sp[146]
	#DEBUG_VALUE: AudioClassRequests_2:c_clk_ctl <- R3
	.loc	1 291 0                 # C:/Users/takaaki/git/sw_xSSDAC/module_usb_audio/endpoint0/audiorequests.xc:291:0
	{
		add r0, r6, 6
		ldc r4, 0
	}
	{
		nop
		ld16s r1, r0[r4]
	}
	ldc r0, 65280
	.loc	1 291 0                 # C:/Users/takaaki/git/sw_xSSDAC/module_usb_audio/endpoint0/audiorequests.xc:291:0
	{
		and r1, r1, r0
		nop
	}
	.loc	1 291 0                 # C:/Users/takaaki/git/sw_xSSDAC/module_usb_audio/endpoint0/audiorequests.xc:291:0
	{
		shr r8, r1, 8
		nop
	}
.Ltmp126:
	#DEBUG_VALUE: unitID <- R8
	ldw r1, cp[.LCPI4_0]
	.loc	1 293 0                 # C:/Users/takaaki/git/sw_xSSDAC/module_usb_audio/endpoint0/audiorequests.xc:293:0
	{
		add r1, r8, r1
		nop
	}
	{
		lsu r1, r1, r7
		nop
	}
	bf r1, .LBB4_4
.Ltmp127:
# BB#10:                                # %switchcase8
.Lxtalabel31:
	#DEBUG_VALUE: AudioClassRequests_2:ep0_out <- R5
	#DEBUG_VALUE: AudioClassRequests_2:ep0_in <- R11
	#DEBUG_VALUE: AudioClassRequests_2:sp <- R6
	#DEBUG_VALUE: AudioClassRequests_2:c_audioControl <- R9
	#DEBUG_VALUE: AudioClassRequests_2:c_mix_ctl <- [SP+580]
	#DEBUG_VALUE: AudioClassRequests_2:c_clk_ctl <- R3
	#DEBUG_VALUE: unitID <- R8
	.loc	1 301 0                 # C:/Users/takaaki/git/sw_xSSDAC/module_usb_audio/endpoint0/audiorequests.xc:301:0
	{
		add r2, r6, 4
		nop
	}
	{
		nop
		ld16s r2, r2[r4]
	}
	.loc	1 301 0                 # C:/Users/takaaki/git/sw_xSSDAC/module_usb_audio/endpoint0/audiorequests.xc:301:0
	{
		and r0, r2, r0
		nop
	}
	.loc	1 301 0                 # C:/Users/takaaki/git/sw_xSSDAC/module_usb_audio/endpoint0/audiorequests.xc:301:0
	{
		shr r0, r0, 8
		nop
	}
	.loc	1 301 0                 # C:/Users/takaaki/git/sw_xSSDAC/module_usb_audio/endpoint0/audiorequests.xc:301:0
	{
		eq r2, r0, 1
		nop
	}
	bf r2, .LBB4_11
.Ltmp128:
# BB#19:                                # %switchcase15
.Lxtalabel32:
	#DEBUG_VALUE: AudioClassRequests_2:ep0_out <- R5
	#DEBUG_VALUE: AudioClassRequests_2:ep0_in <- R11
	#DEBUG_VALUE: AudioClassRequests_2:sp <- R6
	#DEBUG_VALUE: AudioClassRequests_2:c_audioControl <- R9
	#DEBUG_VALUE: AudioClassRequests_2:c_mix_ctl <- [SP+580]
	#DEBUG_VALUE: AudioClassRequests_2:ep0_in <- R4
	{
		mov r2, r4
		mov r4, r11
	}
.Ltmp129:
	{
		ldc r0, 2
		nop
	}
	{
		nop
		ld8u r0, r6[r0]
	}
	.loc	1 307 29                # C:/Users/takaaki/git/sw_xSSDAC/module_usb_audio/endpoint0/audiorequests.xc:307:29
	bf r0, .LBB4_20
.Ltmp130:
# BB#29:                                # %iffalse
.Lxtalabel33:
	#DEBUG_VALUE: AudioClassRequests_2:ep0_out <- R5
	#DEBUG_VALUE: AudioClassRequests_2:ep0_in <- R4
	#DEBUG_VALUE: AudioClassRequests_2:sp <- R6
	#DEBUG_VALUE: AudioClassRequests_2:c_mix_ctl <- [SP+580]
	#DEBUG_VALUE: AudioClassRequests_2:ep0_out <- R11
	{
		mov r0, r10
		mov r11, r5
	}
.Ltmp131:
	bf r1, .LBB4_89
.Ltmp132:
# BB#30:                                # %switchcase57
.Lxtalabel34:
	#DEBUG_VALUE: AudioClassRequests_2:ep0_out <- R11
	#DEBUG_VALUE: AudioClassRequests_2:ep0_in <- R4
	#DEBUG_VALUE: AudioClassRequests_2:sp <- R6
	#DEBUG_VALUE: AudioClassRequests_2:c_mix_ctl <- [SP+580]
	.loc	1 404 0                 # C:/Users/takaaki/git/sw_xSSDAC/module_usb_audio/endpoint0/audiorequests.xc:404:0
	ldw r0, dp[g_curSamFreq]
	.loc	1 404 0                 # C:/Users/takaaki/git/sw_xSSDAC/module_usb_audio/endpoint0/audiorequests.xc:404:0
	{
		add r0, r6, 8
		stw r0, sp[8]
	}
	{
		nop
		ld16s r0, r0[r2]
	}
	.loc	1 405 41                # C:/Users/takaaki/git/sw_xSSDAC/module_usb_audio/endpoint0/audiorequests.xc:405:41
	{
		zext r0, 16
		nop
	}
	{
		nop
		stw r0, sp[1]
	}
	ldc r0, 512
	.loc	1 405 41                # C:/Users/takaaki/git/sw_xSSDAC/module_usb_audio/endpoint0/audiorequests.xc:405:41
	{
		ldaw r2, sp[8]
		stw r0, sp[2]
	}
	{
		ldc r3, 4
		mov r0, r11
	}
	{
		mov r1, r4
		nop
	}
	bu .LBB4_88
.Ltmp133:
.LBB4_2:
	#DEBUG_VALUE: AudioClassRequests_2:c_mix_ctl <- [SP+580]
	{
		mov r0, r10
		nop
	}
	bu .LBB4_89
.Ltmp134:
.LBB4_8:                                # %switchcase1
.Lxtalabel35:
	#DEBUG_VALUE: AudioClassRequests_2:ep0_out <- R8
	#DEBUG_VALUE: AudioClassRequests_2:ep0_in <- R11
	#DEBUG_VALUE: AudioClassRequests_2:sp <- R6
	#DEBUG_VALUE: AudioClassRequests_2:c_mix_ctl <- [SP+580]
	#DEBUG_VALUE: AudioClassRequests_2:sp <- R9
	{
		mov r9, r6
		sub r0, r0, 10
	}
.Ltmp135:
	{
		ldc r6, 2
		nop
	}
	{
		lsu r0, r0, r6
		nop
	}
	bf r0, .LBB4_9
.Ltmp136:
# BB#86:                                # %switchcase671
.Lxtalabel36:
	#DEBUG_VALUE: AudioClassRequests_2:ep0_out <- R8
	#DEBUG_VALUE: AudioClassRequests_2:ep0_in <- R11
	#DEBUG_VALUE: AudioClassRequests_2:sp <- R9
	#DEBUG_VALUE: AudioClassRequests_2:c_mix_ctl <- [SP+580]
	#DEBUG_VALUE: AudioClassRequests_2:ep0_in <- R1
	{
		mov r1, r11
		ldc r3, 5
	}
.Ltmp137:
	{
		nop
		ld8u r0, r9[r3]
	}
	.loc	1 939 0                 # C:/Users/takaaki/git/sw_xSSDAC/module_usb_audio/endpoint0/audiorequests.xc:939:0
	{
		eq r2, r0, 2
		mov r0, r10
	}
	bf r2, .LBB4_89
.Ltmp138:
# BB#87:                                # %switchcase678
.Lxtalabel37:
	#DEBUG_VALUE: AudioClassRequests_2:ep0_out <- R8
	#DEBUG_VALUE: AudioClassRequests_2:ep0_in <- R1
	#DEBUG_VALUE: AudioClassRequests_2:sp <- R9
	#DEBUG_VALUE: AudioClassRequests_2:c_mix_ctl <- [SP+580]
	{
		mkmsk r0, 1
		ldaw r2, sp[8]
	}
	.loc	1 67 0                  # C:/Users/takaaki/git/sw_xSSDAC/module_usb_audio/endpoint0/audiorequests.xc:67:0
.Ltmp139:
	{
		or r11, r2, r0
		nop
	}
	.loc	1 67 0                  # C:/Users/takaaki/git/sw_xSSDAC/module_usb_audio/endpoint0/audiorequests.xc:67:0
	st8 r4, r11[r4]
	.loc	1 68 0                  # C:/Users/takaaki/git/sw_xSSDAC/module_usb_audio/endpoint0/audiorequests.xc:68:0
	st8 r0, r2[r4]
.Ltmp140:
	.loc	1 67 0                  # C:/Users/takaaki/git/sw_xSSDAC/module_usb_audio/endpoint0/audiorequests.xc:67:0
	{
		or r11, r2, r7
		nop
	}
	ldc r5, 129
	.loc	1 67 0                  # C:/Users/takaaki/git/sw_xSSDAC/module_usb_audio/endpoint0/audiorequests.xc:67:0
	st8 r5, r11[r4]
	.loc	1 68 0                  # C:/Users/takaaki/git/sw_xSSDAC/module_usb_audio/endpoint0/audiorequests.xc:68:0
	{
		or r11, r2, r6
		nop
	}
	.loc	1 68 0                  # C:/Users/takaaki/git/sw_xSSDAC/module_usb_audio/endpoint0/audiorequests.xc:68:0
	st8 r4, r11[r4]
.Ltmp141:
	.loc	1 67 0                  # C:/Users/takaaki/git/sw_xSSDAC/module_usb_audio/endpoint0/audiorequests.xc:67:0
	st8 r4, r2[r3]
	{
		ldc r3, 4
		nop
	}
	.loc	1 68 0                  # C:/Users/takaaki/git/sw_xSSDAC/module_usb_audio/endpoint0/audiorequests.xc:68:0
	st8 r4, r2[r3]
	{
		mkmsk r3, 3
		nop
	}
.Ltmp142:
	.loc	1 67 0                  # C:/Users/takaaki/git/sw_xSSDAC/module_usb_audio/endpoint0/audiorequests.xc:67:0
	st8 r0, r2[r3]
	{
		ldc r0, 6
		nop
	}
	.loc	1 68 0                  # C:/Users/takaaki/git/sw_xSSDAC/module_usb_audio/endpoint0/audiorequests.xc:68:0
	st8 r4, r2[r0]
.Ltmp143:
	.loc	1 948 29                # C:/Users/takaaki/git/sw_xSSDAC/module_usb_audio/endpoint0/audiorequests.xc:948:29
	{
		add r0, r9, 8
		nop
	}
	{
		nop
		ld16s r3, r0[r4]
	}
	.loc	1 948 29                # C:/Users/takaaki/git/sw_xSSDAC/module_usb_audio/endpoint0/audiorequests.xc:948:29
	{
		zext r3, 16
		nop
	}
	{
		nop
		stw r3, sp[1]
	}
	ldc r0, 512
	.loc	1 948 29                # C:/Users/takaaki/git/sw_xSSDAC/module_usb_audio/endpoint0/audiorequests.xc:948:29
	{
		mov r0, r8
		stw r0, sp[2]
	}
	bu .LBB4_88
.Ltmp144:
.LBB4_4:                                # %switchcase
.Lxtalabel38:
	#DEBUG_VALUE: AudioClassRequests_2:ep0_out <- R5
	#DEBUG_VALUE: AudioClassRequests_2:ep0_in <- R11
	#DEBUG_VALUE: AudioClassRequests_2:sp <- R6
	#DEBUG_VALUE: AudioClassRequests_2:c_mix_ctl <- [SP+580]
	#DEBUG_VALUE: AudioClassRequests_2:c_clk_ctl <- R3
	{
		sub r1, r8, 10
		ldc r0, 2
	}
	{
		lsu r1, r1, r0
		nop
	}
	bf r1, .LBB4_5
.Ltmp145:
# BB#44:                                # %switchcase248
.Lxtalabel39:
	#DEBUG_VALUE: AudioClassRequests_2:ep0_out <- R5
	#DEBUG_VALUE: AudioClassRequests_2:ep0_in <- R11
	#DEBUG_VALUE: AudioClassRequests_2:sp <- R6
	#DEBUG_VALUE: AudioClassRequests_2:c_mix_ctl <- [SP+580]
	.loc	1 522 0                 # C:/Users/takaaki/git/sw_xSSDAC/module_usb_audio/endpoint0/audiorequests.xc:522:0
	{
		add r1, r6, 4
		mov r2, r4
	}
	.loc	1 522 0                 # C:/Users/takaaki/git/sw_xSSDAC/module_usb_audio/endpoint0/audiorequests.xc:522:0
	{
		mov r9, r2
		ld16s r4, r1[r2]
	}
	{
		zext r4, 16
		nop
	}
	.loc	1 522 0                 # C:/Users/takaaki/git/sw_xSSDAC/module_usb_audio/endpoint0/audiorequests.xc:522:0
	{
		shr r2, r4, 8
		nop
	}
	.loc	1 522 0                 # C:/Users/takaaki/git/sw_xSSDAC/module_usb_audio/endpoint0/audiorequests.xc:522:0
	{
		eq r3, r2, 1
		nop
	}
	bf r3, .LBB4_45
.Ltmp146:
# BB#60:                                # %switchcase256
.Lxtalabel40:
	#DEBUG_VALUE: AudioClassRequests_2:ep0_out <- R5
	#DEBUG_VALUE: AudioClassRequests_2:ep0_in <- R11
	#DEBUG_VALUE: AudioClassRequests_2:sp <- R6
	#DEBUG_VALUE: AudioClassRequests_2:c_mix_ctl <- [SP+580]
	{
		nop
		ld8u r0, r6[r0]
	}
	.loc	1 578 29                # C:/Users/takaaki/git/sw_xSSDAC/module_usb_audio/endpoint0/audiorequests.xc:578:29
	bf r0, .LBB4_61
.Ltmp147:
# BB#70:                                # %iffalse431
.Lxtalabel41:
	#DEBUG_VALUE: AudioClassRequests_2:ep0_out <- R5
	#DEBUG_VALUE: AudioClassRequests_2:ep0_in <- R11
	#DEBUG_VALUE: AudioClassRequests_2:sp <- R6
	#DEBUG_VALUE: AudioClassRequests_2:c_mix_ctl <- [SP+580]
	#DEBUG_VALUE: AudioClassRequests_2:ep0_in <- R1
	{
		mov r1, r11
		eq r0, r8, 10
	}
.Ltmp148:
	.loc	1 609 37                # C:/Users/takaaki/git/sw_xSSDAC/module_usb_audio/endpoint0/audiorequests.xc:609:37
	{
		zext r4, 8
		nop
	}
	.loc	1 607 33                # C:/Users/takaaki/git/sw_xSSDAC/module_usb_audio/endpoint0/audiorequests.xc:607:33
	bf r0, .LBB4_73
.Ltmp149:
# BB#71:                                # %iftrue501
.Lxtalabel42:
	#DEBUG_VALUE: AudioClassRequests_2:ep0_out <- R5
	#DEBUG_VALUE: AudioClassRequests_2:ep0_in <- R1
	#DEBUG_VALUE: AudioClassRequests_2:sp <- R6
	#DEBUG_VALUE: AudioClassRequests_2:c_mix_ctl <- [SP+580]
	.loc	1 609 37                # C:/Users/takaaki/git/sw_xSSDAC/module_usb_audio/endpoint0/audiorequests.xc:609:37
	{
		lsu r2, r4, r7
		mov r0, r10
	}
	{
		mov r11, r5
		nop
	}
.Ltmp150:
	#DEBUG_VALUE: AudioClassRequests_2:ep0_out <- R11
	bf r2, .LBB4_89
.Ltmp151:
# BB#72:                                # %iftrue508
.Lxtalabel43:
	#DEBUG_VALUE: AudioClassRequests_2:ep0_out <- R11
	#DEBUG_VALUE: AudioClassRequests_2:ep0_in <- R1
	#DEBUG_VALUE: AudioClassRequests_2:sp <- R6
	#DEBUG_VALUE: AudioClassRequests_2:c_mix_ctl <- [SP+580]
	.loc	1 611 0                 # C:/Users/takaaki/git/sw_xSSDAC/module_usb_audio/endpoint0/audiorequests.xc:611:0
	ldc r0, mutesOut.globound
	.loc	1 611 0                 # C:/Users/takaaki/git/sw_xSSDAC/module_usb_audio/endpoint0/audiorequests.xc:611:0
	{
		lsu r0, r4, r0
		nop
	}
.Ltrap_info17:
	{
		ecallf r0
		nop
	}
	#DEBUG_VALUE: AudioClassRequests_2:ep0_out <- R11
	#DEBUG_VALUE: AudioClassRequests_2:ep0_in <- R1
	#DEBUG_VALUE: AudioClassRequests_2:sp <- R6
	#DEBUG_VALUE: AudioClassRequests_2:c_mix_ctl <- [SP+580]
	.loc	1 611 0                 # C:/Users/takaaki/git/sw_xSSDAC/module_usb_audio/endpoint0/audiorequests.xc:611:0
	ldaw r0, dp[mutesOut]
	{
		nop
		ldw r0, r0[r4]
	}
	bu .LBB4_75
.Ltmp152:
.LBB4_9:
	#DEBUG_VALUE: AudioClassRequests_2:c_mix_ctl <- [SP+580]
	{
		mov r0, r10
		nop
	}
	bu .LBB4_89
.Ltmp153:
.LBB4_11:                               # %switchcase8
.Lxtalabel44:
	#DEBUG_VALUE: AudioClassRequests_2:ep0_out <- R5
	#DEBUG_VALUE: AudioClassRequests_2:ep0_in <- R11
	#DEBUG_VALUE: AudioClassRequests_2:sp <- R6
	#DEBUG_VALUE: AudioClassRequests_2:c_mix_ctl <- [SP+580]
	#DEBUG_VALUE: AudioClassRequests_2:c_clk_ctl <- R3
	{
		eq r0, r0, 2
		nop
	}
	bf r0, .LBB4_12
.Ltmp154:
# BB#15:                                # %switchcase16
.Lxtalabel45:
	#DEBUG_VALUE: AudioClassRequests_2:ep0_out <- R5
	#DEBUG_VALUE: AudioClassRequests_2:ep0_in <- R11
	#DEBUG_VALUE: AudioClassRequests_2:sp <- R6
	#DEBUG_VALUE: AudioClassRequests_2:c_mix_ctl <- [SP+580]
	#DEBUG_VALUE: AudioClassRequests_2:c_clk_ctl <- R3
	{
		ldc r0, 41
		nop
	}
	.loc	1 420 0                 # C:/Users/takaaki/git/sw_xSSDAC/module_usb_audio/endpoint0/audiorequests.xc:420:0
	{
		eq r0, r8, r0
		nop
	}
	bt r0, .LBB4_31
.Ltmp155:
# BB#16:                                # %switchcase16
.Lxtalabel46:
	#DEBUG_VALUE: AudioClassRequests_2:ep0_out <- R5
	#DEBUG_VALUE: AudioClassRequests_2:ep0_in <- R11
	#DEBUG_VALUE: AudioClassRequests_2:sp <- R6
	#DEBUG_VALUE: AudioClassRequests_2:c_mix_ctl <- [SP+580]
	#DEBUG_VALUE: AudioClassRequests_2:c_clk_ctl <- R3
	{
		ldc r0, 42
		nop
	}
	{
		eq r0, r8, r0
		nop
	}
	bt r0, .LBB4_32
.Ltmp156:
# BB#17:                                # %switchcase16
.Lxtalabel47:
	#DEBUG_VALUE: AudioClassRequests_2:ep0_out <- R5
	#DEBUG_VALUE: AudioClassRequests_2:ep0_in <- R11
	#DEBUG_VALUE: AudioClassRequests_2:sp <- R6
	#DEBUG_VALUE: AudioClassRequests_2:c_mix_ctl <- [SP+580]
	#DEBUG_VALUE: AudioClassRequests_2:c_clk_ctl <- R3
	{
		ldc r0, 43
		nop
	}
	{
		eq r0, r8, r0
		nop
	}
	bf r0, .LBB4_18
.Ltmp157:
.LBB4_32:                               # %switchcase71
.Lxtalabel48:
	#DEBUG_VALUE: AudioClassRequests_2:ep0_out <- R5
	#DEBUG_VALUE: AudioClassRequests_2:ep0_in <- R11
	#DEBUG_VALUE: AudioClassRequests_2:sp <- R6
	#DEBUG_VALUE: AudioClassRequests_2:c_mix_ctl <- [SP+580]
	#DEBUG_VALUE: AudioClassRequests_2:c_clk_ctl <- R3
	#DEBUG_VALUE: AudioClassRequests_2:ep0_in <- R1
	{
		mov r1, r11
		mov r0, r10
	}
.Ltmp158:
	{
		mov r11, r5
		nop
	}
.Ltmp159:
	#DEBUG_VALUE: AudioClassRequests_2:ep0_out <- R11
	bf r3, .LBB4_89
.Ltmp160:
# BB#33:                                # %afternullcheck125
.Lxtalabel49:
	#DEBUG_VALUE: AudioClassRequests_2:ep0_out <- R11
	#DEBUG_VALUE: AudioClassRequests_2:ep0_in <- R1
	#DEBUG_VALUE: AudioClassRequests_2:sp <- R6
	#DEBUG_VALUE: AudioClassRequests_2:c_mix_ctl <- [SP+580]
	#DEBUG_VALUE: AudioClassRequests_2:c_clk_ctl <- R3
	#DEBUG_VALUE: AudioClassRequests_2:c_clk_ctl <- R5
	.loc	1 448 0                 # C:/Users/takaaki/git/sw_xSSDAC/module_usb_audio/endpoint0/audiorequests.xc:448:0
.Lxta.endpoint_labels1:
	{
		out res[r3], r7
		mov r5, r3
	}
.Ltmp161:
	{
		mkmsk r3, 1
		nop
	}
	.loc	1 449 0                 # C:/Users/takaaki/git/sw_xSSDAC/module_usb_audio/endpoint0/audiorequests.xc:449:0
.Lxta.endpoint_labels2:
	{
		out res[r5], r3
		nop
	}
	.loc	1 450 0                 # C:/Users/takaaki/git/sw_xSSDAC/module_usb_audio/endpoint0/audiorequests.xc:450:0
.Lxta.endpoint_labels3:
	{
		outct res[r5], 1
		nop
	}
	.loc	1 451 0                 # C:/Users/takaaki/git/sw_xSSDAC/module_usb_audio/endpoint0/audiorequests.xc:451:0
.Lxta.endpoint_labels4:
	{
		in r0, res[r5]
		ldaw r2, sp[8]
	}
	.loc	1 451 0                 # C:/Users/takaaki/git/sw_xSSDAC/module_usb_audio/endpoint0/audiorequests.xc:451:0
	st8 r0, r2[r4]
	.loc	1 452 0                 # C:/Users/takaaki/git/sw_xSSDAC/module_usb_audio/endpoint0/audiorequests.xc:452:0
	{
		chkct res[r5], 1
		add r0, r6, 8
	}
	{
		nop
		ld16s r0, r0[r4]
	}
	.loc	1 453 41                # C:/Users/takaaki/git/sw_xSSDAC/module_usb_audio/endpoint0/audiorequests.xc:453:41
	{
		zext r0, 16
		nop
	}
	{
		nop
		stw r0, sp[1]
	}
	bu .LBB4_76
.Ltmp162:
.LBB4_5:                                # %switchcase
.Lxtalabel50:
	#DEBUG_VALUE: AudioClassRequests_2:ep0_out <- R5
	#DEBUG_VALUE: AudioClassRequests_2:ep0_in <- R11
	#DEBUG_VALUE: AudioClassRequests_2:sp <- R6
	#DEBUG_VALUE: AudioClassRequests_2:c_mix_ctl <- [SP+580]
	#DEBUG_VALUE: AudioClassRequests_2:c_clk_ctl <- R3
	{
		ldc r1, 40
		nop
	}
	{
		eq r1, r8, r1
		nop
	}
	bf r1, .LBB4_6
.Ltmp163:
# BB#13:                                # %switchcase9
.Lxtalabel51:
	#DEBUG_VALUE: AudioClassRequests_2:ep0_out <- R5
	#DEBUG_VALUE: AudioClassRequests_2:ep0_in <- R11
	#DEBUG_VALUE: AudioClassRequests_2:sp <- R6
	#DEBUG_VALUE: AudioClassRequests_2:c_mix_ctl <- [SP+580]
	#DEBUG_VALUE: AudioClassRequests_2:c_clk_ctl <- R3
	{
		ldc r1, 5
		nop
	}
	{
		nop
		ld8u r1, r6[r1]
	}
	.loc	1 475 21                # C:/Users/takaaki/git/sw_xSSDAC/module_usb_audio/endpoint0/audiorequests.xc:475:21
	{
		eq r1, r1, 1
		nop
	}
	.loc	1 475 21                # C:/Users/takaaki/git/sw_xSSDAC/module_usb_audio/endpoint0/audiorequests.xc:475:21
	bf r1, .LBB4_14
.Ltmp164:
# BB#34:                                # %iftrue157
.Lxtalabel52:
	#DEBUG_VALUE: AudioClassRequests_2:ep0_out <- R5
	#DEBUG_VALUE: AudioClassRequests_2:ep0_in <- R11
	#DEBUG_VALUE: AudioClassRequests_2:sp <- R6
	#DEBUG_VALUE: AudioClassRequests_2:c_mix_ctl <- [SP+580]
	#DEBUG_VALUE: AudioClassRequests_2:c_clk_ctl <- R3
	{
		nop
		ld8u r0, r6[r0]
	}
	.loc	1 478 25                # C:/Users/takaaki/git/sw_xSSDAC/module_usb_audio/endpoint0/audiorequests.xc:478:25
	bf r0, .LBB4_35
.Ltmp165:
# BB#40:                                # %iffalse175
.Lxtalabel53:
	#DEBUG_VALUE: AudioClassRequests_2:ep0_out <- R5
	#DEBUG_VALUE: AudioClassRequests_2:ep0_in <- R11
	#DEBUG_VALUE: AudioClassRequests_2:sp <- R6
	#DEBUG_VALUE: AudioClassRequests_2:c_mix_ctl <- [SP+580]
	#DEBUG_VALUE: AudioClassRequests_2:c_clk_ctl <- R3
	{
		ldaw r2, sp[8]
		mkmsk r1, 1
	}
	.loc	1 502 0                 # C:/Users/takaaki/git/sw_xSSDAC/module_usb_audio/endpoint0/audiorequests.xc:502:0
	st8 r1, r2[r4]
	{
		mov r0, r5
		nop
	}
.Ltmp166:
	#DEBUG_VALUE: AudioClassRequests_2:ep0_out <- R0
	bf r3, .LBB4_41
.Ltmp167:
# BB#43:                                # %afternullcheck225
.Lxtalabel54:
	#DEBUG_VALUE: AudioClassRequests_2:ep0_out <- R0
	#DEBUG_VALUE: AudioClassRequests_2:ep0_in <- R11
	#DEBUG_VALUE: AudioClassRequests_2:sp <- R6
	#DEBUG_VALUE: AudioClassRequests_2:c_mix_ctl <- [SP+580]
	#DEBUG_VALUE: AudioClassRequests_2:c_clk_ctl <- R3
	.loc	1 505 0                 # C:/Users/takaaki/git/sw_xSSDAC/module_usb_audio/endpoint0/audiorequests.xc:505:0
.Lxta.endpoint_labels5:
	{
		out res[r3], r4
		nop
	}
	.loc	1 506 0                 # C:/Users/takaaki/git/sw_xSSDAC/module_usb_audio/endpoint0/audiorequests.xc:506:0
.Lxta.endpoint_labels6:
	{
		outct res[r3], 1
		nop
	}
	.loc	1 507 0                 # C:/Users/takaaki/git/sw_xSSDAC/module_usb_audio/endpoint0/audiorequests.xc:507:0
.Lxta.endpoint_labels7:
	{
		in r1, res[r3]
		nop
	}
	.loc	1 507 0                 # C:/Users/takaaki/git/sw_xSSDAC/module_usb_audio/endpoint0/audiorequests.xc:507:0
	st8 r1, r2[r4]
	.loc	1 508 0                 # C:/Users/takaaki/git/sw_xSSDAC/module_usb_audio/endpoint0/audiorequests.xc:508:0
	{
		chkct res[r3], 1
		nop
	}
.Ltmp168:
.LBB4_41:                               # %ifdone216
.Lxtalabel55:
	#DEBUG_VALUE: AudioClassRequests_2:ep0_out <- R0
	#DEBUG_VALUE: AudioClassRequests_2:ep0_in <- R11
	#DEBUG_VALUE: AudioClassRequests_2:sp <- R6
	#DEBUG_VALUE: AudioClassRequests_2:c_mix_ctl <- [SP+580]
	.loc	1 510 29                # C:/Users/takaaki/git/sw_xSSDAC/module_usb_audio/endpoint0/audiorequests.xc:510:29
	{
		add r1, r6, 8
		nop
	}
	{
		nop
		ld16s r1, r1[r4]
	}
	.loc	1 510 29                # C:/Users/takaaki/git/sw_xSSDAC/module_usb_audio/endpoint0/audiorequests.xc:510:29
	{
		zext r1, 16
		nop
	}
	{
		nop
		stw r1, sp[1]
	}
	ldc r1, 512
	.loc	1 510 29                # C:/Users/takaaki/git/sw_xSSDAC/module_usb_audio/endpoint0/audiorequests.xc:510:29
	{
		ldaw r2, sp[8]
		stw r1, sp[2]
	}
	{
		mkmsk r3, 1
		mov r1, r11
	}
	bu .LBB4_88
.Ltmp169:
.LBB4_45:                               # %switchcase248
.Lxtalabel56:
	#DEBUG_VALUE: AudioClassRequests_2:ep0_out <- R5
	#DEBUG_VALUE: AudioClassRequests_2:ep0_in <- R11
	#DEBUG_VALUE: AudioClassRequests_2:sp <- R6
	#DEBUG_VALUE: AudioClassRequests_2:c_mix_ctl <- [SP+580]
	{
		eq r2, r2, 2
		nop
	}
	bf r2, .LBB4_46
.Ltmp170:
# BB#47:                                # %switchcase255
.Lxtalabel57:
	#DEBUG_VALUE: AudioClassRequests_2:ep0_out <- R5
	#DEBUG_VALUE: AudioClassRequests_2:ep0_in <- R11
	#DEBUG_VALUE: AudioClassRequests_2:sp <- R6
	#DEBUG_VALUE: AudioClassRequests_2:c_mix_ctl <- [SP+580]
	{
		nop
		ld8u r0, r6[r0]
	}
	.loc	1 526 29                # C:/Users/takaaki/git/sw_xSSDAC/module_usb_audio/endpoint0/audiorequests.xc:526:29
	bf r0, .LBB4_48
.Ltmp171:
# BB#54:                                # %iffalse266
.Lxtalabel58:
	#DEBUG_VALUE: AudioClassRequests_2:ep0_out <- R5
	#DEBUG_VALUE: AudioClassRequests_2:ep0_in <- R11
	#DEBUG_VALUE: AudioClassRequests_2:sp <- R6
	#DEBUG_VALUE: AudioClassRequests_2:c_mix_ctl <- [SP+580]
	#DEBUG_VALUE: AudioClassRequests_2:ep0_in <- R1
	{
		mov r1, r11
		eq r0, r8, 10
	}
.Ltmp172:
	.loc	1 557 37                # C:/Users/takaaki/git/sw_xSSDAC/module_usb_audio/endpoint0/audiorequests.xc:557:37
	{
		zext r4, 8
		nop
	}
	.loc	1 555 33                # C:/Users/takaaki/git/sw_xSSDAC/module_usb_audio/endpoint0/audiorequests.xc:555:33
	bf r0, .LBB4_57
.Ltmp173:
# BB#55:                                # %iftrue342
.Lxtalabel59:
	#DEBUG_VALUE: AudioClassRequests_2:ep0_out <- R5
	#DEBUG_VALUE: AudioClassRequests_2:ep0_in <- R1
	#DEBUG_VALUE: AudioClassRequests_2:sp <- R6
	#DEBUG_VALUE: AudioClassRequests_2:c_mix_ctl <- [SP+580]
	.loc	1 557 37                # C:/Users/takaaki/git/sw_xSSDAC/module_usb_audio/endpoint0/audiorequests.xc:557:37
	{
		lsu r2, r4, r7
		mov r0, r10
	}
	{
		mov r11, r5
		nop
	}
.Ltmp174:
	#DEBUG_VALUE: AudioClassRequests_2:ep0_out <- R11
	bf r2, .LBB4_89
.Ltmp175:
# BB#56:                                # %iftrue349
.Lxtalabel60:
	#DEBUG_VALUE: AudioClassRequests_2:ep0_out <- R11
	#DEBUG_VALUE: AudioClassRequests_2:ep0_in <- R1
	#DEBUG_VALUE: AudioClassRequests_2:sp <- R6
	#DEBUG_VALUE: AudioClassRequests_2:c_mix_ctl <- [SP+580]
	.loc	1 559 0                 # C:/Users/takaaki/git/sw_xSSDAC/module_usb_audio/endpoint0/audiorequests.xc:559:0
	ldc r0, volsOut.globound
	.loc	1 559 0                 # C:/Users/takaaki/git/sw_xSSDAC/module_usb_audio/endpoint0/audiorequests.xc:559:0
	{
		lsu r0, r4, r0
		nop
	}
.Ltrap_info18:
	{
		ecallf r0
		nop
	}
	#DEBUG_VALUE: AudioClassRequests_2:ep0_out <- R11
	#DEBUG_VALUE: AudioClassRequests_2:ep0_in <- R1
	#DEBUG_VALUE: AudioClassRequests_2:sp <- R6
	#DEBUG_VALUE: AudioClassRequests_2:c_mix_ctl <- [SP+580]
	.loc	1 559 0                 # C:/Users/takaaki/git/sw_xSSDAC/module_usb_audio/endpoint0/audiorequests.xc:559:0
	ldaw r0, dp[volsOut]
	{
		nop
		ldw r0, r0[r4]
	}
	bu .LBB4_59
.Ltmp176:
.LBB4_12:
	#DEBUG_VALUE: AudioClassRequests_2:c_mix_ctl <- [SP+580]
	{
		mov r0, r10
		nop
	}
	bu .LBB4_89
.Ltmp177:
.LBB4_20:                               # %iftrue
.Lxtalabel61:
	#DEBUG_VALUE: AudioClassRequests_2:ep0_out <- R5
	#DEBUG_VALUE: AudioClassRequests_2:ep0_in <- R4
	#DEBUG_VALUE: AudioClassRequests_2:c_audioControl <- R9
	#DEBUG_VALUE: AudioClassRequests_2:c_mix_ctl <- [SP+580]
	#DEBUG_VALUE: datalength <- [R2+0]
	{
		ldaw r1, sp[8]
		ldaw r2, sp[7]
	}
.Ltmp178:
	ldc r3, 512
	.loc	1 310 33                # C:/Users/takaaki/git/sw_xSSDAC/module_usb_audio/endpoint0/audiorequests.xc:310:33
	{
		mov r0, r5
		nop
	}
.Lxta.call_labels12:
	bl XUD_GetBuffer
.Ltmp179:
	#DEBUG_VALUE: result <- R0
	bt r0, .LBB4_89
.Ltmp180:
# BB#21:                                # %ifdone21
.Lxtalabel62:
	#DEBUG_VALUE: AudioClassRequests_2:ep0_in <- R4
	#DEBUG_VALUE: AudioClassRequests_2:c_audioControl <- R9
	#DEBUG_VALUE: AudioClassRequests_2:c_mix_ctl <- [SP+580]
	{
		nop
		ldw r0, sp[7]
	}
	.loc	1 315 33                # C:/Users/takaaki/git/sw_xSSDAC/module_usb_audio/endpoint0/audiorequests.xc:315:33
	{
		eq r0, r0, 4
		nop
	}
	bf r0, .LBB4_28
.Ltmp181:
# BB#22:                                # %iftrue25
.Lxtalabel63:
	#DEBUG_VALUE: AudioClassRequests_2:ep0_in <- R4
	#DEBUG_VALUE: AudioClassRequests_2:c_audioControl <- R9
	#DEBUG_VALUE: AudioClassRequests_2:c_mix_ctl <- [SP+580]
	{
		nop
		ldw r0, sp[8]
	}
.Ltmp182:
	#DEBUG_VALUE: newSampleRate <- R0
	.loc	1 321 37                # C:/Users/takaaki/git/sw_xSSDAC/module_usb_audio/endpoint0/audiorequests.xc:321:37
	ldw r1, dp[g_curSamFreq]
	.loc	1 321 37                # C:/Users/takaaki/git/sw_xSSDAC/module_usb_audio/endpoint0/audiorequests.xc:321:37
	{
		eq r1, r0, r1
		nop
	}
	bt r1, .LBB4_24
.Ltmp183:
# BB#23:                                # %iftrue43
.Lxtalabel64:
	#DEBUG_VALUE: AudioClassRequests_2:ep0_in <- R4
	#DEBUG_VALUE: AudioClassRequests_2:c_audioControl <- R9
	#DEBUG_VALUE: AudioClassRequests_2:c_mix_ctl <- [SP+580]
	#DEBUG_VALUE: newSampleRate <- R0
	.loc	1 325 0                 # C:/Users/takaaki/git/sw_xSSDAC/module_usb_audio/endpoint0/audiorequests.xc:325:0
	stw r0, dp[g_curSamFreq]
	{
		ldc r1, 4
		nop
	}
	.loc	1 361 0                 # C:/Users/takaaki/git/sw_xSSDAC/module_usb_audio/endpoint0/audiorequests.xc:361:0
.Lxta.endpoint_labels8:
	{
		out res[r9], r1
		nop
	}
	.loc	1 362 0                 # C:/Users/takaaki/git/sw_xSSDAC/module_usb_audio/endpoint0/audiorequests.xc:362:0
.Lxta.endpoint_labels9:
	{
		out res[r9], r0
		nop
	}
	.loc	1 365 0                 # C:/Users/takaaki/git/sw_xSSDAC/module_usb_audio/endpoint0/audiorequests.xc:365:0
	{
		chkct res[r9], 1
		nop
	}
.Ltmp184:
.LBB4_24:                               # %ifdone44
.Lxtalabel65:
	#DEBUG_VALUE: AudioClassRequests_2:ep0_in <- R4
	#DEBUG_VALUE: AudioClassRequests_2:c_mix_ctl <- [SP+580]
	.loc	1 90 0                  # C:/Users/takaaki/git/sw_xSSDAC/module_usb_audio/endpoint0/audiorequests.xc:90:0
	#APP
	ldw   r0, dp[g_curUsbSpeed]
	#NO_APP
.Ltmp185:
	#DEBUG_VALUE: usbSpeed <- R0
	.loc	1 92 5                  # C:/Users/takaaki/git/sw_xSSDAC/module_usb_audio/endpoint0/audiorequests.xc:92:5
	{
		eq r0, r0, 2
		nop
	}
.Ltmp186:
	.loc	1 94 0                  # C:/Users/takaaki/git/sw_xSSDAC/module_usb_audio/endpoint0/audiorequests.xc:94:0
	bt r0, .LBB4_25
.Ltmp187:
# BB#26:                                # %ifdone44
.Lxtalabel66:
	#DEBUG_VALUE: AudioClassRequests_2:ep0_in <- R4
	#DEBUG_VALUE: AudioClassRequests_2:c_mix_ctl <- [SP+580]
	ldw r0, cp[.LCPI4_3]
	bu .LBB4_27
.Ltmp188:
.LBB4_6:
	#DEBUG_VALUE: AudioClassRequests_2:c_mix_ctl <- [SP+580]
	{
		mov r0, r10
		nop
	}
	bu .LBB4_89
.Ltmp189:
.LBB4_46:
	#DEBUG_VALUE: AudioClassRequests_2:c_mix_ctl <- [SP+580]
	{
		mov r0, r10
		nop
	}
	bu .LBB4_89
.Ltmp190:
.LBB4_61:                               # %iftrue422
.Lxtalabel67:
	#DEBUG_VALUE: AudioClassRequests_2:ep0_out <- R5
	#DEBUG_VALUE: AudioClassRequests_2:ep0_in <- R11
	#DEBUG_VALUE: AudioClassRequests_2:sp <- R6
	#DEBUG_VALUE: AudioClassRequests_2:c_mix_ctl <- [SP+580]
	#DEBUG_VALUE: AudioClassRequests_2:ep0_in <- [SP+20]
	{
		ldaw r4, sp[8]
		stw r11, sp[5]
	}
	{
		ldaw r2, sp[7]
		nop
	}
.Ltmp191:
	#DEBUG_VALUE: datalength <- [R2+0]
	ldc r3, 512
	.loc	1 581 33                # C:/Users/takaaki/git/sw_xSSDAC/module_usb_audio/endpoint0/audiorequests.xc:581:33
	{
		mov r0, r5
		mov r1, r4
	}
.Lxta.call_labels13:
	bl XUD_GetBuffer
.Ltmp192:
	#DEBUG_VALUE: result <- R0
	bt r0, .LBB4_89
.Ltmp193:
# BB#62:                                # %ifdone433
.Lxtalabel68:
	#DEBUG_VALUE: AudioClassRequests_2:ep0_in <- [SP+20]
	#DEBUG_VALUE: AudioClassRequests_2:sp <- R6
	#DEBUG_VALUE: AudioClassRequests_2:c_mix_ctl <- [SP+580]
	{
		ldc r0, 4
		nop
	}
	.loc	1 588 37                # C:/Users/takaaki/git/sw_xSSDAC/module_usb_audio/endpoint0/audiorequests.xc:588:37
	{
		eq r0, r8, 10
		ld8u r1, r6[r0]
	}
	.loc	1 586 33                # C:/Users/takaaki/git/sw_xSSDAC/module_usb_audio/endpoint0/audiorequests.xc:586:33
	bf r0, .LBB4_66
.Ltmp194:
# BB#63:                                # %iftrue440
.Lxtalabel69:
	#DEBUG_VALUE: AudioClassRequests_2:ep0_in <- [SP+20]
	#DEBUG_VALUE: AudioClassRequests_2:c_mix_ctl <- [SP+580]
	.loc	1 588 37                # C:/Users/takaaki/git/sw_xSSDAC/module_usb_audio/endpoint0/audiorequests.xc:588:37
	{
		lsu r2, r1, r7
		mov r0, r10
	}
	bf r2, .LBB4_89
.Ltmp195:
# BB#64:                                # %iftrue447
.Lxtalabel70:
	#DEBUG_VALUE: AudioClassRequests_2:ep0_in <- [SP+20]
	#DEBUG_VALUE: AudioClassRequests_2:c_mix_ctl <- [SP+580]
	.loc	1 590 0                 # C:/Users/takaaki/git/sw_xSSDAC/module_usb_audio/endpoint0/audiorequests.xc:590:0
	ldc r0, mutesOut.globound
	.loc	1 590 0                 # C:/Users/takaaki/git/sw_xSSDAC/module_usb_audio/endpoint0/audiorequests.xc:590:0
	{
		lsu r0, r1, r0
		nop
	}
.Ltrap_info19:
	{
		ecallf r0
		nop
	}
	#DEBUG_VALUE: AudioClassRequests_2:ep0_in <- [SP+20]
	#DEBUG_VALUE: AudioClassRequests_2:c_mix_ctl <- [SP+580]
	.loc	1 590 0                 # C:/Users/takaaki/git/sw_xSSDAC/module_usb_audio/endpoint0/audiorequests.xc:590:0
	ldaw r0, dp[mutesOut]
	{
		nop
		ld8u r2, r4[r9]
	}
	bu .LBB4_65
.Ltmp196:
.LBB4_73:                               # %iffalse507
.Lxtalabel71:
	#DEBUG_VALUE: AudioClassRequests_2:ep0_out <- R5
	#DEBUG_VALUE: AudioClassRequests_2:ep0_in <- R1
	#DEBUG_VALUE: AudioClassRequests_2:sp <- R6
	#DEBUG_VALUE: AudioClassRequests_2:c_mix_ctl <- [SP+580]
	#DEBUG_VALUE: AudioClassRequests_2:ep0_out <- R11
	{
		mov r0, r10
		mov r11, r5
	}
.Ltmp197:
	bt r4, .LBB4_89
.Ltmp198:
# BB#74:                                # %iftrue536
.Lxtalabel72:
	#DEBUG_VALUE: AudioClassRequests_2:ep0_out <- R11
	#DEBUG_VALUE: AudioClassRequests_2:ep0_in <- R1
	#DEBUG_VALUE: AudioClassRequests_2:sp <- R6
	#DEBUG_VALUE: AudioClassRequests_2:c_mix_ctl <- [SP+580]
	.loc	1 619 0                 # C:/Users/takaaki/git/sw_xSSDAC/module_usb_audio/endpoint0/audiorequests.xc:619:0
	ldc r0, mutesIn.globound
.Ltrap_info20:
	{
		ecallf r0
		nop
	}
	#DEBUG_VALUE: AudioClassRequests_2:ep0_out <- R11
	#DEBUG_VALUE: AudioClassRequests_2:ep0_in <- R1
	#DEBUG_VALUE: AudioClassRequests_2:sp <- R6
	#DEBUG_VALUE: AudioClassRequests_2:c_mix_ctl <- [SP+580]
	.loc	1 619 0                 # C:/Users/takaaki/git/sw_xSSDAC/module_usb_audio/endpoint0/audiorequests.xc:619:0
	ldw r0, dp[mutesIn]
.Ltmp199:
.LBB4_75:                               # %return
	{
		ldaw r2, sp[8]
		nop
	}
	.loc	1 619 0                 # C:/Users/takaaki/git/sw_xSSDAC/module_usb_audio/endpoint0/audiorequests.xc:619:0
	st8 r0, r2[r9]
	.loc	1 620 41                # C:/Users/takaaki/git/sw_xSSDAC/module_usb_audio/endpoint0/audiorequests.xc:620:41
	{
		add r0, r6, 8
		nop
	}
	{
		nop
		ld16s r3, r0[r9]
	}
	.loc	1 620 41                # C:/Users/takaaki/git/sw_xSSDAC/module_usb_audio/endpoint0/audiorequests.xc:620:41
	{
		zext r3, 16
		nop
	}
	{
		nop
		stw r3, sp[1]
	}
.LBB4_76:                               # %return
	ldc r0, 512
	.loc	1 620 41                # C:/Users/takaaki/git/sw_xSSDAC/module_usb_audio/endpoint0/audiorequests.xc:620:41
	{
		mov r0, r11
		stw r0, sp[2]
	}
	bu .LBB4_88
.LBB4_31:                               # %switchcase70
.Lxtalabel73:
.Ltmp200:
	#DEBUG_VALUE: AudioClassRequests_2:ep0_out <- R5
	#DEBUG_VALUE: AudioClassRequests_2:ep0_in <- R11
	#DEBUG_VALUE: AudioClassRequests_2:sp <- R6
	#DEBUG_VALUE: AudioClassRequests_2:c_mix_ctl <- [SP+580]
	{
		ldaw r2, sp[8]
		mkmsk r3, 1
	}
	.loc	1 425 0                 # C:/Users/takaaki/git/sw_xSSDAC/module_usb_audio/endpoint0/audiorequests.xc:425:0
	st8 r3, r2[r4]
	.loc	1 426 37                # C:/Users/takaaki/git/sw_xSSDAC/module_usb_audio/endpoint0/audiorequests.xc:426:37
	{
		add r0, r6, 8
		nop
	}
	{
		nop
		ld16s r0, r0[r4]
	}
	.loc	1 426 37                # C:/Users/takaaki/git/sw_xSSDAC/module_usb_audio/endpoint0/audiorequests.xc:426:37
	{
		zext r0, 16
		nop
	}
	{
		nop
		stw r0, sp[1]
	}
	ldc r0, 512
	.loc	1 426 37                # C:/Users/takaaki/git/sw_xSSDAC/module_usb_audio/endpoint0/audiorequests.xc:426:37
	{
		mov r0, r5
		stw r0, sp[2]
	}
	.loc	1 510 29                # C:/Users/takaaki/git/sw_xSSDAC/module_usb_audio/endpoint0/audiorequests.xc:510:29
	{
		mov r1, r11
		nop
	}
	bu .LBB4_88
.Ltmp201:
.LBB4_14:
	#DEBUG_VALUE: AudioClassRequests_2:c_mix_ctl <- [SP+580]
	{
		mov r0, r10
		nop
	}
	bu .LBB4_89
.Ltmp202:
.LBB4_48:                               # %iftrue257
.Lxtalabel74:
	#DEBUG_VALUE: AudioClassRequests_2:ep0_out <- R5
	#DEBUG_VALUE: AudioClassRequests_2:ep0_in <- R11
	#DEBUG_VALUE: AudioClassRequests_2:sp <- R6
	#DEBUG_VALUE: AudioClassRequests_2:c_mix_ctl <- [SP+580]
	#DEBUG_VALUE: AudioClassRequests_2:ep0_in <- [SP+20]
	{
		ldaw r4, sp[8]
		stw r11, sp[5]
	}
	{
		ldaw r2, sp[7]
		nop
	}
.Ltmp203:
	#DEBUG_VALUE: datalength <- [R2+0]
	ldc r3, 512
	.loc	1 529 33                # C:/Users/takaaki/git/sw_xSSDAC/module_usb_audio/endpoint0/audiorequests.xc:529:33
	{
		mov r0, r5
		mov r1, r4
	}
.Lxta.call_labels14:
	bl XUD_GetBuffer
.Ltmp204:
	#DEBUG_VALUE: result <- R0
	bt r0, .LBB4_89
.Ltmp205:
# BB#49:                                # %ifdone268
.Lxtalabel75:
	#DEBUG_VALUE: AudioClassRequests_2:ep0_in <- [SP+20]
	#DEBUG_VALUE: AudioClassRequests_2:sp <- R6
	#DEBUG_VALUE: AudioClassRequests_2:c_mix_ctl <- [SP+580]
	{
		ldc r0, 4
		nop
	}
	.loc	1 536 37                # C:/Users/takaaki/git/sw_xSSDAC/module_usb_audio/endpoint0/audiorequests.xc:536:37
	{
		eq r0, r8, 10
		ld8u r1, r6[r0]
	}
	.loc	1 534 33                # C:/Users/takaaki/git/sw_xSSDAC/module_usb_audio/endpoint0/audiorequests.xc:534:33
	bf r0, .LBB4_52
.Ltmp206:
# BB#50:                                # %iftrue275
.Lxtalabel76:
	#DEBUG_VALUE: AudioClassRequests_2:ep0_in <- [SP+20]
	#DEBUG_VALUE: AudioClassRequests_2:c_mix_ctl <- [SP+580]
	.loc	1 536 37                # C:/Users/takaaki/git/sw_xSSDAC/module_usb_audio/endpoint0/audiorequests.xc:536:37
	{
		lsu r2, r1, r7
		mov r0, r10
	}
	bf r2, .LBB4_89
.Ltmp207:
# BB#51:                                # %iftrue282
.Lxtalabel77:
	#DEBUG_VALUE: AudioClassRequests_2:ep0_in <- [SP+20]
	#DEBUG_VALUE: AudioClassRequests_2:c_mix_ctl <- [SP+580]
	.loc	1 538 0                 # C:/Users/takaaki/git/sw_xSSDAC/module_usb_audio/endpoint0/audiorequests.xc:538:0
	ldc r0, volsOut.globound
	.loc	1 538 0                 # C:/Users/takaaki/git/sw_xSSDAC/module_usb_audio/endpoint0/audiorequests.xc:538:0
	{
		lsu r0, r1, r0
		nop
	}
.Ltrap_info21:
	{
		ecallf r0
		nop
	}
	#DEBUG_VALUE: AudioClassRequests_2:ep0_in <- [SP+20]
	#DEBUG_VALUE: AudioClassRequests_2:c_mix_ctl <- [SP+580]
	.loc	1 538 0                 # C:/Users/takaaki/git/sw_xSSDAC/module_usb_audio/endpoint0/audiorequests.xc:538:0
	ldaw r0, dp[volsOut]
	{
		nop
		ld16s r2, r4[r9]
	}
	ldw r3, cp[.LCPI4_2]
	.loc	1 538 0                 # C:/Users/takaaki/git/sw_xSSDAC/module_usb_audio/endpoint0/audiorequests.xc:538:0
	{
		and r3, r2, r3
		zext r2, 8
	}
	.loc	1 538 0                 # C:/Users/takaaki/git/sw_xSSDAC/module_usb_audio/endpoint0/audiorequests.xc:538:0
	{
		or r2, r3, r2
		nop
	}
.Ltmp208:
.LBB4_65:                               # %return
	.loc	1 590 0                 # C:/Users/takaaki/git/sw_xSSDAC/module_usb_audio/endpoint0/audiorequests.xc:590:0
	stw r2, r0[r1]
	{
		ldc r0, 10
		nop
	}
	bu .LBB4_69
.LBB4_57:                               # %iffalse348
.Lxtalabel78:
.Ltmp209:
	#DEBUG_VALUE: AudioClassRequests_2:ep0_out <- R5
	#DEBUG_VALUE: AudioClassRequests_2:ep0_in <- R1
	#DEBUG_VALUE: AudioClassRequests_2:sp <- R6
	#DEBUG_VALUE: AudioClassRequests_2:c_mix_ctl <- [SP+580]
	#DEBUG_VALUE: AudioClassRequests_2:ep0_out <- R11
	{
		mov r0, r10
		mov r11, r5
	}
.Ltmp210:
	bt r4, .LBB4_89
.Ltmp211:
# BB#58:                                # %iftrue385
.Lxtalabel79:
	#DEBUG_VALUE: AudioClassRequests_2:ep0_out <- R11
	#DEBUG_VALUE: AudioClassRequests_2:ep0_in <- R1
	#DEBUG_VALUE: AudioClassRequests_2:sp <- R6
	#DEBUG_VALUE: AudioClassRequests_2:c_mix_ctl <- [SP+580]
	.loc	1 568 0                 # C:/Users/takaaki/git/sw_xSSDAC/module_usb_audio/endpoint0/audiorequests.xc:568:0
	ldc r0, volsIn.globound
.Ltrap_info22:
	{
		ecallf r0
		nop
	}
	#DEBUG_VALUE: AudioClassRequests_2:ep0_out <- R11
	#DEBUG_VALUE: AudioClassRequests_2:ep0_in <- R1
	#DEBUG_VALUE: AudioClassRequests_2:sp <- R6
	#DEBUG_VALUE: AudioClassRequests_2:c_mix_ctl <- [SP+580]
	.loc	1 568 0                 # C:/Users/takaaki/git/sw_xSSDAC/module_usb_audio/endpoint0/audiorequests.xc:568:0
	ldw r0, dp[volsIn]
.Ltmp212:
.LBB4_59:                               # %return
	{
		ldaw r2, sp[8]
		nop
	}
	.loc	1 568 0                 # C:/Users/takaaki/git/sw_xSSDAC/module_usb_audio/endpoint0/audiorequests.xc:568:0
	st8 r0, r2[r9]
	{
		mkmsk r3, 1
		nop
	}
	.loc	1 569 0                 # C:/Users/takaaki/git/sw_xSSDAC/module_usb_audio/endpoint0/audiorequests.xc:569:0
	{
		or r3, r2, r3
		shr r0, r0, 8
	}
	.loc	1 569 0                 # C:/Users/takaaki/git/sw_xSSDAC/module_usb_audio/endpoint0/audiorequests.xc:569:0
	st8 r0, r3[r9]
	.loc	1 570 41                # C:/Users/takaaki/git/sw_xSSDAC/module_usb_audio/endpoint0/audiorequests.xc:570:41
	{
		add r0, r6, 8
		nop
	}
	{
		nop
		ld16s r0, r0[r9]
	}
	.loc	1 570 41                # C:/Users/takaaki/git/sw_xSSDAC/module_usb_audio/endpoint0/audiorequests.xc:570:41
	{
		zext r0, 16
		nop
	}
	{
		nop
		stw r0, sp[1]
	}
	ldc r0, 512
	.loc	1 570 41                # C:/Users/takaaki/git/sw_xSSDAC/module_usb_audio/endpoint0/audiorequests.xc:570:41
	{
		ldc r3, 2
		stw r0, sp[2]
	}
	.loc	1 620 41                # C:/Users/takaaki/git/sw_xSSDAC/module_usb_audio/endpoint0/audiorequests.xc:620:41
	{
		mov r0, r11
		nop
	}
.LBB4_88:                               # %return
	.loc	1 948 29                # C:/Users/takaaki/git/sw_xSSDAC/module_usb_audio/endpoint0/audiorequests.xc:948:29
.Lxta.call_labels15:
	bl XUD_DoGetRequest
.LBB4_89:                               # %return
.Ltmp213:
	#DEBUG_VALUE: AudioClassRequests_2:c_mix_ctl <- [SP+580]
	ldw r10, sp[142]                # 4-byte Folded Reload
	ldw r8, sp[140]                 # 4-byte Folded Reload
	ldw r9, sp[141]                 # 4-byte Folded Reload
	ldw r6, sp[138]                 # 4-byte Folded Reload
	ldw r7, sp[139]                 # 4-byte Folded Reload
	ldw r4, sp[136]                 # 4-byte Folded Reload
	ldw r5, sp[137]                 # 4-byte Folded Reload
	retsp 144
.Ltmp214:
	# RETURN_REG_HOLDER
.LBB4_18:
.Ltmp215:
	#DEBUG_VALUE: AudioClassRequests_2:c_mix_ctl <- [SP+580]
	{
		mov r0, r10
		nop
	}
	bu .LBB4_89
.Ltmp216:
.LBB4_35:                               # %iftrue166
.Lxtalabel80:
	#DEBUG_VALUE: AudioClassRequests_2:ep0_out <- R5
	#DEBUG_VALUE: AudioClassRequests_2:ep0_in <- R11
	#DEBUG_VALUE: AudioClassRequests_2:c_mix_ctl <- [SP+580]
	#DEBUG_VALUE: AudioClassRequests_2:c_clk_ctl <- R3
	#DEBUG_VALUE: AudioClassRequests_2:ep0_in <- R4
	{
		mov r7, r4
		mov r4, r11
	}
.Ltmp217:
	#DEBUG_VALUE: datalength <- [R2+0]
	{
		ldaw r6, sp[8]
		ldaw r2, sp[7]
	}
.Ltmp218:
	{
		mov r8, r3
		nop
	}
.Ltmp219:
	#DEBUG_VALUE: AudioClassRequests_2:c_clk_ctl <- R8
	ldc r3, 512
	.loc	1 480 29                # C:/Users/takaaki/git/sw_xSSDAC/module_usb_audio/endpoint0/audiorequests.xc:480:29
	{
		mov r0, r5
		mov r1, r6
	}
.Lxta.call_labels16:
	bl XUD_GetBuffer
	{
		mov r2, r8
		nop
	}
.Ltmp220:
	#DEBUG_VALUE: AudioClassRequests_2:c_clk_ctl <- R2
	#DEBUG_VALUE: result <- R0
	bt r0, .LBB4_89
.Ltmp221:
# BB#36:                                # %ifdone177
.Lxtalabel81:
	#DEBUG_VALUE: AudioClassRequests_2:ep0_in <- R4
	#DEBUG_VALUE: AudioClassRequests_2:c_mix_ctl <- [SP+580]
	#DEBUG_VALUE: AudioClassRequests_2:c_clk_ctl <- R2
	{
		nop
		ldw r0, sp[7]
	}
	.loc	1 486 29                # C:/Users/takaaki/git/sw_xSSDAC/module_usb_audio/endpoint0/audiorequests.xc:486:29
	{
		eq r1, r0, 1
		mov r0, r10
	}
	bf r1, .LBB4_89
.Ltmp222:
# BB#37:                                # %iftrue184
.Lxtalabel82:
	#DEBUG_VALUE: AudioClassRequests_2:ep0_in <- R4
	#DEBUG_VALUE: AudioClassRequests_2:c_mix_ctl <- [SP+580]
	#DEBUG_VALUE: AudioClassRequests_2:c_clk_ctl <- R2
	bf r2, .LBB4_38
.Ltmp223:
# BB#39:                                # %afternullcheck200
.Lxtalabel83:
	#DEBUG_VALUE: AudioClassRequests_2:ep0_in <- R4
	#DEBUG_VALUE: AudioClassRequests_2:c_mix_ctl <- [SP+580]
	#DEBUG_VALUE: AudioClassRequests_2:c_clk_ctl <- R2
	{
		mkmsk r0, 1
		nop
	}
	.loc	1 490 0                 # C:/Users/takaaki/git/sw_xSSDAC/module_usb_audio/endpoint0/audiorequests.xc:490:0
.Lxta.endpoint_labels10:
	{
		out res[r2], r0
		ld8u r0, r6[r7]
	}
	.loc	1 491 0                 # C:/Users/takaaki/git/sw_xSSDAC/module_usb_audio/endpoint0/audiorequests.xc:491:0
.Lxta.endpoint_labels11:
	{
		out res[r2], r0
		nop
	}
	.loc	1 492 0                 # C:/Users/takaaki/git/sw_xSSDAC/module_usb_audio/endpoint0/audiorequests.xc:492:0
.Lxta.endpoint_labels12:
	{
		outct res[r2], 1
		nop
	}
.Ltmp224:
.LBB4_38:                               # %ifdone191
.Lxtalabel84:
	#DEBUG_VALUE: AudioClassRequests_2:ep0_in <- R4
	#DEBUG_VALUE: AudioClassRequests_2:c_mix_ctl <- [SP+580]
	.loc	1 495 33                # C:/Users/takaaki/git/sw_xSSDAC/module_usb_audio/endpoint0/audiorequests.xc:495:33
	{
		mov r0, r4
		nop
	}
.Lxta.call_labels17:
	bl XUD_DoSetRequestStatus
	bu .LBB4_89
.Ltmp225:
.LBB4_66:                               # %iffalse446
.Lxtalabel85:
	#DEBUG_VALUE: AudioClassRequests_2:ep0_in <- [SP+20]
	#DEBUG_VALUE: AudioClassRequests_2:c_mix_ctl <- [SP+580]
	{
		mov r0, r10
		nop
	}
	bt r1, .LBB4_89
.Ltmp226:
# BB#67:                                # %iftrue474
.Lxtalabel86:
	#DEBUG_VALUE: AudioClassRequests_2:ep0_in <- [SP+20]
	#DEBUG_VALUE: AudioClassRequests_2:c_mix_ctl <- [SP+580]
	.loc	1 599 0                 # C:/Users/takaaki/git/sw_xSSDAC/module_usb_audio/endpoint0/audiorequests.xc:599:0
	ldc r0, mutesIn.globound
.Ltrap_info23:
	{
		ecallf r0
		nop
	}
	#DEBUG_VALUE: AudioClassRequests_2:ep0_in <- [SP+20]
	#DEBUG_VALUE: AudioClassRequests_2:c_mix_ctl <- [SP+580]
	{
		mov r1, r9
		nop
	}
	{
		nop
		ld8u r0, r4[r1]
	}
	.loc	1 599 0                 # C:/Users/takaaki/git/sw_xSSDAC/module_usb_audio/endpoint0/audiorequests.xc:599:0
	stw r0, dp[mutesIn]
	bu .LBB4_68
.Ltmp227:
.LBB4_25:
	#DEBUG_VALUE: AudioClassRequests_2:ep0_in <- R4
	#DEBUG_VALUE: AudioClassRequests_2:c_mix_ctl <- [SP+580]
	ldw r0, cp[.LCPI4_4]
.Ltmp228:
.LBB4_27:                               # %ifdone44
.Lxtalabel87:
	#DEBUG_VALUE: AudioClassRequests_2:ep0_in <- R4
	#DEBUG_VALUE: AudioClassRequests_2:c_mix_ctl <- [SP+580]
	#DEBUG_VALUE: time <- R1
	.loc	1 101 0                 # C:/Users/takaaki/git/sw_xSSDAC/module_usb_audio/endpoint0/audiorequests.xc:101:0
	{
		gettime r1
		get r11, id
	}
.Ltmp229:
	.loc	1 102 0                 # C:/Users/takaaki/git/sw_xSSDAC/module_usb_audio/endpoint0/audiorequests.xc:102:0
	ldaw r2, dp[__timers]
	.loc	1 102 0                 # C:/Users/takaaki/git/sw_xSSDAC/module_usb_audio/endpoint0/audiorequests.xc:102:0
	{
		add r0, r0, r1
		ldw r2, r2[r11]
	}
	.loc	1 102 0                 # C:/Users/takaaki/git/sw_xSSDAC/module_usb_audio/endpoint0/audiorequests.xc:102:0
	{
		setd res[r2], r0
		nop
	}
	.loc	1 102 0                 # C:/Users/takaaki/git/sw_xSSDAC/module_usb_audio/endpoint0/audiorequests.xc:102:0
	{
		setc res[r2], 9
		nop
	}
	.loc	1 102 0                 # C:/Users/takaaki/git/sw_xSSDAC/module_usb_audio/endpoint0/audiorequests.xc:102:0
.Ltmp230:
.Lxta.endpoint_labels13:
	{
		in r0, res[r2]
		nop
	}
.Ltmp231:
.LBB4_28:                               # %ifdone26
.Lxtalabel88:
	#DEBUG_VALUE: AudioClassRequests_2:ep0_in <- R4
	#DEBUG_VALUE: AudioClassRequests_2:c_mix_ctl <- [SP+580]
	.loc	1 374 0                 # C:/Users/takaaki/git/sw_xSSDAC/module_usb_audio/endpoint0/audiorequests.xc:374:0
	{
		mov r0, r4
		nop
	}
.Lxta.call_labels18:
	bl XUD_DoSetRequestStatus
	{
		mov r0, r10
		nop
	}
	bu .LBB4_89
.Ltmp232:
.LBB4_52:                               # %iffalse281
.Lxtalabel89:
	#DEBUG_VALUE: AudioClassRequests_2:ep0_in <- [SP+20]
	#DEBUG_VALUE: AudioClassRequests_2:c_mix_ctl <- [SP+580]
	{
		mov r0, r10
		nop
	}
	bt r1, .LBB4_89
.Ltmp233:
# BB#53:                                # %iftrue311
.Lxtalabel90:
	#DEBUG_VALUE: AudioClassRequests_2:ep0_in <- [SP+20]
	#DEBUG_VALUE: AudioClassRequests_2:c_mix_ctl <- [SP+580]
	.loc	1 547 0                 # C:/Users/takaaki/git/sw_xSSDAC/module_usb_audio/endpoint0/audiorequests.xc:547:0
	ldc r0, volsIn.globound
.Ltrap_info24:
	{
		ecallf r0
		nop
	}
	#DEBUG_VALUE: AudioClassRequests_2:ep0_in <- [SP+20]
	#DEBUG_VALUE: AudioClassRequests_2:c_mix_ctl <- [SP+580]
	{
		mov r1, r9
		nop
	}
	{
		nop
		ld16s r0, r4[r1]
	}
	ldw r2, cp[.LCPI4_2]
	.loc	1 547 0                 # C:/Users/takaaki/git/sw_xSSDAC/module_usb_audio/endpoint0/audiorequests.xc:547:0
	{
		and r2, r0, r2
		zext r0, 8
	}
	.loc	1 547 0                 # C:/Users/takaaki/git/sw_xSSDAC/module_usb_audio/endpoint0/audiorequests.xc:547:0
	{
		or r0, r2, r0
		nop
	}
	.loc	1 547 0                 # C:/Users/takaaki/git/sw_xSSDAC/module_usb_audio/endpoint0/audiorequests.xc:547:0
	stw r0, dp[volsIn]
.Ltmp234:
.LBB4_68:                               # %return
	.loc	1 600 0                 # C:/Users/takaaki/git/sw_xSSDAC/module_usb_audio/endpoint0/audiorequests.xc:600:0
	{
		mov r0, r8
		nop
	}
.LBB4_69:                               # %return
.Lxta.call_labels19:
	bl updateVol
	{
		nop
		ldw r0, sp[5]
	}
	.loc	1 601 41                # C:/Users/takaaki/git/sw_xSSDAC/module_usb_audio/endpoint0/audiorequests.xc:601:41
.Lxta.call_labels20:
	bl XUD_DoSetRequestStatus
	bu .LBB4_89
.Ltmp235:
	.cc_bottom AudioClassRequests_2.function
	.set	AudioClassRequests_2.nstackwords,((storeFreq.nstackwords $M XUD_DoGetRequest.nstackwords $M updateVol.nstackwords $M XUD_GetBuffer.nstackwords $M XUD_DoSetRequestStatus.nstackwords) + 144)
	.globl	AudioClassRequests_2.nstackwords
	.set	AudioClassRequests_2.maxcores,XUD_DoGetRequest.maxcores $M XUD_DoSetRequestStatus.maxcores $M XUD_GetBuffer.maxcores $M storeFreq.maxcores $M updateVol.maxcores $M 1
	.globl	AudioClassRequests_2.maxcores
	.set	AudioClassRequests_2.maxtimers,XUD_DoGetRequest.maxtimers $M XUD_DoSetRequestStatus.maxtimers $M XUD_GetBuffer.maxtimers $M storeFreq.maxtimers $M updateVol.maxtimers $M 0
	.globl	AudioClassRequests_2.maxtimers
	.set	AudioClassRequests_2.maxchanends,XUD_DoGetRequest.maxchanends $M XUD_DoSetRequestStatus.maxchanends $M XUD_GetBuffer.maxchanends $M storeFreq.maxchanends $M updateVol.maxchanends $M 0
	.globl	AudioClassRequests_2.maxchanends
.Ltmp236:
	.size	AudioClassRequests_2, .Ltmp236-AudioClassRequests_2
.Lfunc_end4:
	.cfi_endproc

	.section	.cp.rodata.cst4,"aMc",@progbits,4
	.cc_top .LCPI5_0.data,.LCPI5_0
	.align	4
	.type	.LCPI5_0,@object
	.size	.LCPI5_0, 4
.LCPI5_0:
	.long	24576000                # 0x1770000
	.cc_bottom .LCPI5_0.data
	.cc_top .LCPI5_1.data,.LCPI5_1
	.align	4
	.type	.LCPI5_1,@object
	.size	.LCPI5_1, 4
.LCPI5_1:
	.long	22579200                # 0x1588800
	.cc_bottom .LCPI5_1.data
	.cc_top .LCPI5_2.data,.LCPI5_2
	.align	4
	.type	.LCPI5_2,@object
	.size	.LCPI5_2, 4
.LCPI5_2:
	.long	20000000                # 0x1312d00
	.cc_bottom .LCPI5_2.data
	.cc_top .LCPI5_3.data,.LCPI5_3
	.align	4
	.type	.LCPI5_3,@object
	.size	.LCPI5_3, 4
.LCPI5_3:
	.long	2000000                 # 0x1e8480
	.cc_bottom .LCPI5_3.data
	.text
	.globl	AudioEndpointRequests_1
	.align	4
	.type	AudioEndpointRequests_1,@function
	.cc_top AudioEndpointRequests_1.function,AudioEndpointRequests_1
AudioEndpointRequests_1:                # @AudioEndpointRequests_1
.Lfunc_begin5:
	.loc	1 1071 0                # C:/Users/takaaki/git/sw_xSSDAC/module_usb_audio/endpoint0/audiorequests.xc:1071:0
	.cfi_startproc
	.issue_mode dual
# BB#0:                                 # %allocas
.Lxtalabel91:
	DUALENTSP_lu6 266
.Ltmp237:
	.cfi_def_cfa_offset 1064
.Ltmp238:
	.cfi_offset 15, 0
	stw r4, sp[260]                 # 4-byte Folded Spill
	stw r5, sp[261]                 # 4-byte Folded Spill
.Ltmp239:
	.cfi_offset 4, -24
.Ltmp240:
	.cfi_offset 5, -20
	stw r6, sp[262]                 # 4-byte Folded Spill
	stw r7, sp[263]                 # 4-byte Folded Spill
.Ltmp241:
	.cfi_offset 6, -16
.Ltmp242:
	.cfi_offset 7, -12
	stw r8, sp[264]                 # 4-byte Folded Spill
.Ltmp243:
	.cfi_offset 8, -8
	#DEBUG_VALUE: AudioEndpointRequests_1:ep0_out <- R0
	#DEBUG_VALUE: AudioEndpointRequests_1:ep0_in <- R1
	#DEBUG_VALUE: AudioEndpointRequests_1:sp <- R2
	#DEBUG_VALUE: AudioEndpointRequests_1:c_audioControl <- R3
	#DEBUG_VALUE: AudioEndpointRequests_1:c_mix_ctl <- [SP+1068]
	#DEBUG_VALUE: AudioEndpointRequests_1:c_clk_ctl <- [SP+1072]
.Ltmp244:
	#DEBUG_VALUE: AudioEndpointRequests_1:c_audioControl <- R5
	#DEBUG_VALUE: AudioEndpointRequests_1:sp <- R7
	{
		mov r5, r3
		mov r7, r2
	}
.Ltmp245:
	#DEBUG_VALUE: AudioEndpointRequests_1:ep0_in <- R4
	{
		mov r4, r1
		ldc r1, 2
	}
.Ltmp246:
	.loc	1 1083 5 prologue_end   # C:/Users/takaaki/git/sw_xSSDAC/module_usb_audio/endpoint0/audiorequests.xc:1083:5
	{
		mkmsk r1, 2
		ld8u r2, r7[r1]
	}
	{
		nop
		ld8u r1, r7[r1]
	}
	.loc	1 1083 5                # C:/Users/takaaki/git/sw_xSSDAC/module_usb_audio/endpoint0/audiorequests.xc:1083:5
	bf r2, .LBB5_1
.Ltmp247:
# BB#9:                                 # %iffalse
.Lxtalabel92:
	#DEBUG_VALUE: AudioEndpointRequests_1:ep0_out <- R0
	#DEBUG_VALUE: AudioEndpointRequests_1:ep0_in <- R4
	#DEBUG_VALUE: AudioEndpointRequests_1:sp <- R7
	#DEBUG_VALUE: AudioEndpointRequests_1:c_mix_ctl <- [SP+1068]
	#DEBUG_VALUE: AudioEndpointRequests_1:c_clk_ctl <- [SP+1072]
	ldc r2, 129
	.loc	1 1156 0                # C:/Users/takaaki/git/sw_xSSDAC/module_usb_audio/endpoint0/audiorequests.xc:1156:0
	{
		eq r1, r1, r2
		nop
	}
	.loc	1 1156 0                # C:/Users/takaaki/git/sw_xSSDAC/module_usb_audio/endpoint0/audiorequests.xc:1156:0
	bf r1, .LBB5_10
.Ltmp248:
# BB#15:                                # %switchcase74
.Lxtalabel93:
	#DEBUG_VALUE: AudioEndpointRequests_1:ep0_out <- R0
	#DEBUG_VALUE: AudioEndpointRequests_1:ep0_in <- R4
	#DEBUG_VALUE: AudioEndpointRequests_1:sp <- R7
	#DEBUG_VALUE: AudioEndpointRequests_1:c_mix_ctl <- [SP+1068]
	#DEBUG_VALUE: AudioEndpointRequests_1:c_clk_ctl <- [SP+1072]
	.loc	1 1159 0                # C:/Users/takaaki/git/sw_xSSDAC/module_usb_audio/endpoint0/audiorequests.xc:1159:0
	ldw r1, dp[g_curSamFreq]
	.loc	1 1159 0                # C:/Users/takaaki/git/sw_xSSDAC/module_usb_audio/endpoint0/audiorequests.xc:1159:0
	{
		add r1, r7, 8
		stw r1, sp[4]
	}
	.loc	1 1160 17               # C:/Users/takaaki/git/sw_xSSDAC/module_usb_audio/endpoint0/audiorequests.xc:1160:17
	{
		ldc r2, 0
		nop
	}
	{
		nop
		ld16s r1, r1[r2]
	}
	{
		zext r1, 16
		nop
	}
	{
		nop
		stw r1, sp[1]
	}
	ldc r1, 1024
	.loc	1 1160 17               # C:/Users/takaaki/git/sw_xSSDAC/module_usb_audio/endpoint0/audiorequests.xc:1160:17
	{
		ldaw r2, sp[4]
		stw r1, sp[2]
	}
	{
		mkmsk r3, 2
		mov r1, r4
	}
.Lxta.call_labels21:
	bl XUD_DoGetRequest
.Ltmp249:
.LBB5_16:                               # %return
	{
		mov r6, r0
		nop
	}
	bu .LBB5_17
.LBB5_1:                                # %iftrue
.Lxtalabel94:
.Ltmp250:
	#DEBUG_VALUE: AudioEndpointRequests_1:ep0_out <- R0
	#DEBUG_VALUE: AudioEndpointRequests_1:ep0_in <- R4
	#DEBUG_VALUE: AudioEndpointRequests_1:sp <- R7
	#DEBUG_VALUE: AudioEndpointRequests_1:c_audioControl <- R5
	#DEBUG_VALUE: AudioEndpointRequests_1:c_mix_ctl <- [SP+1068]
	#DEBUG_VALUE: AudioEndpointRequests_1:c_clk_ctl <- [SP+1072]
	.loc	1 1086 0                # C:/Users/takaaki/git/sw_xSSDAC/module_usb_audio/endpoint0/audiorequests.xc:1086:0
	{
		eq r1, r1, 1
		mkmsk r6, 1
	}
	bf r1, .LBB5_17
.Ltmp251:
# BB#2:                                 # %switchcase
.Lxtalabel95:
	#DEBUG_VALUE: AudioEndpointRequests_1:ep0_out <- R0
	#DEBUG_VALUE: AudioEndpointRequests_1:ep0_in <- R4
	#DEBUG_VALUE: AudioEndpointRequests_1:sp <- R7
	#DEBUG_VALUE: AudioEndpointRequests_1:c_audioControl <- R5
	#DEBUG_VALUE: AudioEndpointRequests_1:c_mix_ctl <- [SP+1068]
	#DEBUG_VALUE: AudioEndpointRequests_1:c_clk_ctl <- [SP+1072]
	{
		ldc r1, 5
		nop
	}
	.loc	1 1091 0                # C:/Users/takaaki/git/sw_xSSDAC/module_usb_audio/endpoint0/audiorequests.xc:1091:0
.Ltmp252:
	{
		ldaw r1, sp[4]
		ld8u r8, r7[r1]
	}
	{
		ldaw r2, sp[3]
		nop
	}
.Ltmp253:
	#DEBUG_VALUE: length <- [R2+0]
	ldc r3, 1024
	.loc	1 1093 17               # C:/Users/takaaki/git/sw_xSSDAC/module_usb_audio/endpoint0/audiorequests.xc:1093:17
.Lxta.call_labels22:
	bl XUD_GetBuffer
.Ltmp254:
	.loc	1 1098 17               # C:/Users/takaaki/git/sw_xSSDAC/module_usb_audio/endpoint0/audiorequests.xc:1098:17
	{
		eq r0, r8, 1
		nop
	}
	bf r0, .LBB5_17
.Ltmp255:
# BB#3:                                 # %iftrue15
.Lxtalabel96:
	#DEBUG_VALUE: AudioEndpointRequests_1:ep0_in <- R4
	#DEBUG_VALUE: AudioEndpointRequests_1:sp <- R7
	#DEBUG_VALUE: AudioEndpointRequests_1:c_audioControl <- R5
	#DEBUG_VALUE: AudioEndpointRequests_1:c_mix_ctl <- [SP+1068]
	#DEBUG_VALUE: AudioEndpointRequests_1:c_clk_ctl <- [SP+1072]
	.loc	1 1101 21               # C:/Users/takaaki/git/sw_xSSDAC/module_usb_audio/endpoint0/audiorequests.xc:1101:21
	{
		add r0, r7, 8
		ldc r1, 0
	}
	{
		nop
		ld16s r0, r0[r1]
	}
	.loc	1 1101 21               # C:/Users/takaaki/git/sw_xSSDAC/module_usb_audio/endpoint0/audiorequests.xc:1101:21
	{
		zext r0, 16
		nop
	}
	.loc	1 1101 21               # C:/Users/takaaki/git/sw_xSSDAC/module_usb_audio/endpoint0/audiorequests.xc:1101:21
	{
		eq r0, r0, 3
		nop
	}
	bf r0, .LBB5_17
.Ltmp256:
# BB#4:                                 # %iftrue15
.Lxtalabel97:
	#DEBUG_VALUE: AudioEndpointRequests_1:ep0_in <- R4
	#DEBUG_VALUE: AudioEndpointRequests_1:c_audioControl <- R5
	#DEBUG_VALUE: AudioEndpointRequests_1:c_mix_ctl <- [SP+1068]
	#DEBUG_VALUE: AudioEndpointRequests_1:c_clk_ctl <- [SP+1072]
	{
		nop
		ldw r0, sp[3]
	}
	{
		eq r0, r0, 3
		nop
	}
	bf r0, .LBB5_17
.Ltmp257:
# BB#5:                                 # %iftrue21
.Lxtalabel98:
	#DEBUG_VALUE: AudioEndpointRequests_1:ep0_in <- R4
	#DEBUG_VALUE: AudioEndpointRequests_1:c_audioControl <- R5
	#DEBUG_VALUE: AudioEndpointRequests_1:c_mix_ctl <- [SP+1068]
	#DEBUG_VALUE: AudioEndpointRequests_1:c_clk_ctl <- [SP+1072]
	{
		nop
		ldw r0, sp[4]
	}
	.loc	1 1104 0                # C:/Users/takaaki/git/sw_xSSDAC/module_usb_audio/endpoint0/audiorequests.xc:1104:0
.Ltmp258:
	{
		zext r0, 24
		nop
	}
.Ltmp259:
	#DEBUG_VALUE: newSampleRate <- R0
	.loc	1 1106 25               # C:/Users/takaaki/git/sw_xSSDAC/module_usb_audio/endpoint0/audiorequests.xc:1106:25
	ldw r1, dp[g_curSamFreq]
	.loc	1 1106 25               # C:/Users/takaaki/git/sw_xSSDAC/module_usb_audio/endpoint0/audiorequests.xc:1106:25
	{
		eq r1, r0, r1
		nop
	}
	bt r1, .LBB5_8
.Ltmp260:
# BB#6:                                 # %iftrue41
.Lxtalabel99:
	#DEBUG_VALUE: AudioEndpointRequests_1:ep0_in <- R4
	#DEBUG_VALUE: AudioEndpointRequests_1:c_audioControl <- R5
	#DEBUG_VALUE: AudioEndpointRequests_1:c_mix_ctl <- [SP+1068]
	#DEBUG_VALUE: AudioEndpointRequests_1:c_clk_ctl <- [SP+1072]
	#DEBUG_VALUE: newSampleRate <- R0
	ldw r1, cp[.LCPI5_0]
	.loc	1 1113 0                # C:/Users/takaaki/git/sw_xSSDAC/module_usb_audio/endpoint0/audiorequests.xc:1113:0
.Ltmp261:
	remu r2, r1, r0
	ldw r1, cp[.LCPI5_1]
	.loc	1 1114 0                # C:/Users/takaaki/git/sw_xSSDAC/module_usb_audio/endpoint0/audiorequests.xc:1114:0
	remu r1, r1, r0
	bf r2, .LBB5_11
.Ltmp262:
# BB#7:                                 # %iftrue41
.Lxtalabel100:
	#DEBUG_VALUE: AudioEndpointRequests_1:ep0_in <- R4
	#DEBUG_VALUE: AudioEndpointRequests_1:c_audioControl <- R5
	#DEBUG_VALUE: AudioEndpointRequests_1:c_mix_ctl <- [SP+1068]
	#DEBUG_VALUE: AudioEndpointRequests_1:c_clk_ctl <- [SP+1072]
	bt r1, .LBB5_8
.Ltmp263:
.LBB5_11:                               # %iftrue54
.Lxtalabel101:
	#DEBUG_VALUE: AudioEndpointRequests_1:ep0_in <- R4
	#DEBUG_VALUE: AudioEndpointRequests_1:c_audioControl <- R5
	#DEBUG_VALUE: AudioEndpointRequests_1:c_mix_ctl <- [SP+1068]
	#DEBUG_VALUE: AudioEndpointRequests_1:c_clk_ctl <- [SP+1072]
	#DEBUG_VALUE: newSampleRate <- R0
	.loc	1 1118 0                # C:/Users/takaaki/git/sw_xSSDAC/module_usb_audio/endpoint0/audiorequests.xc:1118:0
	stw r0, dp[g_curSamFreq]
	{
		ldc r1, 4
		nop
	}
	.loc	1 1137 0                # C:/Users/takaaki/git/sw_xSSDAC/module_usb_audio/endpoint0/audiorequests.xc:1137:0
.Lxta.endpoint_labels14:
	{
		out res[r5], r1
		nop
	}
	.loc	1 1138 0                # C:/Users/takaaki/git/sw_xSSDAC/module_usb_audio/endpoint0/audiorequests.xc:1138:0
.Lxta.endpoint_labels15:
	{
		out res[r5], r0
		nop
	}
	.loc	1 1141 0                # C:/Users/takaaki/git/sw_xSSDAC/module_usb_audio/endpoint0/audiorequests.xc:1141:0
	{
		chkct res[r5], 1
		nop
	}
	.loc	1 90 0                  # C:/Users/takaaki/git/sw_xSSDAC/module_usb_audio/endpoint0/audiorequests.xc:90:0
.Ltmp264:
	#APP
	ldw   r0, dp[g_curUsbSpeed]
	#NO_APP
.Ltmp265:
	#DEBUG_VALUE: usbSpeed <- R0
	.loc	1 92 5                  # C:/Users/takaaki/git/sw_xSSDAC/module_usb_audio/endpoint0/audiorequests.xc:92:5
	{
		eq r0, r0, 2
		nop
	}
.Ltmp266:
	.loc	1 94 0                  # C:/Users/takaaki/git/sw_xSSDAC/module_usb_audio/endpoint0/audiorequests.xc:94:0
	bt r0, .LBB5_12
.Ltmp267:
# BB#13:                                # %iftrue54
.Lxtalabel102:
	#DEBUG_VALUE: AudioEndpointRequests_1:ep0_in <- R4
	#DEBUG_VALUE: AudioEndpointRequests_1:c_mix_ctl <- [SP+1068]
	#DEBUG_VALUE: AudioEndpointRequests_1:c_clk_ctl <- [SP+1072]
	ldw r0, cp[.LCPI5_2]
	bu .LBB5_14
.Ltmp268:
.LBB5_10:
	#DEBUG_VALUE: AudioEndpointRequests_1:c_mix_ctl <- [SP+1068]
	#DEBUG_VALUE: AudioEndpointRequests_1:c_clk_ctl <- [SP+1072]
	{
		mkmsk r6, 1
		nop
	}
.Ltmp269:
.LBB5_17:                               # %return
	#DEBUG_VALUE: AudioEndpointRequests_1:c_mix_ctl <- [SP+1068]
	#DEBUG_VALUE: AudioEndpointRequests_1:c_clk_ctl <- [SP+1072]
	{
		mov r0, r6
		nop
	}
	ldw r8, sp[264]                 # 4-byte Folded Reload
	ldw r6, sp[262]                 # 4-byte Folded Reload
	ldw r7, sp[263]                 # 4-byte Folded Reload
	ldw r4, sp[260]                 # 4-byte Folded Reload
	ldw r5, sp[261]                 # 4-byte Folded Reload
	retsp 266
.Ltmp270:
	# RETURN_REG_HOLDER
.LBB5_12:
.Ltmp271:
	#DEBUG_VALUE: AudioEndpointRequests_1:ep0_in <- R4
	#DEBUG_VALUE: AudioEndpointRequests_1:c_mix_ctl <- [SP+1068]
	#DEBUG_VALUE: AudioEndpointRequests_1:c_clk_ctl <- [SP+1072]
	ldw r0, cp[.LCPI5_3]
.Ltmp272:
.LBB5_14:                               # %iftrue54
.Lxtalabel103:
	#DEBUG_VALUE: AudioEndpointRequests_1:ep0_in <- R4
	#DEBUG_VALUE: AudioEndpointRequests_1:c_mix_ctl <- [SP+1068]
	#DEBUG_VALUE: AudioEndpointRequests_1:c_clk_ctl <- [SP+1072]
	#DEBUG_VALUE: time <- R1
	.loc	1 101 0                 # C:/Users/takaaki/git/sw_xSSDAC/module_usb_audio/endpoint0/audiorequests.xc:101:0
	{
		gettime r1
		get r11, id
	}
.Ltmp273:
	.loc	1 102 0                 # C:/Users/takaaki/git/sw_xSSDAC/module_usb_audio/endpoint0/audiorequests.xc:102:0
	ldaw r2, dp[__timers]
	.loc	1 102 0                 # C:/Users/takaaki/git/sw_xSSDAC/module_usb_audio/endpoint0/audiorequests.xc:102:0
	{
		add r0, r0, r1
		ldw r2, r2[r11]
	}
	.loc	1 102 0                 # C:/Users/takaaki/git/sw_xSSDAC/module_usb_audio/endpoint0/audiorequests.xc:102:0
	{
		setd res[r2], r0
		nop
	}
	.loc	1 102 0                 # C:/Users/takaaki/git/sw_xSSDAC/module_usb_audio/endpoint0/audiorequests.xc:102:0
	{
		setc res[r2], 9
		nop
	}
	.loc	1 102 0                 # C:/Users/takaaki/git/sw_xSSDAC/module_usb_audio/endpoint0/audiorequests.xc:102:0
.Ltmp274:
.Lxta.endpoint_labels16:
	{
		in r0, res[r2]
		nop
	}
.Ltmp275:
.LBB5_8:                                # %ifdone42
.Lxtalabel104:
	#DEBUG_VALUE: AudioEndpointRequests_1:ep0_in <- R4
	#DEBUG_VALUE: AudioEndpointRequests_1:c_mix_ctl <- [SP+1068]
	#DEBUG_VALUE: AudioEndpointRequests_1:c_clk_ctl <- [SP+1072]
	{
		ldaw r1, sp[4]
		nop
	}
	ldc r2, 1024
	.loc	1 1147 25               # C:/Users/takaaki/git/sw_xSSDAC/module_usb_audio/endpoint0/audiorequests.xc:1147:25
	{
		mov r0, r4
		nop
	}
.Lxta.call_labels23:
	bl _SXUD_SetBuffer_0
	bu .LBB5_16
.Ltmp276:
	.cc_bottom AudioEndpointRequests_1.function
	.set	AudioEndpointRequests_1.nstackwords,((XUD_GetBuffer.nstackwords $M _SXUD_SetBuffer_0.nstackwords $M XUD_DoGetRequest.nstackwords) + 266)
	.globl	AudioEndpointRequests_1.nstackwords
	.set	AudioEndpointRequests_1.maxcores,XUD_DoGetRequest.maxcores $M XUD_GetBuffer.maxcores $M _SXUD_SetBuffer_0.maxcores $M 1
	.globl	AudioEndpointRequests_1.maxcores
	.set	AudioEndpointRequests_1.maxtimers,XUD_DoGetRequest.maxtimers $M XUD_GetBuffer.maxtimers $M _SXUD_SetBuffer_0.maxtimers $M 0
	.globl	AudioEndpointRequests_1.maxtimers
	.set	AudioEndpointRequests_1.maxchanends,XUD_DoGetRequest.maxchanends $M XUD_GetBuffer.maxchanends $M _SXUD_SetBuffer_0.maxchanends $M 0
	.globl	AudioEndpointRequests_1.maxchanends
.Ltmp277:
	.size	AudioEndpointRequests_1, .Ltmp277-AudioEndpointRequests_1
.Lfunc_end5:
	.cfi_endproc

	.section	.cp.rodata.cst4,"aMc",@progbits,4
	.cc_top .LCPI6_0.data,.LCPI6_0
	.align	4
	.type	.LCPI6_0,@object
	.size	.LCPI6_0, 4
.LCPI6_0:
	.long	4294967167              # 0xffffff7f
	.cc_bottom .LCPI6_0.data
	.cc_top .LCPI6_1.data,.LCPI6_1
	.align	4
	.type	.LCPI6_1,@object
	.size	.LCPI6_1, 4
.LCPI6_1:
	.long	4294967040              # 0xffffff00
	.cc_bottom .LCPI6_1.data
	.text
	.globl	AudioClassRequests_1
	.align	4
	.type	AudioClassRequests_1,@function
	.cc_top AudioClassRequests_1.function,AudioClassRequests_1
AudioClassRequests_1:                   # @AudioClassRequests_1
.Lfunc_begin6:
	.loc	1 1173 0                # C:/Users/takaaki/git/sw_xSSDAC/module_usb_audio/endpoint0/audiorequests.xc:1173:0
	.cfi_startproc
	.issue_mode dual
# BB#0:                                 # %allocas
.Lxtalabel105:
	DUALENTSP_lu6 264
.Ltmp278:
	.cfi_def_cfa_offset 1056
.Ltmp279:
	.cfi_offset 15, 0
	stw r4, sp[260]                 # 4-byte Folded Spill
	stw r5, sp[261]                 # 4-byte Folded Spill
.Ltmp280:
	.cfi_offset 4, -16
.Ltmp281:
	.cfi_offset 5, -12
	stw r6, sp[262]                 # 4-byte Folded Spill
	stw r7, sp[263]                 # 4-byte Folded Spill
.Ltmp282:
	.cfi_offset 6, -8
.Ltmp283:
	.cfi_offset 7, -4
	#DEBUG_VALUE: AudioClassRequests_1:ep0_out <- R0
	#DEBUG_VALUE: AudioClassRequests_1:ep0_in <- R1
	#DEBUG_VALUE: AudioClassRequests_1:sp <- R2
	#DEBUG_VALUE: AudioClassRequests_1:c_audioControl <- R3
	#DEBUG_VALUE: AudioClassRequests_1:c_mix_ctl <- [SP+1060]
	#DEBUG_VALUE: AudioClassRequests_1:c_clk_ctl <- [SP+1064]
.Ltmp284:
	#DEBUG_VALUE: AudioClassRequests_1:sp <- R5
	#DEBUG_VALUE: AudioClassRequests_1:ep0_in <- R4
	{
		mov r5, r2
		mov r4, r1
	}
.Ltmp285:
	{
		mkmsk r1, 2
		nop
	}
	.loc	1 1180 0 prologue_end   # C:/Users/takaaki/git/sw_xSSDAC/module_usb_audio/endpoint0/audiorequests.xc:1180:0
.Ltmp286:
	{
		mkmsk r7, 1
		ld8u r2, r5[r1]
	}
	ldc r3, 128
.Ltmp287:
	.loc	1 1180 0                # C:/Users/takaaki/git/sw_xSSDAC/module_usb_audio/endpoint0/audiorequests.xc:1180:0
	{
		lss r3, r3, r2
		nop
	}
	bt r3, .LBB6_3
.Ltmp288:
# BB#1:                                 # %allocas
.Lxtalabel106:
	#DEBUG_VALUE: AudioClassRequests_1:ep0_out <- R0
	#DEBUG_VALUE: AudioClassRequests_1:ep0_in <- R4
	#DEBUG_VALUE: AudioClassRequests_1:sp <- R5
	#DEBUG_VALUE: AudioClassRequests_1:c_audioControl <- R3
	#DEBUG_VALUE: AudioClassRequests_1:c_mix_ctl <- [SP+1060]
	#DEBUG_VALUE: AudioClassRequests_1:c_clk_ctl <- [SP+1064]
	{
		eq r1, r2, 1
		nop
	}
	bf r1, .LBB6_2
.Ltmp289:
# BB#9:                                 # %switchcase
.Lxtalabel107:
	#DEBUG_VALUE: AudioClassRequests_1:ep0_out <- R0
	#DEBUG_VALUE: AudioClassRequests_1:ep0_in <- R4
	#DEBUG_VALUE: AudioClassRequests_1:sp <- R5
	#DEBUG_VALUE: AudioClassRequests_1:c_audioControl <- R3
	#DEBUG_VALUE: AudioClassRequests_1:c_mix_ctl <- [SP+1060]
	#DEBUG_VALUE: AudioClassRequests_1:c_clk_ctl <- [SP+1064]
	#DEBUG_VALUE: datalength <- [R2+0]
	{
		ldaw r6, sp[4]
		ldaw r2, sp[3]
	}
.Ltmp290:
	ldc r3, 1024
.Ltmp291:
	.loc	1 1186 13               # C:/Users/takaaki/git/sw_xSSDAC/module_usb_audio/endpoint0/audiorequests.xc:1186:13
	{
		mov r1, r6
		nop
	}
.Lxta.call_labels24:
	bl XUD_GetBuffer
.Ltmp292:
	{
		mov r2, r0
		nop
	}
.Ltmp293:
	#DEBUG_VALUE: result <- R2
	bt r2, .LBB6_45
.Ltmp294:
# BB#10:                                # %ifdone
.Lxtalabel108:
	#DEBUG_VALUE: AudioClassRequests_1:ep0_in <- R4
	#DEBUG_VALUE: AudioClassRequests_1:sp <- R5
	#DEBUG_VALUE: AudioClassRequests_1:c_audioControl <- R3
	#DEBUG_VALUE: AudioClassRequests_1:c_mix_ctl <- [SP+1060]
	#DEBUG_VALUE: AudioClassRequests_1:c_clk_ctl <- [SP+1064]
	.loc	1 1191 0                # C:/Users/takaaki/git/sw_xSSDAC/module_usb_audio/endpoint0/audiorequests.xc:1191:0
	{
		add r1, r5, 6
		ldc r0, 0
	}
	{
		nop
		ld16s r1, r1[r0]
	}
	ldc r2, 65280
	.loc	1 1191 0                # C:/Users/takaaki/git/sw_xSSDAC/module_usb_audio/endpoint0/audiorequests.xc:1191:0
	{
		and r1, r1, r2
		nop
	}
.Ltmp295:
	#DEBUG_VALUE: unitID <- R2
	.loc	1 1191 0                # C:/Users/takaaki/git/sw_xSSDAC/module_usb_audio/endpoint0/audiorequests.xc:1191:0
	{
		shr r2, r1, 8
		add r1, r5, 4
	}
.Ltmp296:
	{
		nop
		ld16s r1, r1[r0]
	}
	.loc	1 1193 0                # C:/Users/takaaki/git/sw_xSSDAC/module_usb_audio/endpoint0/audiorequests.xc:1193:0
	{
		zext r1, 16
		nop
	}
	.loc	1 1193 0                # C:/Users/takaaki/git/sw_xSSDAC/module_usb_audio/endpoint0/audiorequests.xc:1193:0
	{
		shr r3, r1, 8
		nop
	}
.Ltmp297:
	.loc	1 1193 0                # C:/Users/takaaki/git/sw_xSSDAC/module_usb_audio/endpoint0/audiorequests.xc:1193:0
	{
		eq r11, r3, 1
		nop
	}
	bf r11, .LBB6_11
.Ltmp298:
# BB#15:                                # %switchcase12
.Lxtalabel109:
	#DEBUG_VALUE: AudioClassRequests_1:ep0_in <- R4
	#DEBUG_VALUE: AudioClassRequests_1:c_audioControl <- R3
	#DEBUG_VALUE: AudioClassRequests_1:c_mix_ctl <- [SP+1060]
	#DEBUG_VALUE: AudioClassRequests_1:c_clk_ctl <- [SP+1064]
	#DEBUG_VALUE: unitID <- R2
	{
		nop
		ldw r3, sp[3]
	}
.Ltmp299:
	.loc	1 1216 21               # C:/Users/takaaki/git/sw_xSSDAC/module_usb_audio/endpoint0/audiorequests.xc:1216:21
	{
		eq r3, r3, 1
		nop
	}
	.loc	1 1216 21               # C:/Users/takaaki/git/sw_xSSDAC/module_usb_audio/endpoint0/audiorequests.xc:1216:21
	bf r3, .LBB6_16
.Ltmp300:
# BB#21:                                # %iftrue60
.Lxtalabel110:
	#DEBUG_VALUE: AudioClassRequests_1:ep0_in <- R4
	#DEBUG_VALUE: AudioClassRequests_1:c_audioControl <- R3
	#DEBUG_VALUE: AudioClassRequests_1:c_mix_ctl <- [SP+1060]
	#DEBUG_VALUE: AudioClassRequests_1:c_clk_ctl <- [SP+1064]
	#DEBUG_VALUE: unitID <- R2
	.loc	1 1218 0                # C:/Users/takaaki/git/sw_xSSDAC/module_usb_audio/endpoint0/audiorequests.xc:1218:0
	{
		eq r3, r2, 11
		nop
	}
.Ltmp301:
	bf r3, .LBB6_22
.Ltmp302:
# BB#26:                                # %switchcase70
.Lxtalabel111:
	#DEBUG_VALUE: AudioClassRequests_1:ep0_in <- R4
	#DEBUG_VALUE: AudioClassRequests_1:c_audioControl <- R3
	#DEBUG_VALUE: AudioClassRequests_1:c_mix_ctl <- [SP+1060]
	#DEBUG_VALUE: AudioClassRequests_1:c_clk_ctl <- [SP+1064]
	.loc	1 1226 0                # C:/Users/takaaki/git/sw_xSSDAC/module_usb_audio/endpoint0/audiorequests.xc:1226:0
	ldc r2, mutesIn.globound
	.loc	1 1226 0                # C:/Users/takaaki/git/sw_xSSDAC/module_usb_audio/endpoint0/audiorequests.xc:1226:0
	{
		zext r1, 8
		nop
	}
	.loc	1 1226 0                # C:/Users/takaaki/git/sw_xSSDAC/module_usb_audio/endpoint0/audiorequests.xc:1226:0
	{
		lsu r2, r1, r2
		nop
	}
.Ltrap_info25:
	{
		ecallf r2
		nop
	}
	#DEBUG_VALUE: AudioClassRequests_1:ep0_in <- R4
	#DEBUG_VALUE: AudioClassRequests_1:c_audioControl <- R3
	#DEBUG_VALUE: AudioClassRequests_1:c_mix_ctl <- [SP+1060]
	#DEBUG_VALUE: AudioClassRequests_1:c_clk_ctl <- [SP+1064]
	.loc	1 1226 0                # C:/Users/takaaki/git/sw_xSSDAC/module_usb_audio/endpoint0/audiorequests.xc:1226:0
	ldaw r2, dp[mutesIn]
	{
		nop
		ld8u r0, r6[r0]
	}
	bu .LBB6_27
.Ltmp303:
.LBB6_3:                                # %allocas
.Lxtalabel112:
	#DEBUG_VALUE: AudioClassRequests_1:ep0_out <- R0
	#DEBUG_VALUE: AudioClassRequests_1:ep0_in <- R4
	#DEBUG_VALUE: AudioClassRequests_1:sp <- R5
	#DEBUG_VALUE: AudioClassRequests_1:c_audioControl <- R3
	#DEBUG_VALUE: AudioClassRequests_1:c_mix_ctl <- [SP+1060]
	#DEBUG_VALUE: AudioClassRequests_1:c_clk_ctl <- [SP+1064]
	ldw r3, cp[.LCPI6_0]
.Ltmp304:
	{
		add r2, r2, r3
		nop
	}
	{
		lsu r1, r1, r2
		nop
	}
	bf r1, .LBB6_5
.Ltmp305:
# BB#4:
	#DEBUG_VALUE: AudioClassRequests_1:c_audioControl <- R3
	#DEBUG_VALUE: AudioClassRequests_1:c_mix_ctl <- [SP+1060]
	#DEBUG_VALUE: AudioClassRequests_1:c_clk_ctl <- [SP+1064]
	{
		mov r2, r7
		nop
	}
	bu .LBB6_45
.Ltmp306:
.LBB6_2:
	#DEBUG_VALUE: AudioClassRequests_1:c_audioControl <- R3
	#DEBUG_VALUE: AudioClassRequests_1:c_mix_ctl <- [SP+1060]
	#DEBUG_VALUE: AudioClassRequests_1:c_clk_ctl <- [SP+1064]
	{
		mov r2, r7
		nop
	}
	bu .LBB6_45
.Ltmp307:
.LBB6_5:                                # %allocas
.Lxtalabel113:
	#DEBUG_VALUE: AudioClassRequests_1:ep0_out <- R0
	#DEBUG_VALUE: AudioClassRequests_1:ep0_in <- R4
	#DEBUG_VALUE: AudioClassRequests_1:sp <- R5
	#DEBUG_VALUE: AudioClassRequests_1:c_audioControl <- R3
	#DEBUG_VALUE: AudioClassRequests_1:c_mix_ctl <- [SP+1060]
	#DEBUG_VALUE: AudioClassRequests_1:c_clk_ctl <- [SP+1064]

	.xtabranch .Ljumptable0+4,.Ljumptable0+8,.Ljumptable0+12,.Ljumptable0+16
.Ljumptable0:
		
	{
		nop
		bru r2
	}
	.jmptable32 .LBB6_6,.LBB6_28,.LBB6_39,.LBB6_40
.Ltmp308:
.LBB6_6:                                # %switchcase1
.Lxtalabel114:
	#DEBUG_VALUE: AudioClassRequests_1:ep0_out <- R0
	#DEBUG_VALUE: AudioClassRequests_1:ep0_in <- R4
	#DEBUG_VALUE: AudioClassRequests_1:sp <- R5
	#DEBUG_VALUE: AudioClassRequests_1:c_audioControl <- R3
	#DEBUG_VALUE: AudioClassRequests_1:c_mix_ctl <- [SP+1060]
	#DEBUG_VALUE: AudioClassRequests_1:c_clk_ctl <- [SP+1064]
	.loc	1 1237 0                # C:/Users/takaaki/git/sw_xSSDAC/module_usb_audio/endpoint0/audiorequests.xc:1237:0
	{
		add r2, r5, 6
		ldc r1, 0
	}
	{
		nop
		ld16s r2, r2[r1]
	}
	ldc r3, 65280
.Ltmp309:
	.loc	1 1237 0                # C:/Users/takaaki/git/sw_xSSDAC/module_usb_audio/endpoint0/audiorequests.xc:1237:0
	{
		and r2, r2, r3
		nop
	}
	.loc	1 1237 0                # C:/Users/takaaki/git/sw_xSSDAC/module_usb_audio/endpoint0/audiorequests.xc:1237:0
	{
		shr r2, r2, 8
		nop
	}
.Ltmp310:
	#DEBUG_VALUE: unitID <- R2
	.loc	1 1238 13               # C:/Users/takaaki/git/sw_xSSDAC/module_usb_audio/endpoint0/audiorequests.xc:1238:13
	{
		eq r3, r2, 10
		nop
	}
	bf r3, .LBB6_7
.Ltmp311:
# BB#29:                                # %iftrue114
.Lxtalabel115:
	#DEBUG_VALUE: AudioClassRequests_1:ep0_out <- R0
	#DEBUG_VALUE: AudioClassRequests_1:ep0_in <- R4
	#DEBUG_VALUE: AudioClassRequests_1:sp <- R5
	#DEBUG_VALUE: AudioClassRequests_1:c_audioControl <- R3
	#DEBUG_VALUE: AudioClassRequests_1:c_mix_ctl <- [SP+1060]
	#DEBUG_VALUE: AudioClassRequests_1:c_clk_ctl <- [SP+1064]
	.loc	1 1240 0                # C:/Users/takaaki/git/sw_xSSDAC/module_usb_audio/endpoint0/audiorequests.xc:1240:0
	{
		add r2, r5, 4
		nop
	}
	{
		nop
		ld16s r3, r2[r1]
	}
.Ltmp312:
	.loc	1 1240 0                # C:/Users/takaaki/git/sw_xSSDAC/module_usb_audio/endpoint0/audiorequests.xc:1240:0
	{
		zext r3, 16
		nop
	}
	.loc	1 1240 0                # C:/Users/takaaki/git/sw_xSSDAC/module_usb_audio/endpoint0/audiorequests.xc:1240:0
	{
		shr r2, r3, 8
		nop
	}
	.loc	1 1240 0                # C:/Users/takaaki/git/sw_xSSDAC/module_usb_audio/endpoint0/audiorequests.xc:1240:0
	{
		eq r11, r2, 1
		nop
	}
	bf r11, .LBB6_30
.Ltmp313:
# BB#33:                                # %switchcase128
.Lxtalabel116:
	#DEBUG_VALUE: AudioClassRequests_1:ep0_out <- R0
	#DEBUG_VALUE: AudioClassRequests_1:ep0_in <- R4
	#DEBUG_VALUE: AudioClassRequests_1:sp <- R5
	#DEBUG_VALUE: AudioClassRequests_1:c_audioControl <- R3
	#DEBUG_VALUE: AudioClassRequests_1:c_mix_ctl <- [SP+1060]
	#DEBUG_VALUE: AudioClassRequests_1:c_clk_ctl <- [SP+1064]
	.loc	1 1251 0                # C:/Users/takaaki/git/sw_xSSDAC/module_usb_audio/endpoint0/audiorequests.xc:1251:0
	ldc r2, mutesOut.globound
	.loc	1 1251 0                # C:/Users/takaaki/git/sw_xSSDAC/module_usb_audio/endpoint0/audiorequests.xc:1251:0
	{
		zext r3, 8
		nop
	}
.Ltmp314:
	.loc	1 1251 0                # C:/Users/takaaki/git/sw_xSSDAC/module_usb_audio/endpoint0/audiorequests.xc:1251:0
	{
		lsu r2, r3, r2
		nop
	}
.Ltrap_info26:
	{
		ecallf r2
		nop
	}
	#DEBUG_VALUE: AudioClassRequests_1:ep0_out <- R0
	#DEBUG_VALUE: AudioClassRequests_1:ep0_in <- R4
	#DEBUG_VALUE: AudioClassRequests_1:sp <- R5
.Ltmp315:
	#DEBUG_VALUE: AudioClassRequests_1:c_audioControl <- R3
	#DEBUG_VALUE: AudioClassRequests_1:c_mix_ctl <- [SP+1060]
	#DEBUG_VALUE: AudioClassRequests_1:c_clk_ctl <- [SP+1064]
	.loc	1 1251 0                # C:/Users/takaaki/git/sw_xSSDAC/module_usb_audio/endpoint0/audiorequests.xc:1251:0
	ldaw r2, dp[mutesOut]
	bu .LBB6_34
.Ltmp316:
.LBB6_28:                               # %switchcase109
.Lxtalabel117:
	#DEBUG_VALUE: AudioClassRequests_1:ep0_out <- R0
	#DEBUG_VALUE: AudioClassRequests_1:ep0_in <- R4
	#DEBUG_VALUE: AudioClassRequests_1:sp <- R5
	#DEBUG_VALUE: AudioClassRequests_1:c_audioControl <- R3
	#DEBUG_VALUE: AudioClassRequests_1:c_mix_ctl <- [SP+1060]
	#DEBUG_VALUE: AudioClassRequests_1:c_clk_ctl <- [SP+1064]
	{
		ldaw r2, sp[4]
		ldc r1, 0
	}
	.loc	1 1277 0                # C:/Users/takaaki/git/sw_xSSDAC/module_usb_audio/endpoint0/audiorequests.xc:1277:0
	st8 r1, r2[r1]
	{
		mkmsk r3, 1
		nop
	}
.Ltmp317:
	.loc	1 1278 0                # C:/Users/takaaki/git/sw_xSSDAC/module_usb_audio/endpoint0/audiorequests.xc:1278:0
	{
		or r3, r2, r3
		nop
	}
	ldc r11, 129
	.loc	1 1278 0                # C:/Users/takaaki/git/sw_xSSDAC/module_usb_audio/endpoint0/audiorequests.xc:1278:0
	st8 r11, r3[r1]
	bu .LBB6_42
.Ltmp318:
.LBB6_39:                               # %switchcase232
.Lxtalabel118:
	#DEBUG_VALUE: AudioClassRequests_1:ep0_out <- R0
	#DEBUG_VALUE: AudioClassRequests_1:ep0_in <- R4
	#DEBUG_VALUE: AudioClassRequests_1:sp <- R5
	#DEBUG_VALUE: AudioClassRequests_1:c_audioControl <- R3
	#DEBUG_VALUE: AudioClassRequests_1:c_mix_ctl <- [SP+1060]
	#DEBUG_VALUE: AudioClassRequests_1:c_clk_ctl <- [SP+1064]
	{
		ldaw r2, sp[4]
		ldc r1, 0
	}
	.loc	1 1282 0                # C:/Users/takaaki/git/sw_xSSDAC/module_usb_audio/endpoint0/audiorequests.xc:1282:0
	st8 r1, r2[r1]
	{
		mkmsk r3, 1
		nop
	}
.Ltmp319:
	.loc	1 1283 0                # C:/Users/takaaki/git/sw_xSSDAC/module_usb_audio/endpoint0/audiorequests.xc:1283:0
	{
		or r3, r2, r3
		nop
	}
	.loc	1 1283 0                # C:/Users/takaaki/git/sw_xSSDAC/module_usb_audio/endpoint0/audiorequests.xc:1283:0
	st8 r1, r3[r1]
	bu .LBB6_42
.Ltmp320:
.LBB6_40:                               # %switchcase241
.Lxtalabel119:
	#DEBUG_VALUE: AudioClassRequests_1:ep0_out <- R0
	#DEBUG_VALUE: AudioClassRequests_1:ep0_in <- R4
	#DEBUG_VALUE: AudioClassRequests_1:sp <- R5
	#DEBUG_VALUE: AudioClassRequests_1:c_audioControl <- R3
	#DEBUG_VALUE: AudioClassRequests_1:c_mix_ctl <- [SP+1060]
	#DEBUG_VALUE: AudioClassRequests_1:c_clk_ctl <- [SP+1064]
	{
		ldaw r2, sp[4]
		ldc r1, 0
	}
	.loc	1 1287 0                # C:/Users/takaaki/git/sw_xSSDAC/module_usb_audio/endpoint0/audiorequests.xc:1287:0
	st8 r1, r2[r1]
	{
		mkmsk r3, 1
		nop
	}
.Ltmp321:
	.loc	1 1288 0                # C:/Users/takaaki/git/sw_xSSDAC/module_usb_audio/endpoint0/audiorequests.xc:1288:0
	{
		or r11, r2, r3
		nop
	}
.Ltmp322:
.LBB6_41:                               # %return
	.loc	1 1288 0                # C:/Users/takaaki/git/sw_xSSDAC/module_usb_audio/endpoint0/audiorequests.xc:1288:0
	st8 r3, r11[r1]
.LBB6_42:                               # %return
	.loc	1 1289 13               # C:/Users/takaaki/git/sw_xSSDAC/module_usb_audio/endpoint0/audiorequests.xc:1289:13
	{
		add r3, r5, 8
		nop
	}
	{
		nop
		ld16s r1, r3[r1]
	}
	.loc	1 1289 13               # C:/Users/takaaki/git/sw_xSSDAC/module_usb_audio/endpoint0/audiorequests.xc:1289:13
	{
		zext r1, 16
		nop
	}
	{
		nop
		stw r1, sp[1]
	}
	ldc r1, 1024
	.loc	1 1289 13               # C:/Users/takaaki/git/sw_xSSDAC/module_usb_audio/endpoint0/audiorequests.xc:1289:13
	{
		ldc r3, 2
		stw r1, sp[2]
	}
.LBB6_43:                               # %return
	{
		mov r1, r4
		nop
	}
.Lxta.call_labels25:
	bl XUD_DoGetRequest
.LBB6_44:                               # %return
	{
		mov r2, r0
		nop
	}
.LBB6_45:                               # %return
.Ltmp323:
	#DEBUG_VALUE: AudioClassRequests_1:c_audioControl <- R3
	#DEBUG_VALUE: AudioClassRequests_1:c_mix_ctl <- [SP+1060]
	#DEBUG_VALUE: AudioClassRequests_1:c_clk_ctl <- [SP+1064]
	{
		mov r0, r2
		nop
	}
	ldw r6, sp[262]                 # 4-byte Folded Reload
	ldw r7, sp[263]                 # 4-byte Folded Reload
	ldw r4, sp[260]                 # 4-byte Folded Reload
	ldw r5, sp[261]                 # 4-byte Folded Reload
	retsp 264
.Ltmp324:
	# RETURN_REG_HOLDER
.Ltmp325:
.LBB6_11:                               # %ifdone
.Lxtalabel120:
	#DEBUG_VALUE: AudioClassRequests_1:ep0_in <- R4
	#DEBUG_VALUE: AudioClassRequests_1:c_audioControl <- R3
	#DEBUG_VALUE: AudioClassRequests_1:c_mix_ctl <- [SP+1060]
	#DEBUG_VALUE: AudioClassRequests_1:c_clk_ctl <- [SP+1064]
	{
		eq r3, r3, 2
		nop
	}
.Ltmp326:
	bf r3, .LBB6_12
.Ltmp327:
# BB#13:                                # %switchcase11
.Lxtalabel121:
	#DEBUG_VALUE: AudioClassRequests_1:ep0_in <- R4
	#DEBUG_VALUE: AudioClassRequests_1:c_audioControl <- R3
	#DEBUG_VALUE: AudioClassRequests_1:c_mix_ctl <- [SP+1060]
	#DEBUG_VALUE: AudioClassRequests_1:c_clk_ctl <- [SP+1064]
	{
		nop
		ldw r3, sp[3]
	}
.Ltmp328:
	.loc	1 1197 21               # C:/Users/takaaki/git/sw_xSSDAC/module_usb_audio/endpoint0/audiorequests.xc:1197:21
	{
		eq r3, r3, 2
		nop
	}
	.loc	1 1197 21               # C:/Users/takaaki/git/sw_xSSDAC/module_usb_audio/endpoint0/audiorequests.xc:1197:21
	bf r3, .LBB6_14
.Ltmp329:
# BB#17:                                # %iftrue13
.Lxtalabel122:
	#DEBUG_VALUE: AudioClassRequests_1:ep0_in <- R4
	#DEBUG_VALUE: AudioClassRequests_1:c_audioControl <- R3
	#DEBUG_VALUE: AudioClassRequests_1:c_mix_ctl <- [SP+1060]
	#DEBUG_VALUE: AudioClassRequests_1:c_clk_ctl <- [SP+1064]
	.loc	1 1199 0                # C:/Users/takaaki/git/sw_xSSDAC/module_usb_audio/endpoint0/audiorequests.xc:1199:0
	{
		eq r3, r2, 11
		nop
	}
.Ltmp330:
	bf r3, .LBB6_18
.Ltmp331:
# BB#20:                                # %switchcase21
.Lxtalabel123:
	#DEBUG_VALUE: AudioClassRequests_1:ep0_in <- R4
	#DEBUG_VALUE: AudioClassRequests_1:c_audioControl <- R3
	#DEBUG_VALUE: AudioClassRequests_1:c_mix_ctl <- [SP+1060]
	#DEBUG_VALUE: AudioClassRequests_1:c_clk_ctl <- [SP+1064]
	.loc	1 1207 0                # C:/Users/takaaki/git/sw_xSSDAC/module_usb_audio/endpoint0/audiorequests.xc:1207:0
	ldc r2, volsIn.globound
	.loc	1 1207 0                # C:/Users/takaaki/git/sw_xSSDAC/module_usb_audio/endpoint0/audiorequests.xc:1207:0
	{
		zext r1, 8
		nop
	}
	.loc	1 1207 0                # C:/Users/takaaki/git/sw_xSSDAC/module_usb_audio/endpoint0/audiorequests.xc:1207:0
	{
		lsu r2, r1, r2
		nop
	}
.Ltrap_info27:
	{
		ecallf r2
		nop
	}
	#DEBUG_VALUE: AudioClassRequests_1:ep0_in <- R4
	#DEBUG_VALUE: AudioClassRequests_1:c_audioControl <- R3
	#DEBUG_VALUE: AudioClassRequests_1:c_mix_ctl <- [SP+1060]
	#DEBUG_VALUE: AudioClassRequests_1:c_clk_ctl <- [SP+1064]
	.loc	1 1207 0                # C:/Users/takaaki/git/sw_xSSDAC/module_usb_audio/endpoint0/audiorequests.xc:1207:0
	ldaw r2, dp[volsIn]
	{
		nop
		ld16s r0, r6[r0]
	}
	ldw r3, cp[.LCPI6_1]
.Ltmp332:
	.loc	1 1207 0                # C:/Users/takaaki/git/sw_xSSDAC/module_usb_audio/endpoint0/audiorequests.xc:1207:0
	{
		and r3, r0, r3
		zext r0, 8
	}
	.loc	1 1207 0                # C:/Users/takaaki/git/sw_xSSDAC/module_usb_audio/endpoint0/audiorequests.xc:1207:0
	{
		or r0, r3, r0
		nop
	}
.Ltmp333:
.LBB6_27:                               # %return
	.loc	1 1226 0                # C:/Users/takaaki/git/sw_xSSDAC/module_usb_audio/endpoint0/audiorequests.xc:1226:0
	stw r0, r2[r1]
	{
		ldc r0, 11
		nop
	}
	bu .LBB6_25
.Ltmp334:
.LBB6_7:                                # %switchcase1
.Lxtalabel124:
	#DEBUG_VALUE: AudioClassRequests_1:ep0_out <- R0
	#DEBUG_VALUE: AudioClassRequests_1:ep0_in <- R4
	#DEBUG_VALUE: AudioClassRequests_1:sp <- R5
	#DEBUG_VALUE: AudioClassRequests_1:c_audioControl <- R3
	#DEBUG_VALUE: AudioClassRequests_1:c_mix_ctl <- [SP+1060]
	#DEBUG_VALUE: AudioClassRequests_1:c_clk_ctl <- [SP+1064]
	{
		eq r2, r2, 11
		nop
	}
	bf r2, .LBB6_8
.Ltmp335:
# BB#35:                                # %iftrue173
.Lxtalabel125:
	#DEBUG_VALUE: AudioClassRequests_1:ep0_out <- R0
	#DEBUG_VALUE: AudioClassRequests_1:ep0_in <- R4
	#DEBUG_VALUE: AudioClassRequests_1:sp <- R5
	#DEBUG_VALUE: AudioClassRequests_1:c_audioControl <- R3
	#DEBUG_VALUE: AudioClassRequests_1:c_mix_ctl <- [SP+1060]
	#DEBUG_VALUE: AudioClassRequests_1:c_clk_ctl <- [SP+1064]
	.loc	1 1259 0                # C:/Users/takaaki/git/sw_xSSDAC/module_usb_audio/endpoint0/audiorequests.xc:1259:0
	{
		add r2, r5, 4
		nop
	}
	{
		nop
		ld16s r3, r2[r1]
	}
.Ltmp336:
	.loc	1 1259 0                # C:/Users/takaaki/git/sw_xSSDAC/module_usb_audio/endpoint0/audiorequests.xc:1259:0
	{
		zext r3, 16
		nop
	}
	.loc	1 1259 0                # C:/Users/takaaki/git/sw_xSSDAC/module_usb_audio/endpoint0/audiorequests.xc:1259:0
	{
		shr r2, r3, 8
		nop
	}
	.loc	1 1259 0                # C:/Users/takaaki/git/sw_xSSDAC/module_usb_audio/endpoint0/audiorequests.xc:1259:0
	{
		eq r11, r2, 1
		nop
	}
	bf r11, .LBB6_36
.Ltmp337:
# BB#38:                                # %switchcase187
.Lxtalabel126:
	#DEBUG_VALUE: AudioClassRequests_1:ep0_out <- R0
	#DEBUG_VALUE: AudioClassRequests_1:ep0_in <- R4
	#DEBUG_VALUE: AudioClassRequests_1:sp <- R5
	#DEBUG_VALUE: AudioClassRequests_1:c_audioControl <- R3
	#DEBUG_VALUE: AudioClassRequests_1:c_mix_ctl <- [SP+1060]
	#DEBUG_VALUE: AudioClassRequests_1:c_clk_ctl <- [SP+1064]
	.loc	1 1269 0                # C:/Users/takaaki/git/sw_xSSDAC/module_usb_audio/endpoint0/audiorequests.xc:1269:0
	ldc r2, mutesIn.globound
	.loc	1 1269 0                # C:/Users/takaaki/git/sw_xSSDAC/module_usb_audio/endpoint0/audiorequests.xc:1269:0
	{
		zext r3, 8
		nop
	}
.Ltmp338:
	.loc	1 1269 0                # C:/Users/takaaki/git/sw_xSSDAC/module_usb_audio/endpoint0/audiorequests.xc:1269:0
	{
		lsu r2, r3, r2
		nop
	}
.Ltrap_info28:
	{
		ecallf r2
		nop
	}
	#DEBUG_VALUE: AudioClassRequests_1:ep0_out <- R0
	#DEBUG_VALUE: AudioClassRequests_1:ep0_in <- R4
	#DEBUG_VALUE: AudioClassRequests_1:sp <- R5
.Ltmp339:
	#DEBUG_VALUE: AudioClassRequests_1:c_audioControl <- R3
	#DEBUG_VALUE: AudioClassRequests_1:c_mix_ctl <- [SP+1060]
	#DEBUG_VALUE: AudioClassRequests_1:c_clk_ctl <- [SP+1064]
	.loc	1 1269 0                # C:/Users/takaaki/git/sw_xSSDAC/module_usb_audio/endpoint0/audiorequests.xc:1269:0
	ldaw r2, dp[mutesIn]
.Ltmp340:
.LBB6_34:                               # %return
	.loc	1 1251 0                # C:/Users/takaaki/git/sw_xSSDAC/module_usb_audio/endpoint0/audiorequests.xc:1251:0
	{
		ldaw r2, sp[4]
		ldw r3, r2[r3]
	}
	.loc	1 1251 0                # C:/Users/takaaki/git/sw_xSSDAC/module_usb_audio/endpoint0/audiorequests.xc:1251:0
	st8 r3, r2[r1]
	.loc	1 1252 25               # C:/Users/takaaki/git/sw_xSSDAC/module_usb_audio/endpoint0/audiorequests.xc:1252:25
	{
		add r3, r5, 8
		nop
	}
	{
		nop
		ld16s r1, r3[r1]
	}
	.loc	1 1252 25               # C:/Users/takaaki/git/sw_xSSDAC/module_usb_audio/endpoint0/audiorequests.xc:1252:25
	{
		zext r1, 16
		nop
	}
	{
		nop
		stw r1, sp[1]
	}
	ldc r1, 1024
	.loc	1 1252 25               # C:/Users/takaaki/git/sw_xSSDAC/module_usb_audio/endpoint0/audiorequests.xc:1252:25
	{
		mkmsk r3, 1
		stw r1, sp[2]
	}
	bu .LBB6_43
.LBB6_16:
.Ltmp341:
	#DEBUG_VALUE: AudioClassRequests_1:c_audioControl <- R3
	#DEBUG_VALUE: AudioClassRequests_1:c_mix_ctl <- [SP+1060]
	#DEBUG_VALUE: AudioClassRequests_1:c_clk_ctl <- [SP+1064]
	{
		mov r2, r7
		nop
	}
	bu .LBB6_45
.Ltmp342:
.LBB6_12:
	#DEBUG_VALUE: AudioClassRequests_1:c_audioControl <- R3
	#DEBUG_VALUE: AudioClassRequests_1:c_mix_ctl <- [SP+1060]
	#DEBUG_VALUE: AudioClassRequests_1:c_clk_ctl <- [SP+1064]
	{
		mov r2, r7
		nop
	}
	bu .LBB6_45
.Ltmp343:
.LBB6_30:                               # %iftrue114
.Lxtalabel127:
	#DEBUG_VALUE: AudioClassRequests_1:ep0_out <- R0
	#DEBUG_VALUE: AudioClassRequests_1:ep0_in <- R4
	#DEBUG_VALUE: AudioClassRequests_1:sp <- R5
	#DEBUG_VALUE: AudioClassRequests_1:c_audioControl <- R3
	#DEBUG_VALUE: AudioClassRequests_1:c_mix_ctl <- [SP+1060]
	#DEBUG_VALUE: AudioClassRequests_1:c_clk_ctl <- [SP+1064]
	{
		eq r11, r2, 2
		mov r2, r7
	}
	bf r11, .LBB6_45
.Ltmp344:
# BB#31:                                # %switchcase127
.Lxtalabel128:
	#DEBUG_VALUE: AudioClassRequests_1:ep0_out <- R0
	#DEBUG_VALUE: AudioClassRequests_1:ep0_in <- R4
	#DEBUG_VALUE: AudioClassRequests_1:sp <- R5
	#DEBUG_VALUE: AudioClassRequests_1:c_audioControl <- R3
	#DEBUG_VALUE: AudioClassRequests_1:c_mix_ctl <- [SP+1060]
	#DEBUG_VALUE: AudioClassRequests_1:c_clk_ctl <- [SP+1064]
	.loc	1 1244 0                # C:/Users/takaaki/git/sw_xSSDAC/module_usb_audio/endpoint0/audiorequests.xc:1244:0
	ldc r2, volsOut.globound
	.loc	1 1244 0                # C:/Users/takaaki/git/sw_xSSDAC/module_usb_audio/endpoint0/audiorequests.xc:1244:0
	{
		zext r3, 8
		nop
	}
.Ltmp345:
	.loc	1 1244 0                # C:/Users/takaaki/git/sw_xSSDAC/module_usb_audio/endpoint0/audiorequests.xc:1244:0
	{
		lsu r2, r3, r2
		nop
	}
.Ltrap_info29:
	{
		ecallf r2
		nop
	}
	#DEBUG_VALUE: AudioClassRequests_1:ep0_out <- R0
	#DEBUG_VALUE: AudioClassRequests_1:ep0_in <- R4
	#DEBUG_VALUE: AudioClassRequests_1:sp <- R5
.Ltmp346:
	#DEBUG_VALUE: AudioClassRequests_1:c_audioControl <- R3
	#DEBUG_VALUE: AudioClassRequests_1:c_mix_ctl <- [SP+1060]
	#DEBUG_VALUE: AudioClassRequests_1:c_clk_ctl <- [SP+1064]
	.loc	1 1244 0                # C:/Users/takaaki/git/sw_xSSDAC/module_usb_audio/endpoint0/audiorequests.xc:1244:0
	ldaw r2, dp[volsOut]
	bu .LBB6_32
.Ltmp347:
.LBB6_8:
	#DEBUG_VALUE: AudioClassRequests_1:c_audioControl <- R3
	#DEBUG_VALUE: AudioClassRequests_1:c_mix_ctl <- [SP+1060]
	#DEBUG_VALUE: AudioClassRequests_1:c_clk_ctl <- [SP+1064]
	{
		mov r2, r7
		nop
	}
	bu .LBB6_45
.Ltmp348:
.LBB6_22:                               # %iftrue60
.Lxtalabel129:
	#DEBUG_VALUE: AudioClassRequests_1:ep0_in <- R4
	#DEBUG_VALUE: AudioClassRequests_1:c_audioControl <- R3
	#DEBUG_VALUE: AudioClassRequests_1:c_mix_ctl <- [SP+1060]
	#DEBUG_VALUE: AudioClassRequests_1:c_clk_ctl <- [SP+1064]
	{
		eq r3, r2, 10
		mov r2, r7
	}
.Ltmp349:
	bf r3, .LBB6_45
.Ltmp350:
# BB#23:                                # %switchcase69
.Lxtalabel130:
	#DEBUG_VALUE: AudioClassRequests_1:ep0_in <- R4
	#DEBUG_VALUE: AudioClassRequests_1:c_audioControl <- R3
	#DEBUG_VALUE: AudioClassRequests_1:c_mix_ctl <- [SP+1060]
	#DEBUG_VALUE: AudioClassRequests_1:c_clk_ctl <- [SP+1064]
	.loc	1 1221 0                # C:/Users/takaaki/git/sw_xSSDAC/module_usb_audio/endpoint0/audiorequests.xc:1221:0
	ldc r2, mutesOut.globound
	.loc	1 1221 0                # C:/Users/takaaki/git/sw_xSSDAC/module_usb_audio/endpoint0/audiorequests.xc:1221:0
	{
		zext r1, 8
		nop
	}
	.loc	1 1221 0                # C:/Users/takaaki/git/sw_xSSDAC/module_usb_audio/endpoint0/audiorequests.xc:1221:0
	{
		lsu r2, r1, r2
		nop
	}
.Ltrap_info30:
	{
		ecallf r2
		nop
	}
	#DEBUG_VALUE: AudioClassRequests_1:ep0_in <- R4
	#DEBUG_VALUE: AudioClassRequests_1:c_audioControl <- R3
	#DEBUG_VALUE: AudioClassRequests_1:c_mix_ctl <- [SP+1060]
	#DEBUG_VALUE: AudioClassRequests_1:c_clk_ctl <- [SP+1064]
	.loc	1 1221 0                # C:/Users/takaaki/git/sw_xSSDAC/module_usb_audio/endpoint0/audiorequests.xc:1221:0
	ldaw r2, dp[mutesOut]
	{
		nop
		ld8u r0, r6[r0]
	}
	bu .LBB6_24
.Ltmp351:
.LBB6_14:
	#DEBUG_VALUE: AudioClassRequests_1:c_audioControl <- R3
	#DEBUG_VALUE: AudioClassRequests_1:c_mix_ctl <- [SP+1060]
	#DEBUG_VALUE: AudioClassRequests_1:c_clk_ctl <- [SP+1064]
	{
		mov r2, r7
		nop
	}
	bu .LBB6_45
.Ltmp352:
.LBB6_36:                               # %iftrue173
.Lxtalabel131:
	#DEBUG_VALUE: AudioClassRequests_1:ep0_out <- R0
	#DEBUG_VALUE: AudioClassRequests_1:ep0_in <- R4
	#DEBUG_VALUE: AudioClassRequests_1:sp <- R5
	#DEBUG_VALUE: AudioClassRequests_1:c_audioControl <- R3
	#DEBUG_VALUE: AudioClassRequests_1:c_mix_ctl <- [SP+1060]
	#DEBUG_VALUE: AudioClassRequests_1:c_clk_ctl <- [SP+1064]
	{
		eq r11, r2, 2
		mov r2, r7
	}
	bf r11, .LBB6_45
.Ltmp353:
# BB#37:                                # %switchcase186
.Lxtalabel132:
	#DEBUG_VALUE: AudioClassRequests_1:ep0_out <- R0
	#DEBUG_VALUE: AudioClassRequests_1:ep0_in <- R4
	#DEBUG_VALUE: AudioClassRequests_1:sp <- R5
	#DEBUG_VALUE: AudioClassRequests_1:c_audioControl <- R3
	#DEBUG_VALUE: AudioClassRequests_1:c_mix_ctl <- [SP+1060]
	#DEBUG_VALUE: AudioClassRequests_1:c_clk_ctl <- [SP+1064]
	.loc	1 1263 0                # C:/Users/takaaki/git/sw_xSSDAC/module_usb_audio/endpoint0/audiorequests.xc:1263:0
	ldc r2, volsIn.globound
	.loc	1 1263 0                # C:/Users/takaaki/git/sw_xSSDAC/module_usb_audio/endpoint0/audiorequests.xc:1263:0
	{
		zext r3, 8
		nop
	}
.Ltmp354:
	.loc	1 1263 0                # C:/Users/takaaki/git/sw_xSSDAC/module_usb_audio/endpoint0/audiorequests.xc:1263:0
	{
		lsu r2, r3, r2
		nop
	}
.Ltrap_info31:
	{
		ecallf r2
		nop
	}
	#DEBUG_VALUE: AudioClassRequests_1:ep0_out <- R0
	#DEBUG_VALUE: AudioClassRequests_1:ep0_in <- R4
	#DEBUG_VALUE: AudioClassRequests_1:sp <- R5
.Ltmp355:
	#DEBUG_VALUE: AudioClassRequests_1:c_audioControl <- R3
	#DEBUG_VALUE: AudioClassRequests_1:c_mix_ctl <- [SP+1060]
	#DEBUG_VALUE: AudioClassRequests_1:c_clk_ctl <- [SP+1064]
	.loc	1 1263 0                # C:/Users/takaaki/git/sw_xSSDAC/module_usb_audio/endpoint0/audiorequests.xc:1263:0
	ldaw r2, dp[volsIn]
.Ltmp356:
.LBB6_32:                               # %return
	.loc	1 1244 0                # C:/Users/takaaki/git/sw_xSSDAC/module_usb_audio/endpoint0/audiorequests.xc:1244:0
	{
		ldaw r2, sp[4]
		ldw r3, r2[r3]
	}
	.loc	1 1244 0                # C:/Users/takaaki/git/sw_xSSDAC/module_usb_audio/endpoint0/audiorequests.xc:1244:0
	st8 r3, r2[r1]
	{
		mkmsk r11, 1
		nop
	}
	.loc	1 1245 0                # C:/Users/takaaki/git/sw_xSSDAC/module_usb_audio/endpoint0/audiorequests.xc:1245:0
	{
		or r11, r2, r11
		shr r3, r3, 8
	}
	bu .LBB6_41
.LBB6_18:                               # %iftrue13
.Lxtalabel133:
.Ltmp357:
	#DEBUG_VALUE: AudioClassRequests_1:ep0_in <- R4
	#DEBUG_VALUE: AudioClassRequests_1:c_audioControl <- R3
	#DEBUG_VALUE: AudioClassRequests_1:c_mix_ctl <- [SP+1060]
	#DEBUG_VALUE: AudioClassRequests_1:c_clk_ctl <- [SP+1064]
	{
		eq r3, r2, 10
		mov r2, r7
	}
.Ltmp358:
	bf r3, .LBB6_45
.Ltmp359:
# BB#19:                                # %switchcase20
.Lxtalabel134:
	#DEBUG_VALUE: AudioClassRequests_1:ep0_in <- R4
	#DEBUG_VALUE: AudioClassRequests_1:c_audioControl <- R3
	#DEBUG_VALUE: AudioClassRequests_1:c_mix_ctl <- [SP+1060]
	#DEBUG_VALUE: AudioClassRequests_1:c_clk_ctl <- [SP+1064]
	.loc	1 1202 0                # C:/Users/takaaki/git/sw_xSSDAC/module_usb_audio/endpoint0/audiorequests.xc:1202:0
	ldc r2, volsOut.globound
	.loc	1 1202 0                # C:/Users/takaaki/git/sw_xSSDAC/module_usb_audio/endpoint0/audiorequests.xc:1202:0
	{
		zext r1, 8
		nop
	}
	.loc	1 1202 0                # C:/Users/takaaki/git/sw_xSSDAC/module_usb_audio/endpoint0/audiorequests.xc:1202:0
	{
		lsu r2, r1, r2
		nop
	}
.Ltrap_info32:
	{
		ecallf r2
		nop
	}
	#DEBUG_VALUE: AudioClassRequests_1:ep0_in <- R4
	#DEBUG_VALUE: AudioClassRequests_1:c_audioControl <- R3
	#DEBUG_VALUE: AudioClassRequests_1:c_mix_ctl <- [SP+1060]
	#DEBUG_VALUE: AudioClassRequests_1:c_clk_ctl <- [SP+1064]
	.loc	1 1202 0                # C:/Users/takaaki/git/sw_xSSDAC/module_usb_audio/endpoint0/audiorequests.xc:1202:0
	ldaw r2, dp[volsOut]
	{
		nop
		ld16s r0, r6[r0]
	}
	ldw r3, cp[.LCPI6_1]
.Ltmp360:
	.loc	1 1202 0                # C:/Users/takaaki/git/sw_xSSDAC/module_usb_audio/endpoint0/audiorequests.xc:1202:0
	{
		and r3, r0, r3
		zext r0, 8
	}
	.loc	1 1202 0                # C:/Users/takaaki/git/sw_xSSDAC/module_usb_audio/endpoint0/audiorequests.xc:1202:0
	{
		or r0, r3, r0
		nop
	}
.Ltmp361:
.LBB6_24:                               # %return
	.loc	1 1221 0                # C:/Users/takaaki/git/sw_xSSDAC/module_usb_audio/endpoint0/audiorequests.xc:1221:0
	stw r0, r2[r1]
	{
		ldc r0, 10
		nop
	}
.LBB6_25:                               # %return
	.loc	1 1222 0                # C:/Users/takaaki/git/sw_xSSDAC/module_usb_audio/endpoint0/audiorequests.xc:1222:0
.Lxta.call_labels26:
	bl updateVol
	.loc	1 1223 33               # C:/Users/takaaki/git/sw_xSSDAC/module_usb_audio/endpoint0/audiorequests.xc:1223:33
	{
		mov r0, r4
		nop
	}
.Lxta.call_labels27:
	bl XUD_DoSetRequestStatus
	bu .LBB6_44
.Ltmp362:
	.cc_bottom AudioClassRequests_1.function
	.set	AudioClassRequests_1.nstackwords,((XUD_GetBuffer.nstackwords $M updateVol.nstackwords $M XUD_DoSetRequestStatus.nstackwords $M XUD_DoGetRequest.nstackwords) + 264)
	.globl	AudioClassRequests_1.nstackwords
	.set	AudioClassRequests_1.maxcores,XUD_DoGetRequest.maxcores $M XUD_DoSetRequestStatus.maxcores $M XUD_GetBuffer.maxcores $M updateVol.maxcores $M 1
	.globl	AudioClassRequests_1.maxcores
	.set	AudioClassRequests_1.maxtimers,XUD_DoGetRequest.maxtimers $M XUD_DoSetRequestStatus.maxtimers $M XUD_GetBuffer.maxtimers $M updateVol.maxtimers $M 0
	.globl	AudioClassRequests_1.maxtimers
	.set	AudioClassRequests_1.maxchanends,XUD_DoGetRequest.maxchanends $M XUD_DoSetRequestStatus.maxchanends $M XUD_GetBuffer.maxchanends $M updateVol.maxchanends $M 0
	.globl	AudioClassRequests_1.maxchanends
.Ltmp363:
	.size	AudioClassRequests_1, .Ltmp363-AudioClassRequests_1
.Lfunc_end6:
	.cfi_endproc

	.section	.dp.data.4,"awd",@progbits
	.cc_top g_curSamFreq.data,g_curSamFreq
	.globl	g_curSamFreq
	.align	4
	.type	g_curSamFreq,@object
	.size	g_curSamFreq, 4
g_curSamFreq:
	.long	44100                   # 0xac44
	.cc_bottom g_curSamFreq.data
.Ldebug_end0:
	.text
.Ldebug_end1:
	.file	4 "C:\\Program Files (x86)\\XMOS\\xTIMEcomposer\\Community_14.4.1\\target/include\\timer.h"
	.section	.xtacalltable,"",@progbits
.Lentries_start0:
	.long	.Lentries_end1-.Lentries_start0
	.long	0
	.ascii	"C:\\Users\\takaaki\\git\\sw_xSSDAC\\app_usb_ssdac_xSSDAC-SD-V2\\.build_1i2o2xxxxxx"
	.byte	0
.cc_top cc_0,.Lxta.call_labels0
	.ascii	"C:/Users/takaaki/git/sw_xSSDAC/module_usb_audio/endpoint0/audiorequests.xc"
	.byte	0
	.long	73
	.long	.Lxta.call_labels0
.cc_bottom cc_0
.cc_top cc_1,.Lxta.call_labels1
	.ascii	"C:/Users/takaaki/git/sw_xSSDAC/module_usb_audio/endpoint0/audiorequests.xc"
	.byte	0
	.long	75
	.long	.Lxta.call_labels1
.cc_bottom cc_1
.cc_top cc_2,.Lxta.call_labels2
	.ascii	"C:/Users/takaaki/git/sw_xSSDAC/module_usb_audio/endpoint0/audiorequests.xc"
	.byte	0
	.long	77
	.long	.Lxta.call_labels2
.cc_bottom cc_2
.cc_top cc_3,.Lxta.call_labels4
	.ascii	"C:/Users/takaaki/git/sw_xSSDAC/module_usb_audio/endpoint0/audiorequests.xc"
	.byte	0
	.long	148
	.long	.Lxta.call_labels4
.cc_bottom cc_3
.cc_top cc_4,.Lxta.call_labels5
	.ascii	"C:/Users/takaaki/git/sw_xSSDAC/module_usb_audio/endpoint0/audiorequests.xc"
	.byte	0
	.long	154
	.long	.Lxta.call_labels5
.cc_bottom cc_4
.cc_top cc_5,.Lxta.call_labels3
	.ascii	"C:/Users/takaaki/git/sw_xSSDAC/module_usb_audio/endpoint0/audiorequests.xc"
	.byte	0
	.long	175
	.long	.Lxta.call_labels3
.cc_bottom cc_5
.cc_top cc_6,.Lxta.call_labels8
	.ascii	"C:/Users/takaaki/git/sw_xSSDAC/module_usb_audio/endpoint0/audiorequests.xc"
	.byte	0
	.long	226
	.long	.Lxta.call_labels8
.cc_bottom cc_6
.cc_top cc_7,.Lxta.call_labels9
	.ascii	"C:/Users/takaaki/git/sw_xSSDAC/module_usb_audio/endpoint0/audiorequests.xc"
	.byte	0
	.long	227
	.long	.Lxta.call_labels9
.cc_bottom cc_7
.cc_top cc_8,.Lxta.call_labels6
	.ascii	"C:/Users/takaaki/git/sw_xSSDAC/module_usb_audio/endpoint0/audiorequests.xc"
	.byte	0
	.long	248
	.long	.Lxta.call_labels6
.cc_bottom cc_8
.cc_top cc_9,.Lxta.call_labels7
	.ascii	"C:/Users/takaaki/git/sw_xSSDAC/module_usb_audio/endpoint0/audiorequests.xc"
	.byte	0
	.long	249
	.long	.Lxta.call_labels7
.cc_bottom cc_9
.cc_top cc_10,.Lxta.call_labels12
	.ascii	"C:/Users/takaaki/git/sw_xSSDAC/module_usb_audio/endpoint0/audiorequests.xc"
	.byte	0
	.long	310
	.long	.Lxta.call_labels12
.cc_bottom cc_10
.cc_top cc_11,.Lxta.call_labels18
	.ascii	"C:/Users/takaaki/git/sw_xSSDAC/module_usb_audio/endpoint0/audiorequests.xc"
	.byte	0
	.long	374
	.long	.Lxta.call_labels18
.cc_bottom cc_11
.cc_top cc_12,.Lxta.call_labels16
	.ascii	"C:/Users/takaaki/git/sw_xSSDAC/module_usb_audio/endpoint0/audiorequests.xc"
	.byte	0
	.long	480
	.long	.Lxta.call_labels16
.cc_bottom cc_12
.cc_top cc_13,.Lxta.call_labels17
	.ascii	"C:/Users/takaaki/git/sw_xSSDAC/module_usb_audio/endpoint0/audiorequests.xc"
	.byte	0
	.long	495
	.long	.Lxta.call_labels17
.cc_bottom cc_13
.cc_top cc_14,.Lxta.call_labels14
	.ascii	"C:/Users/takaaki/git/sw_xSSDAC/module_usb_audio/endpoint0/audiorequests.xc"
	.byte	0
	.long	529
	.long	.Lxta.call_labels14
.cc_bottom cc_14
.cc_top cc_15,.Lxta.call_labels13
	.ascii	"C:/Users/takaaki/git/sw_xSSDAC/module_usb_audio/endpoint0/audiorequests.xc"
	.byte	0
	.long	581
	.long	.Lxta.call_labels13
.cc_bottom cc_15
.cc_top cc_16,.Lxta.call_labels19
	.ascii	"C:/Users/takaaki/git/sw_xSSDAC/module_usb_audio/endpoint0/audiorequests.xc"
	.byte	0
	.long	600
	.long	.Lxta.call_labels19
.cc_bottom cc_16
.cc_top cc_17,.Lxta.call_labels20
	.ascii	"C:/Users/takaaki/git/sw_xSSDAC/module_usb_audio/endpoint0/audiorequests.xc"
	.byte	0
	.long	601
	.long	.Lxta.call_labels20
.cc_bottom cc_17
.cc_top cc_18,.Lxta.call_labels11
	.ascii	"C:/Users/takaaki/git/sw_xSSDAC/module_usb_audio/endpoint0/audiorequests.xc"
	.byte	0
	.long	895
	.long	.Lxta.call_labels11
.cc_bottom cc_18
.cc_top cc_19,.Lxta.call_labels10
	.ascii	"C:/Users/takaaki/git/sw_xSSDAC/module_usb_audio/endpoint0/audiorequests.xc"
	.byte	0
	.long	903
	.long	.Lxta.call_labels10
.cc_bottom cc_19
.cc_top cc_20,.Lxta.call_labels15
	.ascii	"C:/Users/takaaki/git/sw_xSSDAC/module_usb_audio/endpoint0/audiorequests.xc"
	.byte	0
	.long	948
	.long	.Lxta.call_labels15
.cc_bottom cc_20
.cc_top cc_21,.Lxta.call_labels22
	.ascii	"C:/Users/takaaki/git/sw_xSSDAC/module_usb_audio/endpoint0/audiorequests.xc"
	.byte	0
	.long	1093
	.long	.Lxta.call_labels22
.cc_bottom cc_21
.cc_top cc_22,.Lxta.call_labels23
	.ascii	"C:/Users/takaaki/git/sw_xSSDAC/module_usb_audio/endpoint0/audiorequests.xc"
	.byte	0
	.long	1147
	.long	.Lxta.call_labels23
.cc_bottom cc_22
.cc_top cc_23,.Lxta.call_labels21
	.ascii	"C:/Users/takaaki/git/sw_xSSDAC/module_usb_audio/endpoint0/audiorequests.xc"
	.byte	0
	.long	1160
	.long	.Lxta.call_labels21
.cc_bottom cc_23
.cc_top cc_24,.Lxta.call_labels24
	.ascii	"C:/Users/takaaki/git/sw_xSSDAC/module_usb_audio/endpoint0/audiorequests.xc"
	.byte	0
	.long	1186
	.long	.Lxta.call_labels24
.cc_bottom cc_24
.cc_top cc_25,.Lxta.call_labels26
	.ascii	"C:/Users/takaaki/git/sw_xSSDAC/module_usb_audio/endpoint0/audiorequests.xc"
	.byte	0
	.long	1222
	.long	.Lxta.call_labels26
.cc_bottom cc_25
.cc_top cc_26,.Lxta.call_labels27
	.ascii	"C:/Users/takaaki/git/sw_xSSDAC/module_usb_audio/endpoint0/audiorequests.xc"
	.byte	0
	.long	1223
	.long	.Lxta.call_labels27
.cc_bottom cc_26
.cc_top cc_27,.Lxta.call_labels25
	.ascii	"C:/Users/takaaki/git/sw_xSSDAC/module_usb_audio/endpoint0/audiorequests.xc"
	.byte	0
	.long	1289
	.long	.Lxta.call_labels25
.cc_bottom cc_27
.Lentries_end1:
	.section	.xtaendpointtable,"",@progbits
.Lentries_start2:
	.long	.Lentries_end3-.Lentries_start2
	.long	0
	.ascii	"C:\\Users\\takaaki\\git\\sw_xSSDAC\\app_usb_ssdac_xSSDAC-SD-V2\\.build_1i2o2xxxxxx"
	.byte	0
.cc_top cc_28,.Lxta.endpoint_labels0
	.ascii	"C:/Users/takaaki/git/sw_xSSDAC/module_usb_audio/endpoint0/audiorequests.xc"
	.byte	0
	.long	102
	.long	.Lxta.endpoint_labels0
.cc_bottom cc_28
.cc_top cc_29,.Lxta.endpoint_labels13
	.ascii	"C:/Users/takaaki/git/sw_xSSDAC/module_usb_audio/endpoint0/audiorequests.xc"
	.byte	0
	.long	102
	.long	.Lxta.endpoint_labels13
.cc_bottom cc_29
.cc_top cc_30,.Lxta.endpoint_labels16
	.ascii	"C:/Users/takaaki/git/sw_xSSDAC/module_usb_audio/endpoint0/audiorequests.xc"
	.byte	0
	.long	102
	.long	.Lxta.endpoint_labels16
.cc_bottom cc_30
.cc_top cc_31,.Lxta.endpoint_labels8
	.ascii	"C:/Users/takaaki/git/sw_xSSDAC/module_usb_audio/endpoint0/audiorequests.xc"
	.byte	0
	.long	361
	.long	.Lxta.endpoint_labels8
.cc_bottom cc_31
.cc_top cc_32,.Lxta.endpoint_labels9
	.ascii	"C:/Users/takaaki/git/sw_xSSDAC/module_usb_audio/endpoint0/audiorequests.xc"
	.byte	0
	.long	362
	.long	.Lxta.endpoint_labels9
.cc_bottom cc_32
.cc_top cc_33,.Lxta.endpoint_labels1
	.ascii	"C:/Users/takaaki/git/sw_xSSDAC/module_usb_audio/endpoint0/audiorequests.xc"
	.byte	0
	.long	448
	.long	.Lxta.endpoint_labels1
.cc_bottom cc_33
.cc_top cc_34,.Lxta.endpoint_labels2
	.ascii	"C:/Users/takaaki/git/sw_xSSDAC/module_usb_audio/endpoint0/audiorequests.xc"
	.byte	0
	.long	449
	.long	.Lxta.endpoint_labels2
.cc_bottom cc_34
.cc_top cc_35,.Lxta.endpoint_labels3
	.ascii	"C:/Users/takaaki/git/sw_xSSDAC/module_usb_audio/endpoint0/audiorequests.xc"
	.byte	0
	.long	450
	.long	.Lxta.endpoint_labels3
.cc_bottom cc_35
.cc_top cc_36,.Lxta.endpoint_labels4
	.ascii	"C:/Users/takaaki/git/sw_xSSDAC/module_usb_audio/endpoint0/audiorequests.xc"
	.byte	0
	.long	451
	.long	.Lxta.endpoint_labels4
.cc_bottom cc_36
.cc_top cc_37,.Lxta.endpoint_labels10
	.ascii	"C:/Users/takaaki/git/sw_xSSDAC/module_usb_audio/endpoint0/audiorequests.xc"
	.byte	0
	.long	490
	.long	.Lxta.endpoint_labels10
.cc_bottom cc_37
.cc_top cc_38,.Lxta.endpoint_labels11
	.ascii	"C:/Users/takaaki/git/sw_xSSDAC/module_usb_audio/endpoint0/audiorequests.xc"
	.byte	0
	.long	491
	.long	.Lxta.endpoint_labels11
.cc_bottom cc_38
.cc_top cc_39,.Lxta.endpoint_labels12
	.ascii	"C:/Users/takaaki/git/sw_xSSDAC/module_usb_audio/endpoint0/audiorequests.xc"
	.byte	0
	.long	492
	.long	.Lxta.endpoint_labels12
.cc_bottom cc_39
.cc_top cc_40,.Lxta.endpoint_labels5
	.ascii	"C:/Users/takaaki/git/sw_xSSDAC/module_usb_audio/endpoint0/audiorequests.xc"
	.byte	0
	.long	505
	.long	.Lxta.endpoint_labels5
.cc_bottom cc_40
.cc_top cc_41,.Lxta.endpoint_labels6
	.ascii	"C:/Users/takaaki/git/sw_xSSDAC/module_usb_audio/endpoint0/audiorequests.xc"
	.byte	0
	.long	506
	.long	.Lxta.endpoint_labels6
.cc_bottom cc_41
.cc_top cc_42,.Lxta.endpoint_labels7
	.ascii	"C:/Users/takaaki/git/sw_xSSDAC/module_usb_audio/endpoint0/audiorequests.xc"
	.byte	0
	.long	507
	.long	.Lxta.endpoint_labels7
.cc_bottom cc_42
.cc_top cc_43,.Lxta.endpoint_labels14
	.ascii	"C:/Users/takaaki/git/sw_xSSDAC/module_usb_audio/endpoint0/audiorequests.xc"
	.byte	0
	.long	1137
	.long	.Lxta.endpoint_labels14
.cc_bottom cc_43
.cc_top cc_44,.Lxta.endpoint_labels15
	.ascii	"C:/Users/takaaki/git/sw_xSSDAC/module_usb_audio/endpoint0/audiorequests.xc"
	.byte	0
	.long	1138
	.long	.Lxta.endpoint_labels15
.cc_bottom cc_44
.Lentries_end3:
	.section	.xtalabeltable,"",@progbits
.Lentries_start4:
	.long	.Lentries_end5-.Lentries_start4
	.long	0
	.ascii	"C:\\Users\\takaaki\\git\\sw_xSSDAC\\app_usb_ssdac_xSSDAC-SD-V2\\.build_1i2o2xxxxxx"
	.byte	0
.cc_top cc_45,.Lxtalabel0
	.ascii	"C:/Users/takaaki/git/sw_xSSDAC/module_usb_audio/endpoint0/audiorequests.xc"
	.byte	0
	.long	57
	.long	62
	.long	.Lxtalabel0
.cc_bottom cc_45
.cc_top cc_46,.Lxtalabel37
	.ascii	"C:/Users/takaaki/git/sw_xSSDAC/module_usb_audio/endpoint0/audiorequests.xc"
	.byte	0
	.long	66
	.long	69
	.long	.Lxtalabel37
.cc_bottom cc_46
.cc_top cc_47,.Lxtalabel37
	.ascii	"C:/Users/takaaki/git/sw_xSSDAC/module_usb_audio/endpoint0/audiorequests.xc"
	.byte	0
	.long	66
	.long	69
	.long	.Lxtalabel37
.cc_bottom cc_47
.cc_top cc_48,.Lxtalabel37
	.ascii	"C:/Users/takaaki/git/sw_xSSDAC/module_usb_audio/endpoint0/audiorequests.xc"
	.byte	0
	.long	66
	.long	69
	.long	.Lxtalabel37
.cc_bottom cc_48
.cc_top cc_49,.Lxtalabel28
	.ascii	"C:/Users/takaaki/git/sw_xSSDAC/module_usb_audio/endpoint0/audiorequests.xc"
	.byte	0
	.long	66
	.long	69
	.long	.Lxtalabel28
.cc_bottom cc_49
.cc_top cc_50,.Lxtalabel37
	.ascii	"C:/Users/takaaki/git/sw_xSSDAC/module_usb_audio/endpoint0/audiorequests.xc"
	.byte	0
	.long	66
	.long	69
	.long	.Lxtalabel37
.cc_bottom cc_50
.cc_top cc_51,.Lxtalabel1
	.ascii	"C:/Users/takaaki/git/sw_xSSDAC/module_usb_audio/endpoint0/audiorequests.xc"
	.byte	0
	.long	72
	.long	80
	.long	.Lxtalabel1
.cc_bottom cc_51
.cc_top cc_52,.Lxtalabel2
	.ascii	"C:/Users/takaaki/git/sw_xSSDAC/module_usb_audio/endpoint0/audiorequests.xc"
	.byte	0
	.long	84
	.long	88
	.long	.Lxtalabel2
.cc_bottom cc_52
.cc_top cc_53,.Lxtalabel87
	.ascii	"C:/Users/takaaki/git/sw_xSSDAC/module_usb_audio/endpoint0/audiorequests.xc"
	.byte	0
	.long	84
	.long	88
	.long	.Lxtalabel87
.cc_bottom cc_53
.cc_top cc_54,.Lxtalabel3
	.ascii	"C:/Users/takaaki/git/sw_xSSDAC/module_usb_audio/endpoint0/audiorequests.xc"
	.byte	0
	.long	84
	.long	88
	.long	.Lxtalabel3
.cc_bottom cc_54
.cc_top cc_55,.Lxtalabel4
	.ascii	"C:/Users/takaaki/git/sw_xSSDAC/module_usb_audio/endpoint0/audiorequests.xc"
	.byte	0
	.long	84
	.long	88
	.long	.Lxtalabel4
.cc_bottom cc_55
.cc_top cc_56,.Lxtalabel65
	.ascii	"C:/Users/takaaki/git/sw_xSSDAC/module_usb_audio/endpoint0/audiorequests.xc"
	.byte	0
	.long	84
	.long	88
	.long	.Lxtalabel65
.cc_bottom cc_56
.cc_top cc_57,.Lxtalabel101
	.ascii	"C:/Users/takaaki/git/sw_xSSDAC/module_usb_audio/endpoint0/audiorequests.xc"
	.byte	0
	.long	84
	.long	88
	.long	.Lxtalabel101
.cc_bottom cc_57
.cc_top cc_58,.Lxtalabel102
	.ascii	"C:/Users/takaaki/git/sw_xSSDAC/module_usb_audio/endpoint0/audiorequests.xc"
	.byte	0
	.long	84
	.long	88
	.long	.Lxtalabel102
.cc_bottom cc_58
.cc_top cc_59,.Lxtalabel103
	.ascii	"C:/Users/takaaki/git/sw_xSSDAC/module_usb_audio/endpoint0/audiorequests.xc"
	.byte	0
	.long	84
	.long	88
	.long	.Lxtalabel103
.cc_bottom cc_59
.cc_top cc_60,.Lxtalabel66
	.ascii	"C:/Users/takaaki/git/sw_xSSDAC/module_usb_audio/endpoint0/audiorequests.xc"
	.byte	0
	.long	84
	.long	88
	.long	.Lxtalabel66
.cc_bottom cc_60
.cc_top cc_61,.Lxtalabel2
	.ascii	"C:/Users/takaaki/git/sw_xSSDAC/module_usb_audio/endpoint0/audiorequests.xc"
	.byte	0
	.long	90
	.long	90
	.long	.Lxtalabel2
.cc_bottom cc_61
.cc_top cc_62,.Lxtalabel3
	.ascii	"C:/Users/takaaki/git/sw_xSSDAC/module_usb_audio/endpoint0/audiorequests.xc"
	.byte	0
	.long	90
	.long	90
	.long	.Lxtalabel3
.cc_bottom cc_62
.cc_top cc_63,.Lxtalabel4
	.ascii	"C:/Users/takaaki/git/sw_xSSDAC/module_usb_audio/endpoint0/audiorequests.xc"
	.byte	0
	.long	90
	.long	90
	.long	.Lxtalabel4
.cc_bottom cc_63
.cc_top cc_64,.Lxtalabel101
	.ascii	"C:/Users/takaaki/git/sw_xSSDAC/module_usb_audio/endpoint0/audiorequests.xc"
	.byte	0
	.long	90
	.long	90
	.long	.Lxtalabel101
.cc_bottom cc_64
.cc_top cc_65,.Lxtalabel87
	.ascii	"C:/Users/takaaki/git/sw_xSSDAC/module_usb_audio/endpoint0/audiorequests.xc"
	.byte	0
	.long	90
	.long	90
	.long	.Lxtalabel87
.cc_bottom cc_65
.cc_top cc_66,.Lxtalabel103
	.ascii	"C:/Users/takaaki/git/sw_xSSDAC/module_usb_audio/endpoint0/audiorequests.xc"
	.byte	0
	.long	90
	.long	90
	.long	.Lxtalabel103
.cc_bottom cc_66
.cc_top cc_67,.Lxtalabel102
	.ascii	"C:/Users/takaaki/git/sw_xSSDAC/module_usb_audio/endpoint0/audiorequests.xc"
	.byte	0
	.long	90
	.long	90
	.long	.Lxtalabel102
.cc_bottom cc_67
.cc_top cc_68,.Lxtalabel65
	.ascii	"C:/Users/takaaki/git/sw_xSSDAC/module_usb_audio/endpoint0/audiorequests.xc"
	.byte	0
	.long	90
	.long	90
	.long	.Lxtalabel65
.cc_bottom cc_68
.cc_top cc_69,.Lxtalabel66
	.ascii	"C:/Users/takaaki/git/sw_xSSDAC/module_usb_audio/endpoint0/audiorequests.xc"
	.byte	0
	.long	90
	.long	90
	.long	.Lxtalabel66
.cc_bottom cc_69
.cc_top cc_70,.Lxtalabel2
	.ascii	"C:/Users/takaaki/git/sw_xSSDAC/module_usb_audio/endpoint0/audiorequests.xc"
	.byte	0
	.long	92
	.long	92
	.long	.Lxtalabel2
.cc_bottom cc_70
.cc_top cc_71,.Lxtalabel102
	.ascii	"C:/Users/takaaki/git/sw_xSSDAC/module_usb_audio/endpoint0/audiorequests.xc"
	.byte	0
	.long	92
	.long	92
	.long	.Lxtalabel102
.cc_bottom cc_71
.cc_top cc_72,.Lxtalabel3
	.ascii	"C:/Users/takaaki/git/sw_xSSDAC/module_usb_audio/endpoint0/audiorequests.xc"
	.byte	0
	.long	92
	.long	92
	.long	.Lxtalabel3
.cc_bottom cc_72
.cc_top cc_73,.Lxtalabel101
	.ascii	"C:/Users/takaaki/git/sw_xSSDAC/module_usb_audio/endpoint0/audiorequests.xc"
	.byte	0
	.long	92
	.long	92
	.long	.Lxtalabel101
.cc_bottom cc_73
.cc_top cc_74,.Lxtalabel66
	.ascii	"C:/Users/takaaki/git/sw_xSSDAC/module_usb_audio/endpoint0/audiorequests.xc"
	.byte	0
	.long	92
	.long	92
	.long	.Lxtalabel66
.cc_bottom cc_74
.cc_top cc_75,.Lxtalabel87
	.ascii	"C:/Users/takaaki/git/sw_xSSDAC/module_usb_audio/endpoint0/audiorequests.xc"
	.byte	0
	.long	92
	.long	92
	.long	.Lxtalabel87
.cc_bottom cc_75
.cc_top cc_76,.Lxtalabel65
	.ascii	"C:/Users/takaaki/git/sw_xSSDAC/module_usb_audio/endpoint0/audiorequests.xc"
	.byte	0
	.long	92
	.long	92
	.long	.Lxtalabel65
.cc_bottom cc_76
.cc_top cc_77,.Lxtalabel4
	.ascii	"C:/Users/takaaki/git/sw_xSSDAC/module_usb_audio/endpoint0/audiorequests.xc"
	.byte	0
	.long	92
	.long	92
	.long	.Lxtalabel4
.cc_bottom cc_77
.cc_top cc_78,.Lxtalabel103
	.ascii	"C:/Users/takaaki/git/sw_xSSDAC/module_usb_audio/endpoint0/audiorequests.xc"
	.byte	0
	.long	92
	.long	92
	.long	.Lxtalabel103
.cc_bottom cc_78
.cc_top cc_79,.Lxtalabel2
	.ascii	"C:/Users/takaaki/git/sw_xSSDAC/module_usb_audio/endpoint0/audiorequests.xc"
	.byte	0
	.long	101
	.long	103
	.long	.Lxtalabel2
.cc_bottom cc_79
.cc_top cc_80,.Lxtalabel3
	.ascii	"C:/Users/takaaki/git/sw_xSSDAC/module_usb_audio/endpoint0/audiorequests.xc"
	.byte	0
	.long	101
	.long	103
	.long	.Lxtalabel3
.cc_bottom cc_80
.cc_top cc_81,.Lxtalabel4
	.ascii	"C:/Users/takaaki/git/sw_xSSDAC/module_usb_audio/endpoint0/audiorequests.xc"
	.byte	0
	.long	101
	.long	103
	.long	.Lxtalabel4
.cc_bottom cc_81
.cc_top cc_82,.Lxtalabel65
	.ascii	"C:/Users/takaaki/git/sw_xSSDAC/module_usb_audio/endpoint0/audiorequests.xc"
	.byte	0
	.long	101
	.long	103
	.long	.Lxtalabel65
.cc_bottom cc_82
.cc_top cc_83,.Lxtalabel103
	.ascii	"C:/Users/takaaki/git/sw_xSSDAC/module_usb_audio/endpoint0/audiorequests.xc"
	.byte	0
	.long	101
	.long	103
	.long	.Lxtalabel103
.cc_bottom cc_83
.cc_top cc_84,.Lxtalabel66
	.ascii	"C:/Users/takaaki/git/sw_xSSDAC/module_usb_audio/endpoint0/audiorequests.xc"
	.byte	0
	.long	101
	.long	103
	.long	.Lxtalabel66
.cc_bottom cc_84
.cc_top cc_85,.Lxtalabel87
	.ascii	"C:/Users/takaaki/git/sw_xSSDAC/module_usb_audio/endpoint0/audiorequests.xc"
	.byte	0
	.long	101
	.long	103
	.long	.Lxtalabel87
.cc_bottom cc_85
.cc_top cc_86,.Lxtalabel101
	.ascii	"C:/Users/takaaki/git/sw_xSSDAC/module_usb_audio/endpoint0/audiorequests.xc"
	.byte	0
	.long	101
	.long	103
	.long	.Lxtalabel101
.cc_bottom cc_86
.cc_top cc_87,.Lxtalabel102
	.ascii	"C:/Users/takaaki/git/sw_xSSDAC/module_usb_audio/endpoint0/audiorequests.xc"
	.byte	0
	.long	101
	.long	103
	.long	.Lxtalabel102
.cc_bottom cc_87
.cc_top cc_88,.Lxtalabel17
	.ascii	"C:/Users/takaaki/git/sw_xSSDAC/module_usb_audio/endpoint0/audiorequests.xc"
	.byte	0
	.long	108
	.long	110
	.long	.Lxtalabel17
.cc_bottom cc_88
.cc_top cc_89,.Lxtalabel15
	.ascii	"C:/Users/takaaki/git/sw_xSSDAC/module_usb_audio/endpoint0/audiorequests.xc"
	.byte	0
	.long	108
	.long	110
	.long	.Lxtalabel15
.cc_bottom cc_89
.cc_top cc_90,.Lxtalabel16
	.ascii	"C:/Users/takaaki/git/sw_xSSDAC/module_usb_audio/endpoint0/audiorequests.xc"
	.byte	0
	.long	108
	.long	110
	.long	.Lxtalabel16
.cc_bottom cc_90
.cc_top cc_91,.Lxtalabel17
	.ascii	"C:/Users/takaaki/git/sw_xSSDAC/module_usb_audio/endpoint0/audiorequests.xc"
	.byte	0
	.long	113
	.long	113
	.long	.Lxtalabel17
.cc_bottom cc_91
.cc_top cc_92,.Lxtalabel15
	.ascii	"C:/Users/takaaki/git/sw_xSSDAC/module_usb_audio/endpoint0/audiorequests.xc"
	.byte	0
	.long	113
	.long	113
	.long	.Lxtalabel15
.cc_bottom cc_92
.cc_top cc_93,.Lxtalabel16
	.ascii	"C:/Users/takaaki/git/sw_xSSDAC/module_usb_audio/endpoint0/audiorequests.xc"
	.byte	0
	.long	113
	.long	113
	.long	.Lxtalabel16
.cc_bottom cc_93
.cc_top cc_94,.Lxtalabel17
	.ascii	"C:/Users/takaaki/git/sw_xSSDAC/module_usb_audio/endpoint0/audiorequests.xc"
	.byte	0
	.long	116
	.long	118
	.long	.Lxtalabel17
.cc_bottom cc_94
.cc_top cc_95,.Lxtalabel15
	.ascii	"C:/Users/takaaki/git/sw_xSSDAC/module_usb_audio/endpoint0/audiorequests.xc"
	.byte	0
	.long	116
	.long	118
	.long	.Lxtalabel15
.cc_bottom cc_95
.cc_top cc_96,.Lxtalabel16
	.ascii	"C:/Users/takaaki/git/sw_xSSDAC/module_usb_audio/endpoint0/audiorequests.xc"
	.byte	0
	.long	116
	.long	118
	.long	.Lxtalabel16
.cc_bottom cc_96
.cc_top cc_97,.Lxtalabel12
	.ascii	"C:/Users/takaaki/git/sw_xSSDAC/module_usb_audio/endpoint0/audiorequests.xc"
	.byte	0
	.long	136
	.long	137
	.long	.Lxtalabel12
.cc_bottom cc_97
.cc_top cc_98,.Lxtalabel8
	.ascii	"C:/Users/takaaki/git/sw_xSSDAC/module_usb_audio/endpoint0/audiorequests.xc"
	.byte	0
	.long	136
	.long	137
	.long	.Lxtalabel8
.cc_bottom cc_98
.cc_top cc_99,.Lxtalabel8
	.ascii	"C:/Users/takaaki/git/sw_xSSDAC/module_usb_audio/endpoint0/audiorequests.xc"
	.byte	0
	.long	139
	.long	139
	.long	.Lxtalabel8
.cc_bottom cc_99
.cc_top cc_100,.Lxtalabel12
	.ascii	"C:/Users/takaaki/git/sw_xSSDAC/module_usb_audio/endpoint0/audiorequests.xc"
	.byte	0
	.long	139
	.long	139
	.long	.Lxtalabel12
.cc_bottom cc_100
.cc_top cc_101,.Lxtalabel8
	.ascii	"C:/Users/takaaki/git/sw_xSSDAC/module_usb_audio/endpoint0/audiorequests.xc"
	.byte	0
	.long	142
	.long	142
	.long	.Lxtalabel8
.cc_bottom cc_101
.cc_top cc_102,.Lxtalabel12
	.ascii	"C:/Users/takaaki/git/sw_xSSDAC/module_usb_audio/endpoint0/audiorequests.xc"
	.byte	0
	.long	142
	.long	142
	.long	.Lxtalabel12
.cc_bottom cc_102
.cc_top cc_103,.Lxtalabel8
	.ascii	"C:/Users/takaaki/git/sw_xSSDAC/module_usb_audio/endpoint0/audiorequests.xc"
	.byte	0
	.long	144
	.long	146
	.long	.Lxtalabel8
.cc_bottom cc_103
.cc_top cc_104,.Lxtalabel12
	.ascii	"C:/Users/takaaki/git/sw_xSSDAC/module_usb_audio/endpoint0/audiorequests.xc"
	.byte	0
	.long	144
	.long	146
	.long	.Lxtalabel12
.cc_bottom cc_104
.cc_top cc_105,.Lxtalabel13
	.ascii	"C:/Users/takaaki/git/sw_xSSDAC/module_usb_audio/endpoint0/audiorequests.xc"
	.byte	0
	.long	147
	.long	148
	.long	.Lxtalabel13
.cc_bottom cc_105
.cc_top cc_106,.Lxtalabel13
	.ascii	"C:/Users/takaaki/git/sw_xSSDAC/module_usb_audio/endpoint0/audiorequests.xc"
	.byte	0
	.long	150
	.long	150
	.long	.Lxtalabel13
.cc_bottom cc_106
.cc_top cc_107,.Lxtalabel14
	.ascii	"C:/Users/takaaki/git/sw_xSSDAC/module_usb_audio/endpoint0/audiorequests.xc"
	.byte	0
	.long	151
	.long	151
	.long	.Lxtalabel14
.cc_bottom cc_107
.cc_top cc_108,.Lxtalabel14
	.ascii	"C:/Users/takaaki/git/sw_xSSDAC/module_usb_audio/endpoint0/audiorequests.xc"
	.byte	0
	.long	154
	.long	154
	.long	.Lxtalabel14
.cc_bottom cc_108
.cc_top cc_109,.Lxtalabel14
	.ascii	"C:/Users/takaaki/git/sw_xSSDAC/module_usb_audio/endpoint0/audiorequests.xc"
	.byte	0
	.long	156
	.long	156
	.long	.Lxtalabel14
.cc_bottom cc_109
.cc_top cc_110,.Lxtalabel14
	.ascii	"C:/Users/takaaki/git/sw_xSSDAC/module_usb_audio/endpoint0/audiorequests.xc"
	.byte	0
	.long	167
	.long	167
	.long	.Lxtalabel14
.cc_bottom cc_110
.cc_top cc_111,.Lxtalabel14
	.ascii	"C:/Users/takaaki/git/sw_xSSDAC/module_usb_audio/endpoint0/audiorequests.xc"
	.byte	0
	.long	169
	.long	169
	.long	.Lxtalabel14
.cc_bottom cc_111
.cc_top cc_112,.Lxtalabel9
	.ascii	"C:/Users/takaaki/git/sw_xSSDAC/module_usb_audio/endpoint0/audiorequests.xc"
	.byte	0
	.long	174
	.long	176
	.long	.Lxtalabel9
.cc_bottom cc_112
.cc_top cc_113,.Lxtalabel12
	.ascii	"C:/Users/takaaki/git/sw_xSSDAC/module_usb_audio/endpoint0/audiorequests.xc"
	.byte	0
	.long	200
	.long	201
	.long	.Lxtalabel12
.cc_bottom cc_113
.cc_top cc_114,.Lxtalabel8
	.ascii	"C:/Users/takaaki/git/sw_xSSDAC/module_usb_audio/endpoint0/audiorequests.xc"
	.byte	0
	.long	200
	.long	201
	.long	.Lxtalabel8
.cc_bottom cc_114
.cc_top cc_115,.Lxtalabel5
	.ascii	"C:/Users/takaaki/git/sw_xSSDAC/module_usb_audio/endpoint0/audiorequests.xc"
	.byte	0
	.long	205
	.long	206
	.long	.Lxtalabel5
.cc_bottom cc_115
.cc_top cc_116,.Lxtalabel5
	.ascii	"C:/Users/takaaki/git/sw_xSSDAC/module_usb_audio/endpoint0/audiorequests.xc"
	.byte	0
	.long	208
	.long	208
	.long	.Lxtalabel5
.cc_bottom cc_116
.cc_top cc_117,.Lxtalabel5
	.ascii	"C:/Users/takaaki/git/sw_xSSDAC/module_usb_audio/endpoint0/audiorequests.xc"
	.byte	0
	.long	211
	.long	211
	.long	.Lxtalabel5
.cc_bottom cc_117
.cc_top cc_118,.Lxtalabel5
	.ascii	"C:/Users/takaaki/git/sw_xSSDAC/module_usb_audio/endpoint0/audiorequests.xc"
	.byte	0
	.long	214
	.long	214
	.long	.Lxtalabel5
.cc_bottom cc_118
.cc_top cc_119,.Lxtalabel12
	.ascii	"C:/Users/takaaki/git/sw_xSSDAC/module_usb_audio/endpoint0/audiorequests.xc"
	.byte	0
	.long	215
	.long	217
	.long	.Lxtalabel12
.cc_bottom cc_119
.cc_top cc_120,.Lxtalabel8
	.ascii	"C:/Users/takaaki/git/sw_xSSDAC/module_usb_audio/endpoint0/audiorequests.xc"
	.byte	0
	.long	215
	.long	217
	.long	.Lxtalabel8
.cc_bottom cc_120
.cc_top cc_121,.Lxtalabel10
	.ascii	"C:/Users/takaaki/git/sw_xSSDAC/module_usb_audio/endpoint0/audiorequests.xc"
	.byte	0
	.long	218
	.long	222
	.long	.Lxtalabel10
.cc_bottom cc_121
.cc_top cc_122,.Lxtalabel6
	.ascii	"C:/Users/takaaki/git/sw_xSSDAC/module_usb_audio/endpoint0/audiorequests.xc"
	.byte	0
	.long	218
	.long	222
	.long	.Lxtalabel6
.cc_bottom cc_122
.cc_top cc_123,.Lxtalabel11
	.ascii	"C:/Users/takaaki/git/sw_xSSDAC/module_usb_audio/endpoint0/audiorequests.xc"
	.byte	0
	.long	223
	.long	223
	.long	.Lxtalabel11
.cc_bottom cc_123
.cc_top cc_124,.Lxtalabel11
	.ascii	"C:/Users/takaaki/git/sw_xSSDAC/module_usb_audio/endpoint0/audiorequests.xc"
	.byte	0
	.long	226
	.long	227
	.long	.Lxtalabel11
.cc_bottom cc_124
.cc_top cc_125,.Lxtalabel11
	.ascii	"C:/Users/takaaki/git/sw_xSSDAC/module_usb_audio/endpoint0/audiorequests.xc"
	.byte	0
	.long	229
	.long	229
	.long	.Lxtalabel11
.cc_bottom cc_125
.cc_top cc_126,.Lxtalabel11
	.ascii	"C:/Users/takaaki/git/sw_xSSDAC/module_usb_audio/endpoint0/audiorequests.xc"
	.byte	0
	.long	240
	.long	240
	.long	.Lxtalabel11
.cc_bottom cc_126
.cc_top cc_127,.Lxtalabel11
	.ascii	"C:/Users/takaaki/git/sw_xSSDAC/module_usb_audio/endpoint0/audiorequests.xc"
	.byte	0
	.long	242
	.long	244
	.long	.Lxtalabel11
.cc_bottom cc_127
.cc_top cc_128,.Lxtalabel7
	.ascii	"C:/Users/takaaki/git/sw_xSSDAC/module_usb_audio/endpoint0/audiorequests.xc"
	.byte	0
	.long	245
	.long	245
	.long	.Lxtalabel7
.cc_bottom cc_128
.cc_top cc_129,.Lxtalabel7
	.ascii	"C:/Users/takaaki/git/sw_xSSDAC/module_usb_audio/endpoint0/audiorequests.xc"
	.byte	0
	.long	248
	.long	249
	.long	.Lxtalabel7
.cc_bottom cc_129
.cc_top cc_130,.Lxtalabel7
	.ascii	"C:/Users/takaaki/git/sw_xSSDAC/module_usb_audio/endpoint0/audiorequests.xc"
	.byte	0
	.long	251
	.long	251
	.long	.Lxtalabel7
.cc_bottom cc_130
.cc_top cc_131,.Lxtalabel7
	.ascii	"C:/Users/takaaki/git/sw_xSSDAC/module_usb_audio/endpoint0/audiorequests.xc"
	.byte	0
	.long	262
	.long	262
	.long	.Lxtalabel7
.cc_bottom cc_131
.cc_top cc_132,.Lxtalabel7
	.ascii	"C:/Users/takaaki/git/sw_xSSDAC/module_usb_audio/endpoint0/audiorequests.xc"
	.byte	0
	.long	264
	.long	266
	.long	.Lxtalabel7
.cc_bottom cc_132
.cc_top cc_133,.Lxtalabel18
	.ascii	"C:/Users/takaaki/git/sw_xSSDAC/module_usb_audio/endpoint0/audiorequests.xc"
	.byte	0
	.long	268
	.long	268
	.long	.Lxtalabel18
.cc_bottom cc_133
.cc_top cc_134,.Lxtalabel29
	.ascii	"C:/Users/takaaki/git/sw_xSSDAC/module_usb_audio/endpoint0/audiorequests.xc"
	.byte	0
	.long	277
	.long	281
	.long	.Lxtalabel29
.cc_bottom cc_134
.cc_top cc_135,.Lxtalabel19
	.ascii	"C:/Users/takaaki/git/sw_xSSDAC/module_usb_audio/endpoint0/audiorequests.xc"
	.byte	0
	.long	277
	.long	281
	.long	.Lxtalabel19
.cc_bottom cc_135
.cc_top cc_136,.Lxtalabel29
	.ascii	"C:/Users/takaaki/git/sw_xSSDAC/module_usb_audio/endpoint0/audiorequests.xc"
	.byte	0
	.long	284
	.long	285
	.long	.Lxtalabel29
.cc_bottom cc_136
.cc_top cc_137,.Lxtalabel19
	.ascii	"C:/Users/takaaki/git/sw_xSSDAC/module_usb_audio/endpoint0/audiorequests.xc"
	.byte	0
	.long	284
	.long	285
	.long	.Lxtalabel19
.cc_bottom cc_137
.cc_top cc_138,.Lxtalabel19
	.ascii	"C:/Users/takaaki/git/sw_xSSDAC/module_usb_audio/endpoint0/audiorequests.xc"
	.byte	0
	.long	288
	.long	288
	.long	.Lxtalabel19
.cc_bottom cc_138
.cc_top cc_139,.Lxtalabel29
	.ascii	"C:/Users/takaaki/git/sw_xSSDAC/module_usb_audio/endpoint0/audiorequests.xc"
	.byte	0
	.long	288
	.long	288
	.long	.Lxtalabel29
.cc_bottom cc_139
.cc_top cc_140,.Lxtalabel38
	.ascii	"C:/Users/takaaki/git/sw_xSSDAC/module_usb_audio/endpoint0/audiorequests.xc"
	.byte	0
	.long	289
	.long	289
	.long	.Lxtalabel38
.cc_bottom cc_140
.cc_top cc_141,.Lxtalabel30
	.ascii	"C:/Users/takaaki/git/sw_xSSDAC/module_usb_audio/endpoint0/audiorequests.xc"
	.byte	0
	.long	289
	.long	289
	.long	.Lxtalabel30
.cc_bottom cc_141
.cc_top cc_142,.Lxtalabel50
	.ascii	"C:/Users/takaaki/git/sw_xSSDAC/module_usb_audio/endpoint0/audiorequests.xc"
	.byte	0
	.long	289
	.long	289
	.long	.Lxtalabel50
.cc_bottom cc_142
.cc_top cc_143,.Lxtalabel30
	.ascii	"C:/Users/takaaki/git/sw_xSSDAC/module_usb_audio/endpoint0/audiorequests.xc"
	.byte	0
	.long	291
	.long	291
	.long	.Lxtalabel30
.cc_bottom cc_143
.cc_top cc_144,.Lxtalabel38
	.ascii	"C:/Users/takaaki/git/sw_xSSDAC/module_usb_audio/endpoint0/audiorequests.xc"
	.byte	0
	.long	291
	.long	291
	.long	.Lxtalabel38
.cc_bottom cc_144
.cc_top cc_145,.Lxtalabel50
	.ascii	"C:/Users/takaaki/git/sw_xSSDAC/module_usb_audio/endpoint0/audiorequests.xc"
	.byte	0
	.long	291
	.long	291
	.long	.Lxtalabel50
.cc_bottom cc_145
.cc_top cc_146,.Lxtalabel30
	.ascii	"C:/Users/takaaki/git/sw_xSSDAC/module_usb_audio/endpoint0/audiorequests.xc"
	.byte	0
	.long	293
	.long	294
	.long	.Lxtalabel30
.cc_bottom cc_146
.cc_top cc_147,.Lxtalabel50
	.ascii	"C:/Users/takaaki/git/sw_xSSDAC/module_usb_audio/endpoint0/audiorequests.xc"
	.byte	0
	.long	293
	.long	294
	.long	.Lxtalabel50
.cc_bottom cc_147
.cc_top cc_148,.Lxtalabel38
	.ascii	"C:/Users/takaaki/git/sw_xSSDAC/module_usb_audio/endpoint0/audiorequests.xc"
	.byte	0
	.long	293
	.long	294
	.long	.Lxtalabel38
.cc_bottom cc_148
.cc_top cc_149,.Lxtalabel38
	.ascii	"C:/Users/takaaki/git/sw_xSSDAC/module_usb_audio/endpoint0/audiorequests.xc"
	.byte	0
	.long	296
	.long	296
	.long	.Lxtalabel38
.cc_bottom cc_149
.cc_top cc_150,.Lxtalabel30
	.ascii	"C:/Users/takaaki/git/sw_xSSDAC/module_usb_audio/endpoint0/audiorequests.xc"
	.byte	0
	.long	296
	.long	296
	.long	.Lxtalabel30
.cc_bottom cc_150
.cc_top cc_151,.Lxtalabel50
	.ascii	"C:/Users/takaaki/git/sw_xSSDAC/module_usb_audio/endpoint0/audiorequests.xc"
	.byte	0
	.long	296
	.long	296
	.long	.Lxtalabel50
.cc_bottom cc_151
.cc_top cc_152,.Lxtalabel38
	.ascii	"C:/Users/takaaki/git/sw_xSSDAC/module_usb_audio/endpoint0/audiorequests.xc"
	.byte	0
	.long	297
	.long	297
	.long	.Lxtalabel38
.cc_bottom cc_152
.cc_top cc_153,.Lxtalabel30
	.ascii	"C:/Users/takaaki/git/sw_xSSDAC/module_usb_audio/endpoint0/audiorequests.xc"
	.byte	0
	.long	297
	.long	297
	.long	.Lxtalabel30
.cc_bottom cc_153
.cc_top cc_154,.Lxtalabel50
	.ascii	"C:/Users/takaaki/git/sw_xSSDAC/module_usb_audio/endpoint0/audiorequests.xc"
	.byte	0
	.long	297
	.long	297
	.long	.Lxtalabel50
.cc_bottom cc_154
.cc_top cc_155,.Lxtalabel31
	.ascii	"C:/Users/takaaki/git/sw_xSSDAC/module_usb_audio/endpoint0/audiorequests.xc"
	.byte	0
	.long	299
	.long	299
	.long	.Lxtalabel31
.cc_bottom cc_155
.cc_top cc_156,.Lxtalabel44
	.ascii	"C:/Users/takaaki/git/sw_xSSDAC/module_usb_audio/endpoint0/audiorequests.xc"
	.byte	0
	.long	299
	.long	299
	.long	.Lxtalabel44
.cc_bottom cc_156
.cc_top cc_157,.Lxtalabel44
	.ascii	"C:/Users/takaaki/git/sw_xSSDAC/module_usb_audio/endpoint0/audiorequests.xc"
	.byte	0
	.long	301
	.long	302
	.long	.Lxtalabel44
.cc_bottom cc_157
.cc_top cc_158,.Lxtalabel31
	.ascii	"C:/Users/takaaki/git/sw_xSSDAC/module_usb_audio/endpoint0/audiorequests.xc"
	.byte	0
	.long	301
	.long	302
	.long	.Lxtalabel31
.cc_bottom cc_158
.cc_top cc_159,.Lxtalabel44
	.ascii	"C:/Users/takaaki/git/sw_xSSDAC/module_usb_audio/endpoint0/audiorequests.xc"
	.byte	0
	.long	304
	.long	304
	.long	.Lxtalabel44
.cc_bottom cc_159
.cc_top cc_160,.Lxtalabel31
	.ascii	"C:/Users/takaaki/git/sw_xSSDAC/module_usb_audio/endpoint0/audiorequests.xc"
	.byte	0
	.long	304
	.long	304
	.long	.Lxtalabel31
.cc_bottom cc_160
.cc_top cc_161,.Lxtalabel32
	.ascii	"C:/Users/takaaki/git/sw_xSSDAC/module_usb_audio/endpoint0/audiorequests.xc"
	.byte	0
	.long	305
	.long	305
	.long	.Lxtalabel32
.cc_bottom cc_161
.cc_top cc_162,.Lxtalabel32
	.ascii	"C:/Users/takaaki/git/sw_xSSDAC/module_usb_audio/endpoint0/audiorequests.xc"
	.byte	0
	.long	307
	.long	307
	.long	.Lxtalabel32
.cc_bottom cc_162
.cc_top cc_163,.Lxtalabel61
	.ascii	"C:/Users/takaaki/git/sw_xSSDAC/module_usb_audio/endpoint0/audiorequests.xc"
	.byte	0
	.long	308
	.long	308
	.long	.Lxtalabel61
.cc_bottom cc_163
.cc_top cc_164,.Lxtalabel61
	.ascii	"C:/Users/takaaki/git/sw_xSSDAC/module_usb_audio/endpoint0/audiorequests.xc"
	.byte	0
	.long	310
	.long	310
	.long	.Lxtalabel61
.cc_bottom cc_164
.cc_top cc_165,.Lxtalabel61
	.ascii	"C:/Users/takaaki/git/sw_xSSDAC/module_usb_audio/endpoint0/audiorequests.xc"
	.byte	0
	.long	311
	.long	313
	.long	.Lxtalabel61
.cc_bottom cc_165
.cc_top cc_166,.Lxtalabel62
	.ascii	"C:/Users/takaaki/git/sw_xSSDAC/module_usb_audio/endpoint0/audiorequests.xc"
	.byte	0
	.long	315
	.long	315
	.long	.Lxtalabel62
.cc_bottom cc_166
.cc_top cc_167,.Lxtalabel63
	.ascii	"C:/Users/takaaki/git/sw_xSSDAC/module_usb_audio/endpoint0/audiorequests.xc"
	.byte	0
	.long	316
	.long	316
	.long	.Lxtalabel63
.cc_bottom cc_167
.cc_top cc_168,.Lxtalabel63
	.ascii	"C:/Users/takaaki/git/sw_xSSDAC/module_usb_audio/endpoint0/audiorequests.xc"
	.byte	0
	.long	318
	.long	318
	.long	.Lxtalabel63
.cc_bottom cc_168
.cc_top cc_169,.Lxtalabel63
	.ascii	"C:/Users/takaaki/git/sw_xSSDAC/module_usb_audio/endpoint0/audiorequests.xc"
	.byte	0
	.long	321
	.long	321
	.long	.Lxtalabel63
.cc_bottom cc_169
.cc_top cc_170,.Lxtalabel64
	.ascii	"C:/Users/takaaki/git/sw_xSSDAC/module_usb_audio/endpoint0/audiorequests.xc"
	.byte	0
	.long	322
	.long	323
	.long	.Lxtalabel64
.cc_bottom cc_170
.cc_top cc_171,.Lxtalabel64
	.ascii	"C:/Users/takaaki/git/sw_xSSDAC/module_usb_audio/endpoint0/audiorequests.xc"
	.byte	0
	.long	325
	.long	325
	.long	.Lxtalabel64
.cc_bottom cc_171
.cc_top cc_172,.Lxtalabel64
	.ascii	"C:/Users/takaaki/git/sw_xSSDAC/module_usb_audio/endpoint0/audiorequests.xc"
	.byte	0
	.long	361
	.long	361
	.long	.Lxtalabel64
.cc_bottom cc_172
.cc_top cc_173,.Lxtalabel64
	.ascii	"C:/Users/takaaki/git/sw_xSSDAC/module_usb_audio/endpoint0/audiorequests.xc"
	.byte	0
	.long	362
	.long	362
	.long	.Lxtalabel64
.cc_bottom cc_173
.cc_top cc_174,.Lxtalabel64
	.ascii	"C:/Users/takaaki/git/sw_xSSDAC/module_usb_audio/endpoint0/audiorequests.xc"
	.byte	0
	.long	365
	.long	365
	.long	.Lxtalabel64
.cc_bottom cc_174
.cc_top cc_175,.Lxtalabel64
	.ascii	"C:/Users/takaaki/git/sw_xSSDAC/module_usb_audio/endpoint0/audiorequests.xc"
	.byte	0
	.long	367
	.long	367
	.long	.Lxtalabel64
.cc_bottom cc_175
.cc_top cc_176,.Lxtalabel87
	.ascii	"C:/Users/takaaki/git/sw_xSSDAC/module_usb_audio/endpoint0/audiorequests.xc"
	.byte	0
	.long	370
	.long	371
	.long	.Lxtalabel87
.cc_bottom cc_176
.cc_top cc_177,.Lxtalabel65
	.ascii	"C:/Users/takaaki/git/sw_xSSDAC/module_usb_audio/endpoint0/audiorequests.xc"
	.byte	0
	.long	370
	.long	371
	.long	.Lxtalabel65
.cc_bottom cc_177
.cc_top cc_178,.Lxtalabel66
	.ascii	"C:/Users/takaaki/git/sw_xSSDAC/module_usb_audio/endpoint0/audiorequests.xc"
	.byte	0
	.long	370
	.long	371
	.long	.Lxtalabel66
.cc_bottom cc_178
.cc_top cc_179,.Lxtalabel88
	.ascii	"C:/Users/takaaki/git/sw_xSSDAC/module_usb_audio/endpoint0/audiorequests.xc"
	.byte	0
	.long	374
	.long	375
	.long	.Lxtalabel88
.cc_bottom cc_179
.cc_top cc_180,.Lxtalabel33
	.ascii	"C:/Users/takaaki/git/sw_xSSDAC/module_usb_audio/endpoint0/audiorequests.xc"
	.byte	0
	.long	377
	.long	381
	.long	.Lxtalabel33
.cc_bottom cc_180
.cc_top cc_181,.Lxtalabel33
	.ascii	"C:/Users/takaaki/git/sw_xSSDAC/module_usb_audio/endpoint0/audiorequests.xc"
	.byte	0
	.long	382
	.long	382
	.long	.Lxtalabel33
.cc_bottom cc_181
.cc_top cc_182,.Lxtalabel34
	.ascii	"C:/Users/takaaki/git/sw_xSSDAC/module_usb_audio/endpoint0/audiorequests.xc"
	.byte	0
	.long	404
	.long	406
	.long	.Lxtalabel34
.cc_bottom cc_182
.cc_top cc_183,.Lxtalabel34
	.ascii	"C:/Users/takaaki/git/sw_xSSDAC/module_usb_audio/endpoint0/audiorequests.xc"
	.byte	0
	.long	408
	.long	408
	.long	.Lxtalabel34
.cc_bottom cc_183
.cc_top cc_184,.Lxtalabel33
	.ascii	"C:/Users/takaaki/git/sw_xSSDAC/module_usb_audio/endpoint0/audiorequests.xc"
	.byte	0
	.long	410
	.long	411
	.long	.Lxtalabel33
.cc_bottom cc_184
.cc_top cc_185,.Lxtalabel33
	.ascii	"C:/Users/takaaki/git/sw_xSSDAC/module_usb_audio/endpoint0/audiorequests.xc"
	.byte	0
	.long	413
	.long	413
	.long	.Lxtalabel33
.cc_bottom cc_185
.cc_top cc_186,.Lxtalabel46
	.ascii	"C:/Users/takaaki/git/sw_xSSDAC/module_usb_audio/endpoint0/audiorequests.xc"
	.byte	0
	.long	419
	.long	422
	.long	.Lxtalabel46
.cc_bottom cc_186
.cc_top cc_187,.Lxtalabel45
	.ascii	"C:/Users/takaaki/git/sw_xSSDAC/module_usb_audio/endpoint0/audiorequests.xc"
	.byte	0
	.long	419
	.long	422
	.long	.Lxtalabel45
.cc_bottom cc_187
.cc_top cc_188,.Lxtalabel47
	.ascii	"C:/Users/takaaki/git/sw_xSSDAC/module_usb_audio/endpoint0/audiorequests.xc"
	.byte	0
	.long	419
	.long	422
	.long	.Lxtalabel47
.cc_bottom cc_188
.cc_top cc_189,.Lxtalabel73
	.ascii	"C:/Users/takaaki/git/sw_xSSDAC/module_usb_audio/endpoint0/audiorequests.xc"
	.byte	0
	.long	425
	.long	427
	.long	.Lxtalabel73
.cc_bottom cc_189
.cc_top cc_190,.Lxtalabel73
	.ascii	"C:/Users/takaaki/git/sw_xSSDAC/module_usb_audio/endpoint0/audiorequests.xc"
	.byte	0
	.long	429
	.long	429
	.long	.Lxtalabel73
.cc_bottom cc_190
.cc_top cc_191,.Lxtalabel48
	.ascii	"C:/Users/takaaki/git/sw_xSSDAC/module_usb_audio/endpoint0/audiorequests.xc"
	.byte	0
	.long	432
	.long	432
	.long	.Lxtalabel48
.cc_bottom cc_191
.cc_top cc_192,.Lxtalabel48
	.ascii	"C:/Users/takaaki/git/sw_xSSDAC/module_usb_audio/endpoint0/audiorequests.xc"
	.byte	0
	.long	442
	.long	442
	.long	.Lxtalabel48
.cc_bottom cc_192
.cc_top cc_193,.Lxtalabel48
	.ascii	"C:/Users/takaaki/git/sw_xSSDAC/module_usb_audio/endpoint0/audiorequests.xc"
	.byte	0
	.long	444
	.long	444
	.long	.Lxtalabel48
.cc_bottom cc_193
.cc_top cc_194,.Lxtalabel49
	.ascii	"C:/Users/takaaki/git/sw_xSSDAC/module_usb_audio/endpoint0/audiorequests.xc"
	.byte	0
	.long	447
	.long	447
	.long	.Lxtalabel49
.cc_bottom cc_194
.cc_top cc_195,.Lxtalabel49
	.ascii	"C:/Users/takaaki/git/sw_xSSDAC/module_usb_audio/endpoint0/audiorequests.xc"
	.byte	0
	.long	448
	.long	448
	.long	.Lxtalabel49
.cc_bottom cc_195
.cc_top cc_196,.Lxtalabel49
	.ascii	"C:/Users/takaaki/git/sw_xSSDAC/module_usb_audio/endpoint0/audiorequests.xc"
	.byte	0
	.long	449
	.long	449
	.long	.Lxtalabel49
.cc_bottom cc_196
.cc_top cc_197,.Lxtalabel49
	.ascii	"C:/Users/takaaki/git/sw_xSSDAC/module_usb_audio/endpoint0/audiorequests.xc"
	.byte	0
	.long	450
	.long	450
	.long	.Lxtalabel49
.cc_bottom cc_197
.cc_top cc_198,.Lxtalabel49
	.ascii	"C:/Users/takaaki/git/sw_xSSDAC/module_usb_audio/endpoint0/audiorequests.xc"
	.byte	0
	.long	451
	.long	451
	.long	.Lxtalabel49
.cc_bottom cc_198
.cc_top cc_199,.Lxtalabel49
	.ascii	"C:/Users/takaaki/git/sw_xSSDAC/module_usb_audio/endpoint0/audiorequests.xc"
	.byte	0
	.long	452
	.long	452
	.long	.Lxtalabel49
.cc_bottom cc_199
.cc_top cc_200,.Lxtalabel49
	.ascii	"C:/Users/takaaki/git/sw_xSSDAC/module_usb_audio/endpoint0/audiorequests.xc"
	.byte	0
	.long	453
	.long	454
	.long	.Lxtalabel49
.cc_bottom cc_200
.cc_top cc_201,.Lxtalabel47
	.ascii	"C:/Users/takaaki/git/sw_xSSDAC/module_usb_audio/endpoint0/audiorequests.xc"
	.byte	0
	.long	459
	.long	460
	.long	.Lxtalabel47
.cc_bottom cc_201
.cc_top cc_202,.Lxtalabel46
	.ascii	"C:/Users/takaaki/git/sw_xSSDAC/module_usb_audio/endpoint0/audiorequests.xc"
	.byte	0
	.long	459
	.long	460
	.long	.Lxtalabel46
.cc_bottom cc_202
.cc_top cc_203,.Lxtalabel45
	.ascii	"C:/Users/takaaki/git/sw_xSSDAC/module_usb_audio/endpoint0/audiorequests.xc"
	.byte	0
	.long	459
	.long	460
	.long	.Lxtalabel45
.cc_bottom cc_203
.cc_top cc_204,.Lxtalabel31
	.ascii	"C:/Users/takaaki/git/sw_xSSDAC/module_usb_audio/endpoint0/audiorequests.xc"
	.byte	0
	.long	466
	.long	466
	.long	.Lxtalabel31
.cc_bottom cc_204
.cc_top cc_205,.Lxtalabel44
	.ascii	"C:/Users/takaaki/git/sw_xSSDAC/module_usb_audio/endpoint0/audiorequests.xc"
	.byte	0
	.long	466
	.long	466
	.long	.Lxtalabel44
.cc_bottom cc_205
.cc_top cc_206,.Lxtalabel31
	.ascii	"C:/Users/takaaki/git/sw_xSSDAC/module_usb_audio/endpoint0/audiorequests.xc"
	.byte	0
	.long	468
	.long	468
	.long	.Lxtalabel31
.cc_bottom cc_206
.cc_top cc_207,.Lxtalabel44
	.ascii	"C:/Users/takaaki/git/sw_xSSDAC/module_usb_audio/endpoint0/audiorequests.xc"
	.byte	0
	.long	468
	.long	468
	.long	.Lxtalabel44
.cc_bottom cc_207
.cc_top cc_208,.Lxtalabel51
	.ascii	"C:/Users/takaaki/git/sw_xSSDAC/module_usb_audio/endpoint0/audiorequests.xc"
	.byte	0
	.long	474
	.long	475
	.long	.Lxtalabel51
.cc_bottom cc_208
.cc_top cc_209,.Lxtalabel52
	.ascii	"C:/Users/takaaki/git/sw_xSSDAC/module_usb_audio/endpoint0/audiorequests.xc"
	.byte	0
	.long	476
	.long	476
	.long	.Lxtalabel52
.cc_bottom cc_209
.cc_top cc_210,.Lxtalabel52
	.ascii	"C:/Users/takaaki/git/sw_xSSDAC/module_usb_audio/endpoint0/audiorequests.xc"
	.byte	0
	.long	478
	.long	478
	.long	.Lxtalabel52
.cc_bottom cc_210
.cc_top cc_211,.Lxtalabel80
	.ascii	"C:/Users/takaaki/git/sw_xSSDAC/module_usb_audio/endpoint0/audiorequests.xc"
	.byte	0
	.long	479
	.long	480
	.long	.Lxtalabel80
.cc_bottom cc_211
.cc_top cc_212,.Lxtalabel80
	.ascii	"C:/Users/takaaki/git/sw_xSSDAC/module_usb_audio/endpoint0/audiorequests.xc"
	.byte	0
	.long	481
	.long	483
	.long	.Lxtalabel80
.cc_bottom cc_212
.cc_top cc_213,.Lxtalabel81
	.ascii	"C:/Users/takaaki/git/sw_xSSDAC/module_usb_audio/endpoint0/audiorequests.xc"
	.byte	0
	.long	486
	.long	486
	.long	.Lxtalabel81
.cc_bottom cc_213
.cc_top cc_214,.Lxtalabel82
	.ascii	"C:/Users/takaaki/git/sw_xSSDAC/module_usb_audio/endpoint0/audiorequests.xc"
	.byte	0
	.long	487
	.long	488
	.long	.Lxtalabel82
.cc_bottom cc_214
.cc_top cc_215,.Lxtalabel83
	.ascii	"C:/Users/takaaki/git/sw_xSSDAC/module_usb_audio/endpoint0/audiorequests.xc"
	.byte	0
	.long	489
	.long	489
	.long	.Lxtalabel83
.cc_bottom cc_215
.cc_top cc_216,.Lxtalabel83
	.ascii	"C:/Users/takaaki/git/sw_xSSDAC/module_usb_audio/endpoint0/audiorequests.xc"
	.byte	0
	.long	490
	.long	490
	.long	.Lxtalabel83
.cc_bottom cc_216
.cc_top cc_217,.Lxtalabel83
	.ascii	"C:/Users/takaaki/git/sw_xSSDAC/module_usb_audio/endpoint0/audiorequests.xc"
	.byte	0
	.long	491
	.long	491
	.long	.Lxtalabel83
.cc_bottom cc_217
.cc_top cc_218,.Lxtalabel83
	.ascii	"C:/Users/takaaki/git/sw_xSSDAC/module_usb_audio/endpoint0/audiorequests.xc"
	.byte	0
	.long	492
	.long	492
	.long	.Lxtalabel83
.cc_bottom cc_218
.cc_top cc_219,.Lxtalabel83
	.ascii	"C:/Users/takaaki/git/sw_xSSDAC/module_usb_audio/endpoint0/audiorequests.xc"
	.byte	0
	.long	493
	.long	493
	.long	.Lxtalabel83
.cc_bottom cc_219
.cc_top cc_220,.Lxtalabel84
	.ascii	"C:/Users/takaaki/git/sw_xSSDAC/module_usb_audio/endpoint0/audiorequests.xc"
	.byte	0
	.long	495
	.long	496
	.long	.Lxtalabel84
.cc_bottom cc_220
.cc_top cc_221,.Lxtalabel81
	.ascii	"C:/Users/takaaki/git/sw_xSSDAC/module_usb_audio/endpoint0/audiorequests.xc"
	.byte	0
	.long	498
	.long	498
	.long	.Lxtalabel81
.cc_bottom cc_221
.cc_top cc_222,.Lxtalabel53
	.ascii	"C:/Users/takaaki/git/sw_xSSDAC/module_usb_audio/endpoint0/audiorequests.xc"
	.byte	0
	.long	499
	.long	500
	.long	.Lxtalabel53
.cc_bottom cc_222
.cc_top cc_223,.Lxtalabel53
	.ascii	"C:/Users/takaaki/git/sw_xSSDAC/module_usb_audio/endpoint0/audiorequests.xc"
	.byte	0
	.long	502
	.long	503
	.long	.Lxtalabel53
.cc_bottom cc_223
.cc_top cc_224,.Lxtalabel54
	.ascii	"C:/Users/takaaki/git/sw_xSSDAC/module_usb_audio/endpoint0/audiorequests.xc"
	.byte	0
	.long	504
	.long	504
	.long	.Lxtalabel54
.cc_bottom cc_224
.cc_top cc_225,.Lxtalabel54
	.ascii	"C:/Users/takaaki/git/sw_xSSDAC/module_usb_audio/endpoint0/audiorequests.xc"
	.byte	0
	.long	505
	.long	505
	.long	.Lxtalabel54
.cc_bottom cc_225
.cc_top cc_226,.Lxtalabel54
	.ascii	"C:/Users/takaaki/git/sw_xSSDAC/module_usb_audio/endpoint0/audiorequests.xc"
	.byte	0
	.long	506
	.long	506
	.long	.Lxtalabel54
.cc_bottom cc_226
.cc_top cc_227,.Lxtalabel54
	.ascii	"C:/Users/takaaki/git/sw_xSSDAC/module_usb_audio/endpoint0/audiorequests.xc"
	.byte	0
	.long	507
	.long	507
	.long	.Lxtalabel54
.cc_bottom cc_227
.cc_top cc_228,.Lxtalabel54
	.ascii	"C:/Users/takaaki/git/sw_xSSDAC/module_usb_audio/endpoint0/audiorequests.xc"
	.byte	0
	.long	508
	.long	508
	.long	.Lxtalabel54
.cc_bottom cc_228
.cc_top cc_229,.Lxtalabel54
	.ascii	"C:/Users/takaaki/git/sw_xSSDAC/module_usb_audio/endpoint0/audiorequests.xc"
	.byte	0
	.long	509
	.long	509
	.long	.Lxtalabel54
.cc_bottom cc_229
.cc_top cc_230,.Lxtalabel55
	.ascii	"C:/Users/takaaki/git/sw_xSSDAC/module_usb_audio/endpoint0/audiorequests.xc"
	.byte	0
	.long	510
	.long	510
	.long	.Lxtalabel55
.cc_bottom cc_230
.cc_top cc_231,.Lxtalabel55
	.ascii	"C:/Users/takaaki/git/sw_xSSDAC/module_usb_audio/endpoint0/audiorequests.xc"
	.byte	0
	.long	512
	.long	512
	.long	.Lxtalabel55
.cc_bottom cc_231
.cc_top cc_232,.Lxtalabel81
	.ascii	"C:/Users/takaaki/git/sw_xSSDAC/module_usb_audio/endpoint0/audiorequests.xc"
	.byte	0
	.long	513
	.long	513
	.long	.Lxtalabel81
.cc_bottom cc_232
.cc_top cc_233,.Lxtalabel38
	.ascii	"C:/Users/takaaki/git/sw_xSSDAC/module_usb_audio/endpoint0/audiorequests.xc"
	.byte	0
	.long	519
	.long	519
	.long	.Lxtalabel38
.cc_bottom cc_233
.cc_top cc_234,.Lxtalabel50
	.ascii	"C:/Users/takaaki/git/sw_xSSDAC/module_usb_audio/endpoint0/audiorequests.xc"
	.byte	0
	.long	519
	.long	519
	.long	.Lxtalabel50
.cc_bottom cc_234
.cc_top cc_235,.Lxtalabel30
	.ascii	"C:/Users/takaaki/git/sw_xSSDAC/module_usb_audio/endpoint0/audiorequests.xc"
	.byte	0
	.long	519
	.long	519
	.long	.Lxtalabel30
.cc_bottom cc_235
.cc_top cc_236,.Lxtalabel39
	.ascii	"C:/Users/takaaki/git/sw_xSSDAC/module_usb_audio/endpoint0/audiorequests.xc"
	.byte	0
	.long	522
	.long	524
	.long	.Lxtalabel39
.cc_bottom cc_236
.cc_top cc_237,.Lxtalabel56
	.ascii	"C:/Users/takaaki/git/sw_xSSDAC/module_usb_audio/endpoint0/audiorequests.xc"
	.byte	0
	.long	522
	.long	524
	.long	.Lxtalabel56
.cc_bottom cc_237
.cc_top cc_238,.Lxtalabel57
	.ascii	"C:/Users/takaaki/git/sw_xSSDAC/module_usb_audio/endpoint0/audiorequests.xc"
	.byte	0
	.long	526
	.long	526
	.long	.Lxtalabel57
.cc_bottom cc_238
.cc_top cc_239,.Lxtalabel74
	.ascii	"C:/Users/takaaki/git/sw_xSSDAC/module_usb_audio/endpoint0/audiorequests.xc"
	.byte	0
	.long	527
	.long	527
	.long	.Lxtalabel74
.cc_bottom cc_239
.cc_top cc_240,.Lxtalabel74
	.ascii	"C:/Users/takaaki/git/sw_xSSDAC/module_usb_audio/endpoint0/audiorequests.xc"
	.byte	0
	.long	529
	.long	529
	.long	.Lxtalabel74
.cc_bottom cc_240
.cc_top cc_241,.Lxtalabel74
	.ascii	"C:/Users/takaaki/git/sw_xSSDAC/module_usb_audio/endpoint0/audiorequests.xc"
	.byte	0
	.long	530
	.long	532
	.long	.Lxtalabel74
.cc_bottom cc_241
.cc_top cc_242,.Lxtalabel75
	.ascii	"C:/Users/takaaki/git/sw_xSSDAC/module_usb_audio/endpoint0/audiorequests.xc"
	.byte	0
	.long	534
	.long	534
	.long	.Lxtalabel75
.cc_bottom cc_242
.cc_top cc_243,.Lxtalabel76
	.ascii	"C:/Users/takaaki/git/sw_xSSDAC/module_usb_audio/endpoint0/audiorequests.xc"
	.byte	0
	.long	535
	.long	536
	.long	.Lxtalabel76
.cc_bottom cc_243
.cc_top cc_244,.Lxtalabel77
	.ascii	"C:/Users/takaaki/git/sw_xSSDAC/module_usb_audio/endpoint0/audiorequests.xc"
	.byte	0
	.long	537
	.long	541
	.long	.Lxtalabel77
.cc_bottom cc_244
.cc_top cc_245,.Lxtalabel76
	.ascii	"C:/Users/takaaki/git/sw_xSSDAC/module_usb_audio/endpoint0/audiorequests.xc"
	.byte	0
	.long	542
	.long	542
	.long	.Lxtalabel76
.cc_bottom cc_245
.cc_top cc_246,.Lxtalabel89
	.ascii	"C:/Users/takaaki/git/sw_xSSDAC/module_usb_audio/endpoint0/audiorequests.xc"
	.byte	0
	.long	543
	.long	545
	.long	.Lxtalabel89
.cc_bottom cc_246
.cc_top cc_247,.Lxtalabel90
	.ascii	"C:/Users/takaaki/git/sw_xSSDAC/module_usb_audio/endpoint0/audiorequests.xc"
	.byte	0
	.long	546
	.long	550
	.long	.Lxtalabel90
.cc_bottom cc_247
.cc_top cc_248,.Lxtalabel89
	.ascii	"C:/Users/takaaki/git/sw_xSSDAC/module_usb_audio/endpoint0/audiorequests.xc"
	.byte	0
	.long	551
	.long	551
	.long	.Lxtalabel89
.cc_bottom cc_248
.cc_top cc_249,.Lxtalabel58
	.ascii	"C:/Users/takaaki/git/sw_xSSDAC/module_usb_audio/endpoint0/audiorequests.xc"
	.byte	0
	.long	553
	.long	555
	.long	.Lxtalabel58
.cc_bottom cc_249
.cc_top cc_250,.Lxtalabel59
	.ascii	"C:/Users/takaaki/git/sw_xSSDAC/module_usb_audio/endpoint0/audiorequests.xc"
	.byte	0
	.long	556
	.long	557
	.long	.Lxtalabel59
.cc_bottom cc_250
.cc_top cc_251,.Lxtalabel60
	.ascii	"C:/Users/takaaki/git/sw_xSSDAC/module_usb_audio/endpoint0/audiorequests.xc"
	.byte	0
	.long	558
	.long	562
	.long	.Lxtalabel60
.cc_bottom cc_251
.cc_top cc_252,.Lxtalabel59
	.ascii	"C:/Users/takaaki/git/sw_xSSDAC/module_usb_audio/endpoint0/audiorequests.xc"
	.byte	0
	.long	563
	.long	563
	.long	.Lxtalabel59
.cc_bottom cc_252
.cc_top cc_253,.Lxtalabel78
	.ascii	"C:/Users/takaaki/git/sw_xSSDAC/module_usb_audio/endpoint0/audiorequests.xc"
	.byte	0
	.long	564
	.long	566
	.long	.Lxtalabel78
.cc_bottom cc_253
.cc_top cc_254,.Lxtalabel79
	.ascii	"C:/Users/takaaki/git/sw_xSSDAC/module_usb_audio/endpoint0/audiorequests.xc"
	.byte	0
	.long	567
	.long	571
	.long	.Lxtalabel79
.cc_bottom cc_254
.cc_top cc_255,.Lxtalabel78
	.ascii	"C:/Users/takaaki/git/sw_xSSDAC/module_usb_audio/endpoint0/audiorequests.xc"
	.byte	0
	.long	572
	.long	572
	.long	.Lxtalabel78
.cc_bottom cc_255
.cc_top cc_256,.Lxtalabel40
	.ascii	"C:/Users/takaaki/git/sw_xSSDAC/module_usb_audio/endpoint0/audiorequests.xc"
	.byte	0
	.long	578
	.long	578
	.long	.Lxtalabel40
.cc_bottom cc_256
.cc_top cc_257,.Lxtalabel67
	.ascii	"C:/Users/takaaki/git/sw_xSSDAC/module_usb_audio/endpoint0/audiorequests.xc"
	.byte	0
	.long	579
	.long	579
	.long	.Lxtalabel67
.cc_bottom cc_257
.cc_top cc_258,.Lxtalabel67
	.ascii	"C:/Users/takaaki/git/sw_xSSDAC/module_usb_audio/endpoint0/audiorequests.xc"
	.byte	0
	.long	581
	.long	581
	.long	.Lxtalabel67
.cc_bottom cc_258
.cc_top cc_259,.Lxtalabel67
	.ascii	"C:/Users/takaaki/git/sw_xSSDAC/module_usb_audio/endpoint0/audiorequests.xc"
	.byte	0
	.long	582
	.long	584
	.long	.Lxtalabel67
.cc_bottom cc_259
.cc_top cc_260,.Lxtalabel68
	.ascii	"C:/Users/takaaki/git/sw_xSSDAC/module_usb_audio/endpoint0/audiorequests.xc"
	.byte	0
	.long	586
	.long	586
	.long	.Lxtalabel68
.cc_bottom cc_260
.cc_top cc_261,.Lxtalabel69
	.ascii	"C:/Users/takaaki/git/sw_xSSDAC/module_usb_audio/endpoint0/audiorequests.xc"
	.byte	0
	.long	587
	.long	588
	.long	.Lxtalabel69
.cc_bottom cc_261
.cc_top cc_262,.Lxtalabel70
	.ascii	"C:/Users/takaaki/git/sw_xSSDAC/module_usb_audio/endpoint0/audiorequests.xc"
	.byte	0
	.long	589
	.long	593
	.long	.Lxtalabel70
.cc_bottom cc_262
.cc_top cc_263,.Lxtalabel69
	.ascii	"C:/Users/takaaki/git/sw_xSSDAC/module_usb_audio/endpoint0/audiorequests.xc"
	.byte	0
	.long	594
	.long	594
	.long	.Lxtalabel69
.cc_bottom cc_263
.cc_top cc_264,.Lxtalabel85
	.ascii	"C:/Users/takaaki/git/sw_xSSDAC/module_usb_audio/endpoint0/audiorequests.xc"
	.byte	0
	.long	595
	.long	597
	.long	.Lxtalabel85
.cc_bottom cc_264
.cc_top cc_265,.Lxtalabel86
	.ascii	"C:/Users/takaaki/git/sw_xSSDAC/module_usb_audio/endpoint0/audiorequests.xc"
	.byte	0
	.long	598
	.long	602
	.long	.Lxtalabel86
.cc_bottom cc_265
.cc_top cc_266,.Lxtalabel85
	.ascii	"C:/Users/takaaki/git/sw_xSSDAC/module_usb_audio/endpoint0/audiorequests.xc"
	.byte	0
	.long	603
	.long	603
	.long	.Lxtalabel85
.cc_bottom cc_266
.cc_top cc_267,.Lxtalabel41
	.ascii	"C:/Users/takaaki/git/sw_xSSDAC/module_usb_audio/endpoint0/audiorequests.xc"
	.byte	0
	.long	605
	.long	607
	.long	.Lxtalabel41
.cc_bottom cc_267
.cc_top cc_268,.Lxtalabel42
	.ascii	"C:/Users/takaaki/git/sw_xSSDAC/module_usb_audio/endpoint0/audiorequests.xc"
	.byte	0
	.long	608
	.long	609
	.long	.Lxtalabel42
.cc_bottom cc_268
.cc_top cc_269,.Lxtalabel43
	.ascii	"C:/Users/takaaki/git/sw_xSSDAC/module_usb_audio/endpoint0/audiorequests.xc"
	.byte	0
	.long	610
	.long	613
	.long	.Lxtalabel43
.cc_bottom cc_269
.cc_top cc_270,.Lxtalabel42
	.ascii	"C:/Users/takaaki/git/sw_xSSDAC/module_usb_audio/endpoint0/audiorequests.xc"
	.byte	0
	.long	614
	.long	614
	.long	.Lxtalabel42
.cc_bottom cc_270
.cc_top cc_271,.Lxtalabel71
	.ascii	"C:/Users/takaaki/git/sw_xSSDAC/module_usb_audio/endpoint0/audiorequests.xc"
	.byte	0
	.long	615
	.long	617
	.long	.Lxtalabel71
.cc_bottom cc_271
.cc_top cc_272,.Lxtalabel72
	.ascii	"C:/Users/takaaki/git/sw_xSSDAC/module_usb_audio/endpoint0/audiorequests.xc"
	.byte	0
	.long	618
	.long	621
	.long	.Lxtalabel72
.cc_bottom cc_272
.cc_top cc_273,.Lxtalabel71
	.ascii	"C:/Users/takaaki/git/sw_xSSDAC/module_usb_audio/endpoint0/audiorequests.xc"
	.byte	0
	.long	622
	.long	622
	.long	.Lxtalabel71
.cc_bottom cc_273
.cc_top cc_274,.Lxtalabel39
	.ascii	"C:/Users/takaaki/git/sw_xSSDAC/module_usb_audio/endpoint0/audiorequests.xc"
	.byte	0
	.long	628
	.long	629
	.long	.Lxtalabel39
.cc_bottom cc_274
.cc_top cc_275,.Lxtalabel56
	.ascii	"C:/Users/takaaki/git/sw_xSSDAC/module_usb_audio/endpoint0/audiorequests.xc"
	.byte	0
	.long	628
	.long	629
	.long	.Lxtalabel56
.cc_bottom cc_275
.cc_top cc_276,.Lxtalabel30
	.ascii	"C:/Users/takaaki/git/sw_xSSDAC/module_usb_audio/endpoint0/audiorequests.xc"
	.byte	0
	.long	835
	.long	835
	.long	.Lxtalabel30
.cc_bottom cc_276
.cc_top cc_277,.Lxtalabel50
	.ascii	"C:/Users/takaaki/git/sw_xSSDAC/module_usb_audio/endpoint0/audiorequests.xc"
	.byte	0
	.long	835
	.long	835
	.long	.Lxtalabel50
.cc_bottom cc_277
.cc_top cc_278,.Lxtalabel38
	.ascii	"C:/Users/takaaki/git/sw_xSSDAC/module_usb_audio/endpoint0/audiorequests.xc"
	.byte	0
	.long	835
	.long	835
	.long	.Lxtalabel38
.cc_bottom cc_278
.cc_top cc_279,.Lxtalabel30
	.ascii	"C:/Users/takaaki/git/sw_xSSDAC/module_usb_audio/endpoint0/audiorequests.xc"
	.byte	0
	.long	837
	.long	837
	.long	.Lxtalabel30
.cc_bottom cc_279
.cc_top cc_280,.Lxtalabel50
	.ascii	"C:/Users/takaaki/git/sw_xSSDAC/module_usb_audio/endpoint0/audiorequests.xc"
	.byte	0
	.long	837
	.long	837
	.long	.Lxtalabel50
.cc_bottom cc_280
.cc_top cc_281,.Lxtalabel38
	.ascii	"C:/Users/takaaki/git/sw_xSSDAC/module_usb_audio/endpoint0/audiorequests.xc"
	.byte	0
	.long	837
	.long	837
	.long	.Lxtalabel38
.cc_bottom cc_281
.cc_top cc_282,.Lxtalabel35
	.ascii	"C:/Users/takaaki/git/sw_xSSDAC/module_usb_audio/endpoint0/audiorequests.xc"
	.byte	0
	.long	842
	.long	843
	.long	.Lxtalabel35
.cc_bottom cc_282
.cc_top cc_283,.Lxtalabel20
	.ascii	"C:/Users/takaaki/git/sw_xSSDAC/module_usb_audio/endpoint0/audiorequests.xc"
	.byte	0
	.long	842
	.long	843
	.long	.Lxtalabel20
.cc_bottom cc_283
.cc_top cc_284,.Lxtalabel35
	.ascii	"C:/Users/takaaki/git/sw_xSSDAC/module_usb_audio/endpoint0/audiorequests.xc"
	.byte	0
	.long	845
	.long	846
	.long	.Lxtalabel35
.cc_bottom cc_284
.cc_top cc_285,.Lxtalabel20
	.ascii	"C:/Users/takaaki/git/sw_xSSDAC/module_usb_audio/endpoint0/audiorequests.xc"
	.byte	0
	.long	845
	.long	846
	.long	.Lxtalabel20
.cc_bottom cc_285
.cc_top cc_286,.Lxtalabel20
	.ascii	"C:/Users/takaaki/git/sw_xSSDAC/module_usb_audio/endpoint0/audiorequests.xc"
	.byte	0
	.long	848
	.long	848
	.long	.Lxtalabel20
.cc_bottom cc_286
.cc_top cc_287,.Lxtalabel35
	.ascii	"C:/Users/takaaki/git/sw_xSSDAC/module_usb_audio/endpoint0/audiorequests.xc"
	.byte	0
	.long	848
	.long	848
	.long	.Lxtalabel35
.cc_bottom cc_287
.cc_top cc_288,.Lxtalabel35
	.ascii	"C:/Users/takaaki/git/sw_xSSDAC/module_usb_audio/endpoint0/audiorequests.xc"
	.byte	0
	.long	849
	.long	849
	.long	.Lxtalabel35
.cc_bottom cc_288
.cc_top cc_289,.Lxtalabel20
	.ascii	"C:/Users/takaaki/git/sw_xSSDAC/module_usb_audio/endpoint0/audiorequests.xc"
	.byte	0
	.long	849
	.long	849
	.long	.Lxtalabel20
.cc_bottom cc_289
.cc_top cc_290,.Lxtalabel21
	.ascii	"C:/Users/takaaki/git/sw_xSSDAC/module_usb_audio/endpoint0/audiorequests.xc"
	.byte	0
	.long	853
	.long	855
	.long	.Lxtalabel21
.cc_bottom cc_290
.cc_top cc_291,.Lxtalabel22
	.ascii	"C:/Users/takaaki/git/sw_xSSDAC/module_usb_audio/endpoint0/audiorequests.xc"
	.byte	0
	.long	858
	.long	860
	.long	.Lxtalabel22
.cc_bottom cc_291
.cc_top cc_292,.Lxtalabel22
	.ascii	"C:/Users/takaaki/git/sw_xSSDAC/module_usb_audio/endpoint0/audiorequests.xc"
	.byte	0
	.long	863
	.long	865
	.long	.Lxtalabel22
.cc_bottom cc_292
.cc_top cc_293,.Lxtalabel22
	.ascii	"C:/Users/takaaki/git/sw_xSSDAC/module_usb_audio/endpoint0/audiorequests.xc"
	.byte	0
	.long	877
	.long	877
	.long	.Lxtalabel22
.cc_bottom cc_293
.cc_top cc_294,.Lxtalabel22
	.ascii	"C:/Users/takaaki/git/sw_xSSDAC/module_usb_audio/endpoint0/audiorequests.xc"
	.byte	0
	.long	879
	.long	879
	.long	.Lxtalabel22
.cc_bottom cc_294
.cc_top cc_295,.Lxtalabel22
	.ascii	"C:/Users/takaaki/git/sw_xSSDAC/module_usb_audio/endpoint0/audiorequests.xc"
	.byte	0
	.long	880
	.long	881
	.long	.Lxtalabel22
.cc_bottom cc_295
.cc_top cc_296,.Lxtalabel22
	.ascii	"C:/Users/takaaki/git/sw_xSSDAC/module_usb_audio/endpoint0/audiorequests.xc"
	.byte	0
	.long	880
	.long	881
	.long	.Lxtalabel22
.cc_bottom cc_296
.cc_top cc_297,.Lxtalabel22
	.ascii	"C:/Users/takaaki/git/sw_xSSDAC/module_usb_audio/endpoint0/audiorequests.xc"
	.byte	0
	.long	880
	.long	881
	.long	.Lxtalabel22
.cc_bottom cc_297
.cc_top cc_298,.Lxtalabel22
	.ascii	"C:/Users/takaaki/git/sw_xSSDAC/module_usb_audio/endpoint0/audiorequests.xc"
	.byte	0
	.long	880
	.long	881
	.long	.Lxtalabel22
.cc_bottom cc_298
.cc_top cc_299,.Lxtalabel22
	.ascii	"C:/Users/takaaki/git/sw_xSSDAC/module_usb_audio/endpoint0/audiorequests.xc"
	.byte	0
	.long	880
	.long	881
	.long	.Lxtalabel22
.cc_bottom cc_299
.cc_top cc_300,.Lxtalabel22
	.ascii	"C:/Users/takaaki/git/sw_xSSDAC/module_usb_audio/endpoint0/audiorequests.xc"
	.byte	0
	.long	886
	.long	886
	.long	.Lxtalabel22
.cc_bottom cc_300
.cc_top cc_301,.Lxtalabel22
	.ascii	"C:/Users/takaaki/git/sw_xSSDAC/module_usb_audio/endpoint0/audiorequests.xc"
	.byte	0
	.long	886
	.long	886
	.long	.Lxtalabel22
.cc_bottom cc_301
.cc_top cc_302,.Lxtalabel22
	.ascii	"C:/Users/takaaki/git/sw_xSSDAC/module_usb_audio/endpoint0/audiorequests.xc"
	.byte	0
	.long	886
	.long	886
	.long	.Lxtalabel22
.cc_bottom cc_302
.cc_top cc_303,.Lxtalabel22
	.ascii	"C:/Users/takaaki/git/sw_xSSDAC/module_usb_audio/endpoint0/audiorequests.xc"
	.byte	0
	.long	886
	.long	886
	.long	.Lxtalabel22
.cc_bottom cc_303
.cc_top cc_304,.Lxtalabel22
	.ascii	"C:/Users/takaaki/git/sw_xSSDAC/module_usb_audio/endpoint0/audiorequests.xc"
	.byte	0
	.long	886
	.long	886
	.long	.Lxtalabel22
.cc_bottom cc_304
.cc_top cc_305,.Lxtalabel22
	.ascii	"C:/Users/takaaki/git/sw_xSSDAC/module_usb_audio/endpoint0/audiorequests.xc"
	.byte	0
	.long	889
	.long	891
	.long	.Lxtalabel22
.cc_bottom cc_305
.cc_top cc_306,.Lxtalabel22
	.ascii	"C:/Users/takaaki/git/sw_xSSDAC/module_usb_audio/endpoint0/audiorequests.xc"
	.byte	0
	.long	889
	.long	891
	.long	.Lxtalabel22
.cc_bottom cc_306
.cc_top cc_307,.Lxtalabel22
	.ascii	"C:/Users/takaaki/git/sw_xSSDAC/module_usb_audio/endpoint0/audiorequests.xc"
	.byte	0
	.long	889
	.long	891
	.long	.Lxtalabel22
.cc_bottom cc_307
.cc_top cc_308,.Lxtalabel22
	.ascii	"C:/Users/takaaki/git/sw_xSSDAC/module_usb_audio/endpoint0/audiorequests.xc"
	.byte	0
	.long	889
	.long	891
	.long	.Lxtalabel22
.cc_bottom cc_308
.cc_top cc_309,.Lxtalabel22
	.ascii	"C:/Users/takaaki/git/sw_xSSDAC/module_usb_audio/endpoint0/audiorequests.xc"
	.byte	0
	.long	889
	.long	891
	.long	.Lxtalabel22
.cc_bottom cc_309
.cc_top cc_310,.Lxtalabel25
	.ascii	"C:/Users/takaaki/git/sw_xSSDAC/module_usb_audio/endpoint0/audiorequests.xc"
	.byte	0
	.long	892
	.long	893
	.long	.Lxtalabel25
.cc_bottom cc_310
.cc_top cc_311,.Lxtalabel24
	.ascii	"C:/Users/takaaki/git/sw_xSSDAC/module_usb_audio/endpoint0/audiorequests.xc"
	.byte	0
	.long	892
	.long	893
	.long	.Lxtalabel24
.cc_bottom cc_311
.cc_top cc_312,.Lxtalabel26
	.ascii	"C:/Users/takaaki/git/sw_xSSDAC/module_usb_audio/endpoint0/audiorequests.xc"
	.byte	0
	.long	894
	.long	898
	.long	.Lxtalabel26
.cc_bottom cc_312
.cc_top cc_313,.Lxtalabel27
	.ascii	"C:/Users/takaaki/git/sw_xSSDAC/module_usb_audio/endpoint0/audiorequests.xc"
	.byte	0
	.long	900
	.long	900
	.long	.Lxtalabel27
.cc_bottom cc_313
.cc_top cc_314,.Lxtalabel23
	.ascii	"C:/Users/takaaki/git/sw_xSSDAC/module_usb_audio/endpoint0/audiorequests.xc"
	.byte	0
	.long	901
	.long	901
	.long	.Lxtalabel23
.cc_bottom cc_314
.cc_top cc_315,.Lxtalabel23
	.ascii	"C:/Users/takaaki/git/sw_xSSDAC/module_usb_audio/endpoint0/audiorequests.xc"
	.byte	0
	.long	903
	.long	906
	.long	.Lxtalabel23
.cc_bottom cc_315
.cc_top cc_316,.Lxtalabel28
	.ascii	"C:/Users/takaaki/git/sw_xSSDAC/module_usb_audio/endpoint0/audiorequests.xc"
	.byte	0
	.long	907
	.long	910
	.long	.Lxtalabel28
.cc_bottom cc_316
.cc_top cc_317,.Lxtalabel23
	.ascii	"C:/Users/takaaki/git/sw_xSSDAC/module_usb_audio/endpoint0/audiorequests.xc"
	.byte	0
	.long	911
	.long	911
	.long	.Lxtalabel23
.cc_bottom cc_317
.cc_top cc_318,.Lxtalabel28
	.ascii	"C:/Users/takaaki/git/sw_xSSDAC/module_usb_audio/endpoint0/audiorequests.xc"
	.byte	0
	.long	921
	.long	921
	.long	.Lxtalabel28
.cc_bottom cc_318
.cc_top cc_319,.Lxtalabel28
	.ascii	"C:/Users/takaaki/git/sw_xSSDAC/module_usb_audio/endpoint0/audiorequests.xc"
	.byte	0
	.long	923
	.long	925
	.long	.Lxtalabel28
.cc_bottom cc_319
.cc_top cc_320,.Lxtalabel28
	.ascii	"C:/Users/takaaki/git/sw_xSSDAC/module_usb_audio/endpoint0/audiorequests.xc"
	.byte	0
	.long	927
	.long	927
	.long	.Lxtalabel28
.cc_bottom cc_320
.cc_top cc_321,.Lxtalabel21
	.ascii	"C:/Users/takaaki/git/sw_xSSDAC/module_usb_audio/endpoint0/audiorequests.xc"
	.byte	0
	.long	929
	.long	930
	.long	.Lxtalabel21
.cc_bottom cc_321
.cc_top cc_322,.Lxtalabel21
	.ascii	"C:/Users/takaaki/git/sw_xSSDAC/module_usb_audio/endpoint0/audiorequests.xc"
	.byte	0
	.long	932
	.long	932
	.long	.Lxtalabel21
.cc_bottom cc_322
.cc_top cc_323,.Lxtalabel21
	.ascii	"C:/Users/takaaki/git/sw_xSSDAC/module_usb_audio/endpoint0/audiorequests.xc"
	.byte	0
	.long	935
	.long	935
	.long	.Lxtalabel21
.cc_bottom cc_323
.cc_top cc_324,.Lxtalabel35
	.ascii	"C:/Users/takaaki/git/sw_xSSDAC/module_usb_audio/endpoint0/audiorequests.xc"
	.byte	0
	.long	936
	.long	936
	.long	.Lxtalabel35
.cc_bottom cc_324
.cc_top cc_325,.Lxtalabel20
	.ascii	"C:/Users/takaaki/git/sw_xSSDAC/module_usb_audio/endpoint0/audiorequests.xc"
	.byte	0
	.long	936
	.long	936
	.long	.Lxtalabel20
.cc_bottom cc_325
.cc_top cc_326,.Lxtalabel36
	.ascii	"C:/Users/takaaki/git/sw_xSSDAC/module_usb_audio/endpoint0/audiorequests.xc"
	.byte	0
	.long	939
	.long	940
	.long	.Lxtalabel36
.cc_bottom cc_326
.cc_top cc_327,.Lxtalabel36
	.ascii	"C:/Users/takaaki/git/sw_xSSDAC/module_usb_audio/endpoint0/audiorequests.xc"
	.byte	0
	.long	942
	.long	942
	.long	.Lxtalabel36
.cc_bottom cc_327
.cc_top cc_328,.Lxtalabel37
	.ascii	"C:/Users/takaaki/git/sw_xSSDAC/module_usb_audio/endpoint0/audiorequests.xc"
	.byte	0
	.long	944
	.long	949
	.long	.Lxtalabel37
.cc_bottom cc_328
.cc_top cc_329,.Lxtalabel37
	.ascii	"C:/Users/takaaki/git/sw_xSSDAC/module_usb_audio/endpoint0/audiorequests.xc"
	.byte	0
	.long	951
	.long	951
	.long	.Lxtalabel37
.cc_bottom cc_329
.cc_top cc_330,.Lxtalabel36
	.ascii	"C:/Users/takaaki/git/sw_xSSDAC/module_usb_audio/endpoint0/audiorequests.xc"
	.byte	0
	.long	953
	.long	953
	.long	.Lxtalabel36
.cc_bottom cc_330
.cc_top cc_331,.Lxtalabel36
	.ascii	"C:/Users/takaaki/git/sw_xSSDAC/module_usb_audio/endpoint0/audiorequests.xc"
	.byte	0
	.long	955
	.long	955
	.long	.Lxtalabel36
.cc_bottom cc_331
.cc_top cc_332,.Lxtalabel36
	.ascii	"C:/Users/takaaki/git/sw_xSSDAC/module_usb_audio/endpoint0/audiorequests.xc"
	.byte	0
	.long	956
	.long	956
	.long	.Lxtalabel36
.cc_bottom cc_332
.cc_top cc_333,.Lxtalabel36
	.ascii	"C:/Users/takaaki/git/sw_xSSDAC/module_usb_audio/endpoint0/audiorequests.xc"
	.byte	0
	.long	969
	.long	969
	.long	.Lxtalabel36
.cc_bottom cc_333
.cc_top cc_334,.Lxtalabel20
	.ascii	"C:/Users/takaaki/git/sw_xSSDAC/module_usb_audio/endpoint0/audiorequests.xc"
	.byte	0
	.long	971
	.long	971
	.long	.Lxtalabel20
.cc_bottom cc_334
.cc_top cc_335,.Lxtalabel35
	.ascii	"C:/Users/takaaki/git/sw_xSSDAC/module_usb_audio/endpoint0/audiorequests.xc"
	.byte	0
	.long	971
	.long	971
	.long	.Lxtalabel35
.cc_bottom cc_335
.cc_top cc_336,.Lxtalabel20
	.ascii	"C:/Users/takaaki/git/sw_xSSDAC/module_usb_audio/endpoint0/audiorequests.xc"
	.byte	0
	.long	973
	.long	973
	.long	.Lxtalabel20
.cc_bottom cc_336
.cc_top cc_337,.Lxtalabel35
	.ascii	"C:/Users/takaaki/git/sw_xSSDAC/module_usb_audio/endpoint0/audiorequests.xc"
	.byte	0
	.long	973
	.long	973
	.long	.Lxtalabel35
.cc_bottom cc_337
.cc_top cc_338,.Lxtalabel91
	.ascii	"C:/Users/takaaki/git/sw_xSSDAC/module_usb_audio/endpoint0/audiorequests.xc"
	.byte	0
	.long	1071
	.long	1071
	.long	.Lxtalabel91
.cc_bottom cc_338
.cc_top cc_339,.Lxtalabel91
	.ascii	"C:/Users/takaaki/git/sw_xSSDAC/module_usb_audio/endpoint0/audiorequests.xc"
	.byte	0
	.long	1078
	.long	1080
	.long	.Lxtalabel91
.cc_bottom cc_339
.cc_top cc_340,.Lxtalabel91
	.ascii	"C:/Users/takaaki/git/sw_xSSDAC/module_usb_audio/endpoint0/audiorequests.xc"
	.byte	0
	.long	1083
	.long	1083
	.long	.Lxtalabel91
.cc_bottom cc_340
.cc_top cc_341,.Lxtalabel94
	.ascii	"C:/Users/takaaki/git/sw_xSSDAC/module_usb_audio/endpoint0/audiorequests.xc"
	.byte	0
	.long	1084
	.long	1084
	.long	.Lxtalabel94
.cc_bottom cc_341
.cc_top cc_342,.Lxtalabel94
	.ascii	"C:/Users/takaaki/git/sw_xSSDAC/module_usb_audio/endpoint0/audiorequests.xc"
	.byte	0
	.long	1086
	.long	1088
	.long	.Lxtalabel94
.cc_bottom cc_342
.cc_top cc_343,.Lxtalabel95
	.ascii	"C:/Users/takaaki/git/sw_xSSDAC/module_usb_audio/endpoint0/audiorequests.xc"
	.byte	0
	.long	1089
	.long	1089
	.long	.Lxtalabel95
.cc_bottom cc_343
.cc_top cc_344,.Lxtalabel95
	.ascii	"C:/Users/takaaki/git/sw_xSSDAC/module_usb_audio/endpoint0/audiorequests.xc"
	.byte	0
	.long	1091
	.long	1091
	.long	.Lxtalabel95
.cc_bottom cc_344
.cc_top cc_345,.Lxtalabel95
	.ascii	"C:/Users/takaaki/git/sw_xSSDAC/module_usb_audio/endpoint0/audiorequests.xc"
	.byte	0
	.long	1093
	.long	1093
	.long	.Lxtalabel95
.cc_bottom cc_345
.cc_top cc_346,.Lxtalabel95
	.ascii	"C:/Users/takaaki/git/sw_xSSDAC/module_usb_audio/endpoint0/audiorequests.xc"
	.byte	0
	.long	1098
	.long	1098
	.long	.Lxtalabel95
.cc_bottom cc_346
.cc_top cc_347,.Lxtalabel96
	.ascii	"C:/Users/takaaki/git/sw_xSSDAC/module_usb_audio/endpoint0/audiorequests.xc"
	.byte	0
	.long	1099
	.long	1099
	.long	.Lxtalabel96
.cc_bottom cc_347
.cc_top cc_348,.Lxtalabel97
	.ascii	"C:/Users/takaaki/git/sw_xSSDAC/module_usb_audio/endpoint0/audiorequests.xc"
	.byte	0
	.long	1099
	.long	1099
	.long	.Lxtalabel97
.cc_bottom cc_348
.cc_top cc_349,.Lxtalabel97
	.ascii	"C:/Users/takaaki/git/sw_xSSDAC/module_usb_audio/endpoint0/audiorequests.xc"
	.byte	0
	.long	1101
	.long	1101
	.long	.Lxtalabel97
.cc_bottom cc_349
.cc_top cc_350,.Lxtalabel96
	.ascii	"C:/Users/takaaki/git/sw_xSSDAC/module_usb_audio/endpoint0/audiorequests.xc"
	.byte	0
	.long	1101
	.long	1101
	.long	.Lxtalabel96
.cc_bottom cc_350
.cc_top cc_351,.Lxtalabel98
	.ascii	"C:/Users/takaaki/git/sw_xSSDAC/module_usb_audio/endpoint0/audiorequests.xc"
	.byte	0
	.long	1102
	.long	1102
	.long	.Lxtalabel98
.cc_bottom cc_351
.cc_top cc_352,.Lxtalabel98
	.ascii	"C:/Users/takaaki/git/sw_xSSDAC/module_usb_audio/endpoint0/audiorequests.xc"
	.byte	0
	.long	1104
	.long	1104
	.long	.Lxtalabel98
.cc_bottom cc_352
.cc_top cc_353,.Lxtalabel98
	.ascii	"C:/Users/takaaki/git/sw_xSSDAC/module_usb_audio/endpoint0/audiorequests.xc"
	.byte	0
	.long	1106
	.long	1106
	.long	.Lxtalabel98
.cc_bottom cc_353
.cc_top cc_354,.Lxtalabel99
	.ascii	"C:/Users/takaaki/git/sw_xSSDAC/module_usb_audio/endpoint0/audiorequests.xc"
	.byte	0
	.long	1107
	.long	1109
	.long	.Lxtalabel99
.cc_bottom cc_354
.cc_top cc_355,.Lxtalabel100
	.ascii	"C:/Users/takaaki/git/sw_xSSDAC/module_usb_audio/endpoint0/audiorequests.xc"
	.byte	0
	.long	1107
	.long	1109
	.long	.Lxtalabel100
.cc_bottom cc_355
.cc_top cc_356,.Lxtalabel99
	.ascii	"C:/Users/takaaki/git/sw_xSSDAC/module_usb_audio/endpoint0/audiorequests.xc"
	.byte	0
	.long	1113
	.long	1114
	.long	.Lxtalabel99
.cc_bottom cc_356
.cc_top cc_357,.Lxtalabel100
	.ascii	"C:/Users/takaaki/git/sw_xSSDAC/module_usb_audio/endpoint0/audiorequests.xc"
	.byte	0
	.long	1113
	.long	1114
	.long	.Lxtalabel100
.cc_bottom cc_357
.cc_top cc_358,.Lxtalabel99
	.ascii	"C:/Users/takaaki/git/sw_xSSDAC/module_usb_audio/endpoint0/audiorequests.xc"
	.byte	0
	.long	1116
	.long	1116
	.long	.Lxtalabel99
.cc_bottom cc_358
.cc_top cc_359,.Lxtalabel100
	.ascii	"C:/Users/takaaki/git/sw_xSSDAC/module_usb_audio/endpoint0/audiorequests.xc"
	.byte	0
	.long	1116
	.long	1116
	.long	.Lxtalabel100
.cc_bottom cc_359
.cc_top cc_360,.Lxtalabel103
	.ascii	"C:/Users/takaaki/git/sw_xSSDAC/module_usb_audio/endpoint0/audiorequests.xc"
	.byte	0
	.long	1117
	.long	1118
	.long	.Lxtalabel103
.cc_bottom cc_360
.cc_top cc_361,.Lxtalabel102
	.ascii	"C:/Users/takaaki/git/sw_xSSDAC/module_usb_audio/endpoint0/audiorequests.xc"
	.byte	0
	.long	1117
	.long	1118
	.long	.Lxtalabel102
.cc_bottom cc_361
.cc_top cc_362,.Lxtalabel101
	.ascii	"C:/Users/takaaki/git/sw_xSSDAC/module_usb_audio/endpoint0/audiorequests.xc"
	.byte	0
	.long	1117
	.long	1118
	.long	.Lxtalabel101
.cc_bottom cc_362
.cc_top cc_363,.Lxtalabel101
	.ascii	"C:/Users/takaaki/git/sw_xSSDAC/module_usb_audio/endpoint0/audiorequests.xc"
	.byte	0
	.long	1137
	.long	1137
	.long	.Lxtalabel101
.cc_bottom cc_363
.cc_top cc_364,.Lxtalabel102
	.ascii	"C:/Users/takaaki/git/sw_xSSDAC/module_usb_audio/endpoint0/audiorequests.xc"
	.byte	0
	.long	1137
	.long	1137
	.long	.Lxtalabel102
.cc_bottom cc_364
.cc_top cc_365,.Lxtalabel103
	.ascii	"C:/Users/takaaki/git/sw_xSSDAC/module_usb_audio/endpoint0/audiorequests.xc"
	.byte	0
	.long	1137
	.long	1137
	.long	.Lxtalabel103
.cc_bottom cc_365
.cc_top cc_366,.Lxtalabel102
	.ascii	"C:/Users/takaaki/git/sw_xSSDAC/module_usb_audio/endpoint0/audiorequests.xc"
	.byte	0
	.long	1138
	.long	1138
	.long	.Lxtalabel102
.cc_bottom cc_366
.cc_top cc_367,.Lxtalabel101
	.ascii	"C:/Users/takaaki/git/sw_xSSDAC/module_usb_audio/endpoint0/audiorequests.xc"
	.byte	0
	.long	1138
	.long	1138
	.long	.Lxtalabel101
.cc_bottom cc_367
.cc_top cc_368,.Lxtalabel103
	.ascii	"C:/Users/takaaki/git/sw_xSSDAC/module_usb_audio/endpoint0/audiorequests.xc"
	.byte	0
	.long	1138
	.long	1138
	.long	.Lxtalabel103
.cc_bottom cc_368
.cc_top cc_369,.Lxtalabel102
	.ascii	"C:/Users/takaaki/git/sw_xSSDAC/module_usb_audio/endpoint0/audiorequests.xc"
	.byte	0
	.long	1141
	.long	1141
	.long	.Lxtalabel102
.cc_bottom cc_369
.cc_top cc_370,.Lxtalabel101
	.ascii	"C:/Users/takaaki/git/sw_xSSDAC/module_usb_audio/endpoint0/audiorequests.xc"
	.byte	0
	.long	1141
	.long	1141
	.long	.Lxtalabel101
.cc_bottom cc_370
.cc_top cc_371,.Lxtalabel103
	.ascii	"C:/Users/takaaki/git/sw_xSSDAC/module_usb_audio/endpoint0/audiorequests.xc"
	.byte	0
	.long	1141
	.long	1141
	.long	.Lxtalabel103
.cc_bottom cc_371
.cc_top cc_372,.Lxtalabel101
	.ascii	"C:/Users/takaaki/git/sw_xSSDAC/module_usb_audio/endpoint0/audiorequests.xc"
	.byte	0
	.long	1144
	.long	1145
	.long	.Lxtalabel101
.cc_bottom cc_372
.cc_top cc_373,.Lxtalabel103
	.ascii	"C:/Users/takaaki/git/sw_xSSDAC/module_usb_audio/endpoint0/audiorequests.xc"
	.byte	0
	.long	1144
	.long	1145
	.long	.Lxtalabel103
.cc_bottom cc_373
.cc_top cc_374,.Lxtalabel102
	.ascii	"C:/Users/takaaki/git/sw_xSSDAC/module_usb_audio/endpoint0/audiorequests.xc"
	.byte	0
	.long	1144
	.long	1145
	.long	.Lxtalabel102
.cc_bottom cc_374
.cc_top cc_375,.Lxtalabel104
	.ascii	"C:/Users/takaaki/git/sw_xSSDAC/module_usb_audio/endpoint0/audiorequests.xc"
	.byte	0
	.long	1147
	.long	1148
	.long	.Lxtalabel104
.cc_bottom cc_375
.cc_top cc_376,.Lxtalabel98
	.ascii	"C:/Users/takaaki/git/sw_xSSDAC/module_usb_audio/endpoint0/audiorequests.xc"
	.byte	0
	.long	1149
	.long	1149
	.long	.Lxtalabel98
.cc_bottom cc_376
.cc_top cc_377,.Lxtalabel92
	.ascii	"C:/Users/takaaki/git/sw_xSSDAC/module_usb_audio/endpoint0/audiorequests.xc"
	.byte	0
	.long	1154
	.long	1158
	.long	.Lxtalabel92
.cc_bottom cc_377
.cc_top cc_378,.Lxtalabel93
	.ascii	"C:/Users/takaaki/git/sw_xSSDAC/module_usb_audio/endpoint0/audiorequests.xc"
	.byte	0
	.long	1159
	.long	1162
	.long	.Lxtalabel93
.cc_bottom cc_378
.cc_top cc_379,.Lxtalabel92
	.ascii	"C:/Users/takaaki/git/sw_xSSDAC/module_usb_audio/endpoint0/audiorequests.xc"
	.byte	0
	.long	1163
	.long	1163
	.long	.Lxtalabel92
.cc_bottom cc_379
.cc_top cc_380,.Lxtalabel113
	.ascii	"C:/Users/takaaki/git/sw_xSSDAC/module_usb_audio/endpoint0/audiorequests.xc"
	.byte	0
	.long	1173
	.long	1176
	.long	.Lxtalabel113
.cc_bottom cc_380
.cc_top cc_381,.Lxtalabel112
	.ascii	"C:/Users/takaaki/git/sw_xSSDAC/module_usb_audio/endpoint0/audiorequests.xc"
	.byte	0
	.long	1173
	.long	1176
	.long	.Lxtalabel112
.cc_bottom cc_381
.cc_top cc_382,.Lxtalabel105
	.ascii	"C:/Users/takaaki/git/sw_xSSDAC/module_usb_audio/endpoint0/audiorequests.xc"
	.byte	0
	.long	1173
	.long	1176
	.long	.Lxtalabel105
.cc_bottom cc_382
.cc_top cc_383,.Lxtalabel106
	.ascii	"C:/Users/takaaki/git/sw_xSSDAC/module_usb_audio/endpoint0/audiorequests.xc"
	.byte	0
	.long	1173
	.long	1176
	.long	.Lxtalabel106
.cc_bottom cc_383
.cc_top cc_384,.Lxtalabel113
	.ascii	"C:/Users/takaaki/git/sw_xSSDAC/module_usb_audio/endpoint0/audiorequests.xc"
	.byte	0
	.long	1180
	.long	1182
	.long	.Lxtalabel113
.cc_bottom cc_384
.cc_top cc_385,.Lxtalabel105
	.ascii	"C:/Users/takaaki/git/sw_xSSDAC/module_usb_audio/endpoint0/audiorequests.xc"
	.byte	0
	.long	1180
	.long	1182
	.long	.Lxtalabel105
.cc_bottom cc_385
.cc_top cc_386,.Lxtalabel112
	.ascii	"C:/Users/takaaki/git/sw_xSSDAC/module_usb_audio/endpoint0/audiorequests.xc"
	.byte	0
	.long	1180
	.long	1182
	.long	.Lxtalabel112
.cc_bottom cc_386
.cc_top cc_387,.Lxtalabel106
	.ascii	"C:/Users/takaaki/git/sw_xSSDAC/module_usb_audio/endpoint0/audiorequests.xc"
	.byte	0
	.long	1180
	.long	1182
	.long	.Lxtalabel106
.cc_bottom cc_387
.cc_top cc_388,.Lxtalabel107
	.ascii	"C:/Users/takaaki/git/sw_xSSDAC/module_usb_audio/endpoint0/audiorequests.xc"
	.byte	0
	.long	1183
	.long	1184
	.long	.Lxtalabel107
.cc_bottom cc_388
.cc_top cc_389,.Lxtalabel107
	.ascii	"C:/Users/takaaki/git/sw_xSSDAC/module_usb_audio/endpoint0/audiorequests.xc"
	.byte	0
	.long	1186
	.long	1186
	.long	.Lxtalabel107
.cc_bottom cc_389
.cc_top cc_390,.Lxtalabel107
	.ascii	"C:/Users/takaaki/git/sw_xSSDAC/module_usb_audio/endpoint0/audiorequests.xc"
	.byte	0
	.long	1187
	.long	1189
	.long	.Lxtalabel107
.cc_bottom cc_390
.cc_top cc_391,.Lxtalabel108
	.ascii	"C:/Users/takaaki/git/sw_xSSDAC/module_usb_audio/endpoint0/audiorequests.xc"
	.byte	0
	.long	1191
	.long	1191
	.long	.Lxtalabel108
.cc_bottom cc_391
.cc_top cc_392,.Lxtalabel120
	.ascii	"C:/Users/takaaki/git/sw_xSSDAC/module_usb_audio/endpoint0/audiorequests.xc"
	.byte	0
	.long	1191
	.long	1191
	.long	.Lxtalabel120
.cc_bottom cc_392
.cc_top cc_393,.Lxtalabel108
	.ascii	"C:/Users/takaaki/git/sw_xSSDAC/module_usb_audio/endpoint0/audiorequests.xc"
	.byte	0
	.long	1193
	.long	1195
	.long	.Lxtalabel108
.cc_bottom cc_393
.cc_top cc_394,.Lxtalabel120
	.ascii	"C:/Users/takaaki/git/sw_xSSDAC/module_usb_audio/endpoint0/audiorequests.xc"
	.byte	0
	.long	1193
	.long	1195
	.long	.Lxtalabel120
.cc_bottom cc_394
.cc_top cc_395,.Lxtalabel121
	.ascii	"C:/Users/takaaki/git/sw_xSSDAC/module_usb_audio/endpoint0/audiorequests.xc"
	.byte	0
	.long	1197
	.long	1197
	.long	.Lxtalabel121
.cc_bottom cc_395
.cc_top cc_396,.Lxtalabel133
	.ascii	"C:/Users/takaaki/git/sw_xSSDAC/module_usb_audio/endpoint0/audiorequests.xc"
	.byte	0
	.long	1198
	.long	1201
	.long	.Lxtalabel133
.cc_bottom cc_396
.cc_top cc_397,.Lxtalabel122
	.ascii	"C:/Users/takaaki/git/sw_xSSDAC/module_usb_audio/endpoint0/audiorequests.xc"
	.byte	0
	.long	1198
	.long	1201
	.long	.Lxtalabel122
.cc_bottom cc_397
.cc_top cc_398,.Lxtalabel134
	.ascii	"C:/Users/takaaki/git/sw_xSSDAC/module_usb_audio/endpoint0/audiorequests.xc"
	.byte	0
	.long	1202
	.long	1204
	.long	.Lxtalabel134
.cc_bottom cc_398
.cc_top cc_399,.Lxtalabel134
	.ascii	"C:/Users/takaaki/git/sw_xSSDAC/module_usb_audio/endpoint0/audiorequests.xc"
	.byte	0
	.long	1206
	.long	1206
	.long	.Lxtalabel134
.cc_bottom cc_399
.cc_top cc_400,.Lxtalabel123
	.ascii	"C:/Users/takaaki/git/sw_xSSDAC/module_usb_audio/endpoint0/audiorequests.xc"
	.byte	0
	.long	1207
	.long	1210
	.long	.Lxtalabel123
.cc_bottom cc_400
.cc_top cc_401,.Lxtalabel133
	.ascii	"C:/Users/takaaki/git/sw_xSSDAC/module_usb_audio/endpoint0/audiorequests.xc"
	.byte	0
	.long	1211
	.long	1211
	.long	.Lxtalabel133
.cc_bottom cc_401
.cc_top cc_402,.Lxtalabel122
	.ascii	"C:/Users/takaaki/git/sw_xSSDAC/module_usb_audio/endpoint0/audiorequests.xc"
	.byte	0
	.long	1211
	.long	1211
	.long	.Lxtalabel122
.cc_bottom cc_402
.cc_top cc_403,.Lxtalabel109
	.ascii	"C:/Users/takaaki/git/sw_xSSDAC/module_usb_audio/endpoint0/audiorequests.xc"
	.byte	0
	.long	1216
	.long	1216
	.long	.Lxtalabel109
.cc_bottom cc_403
.cc_top cc_404,.Lxtalabel110
	.ascii	"C:/Users/takaaki/git/sw_xSSDAC/module_usb_audio/endpoint0/audiorequests.xc"
	.byte	0
	.long	1217
	.long	1220
	.long	.Lxtalabel110
.cc_bottom cc_404
.cc_top cc_405,.Lxtalabel129
	.ascii	"C:/Users/takaaki/git/sw_xSSDAC/module_usb_audio/endpoint0/audiorequests.xc"
	.byte	0
	.long	1217
	.long	1220
	.long	.Lxtalabel129
.cc_bottom cc_405
.cc_top cc_406,.Lxtalabel130
	.ascii	"C:/Users/takaaki/git/sw_xSSDAC/module_usb_audio/endpoint0/audiorequests.xc"
	.byte	0
	.long	1221
	.long	1223
	.long	.Lxtalabel130
.cc_bottom cc_406
.cc_top cc_407,.Lxtalabel130
	.ascii	"C:/Users/takaaki/git/sw_xSSDAC/module_usb_audio/endpoint0/audiorequests.xc"
	.byte	0
	.long	1225
	.long	1225
	.long	.Lxtalabel130
.cc_bottom cc_407
.cc_top cc_408,.Lxtalabel111
	.ascii	"C:/Users/takaaki/git/sw_xSSDAC/module_usb_audio/endpoint0/audiorequests.xc"
	.byte	0
	.long	1226
	.long	1229
	.long	.Lxtalabel111
.cc_bottom cc_408
.cc_top cc_409,.Lxtalabel110
	.ascii	"C:/Users/takaaki/git/sw_xSSDAC/module_usb_audio/endpoint0/audiorequests.xc"
	.byte	0
	.long	1230
	.long	1230
	.long	.Lxtalabel110
.cc_bottom cc_409
.cc_top cc_410,.Lxtalabel129
	.ascii	"C:/Users/takaaki/git/sw_xSSDAC/module_usb_audio/endpoint0/audiorequests.xc"
	.byte	0
	.long	1230
	.long	1230
	.long	.Lxtalabel129
.cc_bottom cc_410
.cc_top cc_411,.Lxtalabel124
	.ascii	"C:/Users/takaaki/git/sw_xSSDAC/module_usb_audio/endpoint0/audiorequests.xc"
	.byte	0
	.long	1236
	.long	1238
	.long	.Lxtalabel124
.cc_bottom cc_411
.cc_top cc_412,.Lxtalabel114
	.ascii	"C:/Users/takaaki/git/sw_xSSDAC/module_usb_audio/endpoint0/audiorequests.xc"
	.byte	0
	.long	1236
	.long	1238
	.long	.Lxtalabel114
.cc_bottom cc_412
.cc_top cc_413,.Lxtalabel127
	.ascii	"C:/Users/takaaki/git/sw_xSSDAC/module_usb_audio/endpoint0/audiorequests.xc"
	.byte	0
	.long	1239
	.long	1242
	.long	.Lxtalabel127
.cc_bottom cc_413
.cc_top cc_414,.Lxtalabel115
	.ascii	"C:/Users/takaaki/git/sw_xSSDAC/module_usb_audio/endpoint0/audiorequests.xc"
	.byte	0
	.long	1239
	.long	1242
	.long	.Lxtalabel115
.cc_bottom cc_414
.cc_top cc_415,.Lxtalabel128
	.ascii	"C:/Users/takaaki/git/sw_xSSDAC/module_usb_audio/endpoint0/audiorequests.xc"
	.byte	0
	.long	1243
	.long	1249
	.long	.Lxtalabel128
.cc_bottom cc_415
.cc_top cc_416,.Lxtalabel116
	.ascii	"C:/Users/takaaki/git/sw_xSSDAC/module_usb_audio/endpoint0/audiorequests.xc"
	.byte	0
	.long	1250
	.long	1255
	.long	.Lxtalabel116
.cc_bottom cc_416
.cc_top cc_417,.Lxtalabel127
	.ascii	"C:/Users/takaaki/git/sw_xSSDAC/module_usb_audio/endpoint0/audiorequests.xc"
	.byte	0
	.long	1256
	.long	1256
	.long	.Lxtalabel127
.cc_bottom cc_417
.cc_top cc_418,.Lxtalabel115
	.ascii	"C:/Users/takaaki/git/sw_xSSDAC/module_usb_audio/endpoint0/audiorequests.xc"
	.byte	0
	.long	1256
	.long	1256
	.long	.Lxtalabel115
.cc_bottom cc_418
.cc_top cc_419,.Lxtalabel125
	.ascii	"C:/Users/takaaki/git/sw_xSSDAC/module_usb_audio/endpoint0/audiorequests.xc"
	.byte	0
	.long	1258
	.long	1261
	.long	.Lxtalabel125
.cc_bottom cc_419
.cc_top cc_420,.Lxtalabel131
	.ascii	"C:/Users/takaaki/git/sw_xSSDAC/module_usb_audio/endpoint0/audiorequests.xc"
	.byte	0
	.long	1258
	.long	1261
	.long	.Lxtalabel131
.cc_bottom cc_420
.cc_top cc_421,.Lxtalabel132
	.ascii	"C:/Users/takaaki/git/sw_xSSDAC/module_usb_audio/endpoint0/audiorequests.xc"
	.byte	0
	.long	1262
	.long	1267
	.long	.Lxtalabel132
.cc_bottom cc_421
.cc_top cc_422,.Lxtalabel126
	.ascii	"C:/Users/takaaki/git/sw_xSSDAC/module_usb_audio/endpoint0/audiorequests.xc"
	.byte	0
	.long	1268
	.long	1272
	.long	.Lxtalabel126
.cc_bottom cc_422
.cc_top cc_423,.Lxtalabel131
	.ascii	"C:/Users/takaaki/git/sw_xSSDAC/module_usb_audio/endpoint0/audiorequests.xc"
	.byte	0
	.long	1273
	.long	1273
	.long	.Lxtalabel131
.cc_bottom cc_423
.cc_top cc_424,.Lxtalabel125
	.ascii	"C:/Users/takaaki/git/sw_xSSDAC/module_usb_audio/endpoint0/audiorequests.xc"
	.byte	0
	.long	1273
	.long	1273
	.long	.Lxtalabel125
.cc_bottom cc_424
.cc_top cc_425,.Lxtalabel117
	.ascii	"C:/Users/takaaki/git/sw_xSSDAC/module_usb_audio/endpoint0/audiorequests.xc"
	.byte	0
	.long	1277
	.long	1279
	.long	.Lxtalabel117
.cc_bottom cc_425
.cc_top cc_426,.Lxtalabel117
	.ascii	"C:/Users/takaaki/git/sw_xSSDAC/module_usb_audio/endpoint0/audiorequests.xc"
	.byte	0
	.long	1281
	.long	1281
	.long	.Lxtalabel117
.cc_bottom cc_426
.cc_top cc_427,.Lxtalabel118
	.ascii	"C:/Users/takaaki/git/sw_xSSDAC/module_usb_audio/endpoint0/audiorequests.xc"
	.byte	0
	.long	1282
	.long	1284
	.long	.Lxtalabel118
.cc_bottom cc_427
.cc_top cc_428,.Lxtalabel118
	.ascii	"C:/Users/takaaki/git/sw_xSSDAC/module_usb_audio/endpoint0/audiorequests.xc"
	.byte	0
	.long	1286
	.long	1286
	.long	.Lxtalabel118
.cc_bottom cc_428
.cc_top cc_429,.Lxtalabel119
	.ascii	"C:/Users/takaaki/git/sw_xSSDAC/module_usb_audio/endpoint0/audiorequests.xc"
	.byte	0
	.long	1287
	.long	1290
	.long	.Lxtalabel119
.cc_bottom cc_429
.cc_top cc_430,.Lxtalabel8
	.ascii	"C:/Users/takaaki/git/sw_xSSDAC/module_usb_audio/usb_buffer\\xc_ptr.h"
	.byte	0
	.long	11
	.long	15
	.long	.Lxtalabel8
.cc_bottom cc_430
.cc_top cc_431,.Lxtalabel12
	.ascii	"C:/Users/takaaki/git/sw_xSSDAC/module_usb_audio/usb_buffer\\xc_ptr.h"
	.byte	0
	.long	11
	.long	15
	.long	.Lxtalabel12
.cc_bottom cc_431
.cc_top cc_432,.Lxtalabel5
	.ascii	"C:/Users/takaaki/git/sw_xSSDAC/module_usb_audio/usb_buffer\\xc_ptr.h"
	.byte	0
	.long	11
	.long	15
	.long	.Lxtalabel5
.cc_bottom cc_432
.cc_top cc_433,.Lxtalabel8
	.ascii	"C:/Users/takaaki/git/sw_xSSDAC/module_usb_audio/usb_buffer\\xc_ptr.h"
	.byte	0
	.long	11
	.long	15
	.long	.Lxtalabel8
.cc_bottom cc_433
.cc_top cc_434,.Lxtalabel5
	.ascii	"C:/Users/takaaki/git/sw_xSSDAC/module_usb_audio/usb_buffer\\xc_ptr.h"
	.byte	0
	.long	11
	.long	15
	.long	.Lxtalabel5
.cc_bottom cc_434
.cc_top cc_435,.Lxtalabel12
	.ascii	"C:/Users/takaaki/git/sw_xSSDAC/module_usb_audio/usb_buffer\\xc_ptr.h"
	.byte	0
	.long	11
	.long	15
	.long	.Lxtalabel12
.cc_bottom cc_435
.Lentries_end5:
	.section	.xtalooplabeltable,"",@progbits
.Lentries_start6:
	.long	.Lentries_end7-.Lentries_start6
	.long	0
	.ascii	"C:\\Users\\takaaki\\git\\sw_xSSDAC\\app_usb_ssdac_xSSDAC-SD-V2\\.build_1i2o2xxxxxx"
	.byte	0
.cc_top cc_436,.Lxta.loop_labels0
	.ascii	"C:/Users/takaaki/git/sw_xSSDAC/module_usb_audio/endpoint0/audiorequests.xc"
	.byte	0
	.long	151
	.long	151
	.long	.Lxta.loop_labels0
.cc_bottom cc_436
.cc_top cc_437,.Lxta.loop_labels0
	.ascii	"C:/Users/takaaki/git/sw_xSSDAC/module_usb_audio/endpoint0/audiorequests.xc"
	.byte	0
	.long	154
	.long	154
	.long	.Lxta.loop_labels0
.cc_bottom cc_437
.cc_top cc_438,.Lxta.loop_labels0
	.ascii	"C:/Users/takaaki/git/sw_xSSDAC/module_usb_audio/endpoint0/audiorequests.xc"
	.byte	0
	.long	156
	.long	156
	.long	.Lxta.loop_labels0
.cc_bottom cc_438
.cc_top cc_439,.Lxta.loop_labels0
	.ascii	"C:/Users/takaaki/git/sw_xSSDAC/module_usb_audio/endpoint0/audiorequests.xc"
	.byte	0
	.long	167
	.long	167
	.long	.Lxta.loop_labels0
.cc_bottom cc_439
.cc_top cc_440,.Lxta.loop_labels0
	.ascii	"C:/Users/takaaki/git/sw_xSSDAC/module_usb_audio/endpoint0/audiorequests.xc"
	.byte	0
	.long	169
	.long	169
	.long	.Lxta.loop_labels0
.cc_bottom cc_440
.Lentries_end7:
	.section	.trap_info,"",@progbits
.Ltrap_info_entries_start0:
	.long	.Ltrap_info_entries_end0-.Ltrap_info_entries_start0
	.long	1
	.section	.trap_info_str,"MS",@progbits
.Ltrap_info_str0:
.asciiz"C:/Users/takaaki/git/sw_xSSDAC/module_usb_audio/endpoint0/audiorequests.xc:58:5: error: out of bounds array access\n    buffer[index+3] = val>>24;\n    ^~~~~~~~~~~~~~~\n"
	.section	.trap_info,"",@progbits
.cc_top cc_trapinfo_0,.Ltrap_info0
	.long	.Ltrap_info0
	.long	.Ltrap_info_str0
.cc_bottom cc_trapinfo_0
	.section	.trap_info_str,"MS",@progbits
.Ltrap_info_str1:
.asciiz"C:/Users/takaaki/git/sw_xSSDAC/module_usb_audio/endpoint0/audiorequests.xc:59:5: error: out of bounds array access\n    buffer[index+2] = val>>16;\n    ^~~~~~~~~~~~~~~\n"
	.section	.trap_info,"",@progbits
.cc_top cc_trapinfo_1,.Ltrap_info1
	.long	.Ltrap_info1
	.long	.Ltrap_info_str1
.cc_bottom cc_trapinfo_1
	.section	.trap_info_str,"MS",@progbits
.Ltrap_info_str2:
.asciiz"C:/Users/takaaki/git/sw_xSSDAC/module_usb_audio/endpoint0/audiorequests.xc:60:5: error: out of bounds array access\n    buffer[index+1] = val>>8;\n    ^~~~~~~~~~~~~~~\n"
	.section	.trap_info,"",@progbits
.cc_top cc_trapinfo_2,.Ltrap_info2
	.long	.Ltrap_info2
	.long	.Ltrap_info_str2
.cc_bottom cc_trapinfo_2
	.section	.trap_info_str,"MS",@progbits
.Ltrap_info_str3:
.asciiz"C:/Users/takaaki/git/sw_xSSDAC/module_usb_audio/endpoint0/audiorequests.xc:61:5: error: out of bounds array access\n    buffer[index]  =  val;\n    ^~~~~~~~~~~~~\n"
	.section	.trap_info,"",@progbits
.cc_top cc_trapinfo_3,.Ltrap_info3
	.long	.Ltrap_info3
	.long	.Ltrap_info_str3
.cc_bottom cc_trapinfo_3
	.section	.trap_info_str,"MS",@progbits
.Ltrap_info_str4:
.asciiz"C:/Users/takaaki/git/sw_xSSDAC/module_usb_audio/endpoint0/audiorequests.xc:248:39: error: out of bounds array access\n                unsigned master_vol = volsIn[0] == 0x8000 ? 0 : db_to_mult(volsIn[0], 8, 29);\n                                      ^~~~~~~~~\n"
	.section	.trap_info,"",@progbits
.cc_top cc_trapinfo_4,.Ltrap_info4
	.long	.Ltrap_info4
	.long	.Ltrap_info_str4
.cc_bottom cc_trapinfo_4
	.section	.trap_info_str,"MS",@progbits
.Ltrap_info_str5:
.asciiz"C:/Users/takaaki/git/sw_xSSDAC/module_usb_audio/endpoint0/audiorequests.xc:175:39: error: out of bounds array access\n                unsigned master_vol = volsIn[0] == 0x8000 ? 0 : db_to_mult(volsIn[0], 8, 29);\n                                      ^~~~~~~~~\n"
	.section	.trap_info,"",@progbits
.cc_top cc_trapinfo_5,.Ltrap_info5
	.long	.Ltrap_info5
	.long	.Ltrap_info_str5
.cc_bottom cc_trapinfo_5
	.section	.trap_info_str,"MS",@progbits
.Ltrap_info_str6:
.asciiz"C:/Users/takaaki/git/sw_xSSDAC/module_usb_audio/endpoint0/audiorequests.xc:226:39: error: out of bounds array access\n                unsigned master_vol = volsOut[0] == 0x8000 ? 0 : db_to_mult(volsOut[0], 8, 29);\n                                      ^~~~~~~~~~\n"
	.section	.trap_info,"",@progbits
.cc_top cc_trapinfo_6,.Ltrap_info6
	.long	.Ltrap_info6
	.long	.Ltrap_info_str6
.cc_bottom cc_trapinfo_6
	.section	.trap_info_str,"MS",@progbits
.Ltrap_info_str7:
.asciiz"C:/Users/takaaki/git/sw_xSSDAC/module_usb_audio/endpoint0/audiorequests.xc:148:39: error: out of bounds array access\n                unsigned master_vol = volsOut[0] == 0x8000 ? 0 : db_to_mult(volsOut[0], 8, 29);\n                                      ^~~~~~~~~~\n"
	.section	.trap_info,"",@progbits
.cc_top cc_trapinfo_7,.Ltrap_info7
	.long	.Ltrap_info7
	.long	.Ltrap_info_str7
.cc_bottom cc_trapinfo_7
	.section	.trap_info_str,"MS",@progbits
.Ltrap_info_str8:
.asciiz"C:/Users/takaaki/git/sw_xSSDAC/module_usb_audio/endpoint0/audiorequests.xc:154:36: error: out of bounds array access\n                    unsigned vol = volsOut[i] == 0x8000 ? 0 : db_to_mult(volsOut[i], 8, 29);\n                                   ^~~~~~~~~~\n"
	.section	.trap_info,"",@progbits
.cc_top cc_trapinfo_8,.Ltrap_info8
	.long	.Ltrap_info8
	.long	.Ltrap_info_str8
.cc_bottom cc_trapinfo_8
	.section	.trap_info_str,"MS",@progbits
.Ltrap_info_str9:
.asciiz"C:/Users/takaaki/git/sw_xSSDAC/module_usb_audio/endpoint0/audiorequests.xc:156:57: error: out of bounds array access\n                    x = longMul(master_vol, vol, 29) * !mutesOut[0] * !mutesOut[i];\n                                                        ^~~~~~~~~~~\n"
	.section	.trap_info,"",@progbits
.cc_top cc_trapinfo_9,.Ltrap_info9
	.long	.Ltrap_info9
	.long	.Ltrap_info_str9
.cc_bottom cc_trapinfo_9
	.section	.trap_info_str,"MS",@progbits
.Ltrap_info_str10:
.asciiz"C:/Users/takaaki/git/sw_xSSDAC/module_usb_audio/endpoint0/audiorequests.xc:156:72: error: out of bounds array access\n                    x = longMul(master_vol, vol, 29) * !mutesOut[0] * !mutesOut[i];\n                                                                       ^~~~~~~~~~~\n"
	.section	.trap_info,"",@progbits
.cc_top cc_trapinfo_10,.Ltrap_info10
	.long	.Ltrap_info10
	.long	.Ltrap_info_str10
.cc_bottom cc_trapinfo_10
	.section	.trap_info_str,"MS",@progbits
.Ltrap_info_str11:
.asciiz"C:/Users/takaaki/git/sw_xSSDAC/module_usb_audio/endpoint0/audiorequests.xc:249:33: error: out of bounds array access\n                 unsigned vol = volsIn[channel] == 0x8000 ? 0 : db_to_mult(volsIn[channel], 8, 29);\n                                ^~~~~~~~~~~~~~~\n"
	.section	.trap_info,"",@progbits
.cc_top cc_trapinfo_11,.Ltrap_info11
	.long	.Ltrap_info11
	.long	.Ltrap_info_str11
.cc_bottom cc_trapinfo_11
	.section	.trap_info_str,"MS",@progbits
.Ltrap_info_str12:
.asciiz"C:/Users/takaaki/git/sw_xSSDAC/module_usb_audio/endpoint0/audiorequests.xc:251:53: error: out of bounds array access\n                x = longMul(master_vol, vol, 29) * !mutesIn[0] * !mutesIn[channel];\n                                                    ^~~~~~~~~~\n"
	.section	.trap_info,"",@progbits
.cc_top cc_trapinfo_12,.Ltrap_info12
	.long	.Ltrap_info12
	.long	.Ltrap_info_str12
.cc_bottom cc_trapinfo_12
	.section	.trap_info_str,"MS",@progbits
.Ltrap_info_str13:
.asciiz"C:/Users/takaaki/git/sw_xSSDAC/module_usb_audio/endpoint0/audiorequests.xc:251:67: error: out of bounds array access\n                x = longMul(master_vol, vol, 29) * !mutesIn[0] * !mutesIn[channel];\n                                                                  ^~~~~~~~~~~~~~~~\n"
	.section	.trap_info,"",@progbits
.cc_top cc_trapinfo_13,.Ltrap_info13
	.long	.Ltrap_info13
	.long	.Ltrap_info_str13
.cc_bottom cc_trapinfo_13
	.section	.trap_info_str,"MS",@progbits
.Ltrap_info_str14:
.asciiz"C:/Users/takaaki/git/sw_xSSDAC/module_usb_audio/endpoint0/audiorequests.xc:227:32: error: out of bounds array access\n                unsigned vol = volsOut[channel] == 0x8000 ? 0 : db_to_mult(volsOut[channel], 8, 29);\n                               ^~~~~~~~~~~~~~~~\n"
	.section	.trap_info,"",@progbits
.cc_top cc_trapinfo_14,.Ltrap_info14
	.long	.Ltrap_info14
	.long	.Ltrap_info_str14
.cc_bottom cc_trapinfo_14
	.section	.trap_info_str,"MS",@progbits
.Ltrap_info_str15:
.asciiz"C:/Users/takaaki/git/sw_xSSDAC/module_usb_audio/endpoint0/audiorequests.xc:229:53: error: out of bounds array access\n                x = longMul(master_vol, vol, 29) * !mutesOut[0] * !mutesOut[channel];\n                                                    ^~~~~~~~~~~\n"
	.section	.trap_info,"",@progbits
.cc_top cc_trapinfo_15,.Ltrap_info15
	.long	.Ltrap_info15
	.long	.Ltrap_info_str15
.cc_bottom cc_trapinfo_15
	.section	.trap_info_str,"MS",@progbits
.Ltrap_info_str16:
.asciiz"C:/Users/takaaki/git/sw_xSSDAC/module_usb_audio/endpoint0/audiorequests.xc:229:68: error: out of bounds array access\n                x = longMul(master_vol, vol, 29) * !mutesOut[0] * !mutesOut[channel];\n                                                                   ^~~~~~~~~~~~~~~~~\n"
	.section	.trap_info,"",@progbits
.cc_top cc_trapinfo_16,.Ltrap_info16
	.long	.Ltrap_info16
	.long	.Ltrap_info_str16
.cc_bottom cc_trapinfo_16
	.section	.trap_info_str,"MS",@progbits
.Ltrap_info_str17:
.asciiz"C:/Users/takaaki/git/sw_xSSDAC/module_usb_audio/endpoint0/audiorequests.xc:611:53: error: out of bounds array access\n                                        buffer[0] = mutesOut[sp.wValue&0xff];\n                                                    ^~~~~~~~~~~~~~~~~~~~~~~~\n"
	.section	.trap_info,"",@progbits
.cc_top cc_trapinfo_17,.Ltrap_info17
	.long	.Ltrap_info17
	.long	.Ltrap_info_str17
.cc_bottom cc_trapinfo_17
	.section	.trap_info_str,"MS",@progbits
.Ltrap_info_str18:
.asciiz"C:/Users/takaaki/git/sw_xSSDAC/module_usb_audio/endpoint0/audiorequests.xc:559:53: error: out of bounds array access\n                                        buffer[0] = volsOut[ sp.wValue&0xff ];\n                                                    ^~~~~~~~~~~~~~~~~~~~~~~~~\n"
	.section	.trap_info,"",@progbits
.cc_top cc_trapinfo_18,.Ltrap_info18
	.long	.Ltrap_info18
	.long	.Ltrap_info_str18
.cc_bottom cc_trapinfo_18
	.section	.trap_info_str,"MS",@progbits
.Ltrap_info_str19:
.asciiz"C:/Users/takaaki/git/sw_xSSDAC/module_usb_audio/endpoint0/audiorequests.xc:590:41: error: out of bounds array access\n                                        mutesOut[sp.wValue & 0xff] = buffer[0];\n                                        ^~~~~~~~~~~~~~~~~~~~~~~~~~\n"
	.section	.trap_info,"",@progbits
.cc_top cc_trapinfo_19,.Ltrap_info19
	.long	.Ltrap_info19
	.long	.Ltrap_info_str19
.cc_bottom cc_trapinfo_19
	.section	.trap_info_str,"MS",@progbits
.Ltrap_info_str20:
.asciiz"C:/Users/takaaki/git/sw_xSSDAC/module_usb_audio/endpoint0/audiorequests.xc:619:53: error: out of bounds array access\n                                        buffer[0] = mutesIn[ sp.wValue&0xff ];\n                                                    ^~~~~~~~~~~~~~~~~~~~~~~~~\n"
	.section	.trap_info,"",@progbits
.cc_top cc_trapinfo_20,.Ltrap_info20
	.long	.Ltrap_info20
	.long	.Ltrap_info_str20
.cc_bottom cc_trapinfo_20
	.section	.trap_info_str,"MS",@progbits
.Ltrap_info_str21:
.asciiz"C:/Users/takaaki/git/sw_xSSDAC/module_usb_audio/endpoint0/audiorequests.xc:538:41: error: out of bounds array access\n                                        volsOut[ sp.wValue&0xff ] = buffer[0] | (((int) (signed char) buffer[1]) << 8);\n                                        ^~~~~~~~~~~~~~~~~~~~~~~~~\n"
	.section	.trap_info,"",@progbits
.cc_top cc_trapinfo_21,.Ltrap_info21
	.long	.Ltrap_info21
	.long	.Ltrap_info_str21
.cc_bottom cc_trapinfo_21
	.section	.trap_info_str,"MS",@progbits
.Ltrap_info_str22:
.asciiz"C:/Users/takaaki/git/sw_xSSDAC/module_usb_audio/endpoint0/audiorequests.xc:568:53: error: out of bounds array access\n                                        buffer[0] = volsIn[ sp.wValue&0xff ];\n                                                    ^~~~~~~~~~~~~~~~~~~~~~~~\n"
	.section	.trap_info,"",@progbits
.cc_top cc_trapinfo_22,.Ltrap_info22
	.long	.Ltrap_info22
	.long	.Ltrap_info_str22
.cc_bottom cc_trapinfo_22
	.section	.trap_info_str,"MS",@progbits
.Ltrap_info_str23:
.asciiz"C:/Users/takaaki/git/sw_xSSDAC/module_usb_audio/endpoint0/audiorequests.xc:599:41: error: out of bounds array access\n                                        mutesIn[ sp.wValue&0xff ] = buffer[0];\n                                        ^~~~~~~~~~~~~~~~~~~~~~~~~\n"
	.section	.trap_info,"",@progbits
.cc_top cc_trapinfo_23,.Ltrap_info23
	.long	.Ltrap_info23
	.long	.Ltrap_info_str23
.cc_bottom cc_trapinfo_23
	.section	.trap_info_str,"MS",@progbits
.Ltrap_info_str24:
