	.text
	.file	"C:/Users/takaaki/git/sw_xSSDAC/module_operation_console/src/button_listener.xc"
                                        # Start of file scope inline assembly
	.inline_definition delay_seconds
	.inline_definition delay_milliseconds
	.inline_definition delay_microseconds
	.globalresource 0x80300,"p_key","tile[1]"
	.pushsection .netinfo, "", @netinfo
	.int      0x1eaba15c
.globl p_key.info, "i:p"
p_key.info:
	.int 0x00080300
	.long tile + 4
	.popsection
	.weak _i.qspi_access.write.maxchanends.group
	.max_reduce _i.qspi_access.write.max.maxchanends, _i.qspi_access.write.maxchanends.group, 0
	.weak _i.qspi_access.write.maxcores.group
	.max_reduce _i.qspi_access.write.max.maxcores, _i.qspi_access.write.maxcores.group, 0
	.weak _i.qspi_access.write.maxtimers.group
	.max_reduce _i.qspi_access.write.max.maxtimers, _i.qspi_access.write.maxtimers.group, 0
	.weak _i.qspi_access.write.nstackwords.group
	.globl _i.qspi_access.write.nstackwords.group
	.weak _i.qspi_access.write.fns.group
	.globl _i.qspi_access.write.fns.group
	.max_reduce _i.qspi_access.write.max.nstackwords, _i.qspi_access.write.nstackwords.group, 0
	.max_reduce _i.qspi_access.write.fns, _i.qspi_access.write.fns.group, 0
	.weak _i.qspi_access.read.maxchanends.group
	.max_reduce _i.qspi_access.read.max.maxchanends, _i.qspi_access.read.maxchanends.group, 0
	.weak _i.qspi_access.read.maxcores.group
	.max_reduce _i.qspi_access.read.max.maxcores, _i.qspi_access.read.maxcores.group, 0
	.weak _i.qspi_access.read.maxtimers.group
	.max_reduce _i.qspi_access.read.max.maxtimers, _i.qspi_access.read.maxtimers.group, 0
	.weak _i.qspi_access.read.nstackwords.group
	.globl _i.qspi_access.read.nstackwords.group
	.weak _i.qspi_access.read.fns.group
	.globl _i.qspi_access.read.fns.group
	.max_reduce _i.qspi_access.read.max.nstackwords, _i.qspi_access.read.nstackwords.group, 0
	.max_reduce _i.qspi_access.read.fns, _i.qspi_access.read.fns.group, 0
	.weak _i.qspi_access.__interface_init.maxchanends.group
	.max_reduce _i.qspi_access.__interface_init.max.maxchanends, _i.qspi_access.__interface_init.maxchanends.group, 0
	.weak _i.qspi_access.__interface_init.maxcores.group
	.max_reduce _i.qspi_access.__interface_init.max.maxcores, _i.qspi_access.__interface_init.maxcores.group, 0
	.weak _i.qspi_access.__interface_init.maxtimers.group
	.max_reduce _i.qspi_access.__interface_init.max.maxtimers, _i.qspi_access.__interface_init.maxtimers.group, 0
	.weak _i.qspi_access.__interface_init.nstackwords.group
	.globl _i.qspi_access.__interface_init.nstackwords.group
	.weak _i.qspi_access.__interface_init.fns.group
	.globl _i.qspi_access.__interface_init.fns.group
	.max_reduce _i.qspi_access.__interface_init.max.nstackwords, _i.qspi_access.__interface_init.nstackwords.group, 0
	.max_reduce _i.qspi_access.__interface_init.fns, _i.qspi_access.__interface_init.fns.group, 0
	.weak _i.qspi_access._client_call_y.maxchanends.group
	.add_to_set _i.qspi_access._client_call_y.maxchanends.group, (__interface_client_call_y_other.maxchanends + __interface_client_call_y_extra.maxchanends), __interface_client_call_y_other
	.max_reduce _i.qspi_access._client_call_y.max.maxchanends, _i.qspi_access._client_call_y.maxchanends.group, 0
	.weak _i.qspi_access._client_call_y.maxcores.group
	.add_to_set _i.qspi_access._client_call_y.maxcores.group, (__interface_client_call_y_other.maxcores + __interface_client_call_y_extra.maxcores), __interface_client_call_y_other
	.max_reduce _i.qspi_access._client_call_y.max.maxcores, _i.qspi_access._client_call_y.maxcores.group, 0
	.weak _i.qspi_access._client_call_y.maxtimers.group
	.add_to_set _i.qspi_access._client_call_y.maxtimers.group, (__interface_client_call_y_other.maxtimers + __interface_client_call_y_extra.maxtimers), __interface_client_call_y_other
	.max_reduce _i.qspi_access._client_call_y.max.maxtimers, _i.qspi_access._client_call_y.maxtimers.group, 0
	.weak _i.qspi_access._client_call_y.nstackwords.group
	.globl _i.qspi_access._client_call_y.nstackwords.group
	.weak _i.qspi_access._client_call_y.fns.group
	.globl _i.qspi_access._client_call_y.fns.group
	.add_to_set _i.qspi_access._client_call_y.nstackwords.group, (__interface_client_call_y_other.nstackwords + __interface_client_call_y_extra.nstackwords), __interface_client_call_y_other
	.add_to_set _i.qspi_access._client_call_y.fns.group, __interface_client_call_y_other, __interface_client_call_y_other
	.max_reduce _i.qspi_access._client_call_y.max.nstackwords, _i.qspi_access._client_call_y.nstackwords.group, 0
	.max_reduce _i.qspi_access._client_call_y.fns, _i.qspi_access._client_call_y.fns.group, 0
	.set usage.anon.0,0
	.set usage.anon.1,0
	.set usage.anon.2,0
	.globread button_listener_core,console_mode,"C:/Users/takaaki/git/sw_xSSDAC/module_operation_console/src/button_listener.xc:354:31: note: object used here\n    unsafe {p_console_mode = &console_mode;}\n                              ^~~~~~~~~~~~"
	.globread KeyEventInFunctionSelection,selected_function,"C:/Users/takaaki/git/sw_xSSDAC/module_operation_console/src/button_listener.xc:216:32: note: object used here\n        p_selected_function = &selected_function;\n                               ^~~~~~~~~~~~~~~~~"
	.globread KeyEventInFunctionSelection,_func,"C:/Users/takaaki/git/sw_xSSDAC/module_operation_console/src/button_listener.xc:232:16: note: object used here\n        switch(_func){\n               ^~~~~"
	.globread KeyEventInDacModeSelection,fixed_intpol_mode,"C:/Users/takaaki/git/sw_xSSDAC/module_operation_console/src/button_listener.xc:168:32: note: object used here\n        p_fixed_intpol_mode = &fixed_intpol_mode;\n                               ^~~~~~~~~~~~~~~~~"
	.globread KeyEventInDacModeSelection,proposed_intpol_mode,"C:/Users/takaaki/git/sw_xSSDAC/module_operation_console/src/button_listener.xc:167:35: note: object used here\n        p_proposed_intpol_mode = &proposed_intpol_mode;\n                                  ^~~~~~~~~~~~~~~~~~~~"
	.globread KeyEventInDacModeSelection,_func,"C:/Users/takaaki/git/sw_xSSDAC/module_operation_console/src/button_listener.xc:196:16: note: object used here\n        switch(_func){\n               ^~~~~"
	.globread HandleDacCommand,fixed_intpol_mode,"C:/Users/takaaki/git/sw_xSSDAC/module_operation_console/src/button_listener.xc:107:22: note: object used here\n        c_control <: fixed_intpol_mode;\n                     ^~~~~~~~~~~~~~~~~"
	.globwrite button_listener_core,scan_time,"C:/Users/takaaki/git/sw_xSSDAC/module_operation_console/src/button_listener.xc:361:10: note: object used here\n    t :> scan_time;\n         ^~~~~~~~~"
	.globwrite button_listener_core,key_buff,8,4,"C:/Users/takaaki/git/sw_xSSDAC/module_operation_console/src/button_listener.xc:359:5: note: object used here (bytes 8..12)\n    key_buff[2] = key_buff[1];\n    ^~~~~~~~~~~"
	.globwrite button_listener_core,key_buff,4,4,"C:/Users/takaaki/git/sw_xSSDAC/module_operation_console/src/button_listener.xc:358:5: note: object used here (bytes 4..8)\n    key_buff[1] = key_buff[0];\n    ^~~~~~~~~~~"
	.globwrite button_listener_core,key_buff,0,4,"C:/Users/takaaki/git/sw_xSSDAC/module_operation_console/src/button_listener.xc:357:14: note: object used here (bytes 0..4)\n    p_key :> key_buff[0];\n             ^~~~~~~~~~~"
	.globwrite button_listener_core,_func,"C:/Users/takaaki/git/sw_xSSDAC/module_operation_console/src/button_listener.xc:353:5: note: object used here\n    _func = func;\n    ^~~~~"
	.globwrite button_listener_core,p_key,"C:/Users/takaaki/git/sw_xSSDAC/module_operation_console/src/button_listener.xc:357:5: note: object used here\n    p_key :> key_buff[0];\n    ^~~~~"
	.globwrite KeyScan,last_event_time,"C:/Users/takaaki/git/sw_xSSDAC/module_operation_console/src/button_listener.xc:287:9: note: object used here\n        last_event_time = now;\n        ^~~~~~~~~~~~~~~"
	.globwrite KeyScan,key_buff,8,4,"C:/Users/takaaki/git/sw_xSSDAC/module_operation_console/src/button_listener.xc:279:5: note: object used here (bytes 8..12)\n    key_buff[2] = key_buff[1];\n    ^~~~~~~~~~~"
	.globwrite KeyScan,key_buff,4,4,"C:/Users/takaaki/git/sw_xSSDAC/module_operation_console/src/button_listener.xc:280:5: note: object used here (bytes 4..8)\n    key_buff[1] = key_buff[0];\n    ^~~~~~~~~~~"
	.globwrite KeyScan,key_buff,0,4,"C:/Users/takaaki/git/sw_xSSDAC/module_operation_console/src/button_listener.xc:281:14: note: object used here (bytes 0..4)\n    p_key :> key_buff[0];\n             ^~~~~~~~~~~"
	.globwrite KeyScan,p_key,"C:/Users/takaaki/git/sw_xSSDAC/module_operation_console/src/button_listener.xc:281:5: note: object used here\n    p_key :> key_buff[0];\n    ^~~~~"
	.globwrite KeyEventInSDCMode,play_command,"C:/Users/takaaki/git/sw_xSSDAC/module_operation_console/src/button_listener.xc:130:12: note: object used here\n           play_command = _PLAY_CMD_PREV_FOLDER;\n           ^~~~~~~~~~~~"
	.globwrite SendBackTrackControl,play_command_request,"C:/Users/takaaki/git/sw_xSSDAC/module_operation_console/src/button_listener.xc:100:9: note: object used here\n        play_command_request = 0;\n        ^~~~~~~~~~~~~~~~~~~~"
	.globwrite SendBackTrackControl,play_command,"C:/Users/takaaki/git/sw_xSSDAC/module_operation_console/src/button_listener.xc:99:9: note: object used here\n        play_command = _PLAY_CMD_EMPTY;\n        ^~~~~~~~~~~~"
	.globwrite HandlePlayCommand,play_command_request,"C:/Users/takaaki/git/sw_xSSDAC/module_operation_console/src/button_listener.xc:85:9: note: object used here\n        play_command_request = 1;\n        ^~~~~~~~~~~~~~~~~~~~"
	.globwrite HandlePlayCommand,play_command,"C:/Users/takaaki/git/sw_xSSDAC/module_operation_console/src/button_listener.xc:80:9: note: object used here\n        play_command = _PLAY_CMD_EMPTY;\n        ^~~~~~~~~~~~"
	.globwrite HandlePlayCommand,p_key,"C:/Users/takaaki/git/sw_xSSDAC/module_operation_console/src/button_listener.xc:90:9: note: object used here\n        p_key :> temp;\n        ^~~~~"
	.call button_listener_core,SendBackTrackControl
	.call button_listener_core,KeyScan
	.call button_listener_core,HandlePlayCommand
	.call button_listener_core,HandleDacCommand
	.call KeyScan,KeyEvent
	.call KeyEvent,debug_printf
	.call KeyEvent,SwitchConsoleMode
	.call KeyEvent,KeyEventInSDCMode
	.call KeyEvent,KeyEventInFunctionSelection
	.call KeyEvent,KeyEventInDacModeSelection
	.call KeyEventInFunctionSelection,set_display_control_flag
	.call KeyEventInFunctionSelection,SwitchConsoleMode
	.call KeyEventInDacModeSelection,set_display_control_flag
	.call KeyEventInDacModeSelection,SwitchConsoleMode
	.call KeyEventInSDCMode,SwitchConsoleMode
	.call SwitchConsoleMode,set_display_control_flag
	.call HandleDacCommand,set_display_control_flag
	.call HandleDacCommand,debug_printf
	.call usage.anon.2,delay_ticks_longlong
	.call usage.anon.1,delay_ticks_longlong
	.call usage.anon.0,delay_ticks_longlong
	.set QueryChannel.locnoside, 0
	.set HandlePlayCommand.locnoside, 0
	.set SendBackTrackControl.locnoside, 0
	.set HandleDacCommand.locnoside, 0
	.set KeyEventInSDCMode.locnoside, 0
	.set KeyScan.locnoside, 0
	.set button_listener_core.locnoside, 0
	.set HandlePlayCommand.locnoglobalaccess, 0
	.set SendBackTrackControl.locnoglobalaccess, 0
	.set HandleDacCommand.locnoglobalaccess, 0
	.set SwitchConsoleMode.locnoglobalaccess, 0
	.set KeyEventInSDCMode.locnoglobalaccess, 0
	.set KeyEventInDacModeSelection.locnoglobalaccess, 0
	.set KeyEventInFunctionSelection.locnoglobalaccess, 0
	.set KeyEvent.locnoglobalaccess, 0
	.set KeyScan.locnoglobalaccess, 0
	.set button_listener_core.locnoglobalaccess, 0

                                        # End of file scope inline assembly
	.text
	.weak	_i.qspi_access._chan.read
	.align	4
	.type	_i.qspi_access._chan.read,@function
	.cc_top _i.qspi_access._chan.read.function,_i.qspi_access._chan.read
_i.qspi_access._chan.read:              # @_i.qspi_access._chan.read
	.cfi_startproc
	.issue_mode dual
# BB#0:                                 # %allocas
	{
		nop
		dualentsp 4
	}
.Ltmp0:
	.cfi_def_cfa_offset 16
.Ltmp1:
	.cfi_offset 15, 0
	{
		nop
		stw r4, sp[2]
	}
.Ltmp2:
	.cfi_offset 4, -8
	#DEBUG_VALUE: _i.qspi_access._chan.read:dest <- R0
	#DEBUG_VALUE: _i.qspi_access._chan.read:param1 <- R1
	#DEBUG_VALUE: _i.qspi_access._chan.read:param2 <- R2
	#DEBUG_VALUE: _i.qspi_access._chan.read:param3 <- R3
	{
		getr r4, 2
		ldw r11, sp[5]
	}
	{
		setd res[r4], r0
		add r0, r4, 1
	}
	{
		out res[r4], r0
		nop
	}
	{
		outct res[r4], 2
		nop
	}
	{
		chkct res[r4], 1
		nop
	}
	{
		out res[r4], r1
		nop
	}
	{
		out res[r4], r2
		nop
	}
	{
		out res[r4], r11
		stw r3, sp[1]
	}
	{
		outct res[r4], 2
		ldaw r1, sp[1]
	}
	{
		mov r0, r4
		nop
	}
	bl __interface_client_call
	{
		chkct res[r4], 1
		nop
	}
	{
		freer res[r4]
		ldw r4, sp[2]
	}
	{
		nop
		retsp 4
	}
	# RETURN_REG_HOLDER
	.cc_bottom _i.qspi_access._chan.read.function
	.set	_i.qspi_access._chan.read.nstackwords,(__interface_client_call.nstackwords + 4)
	.globl	_i.qspi_access._chan.read.nstackwords
	.weak	_i.qspi_access._chan.read.nstackwords
	.set	_i.qspi_access._chan.read.maxcores,__interface_client_call.maxcores $M 1
	.globl	_i.qspi_access._chan.read.maxcores
	.weak	_i.qspi_access._chan.read.maxcores
	.set	_i.qspi_access._chan.read.maxtimers,__interface_client_call.maxtimers $M 0
	.globl	_i.qspi_access._chan.read.maxtimers
	.weak	_i.qspi_access._chan.read.maxtimers
	.set	_i.qspi_access._chan.read.maxchanends,(1 + __interface_client_call.maxchanends) $M 1
	.globl	_i.qspi_access._chan.read.maxchanends
	.weak	_i.qspi_access._chan.read.maxchanends
.Ltmp3:
	.size	_i.qspi_access._chan.read, .Ltmp3-_i.qspi_access._chan.read
	.cfi_endproc

	.weak	_i.qspi_access._chan.write
	.align	4
	.type	_i.qspi_access._chan.write,@function
	.cc_top _i.qspi_access._chan.write.function,_i.qspi_access._chan.write
_i.qspi_access._chan.write:             # @_i.qspi_access._chan.write
	.cfi_startproc
	.issue_mode dual
# BB#0:                                 # %allocas
	{
		nop
		dualentsp 4
	}
.Ltmp4:
	.cfi_def_cfa_offset 16
.Ltmp5:
	.cfi_offset 15, 0
	{
		nop
		stw r4, sp[2]
	}
.Ltmp6:
	.cfi_offset 4, -8
	#DEBUG_VALUE: _i.qspi_access._chan.write:dest <- R0
	#DEBUG_VALUE: _i.qspi_access._chan.write:param1 <- R1
	#DEBUG_VALUE: _i.qspi_access._chan.write:param2 <- R2
	#DEBUG_VALUE: _i.qspi_access._chan.write:param3 <- R3
	{
		getr r4, 2
		ldw r11, sp[5]
	}
	{
		setd res[r4], r0
		nop
	}
	{
		out res[r4], r4
		nop
	}
	{
		outct res[r4], 2
		nop
	}
	{
		chkct res[r4], 1
		nop
	}
	{
		out res[r4], r1
		nop
	}
	{
		out res[r4], r2
		nop
	}
	{
		out res[r4], r11
		stw r3, sp[1]
	}
	{
		outct res[r4], 2
		ldaw r1, sp[1]
	}
	{
		mov r0, r4
		nop
	}
	bl __interface_client_call
	{
		chkct res[r4], 1
		nop
	}
	{
		freer res[r4]
		ldw r4, sp[2]
	}
	{
		nop
		retsp 4
	}
	# RETURN_REG_HOLDER
	.cc_bottom _i.qspi_access._chan.write.function
	.set	_i.qspi_access._chan.write.nstackwords,(__interface_client_call.nstackwords + 4)
	.globl	_i.qspi_access._chan.write.nstackwords
	.weak	_i.qspi_access._chan.write.nstackwords
	.set	_i.qspi_access._chan.write.maxcores,__interface_client_call.maxcores $M 1
	.globl	_i.qspi_access._chan.write.maxcores
	.weak	_i.qspi_access._chan.write.maxcores
	.set	_i.qspi_access._chan.write.maxtimers,__interface_client_call.maxtimers $M 0
	.globl	_i.qspi_access._chan.write.maxtimers
	.weak	_i.qspi_access._chan.write.maxtimers
	.set	_i.qspi_access._chan.write.maxchanends,(1 + __interface_client_call.maxchanends) $M 1
	.globl	_i.qspi_access._chan.write.maxchanends
	.weak	_i.qspi_access._chan.write.maxchanends
.Ltmp7:
	.size	_i.qspi_access._chan.write, .Ltmp7-_i.qspi_access._chan.write
	.cfi_endproc

	.weak	_i.qspi_access._chan_yield.read
	.align	4
	.type	_i.qspi_access._chan_yield.read,@function
	.cc_top _i.qspi_access._chan_yield.read.function,_i.qspi_access._chan_yield.read
_i.qspi_access._chan_yield.read:        # @_i.qspi_access._chan_yield.read
	.cfi_startproc
	.issue_mode dual
# BB#0:                                 # %allocas
	{
		nop
		dualentsp 4
	}
.Ltmp8:
	.cfi_def_cfa_offset 16
.Ltmp9:
	.cfi_offset 15, 0
	std r5, r4, sp[1]               # 4-byte Folded Spill
.Ltmp10:
	.cfi_offset 4, -8
.Ltmp11:
	.cfi_offset 5, -4
	#DEBUG_VALUE: _i.qspi_access._chan_yield.read:s <- R0
	#DEBUG_VALUE: _i.qspi_access._chan_yield.read:param1 <- R1
	#DEBUG_VALUE: _i.qspi_access._chan_yield.read:param2 <- R2
	#DEBUG_VALUE: _i.qspi_access._chan_yield.read:param3 <- R3
	{
		nop
		ldw r11, sp[5]
	}
	{
		getr r4, 2
		ldw r5, r0[0]
	}
	{
		setd res[r4], r5
		add r5, r4, 1
	}
	{
		out res[r4], r5
		nop
	}
	{
		outct res[r4], 2
		nop
	}
	{
		chkct res[r4], 1
		nop
	}
	{
		out res[r4], r1
		nop
	}
	{
		out res[r4], r2
		nop
	}
	{
		out res[r4], r11
		stw r3, sp[1]
	}
	{
		outct res[r4], 2
		ldw r2, r0[1]
	}
	{
		ldaw r1, sp[1]
		mov r0, r4
	}
	bl __interface_client_call_y
	{
		chkct res[r4], 1
		nop
	}
	{
		freer res[r4]
		nop
	}
	ldd r5, r4, sp[1]               # 4-byte Folded Reload
	{
		nop
		retsp 4
	}
	# RETURN_REG_HOLDER
	.cc_bottom _i.qspi_access._chan_yield.read.function
	.set	_i.qspi_access._chan_yield.read.nstackwords,((_i.qspi_access._client_call_y.max.nstackwords $M ($D __interface_client_call_y.nstackwords ? __interface_client_call_y.nstackwords $: _i.qspi_access._client_call_y.max.nstackwords)) + 4)
	.globl	_i.qspi_access._chan_yield.read.nstackwords
	.weak	_i.qspi_access._chan_yield.read.nstackwords
	.set	_i.qspi_access._chan_yield.read.maxcores,($D __interface_client_call_y.maxcores ? __interface_client_call_y.maxcores $: _i.qspi_access._client_call_y.max.maxcores) $M 1
	.globl	_i.qspi_access._chan_yield.read.maxcores
	.weak	_i.qspi_access._chan_yield.read.maxcores
	.set	_i.qspi_access._chan_yield.read.maxtimers,($D __interface_client_call_y.maxtimers ? __interface_client_call_y.maxtimers $: _i.qspi_access._client_call_y.max.maxtimers) $M 0
	.globl	_i.qspi_access._chan_yield.read.maxtimers
	.weak	_i.qspi_access._chan_yield.read.maxtimers
	.set	_i.qspi_access._chan_yield.read.maxchanends,(1 + ($D __interface_client_call_y.maxchanends ? __interface_client_call_y.maxchanends $: _i.qspi_access._client_call_y.max.maxchanends)) $M 1
	.globl	_i.qspi_access._chan_yield.read.maxchanends
	.weak	_i.qspi_access._chan_yield.read.maxchanends
.Ltmp12:
	.size	_i.qspi_access._chan_yield.read, .Ltmp12-_i.qspi_access._chan_yield.read
	.cfi_endproc

	.weak	_i.qspi_access._chan_yield.write
	.align	4
	.type	_i.qspi_access._chan_yield.write,@function
	.cc_top _i.qspi_access._chan_yield.write.function,_i.qspi_access._chan_yield.write
_i.qspi_access._chan_yield.write:       # @_i.qspi_access._chan_yield.write
	.cfi_startproc
	.issue_mode dual
# BB#0:                                 # %allocas
	{
		nop
		dualentsp 4
	}
.Ltmp13:
	.cfi_def_cfa_offset 16
.Ltmp14:
	.cfi_offset 15, 0
	std r5, r4, sp[1]               # 4-byte Folded Spill
.Ltmp15:
	.cfi_offset 4, -8
.Ltmp16:
	.cfi_offset 5, -4
	#DEBUG_VALUE: _i.qspi_access._chan_yield.write:s <- R0
	#DEBUG_VALUE: _i.qspi_access._chan_yield.write:param1 <- R1
	#DEBUG_VALUE: _i.qspi_access._chan_yield.write:param2 <- R2
	#DEBUG_VALUE: _i.qspi_access._chan_yield.write:param3 <- R3
	{
		nop
		ldw r11, sp[5]
	}
	{
		getr r4, 2
		ldw r5, r0[0]
	}
	{
		setd res[r4], r5
		nop
	}
	{
		out res[r4], r4
		nop
	}
	{
		outct res[r4], 2
		nop
	}
	{
		chkct res[r4], 1
		nop
	}
	{
		out res[r4], r1
		nop
	}
	{
		out res[r4], r2
		nop
	}
	{
		out res[r4], r11
		stw r3, sp[1]
	}
	{
		outct res[r4], 2
		ldw r2, r0[1]
	}
	{
		ldaw r1, sp[1]
		mov r0, r4
	}
	bl __interface_client_call_y
	{
		chkct res[r4], 1
		nop
	}
	{
		freer res[r4]
		nop
	}
	ldd r5, r4, sp[1]               # 4-byte Folded Reload
	{
		nop
		retsp 4
	}
	# RETURN_REG_HOLDER
	.cc_bottom _i.qspi_access._chan_yield.write.function
	.set	_i.qspi_access._chan_yield.write.nstackwords,((_i.qspi_access._client_call_y.max.nstackwords $M ($D __interface_client_call_y.nstackwords ? __interface_client_call_y.nstackwords $: _i.qspi_access._client_call_y.max.nstackwords)) + 4)
	.globl	_i.qspi_access._chan_yield.write.nstackwords
	.weak	_i.qspi_access._chan_yield.write.nstackwords
	.set	_i.qspi_access._chan_yield.write.maxcores,($D __interface_client_call_y.maxcores ? __interface_client_call_y.maxcores $: _i.qspi_access._client_call_y.max.maxcores) $M 1
	.globl	_i.qspi_access._chan_yield.write.maxcores
	.weak	_i.qspi_access._chan_yield.write.maxcores
	.set	_i.qspi_access._chan_yield.write.maxtimers,($D __interface_client_call_y.maxtimers ? __interface_client_call_y.maxtimers $: _i.qspi_access._client_call_y.max.maxtimers) $M 0
	.globl	_i.qspi_access._chan_yield.write.maxtimers
	.weak	_i.qspi_access._chan_yield.write.maxtimers
	.set	_i.qspi_access._chan_yield.write.maxchanends,(1 + ($D __interface_client_call_y.maxchanends ? __interface_client_call_y.maxchanends $: _i.qspi_access._client_call_y.max.maxchanends)) $M 1
	.globl	_i.qspi_access._chan_yield.write.maxchanends
	.weak	_i.qspi_access._chan_yield.write.maxchanends
.Ltmp17:
	.size	_i.qspi_access._chan_yield.write, .Ltmp17-_i.qspi_access._chan_yield.write
	.cfi_endproc

	.globl	QueryChannel
	.align	4
	.type	QueryChannel,@function
	.cc_top QueryChannel.function,QueryChannel
QueryChannel:                           # @QueryChannel
.Lfunc_begin4:
	.loc	1 68 0                  # C:/Users/takaaki/git/sw_xSSDAC/module_operation_console/src/button_listener.xc:68:0
	.cfi_startproc
	.issue_mode dual
# BB#0:                                 # %allocas
.Lxtalabel0:
	#DEBUG_VALUE: QueryChannel:ch <- R0
	#DEBUG_VALUE: QueryChannel:command <- R1
	{
		outct res[r0], 1
		dualentsp 0
	}
	.loc	1 70 18 prologue_end    # C:/Users/takaaki/git/sw_xSSDAC/module_operation_console/src/button_listener.xc:70:18
.Ltmp18:
	{
		chkct res[r0], 1
		nop
	}
	.loc	1 70 18                 # C:/Users/takaaki/git/sw_xSSDAC/module_operation_console/src/button_listener.xc:70:18
.Lxta.endpoint_labels0:
	{
		out res[r0], r1
		nop
	}
	.loc	1 70 18                 # C:/Users/takaaki/git/sw_xSSDAC/module_operation_console/src/button_listener.xc:70:18
	{
		outct res[r0], 1
		nop
	}
	.loc	1 70 18                 # C:/Users/takaaki/git/sw_xSSDAC/module_operation_console/src/button_listener.xc:70:18
	{
		chkct res[r0], 1
		nop
	}
	.loc	1 71 0                  # C:/Users/takaaki/git/sw_xSSDAC/module_operation_console/src/button_listener.xc:71:0
	{
		chkct res[r0], 1
		nop
	}
	.loc	1 71 0                  # C:/Users/takaaki/git/sw_xSSDAC/module_operation_console/src/button_listener.xc:71:0
	{
		outct res[r0], 1
		nop
	}
	.loc	1 71 0                  # C:/Users/takaaki/git/sw_xSSDAC/module_operation_console/src/button_listener.xc:71:0
.Lxta.endpoint_labels1:
	{
		in r1, res[r0]
		nop
	}
.Ltmp19:
	#DEBUG_VALUE: reply <- R1
	.loc	1 71 0                  # C:/Users/takaaki/git/sw_xSSDAC/module_operation_console/src/button_listener.xc:71:0
	{
		chkct res[r0], 1
		nop
	}
	.loc	1 71 0                  # C:/Users/takaaki/git/sw_xSSDAC/module_operation_console/src/button_listener.xc:71:0
	{
		outct res[r0], 1
		mov r0, r1
	}
.Ltmp20:
	{
		nop
		retsp 0
	}
	# RETURN_REG_HOLDER
.Ltmp21:
	.cc_bottom QueryChannel.function
	.set	QueryChannel.nstackwords,0
	.globl	QueryChannel.nstackwords
	.set	QueryChannel.maxcores,1
	.globl	QueryChannel.maxcores
	.set	QueryChannel.maxtimers,0
	.globl	QueryChannel.maxtimers
	.set	QueryChannel.maxchanends,0
	.globl	QueryChannel.maxchanends
.Ltmp22:
	.size	QueryChannel, .Ltmp22-QueryChannel
.Lfunc_end4:
	.cfi_endproc

	.section	.cp.rodata.cst4,"aMc",@progbits,4
	.cc_top .LCPI5_0.data,.LCPI5_0
	.align	4
	.type	.LCPI5_0,@object
	.size	.LCPI5_0, 4
.LCPI5_0:
	.long	1000000                 # 0xf4240
	.cc_bottom .LCPI5_0.data
	.text
	.globl	button_listener_core
	.align	4
	.type	button_listener_core,@function
	.cc_top button_listener_core.function,button_listener_core
button_listener_core:                   # @button_listener_core
.Lfunc_begin5:
	.loc	1 352 0                 # C:/Users/takaaki/git/sw_xSSDAC/module_operation_console/src/button_listener.xc:352:0
	.cfi_startproc
	.issue_mode dual
# BB#0:                                 # %allocas
.Lxtalabel1:
	{
		nop
		dualentsp 8
	}
.Ltmp23:
	.cfi_def_cfa_offset 32
.Ltmp24:
	.cfi_offset 15, 0
	std r5, r4, sp[1]               # 4-byte Folded Spill
.Ltmp25:
	.cfi_offset 4, -24
.Ltmp26:
	.cfi_offset 5, -20
	std r7, r6, sp[2]               # 4-byte Folded Spill
.Ltmp27:
	.cfi_offset 6, -16
.Ltmp28:
	.cfi_offset 7, -12
.Ltmp29:
	.cfi_offset 8, -8
	#DEBUG_VALUE: button_listener_core:func <- R0
	#DEBUG_VALUE: button_listener_core:c_play_control <- R1
	#DEBUG_VALUE: button_listener_core:c_dac_control <- R2
.Ltmp30:
	#DEBUG_VALUE: button_listener_core:c_dac_control <- R4
	{
		mov r4, r2
		stw r8, sp[6]
	}
.Ltmp31:
	{
		mov r5, r1
		nop
	}
.Ltmp32:
	#DEBUG_VALUE: button_listener_core:c_play_control <- R5
	.loc	1 353 0 prologue_end    # C:/Users/takaaki/git/sw_xSSDAC/module_operation_console/src/button_listener.xc:353:0
	stw r0, dp[_func]
	.loc	1 354 0                 # C:/Users/takaaki/git/sw_xSSDAC/module_operation_console/src/button_listener.xc:354:0
	ldaw r0, dp[console_mode]
.Ltmp33:
	stw r0, dp[p_console_mode]
	.loc	1 357 0                 # C:/Users/takaaki/git/sw_xSSDAC/module_operation_console/src/button_listener.xc:357:0
.Ltmp34:
	ldw r0, dp[p_key]
	.loc	1 357 0                 # C:/Users/takaaki/git/sw_xSSDAC/module_operation_console/src/button_listener.xc:357:0
	{
		setc res[r0], 1
		nop
	}
	.loc	1 357 0                 # C:/Users/takaaki/git/sw_xSSDAC/module_operation_console/src/button_listener.xc:357:0
.Lxta.endpoint_labels2:
	{
		in r0, res[r0]
		nop
	}
	.loc	1 357 0                 # C:/Users/takaaki/git/sw_xSSDAC/module_operation_console/src/button_listener.xc:357:0
	stw r0, dp[key_buff]
	.loc	1 358 0                 # C:/Users/takaaki/git/sw_xSSDAC/module_operation_console/src/button_listener.xc:358:0
	stw r0, dp[key_buff+4]
	.loc	1 359 0                 # C:/Users/takaaki/git/sw_xSSDAC/module_operation_console/src/button_listener.xc:359:0
	stw r0, dp[key_buff+8]
	.loc	1 361 0                 # C:/Users/takaaki/git/sw_xSSDAC/module_operation_console/src/button_listener.xc:361:0
	{
		gettime r0
		nop
	}
	.loc	1 361 0                 # C:/Users/takaaki/git/sw_xSSDAC/module_operation_console/src/button_listener.xc:361:0
	stw r0, dp[scan_time]
.Ltrap_info0:
	{
		ecallf r5
		nop
	}
	#DEBUG_VALUE: button_listener_core:c_play_control <- R5
.Ltmp35:
	#DEBUG_VALUE: button_listener_core:c_dac_control <- R4
	.loc	1 370 9                 # C:/Users/takaaki/git/sw_xSSDAC/module_operation_console/src/button_listener.xc:370:9
	{
		get r11, id
		nop
	}
	.loc	1 370 9                 # C:/Users/takaaki/git/sw_xSSDAC/module_operation_console/src/button_listener.xc:370:9
	ldaw r0, dp[__timers]
	{
		nop
		ldw r6, r0[r11]
	}
	ldw r7, cp[.LCPI5_0]
	{
		ldc r8, 0
		nop
	}
	bu .LBB5_1
.Ltmp36:
.Ltmp37:                                # Block address taken
.LBB5_5:                                # %selectcase6
                                        #   in Loop: Header=BB5_1 Depth=1
.Lxtalabel2:
	#DEBUG_VALUE: button_listener_core:c_play_control <- R5
	#DEBUG_VALUE: button_listener_core:c_dac_control <- R4
	.loc	1 381 0                 # C:/Users/takaaki/git/sw_xSSDAC/module_operation_console/src/button_listener.xc:381:0
.Lxta.endpoint_labels3:
	{
		in r0, res[r6]
		nop
	}
.Ltmp38:
	.loc	1 382 0                 # C:/Users/takaaki/git/sw_xSSDAC/module_operation_console/src/button_listener.xc:382:0
.Lxta.call_labels0:
	bl KeyScan
	.loc	1 383 0                 # C:/Users/takaaki/git/sw_xSSDAC/module_operation_console/src/button_listener.xc:383:0
	ldw r0, dp[scan_time]
	.loc	1 383 0                 # C:/Users/takaaki/git/sw_xSSDAC/module_operation_console/src/button_listener.xc:383:0
	{
		add r0, r0, r7
		nop
	}
	.loc	1 383 0                 # C:/Users/takaaki/git/sw_xSSDAC/module_operation_console/src/button_listener.xc:383:0
	stw r0, dp[scan_time]
.Ltmp39:
.LBB5_1:                                # %afternullcheck
                                        # =>This Inner Loop Header: Depth=1
.Lxtalabel3:
	#DEBUG_VALUE: button_listener_core:c_play_control <- R5
	#DEBUG_VALUE: button_listener_core:c_dac_control <- R4
	.loc	1 97 5                  # C:/Users/takaaki/git/sw_xSSDAC/module_operation_console/src/button_listener.xc:97:5
	ldw r0, dp[play_command_request]
	.loc	1 97 5                  # C:/Users/takaaki/git/sw_xSSDAC/module_operation_console/src/button_listener.xc:97:5
	{
		eq r0, r0, 1
		nop
	}
	bf r0, .LBB5_4
.Ltmp40:
# BB#2:                                 # %afternullcheck
                                        #   in Loop: Header=BB5_1 Depth=1
.Lxtalabel4:
	#DEBUG_VALUE: button_listener_core:c_play_control <- R5
	#DEBUG_VALUE: button_listener_core:c_dac_control <- R4
	.loc	1 368 0                 # C:/Users/takaaki/git/sw_xSSDAC/module_operation_console/src/button_listener.xc:368:0
	ldw r0, dp[play_command]
	bf r0, .LBB5_4
.Ltmp41:
# BB#3:                                 # %iftrue.i
                                        #   in Loop: Header=BB5_1 Depth=1
.Lxtalabel5:
	#DEBUG_VALUE: button_listener_core:c_play_control <- R5
	#DEBUG_VALUE: button_listener_core:c_dac_control <- R4
	#DEBUG_VALUE: SendBackTrackControl:c_track_control <- R5
	.loc	1 98 40                 # C:/Users/takaaki/git/sw_xSSDAC/module_operation_console/src/button_listener.xc:98:40
	{
		outct res[r5], 1
		nop
	}
	.loc	1 98 40                 # C:/Users/takaaki/git/sw_xSSDAC/module_operation_console/src/button_listener.xc:98:40
	{
		chkct res[r5], 1
		nop
	}
	.loc	1 98 40                 # C:/Users/takaaki/git/sw_xSSDAC/module_operation_console/src/button_listener.xc:98:40
.Lxta.endpoint_labels4:
	{
		out res[r5], r0
		nop
	}
	.loc	1 98 40                 # C:/Users/takaaki/git/sw_xSSDAC/module_operation_console/src/button_listener.xc:98:40
	{
		outct res[r5], 1
		nop
	}
	.loc	1 98 40                 # C:/Users/takaaki/git/sw_xSSDAC/module_operation_console/src/button_listener.xc:98:40
	{
		chkct res[r5], 1
		nop
	}
	.loc	1 99 0                  # C:/Users/takaaki/git/sw_xSSDAC/module_operation_console/src/button_listener.xc:99:0
	stw r8, dp[play_command]
	.loc	1 100 0                 # C:/Users/takaaki/git/sw_xSSDAC/module_operation_console/src/button_listener.xc:100:0
	stw r8, dp[play_command_request]
.Ltmp42:
.LBB5_4:                                # %SendBackTrackControl.exit
                                        #   in Loop: Header=BB5_1 Depth=1
.Lxtalabel6:
	#DEBUG_VALUE: button_listener_core:c_play_control <- R5
	#DEBUG_VALUE: button_listener_core:c_dac_control <- R4
	.loc	1 370 9                 # C:/Users/takaaki/git/sw_xSSDAC/module_operation_console/src/button_listener.xc:370:9
	{
		clre
		nop
	}
	ldap r11, .Ltmp43
	.loc	1 370 9                 # C:/Users/takaaki/git/sw_xSSDAC/module_operation_console/src/button_listener.xc:370:9
	{
		setv res[r5], r11
		nop
	}
	.loc	1 370 9                 # C:/Users/takaaki/git/sw_xSSDAC/module_operation_console/src/button_listener.xc:370:9
	{
		eeu res[r5]
		nop
	}
	ldap r11, .Ltmp44
	.loc	1 370 9                 # C:/Users/takaaki/git/sw_xSSDAC/module_operation_console/src/button_listener.xc:370:9
	{
		setv res[r4], r11
		nop
	}
	.loc	1 370 9                 # C:/Users/takaaki/git/sw_xSSDAC/module_operation_console/src/button_listener.xc:370:9
	{
		eeu res[r4]
		nop
	}
	.loc	1 370 9                 # C:/Users/takaaki/git/sw_xSSDAC/module_operation_console/src/button_listener.xc:370:9
	ldw r0, dp[scan_time]
	.loc	1 370 9                 # C:/Users/takaaki/git/sw_xSSDAC/module_operation_console/src/button_listener.xc:370:9
	{
		setd res[r6], r0
		nop
	}
	.loc	1 370 9                 # C:/Users/takaaki/git/sw_xSSDAC/module_operation_console/src/button_listener.xc:370:9
	{
		setc res[r6], 9
		nop
	}
	ldap r11, .Ltmp37
	.loc	1 370 9                 # C:/Users/takaaki/git/sw_xSSDAC/module_operation_console/src/button_listener.xc:370:9
	{
		setv res[r6], r11
		nop
	}
	.loc	1 370 9                 # C:/Users/takaaki/git/sw_xSSDAC/module_operation_console/src/button_listener.xc:370:9
	{
		eeu res[r6]
		nop
	}
	.loc	1 384 0                 # C:/Users/takaaki/git/sw_xSSDAC/module_operation_console/src/button_listener.xc:384:0

	.xtabranch .LBB5_6, .LBB5_7, .LBB5_5
	{
		waiteu
		nop
	}
.Ltmp45:
.Ltmp43:                                # Block address taken
.LBB5_6:                                # %afternullcheck13
                                        #   in Loop: Header=BB5_1 Depth=1
.Lxtalabel7:
	#DEBUG_VALUE: button_listener_core:c_play_control <- R5
	#DEBUG_VALUE: button_listener_core:c_dac_control <- R4
	.loc	1 372 0                 # C:/Users/takaaki/git/sw_xSSDAC/module_operation_console/src/button_listener.xc:372:0
	{
		chkct res[r5], 1
		nop
	}
	.loc	1 372 0                 # C:/Users/takaaki/git/sw_xSSDAC/module_operation_console/src/button_listener.xc:372:0
	{
		outct res[r5], 1
		nop
	}
	.loc	1 372 0                 # C:/Users/takaaki/git/sw_xSSDAC/module_operation_console/src/button_listener.xc:372:0
.Lxta.endpoint_labels5:
	{
		in r1, res[r5]
		nop
	}
.Ltmp46:
	#DEBUG_VALUE: query_type <- R1
	.loc	1 372 0                 # C:/Users/takaaki/git/sw_xSSDAC/module_operation_console/src/button_listener.xc:372:0
	{
		chkct res[r5], 1
		nop
	}
	.loc	1 372 0                 # C:/Users/takaaki/git/sw_xSSDAC/module_operation_console/src/button_listener.xc:372:0
	{
		outct res[r5], 1
		mov r0, r5
	}
	.loc	1 373 0                 # C:/Users/takaaki/git/sw_xSSDAC/module_operation_console/src/button_listener.xc:373:0
.Lxta.call_labels1:
	bl HandlePlayCommand
.Ltmp47:
	bu .LBB5_1
.Ltmp48:
.Ltmp44:                                # Block address taken
.LBB5_7:                                # %selectcase4
                                        #   in Loop: Header=BB5_1 Depth=1
.Lxtalabel8:
	#DEBUG_VALUE: button_listener_core:c_play_control <- R5
	#DEBUG_VALUE: button_listener_core:c_dac_control <- R4
	.loc	1 377 0                 # C:/Users/takaaki/git/sw_xSSDAC/module_operation_console/src/button_listener.xc:377:0
	{
		chkct res[r4], 1
		nop
	}
	.loc	1 377 0                 # C:/Users/takaaki/git/sw_xSSDAC/module_operation_console/src/button_listener.xc:377:0
	{
		outct res[r4], 1
		nop
	}
	.loc	1 377 0                 # C:/Users/takaaki/git/sw_xSSDAC/module_operation_console/src/button_listener.xc:377:0
.Lxta.endpoint_labels6:
	{
		in r1, res[r4]
		nop
	}
.Ltmp49:
	#DEBUG_VALUE: dac_command <- R1
	.loc	1 377 0                 # C:/Users/takaaki/git/sw_xSSDAC/module_operation_console/src/button_listener.xc:377:0
	{
		chkct res[r4], 1
		nop
	}
	#DEBUG_VALUE: button_listener_core:c_play_control <- R5
	#DEBUG_VALUE: button_listener_core:c_dac_control <- R4
	#DEBUG_VALUE: dac_command <- R1
	.loc	1 377 0                 # C:/Users/takaaki/git/sw_xSSDAC/module_operation_console/src/button_listener.xc:377:0
.Ltrap_info1:
	{
		outct res[r4], 1
		ecallf r4
	}
	.loc	1 378 0                 # C:/Users/takaaki/git/sw_xSSDAC/module_operation_console/src/button_listener.xc:378:0
	{
		mov r0, r4
		nop
	}
.Lxta.call_labels2:
	bl HandleDacCommand
.Ltmp50:
	bu .LBB5_1
.Ltmp51:
	.cc_bottom button_listener_core.function
	.set	button_listener_core.nstackwords,((HandlePlayCommand.nstackwords $M HandleDacCommand.nstackwords $M KeyScan.nstackwords) + 8)
	.globl	button_listener_core.nstackwords
	.set	button_listener_core.maxcores,HandleDacCommand.maxcores $M HandlePlayCommand.maxcores $M KeyScan.maxcores $M 1
	.globl	button_listener_core.maxcores
	.set	button_listener_core.maxtimers,HandleDacCommand.maxtimers $M HandlePlayCommand.maxtimers $M KeyScan.maxtimers $M 0
	.globl	button_listener_core.maxtimers
	.set	button_listener_core.maxchanends,HandleDacCommand.maxchanends $M HandlePlayCommand.maxchanends $M KeyScan.maxchanends $M 0
	.globl	button_listener_core.maxchanends
.Ltmp52:
	.size	button_listener_core, .Ltmp52-button_listener_core
.Lfunc_end5:
	.cfi_endproc

	.section	.cp.rodata.cst4,"aMc",@progbits,4
	.cc_top .LCPI6_0.data,.LCPI6_0
	.align	4
	.type	.LCPI6_0,@object
	.size	.LCPI6_0, 4
.LCPI6_0:
	.long	1000000                 # 0xf4240
	.cc_bottom .LCPI6_0.data
	.text
	.globl	_Sbutton_listener_core_0
	.align	4
	.type	_Sbutton_listener_core_0,@function
	.cc_top _Sbutton_listener_core_0.function,_Sbutton_listener_core_0
_Sbutton_listener_core_0:               # @_Sbutton_listener_core_0
.Lfunc_begin6:
	.loc	1 352 0                 # C:/Users/takaaki/git/sw_xSSDAC/module_operation_console/src/button_listener.xc:352:0
	.cfi_startproc
	.issue_mode dual
# BB#0:                                 # %allocas
.Lxtalabel9:
	{
		nop
		dualentsp 8
	}
.Ltmp53:
	.cfi_def_cfa_offset 32
.Ltmp54:
	.cfi_offset 15, 0
	std r5, r4, sp[1]               # 4-byte Folded Spill
.Ltmp55:
	.cfi_offset 4, -24
.Ltmp56:
	.cfi_offset 5, -20
	std r7, r6, sp[2]               # 4-byte Folded Spill
.Ltmp57:
	.cfi_offset 6, -16
.Ltmp58:
	.cfi_offset 7, -12
.Ltmp59:
	.cfi_offset 8, -8
	#DEBUG_VALUE: button_listener_core:c_play_control <- R0
	#DEBUG_VALUE: button_listener_core:c_dac_control <- R1
.Ltmp60:
	#DEBUG_VALUE: button_listener_core:c_dac_control <- R4
	{
		mov r4, r1
		stw r8, sp[6]
	}
.Ltmp61:
	#DEBUG_VALUE: func <- 0
	#DEBUG_VALUE: button_listener_core:c_play_control <- R5
	{
		mov r5, r0
		ldc r6, 0
	}
.Ltmp62:
	.loc	1 353 0 prologue_end    # C:/Users/takaaki/git/sw_xSSDAC/module_operation_console/src/button_listener.xc:353:0
	stw r6, dp[_func]
	.loc	1 354 0                 # C:/Users/takaaki/git/sw_xSSDAC/module_operation_console/src/button_listener.xc:354:0
	ldaw r0, dp[console_mode]
	stw r0, dp[p_console_mode]
	.loc	1 357 0                 # C:/Users/takaaki/git/sw_xSSDAC/module_operation_console/src/button_listener.xc:357:0
.Ltmp63:
	ldw r0, dp[p_key]
	.loc	1 357 0                 # C:/Users/takaaki/git/sw_xSSDAC/module_operation_console/src/button_listener.xc:357:0
	{
		setc res[r0], 1
		nop
	}
	.loc	1 357 0                 # C:/Users/takaaki/git/sw_xSSDAC/module_operation_console/src/button_listener.xc:357:0
.Lxta.endpoint_labels7:
	{
		in r0, res[r0]
		nop
	}
	.loc	1 357 0                 # C:/Users/takaaki/git/sw_xSSDAC/module_operation_console/src/button_listener.xc:357:0
	stw r0, dp[key_buff]
	.loc	1 358 0                 # C:/Users/takaaki/git/sw_xSSDAC/module_operation_console/src/button_listener.xc:358:0
	stw r0, dp[key_buff+4]
	.loc	1 359 0                 # C:/Users/takaaki/git/sw_xSSDAC/module_operation_console/src/button_listener.xc:359:0
	stw r0, dp[key_buff+8]
	.loc	1 361 0                 # C:/Users/takaaki/git/sw_xSSDAC/module_operation_console/src/button_listener.xc:361:0
	{
		gettime r0
		nop
	}
	.loc	1 361 0                 # C:/Users/takaaki/git/sw_xSSDAC/module_operation_console/src/button_listener.xc:361:0
	stw r0, dp[scan_time]
.Ltrap_info2:
	{
		ecallf r5
		nop
	}
.Ltmp64:
	#DEBUG_VALUE: button_listener_core:c_play_control <- R5
	#DEBUG_VALUE: button_listener_core:c_dac_control <- R4
	#DEBUG_VALUE: func <- 0
	.loc	1 370 9                 # C:/Users/takaaki/git/sw_xSSDAC/module_operation_console/src/button_listener.xc:370:9
	{
		get r11, id
		nop
	}
	.loc	1 370 9                 # C:/Users/takaaki/git/sw_xSSDAC/module_operation_console/src/button_listener.xc:370:9
	ldaw r0, dp[__timers]
	{
		nop
		ldw r7, r0[r11]
	}
	ldw r8, cp[.LCPI6_0]
	bu .LBB6_1
.Ltmp65:
.Ltmp66:                                # Block address taken
.LBB6_5:                                # %selectcase6
                                        #   in Loop: Header=BB6_1 Depth=1
.Lxtalabel10:
	#DEBUG_VALUE: button_listener_core:c_play_control <- R5
	#DEBUG_VALUE: button_listener_core:c_dac_control <- R4
	#DEBUG_VALUE: func <- 0
	.loc	1 381 0                 # C:/Users/takaaki/git/sw_xSSDAC/module_operation_console/src/button_listener.xc:381:0
.Lxta.endpoint_labels8:
	{
		in r0, res[r7]
		nop
	}
.Ltmp67:
	.loc	1 382 0                 # C:/Users/takaaki/git/sw_xSSDAC/module_operation_console/src/button_listener.xc:382:0
.Lxta.call_labels3:
	bl KeyScan
	.loc	1 383 0                 # C:/Users/takaaki/git/sw_xSSDAC/module_operation_console/src/button_listener.xc:383:0
	ldw r0, dp[scan_time]
	.loc	1 383 0                 # C:/Users/takaaki/git/sw_xSSDAC/module_operation_console/src/button_listener.xc:383:0
	{
		add r0, r0, r8
		nop
	}
	.loc	1 383 0                 # C:/Users/takaaki/git/sw_xSSDAC/module_operation_console/src/button_listener.xc:383:0
	stw r0, dp[scan_time]
.Ltmp68:
.LBB6_1:                                # %afternullcheck
                                        # =>This Inner Loop Header: Depth=1
.Lxtalabel11:
	#DEBUG_VALUE: button_listener_core:c_play_control <- R5
	#DEBUG_VALUE: button_listener_core:c_dac_control <- R4
	#DEBUG_VALUE: func <- 0
	.loc	1 97 5                  # C:/Users/takaaki/git/sw_xSSDAC/module_operation_console/src/button_listener.xc:97:5
	ldw r0, dp[play_command_request]
	.loc	1 97 5                  # C:/Users/takaaki/git/sw_xSSDAC/module_operation_console/src/button_listener.xc:97:5
	{
		eq r0, r0, 1
		nop
	}
	bf r0, .LBB6_4
.Ltmp69:
# BB#2:                                 # %afternullcheck
                                        #   in Loop: Header=BB6_1 Depth=1
.Lxtalabel12:
	#DEBUG_VALUE: button_listener_core:c_play_control <- R5
	#DEBUG_VALUE: button_listener_core:c_dac_control <- R4
	#DEBUG_VALUE: func <- 0
	.loc	1 368 0                 # C:/Users/takaaki/git/sw_xSSDAC/module_operation_console/src/button_listener.xc:368:0
	ldw r0, dp[play_command]
	bf r0, .LBB6_4
.Ltmp70:
# BB#3:                                 # %iftrue.i
                                        #   in Loop: Header=BB6_1 Depth=1
.Lxtalabel13:
	#DEBUG_VALUE: button_listener_core:c_play_control <- R5
	#DEBUG_VALUE: button_listener_core:c_dac_control <- R4
	#DEBUG_VALUE: func <- 0
	#DEBUG_VALUE: SendBackTrackControl:c_track_control <- R5
	.loc	1 98 40                 # C:/Users/takaaki/git/sw_xSSDAC/module_operation_console/src/button_listener.xc:98:40
	{
		outct res[r5], 1
		nop
	}
	.loc	1 98 40                 # C:/Users/takaaki/git/sw_xSSDAC/module_operation_console/src/button_listener.xc:98:40
	{
		chkct res[r5], 1
		nop
	}
	.loc	1 98 40                 # C:/Users/takaaki/git/sw_xSSDAC/module_operation_console/src/button_listener.xc:98:40
.Lxta.endpoint_labels9:
	{
		out res[r5], r0
		nop
	}
	.loc	1 98 40                 # C:/Users/takaaki/git/sw_xSSDAC/module_operation_console/src/button_listener.xc:98:40
	{
		outct res[r5], 1
		nop
	}
	.loc	1 98 40                 # C:/Users/takaaki/git/sw_xSSDAC/module_operation_console/src/button_listener.xc:98:40
	{
		chkct res[r5], 1
		nop
	}
	.loc	1 99 0                  # C:/Users/takaaki/git/sw_xSSDAC/module_operation_console/src/button_listener.xc:99:0
	stw r6, dp[play_command]
	.loc	1 100 0                 # C:/Users/takaaki/git/sw_xSSDAC/module_operation_console/src/button_listener.xc:100:0
	stw r6, dp[play_command_request]
.Ltmp71:
.LBB6_4:                                # %SendBackTrackControl.exit
                                        #   in Loop: Header=BB6_1 Depth=1
.Lxtalabel14:
	#DEBUG_VALUE: button_listener_core:c_play_control <- R5
	#DEBUG_VALUE: button_listener_core:c_dac_control <- R4
	#DEBUG_VALUE: func <- 0
	.loc	1 370 9                 # C:/Users/takaaki/git/sw_xSSDAC/module_operation_console/src/button_listener.xc:370:9
	{
		clre
		nop
	}
	ldap r11, .Ltmp72
	.loc	1 370 9                 # C:/Users/takaaki/git/sw_xSSDAC/module_operation_console/src/button_listener.xc:370:9
	{
		setv res[r5], r11
		nop
	}
	.loc	1 370 9                 # C:/Users/takaaki/git/sw_xSSDAC/module_operation_console/src/button_listener.xc:370:9
	{
		eeu res[r5]
		nop
	}
	ldap r11, .Ltmp73
	.loc	1 370 9                 # C:/Users/takaaki/git/sw_xSSDAC/module_operation_console/src/button_listener.xc:370:9
	{
		setv res[r4], r11
		nop
	}
	.loc	1 370 9                 # C:/Users/takaaki/git/sw_xSSDAC/module_operation_console/src/button_listener.xc:370:9
	{
		eeu res[r4]
		nop
	}
	.loc	1 370 9                 # C:/Users/takaaki/git/sw_xSSDAC/module_operation_console/src/button_listener.xc:370:9
	ldw r0, dp[scan_time]
	.loc	1 370 9                 # C:/Users/takaaki/git/sw_xSSDAC/module_operation_console/src/button_listener.xc:370:9
	{
		setd res[r7], r0
		nop
	}
	.loc	1 370 9                 # C:/Users/takaaki/git/sw_xSSDAC/module_operation_console/src/button_listener.xc:370:9
	{
		setc res[r7], 9
		nop
	}
	ldap r11, .Ltmp66
	.loc	1 370 9                 # C:/Users/takaaki/git/sw_xSSDAC/module_operation_console/src/button_listener.xc:370:9
	{
		setv res[r7], r11
		nop
	}
	.loc	1 370 9                 # C:/Users/takaaki/git/sw_xSSDAC/module_operation_console/src/button_listener.xc:370:9
	{
		eeu res[r7]
		nop
	}
	.loc	1 384 0                 # C:/Users/takaaki/git/sw_xSSDAC/module_operation_console/src/button_listener.xc:384:0

	.xtabranch .LBB6_6, .LBB6_7, .LBB6_5
	{
		waiteu
		nop
	}
.Ltmp74:
.Ltmp72:                                # Block address taken
.LBB6_6:                                # %afternullcheck13
                                        #   in Loop: Header=BB6_1 Depth=1
.Lxtalabel15:
	#DEBUG_VALUE: button_listener_core:c_play_control <- R5
	#DEBUG_VALUE: button_listener_core:c_dac_control <- R4
	#DEBUG_VALUE: func <- 0
	.loc	1 372 0                 # C:/Users/takaaki/git/sw_xSSDAC/module_operation_console/src/button_listener.xc:372:0
	{
		chkct res[r5], 1
		nop
	}
	.loc	1 372 0                 # C:/Users/takaaki/git/sw_xSSDAC/module_operation_console/src/button_listener.xc:372:0
	{
		outct res[r5], 1
		nop
	}
	.loc	1 372 0                 # C:/Users/takaaki/git/sw_xSSDAC/module_operation_console/src/button_listener.xc:372:0
.Lxta.endpoint_labels10:
	{
		in r1, res[r5]
		nop
	}
.Ltmp75:
	#DEBUG_VALUE: query_type <- R1
	.loc	1 372 0                 # C:/Users/takaaki/git/sw_xSSDAC/module_operation_console/src/button_listener.xc:372:0
	{
		chkct res[r5], 1
		nop
	}
	.loc	1 372 0                 # C:/Users/takaaki/git/sw_xSSDAC/module_operation_console/src/button_listener.xc:372:0
	{
		outct res[r5], 1
		mov r0, r5
	}
	.loc	1 373 0                 # C:/Users/takaaki/git/sw_xSSDAC/module_operation_console/src/button_listener.xc:373:0
.Lxta.call_labels4:
	bl HandlePlayCommand
.Ltmp76:
	bu .LBB6_1
.Ltmp77:
.Ltmp73:                                # Block address taken
.LBB6_7:                                # %selectcase4
                                        #   in Loop: Header=BB6_1 Depth=1
.Lxtalabel16:
	#DEBUG_VALUE: button_listener_core:c_play_control <- R5
	#DEBUG_VALUE: button_listener_core:c_dac_control <- R4
	#DEBUG_VALUE: func <- 0
	.loc	1 377 0                 # C:/Users/takaaki/git/sw_xSSDAC/module_operation_console/src/button_listener.xc:377:0
	{
		chkct res[r4], 1
		nop
	}
	.loc	1 377 0                 # C:/Users/takaaki/git/sw_xSSDAC/module_operation_console/src/button_listener.xc:377:0
	{
		outct res[r4], 1
		nop
	}
	.loc	1 377 0                 # C:/Users/takaaki/git/sw_xSSDAC/module_operation_console/src/button_listener.xc:377:0
.Lxta.endpoint_labels11:
	{
		in r1, res[r4]
		nop
	}
.Ltmp78:
	#DEBUG_VALUE: dac_command <- R1
	.loc	1 377 0                 # C:/Users/takaaki/git/sw_xSSDAC/module_operation_console/src/button_listener.xc:377:0
	{
		chkct res[r4], 1
		nop
	}
	#DEBUG_VALUE: button_listener_core:c_play_control <- R5
	#DEBUG_VALUE: button_listener_core:c_dac_control <- R4
	#DEBUG_VALUE: func <- 0
	#DEBUG_VALUE: dac_command <- R1
	.loc	1 377 0                 # C:/Users/takaaki/git/sw_xSSDAC/module_operation_console/src/button_listener.xc:377:0
.Ltrap_info3:
	{
		outct res[r4], 1
		ecallf r4
	}
	.loc	1 378 0                 # C:/Users/takaaki/git/sw_xSSDAC/module_operation_console/src/button_listener.xc:378:0
	{
		mov r0, r4
		nop
	}
.Lxta.call_labels5:
	bl HandleDacCommand
.Ltmp79:
	bu .LBB6_1
.Ltmp80:
	.cc_bottom _Sbutton_listener_core_0.function
	.set	_Sbutton_listener_core_0.nstackwords,((HandlePlayCommand.nstackwords $M HandleDacCommand.nstackwords $M KeyScan.nstackwords) + 8)
	.globl	_Sbutton_listener_core_0.nstackwords
	.set	_Sbutton_listener_core_0.maxcores,HandleDacCommand.maxcores $M HandlePlayCommand.maxcores $M KeyScan.maxcores $M 1
	.globl	_Sbutton_listener_core_0.maxcores
	.set	_Sbutton_listener_core_0.maxtimers,HandleDacCommand.maxtimers $M HandlePlayCommand.maxtimers $M KeyScan.maxtimers $M 0
	.globl	_Sbutton_listener_core_0.maxtimers
	.set	_Sbutton_listener_core_0.maxchanends,HandleDacCommand.maxchanends $M HandlePlayCommand.maxchanends $M KeyScan.maxchanends $M 0
	.globl	_Sbutton_listener_core_0.maxchanends
.Ltmp81:
	.size	_Sbutton_listener_core_0, .Ltmp81-_Sbutton_listener_core_0
.Lfunc_end6:
	.cfi_endproc

	.section	.cp.rodata.cst4,"aMc",@progbits,4
	.cc_top .LCPI7_0.data,.LCPI7_0
	.align	4
	.type	.LCPI7_0,@object
	.size	.LCPI7_0, 4
.LCPI7_0:
	.long	4294967177              # 0xffffff89
	.cc_bottom .LCPI7_0.data
	.cc_top .LCPI7_1.data,.LCPI7_1
	.align	4
	.type	.LCPI7_1,@object
	.size	.LCPI7_1, 4
.LCPI7_1:
	.long	50000000                # 0x2faf080
	.cc_bottom .LCPI7_1.data
	.text
	.globl	KeyScan
	.align	4
	.type	KeyScan,@function
	.cc_top KeyScan.function,KeyScan
KeyScan:                                # @KeyScan
.Lfunc_begin7:
	.loc	1 276 0                 # C:/Users/takaaki/git/sw_xSSDAC/module_operation_console/src/button_listener.xc:276:0
	.cfi_startproc
	.issue_mode dual
# BB#0:                                 # %allocas
.Lxtalabel17:
	{
		nop
		dualentsp 6
	}
.Ltmp82:
	.cfi_def_cfa_offset 24
.Ltmp83:
	.cfi_offset 15, 0
	.loc	1 279 0 prologue_end    # C:/Users/takaaki/git/sw_xSSDAC/module_operation_console/src/button_listener.xc:279:0
.Ltmp84:
	std r5, r4, sp[1]               # 4-byte Folded Spill
.Ltmp85:
	.cfi_offset 4, -16
.Ltmp86:
	.cfi_offset 5, -12
	std r7, r6, sp[2]               # 4-byte Folded Spill
.Ltmp87:
	.cfi_offset 6, -8
.Ltmp88:
	.cfi_offset 7, -4
	ldw r0, dp[key_buff+4]
	.loc	1 279 0                 # C:/Users/takaaki/git/sw_xSSDAC/module_operation_console/src/button_listener.xc:279:0
	stw r0, dp[key_buff+8]
	.loc	1 280 0                 # C:/Users/takaaki/git/sw_xSSDAC/module_operation_console/src/button_listener.xc:280:0
	ldw r1, dp[key_buff]
	.loc	1 280 0                 # C:/Users/takaaki/git/sw_xSSDAC/module_operation_console/src/button_listener.xc:280:0
	stw r1, dp[key_buff+4]
	.loc	1 281 0                 # C:/Users/takaaki/git/sw_xSSDAC/module_operation_console/src/button_listener.xc:281:0
	ldw r2, dp[p_key]
	.loc	1 281 0                 # C:/Users/takaaki/git/sw_xSSDAC/module_operation_console/src/button_listener.xc:281:0
	{
		setc res[r2], 1
		nop
	}
	.loc	1 281 0                 # C:/Users/takaaki/git/sw_xSSDAC/module_operation_console/src/button_listener.xc:281:0
.Lxta.endpoint_labels12:
	{
		in r2, res[r2]
		nop
	}
	.loc	1 281 0                 # C:/Users/takaaki/git/sw_xSSDAC/module_operation_console/src/button_listener.xc:281:0
	stw r2, dp[key_buff]
	.loc	1 283 5                 # C:/Users/takaaki/git/sw_xSSDAC/module_operation_console/src/button_listener.xc:283:5
	{
		eq r3, r2, r1
		nop
	}
	bf r3, .LBB7_47
# BB#1:                                 # %allocas
.Lxtalabel18:
	{
		eq r2, r2, r0
		nop
	}
	bt r2, .LBB7_47
# BB#2:                                 # %iftrue
.Lxtalabel19:
	.loc	1 285 0                 # C:/Users/takaaki/git/sw_xSSDAC/module_operation_console/src/button_listener.xc:285:0
	{
		gettime r2
		nop
	}
.Ltmp89:
	#DEBUG_VALUE: now <- R2
	.loc	1 286 0                 # C:/Users/takaaki/git/sw_xSSDAC/module_operation_console/src/button_listener.xc:286:0
	ldw r3, dp[last_event_time]
	.loc	1 287 0                 # C:/Users/takaaki/git/sw_xSSDAC/module_operation_console/src/button_listener.xc:287:0
	stw r2, dp[last_event_time]
	.loc	1 289 0                 # C:/Users/takaaki/git/sw_xSSDAC/module_operation_console/src/button_listener.xc:289:0
	{
		zext r1, 7
		nop
	}
	ldc r11, 94
	.loc	1 289 0                 # C:/Users/takaaki/git/sw_xSSDAC/module_operation_console/src/button_listener.xc:289:0
	{
		lss r4, r11, r1
		nop
	}
	bt r4, .LBB7_5
.Ltmp90:
# BB#3:                                 # %iftrue
.Lxtalabel20:
	{
		mkmsk r0, 6
		nop
	}
	{
		eq r0, r1, r0
		nop
	}
	bf r0, .LBB7_47
# BB#4:                                 # %switchcase14
.Lxtalabel21:
	{
		mkmsk r0, 1
		nop
	}
	bu .LBB7_46
.LBB7_5:                                # %iftrue
.Lxtalabel22:
	ldc r4, 110
	{
		lss r5, r4, r1
		nop
	}
	bt r5, .LBB7_8
# BB#6:                                 # %iftrue
.Lxtalabel23:
	ldc r0, 95
	{
		eq r0, r1, r0
		nop
	}
	bf r0, .LBB7_47
# BB#7:                                 # %switchcase80
.Lxtalabel24:
	{
		ldc r0, 2
		nop
	}
	bu .LBB7_46
.LBB7_8:                                # %iftrue
.Lxtalabel25:
	ldc r5, 118
	{
		lss r6, r5, r1
		nop
	}
	bt r6, .LBB7_11
# BB#9:                                 # %iftrue
.Lxtalabel26:
	ldc r0, 111
	{
		eq r0, r1, r0
		nop
	}
	bf r0, .LBB7_47
# BB#10:                                # %switchcase82
.Lxtalabel27:
	{
		mkmsk r0, 2
		nop
	}
.LBB7_46:                               # %return
.Lxtalabel28:
	.loc	1 341 0                 # C:/Users/takaaki/git/sw_xSSDAC/module_operation_console/src/button_listener.xc:341:0
.Lxta.call_labels6:
	bl KeyEvent
.LBB7_47:                               # %return
.Lxtalabel29:
	ldd r7, r6, sp[2]               # 4-byte Folded Reload
	ldd r5, r4, sp[1]               # 4-byte Folded Reload
	{
		nop
		retsp 6
	}
	# RETURN_REG_HOLDER
.LBB7_11:                               # %iftrue
.Lxtalabel30:
	ldw r6, cp[.LCPI7_0]
	{
		add r1, r1, r6
		ldc r7, 8
	}
	{
		lsu r7, r7, r1
		nop
	}
	bt r7, .LBB7_47
# BB#12:                                # %iftrue
.Lxtalabel31:

	.xtabranch .Ljumptable0+4,.Ljumptable0+8,.Ljumptable0+12,.Ljumptable0+16,.Ljumptable0+20,.Ljumptable0+24,.Ljumptable0+28,.Ljumptable0+32,.Ljumptable0+36
.Ljumptable0:
		
	{
		nop
		bru r1
	}
	.jmptable32 .LBB7_42,.LBB7_47,.LBB7_47,.LBB7_47,.LBB7_43,.LBB7_47,.LBB7_44,.LBB7_45,.LBB7_13
.LBB7_42:                               # %switchcase84
.Lxtalabel32:
	{
		ldc r0, 4
		nop
	}
	bu .LBB7_46
.LBB7_43:                               # %switchcase86
.Lxtalabel33:
	{
		ldc r0, 5
		nop
	}
	bu .LBB7_46
.LBB7_44:                               # %switchcase88
.Lxtalabel34:
	{
		ldc r0, 6
		nop
	}
	bu .LBB7_46
.LBB7_45:                               # %switchcase90
.Lxtalabel35:
	{
		mkmsk r0, 3
		nop
	}
	bu .LBB7_46
.LBB7_13:                               # %switchcase
.Lxtalabel36:
.Ltmp91:
	#DEBUG_VALUE: elapsed_time <- R1
	.loc	1 286 0                 # C:/Users/takaaki/git/sw_xSSDAC/module_operation_console/src/button_listener.xc:286:0
	{
		sub r1, r2, r3
		zext r0, 7
	}
.Ltmp92:
	.loc	1 291 0                 # C:/Users/takaaki/git/sw_xSSDAC/module_operation_console/src/button_listener.xc:291:0
	{
		lss r2, r11, r0
		nop
	}
	bt r2, .LBB7_17
# BB#14:                                # %switchcase
.Lxtalabel37:
	{
		mkmsk r2, 6
		nop
	}
	{
		eq r0, r0, r2
		nop
	}
	bf r0, .LBB7_47
# BB#15:                                # %switchcase19
.Lxtalabel38:
	ldw r0, cp[.LCPI7_1]
	.loc	1 293 19                # C:/Users/takaaki/git/sw_xSSDAC/module_operation_console/src/button_listener.xc:293:19
	{
		lsu r0, r0, r1
		nop
	}
	.loc	1 293 19                # C:/Users/takaaki/git/sw_xSSDAC/module_operation_console/src/button_listener.xc:293:19
	bf r0, .LBB7_27
# BB#16:                                # %iftrue21
	{
		ldc r0, 21
		nop
	}
	bu .LBB7_46
.LBB7_17:                               # %switchcase
.Lxtalabel39:
	{
		lss r2, r4, r0
		nop
	}
	bt r2, .LBB7_21
# BB#18:                                # %switchcase
.Lxtalabel40:
	ldc r2, 95
	{
		eq r0, r0, r2
		nop
	}
	bf r0, .LBB7_47
# BB#19:                                # %switchcase20
.Lxtalabel41:
	ldw r0, cp[.LCPI7_1]
	.loc	1 297 19                # C:/Users/takaaki/git/sw_xSSDAC/module_operation_console/src/button_listener.xc:297:19
	{
		lsu r0, r0, r1
		nop
	}
	.loc	1 297 19                # C:/Users/takaaki/git/sw_xSSDAC/module_operation_console/src/button_listener.xc:297:19
	bf r0, .LBB7_28
# BB#20:                                # %iftrue27
	{
		ldc r0, 22
		nop
	}
	bu .LBB7_46
.LBB7_21:                               # %switchcase
.Lxtalabel42:
	{
		lss r2, r5, r0
		nop
	}
	bt r2, .LBB7_25
# BB#22:                                # %switchcase
.Lxtalabel43:
	ldc r2, 111
	{
		eq r0, r0, r2
		nop
	}
	bf r0, .LBB7_47
# BB#23:                                # %switchcase26
.Lxtalabel44:
	ldw r0, cp[.LCPI7_1]
	.loc	1 301 19                # C:/Users/takaaki/git/sw_xSSDAC/module_operation_console/src/button_listener.xc:301:19
	{
		lsu r0, r0, r1
		nop
	}
	.loc	1 301 19                # C:/Users/takaaki/git/sw_xSSDAC/module_operation_console/src/button_listener.xc:301:19
	bf r0, .LBB7_29
# BB#24:                                # %iftrue36
	{
		ldc r0, 23
		nop
	}
	bu .LBB7_46
.LBB7_27:                               # %iffalse
.Lxtalabel45:
	{
		ldc r0, 11
		nop
	}
	bu .LBB7_46
.LBB7_25:                               # %switchcase
.Lxtalabel46:
	{
		add r0, r0, r6
		mkmsk r2, 3
	}
	{
		lsu r2, r2, r0
		nop
	}
	bt r2, .LBB7_47
# BB#26:                                # %switchcase
.Lxtalabel47:

	.xtabranch .Ljumptable1+4,.Ljumptable1+8,.Ljumptable1+12,.Ljumptable1+16,.Ljumptable1+20,.Ljumptable1+24,.Ljumptable1+28,.Ljumptable1+32
.Ljumptable1:
		
	{
		nop
		bru r0
	}
	.jmptable32 .LBB7_30,.LBB7_47,.LBB7_47,.LBB7_47,.LBB7_33,.LBB7_47,.LBB7_36,.LBB7_39
.LBB7_30:                               # %switchcase35
.Lxtalabel48:
	ldw r0, cp[.LCPI7_1]
	.loc	1 305 19                # C:/Users/takaaki/git/sw_xSSDAC/module_operation_console/src/button_listener.xc:305:19
	{
		lsu r0, r0, r1
		nop
	}
	.loc	1 305 19                # C:/Users/takaaki/git/sw_xSSDAC/module_operation_console/src/button_listener.xc:305:19
	bf r0, .LBB7_32
# BB#31:                                # %iftrue45
	{
		ldc r0, 24
		nop
	}
	bu .LBB7_46
.LBB7_28:                               # %iffalse33
.Lxtalabel49:
	{
		ldc r0, 12
		nop
	}
	bu .LBB7_46
.LBB7_29:                               # %iffalse42
.Lxtalabel50:
	{
		ldc r0, 13
		nop
	}
	bu .LBB7_46
.LBB7_33:                               # %switchcase44
.Lxtalabel51:
	ldw r0, cp[.LCPI7_1]
	.loc	1 309 19                # C:/Users/takaaki/git/sw_xSSDAC/module_operation_console/src/button_listener.xc:309:19
	{
		lsu r0, r0, r1
		nop
	}
	.loc	1 309 19                # C:/Users/takaaki/git/sw_xSSDAC/module_operation_console/src/button_listener.xc:309:19
	bf r0, .LBB7_35
# BB#34:                                # %iftrue54
	{
		ldc r0, 25
		nop
	}
	bu .LBB7_46
.LBB7_36:                               # %switchcase53
.Lxtalabel52:
	ldw r0, cp[.LCPI7_1]
	.loc	1 313 19                # C:/Users/takaaki/git/sw_xSSDAC/module_operation_console/src/button_listener.xc:313:19
	{
		lsu r0, r0, r1
		nop
	}
	.loc	1 313 19                # C:/Users/takaaki/git/sw_xSSDAC/module_operation_console/src/button_listener.xc:313:19
	bf r0, .LBB7_38
# BB#37:                                # %iftrue63
	{
		ldc r0, 26
		nop
	}
	bu .LBB7_46
.LBB7_39:                               # %switchcase62
.Lxtalabel53:
	ldw r0, cp[.LCPI7_1]
	.loc	1 317 19                # C:/Users/takaaki/git/sw_xSSDAC/module_operation_console/src/button_listener.xc:317:19
	{
		lsu r0, r0, r1
		nop
	}
	.loc	1 317 19                # C:/Users/takaaki/git/sw_xSSDAC/module_operation_console/src/button_listener.xc:317:19
	bf r0, .LBB7_41
.Ltmp93:
# BB#40:                                # %iftrue71
	{
		ldc r0, 27
		nop
	}
	bu .LBB7_46
.LBB7_32:                               # %iffalse51
.Lxtalabel54:
	{
		ldc r0, 14
		nop
	}
	bu .LBB7_46
.LBB7_35:                               # %iffalse60
.Lxtalabel55:
	{
		mkmsk r0, 4
		nop
	}
	bu .LBB7_46
.LBB7_38:                               # %iffalse69
.Lxtalabel56:
	{
		ldc r0, 16
		nop
	}
	bu .LBB7_46
.LBB7_41:                               # %iffalse77
.Lxtalabel57:
	{
		ldc r0, 17
		nop
	}
	bu .LBB7_46
	.cc_bottom KeyScan.function
	.set	KeyScan.nstackwords,(KeyEvent.nstackwords + 6)
	.globl	KeyScan.nstackwords
	.set	KeyScan.maxcores,KeyEvent.maxcores $M 1
	.globl	KeyScan.maxcores
	.set	KeyScan.maxtimers,KeyEvent.maxtimers $M 0
	.globl	KeyScan.maxtimers
	.set	KeyScan.maxchanends,KeyEvent.maxchanends $M 0
	.globl	KeyScan.maxchanends
.Ltmp94:
	.size	KeyScan, .Ltmp94-KeyScan
.Lfunc_end7:
	.cfi_endproc

	.globl	SendBackTrackControl
	.align	4
	.type	SendBackTrackControl,@function
	.cc_top SendBackTrackControl.function,SendBackTrackControl
SendBackTrackControl:                   # @SendBackTrackControl
.Lfunc_begin8:
	.loc	1 96 0                  # C:/Users/takaaki/git/sw_xSSDAC/module_operation_console/src/button_listener.xc:96:0
	.cfi_startproc
	.issue_mode dual
# BB#0:                                 # %allocas
.Lxtalabel58:
	{
		nop
		dualentsp 0
	}
	#DEBUG_VALUE: SendBackTrackControl:c_track_control <- R0
	.loc	1 97 5 prologue_end     # C:/Users/takaaki/git/sw_xSSDAC/module_operation_console/src/button_listener.xc:97:5
.Ltmp95:
	ldw r1, dp[play_command_request]
	.loc	1 97 5                  # C:/Users/takaaki/git/sw_xSSDAC/module_operation_console/src/button_listener.xc:97:5
	{
		eq r1, r1, 1
		nop
	}
	bf r1, .LBB8_3
.Ltmp96:
# BB#1:                                 # %allocas
.Lxtalabel59:
	#DEBUG_VALUE: SendBackTrackControl:c_track_control <- R0
	ldw r1, dp[play_command]
	bf r1, .LBB8_3
.Ltmp97:
# BB#2:                                 # %iftrue
.Lxtalabel60:
	#DEBUG_VALUE: SendBackTrackControl:c_track_control <- R0
	.loc	1 98 40                 # C:/Users/takaaki/git/sw_xSSDAC/module_operation_console/src/button_listener.xc:98:40
	{
		outct res[r0], 1
		nop
	}
	.loc	1 98 40                 # C:/Users/takaaki/git/sw_xSSDAC/module_operation_console/src/button_listener.xc:98:40
	{
		chkct res[r0], 1
		nop
	}
	.loc	1 98 40                 # C:/Users/takaaki/git/sw_xSSDAC/module_operation_console/src/button_listener.xc:98:40
.Lxta.endpoint_labels13:
	{
		out res[r0], r1
		nop
	}
	.loc	1 98 40                 # C:/Users/takaaki/git/sw_xSSDAC/module_operation_console/src/button_listener.xc:98:40
	{
		outct res[r0], 1
		nop
	}
	.loc	1 98 40                 # C:/Users/takaaki/git/sw_xSSDAC/module_operation_console/src/button_listener.xc:98:40
	{
		chkct res[r0], 1
		ldc r0, 0
	}
.Ltmp98:
	.loc	1 99 0                  # C:/Users/takaaki/git/sw_xSSDAC/module_operation_console/src/button_listener.xc:99:0
	stw r0, dp[play_command]
	.loc	1 100 0                 # C:/Users/takaaki/git/sw_xSSDAC/module_operation_console/src/button_listener.xc:100:0
	stw r0, dp[play_command_request]
.Ltmp99:
.LBB8_3:                                # %return
.Lxtalabel61:
	{
		nop
		retsp 0
	}
	# RETURN_REG_HOLDER
	.cc_bottom SendBackTrackControl.function
	.set	SendBackTrackControl.nstackwords,0
	.globl	SendBackTrackControl.nstackwords
	.set	SendBackTrackControl.maxcores,1
	.globl	SendBackTrackControl.maxcores
	.set	SendBackTrackControl.maxtimers,0
	.globl	SendBackTrackControl.maxtimers
	.set	SendBackTrackControl.maxchanends,0
	.globl	SendBackTrackControl.maxchanends
.Ltmp100:
	.size	SendBackTrackControl, .Ltmp100-SendBackTrackControl
.Lfunc_end8:
	.cfi_endproc

	.globl	HandleDacCommand
	.align	4
	.type	HandleDacCommand,@function
	.cc_top HandleDacCommand.function,HandleDacCommand
HandleDacCommand:                       # @HandleDacCommand
.Lfunc_begin9:
	.loc	1 104 0                 # C:/Users/takaaki/git/sw_xSSDAC/module_operation_console/src/button_listener.xc:104:0
	.cfi_startproc
	.issue_mode dual
# BB#0:                                 # %allocas
.Lxtalabel62:
.Ltmp101:
	.cfi_def_cfa_offset 8
.Ltmp102:
	.cfi_offset 15, 0
	#DEBUG_VALUE: HandleDacCommand:c_control <- R0
	#DEBUG_VALUE: HandleDacCommand:command <- R1
	{
		eq r2, r1, 1
		dualentsp 2
	}
	.loc	1 105 0 prologue_end    # C:/Users/takaaki/git/sw_xSSDAC/module_operation_console/src/button_listener.xc:105:0
.Ltmp103:
	bf r2, .LBB9_1
.Ltmp104:
# BB#3:                                 # %switchcase
.Lxtalabel63:
	#DEBUG_VALUE: HandleDacCommand:c_control <- R0
	.loc	1 107 39                # C:/Users/takaaki/git/sw_xSSDAC/module_operation_console/src/button_listener.xc:107:39
	ldw r1, dp[fixed_intpol_mode]
	.loc	1 107 39                # C:/Users/takaaki/git/sw_xSSDAC/module_operation_console/src/button_listener.xc:107:39
	{
		outct res[r0], 1
		nop
	}
	.loc	1 107 39                # C:/Users/takaaki/git/sw_xSSDAC/module_operation_console/src/button_listener.xc:107:39
	{
		chkct res[r0], 1
		nop
	}
	.loc	1 107 39                # C:/Users/takaaki/git/sw_xSSDAC/module_operation_console/src/button_listener.xc:107:39
.Lxta.endpoint_labels14:
	{
		out res[r0], r1
		nop
	}
	.loc	1 107 39                # C:/Users/takaaki/git/sw_xSSDAC/module_operation_console/src/button_listener.xc:107:39
	{
		outct res[r0], 1
		nop
	}
	.loc	1 107 39                # C:/Users/takaaki/git/sw_xSSDAC/module_operation_console/src/button_listener.xc:107:39
	{
		chkct res[r0], 1
		retsp 2
	}
	# RETURN_REG_HOLDER
.Ltmp105:
.LBB9_1:                                # %allocas
.Lxtalabel64:
	#DEBUG_VALUE: HandleDacCommand:c_control <- R0
	#DEBUG_VALUE: HandleDacCommand:command <- R1
	{
		eq r2, r1, 2
		nop
	}
	bf r2, .LBB9_2
.Ltmp106:
# BB#4:                                 # %switchcase1
.Lxtalabel65:
	#DEBUG_VALUE: HandleDacCommand:c_control <- R0
	.loc	1 111 0                 # C:/Users/takaaki/git/sw_xSSDAC/module_operation_console/src/button_listener.xc:111:0
	{
		chkct res[r0], 1
		nop
	}
	.loc	1 111 0                 # C:/Users/takaaki/git/sw_xSSDAC/module_operation_console/src/button_listener.xc:111:0
	{
		outct res[r0], 1
		nop
	}
	.loc	1 111 0                 # C:/Users/takaaki/git/sw_xSSDAC/module_operation_console/src/button_listener.xc:111:0
.Lxta.endpoint_labels15:
	{
		in r1, res[r0]
		nop
	}
.Ltmp107:
	#DEBUG_VALUE: temp <- R1
	.loc	1 111 0                 # C:/Users/takaaki/git/sw_xSSDAC/module_operation_console/src/button_listener.xc:111:0
	{
		chkct res[r0], 1
		nop
	}
	.loc	1 111 0                 # C:/Users/takaaki/git/sw_xSSDAC/module_operation_console/src/button_listener.xc:111:0
	{
		outct res[r0], 1
		nop
	}
	.loc	1 113 0                 # C:/Users/takaaki/git/sw_xSSDAC/module_operation_console/src/button_listener.xc:113:0
.Ltmp108:
	stw r1, dp[fixed_intpol_mode]
	ldc r0, 512
.Ltmp109:
	.loc	1 114 0                 # C:/Users/takaaki/git/sw_xSSDAC/module_operation_console/src/button_listener.xc:114:0
.Lxta.call_labels7:
	bl set_display_control_flag
.Ltmp110:
	{
		nop
		retsp 2
	}
	# RETURN_REG_HOLDER
.Ltmp111:
.LBB9_2:                                # %switchdefault
.Lxtalabel66:
	#DEBUG_VALUE: HandleDacCommand:command <- R1
	.loc	1 117 0                 # C:/Users/takaaki/git/sw_xSSDAC/module_operation_console/src/button_listener.xc:117:0
	ldaw r11, cp[.str]
	{
		mov r0, r11
		nop
	}
.Lxta.call_labels8:
	bl debug_printf
.Ltmp112:
	{
		nop
		retsp 2
	}
	# RETURN_REG_HOLDER
.Ltmp113:
	.cc_bottom HandleDacCommand.function
	.set	HandleDacCommand.nstackwords,((set_display_control_flag.nstackwords $M debug_printf.nstackwords) + 2)
	.globl	HandleDacCommand.nstackwords
	.set	HandleDacCommand.maxcores,debug_printf.maxcores $M set_display_control_flag.maxcores $M 1
	.globl	HandleDacCommand.maxcores
	.set	HandleDacCommand.maxtimers,debug_printf.maxtimers $M set_display_control_flag.maxtimers $M 0
	.globl	HandleDacCommand.maxtimers
	.set	HandleDacCommand.maxchanends,debug_printf.maxchanends $M set_display_control_flag.maxchanends $M 0
	.globl	HandleDacCommand.maxchanends
.Ltmp114:
	.size	HandleDacCommand, .Ltmp114-HandleDacCommand
.Lfunc_end9:
	.cfi_endproc

	.globl	HandlePlayCommand
	.align	4
	.type	HandlePlayCommand,@function
	.cc_top HandlePlayCommand.function,HandlePlayCommand
HandlePlayCommand:                      # @HandlePlayCommand
.Lfunc_begin10:
	.loc	1 75 0                  # C:/Users/takaaki/git/sw_xSSDAC/module_operation_console/src/button_listener.xc:75:0
	.cfi_startproc
	.issue_mode dual
# BB#0:                                 # %allocas
.Lxtalabel67:
	#DEBUG_VALUE: HandlePlayCommand:c_control <- R0
	#DEBUG_VALUE: HandlePlayCommand:type <- R1
	{
		eq r2, r1, 2
		dualentsp 0
	}
	.loc	1 77 0 prologue_end     # C:/Users/takaaki/git/sw_xSSDAC/module_operation_console/src/button_listener.xc:77:0
.Ltmp115:
	bt r2, .LBB10_5
.Ltmp116:
# BB#1:                                 # %allocas
.Lxtalabel68:
	#DEBUG_VALUE: HandlePlayCommand:c_control <- R0
	#DEBUG_VALUE: HandlePlayCommand:type <- R1
	{
		eq r2, r1, 1
		nop
	}
	bf r2, .LBB10_2
.Ltmp117:
# BB#4:                                 # %switchcase1
.Lxtalabel69:
	{
		ldc r0, 0
		nop
	}
	.loc	1 84 0                  # C:/Users/takaaki/git/sw_xSSDAC/module_operation_console/src/button_listener.xc:84:0
	stw r0, dp[play_command]
	{
		mkmsk r0, 1
		nop
	}
	.loc	1 85 0                  # C:/Users/takaaki/git/sw_xSSDAC/module_operation_console/src/button_listener.xc:85:0
	stw r0, dp[play_command_request]
	{
		nop
		retsp 0
	}
	# RETURN_REG_HOLDER
.LBB10_5:                               # %switchcase2
.Lxtalabel70:
.Ltmp118:
	#DEBUG_VALUE: HandlePlayCommand:c_control <- R0
	.loc	1 90 0                  # C:/Users/takaaki/git/sw_xSSDAC/module_operation_console/src/button_listener.xc:90:0
	ldw r1, dp[p_key]
	.loc	1 90 0                  # C:/Users/takaaki/git/sw_xSSDAC/module_operation_console/src/button_listener.xc:90:0
	{
		setc res[r1], 1
		nop
	}
	.loc	1 90 0                  # C:/Users/takaaki/git/sw_xSSDAC/module_operation_console/src/button_listener.xc:90:0
.Lxta.endpoint_labels16:
	{
		in r1, res[r1]
		nop
	}
.Ltmp119:
	#DEBUG_VALUE: temp <- R1
	.loc	1 91 26                 # C:/Users/takaaki/git/sw_xSSDAC/module_operation_console/src/button_listener.xc:91:26
	{
		outct res[r0], 1
		nop
	}
	.loc	1 91 26                 # C:/Users/takaaki/git/sw_xSSDAC/module_operation_console/src/button_listener.xc:91:26
	{
		chkct res[r0], 1
		nop
	}
	.loc	1 91 26                 # C:/Users/takaaki/git/sw_xSSDAC/module_operation_console/src/button_listener.xc:91:26
.Lxta.endpoint_labels17:
	{
		out res[r0], r1
		nop
	}
	.loc	1 91 26                 # C:/Users/takaaki/git/sw_xSSDAC/module_operation_console/src/button_listener.xc:91:26
	{
		outct res[r0], 1
		nop
	}
	.loc	1 91 26                 # C:/Users/takaaki/git/sw_xSSDAC/module_operation_console/src/button_listener.xc:91:26
	{
		chkct res[r0], 1
		nop
	}
	bu .LBB10_6
.Ltmp120:
.LBB10_2:                               # %allocas
.Lxtalabel71:
	#DEBUG_VALUE: HandlePlayCommand:c_control <- R0
	#DEBUG_VALUE: HandlePlayCommand:type <- R1
	bt r1, .LBB10_6
.Ltmp121:
# BB#3:                                 # %switchcase
.Lxtalabel72:
	#DEBUG_VALUE: HandlePlayCommand:c_control <- R0
	.loc	1 79 34                 # C:/Users/takaaki/git/sw_xSSDAC/module_operation_console/src/button_listener.xc:79:34
	ldw r1, dp[play_command]
	.loc	1 79 34                 # C:/Users/takaaki/git/sw_xSSDAC/module_operation_console/src/button_listener.xc:79:34
	{
		outct res[r0], 1
		nop
	}
	.loc	1 79 34                 # C:/Users/takaaki/git/sw_xSSDAC/module_operation_console/src/button_listener.xc:79:34
	{
		chkct res[r0], 1
		nop
	}
	.loc	1 79 34                 # C:/Users/takaaki/git/sw_xSSDAC/module_operation_console/src/button_listener.xc:79:34
.Lxta.endpoint_labels18:
	{
		out res[r0], r1
		nop
	}
	.loc	1 79 34                 # C:/Users/takaaki/git/sw_xSSDAC/module_operation_console/src/button_listener.xc:79:34
	{
		outct res[r0], 1
		nop
	}
	.loc	1 79 34                 # C:/Users/takaaki/git/sw_xSSDAC/module_operation_console/src/button_listener.xc:79:34
	{
		chkct res[r0], 1
		ldc r0, 0
	}
.Ltmp122:
	.loc	1 80 0                  # C:/Users/takaaki/git/sw_xSSDAC/module_operation_console/src/button_listener.xc:80:0
	stw r0, dp[play_command]
	{
		nop
		retsp 0
	}
	# RETURN_REG_HOLDER
.Ltmp123:
.LBB10_6:                               # %return
.Lxtalabel73:
	{
		nop
		retsp 0
	}
	# RETURN_REG_HOLDER
	.cc_bottom HandlePlayCommand.function
	.set	HandlePlayCommand.nstackwords,0
	.globl	HandlePlayCommand.nstackwords
	.set	HandlePlayCommand.maxcores,1
	.globl	HandlePlayCommand.maxcores
	.set	HandlePlayCommand.maxtimers,0
	.globl	HandlePlayCommand.maxtimers
	.set	HandlePlayCommand.maxchanends,0
	.globl	HandlePlayCommand.maxchanends
.Ltmp124:
	.size	HandlePlayCommand, .Ltmp124-HandlePlayCommand
.Lfunc_end10:
	.cfi_endproc

	.globl	SwitchConsoleMode
	.align	4
	.type	SwitchConsoleMode,@function
	.cc_top SwitchConsoleMode.function,SwitchConsoleMode
SwitchConsoleMode:                      # @SwitchConsoleMode
.Lfunc_begin11:
	.loc	1 122 0                 # C:/Users/takaaki/git/sw_xSSDAC/module_operation_console/src/button_listener.xc:122:0
	.cfi_startproc
	.issue_mode dual
# BB#0:                                 # %allocas
.Lxtalabel74:
	{
		nop
		dualentsp 2
	}
.Ltmp125:
	.cfi_def_cfa_offset 8
.Ltmp126:
	.cfi_offset 15, 0
	#DEBUG_VALUE: SwitchConsoleMode:mode <- R0
	.loc	1 123 0 prologue_end    # C:/Users/takaaki/git/sw_xSSDAC/module_operation_console/src/button_listener.xc:123:0
.Ltmp127:
	ldw r1, dp[p_console_mode]
	.loc	1 123 0                 # C:/Users/takaaki/git/sw_xSSDAC/module_operation_console/src/button_listener.xc:123:0
	{
		ldc r0, 16
		stw r0, r1[0]
	}
.Ltmp128:
	.loc	1 124 0                 # C:/Users/takaaki/git/sw_xSSDAC/module_operation_console/src/button_listener.xc:124:0
.Lxta.call_labels9:
	bl set_display_control_flag
	{
		nop
		retsp 2
	}
	# RETURN_REG_HOLDER
.Ltmp129:
	.cc_bottom SwitchConsoleMode.function
	.set	SwitchConsoleMode.nstackwords,(set_display_control_flag.nstackwords + 2)
	.globl	SwitchConsoleMode.nstackwords
	.set	SwitchConsoleMode.maxcores,set_display_control_flag.maxcores $M 1
	.globl	SwitchConsoleMode.maxcores
	.set	SwitchConsoleMode.maxtimers,set_display_control_flag.maxtimers $M 0
	.globl	SwitchConsoleMode.maxtimers
	.set	SwitchConsoleMode.maxchanends,set_display_control_flag.maxchanends $M 0
	.globl	SwitchConsoleMode.maxchanends
.Ltmp130:
	.size	SwitchConsoleMode, .Ltmp130-SwitchConsoleMode
.Lfunc_end11:
	.cfi_endproc

	.globl	KeyEventInSDCMode
	.align	4
	.type	KeyEventInSDCMode,@function
	.cc_top KeyEventInSDCMode.function,KeyEventInSDCMode
KeyEventInSDCMode:                      # @KeyEventInSDCMode
.Lfunc_begin12:
	.loc	1 127 0                 # C:/Users/takaaki/git/sw_xSSDAC/module_operation_console/src/button_listener.xc:127:0
	.cfi_startproc
	.issue_mode dual
# BB#0:                                 # %allocas
.Lxtalabel75:
.Ltmp131:
	.cfi_def_cfa_offset 8
.Ltmp132:
	.cfi_offset 15, 0
	#DEBUG_VALUE: KeyEventInSDCMode:event <- R0
	{
		sub r0, r0, 4
		dualentsp 2
	}
.Ltmp133:
	.loc	1 128 0 prologue_end    # C:/Users/takaaki/git/sw_xSSDAC/module_operation_console/src/button_listener.xc:128:0
	{
		shr r1, r0, 1
		ldc r2, 10
	}
	{
		lsu r1, r2, r1
		nop
	}
	bt r1, .LBB12_12
# BB#1:                                 # %allocas
.Lxtalabel76:

	.xtabranch .Ljumptable2+4,.Ljumptable2+8,.Ljumptable2+12,.Ljumptable2+16,.Ljumptable2+20,.Ljumptable2+24,.Ljumptable2+28,.Ljumptable2+32,.Ljumptable2+36,.Ljumptable2+40,.Ljumptable2+44,.Ljumptable2+48,.Ljumptable2+52,.Ljumptable2+56,.Ljumptable2+60,.Ljumptable2+64,.Ljumptable2+68,.Ljumptable2+72,.Ljumptable2+76,.Ljumptable2+80,.Ljumptable2+84,.Ljumptable2+88
.Ljumptable2:
		
	{
		nop
		bru r0
	}
	.jmptable32 .LBB12_8,.LBB12_12,.LBB12_12,.LBB12_11,.LBB12_12,.LBB12_12,.LBB12_12,.LBB12_3,.LBB12_4,.LBB12_6,.LBB12_12,.LBB12_9,.LBB12_12,.LBB12_12,.LBB12_12,.LBB12_12,.LBB12_12,.LBB12_2,.LBB12_5,.LBB12_7,.LBB12_12,.LBB12_10
.LBB12_8:                               # %switchcase10
.Lxtalabel77:
	{
		mkmsk r0, 3
		nop
	}
	.loc	1 148 0                 # C:/Users/takaaki/git/sw_xSSDAC/module_operation_console/src/button_listener.xc:148:0
	stw r0, dp[play_command]
	{
		nop
		retsp 2
	}
	# RETURN_REG_HOLDER
.LBB12_11:                              # %switchcase16
.Lxtalabel78:
.Ltmp134:
	#DEBUG_VALUE: SwitchConsoleMode:mode <- 3
	.loc	1 123 0                 # C:/Users/takaaki/git/sw_xSSDAC/module_operation_console/src/button_listener.xc:123:0
	ldw r0, dp[p_console_mode]
	{
		mkmsk r1, 2
		nop
	}
	.loc	1 123 0                 # C:/Users/takaaki/git/sw_xSSDAC/module_operation_console/src/button_listener.xc:123:0
	{
		ldc r0, 16
		stw r1, r0[0]
	}
	.loc	1 124 0                 # C:/Users/takaaki/git/sw_xSSDAC/module_operation_console/src/button_listener.xc:124:0
.Lxta.call_labels10:
	bl set_display_control_flag
.Ltmp135:
.LBB12_12:                              # %return
.Lxtalabel79:
	{
		nop
		retsp 2
	}
	# RETURN_REG_HOLDER
.LBB12_3:                               # %switchcase1
.Lxtalabel80:
	{
		mkmsk r0, 2
		nop
	}
	.loc	1 133 0                 # C:/Users/takaaki/git/sw_xSSDAC/module_operation_console/src/button_listener.xc:133:0
	stw r0, dp[play_command]
	{
		nop
		retsp 2
	}
	# RETURN_REG_HOLDER
.LBB12_4:                               # %switchcase2
.Lxtalabel81:
	{
		ldc r0, 6
		nop
	}
	.loc	1 136 0                 # C:/Users/takaaki/git/sw_xSSDAC/module_operation_console/src/button_listener.xc:136:0
	stw r0, dp[play_command]
	{
		nop
		retsp 2
	}
	# RETURN_REG_HOLDER
.LBB12_6:                               # %switchcase6
.Lxtalabel82:
	{
		ldc r0, 8
		nop
	}
	.loc	1 142 0                 # C:/Users/takaaki/git/sw_xSSDAC/module_operation_console/src/button_listener.xc:142:0
	stw r0, dp[play_command]
	{
		nop
		retsp 2
	}
	# RETURN_REG_HOLDER
.LBB12_9:                               # %switchcase12
.Lxtalabel83:
	{
		ldc r0, 4
		nop
	}
	.loc	1 151 0                 # C:/Users/takaaki/git/sw_xSSDAC/module_operation_console/src/button_listener.xc:151:0
	stw r0, dp[play_command]
	{
		nop
		retsp 2
	}
	# RETURN_REG_HOLDER
.LBB12_2:                               # %switchcase
.Lxtalabel84:
	{
		mkmsk r0, 1
		nop
	}
	.loc	1 130 0                 # C:/Users/takaaki/git/sw_xSSDAC/module_operation_console/src/button_listener.xc:130:0
	stw r0, dp[play_command]
	{
		nop
		retsp 2
	}
	# RETURN_REG_HOLDER
.LBB12_5:                               # %switchcase4
.Lxtalabel85:
	{
		ldc r0, 5
		nop
	}
	.loc	1 139 0                 # C:/Users/takaaki/git/sw_xSSDAC/module_operation_console/src/button_listener.xc:139:0
	stw r0, dp[play_command]
	{
		nop
		retsp 2
	}
	# RETURN_REG_HOLDER
.LBB12_7:                               # %switchcase8
.Lxtalabel86:
	{
		ldc r0, 9
		nop
	}
	.loc	1 145 0                 # C:/Users/takaaki/git/sw_xSSDAC/module_operation_console/src/button_listener.xc:145:0
	stw r0, dp[play_command]
	{
		nop
		retsp 2
	}
	# RETURN_REG_HOLDER
.LBB12_10:                              # %switchcase14
.Lxtalabel87:
	{
		ldc r0, 2
		nop
	}
	.loc	1 154 0                 # C:/Users/takaaki/git/sw_xSSDAC/module_operation_console/src/button_listener.xc:154:0
	stw r0, dp[play_command]
	{
		nop
		retsp 2
	}
	# RETURN_REG_HOLDER
.Ltmp136:
	.cc_bottom KeyEventInSDCMode.function
	.set	KeyEventInSDCMode.nstackwords,(set_display_control_flag.nstackwords + 2)
	.globl	KeyEventInSDCMode.nstackwords
	.set	KeyEventInSDCMode.maxcores,set_display_control_flag.maxcores $M 1
	.globl	KeyEventInSDCMode.maxcores
	.set	KeyEventInSDCMode.maxtimers,set_display_control_flag.maxtimers $M 0
	.globl	KeyEventInSDCMode.maxtimers
	.set	KeyEventInSDCMode.maxchanends,set_display_control_flag.maxchanends $M 0
	.globl	KeyEventInSDCMode.maxchanends
.Ltmp137:
	.size	KeyEventInSDCMode, .Ltmp137-KeyEventInSDCMode
.Lfunc_end12:
	.cfi_endproc

	.globl	KeyEventInDacModeSelection
	.align	4
	.type	KeyEventInDacModeSelection,@function
	.cc_top KeyEventInDacModeSelection.function,KeyEventInDacModeSelection
KeyEventInDacModeSelection:             # @KeyEventInDacModeSelection
.Lfunc_begin13:
	.loc	1 162 0                 # C:/Users/takaaki/git/sw_xSSDAC/module_operation_console/src/button_listener.xc:162:0
	.cfi_startproc
	.issue_mode dual
# BB#0:                                 # %allocas
.Lxtalabel88:
.Ltmp138:
	.cfi_def_cfa_offset 8
.Ltmp139:
	.cfi_offset 15, 0
	#DEBUG_VALUE: KeyEventInDacModeSelection:event <- R0
	{
		sub r1, r0, 1
		dualentsp 2
	}
	{
		ldc r0, 6
		nop
	}
.Ltmp140:
	.loc	1 171 0 prologue_end    # C:/Users/takaaki/git/sw_xSSDAC/module_operation_console/src/button_listener.xc:171:0
	{
		lsu r2, r0, r1
		nop
	}
	bt r2, .LBB13_2
# BB#1:                                 # %allocas
.Lxtalabel89:

	.xtabranch .Ljumptable3+4,.Ljumptable3+8,.Ljumptable3+12,.Ljumptable3+16,.Ljumptable3+20,.Ljumptable3+24,.Ljumptable3+28
.Ljumptable3:
		
	{
		nop
		bru r1
	}
	.jmptable32 .LBB13_3,.LBB13_4,.LBB13_5,.LBB13_6,.LBB13_7,.LBB13_2,.LBB13_8
.LBB13_3:                               # %switchcase
.Lxtalabel90:
	{
		mkmsk r0, 1
		nop
	}
	bu .LBB13_7
.LBB13_2:                               # %switchdefault
.Lxtalabel91:
	.loc	1 208 0                 # C:/Users/takaaki/git/sw_xSSDAC/module_operation_console/src/button_listener.xc:208:0
	ldw r0, dp[proposed_intpol_mode]
	.loc	1 208 0                 # C:/Users/takaaki/git/sw_xSSDAC/module_operation_console/src/button_listener.xc:208:0
	stw r0, dp[fixed_intpol_mode]
	{
		nop
		retsp 2
	}
	# RETURN_REG_HOLDER
.LBB13_4:                               # %switchcase1
.Lxtalabel92:
	{
		ldc r0, 2
		nop
	}
	bu .LBB13_7
.LBB13_5:                               # %switchcase2
.Lxtalabel93:
	{
		ldc r0, 4
		nop
	}
	bu .LBB13_7
.LBB13_6:                               # %switchcase5
.Lxtalabel94:
	{
		ldc r0, 5
		nop
	}
.LBB13_7:                               # %switchcase8
.Lxtalabel95:
	.loc	1 189 0                 # C:/Users/takaaki/git/sw_xSSDAC/module_operation_console/src/button_listener.xc:189:0
	stw r0, dp[proposed_intpol_mode]
	ldc r0, 256
.LBB13_13:                              # %return
.Lxtalabel96:
	.loc	1 124 0                 # C:/Users/takaaki/git/sw_xSSDAC/module_operation_console/src/button_listener.xc:124:0
.Ltmp141:
.Lxta.call_labels11:
	bl set_display_control_flag
.Ltmp142:
.LBB13_14:                              # %return
.Lxtalabel97:
	{
		nop
		retsp 2
	}
	# RETURN_REG_HOLDER
.LBB13_8:                               # %switchcase11
.Lxtalabel98:
	.loc	1 196 0                 # C:/Users/takaaki/git/sw_xSSDAC/module_operation_console/src/button_listener.xc:196:0
	ldw r0, dp[_func]
	.loc	1 196 0                 # C:/Users/takaaki/git/sw_xSSDAC/module_operation_console/src/button_listener.xc:196:0
	{
		eq r1, r0, 1
		nop
	}
	bf r1, .LBB13_9
# BB#11:                                # %switchcase17
.Lxtalabel99:
.Ltmp143:
	#DEBUG_VALUE: SwitchConsoleMode:mode <- 1
	.loc	1 123 0                 # C:/Users/takaaki/git/sw_xSSDAC/module_operation_console/src/button_listener.xc:123:0
	ldw r0, dp[p_console_mode]
	{
		mkmsk r1, 1
		nop
	}
	bu .LBB13_12
.Ltmp144:
.LBB13_9:                               # %switchcase11
.Lxtalabel100:
	bt r0, .LBB13_14
# BB#10:                                # %switchcase16
.Lxtalabel101:
.Ltmp145:
	#DEBUG_VALUE: SwitchConsoleMode:mode <- 2
	.loc	1 123 0                 # C:/Users/takaaki/git/sw_xSSDAC/module_operation_console/src/button_listener.xc:123:0
	ldw r0, dp[p_console_mode]
	{
		ldc r1, 2
		nop
	}
.Ltmp146:
.LBB13_12:                              # %return
.Lxtalabel102:
	.loc	1 123 0                 # C:/Users/takaaki/git/sw_xSSDAC/module_operation_console/src/button_listener.xc:123:0
	{
		ldc r0, 16
		stw r1, r0[0]
	}
	bu .LBB13_13
.Ltmp147:
	.cc_bottom KeyEventInDacModeSelection.function
	.set	KeyEventInDacModeSelection.nstackwords,(set_display_control_flag.nstackwords + 2)
	.globl	KeyEventInDacModeSelection.nstackwords
	.set	KeyEventInDacModeSelection.maxcores,set_display_control_flag.maxcores $M 1
	.globl	KeyEventInDacModeSelection.maxcores
	.set	KeyEventInDacModeSelection.maxtimers,set_display_control_flag.maxtimers $M 0
	.globl	KeyEventInDacModeSelection.maxtimers
	.set	KeyEventInDacModeSelection.maxchanends,set_display_control_flag.maxchanends $M 0
	.globl	KeyEventInDacModeSelection.maxchanends
.Ltmp148:
	.size	KeyEventInDacModeSelection, .Ltmp148-KeyEventInDacModeSelection
.Lfunc_end13:
	.cfi_endproc

	.globl	KeyEventInFunctionSelection
	.align	4
	.type	KeyEventInFunctionSelection,@function
	.cc_top KeyEventInFunctionSelection.function,KeyEventInFunctionSelection
KeyEventInFunctionSelection:            # @KeyEventInFunctionSelection
.Lfunc_begin14:
	.loc	1 213 0                 # C:/Users/takaaki/git/sw_xSSDAC/module_operation_console/src/button_listener.xc:213:0
	.cfi_startproc
	.issue_mode dual
# BB#0:                                 # %allocas
.Lxtalabel103:
.Ltmp149:
	.cfi_def_cfa_offset 8
.Ltmp150:
	.cfi_offset 15, 0
	#DEBUG_VALUE: KeyEventInFunctionSelection:event <- R0
	{
		eq r1, r0, 7
		dualentsp 2
	}
	.loc	1 219 0 prologue_end    # C:/Users/takaaki/git/sw_xSSDAC/module_operation_console/src/button_listener.xc:219:0
.Ltmp151:
	bt r1, .LBB14_6
.Ltmp152:
# BB#1:                                 # %allocas
.Lxtalabel104:
	#DEBUG_VALUE: KeyEventInFunctionSelection:event <- R0
	{
		eq r1, r0, 2
		nop
	}
	bf r1, .LBB14_2
.Ltmp153:
# BB#5:                                 # %switchcase1
.Lxtalabel105:
	{
		mkmsk r0, 1
		nop
	}
	bu .LBB14_4
.LBB14_6:                               # %switchcase2
.Lxtalabel106:
	.loc	1 232 0                 # C:/Users/takaaki/git/sw_xSSDAC/module_operation_console/src/button_listener.xc:232:0
	ldw r0, dp[_func]
	.loc	1 232 0                 # C:/Users/takaaki/git/sw_xSSDAC/module_operation_console/src/button_listener.xc:232:0
	{
		eq r1, r0, 1
		nop
	}
	bf r1, .LBB14_7
# BB#9:                                 # %switchcase8
.Lxtalabel107:
.Ltmp154:
	#DEBUG_VALUE: SwitchConsoleMode:mode <- 1
	.loc	1 123 0                 # C:/Users/takaaki/git/sw_xSSDAC/module_operation_console/src/button_listener.xc:123:0
	ldw r0, dp[p_console_mode]
	{
		mkmsk r1, 1
		nop
	}
	bu .LBB14_10
.Ltmp155:
.LBB14_2:                               # %allocas
.Lxtalabel108:
	#DEBUG_VALUE: KeyEventInFunctionSelection:event <- R0
	{
		eq r0, r0, 1
		nop
	}
.Ltmp156:
	bf r0, .LBB14_12
# BB#3:                                 # %switchcase
.Lxtalabel109:
	{
		ldc r0, 0
		nop
	}
.LBB14_4:                               # %return
.Lxtalabel110:
	.loc	1 222 0                 # C:/Users/takaaki/git/sw_xSSDAC/module_operation_console/src/button_listener.xc:222:0
	stw r0, dp[selected_function]
	ldc r0, 1024
	bu .LBB14_11
.LBB14_7:                               # %switchcase2
.Lxtalabel111:
	bt r0, .LBB14_12
# BB#8:                                 # %switchcase7
.Lxtalabel112:
.Ltmp157:
	#DEBUG_VALUE: SwitchConsoleMode:mode <- 2
	.loc	1 123 0                 # C:/Users/takaaki/git/sw_xSSDAC/module_operation_console/src/button_listener.xc:123:0
	ldw r0, dp[p_console_mode]
	{
		ldc r1, 2
		nop
	}
.Ltmp158:
.LBB14_10:                              # %return
.Lxtalabel113:
	.loc	1 123 0                 # C:/Users/takaaki/git/sw_xSSDAC/module_operation_console/src/button_listener.xc:123:0
	{
		ldc r0, 16
		stw r1, r0[0]
	}
.LBB14_11:                              # %return
.Lxtalabel114:
	.loc	1 124 0                 # C:/Users/takaaki/git/sw_xSSDAC/module_operation_console/src/button_listener.xc:124:0
.Lxta.call_labels12:
	bl set_display_control_flag
.Ltmp159:
.LBB14_12:                              # %return
.Lxtalabel115:
	{
		nop
		retsp 2
	}
	# RETURN_REG_HOLDER
	.cc_bottom KeyEventInFunctionSelection.function
	.set	KeyEventInFunctionSelection.nstackwords,(set_display_control_flag.nstackwords + 2)
	.globl	KeyEventInFunctionSelection.nstackwords
	.set	KeyEventInFunctionSelection.maxcores,set_display_control_flag.maxcores $M 1
	.globl	KeyEventInFunctionSelection.maxcores
	.set	KeyEventInFunctionSelection.maxtimers,set_display_control_flag.maxtimers $M 0
	.globl	KeyEventInFunctionSelection.maxtimers
	.set	KeyEventInFunctionSelection.maxchanends,set_display_control_flag.maxchanends $M 0
	.globl	KeyEventInFunctionSelection.maxchanends
.Ltmp160:
	.size	KeyEventInFunctionSelection, .Ltmp160-KeyEventInFunctionSelection
.Lfunc_end14:
	.cfi_endproc

	.globl	KeyEvent
	.align	4
	.type	KeyEvent,@function
	.cc_top KeyEvent.function,KeyEvent
KeyEvent:                               # @KeyEvent
.Lfunc_begin15:
	.loc	1 244 0                 # C:/Users/takaaki/git/sw_xSSDAC/module_operation_console/src/button_listener.xc:244:0
	.cfi_startproc
	.issue_mode dual
# BB#0:                                 # %allocas
.Lxtalabel116:
	{
		nop
		dualentsp 4
	}
.Ltmp161:
	.cfi_def_cfa_offset 16
.Ltmp162:
	.cfi_offset 15, 0
	std r5, r4, sp[1]               # 4-byte Folded Spill
.Ltmp163:
	.cfi_offset 4, -8
.Ltmp164:
	.cfi_offset 5, -4
	#DEBUG_VALUE: KeyEvent:event <- R0
	{
		mov r4, r0
		nop
	}
.Ltmp165:
	#DEBUG_VALUE: KeyEvent:event <- R4
	.loc	1 247 0 prologue_end    # C:/Users/takaaki/git/sw_xSSDAC/module_operation_console/src/button_listener.xc:247:0
	ldw r0, dp[p_console_mode]
	{
		nop
		ldw r5, r0[0]
	}
.Ltmp166:
	#DEBUG_VALUE: mode <- R5
	.loc	1 249 0                 # C:/Users/takaaki/git/sw_xSSDAC/module_operation_console/src/button_listener.xc:249:0
	ldaw r11, cp[.str1]
	{
		mov r0, r11
		mov r1, r5
	}
	{
		mov r2, r4
		nop
	}
.Lxta.call_labels13:
	bl debug_printf
	.loc	1 251 0                 # C:/Users/takaaki/git/sw_xSSDAC/module_operation_console/src/button_listener.xc:251:0
	{
		sub r1, r5, 1
		mkmsk r0, 2
	}
	{
		lsu r2, r0, r1
		nop
	}
	bt r2, .LBB15_7
.Ltmp167:
# BB#1:                                 # %allocas
.Lxtalabel117:
	#DEBUG_VALUE: KeyEvent:event <- R4

	.xtabranch .Ljumptable4+4,.Ljumptable4+8,.Ljumptable4+12,.Ljumptable4+16
.Ljumptable4:
		
	{
		nop
		bru r1
	}
	.jmptable32 .LBB15_2,.LBB15_4,.LBB15_3,.LBB15_6
.Ltmp168:
.LBB15_2:                               # %switchcase
.Lxtalabel118:
	#DEBUG_VALUE: KeyEvent:event <- R4
	.loc	1 254 0                 # C:/Users/takaaki/git/sw_xSSDAC/module_operation_console/src/button_listener.xc:254:0
	{
		mov r0, r4
		nop
	}
.Lxta.call_labels14:
	bl KeyEventInSDCMode
	bu .LBB15_7
.Ltmp169:
.LBB15_4:                               # %switchcase2
.Lxtalabel119:
	#DEBUG_VALUE: KeyEvent:event <- R4
	.loc	1 259 0                 # C:/Users/takaaki/git/sw_xSSDAC/module_operation_console/src/button_listener.xc:259:0
	{
		eq r1, r4, 7
		nop
	}
	bf r1, .LBB15_7
.Ltmp170:
# BB#5:                                 # %switchcase8
.Lxtalabel120:
	#DEBUG_VALUE: SwitchConsoleMode:mode <- 3
	.loc	1 123 0                 # C:/Users/takaaki/git/sw_xSSDAC/module_operation_console/src/button_listener.xc:123:0
	ldw r1, dp[p_console_mode]
	.loc	1 123 0                 # C:/Users/takaaki/git/sw_xSSDAC/module_operation_console/src/button_listener.xc:123:0
	{
		ldc r0, 16
		stw r0, r1[0]
	}
	.loc	1 124 0                 # C:/Users/takaaki/git/sw_xSSDAC/module_operation_console/src/button_listener.xc:124:0
.Lxta.call_labels15:
	bl set_display_control_flag
	bu .LBB15_7
.Ltmp171:
.LBB15_3:                               # %switchcase4
.Lxtalabel121:
	#DEBUG_VALUE: KeyEvent:event <- R4
	.loc	1 267 0                 # C:/Users/takaaki/git/sw_xSSDAC/module_operation_console/src/button_listener.xc:267:0
	{
		mov r0, r4
		nop
	}
.Lxta.call_labels16:
	bl KeyEventInDacModeSelection
	bu .LBB15_7
.Ltmp172:
.LBB15_6:                               # %switchcase11
.Lxtalabel122:
	#DEBUG_VALUE: KeyEvent:event <- R4
	.loc	1 271 0                 # C:/Users/takaaki/git/sw_xSSDAC/module_operation_console/src/button_listener.xc:271:0
	{
		mov r0, r4
		nop
	}
.Lxta.call_labels17:
	bl KeyEventInFunctionSelection
.Ltmp173:
.LBB15_7:                               # %return
.Lxtalabel123:
	ldd r5, r4, sp[1]               # 4-byte Folded Reload
	{
		nop
		retsp 4
	}
	# RETURN_REG_HOLDER
	.cc_bottom KeyEvent.function
	.set	KeyEvent.nstackwords,((debug_printf.nstackwords $M KeyEventInSDCMode.nstackwords $M set_display_control_flag.nstackwords $M KeyEventInDacModeSelection.nstackwords $M KeyEventInFunctionSelection.nstackwords) + 4)
	.globl	KeyEvent.nstackwords
	.set	KeyEvent.maxcores,KeyEventInDacModeSelection.maxcores $M KeyEventInFunctionSelection.maxcores $M KeyEventInSDCMode.maxcores $M debug_printf.maxcores $M set_display_control_flag.maxcores $M 1
	.globl	KeyEvent.maxcores
	.set	KeyEvent.maxtimers,KeyEventInDacModeSelection.maxtimers $M KeyEventInFunctionSelection.maxtimers $M KeyEventInSDCMode.maxtimers $M debug_printf.maxtimers $M set_display_control_flag.maxtimers $M 0
	.globl	KeyEvent.maxtimers
	.set	KeyEvent.maxchanends,KeyEventInDacModeSelection.maxchanends $M KeyEventInFunctionSelection.maxchanends $M KeyEventInSDCMode.maxchanends $M debug_printf.maxchanends $M set_display_control_flag.maxchanends $M 0
	.globl	KeyEvent.maxchanends
.Ltmp174:
	.size	KeyEvent, .Ltmp174-KeyEvent
.Lfunc_end15:
	.cfi_endproc

	.section	.dp.bss.4,"awd",@nobits
	.cc_top _func.data,_func
	.globl	_func
	.align	4
	.type	_func,@object
	.size	_func, 4
_func:
	.long	0                       # 0x0
	.cc_bottom _func.data
	.section	.dp.bss,"awd",@nobits
	.cc_top key_buff.data,key_buff
	.globl	key_buff.globound
key_buff.globound = 3
	.globl	key_buff
	.align	8
	.type	key_buff,@object
	.size	key_buff, 12
key_buff:
	.space	12
	.cc_bottom key_buff.data
	.section	.dp.bss.4,"awd",@nobits
	.cc_top scan_time.data,scan_time
	.globl	scan_time
	.align	4
	.type	scan_time,@object
	.size	scan_time, 4
scan_time:
	.long	0                       # 0x0
	.cc_bottom scan_time.data
	.cc_top p_console_mode.data,p_console_mode
	.globl	p_console_mode
	.align	4
	.type	p_console_mode,@object
	.size	p_console_mode, 4
p_console_mode:
	.long	0
	.cc_bottom p_console_mode.data
	.cc_top play_command.data,play_command
	.globl	play_command
	.align	4
	.type	play_command,@object
	.size	play_command, 4
play_command:
	.long	0                       # 0x0
	.cc_bottom play_command.data
	.section	.dp.data.4,"awd",@progbits
	.cc_top proposed_intpol_mode.data,proposed_intpol_mode
	.globl	proposed_intpol_mode
	.align	4
	.type	proposed_intpol_mode,@object
	.size	proposed_intpol_mode, 4
proposed_intpol_mode:
	.long	4                       # 0x4
	.cc_bottom proposed_intpol_mode.data
	.cc_top fixed_intpol_mode.data,fixed_intpol_mode
	.globl	fixed_intpol_mode
	.align	4
	.type	fixed_intpol_mode,@object
	.size	fixed_intpol_mode, 4
fixed_intpol_mode:
	.long	4                       # 0x4
	.cc_bottom fixed_intpol_mode.data
	.section	.dp.bss.4,"awd",@nobits
	.cc_top selected_function.data,selected_function
	.globl	selected_function
	.align	4
	.type	selected_function,@object
	.size	selected_function, 4
selected_function:
	.long	0                       # 0x0
	.cc_bottom selected_function.data
	.cc_top play_command_request.data,play_command_request
	.globl	play_command_request
	.align	4
	.type	play_command_request,@object
	.size	play_command_request, 4
play_command_request:
	.long	0                       # 0x0
	.cc_bottom play_command_request.data
	.cc_top last_event_time.data,last_event_time
	.globl	last_event_time
	.align	4
	.type	last_event_time,@object
	.size	last_event_time, 4
last_event_time:
	.long	0                       # 0x0
	.cc_bottom last_event_time.data
	.section	.cp.rodata.4,"ac",@progbits
	.cc_top .str.data,.str
	.align	4
	.type	.str,@object
	.size	.str, 44
.str:
.asciiz"\nbutton listner received invalid command:%d"
	.cc_bottom .str.data
	.cc_top .str1.data,.str1
	.align	4
	.type	.str1,@object
	.size	.str1, 21
.str1:
.asciiz"\nMode:%d KeyEvent:%d"
	.cc_bottom .str1.data
	.section	.dp.bss.4,"awd",@nobits
.Ldebug_end1:
	.section	.dp.bss,"awd",@nobits
.Ldebug_end2:
	.section	.dp.data.4,"awd",@progbits
.Ldebug_end3:
	.text
.Ldebug_end4:
	.file	2 "C:\\Program Files (x86)\\XMOS\\xTIMEcomposer\\Community_14.4.1\\target/include\\timer.h"
	.section	.xtacalltable,"",@progbits
.Lentries_start0:
	.long	.Lentries_end1-.Lentries_start0
	.long	0
	.ascii	"C:\\Users\\takaaki\\git\\sw_xSSDAC\\app_usb_simple_ssdac_xSSDAC-SD-V2\\.build_Debug"
	.byte	0
.cc_top cc_0,.Lxta.call_labels7
	.ascii	"C:/Users/takaaki/git/sw_xSSDAC/module_operation_console/src/button_listener.xc"
	.byte	0
	.long	114
	.long	.Lxta.call_labels7
.cc_bottom cc_0
.cc_top cc_1,.Lxta.call_labels8
	.ascii	"C:/Users/takaaki/git/sw_xSSDAC/module_operation_console/src/button_listener.xc"
	.byte	0
	.long	117
	.long	.Lxta.call_labels8
.cc_bottom cc_1
.cc_top cc_2,.Lxta.call_labels9
	.ascii	"C:/Users/takaaki/git/sw_xSSDAC/module_operation_console/src/button_listener.xc"
	.byte	0
	.long	124
	.long	.Lxta.call_labels9
.cc_bottom cc_2
.cc_top cc_3,.Lxta.call_labels10
	.ascii	"C:/Users/takaaki/git/sw_xSSDAC/module_operation_console/src/button_listener.xc"
	.byte	0
	.long	124
	.long	.Lxta.call_labels10
.cc_bottom cc_3
.cc_top cc_4,.Lxta.call_labels11
	.ascii	"C:/Users/takaaki/git/sw_xSSDAC/module_operation_console/src/button_listener.xc"
	.byte	0
	.long	124
	.long	.Lxta.call_labels11
.cc_bottom cc_4
.cc_top cc_5,.Lxta.call_labels12
	.ascii	"C:/Users/takaaki/git/sw_xSSDAC/module_operation_console/src/button_listener.xc"
	.byte	0
	.long	124
	.long	.Lxta.call_labels12
.cc_bottom cc_5
.cc_top cc_6,.Lxta.call_labels15
	.ascii	"C:/Users/takaaki/git/sw_xSSDAC/module_operation_console/src/button_listener.xc"
	.byte	0
	.long	124
	.long	.Lxta.call_labels15
.cc_bottom cc_6
.cc_top cc_7,.Lxta.call_labels13
	.ascii	"C:/Users/takaaki/git/sw_xSSDAC/module_operation_console/src/button_listener.xc"
	.byte	0
	.long	249
	.long	.Lxta.call_labels13
.cc_bottom cc_7
.cc_top cc_8,.Lxta.call_labels14
	.ascii	"C:/Users/takaaki/git/sw_xSSDAC/module_operation_console/src/button_listener.xc"
	.byte	0
	.long	254
	.long	.Lxta.call_labels14
.cc_bottom cc_8
.cc_top cc_9,.Lxta.call_labels16
	.ascii	"C:/Users/takaaki/git/sw_xSSDAC/module_operation_console/src/button_listener.xc"
	.byte	0
	.long	267
	.long	.Lxta.call_labels16
.cc_bottom cc_9
.cc_top cc_10,.Lxta.call_labels17
	.ascii	"C:/Users/takaaki/git/sw_xSSDAC/module_operation_console/src/button_listener.xc"
	.byte	0
	.long	271
	.long	.Lxta.call_labels17
.cc_bottom cc_10
.cc_top cc_11,.Lxta.call_labels6
	.ascii	"C:/Users/takaaki/git/sw_xSSDAC/module_operation_console/src/button_listener.xc"
	.byte	0
	.long	341
	.long	.Lxta.call_labels6
.cc_bottom cc_11
.cc_top cc_12,.Lxta.call_labels1
	.ascii	"C:/Users/takaaki/git/sw_xSSDAC/module_operation_console/src/button_listener.xc"
	.byte	0
	.long	373
	.long	.Lxta.call_labels1
.cc_bottom cc_12
.cc_top cc_13,.Lxta.call_labels4
	.ascii	"C:/Users/takaaki/git/sw_xSSDAC/module_operation_console/src/button_listener.xc"
	.byte	0
	.long	373
	.long	.Lxta.call_labels4
.cc_bottom cc_13
.cc_top cc_14,.Lxta.call_labels2
	.ascii	"C:/Users/takaaki/git/sw_xSSDAC/module_operation_console/src/button_listener.xc"
	.byte	0
	.long	378
	.long	.Lxta.call_labels2
.cc_bottom cc_14
.cc_top cc_15,.Lxta.call_labels5
	.ascii	"C:/Users/takaaki/git/sw_xSSDAC/module_operation_console/src/button_listener.xc"
	.byte	0
	.long	378
	.long	.Lxta.call_labels5
.cc_bottom cc_15
.cc_top cc_16,.Lxta.call_labels0
	.ascii	"C:/Users/takaaki/git/sw_xSSDAC/module_operation_console/src/button_listener.xc"
	.byte	0
	.long	382
	.long	.Lxta.call_labels0
.cc_bottom cc_16
.cc_top cc_17,.Lxta.call_labels3
	.ascii	"C:/Users/takaaki/git/sw_xSSDAC/module_operation_console/src/button_listener.xc"
	.byte	0
	.long	382
	.long	.Lxta.call_labels3
.cc_bottom cc_17
.Lentries_end1:
	.section	.xtaendpointtable,"",@progbits
.Lentries_start2:
	.long	.Lentries_end3-.Lentries_start2
	.long	0
	.ascii	"C:\\Users\\takaaki\\git\\sw_xSSDAC\\app_usb_simple_ssdac_xSSDAC-SD-V2\\.build_Debug"
	.byte	0
.cc_top cc_18,.Lxta.endpoint_labels0
	.ascii	"C:/Users/takaaki/git/sw_xSSDAC/module_operation_console/src/button_listener.xc"
	.byte	0
	.long	70
	.long	.Lxta.endpoint_labels0
.cc_bottom cc_18
.cc_top cc_19,.Lxta.endpoint_labels1
	.ascii	"C:/Users/takaaki/git/sw_xSSDAC/module_operation_console/src/button_listener.xc"
	.byte	0
	.long	71
	.long	.Lxta.endpoint_labels1
.cc_bottom cc_19
.cc_top cc_20,.Lxta.endpoint_labels18
	.ascii	"C:/Users/takaaki/git/sw_xSSDAC/module_operation_console/src/button_listener.xc"
	.byte	0
	.long	79
	.long	.Lxta.endpoint_labels18
.cc_bottom cc_20
.cc_top cc_21,.Lxta.endpoint_labels16
	.ascii	"C:/Users/takaaki/git/sw_xSSDAC/module_operation_console/src/button_listener.xc"
	.byte	0
	.long	90
	.long	.Lxta.endpoint_labels16
.cc_bottom cc_21
.cc_top cc_22,.Lxta.endpoint_labels17
	.ascii	"C:/Users/takaaki/git/sw_xSSDAC/module_operation_console/src/button_listener.xc"
	.byte	0
	.long	91
	.long	.Lxta.endpoint_labels17
.cc_bottom cc_22
.cc_top cc_23,.Lxta.endpoint_labels4
	.ascii	"C:/Users/takaaki/git/sw_xSSDAC/module_operation_console/src/button_listener.xc"
	.byte	0
	.long	98
	.long	.Lxta.endpoint_labels4
.cc_bottom cc_23
.cc_top cc_24,.Lxta.endpoint_labels9
	.ascii	"C:/Users/takaaki/git/sw_xSSDAC/module_operation_console/src/button_listener.xc"
	.byte	0
	.long	98
	.long	.Lxta.endpoint_labels9
.cc_bottom cc_24
.cc_top cc_25,.Lxta.endpoint_labels13
	.ascii	"C:/Users/takaaki/git/sw_xSSDAC/module_operation_console/src/button_listener.xc"
	.byte	0
	.long	98
	.long	.Lxta.endpoint_labels13
.cc_bottom cc_25
.cc_top cc_26,.Lxta.endpoint_labels14
	.ascii	"C:/Users/takaaki/git/sw_xSSDAC/module_operation_console/src/button_listener.xc"
	.byte	0
	.long	107
	.long	.Lxta.endpoint_labels14
.cc_bottom cc_26
.cc_top cc_27,.Lxta.endpoint_labels15
	.ascii	"C:/Users/takaaki/git/sw_xSSDAC/module_operation_console/src/button_listener.xc"
	.byte	0
	.long	111
	.long	.Lxta.endpoint_labels15
.cc_bottom cc_27
.cc_top cc_28,.Lxta.endpoint_labels12
	.ascii	"C:/Users/takaaki/git/sw_xSSDAC/module_operation_console/src/button_listener.xc"
	.byte	0
	.long	281
	.long	.Lxta.endpoint_labels12
.cc_bottom cc_28
.cc_top cc_29,.Lxta.endpoint_labels2
	.ascii	"C:/Users/takaaki/git/sw_xSSDAC/module_operation_console/src/button_listener.xc"
	.byte	0
	.long	357
	.long	.Lxta.endpoint_labels2
.cc_bottom cc_29
.cc_top cc_30,.Lxta.endpoint_labels7
	.ascii	"C:/Users/takaaki/git/sw_xSSDAC/module_operation_console/src/button_listener.xc"
	.byte	0
	.long	357
	.long	.Lxta.endpoint_labels7
.cc_bottom cc_30
.cc_top cc_31,.Lxta.endpoint_labels3
	.ascii	"C:/Users/takaaki/git/sw_xSSDAC/module_operation_console/src/button_listener.xc"
	.byte	0
	.long	370
	.long	.Lxta.endpoint_labels3
.cc_bottom cc_31
.cc_top cc_32,.Lxta.endpoint_labels5
	.ascii	"C:/Users/takaaki/git/sw_xSSDAC/module_operation_console/src/button_listener.xc"
	.byte	0
	.long	370
	.long	.Lxta.endpoint_labels5
.cc_bottom cc_32
.cc_top cc_33,.Lxta.endpoint_labels6
	.ascii	"C:/Users/takaaki/git/sw_xSSDAC/module_operation_console/src/button_listener.xc"
	.byte	0
	.long	370
	.long	.Lxta.endpoint_labels6
.cc_bottom cc_33
.cc_top cc_34,.Lxta.endpoint_labels8
	.ascii	"C:/Users/takaaki/git/sw_xSSDAC/module_operation_console/src/button_listener.xc"
	.byte	0
	.long	370
	.long	.Lxta.endpoint_labels8
.cc_bottom cc_34
.cc_top cc_35,.Lxta.endpoint_labels10
	.ascii	"C:/Users/takaaki/git/sw_xSSDAC/module_operation_console/src/button_listener.xc"
	.byte	0
	.long	370
	.long	.Lxta.endpoint_labels10
.cc_bottom cc_35
.cc_top cc_36,.Lxta.endpoint_labels11
	.ascii	"C:/Users/takaaki/git/sw_xSSDAC/module_operation_console/src/button_listener.xc"
	.byte	0
	.long	370
	.long	.Lxta.endpoint_labels11
.cc_bottom cc_36
.Lentries_end3:
	.section	.xtalabeltable,"",@progbits
.Lentries_start4:
	.long	.Lentries_end5-.Lentries_start4
	.long	0
	.ascii	"C:\\Users\\takaaki\\git\\sw_xSSDAC\\app_usb_simple_ssdac_xSSDAC-SD-V2\\.build_Debug"
	.byte	0
.cc_top cc_37,.Lxtalabel0
	.ascii	"C:/Users/takaaki/git/sw_xSSDAC/module_operation_console/src/button_listener.xc"
	.byte	0
	.long	69
	.long	73
	.long	.Lxtalabel0
.cc_bottom cc_37
.cc_top cc_38,.Lxtalabel71
	.ascii	"C:/Users/takaaki/git/sw_xSSDAC/module_operation_console/src/button_listener.xc"
	.byte	0
	.long	77
	.long	78
	.long	.Lxtalabel71
.cc_bottom cc_38
.cc_top cc_39,.Lxtalabel67
	.ascii	"C:/Users/takaaki/git/sw_xSSDAC/module_operation_console/src/button_listener.xc"
	.byte	0
	.long	77
	.long	78
	.long	.Lxtalabel67
.cc_bottom cc_39
.cc_top cc_40,.Lxtalabel68
	.ascii	"C:/Users/takaaki/git/sw_xSSDAC/module_operation_console/src/button_listener.xc"
	.byte	0
	.long	77
	.long	78
	.long	.Lxtalabel68
.cc_bottom cc_40
.cc_top cc_41,.Lxtalabel72
	.ascii	"C:/Users/takaaki/git/sw_xSSDAC/module_operation_console/src/button_listener.xc"
	.byte	0
	.long	79
	.long	81
	.long	.Lxtalabel72
.cc_bottom cc_41
.cc_top cc_42,.Lxtalabel72
	.ascii	"C:/Users/takaaki/git/sw_xSSDAC/module_operation_console/src/button_listener.xc"
	.byte	0
	.long	83
	.long	83
	.long	.Lxtalabel72
.cc_bottom cc_42
.cc_top cc_43,.Lxtalabel69
	.ascii	"C:/Users/takaaki/git/sw_xSSDAC/module_operation_console/src/button_listener.xc"
	.byte	0
	.long	84
	.long	86
	.long	.Lxtalabel69
.cc_bottom cc_43
.cc_top cc_44,.Lxtalabel69
	.ascii	"C:/Users/takaaki/git/sw_xSSDAC/module_operation_console/src/button_listener.xc"
	.byte	0
	.long	88
	.long	88
	.long	.Lxtalabel69
.cc_bottom cc_44
.cc_top cc_45,.Lxtalabel70
	.ascii	"C:/Users/takaaki/git/sw_xSSDAC/module_operation_console/src/button_listener.xc"
	.byte	0
	.long	89
	.long	93
	.long	.Lxtalabel70
.cc_bottom cc_45
.cc_top cc_46,.Lxtalabel73
	.ascii	"C:/Users/takaaki/git/sw_xSSDAC/module_operation_console/src/button_listener.xc"
	.byte	0
	.long	94
	.long	94
	.long	.Lxtalabel73
.cc_bottom cc_46
.cc_top cc_47,.Lxtalabel3
	.ascii	"C:/Users/takaaki/git/sw_xSSDAC/module_operation_console/src/button_listener.xc"
	.byte	0
	.long	97
	.long	97
	.long	.Lxtalabel3
.cc_bottom cc_47
.cc_top cc_48,.Lxtalabel4
	.ascii	"C:/Users/takaaki/git/sw_xSSDAC/module_operation_console/src/button_listener.xc"
	.byte	0
	.long	97
	.long	97
	.long	.Lxtalabel4
.cc_bottom cc_48
.cc_top cc_49,.Lxtalabel11
	.ascii	"C:/Users/takaaki/git/sw_xSSDAC/module_operation_console/src/button_listener.xc"
	.byte	0
	.long	97
	.long	97
	.long	.Lxtalabel11
.cc_bottom cc_49
.cc_top cc_50,.Lxtalabel12
	.ascii	"C:/Users/takaaki/git/sw_xSSDAC/module_operation_console/src/button_listener.xc"
	.byte	0
	.long	97
	.long	97
	.long	.Lxtalabel12
.cc_bottom cc_50
.cc_top cc_51,.Lxtalabel58
	.ascii	"C:/Users/takaaki/git/sw_xSSDAC/module_operation_console/src/button_listener.xc"
	.byte	0
	.long	97
	.long	97
	.long	.Lxtalabel58
.cc_bottom cc_51
.cc_top cc_52,.Lxtalabel59
	.ascii	"C:/Users/takaaki/git/sw_xSSDAC/module_operation_console/src/button_listener.xc"
	.byte	0
	.long	97
	.long	97
	.long	.Lxtalabel59
.cc_bottom cc_52
.cc_top cc_53,.Lxtalabel5
	.ascii	"C:/Users/takaaki/git/sw_xSSDAC/module_operation_console/src/button_listener.xc"
	.byte	0
	.long	98
	.long	101
	.long	.Lxtalabel5
.cc_bottom cc_53
.cc_top cc_54,.Lxtalabel60
	.ascii	"C:/Users/takaaki/git/sw_xSSDAC/module_operation_console/src/button_listener.xc"
	.byte	0
	.long	98
	.long	101
	.long	.Lxtalabel60
.cc_bottom cc_54
.cc_top cc_55,.Lxtalabel13
	.ascii	"C:/Users/takaaki/git/sw_xSSDAC/module_operation_console/src/button_listener.xc"
	.byte	0
	.long	98
	.long	101
	.long	.Lxtalabel13
.cc_bottom cc_55
.cc_top cc_56,.Lxtalabel6
	.ascii	"C:/Users/takaaki/git/sw_xSSDAC/module_operation_console/src/button_listener.xc"
	.byte	0
	.long	102
	.long	102
	.long	.Lxtalabel6
.cc_bottom cc_56
.cc_top cc_57,.Lxtalabel14
	.ascii	"C:/Users/takaaki/git/sw_xSSDAC/module_operation_console/src/button_listener.xc"
	.byte	0
	.long	102
	.long	102
	.long	.Lxtalabel14
.cc_bottom cc_57
.cc_top cc_58,.Lxtalabel61
	.ascii	"C:/Users/takaaki/git/sw_xSSDAC/module_operation_console/src/button_listener.xc"
	.byte	0
	.long	102
	.long	102
	.long	.Lxtalabel61
.cc_bottom cc_58
.cc_top cc_59,.Lxtalabel64
	.ascii	"C:/Users/takaaki/git/sw_xSSDAC/module_operation_console/src/button_listener.xc"
	.byte	0
	.long	105
	.long	106
	.long	.Lxtalabel64
.cc_bottom cc_59
.cc_top cc_60,.Lxtalabel62
	.ascii	"C:/Users/takaaki/git/sw_xSSDAC/module_operation_console/src/button_listener.xc"
	.byte	0
	.long	105
	.long	106
	.long	.Lxtalabel62
.cc_bottom cc_60
.cc_top cc_61,.Lxtalabel63
	.ascii	"C:/Users/takaaki/git/sw_xSSDAC/module_operation_console/src/button_listener.xc"
	.byte	0
	.long	107
	.long	109
	.long	.Lxtalabel63
.cc_bottom cc_61
.cc_top cc_62,.Lxtalabel65
	.ascii	"C:/Users/takaaki/git/sw_xSSDAC/module_operation_console/src/button_listener.xc"
	.byte	0
	.long	110
	.long	116
	.long	.Lxtalabel65
.cc_bottom cc_62
.cc_top cc_63,.Lxtalabel66
	.ascii	"C:/Users/takaaki/git/sw_xSSDAC/module_operation_console/src/button_listener.xc"
	.byte	0
	.long	117
	.long	117
	.long	.Lxtalabel66
.cc_bottom cc_63
.cc_top cc_64,.Lxtalabel66
	.ascii	"C:/Users/takaaki/git/sw_xSSDAC/module_operation_console/src/button_listener.xc"
	.byte	0
	.long	118
	.long	119
	.long	.Lxtalabel66
.cc_bottom cc_64
.cc_top cc_65,.Lxtalabel120
	.ascii	"C:/Users/takaaki/git/sw_xSSDAC/module_operation_console/src/button_listener.xc"
	.byte	0
	.long	123
	.long	125
	.long	.Lxtalabel120
.cc_bottom cc_65
.cc_top cc_66,.Lxtalabel112
	.ascii	"C:/Users/takaaki/git/sw_xSSDAC/module_operation_console/src/button_listener.xc"
	.byte	0
	.long	123
	.long	125
	.long	.Lxtalabel112
.cc_bottom cc_66
.cc_top cc_67,.Lxtalabel107
	.ascii	"C:/Users/takaaki/git/sw_xSSDAC/module_operation_console/src/button_listener.xc"
	.byte	0
	.long	123
	.long	125
	.long	.Lxtalabel107
.cc_bottom cc_67
.cc_top cc_68,.Lxtalabel101
	.ascii	"C:/Users/takaaki/git/sw_xSSDAC/module_operation_console/src/button_listener.xc"
	.byte	0
	.long	123
	.long	125
	.long	.Lxtalabel101
.cc_bottom cc_68
.cc_top cc_69,.Lxtalabel99
	.ascii	"C:/Users/takaaki/git/sw_xSSDAC/module_operation_console/src/button_listener.xc"
	.byte	0
	.long	123
	.long	125
	.long	.Lxtalabel99
.cc_bottom cc_69
.cc_top cc_70,.Lxtalabel78
	.ascii	"C:/Users/takaaki/git/sw_xSSDAC/module_operation_console/src/button_listener.xc"
	.byte	0
	.long	123
	.long	125
	.long	.Lxtalabel78
.cc_bottom cc_70
.cc_top cc_71,.Lxtalabel74
	.ascii	"C:/Users/takaaki/git/sw_xSSDAC/module_operation_console/src/button_listener.xc"
	.byte	0
	.long	123
	.long	125
	.long	.Lxtalabel74
.cc_bottom cc_71
.cc_top cc_72,.Lxtalabel76
	.ascii	"C:/Users/takaaki/git/sw_xSSDAC/module_operation_console/src/button_listener.xc"
	.byte	0
	.long	128
	.long	129
	.long	.Lxtalabel76
.cc_bottom cc_72
.cc_top cc_73,.Lxtalabel75
	.ascii	"C:/Users/takaaki/git/sw_xSSDAC/module_operation_console/src/button_listener.xc"
	.byte	0
	.long	128
	.long	129
	.long	.Lxtalabel75
.cc_bottom cc_73
.cc_top cc_74,.Lxtalabel84
	.ascii	"C:/Users/takaaki/git/sw_xSSDAC/module_operation_console/src/button_listener.xc"
	.byte	0
	.long	130
	.long	132
	.long	.Lxtalabel84
.cc_bottom cc_74
.cc_top cc_75,.Lxtalabel80
	.ascii	"C:/Users/takaaki/git/sw_xSSDAC/module_operation_console/src/button_listener.xc"
	.byte	0
	.long	133
	.long	135
	.long	.Lxtalabel80
.cc_bottom cc_75
.cc_top cc_76,.Lxtalabel81
	.ascii	"C:/Users/takaaki/git/sw_xSSDAC/module_operation_console/src/button_listener.xc"
	.byte	0
	.long	136
	.long	138
	.long	.Lxtalabel81
.cc_bottom cc_76
.cc_top cc_77,.Lxtalabel85
	.ascii	"C:/Users/takaaki/git/sw_xSSDAC/module_operation_console/src/button_listener.xc"
	.byte	0
	.long	139
	.long	141
	.long	.Lxtalabel85
.cc_bottom cc_77
.cc_top cc_78,.Lxtalabel82
	.ascii	"C:/Users/takaaki/git/sw_xSSDAC/module_operation_console/src/button_listener.xc"
	.byte	0
	.long	142
	.long	144
	.long	.Lxtalabel82
.cc_bottom cc_78
.cc_top cc_79,.Lxtalabel86
	.ascii	"C:/Users/takaaki/git/sw_xSSDAC/module_operation_console/src/button_listener.xc"
	.byte	0
	.long	145
	.long	147
	.long	.Lxtalabel86
.cc_bottom cc_79
.cc_top cc_80,.Lxtalabel77
	.ascii	"C:/Users/takaaki/git/sw_xSSDAC/module_operation_console/src/button_listener.xc"
	.byte	0
	.long	148
	.long	150
	.long	.Lxtalabel77
.cc_bottom cc_80
.cc_top cc_81,.Lxtalabel83
	.ascii	"C:/Users/takaaki/git/sw_xSSDAC/module_operation_console/src/button_listener.xc"
	.byte	0
	.long	151
	.long	153
	.long	.Lxtalabel83
.cc_bottom cc_81
.cc_top cc_82,.Lxtalabel87
	.ascii	"C:/Users/takaaki/git/sw_xSSDAC/module_operation_console/src/button_listener.xc"
	.byte	0
	.long	154
	.long	156
	.long	.Lxtalabel87
.cc_bottom cc_82
.cc_top cc_83,.Lxtalabel78
	.ascii	"C:/Users/takaaki/git/sw_xSSDAC/module_operation_console/src/button_listener.xc"
	.byte	0
	.long	157
	.long	159
	.long	.Lxtalabel78
.cc_bottom cc_83
.cc_top cc_84,.Lxtalabel79
	.ascii	"C:/Users/takaaki/git/sw_xSSDAC/module_operation_console/src/button_listener.xc"
	.byte	0
	.long	160
	.long	160
	.long	.Lxtalabel79
.cc_bottom cc_84
.cc_top cc_85,.Lxtalabel89
	.ascii	"C:/Users/takaaki/git/sw_xSSDAC/module_operation_console/src/button_listener.xc"
	.byte	0
	.long	164
	.long	169
	.long	.Lxtalabel89
.cc_bottom cc_85
.cc_top cc_86,.Lxtalabel88
	.ascii	"C:/Users/takaaki/git/sw_xSSDAC/module_operation_console/src/button_listener.xc"
	.byte	0
	.long	164
	.long	169
	.long	.Lxtalabel88
.cc_bottom cc_86
.cc_top cc_87,.Lxtalabel89
	.ascii	"C:/Users/takaaki/git/sw_xSSDAC/module_operation_console/src/button_listener.xc"
	.byte	0
	.long	171
	.long	172
	.long	.Lxtalabel89
.cc_bottom cc_87
.cc_top cc_88,.Lxtalabel88
	.ascii	"C:/Users/takaaki/git/sw_xSSDAC/module_operation_console/src/button_listener.xc"
	.byte	0
	.long	171
	.long	172
	.long	.Lxtalabel88
.cc_bottom cc_88
.cc_top cc_89,.Lxtalabel90
	.ascii	"C:/Users/takaaki/git/sw_xSSDAC/module_operation_console/src/button_listener.xc"
	.byte	0
	.long	173
	.long	176
	.long	.Lxtalabel90
.cc_bottom cc_89
.cc_top cc_90,.Lxtalabel92
	.ascii	"C:/Users/takaaki/git/sw_xSSDAC/module_operation_console/src/button_listener.xc"
	.byte	0
	.long	177
	.long	180
	.long	.Lxtalabel92
.cc_bottom cc_90
.cc_top cc_91,.Lxtalabel93
	.ascii	"C:/Users/takaaki/git/sw_xSSDAC/module_operation_console/src/button_listener.xc"
	.byte	0
	.long	181
	.long	184
	.long	.Lxtalabel93
.cc_bottom cc_91
.cc_top cc_92,.Lxtalabel94
	.ascii	"C:/Users/takaaki/git/sw_xSSDAC/module_operation_console/src/button_listener.xc"
	.byte	0
	.long	185
	.long	188
	.long	.Lxtalabel94
.cc_bottom cc_92
.cc_top cc_93,.Lxtalabel95
	.ascii	"C:/Users/takaaki/git/sw_xSSDAC/module_operation_console/src/button_listener.xc"
	.byte	0
	.long	189
	.long	192
	.long	.Lxtalabel95
.cc_bottom cc_93
.cc_top cc_94,.Lxtalabel98
	.ascii	"C:/Users/takaaki/git/sw_xSSDAC/module_operation_console/src/button_listener.xc"
	.byte	0
	.long	196
	.long	197
	.long	.Lxtalabel98
.cc_bottom cc_94
.cc_top cc_95,.Lxtalabel100
	.ascii	"C:/Users/takaaki/git/sw_xSSDAC/module_operation_console/src/button_listener.xc"
	.byte	0
	.long	196
	.long	197
	.long	.Lxtalabel100
.cc_bottom cc_95
.cc_top cc_96,.Lxtalabel101
	.ascii	"C:/Users/takaaki/git/sw_xSSDAC/module_operation_console/src/button_listener.xc"
	.byte	0
	.long	198
	.long	200
	.long	.Lxtalabel101
.cc_bottom cc_96
.cc_top cc_97,.Lxtalabel99
	.ascii	"C:/Users/takaaki/git/sw_xSSDAC/module_operation_console/src/button_listener.xc"
	.byte	0
	.long	201
	.long	203
	.long	.Lxtalabel99
.cc_bottom cc_97
.cc_top cc_98,.Lxtalabel91
	.ascii	"C:/Users/takaaki/git/sw_xSSDAC/module_operation_console/src/button_listener.xc"
	.byte	0
	.long	208
	.long	210
	.long	.Lxtalabel91
.cc_bottom cc_98
.cc_top cc_99,.Lxtalabel97
	.ascii	"C:/Users/takaaki/git/sw_xSSDAC/module_operation_console/src/button_listener.xc"
	.byte	0
	.long	211
	.long	211
	.long	.Lxtalabel97
.cc_bottom cc_99
.cc_top cc_100,.Lxtalabel96
	.ascii	"C:/Users/takaaki/git/sw_xSSDAC/module_operation_console/src/button_listener.xc"
	.byte	0
	.long	211
	.long	211
	.long	.Lxtalabel96
.cc_bottom cc_100
.cc_top cc_101,.Lxtalabel102
	.ascii	"C:/Users/takaaki/git/sw_xSSDAC/module_operation_console/src/button_listener.xc"
	.byte	0
	.long	211
	.long	211
	.long	.Lxtalabel102
.cc_bottom cc_101
.cc_top cc_102,.Lxtalabel108
	.ascii	"C:/Users/takaaki/git/sw_xSSDAC/module_operation_console/src/button_listener.xc"
	.byte	0
	.long	214
	.long	217
	.long	.Lxtalabel108
.cc_bottom cc_102
.cc_top cc_103,.Lxtalabel104
	.ascii	"C:/Users/takaaki/git/sw_xSSDAC/module_operation_console/src/button_listener.xc"
	.byte	0
	.long	214
	.long	217
	.long	.Lxtalabel104
.cc_bottom cc_103
.cc_top cc_104,.Lxtalabel103
	.ascii	"C:/Users/takaaki/git/sw_xSSDAC/module_operation_console/src/button_listener.xc"
	.byte	0
	.long	214
	.long	217
	.long	.Lxtalabel103
.cc_bottom cc_104
.cc_top cc_105,.Lxtalabel108
	.ascii	"C:/Users/takaaki/git/sw_xSSDAC/module_operation_console/src/button_listener.xc"
	.byte	0
	.long	219
	.long	219
	.long	.Lxtalabel108
.cc_bottom cc_105
.cc_top cc_106,.Lxtalabel104
	.ascii	"C:/Users/takaaki/git/sw_xSSDAC/module_operation_console/src/button_listener.xc"
	.byte	0
	.long	219
	.long	219
	.long	.Lxtalabel104
.cc_bottom cc_106
.cc_top cc_107,.Lxtalabel103
	.ascii	"C:/Users/takaaki/git/sw_xSSDAC/module_operation_console/src/button_listener.xc"
	.byte	0
	.long	219
	.long	219
	.long	.Lxtalabel103
.cc_bottom cc_107
.cc_top cc_108,.Lxtalabel108
	.ascii	"C:/Users/takaaki/git/sw_xSSDAC/module_operation_console/src/button_listener.xc"
	.byte	0
	.long	221
	.long	221
	.long	.Lxtalabel108
.cc_bottom cc_108
.cc_top cc_109,.Lxtalabel104
	.ascii	"C:/Users/takaaki/git/sw_xSSDAC/module_operation_console/src/button_listener.xc"
	.byte	0
	.long	221
	.long	221
	.long	.Lxtalabel104
.cc_bottom cc_109
.cc_top cc_110,.Lxtalabel103
	.ascii	"C:/Users/takaaki/git/sw_xSSDAC/module_operation_console/src/button_listener.xc"
	.byte	0
	.long	221
	.long	221
	.long	.Lxtalabel103
.cc_bottom cc_110
.cc_top cc_111,.Lxtalabel109
	.ascii	"C:/Users/takaaki/git/sw_xSSDAC/module_operation_console/src/button_listener.xc"
	.byte	0
	.long	222
	.long	224
	.long	.Lxtalabel109
.cc_bottom cc_111
.cc_top cc_112,.Lxtalabel109
	.ascii	"C:/Users/takaaki/git/sw_xSSDAC/module_operation_console/src/button_listener.xc"
	.byte	0
	.long	226
	.long	226
	.long	.Lxtalabel109
.cc_bottom cc_112
.cc_top cc_113,.Lxtalabel105
	.ascii	"C:/Users/takaaki/git/sw_xSSDAC/module_operation_console/src/button_listener.xc"
	.byte	0
	.long	227
	.long	229
	.long	.Lxtalabel105
.cc_bottom cc_113
.cc_top cc_114,.Lxtalabel105
	.ascii	"C:/Users/takaaki/git/sw_xSSDAC/module_operation_console/src/button_listener.xc"
	.byte	0
	.long	231
	.long	231
	.long	.Lxtalabel105
.cc_bottom cc_114
.cc_top cc_115,.Lxtalabel111
	.ascii	"C:/Users/takaaki/git/sw_xSSDAC/module_operation_console/src/button_listener.xc"
	.byte	0
	.long	232
	.long	233
	.long	.Lxtalabel111
.cc_bottom cc_115
.cc_top cc_116,.Lxtalabel106
	.ascii	"C:/Users/takaaki/git/sw_xSSDAC/module_operation_console/src/button_listener.xc"
	.byte	0
	.long	232
	.long	233
	.long	.Lxtalabel106
.cc_bottom cc_116
.cc_top cc_117,.Lxtalabel112
	.ascii	"C:/Users/takaaki/git/sw_xSSDAC/module_operation_console/src/button_listener.xc"
	.byte	0
	.long	234
	.long	236
	.long	.Lxtalabel112
.cc_bottom cc_117
.cc_top cc_118,.Lxtalabel107
	.ascii	"C:/Users/takaaki/git/sw_xSSDAC/module_operation_console/src/button_listener.xc"
	.byte	0
	.long	237
	.long	239
	.long	.Lxtalabel107
.cc_bottom cc_118
.cc_top cc_119,.Lxtalabel110
	.ascii	"C:/Users/takaaki/git/sw_xSSDAC/module_operation_console/src/button_listener.xc"
	.byte	0
	.long	242
	.long	242
	.long	.Lxtalabel110
.cc_bottom cc_119
.cc_top cc_120,.Lxtalabel113
	.ascii	"C:/Users/takaaki/git/sw_xSSDAC/module_operation_console/src/button_listener.xc"
	.byte	0
	.long	242
	.long	242
	.long	.Lxtalabel113
.cc_bottom cc_120
.cc_top cc_121,.Lxtalabel115
	.ascii	"C:/Users/takaaki/git/sw_xSSDAC/module_operation_console/src/button_listener.xc"
	.byte	0
	.long	242
	.long	242
	.long	.Lxtalabel115
.cc_bottom cc_121
.cc_top cc_122,.Lxtalabel114
	.ascii	"C:/Users/takaaki/git/sw_xSSDAC/module_operation_console/src/button_listener.xc"
	.byte	0
	.long	242
	.long	242
	.long	.Lxtalabel114
.cc_bottom cc_122
.cc_top cc_123,.Lxtalabel117
	.ascii	"C:/Users/takaaki/git/sw_xSSDAC/module_operation_console/src/button_listener.xc"
	.byte	0
	.long	246
	.long	247
	.long	.Lxtalabel117
.cc_bottom cc_123
.cc_top cc_124,.Lxtalabel116
	.ascii	"C:/Users/takaaki/git/sw_xSSDAC/module_operation_console/src/button_listener.xc"
	.byte	0
	.long	246
	.long	247
	.long	.Lxtalabel116
.cc_bottom cc_124
.cc_top cc_125,.Lxtalabel117
	.ascii	"C:/Users/takaaki/git/sw_xSSDAC/module_operation_console/src/button_listener.xc"
	.byte	0
	.long	249
	.long	249
	.long	.Lxtalabel117
.cc_bottom cc_125
.cc_top cc_126,.Lxtalabel116
	.ascii	"C:/Users/takaaki/git/sw_xSSDAC/module_operation_console/src/button_listener.xc"
	.byte	0
	.long	249
	.long	249
	.long	.Lxtalabel116
.cc_bottom cc_126
.cc_top cc_127,.Lxtalabel116
	.ascii	"C:/Users/takaaki/git/sw_xSSDAC/module_operation_console/src/button_listener.xc"
	.byte	0
	.long	251
	.long	252
	.long	.Lxtalabel116
.cc_bottom cc_127
.cc_top cc_128,.Lxtalabel117
	.ascii	"C:/Users/takaaki/git/sw_xSSDAC/module_operation_console/src/button_listener.xc"
	.byte	0
	.long	251
	.long	252
	.long	.Lxtalabel117
.cc_bottom cc_128
.cc_top cc_129,.Lxtalabel118
	.ascii	"C:/Users/takaaki/git/sw_xSSDAC/module_operation_console/src/button_listener.xc"
	.byte	0
	.long	254
	.long	255
	.long	.Lxtalabel118
.cc_bottom cc_129
.cc_top cc_130,.Lxtalabel118
	.ascii	"C:/Users/takaaki/git/sw_xSSDAC/module_operation_console/src/button_listener.xc"
	.byte	0
	.long	257
	.long	257
	.long	.Lxtalabel118
.cc_bottom cc_130
.cc_top cc_131,.Lxtalabel119
	.ascii	"C:/Users/takaaki/git/sw_xSSDAC/module_operation_console/src/button_listener.xc"
	.byte	0
	.long	259
	.long	260
	.long	.Lxtalabel119
.cc_bottom cc_131
.cc_top cc_132,.Lxtalabel120
	.ascii	"C:/Users/takaaki/git/sw_xSSDAC/module_operation_console/src/button_listener.xc"
	.byte	0
	.long	261
	.long	263
	.long	.Lxtalabel120
.cc_bottom cc_132
.cc_top cc_133,.Lxtalabel121
	.ascii	"C:/Users/takaaki/git/sw_xSSDAC/module_operation_console/src/button_listener.xc"
	.byte	0
	.long	267
	.long	268
	.long	.Lxtalabel121
.cc_bottom cc_133
.cc_top cc_134,.Lxtalabel121
	.ascii	"C:/Users/takaaki/git/sw_xSSDAC/module_operation_console/src/button_listener.xc"
	.byte	0
	.long	270
	.long	270
	.long	.Lxtalabel121
.cc_bottom cc_134
.cc_top cc_135,.Lxtalabel122
	.ascii	"C:/Users/takaaki/git/sw_xSSDAC/module_operation_console/src/button_listener.xc"
	.byte	0
	.long	271
	.long	273
	.long	.Lxtalabel122
.cc_bottom cc_135
.cc_top cc_136,.Lxtalabel123
	.ascii	"C:/Users/takaaki/git/sw_xSSDAC/module_operation_console/src/button_listener.xc"
	.byte	0
	.long	274
	.long	274
	.long	.Lxtalabel123
.cc_bottom cc_136
.cc_top cc_137,.Lxtalabel17
	.ascii	"C:/Users/takaaki/git/sw_xSSDAC/module_operation_console/src/button_listener.xc"
	.byte	0
	.long	277
	.long	281
	.long	.Lxtalabel17
.cc_bottom cc_137
.cc_top cc_138,.Lxtalabel18
	.ascii	"C:/Users/takaaki/git/sw_xSSDAC/module_operation_console/src/button_listener.xc"
	.byte	0
	.long	277
	.long	281
	.long	.Lxtalabel18
.cc_bottom cc_138
.cc_top cc_139,.Lxtalabel17
	.ascii	"C:/Users/takaaki/git/sw_xSSDAC/module_operation_console/src/button_listener.xc"
	.byte	0
	.long	283
	.long	283
	.long	.Lxtalabel17
.cc_bottom cc_139
.cc_top cc_140,.Lxtalabel18
	.ascii	"C:/Users/takaaki/git/sw_xSSDAC/module_operation_console/src/button_listener.xc"
	.byte	0
	.long	283
	.long	283
	.long	.Lxtalabel18
.cc_bottom cc_140
.cc_top cc_141,.Lxtalabel31
	.ascii	"C:/Users/takaaki/git/sw_xSSDAC/module_operation_console/src/button_listener.xc"
	.byte	0
	.long	285
	.long	287
	.long	.Lxtalabel31
.cc_bottom cc_141
.cc_top cc_142,.Lxtalabel19
	.ascii	"C:/Users/takaaki/git/sw_xSSDAC/module_operation_console/src/button_listener.xc"
	.byte	0
	.long	285
	.long	287
	.long	.Lxtalabel19
.cc_bottom cc_142
.cc_top cc_143,.Lxtalabel20
	.ascii	"C:/Users/takaaki/git/sw_xSSDAC/module_operation_console/src/button_listener.xc"
	.byte	0
	.long	285
	.long	287
	.long	.Lxtalabel20
.cc_bottom cc_143
.cc_top cc_144,.Lxtalabel22
	.ascii	"C:/Users/takaaki/git/sw_xSSDAC/module_operation_console/src/button_listener.xc"
	.byte	0
	.long	285
	.long	287
	.long	.Lxtalabel22
.cc_bottom cc_144
.cc_top cc_145,.Lxtalabel23
	.ascii	"C:/Users/takaaki/git/sw_xSSDAC/module_operation_console/src/button_listener.xc"
	.byte	0
	.long	285
	.long	287
	.long	.Lxtalabel23
.cc_bottom cc_145
.cc_top cc_146,.Lxtalabel25
	.ascii	"C:/Users/takaaki/git/sw_xSSDAC/module_operation_console/src/button_listener.xc"
	.byte	0
	.long	285
	.long	287
	.long	.Lxtalabel25
.cc_bottom cc_146
.cc_top cc_147,.Lxtalabel26
	.ascii	"C:/Users/takaaki/git/sw_xSSDAC/module_operation_console/src/button_listener.xc"
	.byte	0
	.long	285
	.long	287
	.long	.Lxtalabel26
.cc_bottom cc_147
.cc_top cc_148,.Lxtalabel30
	.ascii	"C:/Users/takaaki/git/sw_xSSDAC/module_operation_console/src/button_listener.xc"
	.byte	0
	.long	285
	.long	287
	.long	.Lxtalabel30
.cc_bottom cc_148
.cc_top cc_149,.Lxtalabel23
	.ascii	"C:/Users/takaaki/git/sw_xSSDAC/module_operation_console/src/button_listener.xc"
	.byte	0
	.long	289
	.long	290
	.long	.Lxtalabel23
.cc_bottom cc_149
.cc_top cc_150,.Lxtalabel30
	.ascii	"C:/Users/takaaki/git/sw_xSSDAC/module_operation_console/src/button_listener.xc"
	.byte	0
	.long	289
	.long	290
	.long	.Lxtalabel30
.cc_bottom cc_150
.cc_top cc_151,.Lxtalabel26
	.ascii	"C:/Users/takaaki/git/sw_xSSDAC/module_operation_console/src/button_listener.xc"
	.byte	0
	.long	289
	.long	290
	.long	.Lxtalabel26
.cc_bottom cc_151
.cc_top cc_152,.Lxtalabel22
	.ascii	"C:/Users/takaaki/git/sw_xSSDAC/module_operation_console/src/button_listener.xc"
	.byte	0
	.long	289
	.long	290
	.long	.Lxtalabel22
.cc_bottom cc_152
.cc_top cc_153,.Lxtalabel20
	.ascii	"C:/Users/takaaki/git/sw_xSSDAC/module_operation_console/src/button_listener.xc"
	.byte	0
	.long	289
	.long	290
	.long	.Lxtalabel20
.cc_bottom cc_153
.cc_top cc_154,.Lxtalabel25
	.ascii	"C:/Users/takaaki/git/sw_xSSDAC/module_operation_console/src/button_listener.xc"
	.byte	0
	.long	289
	.long	290
	.long	.Lxtalabel25
.cc_bottom cc_154
.cc_top cc_155,.Lxtalabel19
	.ascii	"C:/Users/takaaki/git/sw_xSSDAC/module_operation_console/src/button_listener.xc"
	.byte	0
	.long	289
	.long	290
	.long	.Lxtalabel19
.cc_bottom cc_155
.cc_top cc_156,.Lxtalabel31
	.ascii	"C:/Users/takaaki/git/sw_xSSDAC/module_operation_console/src/button_listener.xc"
	.byte	0
	.long	289
	.long	290
	.long	.Lxtalabel31
.cc_bottom cc_156
.cc_top cc_157,.Lxtalabel36
	.ascii	"C:/Users/takaaki/git/sw_xSSDAC/module_operation_console/src/button_listener.xc"
	.byte	0
	.long	291
	.long	292
	.long	.Lxtalabel36
.cc_bottom cc_157
.cc_top cc_158,.Lxtalabel43
	.ascii	"C:/Users/takaaki/git/sw_xSSDAC/module_operation_console/src/button_listener.xc"
	.byte	0
	.long	291
	.long	292
	.long	.Lxtalabel43
.cc_bottom cc_158
.cc_top cc_159,.Lxtalabel46
	.ascii	"C:/Users/takaaki/git/sw_xSSDAC/module_operation_console/src/button_listener.xc"
	.byte	0
	.long	291
	.long	292
	.long	.Lxtalabel46
.cc_bottom cc_159
.cc_top cc_160,.Lxtalabel47
	.ascii	"C:/Users/takaaki/git/sw_xSSDAC/module_operation_console/src/button_listener.xc"
	.byte	0
	.long	291
	.long	292
	.long	.Lxtalabel47
.cc_bottom cc_160
.cc_top cc_161,.Lxtalabel39
	.ascii	"C:/Users/takaaki/git/sw_xSSDAC/module_operation_console/src/button_listener.xc"
	.byte	0
	.long	291
	.long	292
	.long	.Lxtalabel39
.cc_bottom cc_161
.cc_top cc_162,.Lxtalabel40
	.ascii	"C:/Users/takaaki/git/sw_xSSDAC/module_operation_console/src/button_listener.xc"
	.byte	0
	.long	291
	.long	292
	.long	.Lxtalabel40
.cc_bottom cc_162
.cc_top cc_163,.Lxtalabel37
	.ascii	"C:/Users/takaaki/git/sw_xSSDAC/module_operation_console/src/button_listener.xc"
	.byte	0
	.long	291
	.long	292
	.long	.Lxtalabel37
.cc_bottom cc_163
.cc_top cc_164,.Lxtalabel42
	.ascii	"C:/Users/takaaki/git/sw_xSSDAC/module_operation_console/src/button_listener.xc"
	.byte	0
	.long	291
	.long	292
	.long	.Lxtalabel42
.cc_bottom cc_164
.cc_top cc_165,.Lxtalabel38
	.ascii	"C:/Users/takaaki/git/sw_xSSDAC/module_operation_console/src/button_listener.xc"
	.byte	0
	.long	293
	.long	293
	.long	.Lxtalabel38
.cc_bottom cc_165
.cc_top cc_166,.Lxtalabel45
	.ascii	"C:/Users/takaaki/git/sw_xSSDAC/module_operation_console/src/button_listener.xc"
	.byte	0
	.long	294
	.long	294
	.long	.Lxtalabel45
.cc_bottom cc_166
.cc_top cc_167,.Lxtalabel41
	.ascii	"C:/Users/takaaki/git/sw_xSSDAC/module_operation_console/src/button_listener.xc"
	.byte	0
	.long	297
	.long	297
	.long	.Lxtalabel41
.cc_bottom cc_167
.cc_top cc_168,.Lxtalabel49
	.ascii	"C:/Users/takaaki/git/sw_xSSDAC/module_operation_console/src/button_listener.xc"
	.byte	0
	.long	298
	.long	298
	.long	.Lxtalabel49
.cc_bottom cc_168
.cc_top cc_169,.Lxtalabel44
	.ascii	"C:/Users/takaaki/git/sw_xSSDAC/module_operation_console/src/button_listener.xc"
	.byte	0
	.long	301
	.long	301
	.long	.Lxtalabel44
.cc_bottom cc_169
.cc_top cc_170,.Lxtalabel50
	.ascii	"C:/Users/takaaki/git/sw_xSSDAC/module_operation_console/src/button_listener.xc"
	.byte	0
	.long	302
	.long	302
	.long	.Lxtalabel50
.cc_bottom cc_170
.cc_top cc_171,.Lxtalabel48
	.ascii	"C:/Users/takaaki/git/sw_xSSDAC/module_operation_console/src/button_listener.xc"
	.byte	0
	.long	305
	.long	305
	.long	.Lxtalabel48
.cc_bottom cc_171
.cc_top cc_172,.Lxtalabel54
	.ascii	"C:/Users/takaaki/git/sw_xSSDAC/module_operation_console/src/button_listener.xc"
	.byte	0
	.long	306
	.long	306
	.long	.Lxtalabel54
.cc_bottom cc_172
.cc_top cc_173,.Lxtalabel51
	.ascii	"C:/Users/takaaki/git/sw_xSSDAC/module_operation_console/src/button_listener.xc"
	.byte	0
	.long	309
	.long	309
	.long	.Lxtalabel51
.cc_bottom cc_173
.cc_top cc_174,.Lxtalabel55
	.ascii	"C:/Users/takaaki/git/sw_xSSDAC/module_operation_console/src/button_listener.xc"
	.byte	0
	.long	310
	.long	310
	.long	.Lxtalabel55
.cc_bottom cc_174
.cc_top cc_175,.Lxtalabel52
	.ascii	"C:/Users/takaaki/git/sw_xSSDAC/module_operation_console/src/button_listener.xc"
	.byte	0
	.long	313
	.long	313
	.long	.Lxtalabel52
.cc_bottom cc_175
.cc_top cc_176,.Lxtalabel56
	.ascii	"C:/Users/takaaki/git/sw_xSSDAC/module_operation_console/src/button_listener.xc"
	.byte	0
	.long	314
	.long	314
	.long	.Lxtalabel56
.cc_bottom cc_176
.cc_top cc_177,.Lxtalabel53
	.ascii	"C:/Users/takaaki/git/sw_xSSDAC/module_operation_console/src/button_listener.xc"
	.byte	0
	.long	317
	.long	317
	.long	.Lxtalabel53
.cc_bottom cc_177
.cc_top cc_178,.Lxtalabel57
	.ascii	"C:/Users/takaaki/git/sw_xSSDAC/module_operation_console/src/button_listener.xc"
	.byte	0
	.long	318
	.long	318
	.long	.Lxtalabel57
.cc_bottom cc_178
.cc_top cc_179,.Lxtalabel21
	.ascii	"C:/Users/takaaki/git/sw_xSSDAC/module_operation_console/src/button_listener.xc"
	.byte	0
	.long	323
	.long	325
	.long	.Lxtalabel21
.cc_bottom cc_179
.cc_top cc_180,.Lxtalabel24
	.ascii	"C:/Users/takaaki/git/sw_xSSDAC/module_operation_console/src/button_listener.xc"
	.byte	0
	.long	326
	.long	328
	.long	.Lxtalabel24
.cc_bottom cc_180
.cc_top cc_181,.Lxtalabel27
	.ascii	"C:/Users/takaaki/git/sw_xSSDAC/module_operation_console/src/button_listener.xc"
	.byte	0
	.long	329
	.long	331
	.long	.Lxtalabel27
.cc_bottom cc_181
.cc_top cc_182,.Lxtalabel32
	.ascii	"C:/Users/takaaki/git/sw_xSSDAC/module_operation_console/src/button_listener.xc"
	.byte	0
	.long	332
	.long	334
	.long	.Lxtalabel32
.cc_bottom cc_182
.cc_top cc_183,.Lxtalabel33
	.ascii	"C:/Users/takaaki/git/sw_xSSDAC/module_operation_console/src/button_listener.xc"
	.byte	0
	.long	335
	.long	337
	.long	.Lxtalabel33
.cc_bottom cc_183
.cc_top cc_184,.Lxtalabel34
	.ascii	"C:/Users/takaaki/git/sw_xSSDAC/module_operation_console/src/button_listener.xc"
	.byte	0
	.long	338
	.long	340
	.long	.Lxtalabel34
.cc_bottom cc_184
.cc_top cc_185,.Lxtalabel35
	.ascii	"C:/Users/takaaki/git/sw_xSSDAC/module_operation_console/src/button_listener.xc"
	.byte	0
	.long	341
	.long	343
	.long	.Lxtalabel35
.cc_bottom cc_185
.cc_top cc_186,.Lxtalabel29
	.ascii	"C:/Users/takaaki/git/sw_xSSDAC/module_operation_console/src/button_listener.xc"
	.byte	0
	.long	345
	.long	345
	.long	.Lxtalabel29
.cc_bottom cc_186
.cc_top cc_187,.Lxtalabel28
	.ascii	"C:/Users/takaaki/git/sw_xSSDAC/module_operation_console/src/button_listener.xc"
	.byte	0
	.long	345
	.long	345
	.long	.Lxtalabel28
.cc_bottom cc_187
.cc_top cc_188,.Lxtalabel1
	.ascii	"C:/Users/takaaki/git/sw_xSSDAC/module_operation_console/src/button_listener.xc"
	.byte	0
	.long	352
	.long	355
	.long	.Lxtalabel1
.cc_bottom cc_188
.cc_top cc_189,.Lxtalabel9
	.ascii	"C:/Users/takaaki/git/sw_xSSDAC/module_operation_console/src/button_listener.xc"
	.byte	0
	.long	352
	.long	355
	.long	.Lxtalabel9
.cc_bottom cc_189
.cc_top cc_190,.Lxtalabel1
	.ascii	"C:/Users/takaaki/git/sw_xSSDAC/module_operation_console/src/button_listener.xc"
	.byte	0
	.long	357
	.long	359
	.long	.Lxtalabel1
.cc_bottom cc_190
.cc_top cc_191,.Lxtalabel9
	.ascii	"C:/Users/takaaki/git/sw_xSSDAC/module_operation_console/src/button_listener.xc"
	.byte	0
	.long	357
	.long	359
	.long	.Lxtalabel9
.cc_bottom cc_191
.cc_top cc_192,.Lxtalabel1
	.ascii	"C:/Users/takaaki/git/sw_xSSDAC/module_operation_console/src/button_listener.xc"
	.byte	0
	.long	361
	.long	361
	.long	.Lxtalabel1
.cc_bottom cc_192
.cc_top cc_193,.Lxtalabel9
	.ascii	"C:/Users/takaaki/git/sw_xSSDAC/module_operation_console/src/button_listener.xc"
	.byte	0
	.long	361
	.long	361
	.long	.Lxtalabel9
.cc_bottom cc_193
.cc_top cc_194,.Lxtalabel1
	.ascii	"C:/Users/takaaki/git/sw_xSSDAC/module_operation_console/src/button_listener.xc"
	.byte	0
	.long	363
	.long	364
	.long	.Lxtalabel1
.cc_bottom cc_194
.cc_top cc_195,.Lxtalabel9
	.ascii	"C:/Users/takaaki/git/sw_xSSDAC/module_operation_console/src/button_listener.xc"
	.byte	0
	.long	363
	.long	364
	.long	.Lxtalabel9
.cc_bottom cc_195
.cc_top cc_196,.Lxtalabel1
	.ascii	"C:/Users/takaaki/git/sw_xSSDAC/module_operation_console/src/button_listener.xc"
	.byte	0
	.long	366
	.long	366
	.long	.Lxtalabel1
.cc_bottom cc_196
.cc_top cc_197,.Lxtalabel9
	.ascii	"C:/Users/takaaki/git/sw_xSSDAC/module_operation_console/src/button_listener.xc"
	.byte	0
	.long	366
	.long	366
	.long	.Lxtalabel9
.cc_bottom cc_197
.cc_top cc_198,.Lxtalabel15
	.ascii	"C:/Users/takaaki/git/sw_xSSDAC/module_operation_console/src/button_listener.xc"
	.byte	0
	.long	373
	.long	374
	.long	.Lxtalabel15
.cc_bottom cc_198
.cc_top cc_199,.Lxtalabel7
	.ascii	"C:/Users/takaaki/git/sw_xSSDAC/module_operation_console/src/button_listener.xc"
	.byte	0
	.long	373
	.long	374
	.long	.Lxtalabel7
.cc_bottom cc_199
.cc_top cc_200,.Lxtalabel15
	.ascii	"C:/Users/takaaki/git/sw_xSSDAC/module_operation_console/src/button_listener.xc"
	.byte	0
	.long	377
	.long	377
	.long	.Lxtalabel15
.cc_bottom cc_200
.cc_top cc_201,.Lxtalabel7
	.ascii	"C:/Users/takaaki/git/sw_xSSDAC/module_operation_console/src/button_listener.xc"
	.byte	0
	.long	377
	.long	377
	.long	.Lxtalabel7
.cc_bottom cc_201
.cc_top cc_202,.Lxtalabel8
	.ascii	"C:/Users/takaaki/git/sw_xSSDAC/module_operation_console/src/button_listener.xc"
	.byte	0
	.long	378
	.long	379
	.long	.Lxtalabel8
.cc_bottom cc_202
.cc_top cc_203,.Lxtalabel16
	.ascii	"C:/Users/takaaki/git/sw_xSSDAC/module_operation_console/src/button_listener.xc"
	.byte	0
	.long	378
	.long	379
	.long	.Lxtalabel16
.cc_bottom cc_203
.cc_top cc_204,.Lxtalabel8
	.ascii	"C:/Users/takaaki/git/sw_xSSDAC/module_operation_console/src/button_listener.xc"
	.byte	0
	.long	381
	.long	381
	.long	.Lxtalabel8
.cc_bottom cc_204
.cc_top cc_205,.Lxtalabel16
	.ascii	"C:/Users/takaaki/git/sw_xSSDAC/module_operation_console/src/button_listener.xc"
	.byte	0
	.long	381
	.long	381
	.long	.Lxtalabel16
.cc_bottom cc_205
.cc_top cc_206,.Lxtalabel10
	.ascii	"C:/Users/takaaki/git/sw_xSSDAC/module_operation_console/src/button_listener.xc"
	.byte	0
	.long	382
	.long	385
	.long	.Lxtalabel10
.cc_bottom cc_206
.cc_top cc_207,.Lxtalabel2
	.ascii	"C:/Users/takaaki/git/sw_xSSDAC/module_operation_console/src/button_listener.xc"
	.byte	0
	.long	382
	.long	385
	.long	.Lxtalabel2
.cc_bottom cc_207
.Lentries_end5:
	.section	.trap_info,"",@progbits
.Ltrap_info_entries_start0:
	.long	.Ltrap_info_entries_end0-.Ltrap_info_entries_start0
	.long	1
	.section	.trap_info_str,"MS",@progbits
.Ltrap_info_str0:
.asciiz"C:/Users/takaaki/git/sw_xSSDAC/module_operation_console/src/button_listener.xc:368:30: error: passing null argument to a non-null parameter\n        SendBackTrackControl(c_play_control);\n                             ^~~~~~~~~~~~~~\n"
	.section	.trap_info,"",@progbits
.cc_top cc_trapinfo_0,.Ltrap_info0
	.long	.Ltrap_info0
	.long	.Ltrap_info_str0
.cc_bottom cc_trapinfo_0
	.section	.trap_info_str,"MS",@progbits
.Ltrap_info_str1:
.asciiz"C:/Users/takaaki/git/sw_xSSDAC/module_operation_console/src/button_listener.xc:378:34: error: passing null argument to a non-null parameter\n                HandleDacCommand(c_dac_control, dac_command);\n                                 ^~~~~~~~~~~~~\n"
	.section	.trap_info,"",@progbits
.cc_top cc_trapinfo_1,.Ltrap_info1
	.long	.Ltrap_info1
	.long	.Ltrap_info_str1
.cc_bottom cc_trapinfo_1
	.section	.trap_info_str,"MS",@progbits
.Ltrap_info_str2:
.asciiz"C:/Users/takaaki/git/sw_xSSDAC/module_operation_console/src/button_listener.xc:368:30: error: passing null argument to a non-null parameter\n        SendBackTrackControl(c_play_control);\n                             ^~~~~~~~~~~~~~\n"
	.section	.trap_info,"",@progbits
.cc_top cc_trapinfo_2,.Ltrap_info2
	.long	.Ltrap_info2
	.long	.Ltrap_info_str2
.cc_bottom cc_trapinfo_2
	.section	.trap_info_str,"MS",@progbits
.Ltrap_info_str3:
.asciiz"C:/Users/takaaki/git/sw_xSSDAC/module_operation_console/src/button_listener.xc:378:34: error: passing null argument to a non-null parameter\n                HandleDacCommand(c_dac_control, dac_command);\n                                 ^~~~~~~~~~~~~\n"
	.section	.trap_info,"",@progbits
.cc_top cc_trapinfo_3,.Ltrap_info3
	.long	.Ltrap_info3
	.long	.Ltrap_info_str3
.cc_bottom cc_trapinfo_3
.Ltrap_info_entries_end0: