	.text
	.file	"bitreader.c"
	.text
	.globl	FLAC__bitreader_new
	.align	4
	.type	FLAC__bitreader_new,@function
	.cc_top FLAC__bitreader_new.function,FLAC__bitreader_new
FLAC__bitreader_new:
.Lfunc_begin0:
	.loc	2 256 0
	.cfi_startproc
	.issue_mode dual
.Ltmp0:
	.cfi_def_cfa_offset 8
.Ltmp1:
	.cfi_offset 15, 0
	{
		mkmsk r0, 1
		dualentsp 2
	}
	{
		ldc r1, 56
		nop
	}
	.loc	2 257 24 prologue_end
.Ltmp2:
	bl calloc
.Ltmp3:
	{
		nop
		retsp 2
	}
	.loc	2 268 2
	# RETURN_REG_HOLDER
.Ltmp4:
	.cc_bottom FLAC__bitreader_new.function
	.set	FLAC__bitreader_new.nstackwords,(calloc.nstackwords + 2)
	.globl	FLAC__bitreader_new.nstackwords
	.set	FLAC__bitreader_new.maxcores,calloc.maxcores $M 1
	.globl	FLAC__bitreader_new.maxcores
	.set	FLAC__bitreader_new.maxtimers,calloc.maxtimers $M 0
	.globl	FLAC__bitreader_new.maxtimers
	.set	FLAC__bitreader_new.maxchanends,calloc.maxchanends $M 0
	.globl	FLAC__bitreader_new.maxchanends
.Ltmp5:
	.size	FLAC__bitreader_new, .Ltmp5-FLAC__bitreader_new
.Lfunc_end0:
	.cfi_endproc

	.globl	FLAC__bitreader_delete
	.align	4
	.type	FLAC__bitreader_delete,@function
	.cc_top FLAC__bitreader_delete.function,FLAC__bitreader_delete
FLAC__bitreader_delete:
.Lfunc_begin1:
	.loc	2 272 0
	.cfi_startproc
	.issue_mode dual
	{
		nop
		dualentsp 4
	}
.Ltmp6:
	.cfi_def_cfa_offset 16
.Ltmp7:
	.cfi_offset 15, 0
.Ltmp8:
	.cfi_offset 4, -8
.Ltmp9:
	{
		mov r4, r0
		stw r4, sp[2]
	}
.Ltmp10:
	{
		nop
		ldw r0, r4[0]
	}
	bf r0, .LBB1_2
.Ltmp11:
	.loc	2 309 3 prologue_end
	bl free
.Ltmp12:
.LBB1_2:
	.loc	2 276 2
	{
		mov r0, r4
		nop
	}
	bl free
	{
		nop
		ldw r4, sp[2]
	}
.Ltmp13:
	{
		nop
		retsp 4
	}
	.loc	2 277 1
	# RETURN_REG_HOLDER
.Ltmp14:
	.cc_bottom FLAC__bitreader_delete.function
	.set	FLAC__bitreader_delete.nstackwords,(free.nstackwords + 4)
	.globl	FLAC__bitreader_delete.nstackwords
	.set	FLAC__bitreader_delete.maxcores,free.maxcores $M 1
	.globl	FLAC__bitreader_delete.maxcores
	.set	FLAC__bitreader_delete.maxtimers,free.maxtimers $M 0
	.globl	FLAC__bitreader_delete.maxtimers
	.set	FLAC__bitreader_delete.maxchanends,free.maxchanends $M 0
	.globl	FLAC__bitreader_delete.maxchanends
.Ltmp15:
	.size	FLAC__bitreader_delete, .Ltmp15-FLAC__bitreader_delete
.Lfunc_end1:
	.file	4 "C:\\Program Files (x86)\\XMOS\\xTIMEcomposer\\Community_14.4.1\\target/include/clang\\stddef.h"
	.file	5 "C:/MEGA/HobbyElec/SSDAC/xSSDAC/xTIME/WORKSPACE/module_libFLAC/source/private\\bitreader.h"
	.cfi_endproc

	.globl	FLAC__bitreader_free
	.align	4
	.type	FLAC__bitreader_free,@function
	.cc_top FLAC__bitreader_free.function,FLAC__bitreader_free
FLAC__bitreader_free:
.Lfunc_begin2:
	.loc	2 305 0
	.cfi_startproc
	.issue_mode dual
	{
		nop
		dualentsp 4
	}
.Ltmp16:
	.cfi_def_cfa_offset 16
.Ltmp17:
	.cfi_offset 15, 0
.Ltmp18:
	.cfi_offset 4, -8
.Ltmp19:
	{
		mov r4, r0
		stw r4, sp[2]
	}
.Ltmp20:
	{
		nop
		ldw r0, r4[0]
	}
	bf r0, .LBB2_2
.Ltmp21:
	.loc	2 309 3 prologue_end
	bl free
.Ltmp22:
.LBB2_2:
	{
		ldc r0, 48
		nop
	}
	.loc	2 314 2
	{
		add r0, r4, r0
		ldc r1, 0
	}
	.loc	2 314 2
	{
		ldc r0, 52
		stw r1, r0[0]
	}
	.loc	2 315 2
	{
		add r0, r4, r0
		nop
	}
	{
		nop
		stw r1, r0[0]
	}
	.loc	2 316 2
	{
		ldc r2, 24
		stw r1, r4[9]
	}
	.loc	2 311 2
	{
		mov r0, r4
		nop
	}
	bl memset
	{
		mkmsk r0, 32
		nop
	}
	{
		nop
		stw r0, r4[10]
	}
	{
		nop
		stw r0, r4[11]
	}
	{
		nop
		ldw r4, sp[2]
	}
.Ltmp23:
	{
		nop
		retsp 4
	}
	.loc	2 319 1
	# RETURN_REG_HOLDER
.Ltmp24:
	.cc_bottom FLAC__bitreader_free.function
	.set	FLAC__bitreader_free.nstackwords,((memset.nstackwords $M free.nstackwords) + 4)
	.globl	FLAC__bitreader_free.nstackwords
	.set	FLAC__bitreader_free.maxcores,free.maxcores $M 1
	.globl	FLAC__bitreader_free.maxcores
	.set	FLAC__bitreader_free.maxtimers,free.maxtimers $M 0
	.globl	FLAC__bitreader_free.maxtimers
	.set	FLAC__bitreader_free.maxchanends,free.maxchanends $M 0
	.globl	FLAC__bitreader_free.maxchanends
.Ltmp25:
	.size	FLAC__bitreader_free, .Ltmp25-FLAC__bitreader_free
.Lfunc_end2:
	.cfi_endproc

	.globl	FLAC__bitreader_init
	.align	4
	.type	FLAC__bitreader_init,@function
	.cc_top FLAC__bitreader_init.function,FLAC__bitreader_init
FLAC__bitreader_init:
.Lfunc_begin3:
	.loc	2 286 0
	.cfi_startproc
	.issue_mode dual
	{
		nop
		dualentsp 6
	}
.Ltmp26:
	.cfi_def_cfa_offset 24
.Ltmp27:
	.cfi_offset 15, 0
	std r5, r4, sp[1]
.Ltmp28:
	.cfi_offset 4, -16
.Ltmp29:
	.cfi_offset 5, -12
	std r7, r6, sp[2]
.Ltmp30:
	.cfi_offset 6, -8
.Ltmp31:
	.cfi_offset 7, -4
.Ltmp32:
	{
		mov r5, r2
		mov r6, r1
	}
.Ltmp33:
	{
		mov r4, r0
		ldc r7, 0
	}
.Ltmp34:
	{
		nop
		stw r7, r4[5]
	}
	{
		nop
		stw r7, r4[4]
	}
	{
		nop
		stw r7, r4[3]
	}
	{
		nop
		stw r7, r4[2]
	}
	ldc r0, 2048
	{
		nop
		stw r0, r4[1]
	}
	ldc r0, 8192
	.loc	2 292 15 prologue_end
.Ltmp35:
	bl malloc
	{
		nop
		stw r0, r4[0]
	}
	bf r0, .LBB3_2
.Ltmp36:
	{
		ldc r0, 48
		nop
	}
	.loc	2 295 2
	{
		add r0, r4, r0
		nop
	}
	.loc	2 295 2
	{
		ldc r0, 52
		stw r6, r0[0]
	}
	.loc	2 296 2
	{
		add r0, r4, r0
		nop
	}
	.loc	2 296 2
	{
		ldc r0, 0
		stw r5, r0[0]
	}
	.loc	2 297 2
	{
		mkmsk r0, 32
		stw r0, r4[9]
	}
	{
		nop
		stw r0, r4[10]
	}
	.loc	2 299 2
	{
		mkmsk r7, 1
		stw r0, r4[11]
	}
.Ltmp37:
.LBB3_2:
	.loc	2 302 1
	{
		mov r0, r7
		nop
	}
	ldd r7, r6, sp[2]
	ldd r5, r4, sp[1]
	{
		nop
		retsp 6
	}
	# RETURN_REG_HOLDER
.Ltmp38:
	.cc_bottom FLAC__bitreader_init.function
	.set	FLAC__bitreader_init.nstackwords,(malloc.nstackwords + 6)
	.globl	FLAC__bitreader_init.nstackwords
	.set	FLAC__bitreader_init.maxcores,malloc.maxcores $M 1
	.globl	FLAC__bitreader_init.maxcores
	.set	FLAC__bitreader_init.maxtimers,malloc.maxtimers $M 0
	.globl	FLAC__bitreader_init.maxtimers
	.set	FLAC__bitreader_init.maxchanends,malloc.maxchanends $M 0
	.globl	FLAC__bitreader_init.maxchanends
.Ltmp39:
	.size	FLAC__bitreader_init, .Ltmp39-FLAC__bitreader_init
.Lfunc_end3:
	.cfi_endproc

	.globl	FLAC__bitreader_clear
	.align	4
	.type	FLAC__bitreader_clear,@function
	.cc_top FLAC__bitreader_clear.function,FLAC__bitreader_clear
FLAC__bitreader_clear:
.Lfunc_begin4:
	.loc	2 322 0
	.cfi_startproc
	.issue_mode dual
	{
		ldc r1, 0
		dualentsp 0
	}
	{
		nop
		stw r1, r0[9]
	}
	{
		nop
		stw r1, r0[5]
	}
	{
		nop
		stw r1, r0[4]
	}
	{
		nop
		stw r1, r0[3]
	}
	.loc	2 323 2 prologue_end
.Ltmp40:
	{
		mkmsk r1, 32
		stw r1, r0[2]
	}
	{
		nop
		stw r1, r0[10]
	}
	.loc	2 327 2
	{
		mkmsk r0, 1
		stw r1, r0[11]
	}
.Ltmp41:
	{
		nop
		retsp 0
	}
	.loc	2 328 2
	# RETURN_REG_HOLDER
.Ltmp42:
	.cc_bottom FLAC__bitreader_clear.function
	.set	FLAC__bitreader_clear.nstackwords,0
	.globl	FLAC__bitreader_clear.nstackwords
	.set	FLAC__bitreader_clear.maxcores,1
	.globl	FLAC__bitreader_clear.maxcores
	.set	FLAC__bitreader_clear.maxtimers,0
	.globl	FLAC__bitreader_clear.maxtimers
	.set	FLAC__bitreader_clear.maxchanends,0
	.globl	FLAC__bitreader_clear.maxchanends
.Ltmp43:
	.size	FLAC__bitreader_clear, .Ltmp43-FLAC__bitreader_clear
.Lfunc_end4:
	.cfi_endproc

	.globl	FLAC__bitreader_set_framesync_location
	.align	4
	.type	FLAC__bitreader_set_framesync_location,@function
	.cc_top FLAC__bitreader_set_framesync_location.function,FLAC__bitreader_set_framesync_location
FLAC__bitreader_set_framesync_location:
.Lfunc_begin5:
	.loc	2 332 0
	.cfi_startproc
	.issue_mode dual
	{
		nop
		dualentsp 0
	}
	{
		nop
		ldw r1, r0[4]
	}
	{
		nop
		ldw r2, r0[5]
	}
	.loc	2 333 2 prologue_end
.Ltmp44:
	{
		shr r2, r2, 3
		nop
	}
	.loc	2 333 2
	ldaw r1, r2[r1]
	{
		nop
		stw r1, r0[11]
	}
	{
		nop
		retsp 0
	}
	.loc	2 334 1
	# RETURN_REG_HOLDER
.Ltmp45:
	.cc_bottom FLAC__bitreader_set_framesync_location.function
	.set	FLAC__bitreader_set_framesync_location.nstackwords,0
	.globl	FLAC__bitreader_set_framesync_location.nstackwords
	.set	FLAC__bitreader_set_framesync_location.maxcores,1
	.globl	FLAC__bitreader_set_framesync_location.maxcores
	.set	FLAC__bitreader_set_framesync_location.maxtimers,0
	.globl	FLAC__bitreader_set_framesync_location.maxtimers
	.set	FLAC__bitreader_set_framesync_location.maxchanends,0
	.globl	FLAC__bitreader_set_framesync_location.maxchanends
.Ltmp46:
	.size	FLAC__bitreader_set_framesync_location, .Ltmp46-FLAC__bitreader_set_framesync_location
.Lfunc_end5:
	.cfi_endproc

	.globl	FLAC__bitreader_rewind_to_after_last_seen_framesync
	.align	4
	.type	FLAC__bitreader_rewind_to_after_last_seen_framesync,@function
	.cc_top FLAC__bitreader_rewind_to_after_last_seen_framesync.function,FLAC__bitreader_rewind_to_after_last_seen_framesync
FLAC__bitreader_rewind_to_after_last_seen_framesync:
.Lfunc_begin6:
	.loc	2 337 0
	.cfi_startproc
	.issue_mode dual
	{
		nop
		dualentsp 0
	}
	.loc	2 338 5 prologue_end
.Ltmp47:
	{
		mkmsk r2, 32
		ldw r1, r0[11]
	}
	.loc	2 338 5
	{
		eq r2, r1, r2
		nop
	}
	bt r2, .LBB6_1
.Ltmp48:
	.loc	2 343 3
	{
		add r2, r1, 1
		nop
	}
	.loc	2 343 3
	{
		shr r2, r2, 2
		nop
	}
	.loc	2 343 3
	{
		shl r1, r1, 3
		stw r2, r0[4]
	}
	.loc	2 344 3
	{
		add r1, r1, 8
		ldc r2, 24
	}
	.loc	2 344 3
	{
		and r2, r1, r2
		mkmsk r1, 1
	}
	bu .LBB6_3
.Ltmp49:
.LBB6_1:
	{
		ldc r2, 0
		nop
	}
	.loc	2 339 3
.Ltmp50:
	{
		mov r1, r2
		stw r2, r0[4]
	}
.Ltmp51:
.LBB6_3:
	{
		mov r0, r1
		stw r2, r0[5]
	}
.Ltmp52:
	{
		nop
		retsp 0
	}
	.loc	2 347 1
	# RETURN_REG_HOLDER
.Ltmp53:
	.cc_bottom FLAC__bitreader_rewind_to_after_last_seen_framesync.function
	.set	FLAC__bitreader_rewind_to_after_last_seen_framesync.nstackwords,0
	.globl	FLAC__bitreader_rewind_to_after_last_seen_framesync.nstackwords
	.set	FLAC__bitreader_rewind_to_after_last_seen_framesync.maxcores,1
	.globl	FLAC__bitreader_rewind_to_after_last_seen_framesync.maxcores
	.set	FLAC__bitreader_rewind_to_after_last_seen_framesync.maxtimers,0
	.globl	FLAC__bitreader_rewind_to_after_last_seen_framesync.maxtimers
	.set	FLAC__bitreader_rewind_to_after_last_seen_framesync.maxchanends,0
	.globl	FLAC__bitreader_rewind_to_after_last_seen_framesync.maxchanends
.Ltmp54:
	.size	FLAC__bitreader_rewind_to_after_last_seen_framesync, .Ltmp54-FLAC__bitreader_rewind_to_after_last_seen_framesync
.Lfunc_end6:
	.cfi_endproc

	.globl	FLAC__bitreader_reset_read_crc16
	.align	4
	.type	FLAC__bitreader_reset_read_crc16,@function
	.cc_top FLAC__bitreader_reset_read_crc16.function,FLAC__bitreader_reset_read_crc16
FLAC__bitreader_reset_read_crc16:
.Lfunc_begin7:
	.loc	2 350 0
	.cfi_startproc
	.issue_mode dual
	{
		nop
		dualentsp 0
	}
	{
		nop
		stw r1, r0[6]
	}
	{
		nop
		ldw r1, r0[4]
	}
.Ltmp55:
	{
		nop
		stw r1, r0[7]
	}
	{
		nop
		ldw r1, r0[5]
	}
	{
		nop
		stw r1, r0[8]
	}
	{
		nop
		retsp 0
	}
	.loc	2 358 1 prologue_end
.Ltmp56:
	# RETURN_REG_HOLDER
.Ltmp57:
	.cc_bottom FLAC__bitreader_reset_read_crc16.function
	.set	FLAC__bitreader_reset_read_crc16.nstackwords,0
	.globl	FLAC__bitreader_reset_read_crc16.nstackwords
	.set	FLAC__bitreader_reset_read_crc16.maxcores,1
	.globl	FLAC__bitreader_reset_read_crc16.maxcores
	.set	FLAC__bitreader_reset_read_crc16.maxtimers,0
	.globl	FLAC__bitreader_reset_read_crc16.maxtimers
	.set	FLAC__bitreader_reset_read_crc16.maxchanends,0
	.globl	FLAC__bitreader_reset_read_crc16.maxchanends
.Ltmp58:
	.size	FLAC__bitreader_reset_read_crc16, .Ltmp58-FLAC__bitreader_reset_read_crc16
.Lfunc_end7:
	.cfi_endproc

	.section	.cp.rodata.cst4,"aMc",@progbits,4
	.cc_top .LCPI8_0.data,.LCPI8_0
	.align	4
	.type	.LCPI8_0,@object
	.size	.LCPI8_0, 4
.LCPI8_0:
	.long	4294967288
	.cc_bottom .LCPI8_0.data
	.text
	.globl	FLAC__bitreader_get_read_crc16
	.align	4
	.type	FLAC__bitreader_get_read_crc16,@function
	.cc_top FLAC__bitreader_get_read_crc16.function,FLAC__bitreader_get_read_crc16
FLAC__bitreader_get_read_crc16:
.Lfunc_begin8:
	.loc	2 361 0
	.cfi_startproc
	.issue_mode dual
	{
		nop
		dualentsp 12
	}
.Ltmp59:
	.cfi_def_cfa_offset 48
.Ltmp60:
	.cfi_offset 15, 0
	std r5, r4, sp[2]
.Ltmp61:
	.cfi_offset 4, -32
.Ltmp62:
	.cfi_offset 5, -28
	std r7, r6, sp[3]
.Ltmp63:
	.cfi_offset 6, -24
.Ltmp64:
	.cfi_offset 7, -20
	std r9, r8, sp[4]
.Ltmp65:
	.cfi_offset 8, -16
.Ltmp66:
	.cfi_offset 9, -12
.Ltmp67:
	.cfi_offset 10, -8
.Ltmp68:
	{
		mov r4, r0
		stw r10, sp[10]
	}
.Ltmp69:
	{
		nop
		ldw r1, r4[4]
	}
	{
		nop
		ldw r3, r4[7]
	}
	.loc	2 136 5 prologue_end
.Ltmp70:
	{
		lsu r0, r3, r1
		nop
	}
	bf r0, .LBB8_1
.Ltmp71:
	{
		nop
		ldw r0, r4[8]
	}
	.loc	2 136 5
	bf r0, .LBB8_3
.Ltmp72:
	.loc	2 137 3
	{
		add r2, r3, 1
		nop
	}
	{
		nop
		stw r2, r4[7]
	}
.Ltmp73:
	.loc	2 123 2
	{
		shr r5, r0, 5
		ldw r11, r4[6]
	}
.Ltmp74:
	bt r5, .LBB8_13
.Ltmp75:
	{
		nop
		ldw r5, r4[0]
	}
.Ltmp76:
	.loc	2 137 3
	{
		add r6, r0, 8
		ldw r5, r5[r3]
	}
.Ltmp77:
	{
		ldc r3, 32
		stw r6, sp[2]
	}
	.loc	2 137 3
	{
		lsu r3, r3, r6
		nop
	}
	.loc	2 125 2
.Ltmp78:
	bt r3, .LBB8_6
.Ltmp79:
	{
		mkmsk r3, 5
		nop
	}
	bu .LBB8_8
.Ltmp80:
.LBB8_1:
	.loc	2 366 2
	{
		mov r2, r3
		nop
	}
	bu .LBB8_14
.Ltmp81:
.LBB8_3:
	{
		mov r2, r3
		nop
	}
	bu .LBB8_14
.Ltmp82:
.LBB8_6:
	.loc	2 125 2
	{
		add r3, r0, 7
		nop
	}
.Ltmp83:
.LBB8_8:
	{
		ldc r3, 24
		stw r3, sp[1]
	}
	.loc	2 125 2
	{
		sub r7, r3, r0
		nop
	}
	ldc r8, 65280
	{
		ldc r3, 0
		stw r0, sp[3]
	}
.Ltmp84:
	.loc	2 137 3
	{
		mov r10, r0
		nop
	}
.Ltmp85:
.LBB8_9:
	.loc	2 127 3
	{
		shl r6, r11, 8
		nop
	}
	.loc	2 127 3
	{
		and r6, r6, r8
		shr r11, r11, 8
	}
	.loc	2 127 3
	{
		shr r0, r7, 5
		mov r9, r3
	}
	bt r0, .LBB8_11
.Ltmp86:
	.loc	2 127 3
	{
		shr r9, r5, r7
		nop
	}
	.loc	2 127 3
	{
		zext r9, 8
		nop
	}
.Ltmp87:
.LBB8_11:
	.loc	2 127 3
	xor r0, r9, r11
	.loc	2 127 3
	ldaw r11, cp[FLAC__crc16_table]
	{
		nop
		ld16s r0, r11[r0]
	}
	.loc	2 127 3
	{
		zext r0, 16
		nop
	}
	.loc	2 127 3
	xor r11, r0, r6
.Ltmp88:
	.loc	2 125 50
	{
		add r10, r10, 8
		sub r7, r7, 8
	}
	.loc	2 125 2
	{
		shr r0, r10, 5
		nop
	}
	bf r0, .LBB8_9
.Ltmp89:
	{
		nop
		ldw r0, sp[3]
	}
	{
		nop
		ldw r3, sp[1]
	}
	.loc	2 125 2
	{
		sub r0, r3, r0
		nop
	}
	ldw r3, cp[.LCPI8_0]
	.loc	2 125 2
	{
		and r0, r0, r3
		ldw r3, sp[2]
	}
	.loc	2 125 2
	{
		add r0, r0, r3
		nop
	}
	{
		nop
		stw r0, r4[8]
	}
.Ltmp90:
.LBB8_13:
	.loc	2 130 2
	{
		ldc r0, 0
		stw r11, r4[6]
	}
	{
		nop
		stw r0, r4[8]
	}
.Ltmp91:
.LBB8_14:
	.loc	2 140 6
	{
		lsu r0, r2, r1
		nop
	}
	bf r0, .LBB8_16
.Ltmp92:
	{
		nop
		ldw r0, r4[0]
	}
	.loc	2 142 20
.Ltmp93:
	ldaw r0, r0[r2]
	.loc	2 142 20
	{
		sub r1, r1, r2
		nop
	}
	.loc	2 142 20
	ldaw r2, r4[6]
	.loc	2 142 20
	{
		ldc r3, 0
		nop
	}
	{
		nop
		ld16s r2, r2[r3]
	}
	{
		zext r2, 16
		nop
	}
	bl FLAC__crc16_update_words32
	{
		nop
		stw r0, r4[6]
	}
.Ltmp94:
.LBB8_16:
	{
		ldc r0, 0
		nop
	}
	{
		nop
		stw r0, r4[7]
	}
	{
		nop
		ldw r1, r4[5]
	}
	bf r1, .LBB8_21
.Ltmp95:
	{
		nop
		ldw r2, r4[8]
	}
	.loc	2 374 3
.Ltmp96:
	{
		lsu r3, r2, r1
		nop
	}
	bf r3, .LBB8_21
.Ltmp97:
	{
		nop
		ldw r3, r4[4]
	}
	{
		nop
		ldw r11, r4[0]
	}
	{
		nop
		ldw r3, r11[r3]
	}
.Ltmp98:
	.loc	2 375 4
	{
		ldc r5, 24
		ldw r11, r4[6]
	}
	.loc	2 374 3
	{
		sub r5, r5, r2
		nop
	}
	ldc r6, 65280
.Ltmp99:
.LBB8_19:
	.loc	2 375 4
	{
		shl r7, r11, 8
		nop
	}
	.loc	2 375 4
	{
		and r7, r7, r6
		shr r11, r11, 8
	}
	.loc	2 375 4
	{
		shr r8, r3, r5
		nop
	}
	.loc	2 375 4
	{
		zext r8, 8
		nop
	}
	.loc	2 375 4
	xor r8, r11, r8
	.loc	2 375 4
	ldaw r11, cp[FLAC__crc16_table]
	{
		nop
		ld16s r11, r11[r8]
	}
	.loc	2 375 4
	{
		zext r11, 16
		nop
	}
	.loc	2 375 4
	xor r11, r7, r11
	.loc	2 374 47
	{
		add r2, r2, 8
		sub r5, r5, 8
	}
	.loc	2 374 3
	{
		lsu r7, r2, r1
		nop
	}
	.loc	2 374 3
	bt r7, .LBB8_19
.Ltmp100:
	{
		nop
		stw r11, r4[6]
	}
	{
		nop
		stw r2, r4[8]
	}
.Ltmp101:
.LBB8_21:
	.loc	2 377 2
	ldaw r1, r4[6]
	{
		nop
		ld16s r0, r1[r0]
	}
	.loc	2 377 2
	{
		zext r0, 16
		ldw r10, sp[10]
	}
	ldd r9, r8, sp[4]
	ldd r7, r6, sp[3]
	ldd r5, r4, sp[2]
.Ltmp102:
	{
		nop
		retsp 12
	}
	# RETURN_REG_HOLDER
.Ltmp103:
	.cc_bottom FLAC__bitreader_get_read_crc16.function
	.set	FLAC__bitreader_get_read_crc16.nstackwords,(FLAC__crc16_update_words32.nstackwords + 12)
	.globl	FLAC__bitreader_get_read_crc16.nstackwords
	.set	FLAC__bitreader_get_read_crc16.maxcores,FLAC__crc16_update_words32.maxcores $M 1
	.globl	FLAC__bitreader_get_read_crc16.maxcores
	.set	FLAC__bitreader_get_read_crc16.maxtimers,FLAC__crc16_update_words32.maxtimers $M 0
	.globl	FLAC__bitreader_get_read_crc16.maxtimers
	.set	FLAC__bitreader_get_read_crc16.maxchanends,FLAC__crc16_update_words32.maxchanends $M 0
	.globl	FLAC__bitreader_get_read_crc16.maxchanends
.Ltmp104:
	.size	FLAC__bitreader_get_read_crc16, .Ltmp104-FLAC__bitreader_get_read_crc16
.Lfunc_end8:
	.cfi_endproc

	.globl	FLAC__bitreader_is_consumed_byte_aligned
	.align	4
	.type	FLAC__bitreader_is_consumed_byte_aligned,@function
	.cc_top FLAC__bitreader_is_consumed_byte_aligned.function,FLAC__bitreader_is_consumed_byte_aligned
FLAC__bitreader_is_consumed_byte_aligned:
.Lfunc_begin9:
	.loc	2 381 0
	.cfi_startproc
	.issue_mode dual
	{
		ldc r1, 20
		dualentsp 0
	}
	{
		nop
		ld8u r0, r0[r1]
	}
.Ltmp105:
	.loc	2 382 2 prologue_end
	{
		zext r0, 3
		nop
	}
	{
		eq r0, r0, 0
		retsp 0
	}
	.loc	2 382 2
	# RETURN_REG_HOLDER
.Ltmp106:
	.cc_bottom FLAC__bitreader_is_consumed_byte_aligned.function
	.set	FLAC__bitreader_is_consumed_byte_aligned.nstackwords,0
	.globl	FLAC__bitreader_is_consumed_byte_aligned.nstackwords
	.set	FLAC__bitreader_is_consumed_byte_aligned.maxcores,1
	.globl	FLAC__bitreader_is_consumed_byte_aligned.maxcores
	.set	FLAC__bitreader_is_consumed_byte_aligned.maxtimers,0
	.globl	FLAC__bitreader_is_consumed_byte_aligned.maxtimers
	.set	FLAC__bitreader_is_consumed_byte_aligned.maxchanends,0
	.globl	FLAC__bitreader_is_consumed_byte_aligned.maxchanends
.Ltmp107:
	.size	FLAC__bitreader_is_consumed_byte_aligned, .Ltmp107-FLAC__bitreader_is_consumed_byte_aligned
.Lfunc_end9:
	.cfi_endproc

	.globl	FLAC__bitreader_bits_left_for_byte_alignment
	.align	4
	.type	FLAC__bitreader_bits_left_for_byte_alignment,@function
	.cc_top FLAC__bitreader_bits_left_for_byte_alignment.function,FLAC__bitreader_bits_left_for_byte_alignment
FLAC__bitreader_bits_left_for_byte_alignment:
.Lfunc_begin10:
	.loc	2 386 0
	.cfi_startproc
	.issue_mode dual
	{
		nop
		dualentsp 0
	}
	{
		nop
		ldw r0, r0[5]
	}
.Ltmp108:
	.loc	2 387 2 prologue_end
	{
		zext r0, 3
		ldc r1, 8
	}
	.loc	2 387 2
	{
		sub r0, r1, r0
		retsp 0
	}
	.loc	2 387 2
	# RETURN_REG_HOLDER
.Ltmp109:
	.cc_bottom FLAC__bitreader_bits_left_for_byte_alignment.function
	.set	FLAC__bitreader_bits_left_for_byte_alignment.nstackwords,0
	.globl	FLAC__bitreader_bits_left_for_byte_alignment.nstackwords
	.set	FLAC__bitreader_bits_left_for_byte_alignment.maxcores,1
	.globl	FLAC__bitreader_bits_left_for_byte_alignment.maxcores
	.set	FLAC__bitreader_bits_left_for_byte_alignment.maxtimers,0
	.globl	FLAC__bitreader_bits_left_for_byte_alignment.maxtimers
	.set	FLAC__bitreader_bits_left_for_byte_alignment.maxchanends,0
	.globl	FLAC__bitreader_bits_left_for_byte_alignment.maxchanends
.Ltmp110:
	.size	FLAC__bitreader_bits_left_for_byte_alignment, .Ltmp110-FLAC__bitreader_bits_left_for_byte_alignment
.Lfunc_end10:
	.cfi_endproc

	.globl	FLAC__bitreader_get_input_bits_unconsumed
	.align	4
	.type	FLAC__bitreader_get_input_bits_unconsumed,@function
	.cc_top FLAC__bitreader_get_input_bits_unconsumed.function,FLAC__bitreader_get_input_bits_unconsumed
FLAC__bitreader_get_input_bits_unconsumed:
.Lfunc_begin11:
	.loc	2 391 0
	.cfi_startproc
	.issue_mode dual
	{
		nop
		dualentsp 0
	}
	{
		nop
		ldw r1, r0[2]
	}
	{
		nop
		ldw r2, r0[4]
	}
	.loc	2 392 2 prologue_end
.Ltmp111:
	{
		sub r1, r1, r2
		nop
	}
	.loc	2 392 2
	{
		shl r1, r1, 5
		ldw r2, r0[3]
	}
	.loc	2 392 2
	{
		shl r2, r2, 3
		nop
	}
	.loc	2 392 2
	{
		add r1, r1, r2
		ldw r0, r0[5]
	}
.Ltmp112:
	.loc	2 392 2
	{
		sub r0, r1, r0
		retsp 0
	}
	.loc	2 392 2
	# RETURN_REG_HOLDER
.Ltmp113:
	.cc_bottom FLAC__bitreader_get_input_bits_unconsumed.function
	.set	FLAC__bitreader_get_input_bits_unconsumed.nstackwords,0
	.globl	FLAC__bitreader_get_input_bits_unconsumed.nstackwords
	.set	FLAC__bitreader_get_input_bits_unconsumed.maxcores,1
	.globl	FLAC__bitreader_get_input_bits_unconsumed.maxcores
	.set	FLAC__bitreader_get_input_bits_unconsumed.maxtimers,0
	.globl	FLAC__bitreader_get_input_bits_unconsumed.maxtimers
	.set	FLAC__bitreader_get_input_bits_unconsumed.maxchanends,0
	.globl	FLAC__bitreader_get_input_bits_unconsumed.maxchanends
.Ltmp114:
	.size	FLAC__bitreader_get_input_bits_unconsumed, .Ltmp114-FLAC__bitreader_get_input_bits_unconsumed
.Lfunc_end11:
	.cfi_endproc

	.globl	FLAC__bitreader_set_limit
	.align	4
	.type	FLAC__bitreader_set_limit,@function
	.cc_top FLAC__bitreader_set_limit.function,FLAC__bitreader_set_limit
FLAC__bitreader_set_limit:
.Lfunc_begin12:
	.loc	2 396 0
	.cfi_startproc
	.issue_mode dual
	{
		nop
		dualentsp 0
	}
	.loc	2 397 2 prologue_end
.Ltmp115:
	{
		mkmsk r1, 1
		stw r1, r0[10]
	}
.Ltmp116:
	{
		nop
		stw r1, r0[9]
	}
	{
		nop
		retsp 0
	}
	.loc	2 399 1
	# RETURN_REG_HOLDER
.Ltmp117:
	.cc_bottom FLAC__bitreader_set_limit.function
	.set	FLAC__bitreader_set_limit.nstackwords,0
	.globl	FLAC__bitreader_set_limit.nstackwords
	.set	FLAC__bitreader_set_limit.maxcores,1
	.globl	FLAC__bitreader_set_limit.maxcores
	.set	FLAC__bitreader_set_limit.maxtimers,0
	.globl	FLAC__bitreader_set_limit.maxtimers
	.set	FLAC__bitreader_set_limit.maxchanends,0
	.globl	FLAC__bitreader_set_limit.maxchanends
.Ltmp118:
	.size	FLAC__bitreader_set_limit, .Ltmp118-FLAC__bitreader_set_limit
.Lfunc_end12:
	.cfi_endproc

	.globl	FLAC__bitreader_remove_limit
	.align	4
	.type	FLAC__bitreader_remove_limit,@function
	.cc_top FLAC__bitreader_remove_limit.function,FLAC__bitreader_remove_limit
FLAC__bitreader_remove_limit:
.Lfunc_begin13:
	.loc	2 402 0
	.cfi_startproc
	.issue_mode dual
	{
		ldc r1, 0
		dualentsp 0
	}
	.loc	2 403 2 prologue_end
.Ltmp119:
	{
		mkmsk r1, 32
		stw r1, r0[9]
	}
	{
		nop
		stw r1, r0[10]
	}
	{
		nop
		retsp 0
	}
	.loc	2 405 1
	# RETURN_REG_HOLDER
.Ltmp120:
	.cc_bottom FLAC__bitreader_remove_limit.function
	.set	FLAC__bitreader_remove_limit.nstackwords,0
	.globl	FLAC__bitreader_remove_limit.nstackwords
	.set	FLAC__bitreader_remove_limit.maxcores,1
	.globl	FLAC__bitreader_remove_limit.maxcores
	.set	FLAC__bitreader_remove_limit.maxtimers,0
	.globl	FLAC__bitreader_remove_limit.maxtimers
	.set	FLAC__bitreader_remove_limit.maxchanends,0
	.globl	FLAC__bitreader_remove_limit.maxchanends
.Ltmp121:
	.size	FLAC__bitreader_remove_limit, .Ltmp121-FLAC__bitreader_remove_limit
.Lfunc_end13:
	.cfi_endproc

	.globl	FLAC__bitreader_limit_remaining
	.align	4
	.type	FLAC__bitreader_limit_remaining,@function
	.cc_top FLAC__bitreader_limit_remaining.function,FLAC__bitreader_limit_remaining
FLAC__bitreader_limit_remaining:
.Lfunc_begin14:
	.loc	2 408 0
	.cfi_startproc
	.issue_mode dual
	{
		nop
		dualentsp 0
	}
	{
		nop
		ldw r0, r0[10]
	}
.Ltmp122:
	{
		nop
		retsp 0
	}
	.loc	2 410 2 prologue_end
.Ltmp123:
	# RETURN_REG_HOLDER
.Ltmp124:
	.cc_bottom FLAC__bitreader_limit_remaining.function
	.set	FLAC__bitreader_limit_remaining.nstackwords,0
	.globl	FLAC__bitreader_limit_remaining.nstackwords
	.set	FLAC__bitreader_limit_remaining.maxcores,1
	.globl	FLAC__bitreader_limit_remaining.maxcores
	.set	FLAC__bitreader_limit_remaining.maxtimers,0
	.globl	FLAC__bitreader_limit_remaining.maxtimers
	.set	FLAC__bitreader_limit_remaining.maxchanends,0
	.globl	FLAC__bitreader_limit_remaining.maxchanends
.Ltmp125:
	.size	FLAC__bitreader_limit_remaining, .Ltmp125-FLAC__bitreader_limit_remaining
.Lfunc_end14:
	.cfi_endproc

	.globl	FLAC__bitreader_limit_invalidate
	.align	4
	.type	FLAC__bitreader_limit_invalidate,@function
	.cc_top FLAC__bitreader_limit_invalidate.function,FLAC__bitreader_limit_invalidate
FLAC__bitreader_limit_invalidate:
.Lfunc_begin15:
	.loc	2 413 0
	.cfi_startproc
	.issue_mode dual
	{
		mkmsk r1, 32
		dualentsp 0
	}
	{
		nop
		stw r1, r0[10]
	}
	{
		nop
		retsp 0
	}
	.loc	2 415 1 prologue_end
.Ltmp126:
	# RETURN_REG_HOLDER
.Ltmp127:
	.cc_bottom FLAC__bitreader_limit_invalidate.function
	.set	FLAC__bitreader_limit_invalidate.nstackwords,0
	.globl	FLAC__bitreader_limit_invalidate.nstackwords
	.set	FLAC__bitreader_limit_invalidate.maxcores,1
	.globl	FLAC__bitreader_limit_invalidate.maxcores
	.set	FLAC__bitreader_limit_invalidate.maxtimers,0
	.globl	FLAC__bitreader_limit_invalidate.maxtimers
	.set	FLAC__bitreader_limit_invalidate.maxchanends,0
	.globl	FLAC__bitreader_limit_invalidate.maxchanends
.Ltmp128:
	.size	FLAC__bitreader_limit_invalidate, .Ltmp128-FLAC__bitreader_limit_invalidate
.Lfunc_end15:
	.cfi_endproc

	.globl	FLAC__bitreader_read_raw_uint32
	.align	4
	.type	FLAC__bitreader_read_raw_uint32,@function
	.cc_top FLAC__bitreader_read_raw_uint32.function,FLAC__bitreader_read_raw_uint32
FLAC__bitreader_read_raw_uint32:
.Lfunc_begin16:
	.loc	2 418 0
	.cfi_startproc
	.issue_mode dual
	{
		nop
		dualentsp 6
	}
.Ltmp129:
	.cfi_def_cfa_offset 24
.Ltmp130:
	.cfi_offset 15, 0
	std r5, r4, sp[1]
.Ltmp131:
	.cfi_offset 4, -16
.Ltmp132:
	.cfi_offset 5, -12
	std r7, r6, sp[2]
.Ltmp133:
	.cfi_offset 6, -8
.Ltmp134:
	.cfi_offset 7, -4
.Ltmp135:
	{
		mov r6, r2
		mov r5, r1
	}
.Ltmp136:
	{
		mov r4, r0
		nop
	}
.Ltmp137:
	.loc	2 429 5 prologue_end
	bf r6, .LBB16_1
.Ltmp138:
	{
		nop
		ldw r0, r4[9]
	}
	bf r0, .LBB16_7
.Ltmp139:
	.loc	2 434 5
	{
		mkmsk r1, 32
		ldw r0, r4[10]
	}
	.loc	2 434 5
	{
		eq r2, r0, r1
		nop
	}
	bt r2, .LBB16_7
.Ltmp140:
	.loc	2 435 6
	{
		lsu r2, r0, r6
		nop
	}
	bf r2, .LBB16_6
.Ltmp141:
	.loc	2 436 4
	{
		ldc r7, 0
		stw r1, r4[10]
	}
	bu .LBB16_34
.Ltmp142:
.LBB16_1:
	{
		ldc r0, 0
		nop
	}
	{
		nop
		stw r0, r5[0]
	}
	bu .LBB16_33
.Ltmp143:
.LBB16_6:
	.loc	2 440 4
	{
		sub r0, r0, r6
		nop
	}
	{
		nop
		stw r0, r4[10]
	}
.Ltmp144:
.LBB16_7:
	{
		ldc r7, 0
		nop
	}
.Ltmp145:
.LBB16_8:
	{
		nop
		ldw r0, r4[2]
	}
	{
		nop
		ldw r11, r4[4]
	}
	.loc	2 443 2
	{
		sub r1, r0, r11
		nop
	}
	.loc	2 443 2
	{
		shl r1, r1, 5
		ldw r2, r4[3]
	}
	.loc	2 443 2
	{
		shl r2, r2, 3
		nop
	}
	.loc	2 443 2
	{
		add r2, r1, r2
		ldw r1, r4[5]
	}
	.loc	2 443 2
	{
		sub r2, r2, r1
		nop
	}
	.loc	2 443 2
	{
		lsu r2, r2, r6
		nop
	}
	bf r2, .LBB16_10
.Ltmp146:
	.loc	2 444 7
	{
		mov r0, r4
		nop
	}
	bl bitreader_read_from_client_
	bt r0, .LBB16_8
	bu .LBB16_34
.Ltmp147:
.LBB16_10:
	.loc	2 447 5
	{
		lsu r0, r11, r0
		nop
	}
	bf r0, .LBB16_28
.Ltmp148:
	.loc	2 449 6
	bf r1, .LBB16_25
.Ltmp149:
	{
		ldc r2, 32
		nop
	}
.Ltmp150:
	.loc	2 451 4
	{
		sub r3, r2, r1
		ldw r0, r4[0]
	}
.Ltmp151:
	.loc	2 452 4
	{
		shr r7, r1, 5
		ldw r11, r0[r11]
	}
.Ltmp152:
	.loc	2 453 4
	bt r7, .LBB16_13
.Ltmp153:
	{
		mkmsk r7, 32
		nop
	}
	.loc	2 453 4
	{
		shr r1, r7, r1
		nop
	}
	bu .LBB16_15
.Ltmp154:
.LBB16_28:
	{
		nop
		ldw r0, r4[0]
	}
	{
		nop
		ldw r0, r0[r11]
	}
	.loc	2 492 6
.Ltmp155:
	bf r1, .LBB16_30
.Ltmp156:
	{
		mkmsk r2, 32
		nop
	}
	.loc	2 495 4
.Ltmp157:
	{
		shr r2, r2, r1
		nop
	}
	.loc	2 495 4
	{
		and r0, r0, r2
		ldc r2, 32
	}
	.loc	2 495 4
	{
		sub r2, r2, r6
		nop
	}
	.loc	2 495 4
	{
		sub r1, r2, r1
		nop
	}
	bu .LBB16_31
.Ltmp158:
.LBB16_25:
	{
		nop
		ldw r0, r4[0]
	}
.Ltmp159:
	.loc	2 474 4
	{
		shr r1, r6, 5
		ldw r0, r0[r11]
	}
.Ltmp160:
	.loc	2 475 7
	bt r1, .LBB16_27
.Ltmp161:
	{
		ldc r1, 32
		nop
	}
	.loc	2 476 5
.Ltmp162:
	{
		sub r1, r1, r6
		nop
	}
	.loc	2 476 5
	{
		shr r0, r0, r1
		nop
	}
.Ltmp163:
	{
		nop
		stw r0, r5[0]
	}
	{
		nop
		stw r6, r4[5]
	}
	bu .LBB16_33
.Ltmp164:
.LBB16_30:
	{
		ldc r1, 32
		nop
	}
	.loc	2 500 4
.Ltmp165:
	{
		sub r1, r1, r6
		nop
	}
.Ltmp166:
.LBB16_31:
	.loc	2 500 4
	{
		shr r0, r0, r1
		nop
	}
.LBB16_32:
	{
		nop
		stw r0, r5[0]
	}
	{
		nop
		ldw r0, r4[5]
	}
	.loc	2 501 4
	{
		add r0, r0, r6
		nop
	}
	{
		nop
		stw r0, r4[5]
	}
.Ltmp167:
.LBB16_33:
	{
		mkmsk r7, 1
		nop
	}
.LBB16_34:
	.loc	2 505 1
	{
		mov r0, r7
		nop
	}
	ldd r7, r6, sp[2]
	ldd r5, r4, sp[1]
	{
		nop
		retsp 6
	}
	# RETURN_REG_HOLDER
.LBB16_13:
.Ltmp168:
	{
		ldc r1, 0
		nop
	}
.Ltmp169:
.LBB16_15:
	.loc	2 454 7
	{
		lsu r7, r6, r3
		nop
	}
	bf r7, .LBB16_19
.Ltmp170:
	.loc	2 455 5
	{
		sub r0, r3, r6
		nop
	}
.Ltmp171:
	.loc	2 456 5
	{
		shr r2, r0, 5
		nop
	}
	bt r2, .LBB16_17
.Ltmp172:
	.loc	2 456 5
	{
		and r1, r11, r1
		nop
	}
.Ltmp173:
	.loc	2 456 5
	{
		shr r0, r1, r0
		nop
	}
.Ltmp174:
	bu .LBB16_32
.Ltmp175:
.LBB16_19:
	.loc	2 461 4
	{
		and r1, r11, r1
		nop
	}
.Ltmp176:
	{
		nop
		stw r1, r5[0]
	}
	{
		nop
		ldw r1, r4[4]
	}
	.loc	2 463 4
	{
		add r1, r1, 1
		nop
	}
	.loc	2 463 4
	{
		ldc r1, 0
		stw r1, r4[4]
	}
	.loc	2 464 4
	{
		eq r11, r3, r6
		stw r1, r4[5]
	}
.Ltmp177:
	{
		mkmsk r7, 1
		nop
	}
	bt r11, .LBB16_34
.Ltmp178:
	.loc	2 462 4
	{
		sub r3, r6, r3
		nop
	}
.Ltmp179:
	.loc	2 466 5
	{
		sub r2, r2, r3
		shr r6, r3, 5
	}
.Ltmp180:
	.loc	2 467 5
	{
		mov r11, r1
		nop
	}
	bt r6, .LBB16_22
.Ltmp181:
	{
		nop
		ldw r11, r5[0]
	}
	.loc	2 467 5
	{
		shl r11, r11, r3
		nop
	}
.Ltmp182:
.LBB16_22:
	.loc	2 467 5
	{
		shr r6, r2, 5
		stw r11, r5[0]
	}
	bt r6, .LBB16_24
.Ltmp183:
	{
		nop
		ldw r1, r4[4]
	}
	{
		nop
		ldw r0, r0[r1]
	}
	.loc	2 468 5
	{
		shr r1, r0, r2
		nop
	}
.Ltmp184:
.LBB16_24:
	.loc	2 468 5
	{
		or r0, r11, r1
		nop
	}
	{
		nop
		stw r0, r5[0]
	}
	{
		nop
		stw r3, r4[5]
	}
	bu .LBB16_34
.Ltmp185:
.LBB16_27:
	{
		nop
		stw r0, r5[0]
	}
	{
		nop
		ldw r0, r4[4]
	}
.Ltmp186:
	.loc	2 482 4
	{
		add r0, r0, 1
		nop
	}
	{
		nop
		stw r0, r4[4]
	}
	bu .LBB16_33
.Ltmp187:
.LBB16_17:
	{
		ldc r0, 0
		nop
	}
	bu .LBB16_32
	.cc_bottom FLAC__bitreader_read_raw_uint32.function
	.set	FLAC__bitreader_read_raw_uint32.nstackwords,(bitreader_read_from_client_.nstackwords + 6)
	.globl	FLAC__bitreader_read_raw_uint32.nstackwords
	.set	FLAC__bitreader_read_raw_uint32.maxcores,bitreader_read_from_client_.maxcores $M 1
	.globl	FLAC__bitreader_read_raw_uint32.maxcores
	.set	FLAC__bitreader_read_raw_uint32.maxtimers,bitreader_read_from_client_.maxtimers $M 0
	.globl	FLAC__bitreader_read_raw_uint32.maxtimers
	.set	FLAC__bitreader_read_raw_uint32.maxchanends,bitreader_read_from_client_.maxchanends $M 0
	.globl	FLAC__bitreader_read_raw_uint32.maxchanends
.Ltmp188:
	.size	FLAC__bitreader_read_raw_uint32, .Ltmp188-FLAC__bitreader_read_raw_uint32
.Lfunc_end16:
	.cfi_endproc

	.section	.cp.rodata.cst4,"aMc",@progbits,4
	.cc_top .LCPI17_0.data,.LCPI17_0
	.align	4
	.type	.LCPI17_0,@object
	.size	.LCPI17_0, 4
.LCPI17_0:
	.long	4294967288
	.cc_bottom .LCPI17_0.data
	.text
	.align	4
	.type	bitreader_read_from_client_,@function
	.cc_top bitreader_read_from_client_.function,bitreader_read_from_client_
bitreader_read_from_client_:
.Lfunc_begin17:
	.loc	2 157 0
	.cfi_startproc
	.issue_mode dual
	{
		nop
		dualentsp 14
	}
.Ltmp189:
	.cfi_def_cfa_offset 56
.Ltmp190:
	.cfi_offset 15, 0
	std r5, r4, sp[3]
.Ltmp191:
	.cfi_offset 4, -32
.Ltmp192:
	.cfi_offset 5, -28
	std r7, r6, sp[4]
.Ltmp193:
	.cfi_offset 6, -24
.Ltmp194:
	.cfi_offset 7, -20
	std r9, r8, sp[5]
.Ltmp195:
	.cfi_offset 8, -16
.Ltmp196:
	.cfi_offset 9, -12
.Ltmp197:
	.cfi_offset 10, -8
.Ltmp198:
	{
		mov r4, r0
		stw r10, sp[12]
	}
.Ltmp199:
	{
		mkmsk r0, 32
		nop
	}
	{
		nop
		stw r0, r4[11]
	}
	{
		nop
		ldw r5, r4[4]
	}
	.loc	2 170 5 prologue_end
.Ltmp200:
	bf r5, .LBB17_1
.Ltmp201:
	{
		nop
		ldw r2, r4[7]
	}
	.loc	2 136 5
.Ltmp202:
	{
		lsu r0, r2, r5
		nop
	}
	bf r0, .LBB17_3
.Ltmp203:
	{
		nop
		ldw r0, r4[8]
	}
	.loc	2 136 5
	bf r0, .LBB17_5
.Ltmp204:
	.loc	2 137 3
	{
		add r1, r2, 1
		nop
	}
	{
		nop
		stw r1, r4[7]
	}
.Ltmp205:
	.loc	2 123 2
	{
		shr r3, r0, 5
		ldw r11, r4[6]
	}
.Ltmp206:
	bt r3, .LBB17_15
.Ltmp207:
	{
		nop
		ldw r3, r4[0]
	}
.Ltmp208:
	.loc	2 137 3
	{
		add r6, r0, 8
		ldw r3, r3[r2]
	}
.Ltmp209:
	{
		ldc r2, 32
		stw r6, sp[3]
	}
	.loc	2 137 3
	{
		lsu r2, r2, r6
		nop
	}
	.loc	2 125 2
.Ltmp210:
	bt r2, .LBB17_8
.Ltmp211:
	{
		mkmsk r2, 5
		nop
	}
	bu .LBB17_10
.Ltmp212:
.LBB17_1:
	{
		nop
		ldw r1, r4[2]
	}
	.loc	2 184 2
	ldaw r6, r4[3]
	bu .LBB17_19
.Ltmp213:
.LBB17_3:
	.loc	2 171 3
	{
		mov r1, r2
		nop
	}
	bu .LBB17_16
.Ltmp214:
.LBB17_5:
	{
		mov r1, r2
		nop
	}
	bu .LBB17_16
.Ltmp215:
.LBB17_8:
	.loc	2 125 2
	{
		add r2, r0, 7
		nop
	}
.Ltmp216:
.LBB17_10:
	{
		ldc r2, 24
		stw r2, sp[2]
	}
	.loc	2 125 2
	{
		sub r7, r2, r0
		nop
	}
	ldc r8, 65280
	{
		ldc r2, 0
		stw r0, sp[4]
	}
.Ltmp217:
	.loc	2 137 3
	{
		mov r10, r0
		nop
	}
.Ltmp218:
.LBB17_11:
	.loc	2 127 3
	{
		shl r6, r11, 8
		nop
	}
	.loc	2 127 3
	{
		and r6, r6, r8
		shr r11, r11, 8
	}
	.loc	2 127 3
	{
		shr r0, r7, 5
		mov r9, r2
	}
	bt r0, .LBB17_13
.Ltmp219:
	.loc	2 127 3
	{
		shr r9, r3, r7
		nop
	}
	.loc	2 127 3
	{
		zext r9, 8
		nop
	}
.Ltmp220:
.LBB17_13:
	.loc	2 127 3
	xor r0, r9, r11
	.loc	2 127 3
	ldaw r11, cp[FLAC__crc16_table]
	{
		nop
		ld16s r0, r11[r0]
	}
	.loc	2 127 3
	{
		zext r0, 16
		nop
	}
	.loc	2 127 3
	xor r11, r0, r6
.Ltmp221:
	.loc	2 125 50
	{
		add r10, r10, 8
		sub r7, r7, 8
	}
	.loc	2 125 2
	{
		shr r0, r10, 5
		nop
	}
	bf r0, .LBB17_11
.Ltmp222:
	{
		nop
		ldw r0, sp[4]
	}
	{
		nop
		ldw r2, sp[2]
	}
	.loc	2 125 2
	{
		sub r0, r2, r0
		nop
	}
	ldw r2, cp[.LCPI17_0]
	.loc	2 125 2
	{
		and r0, r0, r2
		ldw r2, sp[3]
	}
	.loc	2 125 2
	{
		add r0, r0, r2
		nop
	}
	{
		nop
		stw r0, r4[8]
	}
.Ltmp223:
.LBB17_15:
	.loc	2 130 2
	{
		ldc r0, 0
		stw r11, r4[6]
	}
	{
		nop
		stw r0, r4[8]
	}
.Ltmp224:
.LBB17_16:
	.loc	2 140 6
	{
		lsu r0, r1, r5
		nop
	}
	bf r0, .LBB17_18
.Ltmp225:
	{
		nop
		ldw r0, r4[0]
	}
	.loc	2 142 20
.Ltmp226:
	ldaw r0, r0[r1]
	.loc	2 142 20
	{
		sub r1, r5, r1
		nop
	}
	.loc	2 142 20
	ldaw r2, r4[6]
	.loc	2 142 20
	{
		ldc r3, 0
		nop
	}
	{
		nop
		ld16s r2, r2[r3]
	}
	{
		zext r2, 16
		nop
	}
	bl FLAC__crc16_update_words32
	{
		nop
		stw r0, r4[6]
	}
	{
		nop
		ldw r5, r4[4]
	}
.Ltmp227:
.LBB17_18:
	{
		ldc r7, 0
		nop
	}
	{
		nop
		stw r7, r4[7]
	}
	{
		nop
		ldw r2, r4[2]
	}
	.loc	2 174 3
	ldaw r6, r4[3]
	{
		nop
		ldw r0, r4[3]
	}
	.loc	2 174 3
	{
		eq r0, r0, 0
		nop
	}
	{
		eq r3, r0, 0
		ldw r0, r4[0]
	}
	.loc	2 175 3
	ldaw r1, r0[r5]
	.loc	2 174 3
	{
		sub r2, r2, r5
		nop
	}
.Ltmp228:
	.loc	2 175 3
	{
		add r2, r2, r3
		nop
	}
.Ltmp229:
	.loc	2 175 3
	{
		shl r2, r2, 2
		nop
	}
	.loc	2 175 3
	bl memmove
	{
		nop
		ldw r0, r4[2]
	}
	.loc	2 177 3
	{
		sub r1, r0, r5
		nop
	}
	{
		nop
		stw r1, r4[2]
	}
	{
		nop
		stw r7, r4[4]
	}
.Ltmp230:
.LBB17_19:
	{
		nop
		ldw r0, r4[1]
	}
	.loc	2 184 2
	{
		sub r0, r0, r1
		nop
	}
	.loc	2 184 2
	{
		shl r0, r0, 2
		ldw r2, r4[3]
	}
	.loc	2 184 2
	{
		sub r3, r0, r2
		nop
	}
.Ltmp231:
	.loc	2 184 2
	{
		eq r0, r0, r2
		stw r3, sp[5]
	}
	{
		ldc r5, 0
		nop
	}
	bt r0, .LBB17_29
.Ltmp232:
	{
		nop
		ldw r11, r4[0]
	}
	.loc	2 187 2
	ldaw r3, r11[r1]
.Ltmp233:
	.loc	2 187 2
	{
		add r0, r3, r2
		ldw r7, r11[r1]
	}
.Ltmp234:
	bf r2, .LBB17_22
.Ltmp235:
	.loc	2 201 3
	{
		byterev r1, r7
		nop
	}
	{
		nop
		stw r1, r3[0]
	}
.Ltmp236:
.LBB17_22:
	{
		ldc r1, 48
		nop
	}
	.loc	2 212 6
.Ltmp237:
	{
		add r1, r4, r1
		nop
	}
	.loc	2 212 6
	{
		ldc r1, 52
		ldw r3, r1[0]
	}
	.loc	2 212 6
	{
		add r1, r4, r1
		nop
	}
.Ltmp238:
	.loc	2 212 6
	{
		ldaw r1, sp[5]
		ldw r2, r1[0]
	}
.Ltmp239:
	{
		nop
		bla r3
	}
.Ltmp240:
	{
		nop
		ldw r1, r4[2]
	}
.Ltmp241:
	.loc	2 212 6
	bf r0, .LBB17_23
.Ltmp242:
	.loc	2 231 2
	{
		shl r3, r1, 2
		ldw r2, r6[0]
	}
	.loc	2 231 2
	{
		mkmsk r11, 2
		ldw r0, sp[5]
	}
	.loc	2 231 2
	{
		or r3, r3, r11
		nop
	}
	.loc	2 231 2
	{
		add r3, r3, r2
		nop
	}
	.loc	2 231 2
	{
		add r3, r3, r0
		nop
	}
	.loc	2 231 2
	{
		shr r3, r3, 2
		nop
	}
.Ltmp243:
	.loc	2 232 2
	{
		lsu r11, r1, r3
		nop
	}
	bf r11, .LBB17_28
.Ltmp244:
	{
		nop
		ldw r2, r4[0]
	}
.Ltmp245:
.LBB17_26:
	{
		nop
		ldw r11, r2[r1]
	}
	.loc	2 233 3
	{
		byterev r11, r11
		nop
	}
	.loc	2 233 3
	stw r11, r2[r1]
	.loc	2 232 38
	{
		add r1, r1, 1
		nop
	}
.Ltmp246:
	.loc	2 232 2
	{
		lsu r11, r1, r3
		nop
	}
	.loc	2 232 2
	bt r11, .LBB17_26
.Ltmp247:
	{
		nop
		ldw r1, r4[2]
	}
	{
		nop
		ldw r2, r4[3]
	}
.Ltmp248:
.LBB17_28:
	.loc	2 242 2
	ldaw r1, r2[r1]
	.loc	2 242 2
	{
		add r0, r1, r0
		nop
	}
.Ltmp249:
	.loc	2 243 2
	{
		shr r1, r0, 2
		nop
	}
	.loc	2 243 2
	{
		zext r0, 2
		stw r1, r4[2]
	}
.Ltmp250:
	.loc	2 244 2
	{
		mkmsk r5, 1
		stw r0, r4[3]
	}
	bu .LBB17_29
.Ltmp251:
.LBB17_23:
	{
		nop
		ldw r0, r4[0]
	}
	.loc	2 218 3
.Ltmp252:
	stw r7, r0[r1]
.Ltmp253:
.LBB17_29:
	.loc	2 247 1
	{
		mov r0, r5
		ldw r10, sp[12]
	}
	ldd r9, r8, sp[5]
	ldd r7, r6, sp[4]
	ldd r5, r4, sp[3]
	{
		nop
		retsp 14
	}
	# RETURN_REG_HOLDER
.Ltmp254:
	.cc_bottom bitreader_read_from_client_.function



.Ltmp255:
	.size	bitreader_read_from_client_, .Ltmp255-bitreader_read_from_client_
.Lfunc_end17:
	.cfi_endproc

	.globl	FLAC__bitreader_read_raw_int32
	.align	4
	.type	FLAC__bitreader_read_raw_int32,@function
	.cc_top FLAC__bitreader_read_raw_int32.function,FLAC__bitreader_read_raw_int32
FLAC__bitreader_read_raw_int32:
.Lfunc_begin18:
	.loc	2 508 0
	.cfi_startproc
	.issue_mode dual
	{
		nop
		dualentsp 6
	}
.Ltmp256:
	.cfi_def_cfa_offset 24
.Ltmp257:
	.cfi_offset 15, 0
	std r5, r4, sp[1]
.Ltmp258:
	.cfi_offset 4, -16
.Ltmp259:
	.cfi_offset 5, -12
.Ltmp260:
	.cfi_offset 6, -8
.Ltmp261:
	{
		mov r5, r2
		stw r6, sp[4]
	}
.Ltmp262:
	{
		mov r4, r1
		ldc r6, 0
	}
.Ltmp263:
	bf r5, .LBB18_6
.Ltmp264:
	{
		ldaw r1, sp[1]
		mov r2, r5
	}
.Ltmp265:
	.loc	2 511 20 prologue_end
	bl FLAC__bitreader_read_raw_uint32
.Ltmp266:
	bf r0, .LBB18_6
.Ltmp267:
	{
		ldc r0, 32
		nop
	}
	.loc	2 515 2
	{
		lsu r0, r0, r5
		nop
	}
	.loc	2 515 2
	bf r0, .LBB18_4
.Ltmp268:
	{
		ldc r0, 0
		nop
	}
	bu .LBB18_5
.Ltmp269:
.LBB18_4:
	.loc	2 515 2
	{
		sub r0, r5, 1
		mkmsk r1, 1
	}
	.loc	2 515 2
	{
		shl r0, r1, r0
		nop
	}
.Ltmp270:
.LBB18_5:
	{
		nop
		ldw r1, sp[1]
	}
	.loc	2 516 2
	xor r1, r1, r0
	.loc	2 516 2
	{
		sub r0, r1, r0
		nop
	}
.Ltmp271:
	.loc	2 516 2
	{
		mkmsk r6, 1
		stw r0, r4[0]
	}
.Ltmp272:
.LBB18_6:
	.loc	2 518 1
	{
		mov r0, r6
		ldw r6, sp[4]
	}
	ldd r5, r4, sp[1]
	{
		nop
		retsp 6
	}
	# RETURN_REG_HOLDER
.Ltmp273:
	.cc_bottom FLAC__bitreader_read_raw_int32.function
	.set	FLAC__bitreader_read_raw_int32.nstackwords,(FLAC__bitreader_read_raw_uint32.nstackwords + 6)
	.globl	FLAC__bitreader_read_raw_int32.nstackwords
	.set	FLAC__bitreader_read_raw_int32.maxcores,FLAC__bitreader_read_raw_uint32.maxcores $M 1
	.globl	FLAC__bitreader_read_raw_int32.maxcores
	.set	FLAC__bitreader_read_raw_int32.maxtimers,FLAC__bitreader_read_raw_uint32.maxtimers $M 0
	.globl	FLAC__bitreader_read_raw_int32.maxtimers
	.set	FLAC__bitreader_read_raw_int32.maxchanends,FLAC__bitreader_read_raw_uint32.maxchanends $M 0
	.globl	FLAC__bitreader_read_raw_int32.maxchanends
.Ltmp274:
	.size	FLAC__bitreader_read_raw_int32, .Ltmp274-FLAC__bitreader_read_raw_int32
.Lfunc_end18:
	.cfi_endproc

	.globl	FLAC__bitreader_read_raw_uint64
	.align	4
	.type	FLAC__bitreader_read_raw_uint64,@function
	.cc_top FLAC__bitreader_read_raw_uint64.function,FLAC__bitreader_read_raw_uint64
FLAC__bitreader_read_raw_uint64:
.Lfunc_begin19:
	.loc	2 521 0
	.cfi_startproc
	.issue_mode dual
	{
		nop
		dualentsp 8
	}
.Ltmp275:
	.cfi_def_cfa_offset 32
.Ltmp276:
	.cfi_offset 15, 0
	std r5, r4, sp[2]
.Ltmp277:
	.cfi_offset 4, -16
.Ltmp278:
	.cfi_offset 5, -12
.Ltmp279:
	.cfi_offset 6, -8
.Ltmp280:
	{
		mov r4, r1
		stw r6, sp[6]
	}
.Ltmp281:
	{
		mov r6, r0
		ldc r0, 33
	}
.Ltmp282:
	.loc	2 524 5 prologue_end
	{
		lsu r0, r2, r0
		nop
	}
	bt r0, .LBB19_4
.Ltmp283:
	.loc	2 525 7
	ldaw r2, r2[-8]
.Ltmp284:
	{
		ldaw r1, sp[3]
		mov r0, r6
	}
.Ltmp285:
	.loc	2 525 7
	bl FLAC__bitreader_read_raw_uint32
	{
		ldc r5, 0
		nop
	}
	bf r0, .LBB19_8
.Ltmp286:
	{
		ldaw r1, sp[2]
		ldc r2, 32
	}
.Ltmp287:
	.loc	2 527 7
	{
		mov r0, r6
		nop
	}
	bl FLAC__bitreader_read_raw_uint32
	bf r0, .LBB19_8
.Ltmp288:
	.loc	2 529 3
	{
		ldc r1, 0
		ldw r0, sp[3]
	}
	.loc	2 530 3
	std r0, r1, r4[0]
	bu .LBB19_7
.Ltmp289:
.LBB19_4:
	{
		ldaw r1, sp[2]
		mov r0, r6
	}
.Ltmp290:
	.loc	2 534 7
	bl FLAC__bitreader_read_raw_uint32
.Ltmp291:
	.loc	2 534 7
	bf r0, .LBB19_5
.Ltmp292:
	{
		ldc r0, 0
		nop
	}
.Ltmp293:
.LBB19_7:
	{
		nop
		ldw r1, sp[2]
	}
.Ltmp294:
	.loc	2 531 3
	std r0, r1, r4[0]
	{
		mkmsk r5, 1
		nop
	}
	bu .LBB19_8
.Ltmp295:
.LBB19_5:
	{
		ldc r5, 0
		nop
	}
.LBB19_8:
	.loc	2 539 1
	{
		mov r0, r5
		ldw r6, sp[6]
	}
	ldd r5, r4, sp[2]
	{
		nop
		retsp 8
	}
	# RETURN_REG_HOLDER
.Ltmp296:
	.cc_bottom FLAC__bitreader_read_raw_uint64.function
	.set	FLAC__bitreader_read_raw_uint64.nstackwords,(FLAC__bitreader_read_raw_uint32.nstackwords + 8)
	.globl	FLAC__bitreader_read_raw_uint64.nstackwords
	.set	FLAC__bitreader_read_raw_uint64.maxcores,FLAC__bitreader_read_raw_uint32.maxcores $M 1
	.globl	FLAC__bitreader_read_raw_uint64.maxcores
	.set	FLAC__bitreader_read_raw_uint64.maxtimers,FLAC__bitreader_read_raw_uint32.maxtimers $M 0
	.globl	FLAC__bitreader_read_raw_uint64.maxtimers
	.set	FLAC__bitreader_read_raw_uint64.maxchanends,FLAC__bitreader_read_raw_uint32.maxchanends $M 0
	.globl	FLAC__bitreader_read_raw_uint64.maxchanends
.Ltmp297:
	.size	FLAC__bitreader_read_raw_uint64, .Ltmp297-FLAC__bitreader_read_raw_uint64
.Lfunc_end19:
	.cfi_endproc

	.globl	FLAC__bitreader_read_raw_int64
	.align	4
	.type	FLAC__bitreader_read_raw_int64,@function
	.cc_top FLAC__bitreader_read_raw_int64.function,FLAC__bitreader_read_raw_int64
FLAC__bitreader_read_raw_int64:
.Lfunc_begin20:
	.loc	2 542 0
	.cfi_startproc
	.issue_mode dual
	{
		nop
		dualentsp 8
	}
.Ltmp298:
	.cfi_def_cfa_offset 32
.Ltmp299:
	.cfi_offset 15, 0
	std r5, r4, sp[2]
.Ltmp300:
	.cfi_offset 4, -16
.Ltmp301:
	.cfi_offset 5, -12
	std r7, r6, sp[3]
.Ltmp302:
	.cfi_offset 6, -8
.Ltmp303:
	.cfi_offset 7, -4
.Ltmp304:
	{
		mov r5, r2
		mov r4, r1
	}
.Ltmp305:
	{
		mov r7, r0
		ldc r6, 0
	}
.Ltmp306:
	bf r5, .LBB20_9
.Ltmp307:
	{
		ldc r0, 33
		nop
	}
	.loc	2 524 5 prologue_end
.Ltmp308:
	{
		lsu r0, r5, r0
		nop
	}
	bt r0, .LBB20_5
.Ltmp309:
	.loc	2 525 7
	ldaw r2, r5[-8]
.Ltmp310:
	{
		ldaw r1, sp[3]
		mov r0, r7
	}
.Ltmp311:
	.loc	2 525 7
	bl FLAC__bitreader_read_raw_uint32
	bf r0, .LBB20_9
.Ltmp312:
	{
		ldaw r1, sp[2]
		ldc r2, 32
	}
.Ltmp313:
	.loc	2 527 7
	{
		mov r0, r7
		nop
	}
	bl FLAC__bitreader_read_raw_uint32
	bf r0, .LBB20_9
.Ltmp314:
	{
		nop
		ldw r6, sp[3]
	}
	{
		nop
		ldw r7, sp[2]
	}
	ldc r0, 64
	.loc	2 549 2
	{
		lsu r2, r0, r5
		ldc r0, 0
	}
	.loc	2 549 2
	{
		mov r1, r0
		nop
	}
	bf r2, .LBB20_7
	bu .LBB20_8
.Ltmp315:
.LBB20_5:
	{
		ldaw r1, sp[2]
		mov r0, r7
	}
.Ltmp316:
	.loc	2 534 7
	{
		mov r2, r5
		nop
	}
	bl FLAC__bitreader_read_raw_uint32
	bf r0, .LBB20_9
.Ltmp317:
	{
		ldc r6, 0
		ldw r7, sp[2]
	}
.Ltmp318:
.LBB20_7:
	.loc	2 549 2
	{
		sub r2, r5, 1
		mkmsk r0, 1
	}
	{
		ldc r1, 0
		nop
	}
	.loc	2 549 2
	bl __ashldi3
.Ltmp319:
.LBB20_8:
	.loc	2 550 2
	xor r2, r1, r6
	xor r3, r0, r7
	{
		ldc r11, 0
		nop
	}
	.loc	2 550 2
	lsub r3, r0, r3, r0, r11
	lsub r2, r1, r2, r1, r3
	.loc	2 550 2
	std r1, r0, r4[0]
	{
		mkmsk r6, 1
		nop
	}
.Ltmp320:
.LBB20_9:
	.loc	2 552 1
	{
		mov r0, r6
		nop
	}
	ldd r7, r6, sp[3]
	ldd r5, r4, sp[2]
	{
		nop
		retsp 8
	}
	# RETURN_REG_HOLDER
.Ltmp321:
	.cc_bottom FLAC__bitreader_read_raw_int64.function
	.set	FLAC__bitreader_read_raw_int64.nstackwords,((__ashldi3.nstackwords $M FLAC__bitreader_read_raw_uint32.nstackwords) + 8)
	.globl	FLAC__bitreader_read_raw_int64.nstackwords
	.set	FLAC__bitreader_read_raw_int64.maxcores,FLAC__bitreader_read_raw_uint32.maxcores $M 1
	.globl	FLAC__bitreader_read_raw_int64.maxcores
	.set	FLAC__bitreader_read_raw_int64.maxtimers,FLAC__bitreader_read_raw_uint32.maxtimers $M 0
	.globl	FLAC__bitreader_read_raw_int64.maxtimers
	.set	FLAC__bitreader_read_raw_int64.maxchanends,FLAC__bitreader_read_raw_uint32.maxchanends $M 0
	.globl	FLAC__bitreader_read_raw_int64.maxchanends
.Ltmp322:
	.size	FLAC__bitreader_read_raw_int64, .Ltmp322-FLAC__bitreader_read_raw_int64
.Lfunc_end20:
	.cfi_endproc

	.globl	FLAC__bitreader_read_uint32_little_endian
	.align	4
	.type	FLAC__bitreader_read_uint32_little_endian,@function
	.cc_top FLAC__bitreader_read_uint32_little_endian.function,FLAC__bitreader_read_uint32_little_endian
FLAC__bitreader_read_uint32_little_endian:
.Lfunc_begin21:
	.loc	2 555 0
	.cfi_startproc
	.issue_mode dual
	{
		nop
		dualentsp 8
	}
.Ltmp323:
	.cfi_def_cfa_offset 32
.Ltmp324:
	.cfi_offset 15, 0
	std r5, r4, sp[2]
.Ltmp325:
	.cfi_offset 4, -16
.Ltmp326:
	.cfi_offset 5, -12
	std r7, r6, sp[3]
.Ltmp327:
	.cfi_offset 6, -8
.Ltmp328:
	.cfi_offset 7, -4
.Ltmp329:
	{
		mov r5, r1
		mov r6, r0
	}
.Ltmp330:
	{
		ldc r4, 0
		nop
	}
.Ltmp331:
	.loc	2 556 2 prologue_end
	{
		ldaw r1, sp[2]
		stw r4, sp[2]
	}
.Ltmp332:
	{
		ldc r2, 8
		nop
	}
	.loc	2 560 6
.Ltmp333:
	bl FLAC__bitreader_read_raw_uint32
	bf r0, .LBB21_5
.Ltmp334:
	{
		ldaw r1, sp[3]
		ldc r2, 8
	}
.Ltmp335:
	.loc	2 563 6
	{
		mov r0, r6
		nop
	}
	bl FLAC__bitreader_read_raw_uint32
	bf r0, .LBB21_5
.Ltmp336:
	{
		nop
		ldw r0, sp[3]
	}
	.loc	2 565 2
	{
		shl r0, r0, 8
		ldw r1, sp[2]
	}
	.loc	2 565 2
	{
		or r7, r1, r0
		nop
	}
.Ltmp337:
	.loc	2 565 2
	{
		ldaw r1, sp[3]
		stw r7, sp[2]
	}
.Ltmp338:
	{
		ldc r2, 8
		mov r0, r6
	}
	.loc	2 567 6
.Ltmp339:
	bl FLAC__bitreader_read_raw_uint32
	bf r0, .LBB21_5
.Ltmp340:
	{
		nop
		ldw r0, sp[3]
	}
	.loc	2 569 2
	{
		shl r0, r0, 16
		nop
	}
	.loc	2 569 2
	{
		or r7, r7, r0
		nop
	}
.Ltmp341:
	.loc	2 569 2
	{
		ldaw r1, sp[3]
		stw r7, sp[2]
	}
.Ltmp342:
	{
		ldc r2, 8
		mov r0, r6
	}
	.loc	2 571 6
.Ltmp343:
	bl FLAC__bitreader_read_raw_uint32
	bf r0, .LBB21_5
.Ltmp344:
	{
		nop
		ldw r0, sp[3]
	}
	.loc	2 573 2
	{
		shl r0, r0, 24
		nop
	}
	.loc	2 573 2
	{
		or r0, r7, r0
		nop
	}
.Ltmp345:
	{
		nop
		stw r0, sp[2]
	}
	.loc	2 575 2
	{
		mkmsk r4, 1
		stw r0, r5[0]
	}
.Ltmp346:
.LBB21_5:
	.loc	2 577 1
	{
		mov r0, r4
		nop
	}
	ldd r7, r6, sp[3]
	ldd r5, r4, sp[2]
	{
		nop
		retsp 8
	}
	# RETURN_REG_HOLDER
.Ltmp347:
	.cc_bottom FLAC__bitreader_read_uint32_little_endian.function
	.set	FLAC__bitreader_read_uint32_little_endian.nstackwords,(FLAC__bitreader_read_raw_uint32.nstackwords + 8)
	.globl	FLAC__bitreader_read_uint32_little_endian.nstackwords
	.set	FLAC__bitreader_read_uint32_little_endian.maxcores,FLAC__bitreader_read_raw_uint32.maxcores $M 1
	.globl	FLAC__bitreader_read_uint32_little_endian.maxcores
	.set	FLAC__bitreader_read_uint32_little_endian.maxtimers,FLAC__bitreader_read_raw_uint32.maxtimers $M 0
	.globl	FLAC__bitreader_read_uint32_little_endian.maxtimers
	.set	FLAC__bitreader_read_uint32_little_endian.maxchanends,FLAC__bitreader_read_raw_uint32.maxchanends $M 0
	.globl	FLAC__bitreader_read_uint32_little_endian.maxchanends
.Ltmp348:
	.size	FLAC__bitreader_read_uint32_little_endian, .Ltmp348-FLAC__bitreader_read_uint32_little_endian
.Lfunc_end21:
	.cfi_endproc

	.globl	FLAC__bitreader_skip_bits_no_crc
	.align	4
	.type	FLAC__bitreader_skip_bits_no_crc,@function
	.cc_top FLAC__bitreader_skip_bits_no_crc.function,FLAC__bitreader_skip_bits_no_crc
FLAC__bitreader_skip_bits_no_crc:
.Lfunc_begin22:
	.loc	2 580 0
	.cfi_startproc
	.issue_mode dual
	{
		nop
		dualentsp 6
	}
.Ltmp349:
	.cfi_def_cfa_offset 24
.Ltmp350:
	.cfi_offset 15, 0
	std r5, r4, sp[1]
.Ltmp351:
	.cfi_offset 4, -16
.Ltmp352:
	.cfi_offset 5, -12
.Ltmp353:
	.cfi_offset 6, -8
.Ltmp354:
	{
		mov r4, r1
		stw r6, sp[4]
	}
.Ltmp355:
	{
		mov r5, r0
		nop
	}
.Ltmp356:
	bf r4, .LBB22_14
.Ltmp357:
	{
		nop
		ldw r0, r5[5]
	}
	.loc	2 589 3 prologue_end
.Ltmp358:
	{
		zext r0, 3
		nop
	}
.Ltmp359:
	bf r0, .LBB22_7
.Ltmp360:
	{
		ldc r1, 8
		nop
	}
	.loc	2 594 4
.Ltmp361:
	{
		sub r0, r1, r0
		nop
	}
.Ltmp362:
	.loc	2 594 4
	{
		lsu r1, r4, r0
		mov r6, r4
	}
	bt r1, .LBB22_4
.Ltmp363:
	.loc	2 594 4
	{
		mov r6, r0
		nop
	}
.Ltmp364:
.LBB22_4:
	{
		ldaw r1, sp[1]
		mov r0, r5
	}
.Ltmp365:
	.loc	2 595 8
	{
		mov r2, r6
		nop
	}
	bl FLAC__bitreader_read_raw_uint32
	.loc	2 595 8
	bf r0, .LBB22_5
.Ltmp366:
	.loc	2 597 4
	{
		sub r4, r4, r6
		nop
	}
.Ltmp367:
.LBB22_7:
	.loc	2 599 3
	{
		shr r1, r4, 3
		nop
	}
.Ltmp368:
	bf r1, .LBB22_11
.Ltmp369:
	.loc	2 601 8
	{
		mov r0, r5
		nop
	}
	bl FLAC__bitreader_skip_byte_block_aligned_no_crc
.Ltmp370:
	.loc	2 601 8
	bf r0, .LBB22_9
.Ltmp371:
	.loc	2 603 4
	{
		zext r4, 3
		nop
	}
.Ltmp372:
.LBB22_11:
	bf r4, .LBB22_14
.Ltmp373:
	{
		ldaw r1, sp[1]
		mov r0, r5
	}
.Ltmp374:
	.loc	2 606 8
	{
		mov r2, r4
		nop
	}
	bl FLAC__bitreader_read_raw_uint32
	bf r0, .LBB22_13
.Ltmp375:
.LBB22_14:
	{
		mkmsk r0, 1
		nop
	}
	bu .LBB22_15
.LBB22_5:
	{
		ldc r0, 0
		nop
	}
	bu .LBB22_15
.LBB22_9:
	{
		ldc r0, 0
		nop
	}
	bu .LBB22_15
.LBB22_13:
	{
		ldc r0, 0
		nop
	}
.LBB22_15:
	{
		nop
		ldw r6, sp[4]
	}
	.loc	2 612 1
	ldd r5, r4, sp[1]
	{
		nop
		retsp 6
	}
	# RETURN_REG_HOLDER
.Ltmp376:
	.cc_bottom FLAC__bitreader_skip_bits_no_crc.function
	.set	FLAC__bitreader_skip_bits_no_crc.nstackwords,((FLAC__bitreader_skip_byte_block_aligned_no_crc.nstackwords $M FLAC__bitreader_read_raw_uint32.nstackwords) + 6)
	.globl	FLAC__bitreader_skip_bits_no_crc.nstackwords
	.set	FLAC__bitreader_skip_bits_no_crc.maxcores,FLAC__bitreader_read_raw_uint32.maxcores $M FLAC__bitreader_skip_byte_block_aligned_no_crc.maxcores $M 1
	.globl	FLAC__bitreader_skip_bits_no_crc.maxcores
	.set	FLAC__bitreader_skip_bits_no_crc.maxtimers,FLAC__bitreader_read_raw_uint32.maxtimers $M FLAC__bitreader_skip_byte_block_aligned_no_crc.maxtimers $M 0
	.globl	FLAC__bitreader_skip_bits_no_crc.maxtimers
	.set	FLAC__bitreader_skip_bits_no_crc.maxchanends,FLAC__bitreader_read_raw_uint32.maxchanends $M FLAC__bitreader_skip_byte_block_aligned_no_crc.maxchanends $M 0
	.globl	FLAC__bitreader_skip_bits_no_crc.maxchanends
.Ltmp377:
	.size	FLAC__bitreader_skip_bits_no_crc, .Ltmp377-FLAC__bitreader_skip_bits_no_crc
.Lfunc_end22:
	.cfi_endproc

	.globl	FLAC__bitreader_skip_byte_block_aligned_no_crc
	.align	4
	.type	FLAC__bitreader_skip_byte_block_aligned_no_crc,@function
	.cc_top FLAC__bitreader_skip_byte_block_aligned_no_crc.function,FLAC__bitreader_skip_byte_block_aligned_no_crc
FLAC__bitreader_skip_byte_block_aligned_no_crc:
.Lfunc_begin23:
	.loc	2 615 0
	.cfi_startproc
	.issue_mode dual
	{
		nop
		dualentsp 8
	}
.Ltmp378:
	.cfi_def_cfa_offset 32
.Ltmp379:
	.cfi_offset 15, 0
	std r5, r4, sp[1]
.Ltmp380:
	.cfi_offset 4, -24
.Ltmp381:
	.cfi_offset 5, -20
	std r7, r6, sp[2]
.Ltmp382:
	.cfi_offset 6, -16
.Ltmp383:
	.cfi_offset 7, -12
	std r9, r8, sp[3]
.Ltmp384:
	.cfi_offset 8, -8
.Ltmp385:
	.cfi_offset 9, -4
.Ltmp386:
	{
		mov r6, r1
		mov r5, r0
	}
.Ltmp387:
	{
		nop
		ldw r0, r5[9]
	}
	bf r0, .LBB23_3
.Ltmp388:
	.loc	2 622 5 prologue_end
	{
		mkmsk r0, 32
		ldw r1, r5[10]
	}
	.loc	2 622 5
	{
		eq r2, r1, r0
		nop
	}
	bt r2, .LBB23_3
.Ltmp389:
	{
		shl r2, r6, 3
		nop
	}
	{
		lsu r1, r1, r2
		nop
	}
	bf r1, .LBB23_3
.Ltmp390:
	.loc	2 624 4
	{
		ldc r4, 0
		stw r0, r5[10]
	}
	bu .LBB23_20
.Ltmp391:
.LBB23_3:
	{
		mkmsk r4, 1
		nop
	}
	bf r6, .LBB23_20
.Ltmp392:
	{
		ldaw r7, sp[1]
		ldc r8, 8
	}
	{
		ldc r9, 0
		nop
	}
.Ltmp393:
.LBB23_8:
	{
		nop
		ldw r0, r5[5]
	}
	bf r0, .LBB23_9
.Ltmp394:
	.loc	2 631 7
	{
		mov r0, r5
		mov r1, r7
	}
	{
		mov r2, r8
		nop
	}
	bl FLAC__bitreader_read_raw_uint32
	bf r0, .LBB23_19
.Ltmp395:
	.loc	2 633 3
	{
		sub r6, r6, 1
		nop
	}
.Ltmp396:
	bt r6, .LBB23_8
	bu .LBB23_20
.Ltmp397:
.LBB23_9:
	{
		ldc r7, 4
		nop
	}
	bu .LBB23_14
.Ltmp398:
.LBB23_13:
	{
		nop
		ldw r0, r5[10]
	}
	.loc	2 644 5
.Ltmp399:
	ldaw r0, r0[-8]
	{
		nop
		stw r0, r5[10]
	}
	bu .LBB23_14
.Ltmp400:
.LBB23_12:
	{
		add r0, r0, 1
		nop
	}
.Ltmp401:
	.loc	2 641 4
	{
		sub r6, r6, 4
		stw r0, r5[4]
	}
.Ltmp402:
	{
		nop
		ldw r0, r5[9]
	}
	bt r0, .LBB23_13
.Ltmp403:
.LBB23_14:
	{
		lsu r0, r6, r7
		nop
	}
	bt r0, .LBB23_10
.Ltmp404:
.LBB23_15:
	{
		nop
		ldw r0, r5[4]
	}
	{
		nop
		ldw r1, r5[2]
	}
	.loc	2 640 6
	{
		lsu r1, r0, r1
		nop
	}
	.loc	2 640 6
	bt r1, .LBB23_12
.Ltmp405:
	.loc	2 646 12
	{
		mov r0, r5
		nop
	}
	bl bitreader_read_from_client_
	bt r0, .LBB23_15
	bu .LBB23_19
.Ltmp406:
.LBB23_10:
	bf r6, .LBB23_20
.Ltmp407:
	{
		ldaw r7, sp[1]
		ldc r8, 8
	}
.Ltmp408:
.LBB23_18:
	.loc	2 651 7
	{
		mov r0, r5
		mov r1, r7
	}
	{
		mov r2, r8
		nop
	}
	bl FLAC__bitreader_read_raw_uint32
	.loc	2 651 7
	bf r0, .LBB23_19
.Ltmp409:
	.loc	2 653 3
	{
		sub r6, r6, 1
		nop
	}
.Ltmp410:
	bt r6, .LBB23_18
	bu .LBB23_20
.Ltmp411:
.LBB23_19:
	{
		mov r4, r9
		nop
	}
.LBB23_20:
	.loc	2 657 1
	{
		mov r0, r4
		nop
	}
	ldd r9, r8, sp[3]
	ldd r7, r6, sp[2]
	ldd r5, r4, sp[1]
	{
		nop
		retsp 8
	}
	# RETURN_REG_HOLDER
.Ltmp412:
	.cc_bottom FLAC__bitreader_skip_byte_block_aligned_no_crc.function
	.set	FLAC__bitreader_skip_byte_block_aligned_no_crc.nstackwords,((bitreader_read_from_client_.nstackwords $M FLAC__bitreader_read_raw_uint32.nstackwords) + 8)
	.globl	FLAC__bitreader_skip_byte_block_aligned_no_crc.nstackwords
	.set	FLAC__bitreader_skip_byte_block_aligned_no_crc.maxcores,FLAC__bitreader_read_raw_uint32.maxcores $M bitreader_read_from_client_.maxcores $M 1
	.globl	FLAC__bitreader_skip_byte_block_aligned_no_crc.maxcores
	.set	FLAC__bitreader_skip_byte_block_aligned_no_crc.maxtimers,FLAC__bitreader_read_raw_uint32.maxtimers $M bitreader_read_from_client_.maxtimers $M 0
	.globl	FLAC__bitreader_skip_byte_block_aligned_no_crc.maxtimers
	.set	FLAC__bitreader_skip_byte_block_aligned_no_crc.maxchanends,FLAC__bitreader_read_raw_uint32.maxchanends $M bitreader_read_from_client_.maxchanends $M 0
	.globl	FLAC__bitreader_skip_byte_block_aligned_no_crc.maxchanends
.Ltmp413:
	.size	FLAC__bitreader_skip_byte_block_aligned_no_crc, .Ltmp413-FLAC__bitreader_skip_byte_block_aligned_no_crc
.Lfunc_end23:
	.cfi_endproc

	.globl	FLAC__bitreader_read_byte_block_aligned_no_crc
	.align	4
	.type	FLAC__bitreader_read_byte_block_aligned_no_crc,@function
	.cc_top FLAC__bitreader_read_byte_block_aligned_no_crc.function,FLAC__bitreader_read_byte_block_aligned_no_crc
FLAC__bitreader_read_byte_block_aligned_no_crc:
.Lfunc_begin24:
	.loc	2 660 0
	.cfi_startproc
	.issue_mode dual
	{
		nop
		dualentsp 10
	}
.Ltmp414:
	.cfi_def_cfa_offset 40
.Ltmp415:
	.cfi_offset 15, 0
	std r5, r4, sp[1]
.Ltmp416:
	.cfi_offset 4, -32
.Ltmp417:
	.cfi_offset 5, -28
	std r7, r6, sp[2]
.Ltmp418:
	.cfi_offset 6, -24
.Ltmp419:
	.cfi_offset 7, -20
	std r9, r8, sp[3]
.Ltmp420:
	.cfi_offset 8, -16
.Ltmp421:
	.cfi_offset 9, -12
.Ltmp422:
	.cfi_offset 10, -8
.Ltmp423:
	{
		mov r5, r2
		stw r10, sp[8]
	}
.Ltmp424:
	{
		mov r7, r1
		mov r6, r0
	}
.Ltmp425:
	{
		nop
		ldw r0, r6[9]
	}
	bf r0, .LBB24_3
.Ltmp426:
	.loc	2 667 5 prologue_end
	{
		mkmsk r0, 32
		ldw r1, r6[10]
	}
	.loc	2 667 5
	{
		eq r2, r1, r0
		nop
	}
	bt r2, .LBB24_3
.Ltmp427:
	{
		shl r2, r5, 3
		nop
	}
	{
		lsu r1, r1, r2
		nop
	}
	bf r1, .LBB24_3
.Ltmp428:
	.loc	2 669 4
	{
		ldc r4, 0
		stw r0, r6[10]
	}
	bu .LBB24_21
.Ltmp429:
.LBB24_3:
	{
		mkmsk r4, 1
		nop
	}
	bf r5, .LBB24_21
.Ltmp430:
	{
		ldaw r8, sp[1]
		ldc r9, 8
	}
	{
		ldc r10, 0
		nop
	}
.Ltmp431:
.LBB24_5:
	{
		nop
		ldw r0, r6[5]
	}
	bf r0, .LBB24_6
.Ltmp432:
	.loc	2 676 7
	{
		mov r0, r6
		mov r1, r8
	}
	{
		mov r2, r9
		nop
	}
	bl FLAC__bitreader_read_raw_uint32
	.loc	2 676 7
	bf r0, .LBB24_8
.Ltmp433:
	.loc	2 678 3
	{
		add r1, r7, 1
		ldw r0, sp[1]
	}
.Ltmp434:
	.loc	2 678 3
	st8 r0, r7[r10]
.Ltmp435:
	.loc	2 679 3
	{
		sub r5, r5, 1
		mov r7, r1
	}
.Ltmp436:
	bt r5, .LBB24_5
	bu .LBB24_21
.Ltmp437:
.LBB24_6:
	{
		ldc r9, 4
		ldc r8, 0
	}
	{
		mkmsk r4, 1
		mkmsk r10, 2
	}
	bu .LBB24_16
.Ltmp438:
.LBB24_8:
	{
		mov r4, r10
		nop
	}
	bu .LBB24_21
.LBB24_15:
.Ltmp439:
	{
		nop
		ldw r0, r6[10]
	}
	.loc	2 708 5
.Ltmp440:
	ldaw r0, r0[-8]
	{
		nop
		stw r0, r6[10]
	}
	bu .LBB24_16
.Ltmp441:
.LBB24_14:
	.loc	2 686 4
	{
		add r1, r0, 1
		nop
	}
	{
		nop
		stw r1, r6[4]
	}
	{
		nop
		ldw r1, r6[0]
	}
	{
		nop
		ldw r0, r1[r0]
	}
.Ltmp442:
	.loc	2 688 4
	{
		shr r1, r0, 24
		nop
	}
	.loc	2 688 4
	st8 r1, r7[r8]
	.loc	2 689 4
	{
		shr r1, r0, 16
		nop
	}
	.loc	2 689 4
	st8 r1, r7[r4]
	.loc	2 690 4
	{
		shr r1, r0, 8
		ldc r2, 2
	}
	.loc	2 690 4
	st8 r1, r7[r2]
	.loc	2 691 4
	st8 r0, r7[r10]
.Ltmp443:
	.loc	2 705 4
	{
		add r7, r7, 4
		sub r5, r5, 4
	}
.Ltmp444:
	{
		nop
		ldw r0, r6[9]
	}
.Ltmp445:
	bt r0, .LBB24_15
.Ltmp446:
.LBB24_16:
	{
		lsu r0, r5, r9
		nop
	}
	bt r0, .LBB24_10
.Ltmp447:
.LBB24_17:
	{
		nop
		ldw r0, r6[4]
	}
	{
		nop
		ldw r1, r6[2]
	}
	.loc	2 685 6
	{
		lsu r1, r0, r1
		nop
	}
	.loc	2 685 6
	bt r1, .LBB24_14
.Ltmp448:
	.loc	2 710 12
	{
		mov r0, r6
		nop
	}
	bl bitreader_read_from_client_
	bt r0, .LBB24_17
.Ltmp449:
	{
		mov r4, r8
		nop
	}
.LBB24_21:
	.loc	2 722 1
	{
		mov r0, r4
		ldw r10, sp[8]
	}
	ldd r9, r8, sp[3]
	ldd r7, r6, sp[2]
	ldd r5, r4, sp[1]
	{
		nop
		retsp 10
	}
	# RETURN_REG_HOLDER
.LBB24_10:
.Ltmp450:
	bf r5, .LBB24_21
.Ltmp451:
	{
		ldaw r8, sp[1]
		ldc r9, 8
	}
	{
		ldc r10, 0
		nop
	}
.Ltmp452:
.LBB24_12:
	.loc	2 715 7
	{
		mov r0, r6
		mov r1, r8
	}
	{
		mov r2, r9
		nop
	}
	bl FLAC__bitreader_read_raw_uint32
	bf r0, .LBB24_13
.Ltmp453:
	.loc	2 717 3
	{
		add r1, r7, 1
		ldw r0, sp[1]
	}
.Ltmp454:
	.loc	2 717 3
	st8 r0, r7[r10]
.Ltmp455:
	.loc	2 718 3
	{
		sub r5, r5, 1
		mov r7, r1
	}
.Ltmp456:
	bt r5, .LBB24_12
	bu .LBB24_21
.Ltmp457:
.LBB24_13:
	{
		mov r4, r10
		nop
	}
	bu .LBB24_21
	.cc_bottom FLAC__bitreader_read_byte_block_aligned_no_crc.function
	.set	FLAC__bitreader_read_byte_block_aligned_no_crc.nstackwords,((bitreader_read_from_client_.nstackwords $M FLAC__bitreader_read_raw_uint32.nstackwords) + 10)
	.globl	FLAC__bitreader_read_byte_block_aligned_no_crc.nstackwords
	.set	FLAC__bitreader_read_byte_block_aligned_no_crc.maxcores,FLAC__bitreader_read_raw_uint32.maxcores $M bitreader_read_from_client_.maxcores $M 1
	.globl	FLAC__bitreader_read_byte_block_aligned_no_crc.maxcores
	.set	FLAC__bitreader_read_byte_block_aligned_no_crc.maxtimers,FLAC__bitreader_read_raw_uint32.maxtimers $M bitreader_read_from_client_.maxtimers $M 0
	.globl	FLAC__bitreader_read_byte_block_aligned_no_crc.maxtimers
	.set	FLAC__bitreader_read_byte_block_aligned_no_crc.maxchanends,FLAC__bitreader_read_raw_uint32.maxchanends $M bitreader_read_from_client_.maxchanends $M 0
	.globl	FLAC__bitreader_read_byte_block_aligned_no_crc.maxchanends
.Ltmp458:
	.size	FLAC__bitreader_read_byte_block_aligned_no_crc, .Ltmp458-FLAC__bitreader_read_byte_block_aligned_no_crc
.Lfunc_end24:
	.cfi_endproc

	.globl	FLAC__bitreader_read_unary_unsigned
	.align	4
	.type	FLAC__bitreader_read_unary_unsigned,@function
	.cc_top FLAC__bitreader_read_unary_unsigned.function,FLAC__bitreader_read_unary_unsigned
FLAC__bitreader_read_unary_unsigned:
.Lfunc_begin25:
	.loc	2 744 0
	.cfi_startproc
	.issue_mode dual
	{
		nop
		dualentsp 8
	}
.Ltmp459:
	.cfi_def_cfa_offset 32
.Ltmp460:
	.cfi_offset 15, 0
	std r5, r4, sp[1]
.Ltmp461:
	.cfi_offset 4, -24
.Ltmp462:
	.cfi_offset 5, -20
	std r7, r6, sp[2]
.Ltmp463:
	.cfi_offset 6, -16
.Ltmp464:
	.cfi_offset 7, -12
.Ltmp465:
	.cfi_offset 8, -8
.Ltmp466:
	{
		mov r6, r1
		stw r8, sp[6]
	}
.Ltmp467:
	{
		mov r4, r0
		ldc r5, 0
	}
.Ltmp468:
	.loc	2 750 2 prologue_end
	{
		ldc r7, 32
		stw r5, r6[0]
	}
	{
		mkmsk r8, 32
		nop
	}
	bu .LBB25_1
.LBB25_6:
.Ltmp469:
	.loc	2 766 5
	{
		sub r0, r7, r1
		ldw r1, r6[0]
	}
	.loc	2 766 5
	{
		add r0, r0, r1
		nop
	}
	{
		nop
		stw r0, r6[0]
	}
	{
		nop
		ldw r0, r4[4]
	}
	.loc	2 767 5
	{
		add r0, r0, 1
		nop
	}
	{
		nop
		stw r0, r4[4]
	}
	{
		nop
		stw r5, r4[5]
	}
.Ltmp470:
.LBB25_1:
	{
		nop
		ldw r0, r4[4]
	}
	{
		nop
		ldw r1, r4[2]
	}
	.loc	2 752 3
	{
		lsu r1, r0, r1
		nop
	}
	bf r1, .LBB25_7
.Ltmp471:
	{
		nop
		ldw r1, r4[5]
	}
	.loc	2 753 4
.Ltmp472:
	{
		shr r2, r1, 5
		nop
	}
	bt r2, .LBB25_6
.Ltmp473:
	{
		nop
		ldw r2, r4[0]
	}
	{
		nop
		ldw r0, r2[r0]
	}
	.loc	2 753 4
	{
		shl r0, r0, r1
		nop
	}
	bf r0, .LBB25_6
	bu .LBB25_4
.Ltmp474:
.LBB25_7:
	{
		nop
		ldw r1, r4[3]
	}
.Ltmp475:
	.loc	2 779 6
	{
		shl r1, r1, 3
		ldw r2, r4[5]
	}
.Ltmp476:
	.loc	2 779 6
	{
		lsu r3, r2, r1
		nop
	}
	bf r3, .LBB25_11
.Ltmp477:
	{
		nop
		ldw r3, r4[0]
	}
	.loc	2 781 4
.Ltmp478:
	{
		sub r3, r7, r1
		ldw r0, r3[r0]
	}
	.loc	2 781 4
	{
		shl r3, r8, r3
		nop
	}
	.loc	2 781 4
	{
		and r0, r0, r3
		nop
	}
	.loc	2 781 4
	{
		shl r0, r0, r2
		nop
	}
	.loc	2 782 7
.Ltmp479:
	bt r0, .LBB25_9
.Ltmp480:
	.loc	2 791 5
	{
		sub r0, r1, r2
		ldw r2, r6[0]
	}
	.loc	2 791 5
	{
		add r0, r0, r2
		nop
	}
	{
		nop
		stw r0, r6[0]
	}
	{
		nop
		stw r1, r4[5]
	}
.Ltmp481:
.LBB25_11:
	.loc	2 797 7
	{
		mov r0, r4
		nop
	}
	bl bitreader_read_from_client_
	bt r0, .LBB25_1
	bu .LBB25_12
.Ltmp482:
.LBB25_4:
	.file	6 "C:/MEGA/HobbyElec/SSDAC/xSSDAC/xTIME/WORKSPACE/module_libFLAC/source/private\\bitmath.h"
	.loc	6 84 9
	{
		clz r0, r0
		ldw r1, r6[0]
	}
.Ltmp483:
	.loc	2 756 5
	{
		add r1, r1, r0
		nop
	}
	{
		nop
		stw r1, r6[0]
	}
	{
		nop
		ldw r1, r4[5]
	}
	.loc	2 757 5
	{
		add r0, r0, r1
		nop
	}
	.loc	2 758 5
	{
		add r0, r0, 1
		nop
	}
	.loc	2 758 5
	{
		mkmsk r5, 1
		stw r0, r4[5]
	}
	.loc	2 759 8
.Ltmp484:
	{
		shr r0, r0, 5
		nop
	}
	bf r0, .LBB25_12
.Ltmp485:
	{
		nop
		ldw r0, r4[4]
	}
	.loc	2 760 6
.Ltmp486:
	{
		add r0, r0, 1
		nop
	}
	.loc	2 760 6
	{
		ldc r0, 0
		stw r0, r4[4]
	}
	{
		nop
		stw r0, r4[5]
	}
	bu .LBB25_12
.Ltmp487:
.LBB25_9:
	.loc	6 84 9
	{
		clz r0, r0
		ldw r1, r6[0]
	}
.Ltmp488:
	.loc	2 784 5
	{
		add r1, r1, r0
		nop
	}
	{
		nop
		stw r1, r6[0]
	}
	{
		nop
		ldw r1, r4[5]
	}
	.loc	2 785 5
	{
		add r0, r0, r1
		nop
	}
	.loc	2 786 5
	{
		add r0, r0, 1
		nop
	}
	.loc	2 786 5
	{
		mkmsk r5, 1
		stw r0, r4[5]
	}
.Ltmp489:
.LBB25_12:
	.loc	2 800 1
	{
		mov r0, r5
		ldw r8, sp[6]
	}
	ldd r7, r6, sp[2]
	ldd r5, r4, sp[1]
	{
		nop
		retsp 8
	}
	# RETURN_REG_HOLDER
.Ltmp490:
	.cc_bottom FLAC__bitreader_read_unary_unsigned.function
	.set	FLAC__bitreader_read_unary_unsigned.nstackwords,(bitreader_read_from_client_.nstackwords + 8)
	.globl	FLAC__bitreader_read_unary_unsigned.nstackwords
	.set	FLAC__bitreader_read_unary_unsigned.maxcores,bitreader_read_from_client_.maxcores $M 1
	.globl	FLAC__bitreader_read_unary_unsigned.maxcores
	.set	FLAC__bitreader_read_unary_unsigned.maxtimers,bitreader_read_from_client_.maxtimers $M 0
	.globl	FLAC__bitreader_read_unary_unsigned.maxtimers
	.set	FLAC__bitreader_read_unary_unsigned.maxchanends,bitreader_read_from_client_.maxchanends $M 0
	.globl	FLAC__bitreader_read_unary_unsigned.maxchanends
.Ltmp491:
	.size	FLAC__bitreader_read_unary_unsigned, .Ltmp491-FLAC__bitreader_read_unary_unsigned
.Lfunc_end25:
	.cfi_endproc

	.globl	FLAC__bitreader_read_rice_signed_block
	.align	4
	.type	FLAC__bitreader_read_rice_signed_block,@function
	.cc_top FLAC__bitreader_read_rice_signed_block.function,FLAC__bitreader_read_rice_signed_block
FLAC__bitreader_read_rice_signed_block:
.Lfunc_begin26:
	.loc	2 834 0
	.cfi_startproc
	.issue_mode dual
	{
		nop
		dualentsp 14
	}
.Ltmp492:
	.cfi_def_cfa_offset 56
.Ltmp493:
	.cfi_offset 15, 0
	std r5, r4, sp[3]
.Ltmp494:
	.cfi_offset 4, -32
.Ltmp495:
	.cfi_offset 5, -28
	std r7, r6, sp[4]
.Ltmp496:
	.cfi_offset 6, -24
.Ltmp497:
	.cfi_offset 7, -20
	std r9, r8, sp[5]
.Ltmp498:
	.cfi_offset 8, -16
.Ltmp499:
	.cfi_offset 9, -12
.Ltmp500:
	.cfi_offset 10, -8
.Ltmp501:
	{
		mov r7, r3
		stw r10, sp[12]
	}
.Ltmp502:
	{
		mov r6, r1
		mov r4, r0
	}
.Ltmp503:
	.loc	2 853 2 prologue_end
	ldaw r8, r6[r2]
.Ltmp504:
	.loc	2 855 5
	bf r7, .LBB26_1
.Ltmp505:
	{
		mkmsk r0, 32
		nop
	}
	.loc	2 850 2
	{
		shr r0, r0, r7
		nop
	}
.Ltmp506:
	{
		nop
		stw r0, sp[3]
	}
	{
		nop
		ldw r0, r4[4]
	}
.Ltmp507:
	.loc	2 871 2
	{
		ldc r3, 0
		ldw r1, r4[2]
	}
.Ltmp508:
	.loc	2 874 5
	{
		lsu r2, r0, r1
		nop
	}
	bf r2, .LBB26_7
.Ltmp509:
	{
		nop
		ldw r3, r4[5]
	}
	{
		nop
		ldw r2, r4[0]
	}
	{
		nop
		ldw r2, r2[r0]
	}
	.loc	2 880 2
	{
		shl r10, r2, r3
		nop
	}
.Ltmp510:
.LBB26_9:
	{
		ldc r2, 32
		nop
	}
	.loc	2 879 2
	{
		sub r3, r2, r3
		lsu r11, r6, r8
	}
	bf r11, .LBB26_29
.Ltmp511:
	.loc	2 906 3
	{
		sub r11, r2, r7
		nop
	}
.Ltmp512:
.LBB26_11:
	.loc	6 123 6
	bf r10, .LBB26_12
.Ltmp513:
	.loc	6 84 9
	{
		clz r9, r10
		nop
	}
.Ltmp514:
	{
		mov r5, r9
		nop
	}
	bu .LBB26_22
.Ltmp515:
.LBB26_12:
	.loc	2 889 5
	{
		add r0, r0, 1
		nop
	}
	.loc	2 890 9
.Ltmp516:
	{
		lsu r5, r0, r1
		nop
	}
	bf r5, .LBB26_13
.Ltmp517:
	.loc	2 892 5
	{
		mov r9, r3
		ldw r5, r4[0]
	}
.Ltmp518:
.LBB26_20:
	{
		nop
		ldw r10, r5[r0]
	}
	.loc	6 123 6
.Ltmp519:
	bt r10, .LBB26_21
.Ltmp520:
	.loc	2 894 5
	ldaw r9, r9[8]
	.loc	2 889 5
	{
		add r0, r0, 1
		nop
	}
	.loc	2 890 9
.Ltmp521:
	{
		lsu r10, r0, r1
		nop
	}
.Ltmp522:
	bt r10, .LBB26_20
	bu .LBB26_14
.Ltmp523:
.LBB26_21:
	.loc	6 84 9
	{
		clz r5, r10
		nop
	}
.Ltmp524:
	.loc	2 894 5
	{
		add r9, r5, r9
		nop
	}
.Ltmp525:
.LBB26_22:
	{
		nop
		stw r9, sp[4]
	}
	{
		nop
		ldw r2, sp[3]
	}
	.loc	2 902 6
.Ltmp526:
	{
		lsu r2, r2, r9
		nop
	}
	.loc	2 902 6
	bt r2, .LBB26_23
.Ltmp527:
	.loc	2 897 3
	{
		shl r2, r10, r5
		nop
	}
.Ltmp528:
	.loc	2 898 3
	{
		shl r10, r2, 1
		mkmsk r2, 5
	}
.Ltmp529:
	.loc	2 899 3
	{
		add r2, r3, r2
		nop
	}
	.loc	2 899 3
	{
		sub r3, r2, r9
		nop
	}
	.loc	2 899 3
	{
		zext r3, 5
		shr r5, r10, r11
	}
	.loc	2 907 6
.Ltmp530:
	{
		lsu r2, r3, r7
		nop
	}
	.loc	2 907 6
	bf r2, .LBB26_25
.Ltmp531:
	.loc	2 912 4
	{
		add r0, r0, 1
		nop
	}
	.loc	2 913 8
.Ltmp532:
	{
		lsu r2, r0, r1
		nop
	}
	bf r2, .LBB26_32
.Ltmp533:
	{
		nop
		ldw r2, r4[0]
	}
.Ltmp534:
	.loc	2 915 4
	{
		add r3, r3, r11
		ldw r2, r2[r0]
	}
.Ltmp535:
	.loc	2 917 4
	{
		shr r10, r2, r3
		nop
	}
.Ltmp536:
	.loc	2 917 4
	{
		or r5, r10, r5
		ldc r10, 32
	}
.Ltmp537:
	.loc	2 918 4
	{
		sub r10, r10, r3
		nop
	}
	.loc	2 918 4
	{
		shl r10, r2, r10
		nop
	}
.Ltmp538:
	bu .LBB26_28
.Ltmp539:
.LBB26_25:
	.loc	2 908 4
	{
		sub r3, r3, r7
		shl r10, r10, r7
	}
.Ltmp540:
.LBB26_28:
	.loc	2 920 3
	{
		shl r2, r9, r7
		stw r5, sp[5]
	}
	.loc	2 923 3
	{
		or r2, r2, r5
		nop
	}
.Ltmp541:
	.loc	2 924 3
	{
		shr r5, r2, 1
		zext r2, 1
	}
.Ltmp542:
	.loc	2 924 3
	{
		neg r2, r2
		nop
	}
	.loc	2 924 3
	xor r2, r5, r2
.Ltmp543:
	.loc	2 924 3
	{
		add r5, r6, 4
		stw r2, r6[0]
	}
.Ltmp544:
	.loc	2 882 2
	{
		lsu r2, r5, r8
		mov r6, r5
	}
.Ltmp545:
	bt r2, .LBB26_11
.Ltmp546:
.LBB26_29:
	.loc	2 966 5
	{
		eq r2, r3, 0
		lsu r1, r0, r1
	}
	.loc	2 966 5
	{
		and r1, r2, r1
		nop
	}
.Ltmp547:
	.loc	2 966 5
	{
		add r0, r1, r0
		nop
	}
	bt r1, .LBB26_30
.Ltmp548:
	{
		ldc r1, 32
		nop
	}
	.loc	2 972 2
	{
		sub r1, r1, r3
		nop
	}
	bu .LBB26_40
.Ltmp549:
.LBB26_1:
	{
		mkmsk r9, 1
		nop
	}
	.loc	2 856 3
.Ltmp550:
	{
		lss r0, r2, r9
		nop
	}
	bt r0, .LBB26_41
.Ltmp551:
	{
		ldaw r7, sp[4]
		ldc r5, 0
	}
.Ltmp552:
.LBB26_3:
	.loc	2 858 8
	{
		mov r0, r4
		mov r1, r7
	}
	bl FLAC__bitreader_read_unary_unsigned
	.loc	2 858 8
	bf r0, .LBB26_4
.Ltmp553:
	{
		nop
		ldw r0, sp[4]
	}
	.loc	2 862 4
	{
		shr r1, r0, 1
		zext r0, 1
	}
	.loc	2 862 4
	{
		neg r0, r0
		nop
	}
	.loc	2 862 4
	xor r0, r1, r0
.Ltmp554:
	.loc	2 862 4
	{
		add r1, r6, 4
		stw r0, r6[0]
	}
.Ltmp555:
	.loc	2 856 3
	{
		lsu r0, r1, r8
		mov r6, r1
	}
.Ltmp556:
	bt r0, .LBB26_3
	bu .LBB26_41
.Ltmp557:
.LBB26_7:
	{
		mov r9, r3
		nop
	}
	bu .LBB26_15
.Ltmp558:
.LBB26_30:
	{
		ldc r1, 0
		nop
	}
.Ltmp559:
.LBB26_40:
	{
		nop
		stw r1, r4[5]
	}
	.loc	2 973 2
	{
		mkmsk r9, 1
		stw r0, r4[4]
	}
	bu .LBB26_41
.Ltmp560:
.LBB26_4:
	{
		mov r9, r5
		nop
	}
	bu .LBB26_41
.LBB26_23:
	{
		ldc r9, 0
		nop
	}
	bu .LBB26_41
.LBB26_13:
.Ltmp561:
	{
		mov r9, r3
		nop
	}
.Ltmp562:
.LBB26_14:
	{
		ldc r1, 0
		nop
	}
	{
		nop
		stw r1, r4[5]
	}
	{
		nop
		stw r0, r4[4]
	}
	bu .LBB26_15
.Ltmp563:
.LBB26_32:
	{
		ldc r1, 0
		nop
	}
	{
		nop
		stw r1, r4[5]
	}
	{
		nop
		stw r0, r4[4]
	}
	bu .LBB26_33
.Ltmp564:
.LBB26_15:
	{
		ldaw r1, sp[4]
		mov r0, r4
	}
.Ltmp565:
	.loc	2 938 8
	bl FLAC__bitreader_read_unary_unsigned
	bf r0, .LBB26_16
.Ltmp566:
	{
		nop
		ldw r0, sp[4]
	}
	.loc	2 940 4
	{
		add r9, r0, r9
		nop
	}
.Ltmp567:
	.loc	2 940 4
	{
		ldc r5, 0
		stw r9, sp[4]
	}
	{
		mov r3, r5
		nop
	}
.Ltmp568:
.LBB26_33:
	.loc	2 950 8
	{
		sub r2, r7, r3
		ldaw r1, sp[5]
	}
.Ltmp569:
	.loc	2 950 8
	{
		mov r0, r4
		nop
	}
	bl FLAC__bitreader_read_raw_uint32
	.loc	2 950 8
	bf r0, .LBB26_34
.Ltmp570:
	{
		nop
		ldw r0, sp[5]
	}
	.loc	2 952 4
	{
		or r0, r0, r5
		nop
	}
.Ltmp571:
	.loc	2 952 4
	{
		shl r1, r9, r7
		stw r0, sp[5]
	}
	.loc	2 955 4
	{
		or r0, r1, r0
		nop
	}
.Ltmp572:
	.loc	2 956 4
	{
		shr r1, r0, 1
		zext r0, 1
	}
.Ltmp573:
	.loc	2 956 4
	{
		neg r0, r0
		nop
	}
	.loc	2 956 4
	xor r0, r1, r0
.Ltmp574:
	{
		nop
		stw r0, r6[0]
	}
	{
		nop
		ldw r0, r4[4]
	}
.Ltmp575:
	{
		nop
		ldw r1, r4[2]
	}
.Ltmp576:
	{
		nop
		ldw r3, r4[5]
	}
	.loc	2 962 4
	{
		ldc r9, 0
		ldw r2, r4[1]
	}
	.loc	2 962 4
	{
		lsu r2, r0, r2
		mov r10, r9
	}
	bf r2, .LBB26_37
.Ltmp577:
	{
		nop
		ldw r2, r4[0]
	}
	{
		nop
		ldw r2, r2[r0]
	}
	.loc	2 962 4
	{
		shl r10, r2, r3
		nop
	}
.Ltmp578:
.LBB26_37:
	.loc	2 956 4
	{
		add r6, r6, 4
		lsu r2, r0, r1
	}
.Ltmp579:
	bt r2, .LBB26_9
.Ltmp580:
	{
		lsu r2, r6, r8
		nop
	}
	bt r2, .LBB26_15
	bu .LBB26_9
.Ltmp581:
.LBB26_16:
	{
		ldc r9, 0
		nop
	}
	bu .LBB26_41
.LBB26_34:
	{
		ldc r9, 0
		nop
	}
.LBB26_41:
	.loc	2 976 1
	{
		mov r0, r9
		ldw r10, sp[12]
	}
	ldd r9, r8, sp[5]
	ldd r7, r6, sp[4]
	ldd r5, r4, sp[3]
	{
		nop
		retsp 14
	}
	# RETURN_REG_HOLDER
.Ltmp582:
	.cc_bottom FLAC__bitreader_read_rice_signed_block.function
	.set	FLAC__bitreader_read_rice_signed_block.nstackwords,((FLAC__bitreader_read_unary_unsigned.nstackwords $M FLAC__bitreader_read_raw_uint32.nstackwords) + 14)
	.globl	FLAC__bitreader_read_rice_signed_block.nstackwords
	.set	FLAC__bitreader_read_rice_signed_block.maxcores,FLAC__bitreader_read_raw_uint32.maxcores $M FLAC__bitreader_read_unary_unsigned.maxcores $M 1
	.globl	FLAC__bitreader_read_rice_signed_block.maxcores
	.set	FLAC__bitreader_read_rice_signed_block.maxtimers,FLAC__bitreader_read_raw_uint32.maxtimers $M FLAC__bitreader_read_unary_unsigned.maxtimers $M 0
	.globl	FLAC__bitreader_read_rice_signed_block.maxtimers
	.set	FLAC__bitreader_read_rice_signed_block.maxchanends,FLAC__bitreader_read_raw_uint32.maxchanends $M FLAC__bitreader_read_unary_unsigned.maxchanends $M 0
	.globl	FLAC__bitreader_read_rice_signed_block.maxchanends
.Ltmp583:
	.size	FLAC__bitreader_read_rice_signed_block, .Ltmp583-FLAC__bitreader_read_rice_signed_block
.Lfunc_end26:
	.cfi_endproc

	.globl	FLAC__bitreader_read_utf8_uint32
	.align	4
	.type	FLAC__bitreader_read_utf8_uint32,@function
	.cc_top FLAC__bitreader_read_utf8_uint32.function,FLAC__bitreader_read_utf8_uint32
FLAC__bitreader_read_utf8_uint32:
.Lfunc_begin27:
	.loc	2 1064 0
	.cfi_startproc
	.issue_mode dual
	{
		nop
		dualentsp 12
	}
.Ltmp584:
	.cfi_def_cfa_offset 48
.Ltmp585:
	.cfi_offset 15, 0
	std r5, r4, sp[2]
.Ltmp586:
	.cfi_offset 4, -32
.Ltmp587:
	.cfi_offset 5, -28
	std r7, r6, sp[3]
.Ltmp588:
	.cfi_offset 6, -24
.Ltmp589:
	.cfi_offset 7, -20
	std r9, r8, sp[4]
.Ltmp590:
	.cfi_offset 8, -16
.Ltmp591:
	.cfi_offset 9, -12
.Ltmp592:
	.cfi_offset 10, -8
.Ltmp593:
	{
		mov r7, r3
		stw r10, sp[10]
	}
.Ltmp594:
	{
		mov r8, r2
		mov r4, r1
	}
.Ltmp595:
	{
		mov r6, r0
		ldaw r1, sp[3]
	}
.Ltmp596:
	{
		ldc r5, 8
		nop
	}
	.loc	2 1069 6 prologue_end
.Ltmp597:
	{
		mov r2, r5
		nop
	}
	bl FLAC__bitreader_read_raw_uint32
	{
		ldc r1, 0
		nop
	}
	bf r0, .LBB27_32
.Ltmp598:
	{
		nop
		stw r4, sp[2]
	}
.Ltmp599:
	{
		nop
		ldw r4, sp[3]
	}
	bf r8, .LBB27_3
.Ltmp600:
	{
		nop
		ldw r0, r7[0]
	}
	.loc	2 1072 3
.Ltmp601:
	{
		add r1, r0, 1
		nop
	}
	{
		nop
		stw r1, r7[0]
	}
	.loc	2 1072 3
	st8 r4, r8[r0]
.Ltmp602:
.LBB27_3:
	ldc r9, 128
	.loc	2 1073 5
.Ltmp603:
	{
		and r0, r4, r9
		nop
	}
	bf r0, .LBB27_30
.Ltmp604:
	ldc r10, 192
	.loc	2 1077 10
.Ltmp605:
	{
		and r0, r4, r10
		nop
	}
	bf r0, .LBB27_15
.Ltmp606:
	{
		ldc r0, 32
		nop
	}
	{
		and r0, r4, r0
		nop
	}
	bt r0, .LBB27_15
.Ltmp607:
	.loc	2 1078 3
	{
		zext r4, 5
		mkmsk r5, 1
	}
.Ltmp608:
	bu .LBB27_7
.Ltmp609:
.LBB27_15:
	ldc r0, 224
	.loc	2 1081 10
.Ltmp610:
	{
		and r0, r4, r0
		nop
	}
	bf r0, .LBB27_18
.Ltmp611:
	{
		ldc r0, 16
		nop
	}
	{
		and r0, r4, r0
		nop
	}
	bt r0, .LBB27_18
.Ltmp612:
	.loc	2 1082 3
	{
		zext r4, 4
		ldc r5, 2
	}
.Ltmp613:
	bu .LBB27_7
.Ltmp614:
.LBB27_18:
	ldc r0, 240
	.loc	2 1085 10
.Ltmp615:
	{
		and r0, r4, r0
		nop
	}
	bf r0, .LBB27_21
.Ltmp616:
	{
		and r0, r4, r5
		nop
	}
	bt r0, .LBB27_21
.Ltmp617:
	.loc	2 1086 3
	{
		zext r4, 3
		mkmsk r5, 2
	}
.Ltmp618:
	bu .LBB27_7
.Ltmp619:
.LBB27_21:
	ldc r0, 248
	.loc	2 1089 10
.Ltmp620:
	{
		and r0, r4, r0
		nop
	}
	bf r0, .LBB27_24
.Ltmp621:
	{
		ldc r5, 4
		nop
	}
	{
		and r0, r4, r5
		nop
	}
	bt r0, .LBB27_24
.Ltmp622:
	.loc	2 1090 3
	{
		zext r4, 2
		nop
	}
.Ltmp623:
	bu .LBB27_7
.Ltmp624:
.LBB27_24:
	ldc r0, 252
	.loc	2 1093 10
.Ltmp625:
	{
		and r0, r4, r0
		nop
	}
	bf r0, .LBB27_28
.Ltmp626:
	{
		ldc r0, 2
		nop
	}
	{
		and r0, r4, r0
		nop
	}
	bt r0, .LBB27_28
.Ltmp627:
	.loc	2 1094 3
	{
		zext r4, 1
		ldc r5, 5
	}
.Ltmp628:
.LBB27_7:
	bf r8, .LBB27_8
.Ltmp629:
.LBB27_11:
	.loc	2 1102 7
	{
		mov r0, r6
		ldaw r1, sp[3]
	}
	{
		ldc r2, 8
		nop
	}
	bl FLAC__bitreader_read_raw_uint32
	.loc	2 1102 7
	bf r0, .LBB27_12
.Ltmp630:
	{
		nop
		ldw r0, sp[3]
	}
	{
		nop
		ldw r1, r7[0]
	}
	.loc	2 1105 4
.Ltmp631:
	{
		add r2, r1, 1
		nop
	}
	{
		nop
		stw r2, r7[0]
	}
	.loc	2 1105 4
	st8 r0, r8[r1]
.Ltmp632:
	.loc	2 1106 6
	{
		and r1, r0, r10
		nop
	}
	.loc	2 1106 6
	{
		eq r1, r1, r9
		nop
	}
	bf r1, .LBB27_28
.Ltmp633:
	.loc	2 1110 3
	{
		shl r1, r4, 6
		zext r0, 6
	}
.Ltmp634:
	.loc	2 1111 3
	{
		or r4, r0, r1
		sub r5, r5, 1
	}
.Ltmp635:
	bt r5, .LBB27_11
	bu .LBB27_30
.Ltmp636:
.LBB27_8:
	{
		ldaw r7, sp[3]
		ldc r8, 8
	}
.Ltmp637:
.LBB27_9:
	.loc	2 1102 7
	{
		mov r0, r6
		mov r1, r7
	}
	{
		mov r2, r8
		nop
	}
	bl FLAC__bitreader_read_raw_uint32
	bf r0, .LBB27_10
.Ltmp638:
	{
		nop
		ldw r0, sp[3]
	}
	.loc	2 1106 6
.Ltmp639:
	{
		and r1, r0, r10
		nop
	}
	.loc	2 1106 6
	{
		eq r1, r1, r9
		nop
	}
	bf r1, .LBB27_28
.Ltmp640:
	.loc	2 1110 3
	{
		shl r1, r4, 6
		zext r0, 6
	}
.Ltmp641:
	.loc	2 1111 3
	{
		or r4, r0, r1
		sub r5, r5, 1
	}
.Ltmp642:
	bt r5, .LBB27_9
.Ltmp643:
.LBB27_30:
	{
		nop
		ldw r0, sp[2]
	}
	{
		nop
		stw r4, r0[0]
	}
	bu .LBB27_31
.Ltmp644:
.LBB27_28:
	{
		mkmsk r0, 32
		ldw r1, sp[2]
	}
	{
		nop
		stw r0, r1[0]
	}
.Ltmp645:
.LBB27_31:
	{
		mkmsk r1, 1
		nop
	}
.LBB27_32:
	.loc	2 1115 1
	{
		mov r0, r1
		ldw r10, sp[10]
	}
	ldd r9, r8, sp[4]
	ldd r7, r6, sp[3]
	ldd r5, r4, sp[2]
	{
		nop
		retsp 12
	}
	# RETURN_REG_HOLDER
.Ltmp646:
.LBB27_12:
	{
		ldc r2, 0
		nop
	}
	{
		mov r1, r2
		nop
	}
	bu .LBB27_32
.LBB27_10:
	{
		ldc r1, 0
		nop
	}
	bu .LBB27_32
	.cc_bottom FLAC__bitreader_read_utf8_uint32.function
	.set	FLAC__bitreader_read_utf8_uint32.nstackwords,(FLAC__bitreader_read_raw_uint32.nstackwords + 12)
	.globl	FLAC__bitreader_read_utf8_uint32.nstackwords
	.set	FLAC__bitreader_read_utf8_uint32.maxcores,FLAC__bitreader_read_raw_uint32.maxcores $M 1
	.globl	FLAC__bitreader_read_utf8_uint32.maxcores
	.set	FLAC__bitreader_read_utf8_uint32.maxtimers,FLAC__bitreader_read_raw_uint32.maxtimers $M 0
	.globl	FLAC__bitreader_read_utf8_uint32.maxtimers
	.set	FLAC__bitreader_read_utf8_uint32.maxchanends,FLAC__bitreader_read_raw_uint32.maxchanends $M 0
	.globl	FLAC__bitreader_read_utf8_uint32.maxchanends
.Ltmp647:
	.size	FLAC__bitreader_read_utf8_uint32, .Ltmp647-FLAC__bitreader_read_utf8_uint32
.Lfunc_end27:
	.cfi_endproc

	.globl	FLAC__bitreader_read_utf8_uint64
	.align	4
	.type	FLAC__bitreader_read_utf8_uint64,@function
	.cc_top FLAC__bitreader_read_utf8_uint64.function,FLAC__bitreader_read_utf8_uint64
FLAC__bitreader_read_utf8_uint64:
.Lfunc_begin28:
	.loc	2 1119 0
	.cfi_startproc
	.issue_mode dual
	{
		nop
		dualentsp 12
	}
.Ltmp648:
	.cfi_def_cfa_offset 48
.Ltmp649:
	.cfi_offset 15, 0
	std r5, r4, sp[2]
.Ltmp650:
	.cfi_offset 4, -32
.Ltmp651:
	.cfi_offset 5, -28
	std r7, r6, sp[3]
.Ltmp652:
	.cfi_offset 6, -24
.Ltmp653:
	.cfi_offset 7, -20
	std r9, r8, sp[4]
.Ltmp654:
	.cfi_offset 8, -16
.Ltmp655:
	.cfi_offset 9, -12
.Ltmp656:
	.cfi_offset 10, -8
.Ltmp657:
	{
		mov r7, r3
		stw r10, sp[10]
	}
.Ltmp658:
	{
		mov r8, r2
		mov r4, r1
	}
.Ltmp659:
	{
		mov r6, r0
		ldaw r1, sp[3]
	}
.Ltmp660:
	{
		ldc r9, 8
		nop
	}
	.loc	2 1124 6 prologue_end
.Ltmp661:
	{
		mov r2, r9
		nop
	}
	bl FLAC__bitreader_read_raw_uint32
	{
		ldc r1, 0
		nop
	}
	bf r0, .LBB28_37
.Ltmp662:
	{
		nop
		ldw r5, sp[3]
	}
	bf r8, .LBB28_3
.Ltmp663:
	{
		nop
		ldw r0, r7[0]
	}
	.loc	2 1127 3
.Ltmp664:
	{
		add r1, r0, 1
		nop
	}
	{
		nop
		stw r1, r7[0]
	}
	.loc	2 1127 3
	st8 r5, r8[r0]
.Ltmp665:
.LBB28_3:
	ldc r0, 128
	.loc	2 1128 5
.Ltmp666:
	{
		and r0, r5, r0
		nop
	}
	.loc	2 1128 5
	bf r0, .LBB28_38
.Ltmp667:
	ldc r0, 192
	.loc	2 1132 10
.Ltmp668:
	{
		and r0, r5, r0
		nop
	}
	bf r0, .LBB28_7
.Ltmp669:
	{
		ldc r0, 32
		nop
	}
	{
		and r0, r5, r0
		nop
	}
	bt r0, .LBB28_7
.Ltmp670:
	{
		zext r5, 5
		stw r4, sp[2]
	}
.Ltmp671:
	{
		ldc r4, 0
		mkmsk r9, 1
	}
	bu .LBB28_22
.Ltmp672:
.LBB28_38:
	{
		ldc r4, 0
		stw r4, sp[2]
	}
	bu .LBB28_35
.Ltmp673:
.LBB28_7:
	ldc r0, 224
	.loc	2 1136 10
.Ltmp674:
	{
		and r0, r5, r0
		nop
	}
	bf r0, .LBB28_10
.Ltmp675:
	{
		ldc r0, 16
		nop
	}
	{
		and r0, r5, r0
		nop
	}
	bt r0, .LBB28_10
.Ltmp676:
	{
		zext r5, 4
		stw r4, sp[2]
	}
.Ltmp677:
	{
		ldc r4, 0
		ldc r9, 2
	}
	bu .LBB28_22
.Ltmp678:
.LBB28_10:
	ldc r0, 240
	.loc	2 1140 10
.Ltmp679:
	{
		and r0, r5, r0
		nop
	}
	bf r0, .LBB28_13
.Ltmp680:
	{
		and r0, r5, r9
		nop
	}
	bt r0, .LBB28_13
.Ltmp681:
	{
		zext r5, 3
		stw r4, sp[2]
	}
.Ltmp682:
	{
		ldc r4, 0
		mkmsk r9, 2
	}
	bu .LBB28_22
.Ltmp683:
.LBB28_13:
	ldc r0, 248
	.loc	2 1144 10
.Ltmp684:
	{
		and r0, r5, r0
		nop
	}
	bf r0, .LBB28_16
.Ltmp685:
	{
		ldc r9, 4
		nop
	}
	{
		and r0, r5, r9
		nop
	}
	bt r0, .LBB28_16
.Ltmp686:
	{
		zext r5, 2
		stw r4, sp[2]
	}
	{
		ldc r4, 0
		nop
	}
.Ltmp687:
	bu .LBB28_22
.Ltmp688:
.LBB28_16:
	ldc r0, 252
	.loc	2 1148 10
.Ltmp689:
	{
		and r0, r5, r0
		nop
	}
	bf r0, .LBB28_19
.Ltmp690:
	{
		ldc r0, 2
		nop
	}
	{
		and r0, r5, r0
		nop
	}
	bt r0, .LBB28_19
.Ltmp691:
	{
		zext r5, 1
		stw r4, sp[2]
	}
.Ltmp692:
	{
		ldc r4, 0
		ldc r9, 5
	}
	bu .LBB28_22
.Ltmp693:
.LBB28_19:
	ldc r0, 254
	.loc	2 1152 10
.Ltmp694:
	{
		and r0, r5, r0
		nop
	}
	bf r0, .LBB28_28
.Ltmp695:
	{
		zext r5, 1
		nop
	}
	bt r5, .LBB28_28
.Ltmp696:
	{
		ldc r5, 0
		stw r4, sp[2]
	}
	{
		ldc r9, 6
		mov r4, r5
	}
.Ltmp697:
.LBB28_22:
	bf r8, .LBB28_29
.Ltmp698:
	{
		ldc r10, 8
		nop
	}
.Ltmp699:
.LBB28_24:
	.loc	2 1161 7
	{
		mov r0, r6
		ldaw r1, sp[3]
	}
	{
		mov r2, r10
		nop
	}
	bl FLAC__bitreader_read_raw_uint32
	.loc	2 1161 7
	bf r0, .LBB28_25
.Ltmp700:
	{
		nop
		ldw r0, sp[3]
	}
	{
		nop
		ldw r1, r7[0]
	}
	.loc	2 1164 4
.Ltmp701:
	{
		add r2, r1, 1
		nop
	}
	{
		nop
		stw r2, r7[0]
	}
	.loc	2 1164 4
	st8 r0, r8[r1]
	ldc r1, 192
.Ltmp702:
	.loc	2 1165 6
	{
		and r1, r0, r1
		nop
	}
	ldc r2, 128
	.loc	2 1165 6
	{
		eq r1, r1, r2
		nop
	}
	bf r1, .LBB28_33
.Ltmp703:
	{
		ldc r1, 26
		nop
	}
	.loc	2 1169 3
	{
		shr r1, r5, r1
		shl r2, r4, 6
	}
	{
		or r4, r2, r1
		shl r1, r5, 6
	}
	.loc	2 1170 3
	{
		zext r0, 6
		nop
	}
.Ltmp704:
	.loc	2 1170 3
	{
		or r5, r0, r1
		sub r9, r9, 1
	}
.Ltmp705:
	bt r9, .LBB28_24
	bu .LBB28_35
.Ltmp706:
.LBB28_29:
	{
		ldaw r7, sp[3]
		ldc r8, 8
	}
	{
		ldc r10, 26
		nop
	}
.Ltmp707:
.LBB28_30:
	.loc	2 1161 7
	{
		mov r0, r6
		mov r1, r7
	}
	{
		mov r2, r8
		nop
	}
	bl FLAC__bitreader_read_raw_uint32
	.loc	2 1161 7
	bf r0, .LBB28_31
.Ltmp708:
	{
		nop
		ldw r0, sp[3]
	}
	ldc r1, 192
	.loc	2 1165 6
.Ltmp709:
	{
		and r1, r0, r1
		nop
	}
	ldc r2, 128
	.loc	2 1165 6
	{
		eq r1, r1, r2
		nop
	}
	bf r1, .LBB28_33
.Ltmp710:
	.loc	2 1169 3
	{
		shr r1, r5, r10
		shl r2, r4, 6
	}
	{
		or r4, r2, r1
		shl r1, r5, 6
	}
	.loc	2 1170 3
	{
		zext r0, 6
		nop
	}
.Ltmp711:
	.loc	2 1170 3
	{
		or r5, r0, r1
		sub r9, r9, 1
	}
.Ltmp712:
	bt r9, .LBB28_30
.Ltmp713:
.LBB28_35:
	{
		nop
		ldw r0, sp[2]
	}
	.loc	2 1172 2
	std r4, r5, r0[0]
	bu .LBB28_36
.Ltmp714:
.LBB28_33:
	{
		mkmsk r0, 32
		ldw r1, sp[2]
	}
	.loc	2 1166 4
.Ltmp715:
	std r0, r0, r1[0]
.Ltmp716:
.LBB28_36:
	{
		mkmsk r1, 1
		nop
	}
.LBB28_37:
	.loc	2 1174 1
	{
		mov r0, r1
		ldw r10, sp[10]
	}
	ldd r9, r8, sp[4]
	ldd r7, r6, sp[3]
	ldd r5, r4, sp[2]
	{
		nop
		retsp 12
	}
	# RETURN_REG_HOLDER
.LBB28_25:
	{
		ldc r1, 0
		nop
	}
	bu .LBB28_37
.LBB28_31:
	{
		ldc r1, 0
		nop
	}
	bu .LBB28_37
.LBB28_28:
.Ltmp717:
	{
		mkmsk r0, 32
		nop
	}
	.loc	2 1157 3
.Ltmp718:
	std r0, r0, r4[0]
	bu .LBB28_36
.Ltmp719:
	.cc_bottom FLAC__bitreader_read_utf8_uint64.function
	.set	FLAC__bitreader_read_utf8_uint64.nstackwords,(FLAC__bitreader_read_raw_uint32.nstackwords + 12)
	.globl	FLAC__bitreader_read_utf8_uint64.nstackwords
	.set	FLAC__bitreader_read_utf8_uint64.maxcores,FLAC__bitreader_read_raw_uint32.maxcores $M 1
	.globl	FLAC__bitreader_read_utf8_uint64.maxcores
	.set	FLAC__bitreader_read_utf8_uint64.maxtimers,FLAC__bitreader_read_raw_uint32.maxtimers $M 0
	.globl	FLAC__bitreader_read_utf8_uint64.maxtimers
	.set	FLAC__bitreader_read_utf8_uint64.maxchanends,FLAC__bitreader_read_raw_uint32.maxchanends $M 0
	.globl	FLAC__bitreader_read_utf8_uint64.maxchanends
.Ltmp720:
	.size	FLAC__bitreader_read_utf8_uint64, .Ltmp720-FLAC__bitreader_read_utf8_uint64
.Lfunc_end28:
	.cfi_endproc

.Ldebug_end0:
	.section	.trap_info,"",@progbits
.Ltrap_info_entries_start0:
	.long	.Ltrap_info_entries_end0-.Ltrap_info_entries_start0
	.long	1
.Ltrap_info_entries_end0: