	.text
	.file	"C:/MEGA/HobbyElec/SSDAC/xSSDAC/xTIME/WORKSPACE/module_sd_audio/src/decoupler.xc"
                                        # Start of file scope inline assembly
	.inline_definition delay_seconds
	.inline_definition delay_milliseconds
	.inline_definition delay_microseconds
	.set usage.anon.0,0
	.set usage.anon.1,0
	.set usage.anon.2,0
	.set usage.anon.3,0
	.set usage.anon.4,0
	.set usage.anon.5,0
	.globread decoupler,sm_byte_count,"C:/MEGA/HobbyElec/SSDAC/xSSDAC/xTIME/WORKSPACE/module_sd_audio/src/decoupler.xc:130:33: note: object used here\n                if (byte_ptr == sm_byte_count[tx_id]){\n                                ^~~~~~~~~~~~~~~~~~~~"
	.globread send_sample,cur_freq,"C:/MEGA/HobbyElec/SSDAC/xSSDAC/xTIME/WORKSPACE/module_sd_audio/src/decoupler.xc:56:37: note: object used here\n        if (sm_sample_rate[tx_id]!= cur_freq){\n                                    ^~~~~~~~"
	.globread send_sample,tx_id,"C:/MEGA/HobbyElec/SSDAC/xSSDAC/xTIME/WORKSPACE/module_sd_audio/src/decoupler.xc:53:22: note: object used here\n    if (sm_new_track[tx_id]==_TRUE){\n                     ^~~~~"
	.globread send_sample,sm_byte_per_sample,"C:/MEGA/HobbyElec/SSDAC/xSSDAC/xTIME/WORKSPACE/module_sd_audio/src/decoupler.xc:70:18: note: object used here\n    if (digit == sm_byte_per_sample[tx_id] ){\n                 ^~~~~~~~~~~~~~~~~~~~~~~~~"
	.globread send_sample,sm_ch_count,"C:/MEGA/HobbyElec/SSDAC/xSSDAC/xTIME/WORKSPACE/module_sd_audio/src/decoupler.xc:60:28: note: object used here\n        for (ch = 0 ; ch < sm_ch_count[tx_id] ; ch++ ){\n                           ^~~~~~~~~~~~~~~~~~"
	.globread send_sample,sm_sample_rate,"C:/MEGA/HobbyElec/SSDAC/xSSDAC/xTIME/WORKSPACE/module_sd_audio/src/decoupler.xc:56:13: note: object used here\n        if (sm_sample_rate[tx_id]!= cur_freq){\n            ^~~~~~~~~~~~~~~~~~~~~"
	.globread send_sample,audio_buffer,"C:/MEGA/HobbyElec/SSDAC/xSSDAC/xTIME/WORKSPACE/module_sd_audio/src/decoupler.xc:67:47: note: object used here\n    samplesOut[ch]= ( samplesOut[ch] << 8 ) + audio_buffer[tx_id][byte_ptr];\n                                              ^~~~~~~~~~~~~~~~~~~~~~~~~~~~~"
	.globread set_frequency,tx_id,"C:/MEGA/HobbyElec/SSDAC/xSSDAC/xTIME/WORKSPACE/module_sd_audio/src/decoupler.xc:42:31: note: object used here\n    cur_freq = sm_sample_rate[tx_id];\n                              ^~~~~"
	.globread set_frequency,sm_sample_rate,"C:/MEGA/HobbyElec/SSDAC/xSSDAC/xTIME/WORKSPACE/module_sd_audio/src/decoupler.xc:42:16: note: object used here\n    cur_freq = sm_sample_rate[tx_id];\n               ^~~~~~~~~~~~~~~~~~~~~"
	.globwrite decoupler,usage.anon.5,"C:/MEGA/HobbyElec/SSDAC/xSSDAC/xTIME/WORKSPACE/module_sd_audio/src/decoupler.xc:109:5: note: object used here\n    digit = 0;\n    ^~~~~"
	.globwrite decoupler,usage.anon.4,"C:/MEGA/HobbyElec/SSDAC/xSSDAC/xTIME/WORKSPACE/module_sd_audio/src/decoupler.xc:108:5: note: object used here\n    ch = 0;\n    ^~"
	.globwrite decoupler,usage.anon.3,"C:/MEGA/HobbyElec/SSDAC/xSSDAC/xTIME/WORKSPACE/module_sd_audio/src/decoupler.xc:106:9: note: object used here\n        samplesOut[i] = 0;\n        ^~~~~~~~~~~~~"
	.globwrite decoupler,byte_ptr,"C:/MEGA/HobbyElec/SSDAC/xSSDAC/xTIME/WORKSPACE/module_sd_audio/src/decoupler.xc:117:13: note: object used here\n            byte_ptr = 0;\n            ^~~~~~~~"
	.globwrite decoupler,tx_id,"C:/MEGA/HobbyElec/SSDAC/xSSDAC/xTIME/WORKSPACE/module_sd_audio/src/decoupler.xc:102:5: note: object used here\n    tx_id = 0;\n    ^~~~~"
	.globwrite decoupler,rx_id,"C:/MEGA/HobbyElec/SSDAC/xSSDAC/xTIME/WORKSPACE/module_sd_audio/src/decoupler.xc:103:5: note: object used here\n    rx_id = 0;\n    ^~~~~"
	.globwrite send_sample,usage.anon.5,"C:/MEGA/HobbyElec/SSDAC/xSSDAC/xTIME/WORKSPACE/module_sd_audio/src/decoupler.xc:64:9: note: object used here\n        digit = 0;\n        ^~~~~"
	.globwrite send_sample,usage.anon.4,"C:/MEGA/HobbyElec/SSDAC/xSSDAC/xTIME/WORKSPACE/module_sd_audio/src/decoupler.xc:60:14: note: object used here\n        for (ch = 0 ; ch < sm_ch_count[tx_id] ; ch++ ){\n             ^~"
	.globwrite send_sample,usage.anon.3,"C:/MEGA/HobbyElec/SSDAC/xSSDAC/xTIME/WORKSPACE/module_sd_audio/src/decoupler.xc:61:13: note: object used here\n            samplesOut[ch]=0;\n            ^~~~~~~~~~~~~~"
	.globwrite send_sample,byte_ptr,"C:/MEGA/HobbyElec/SSDAC/xSSDAC/xTIME/WORKSPACE/module_sd_audio/src/decoupler.xc:68:5: note: object used here\n    byte_ptr++;\n    ^~~~~~~~"
	.globwrite send_sample,sm_new_track,"C:/MEGA/HobbyElec/SSDAC/xSSDAC/xTIME/WORKSPACE/module_sd_audio/src/decoupler.xc:54:9: note: object used here\n        sm_new_track[tx_id] = _FALSE;\n        ^~~~~~~~~~~~~~~~~~~"
	.globwrite set_frequency,cur_freq,"C:/MEGA/HobbyElec/SSDAC/xSSDAC/xTIME/WORKSPACE/module_sd_audio/src/decoupler.xc:42:5: note: object used here\n    cur_freq = sm_sample_rate[tx_id];\n    ^~~~~~~~"
	.call decoupler,send_sample
	.call send_sample,set_frequency
	.call set_frequency,debug_printf
	.call usage.anon.2,delay_ticks_longlong
	.call usage.anon.1,delay_ticks_longlong
	.call usage.anon.0,delay_ticks_longlong
	.set set_frequency.locnoside, 0
	.set send_sample.locnoside, 0
	.set decoupler.locnoside, 0
	.set set_frequency.locnoglobalaccess, 0
	.set send_sample.locnoglobalaccess, 0
	.set decoupler.locnoglobalaccess, 0

                                        # End of file scope inline assembly
	.text
	.globl	set_frequency
	.align	4
	.type	set_frequency,@function
	.cc_top set_frequency.function,set_frequency
set_frequency:                          # @set_frequency
.Lfunc_begin0:
	.loc	1 39 0                  # C:/MEGA/HobbyElec/SSDAC/xSSDAC/xTIME/WORKSPACE/module_sd_audio/src/decoupler.xc:39:0
	.cfi_startproc
	.issue_mode dual
# BB#0:                                 # %allocas
.Lxtalabel0:
	{
		nop
		dualentsp 4
	}
.Ltmp0:
	.cfi_def_cfa_offset 16
.Ltmp1:
	.cfi_offset 15, 0
.Ltmp2:
	.cfi_offset 4, -8
	#DEBUG_VALUE: set_frequency:c <- R0
.Ltmp3:
	#DEBUG_VALUE: set_frequency:c <- R4
	{
		mov r4, r0
		stw r4, sp[2]
	}
.Ltmp4:
	.loc	1 41 0 prologue_end     # C:/MEGA/HobbyElec/SSDAC/xSSDAC/xTIME/WORKSPACE/module_sd_audio/src/decoupler.xc:41:0
.Lxta.endpoint_labels0:
	{
		in r0, res[r4]
		nop
	}
.Ltmp5:
	#DEBUG_VALUE: temp <- R0
	.loc	1 42 0                  # C:/MEGA/HobbyElec/SSDAC/xSSDAC/xTIME/WORKSPACE/module_sd_audio/src/decoupler.xc:42:0
	ldw r0, dp[tx_id]
.Ltmp6:
	{
		mkmsk r1, 2
		nop
	}
	.loc	1 42 0                  # C:/MEGA/HobbyElec/SSDAC/xSSDAC/xTIME/WORKSPACE/module_sd_audio/src/decoupler.xc:42:0
	{
		lsu r1, r1, r0
		nop
	}
.Ltrap_info0:
	{
		ecallt r1
		nop
	}
.Ltmp7:
	#DEBUG_VALUE: set_frequency:c <- R4
	.loc	1 42 0                  # C:/MEGA/HobbyElec/SSDAC/xSSDAC/xTIME/WORKSPACE/module_sd_audio/src/decoupler.xc:42:0
	ldaw r1, dp[sm_sample_rate]
	{
		nop
		ldw r1, r1[r0]
	}
	.loc	1 42 0                  # C:/MEGA/HobbyElec/SSDAC/xSSDAC/xTIME/WORKSPACE/module_sd_audio/src/decoupler.xc:42:0
	stw r1, dp[cur_freq]
	.loc	1 43 0                  # C:/MEGA/HobbyElec/SSDAC/xSSDAC/xTIME/WORKSPACE/module_sd_audio/src/decoupler.xc:43:0
	ldaw r11, cp[.str2]
	{
		mov r0, r11
		nop
	}
.Lxta.call_labels0:
	bl debug_printf
	.loc	1 44 0                  # C:/MEGA/HobbyElec/SSDAC/xSSDAC/xTIME/WORKSPACE/module_sd_audio/src/decoupler.xc:44:0
.Lxta.endpoint_labels1:
	{
		outct res[r4], 4
		nop
	}
	.loc	1 45 0                  # C:/MEGA/HobbyElec/SSDAC/xSSDAC/xTIME/WORKSPACE/module_sd_audio/src/decoupler.xc:45:0
	ldw r0, dp[cur_freq]
	.loc	1 45 0                  # C:/MEGA/HobbyElec/SSDAC/xSSDAC/xTIME/WORKSPACE/module_sd_audio/src/decoupler.xc:45:0
.Lxta.endpoint_labels2:
	{
		out res[r4], r0
		nop
	}
	.loc	1 46 0                  # C:/MEGA/HobbyElec/SSDAC/xSSDAC/xTIME/WORKSPACE/module_sd_audio/src/decoupler.xc:46:0
.Lxta.endpoint_labels3:
	{
		inct r0, res[r4]
		ldw r4, sp[2]
	}
.Ltmp8:
	{
		nop
		retsp 4
	}
	# RETURN_REG_HOLDER
.Ltmp9:
	.cc_bottom set_frequency.function
	.set	set_frequency.nstackwords,(debug_printf.nstackwords + 4)
	.globl	set_frequency.nstackwords
	.set	set_frequency.maxcores,debug_printf.maxcores $M 1
	.globl	set_frequency.maxcores
	.set	set_frequency.maxtimers,debug_printf.maxtimers $M 0
	.globl	set_frequency.maxtimers
	.set	set_frequency.maxchanends,debug_printf.maxchanends $M 0
	.globl	set_frequency.maxchanends
.Ltmp10:
	.size	set_frequency, .Ltmp10-set_frequency
.Lfunc_end0:
	.cfi_endproc

	.globl	send_sample
	.align	4
	.type	send_sample,@function
	.cc_top send_sample.function,send_sample
send_sample:                            # @send_sample
.Lfunc_begin1:
	.loc	1 49 0                  # C:/MEGA/HobbyElec/SSDAC/xSSDAC/xTIME/WORKSPACE/module_sd_audio/src/decoupler.xc:49:0
	.cfi_startproc
	.issue_mode dual
# BB#0:                                 # %allocas
.Lxtalabel1:
	{
		nop
		dualentsp 6
	}
.Ltmp11:
	.cfi_def_cfa_offset 24
.Ltmp12:
	.cfi_offset 15, 0
	std r5, r4, sp[1]               # 4-byte Folded Spill
.Ltmp13:
	.cfi_offset 4, -16
.Ltmp14:
	.cfi_offset 5, -12
	std r7, r6, sp[2]               # 4-byte Folded Spill
.Ltmp15:
	.cfi_offset 6, -8
.Ltmp16:
	.cfi_offset 7, -4
	#DEBUG_VALUE: send_sample:c <- R0
	{
		mov r4, r0
		nop
	}
.Ltmp17:
	#DEBUG_VALUE: send_sample:c <- R4
	.loc	1 53 5 prologue_end     # C:/MEGA/HobbyElec/SSDAC/xSSDAC/xTIME/WORKSPACE/module_sd_audio/src/decoupler.xc:53:5
	ldw r0, dp[tx_id]
	{
		ldc r5, 4
		nop
	}
	.loc	1 53 5                  # C:/MEGA/HobbyElec/SSDAC/xSSDAC/xTIME/WORKSPACE/module_sd_audio/src/decoupler.xc:53:5
	{
		lsu r1, r0, r5
		nop
	}
.Ltrap_info1:
	{
		ecallf r1
		nop
	}
	#DEBUG_VALUE: send_sample:c <- R4
	.loc	1 53 5                  # C:/MEGA/HobbyElec/SSDAC/xSSDAC/xTIME/WORKSPACE/module_sd_audio/src/decoupler.xc:53:5
	ldaw r1, dp[sm_new_track]
	{
		nop
		ldw r2, r1[r0]
	}
	.loc	1 53 5                  # C:/MEGA/HobbyElec/SSDAC/xSSDAC/xTIME/WORKSPACE/module_sd_audio/src/decoupler.xc:53:5
	{
		eq r2, r2, 1
		nop
	}
	.loc	1 53 5                  # C:/MEGA/HobbyElec/SSDAC/xSSDAC/xTIME/WORKSPACE/module_sd_audio/src/decoupler.xc:53:5
	bf r2, .LBB1_1
.Ltmp18:
# BB#3:                                 # %afterboundcheck9
.Lxtalabel2:
	#DEBUG_VALUE: send_sample:c <- R4
	{
		ldc r6, 0
		nop
	}
	.loc	1 54 0                  # C:/MEGA/HobbyElec/SSDAC/xSSDAC/xTIME/WORKSPACE/module_sd_audio/src/decoupler.xc:54:0
	stw r6, r1[r0]
	.loc	1 56 9                  # C:/MEGA/HobbyElec/SSDAC/xSSDAC/xTIME/WORKSPACE/module_sd_audio/src/decoupler.xc:56:9
	ldaw r1, dp[sm_sample_rate]
	{
		nop
		ldw r1, r1[r0]
	}
	.loc	1 56 9                  # C:/MEGA/HobbyElec/SSDAC/xSSDAC/xTIME/WORKSPACE/module_sd_audio/src/decoupler.xc:56:9
	ldw r2, dp[cur_freq]
	.loc	1 56 9                  # C:/MEGA/HobbyElec/SSDAC/xSSDAC/xTIME/WORKSPACE/module_sd_audio/src/decoupler.xc:56:9
	{
		eq r1, r1, r2
		nop
	}
	bf r1, .LBB1_2
.Ltmp19:
# BB#4:                                 # %ifdone7.thread
.Lxtalabel3:
	#DEBUG_VALUE: send_sample:c <- R4
	{
		ldc r1, 0
		nop
	}
	.loc	1 60 0                  # C:/MEGA/HobbyElec/SSDAC/xSSDAC/xTIME/WORKSPACE/module_sd_audio/src/decoupler.xc:60:0
	stw r1, dp[ch]
	bu .LBB1_5
.Ltmp20:
.LBB1_1:                                # %ifdone
.Lxtalabel4:
	#DEBUG_VALUE: send_sample:c <- R4
	.loc	1 67 0                  # C:/MEGA/HobbyElec/SSDAC/xSSDAC/xTIME/WORKSPACE/module_sd_audio/src/decoupler.xc:67:0
	ldw r1, dp[ch]
	{
		mkmsk r2, 1
		nop
	}
	.loc	1 67 0                  # C:/MEGA/HobbyElec/SSDAC/xSSDAC/xTIME/WORKSPACE/module_sd_audio/src/decoupler.xc:67:0
	{
		lsu r2, r2, r1
		nop
	}
.Ltrap_info2:
	{
		ecallt r2
		nop
	}
	#DEBUG_VALUE: send_sample:c <- R4
	.loc	1 67 0                  # C:/MEGA/HobbyElec/SSDAC/xSSDAC/xTIME/WORKSPACE/module_sd_audio/src/decoupler.xc:67:0
	ldaw r2, dp[samplesOut]
	ldaw r2, r2[r1]
	.loc	1 67 0                  # C:/MEGA/HobbyElec/SSDAC/xSSDAC/xTIME/WORKSPACE/module_sd_audio/src/decoupler.xc:67:0
	{
		add r1, r1, 1
		nop
	}
	bu .LBB1_10
.Ltmp21:
.LBB1_2:                                # %ifdone7
.Lxtalabel5:
	#DEBUG_VALUE: send_sample:c <- R4
	.loc	1 57 0                  # C:/MEGA/HobbyElec/SSDAC/xSSDAC/xTIME/WORKSPACE/module_sd_audio/src/decoupler.xc:57:0
	{
		mov r0, r4
		nop
	}
.Lxta.call_labels1:
	bl set_frequency
	.loc	1 60 0                  # C:/MEGA/HobbyElec/SSDAC/xSSDAC/xTIME/WORKSPACE/module_sd_audio/src/decoupler.xc:60:0
	ldw r0, dp[tx_id]
	.loc	1 60 0                  # C:/MEGA/HobbyElec/SSDAC/xSSDAC/xTIME/WORKSPACE/module_sd_audio/src/decoupler.xc:60:0
	stw r6, dp[ch]
	.loc	1 60 0                  # C:/MEGA/HobbyElec/SSDAC/xSSDAC/xTIME/WORKSPACE/module_sd_audio/src/decoupler.xc:60:0
	{
		lsu r1, r0, r5
		nop
	}
.Ltrap_info3:
	{
		ecallf r1
		nop
	}
.Ltmp22:
.LBB1_5:                                # %afterboundcheck19
	#DEBUG_VALUE: send_sample:c <- R4
	.loc	1 60 0                  # C:/MEGA/HobbyElec/SSDAC/xSSDAC/xTIME/WORKSPACE/module_sd_audio/src/decoupler.xc:60:0
	ldaw r1, dp[sm_ch_count]
	{
		nop
		ldw r3, r1[r0]
	}
	.loc	1 60 0                  # C:/MEGA/HobbyElec/SSDAC/xSSDAC/xTIME/WORKSPACE/module_sd_audio/src/decoupler.xc:60:0
	bf r3, .LBB1_9
.Ltmp23:
# BB#6:
	#DEBUG_VALUE: send_sample:c <- R4
	{
		mkmsk r1, 1
		nop
	}
	ldaw r2, dp[samplesOut]
	{
		ldc r11, 0
		nop
	}
.Ltmp24:
.LBB1_7:                                # %LoopBody.us
                                        # =>This Inner Loop Header: Depth=1
.Lxtalabel6:
	#DEBUG_VALUE: send_sample:c <- R4
	.loc	1 61 0                  # C:/MEGA/HobbyElec/SSDAC/xSSDAC/xTIME/WORKSPACE/module_sd_audio/src/decoupler.xc:61:0
	{
		lsu r7, r1, r6
		nop
	}
.Ltrap_info4:
	{
		ecallt r7
		nop
	}
	#DEBUG_VALUE: send_sample:c <- R4
	.loc	1 61 0                  # C:/MEGA/HobbyElec/SSDAC/xSSDAC/xTIME/WORKSPACE/module_sd_audio/src/decoupler.xc:61:0
	stw r11, r2[r6]
	.loc	1 60 0                  # C:/MEGA/HobbyElec/SSDAC/xSSDAC/xTIME/WORKSPACE/module_sd_audio/src/decoupler.xc:60:0
	{
		add r6, r6, 1
		nop
	}
	.loc	1 60 0                  # C:/MEGA/HobbyElec/SSDAC/xSSDAC/xTIME/WORKSPACE/module_sd_audio/src/decoupler.xc:60:0
	stw r6, dp[ch]
	.loc	1 60 0                  # C:/MEGA/HobbyElec/SSDAC/xSSDAC/xTIME/WORKSPACE/module_sd_audio/src/decoupler.xc:60:0
	{
		lsu r7, r6, r3
		nop
	}
.Lxta.loop_labels0:
	# LOOPMARKER 0
	bt r7, .LBB1_7
.Ltmp25:
# BB#8:                                 # %afterboundcheck42
.Lxtalabel7:
	#DEBUG_VALUE: send_sample:c <- R4
	.loc	1 63 0                  # C:/MEGA/HobbyElec/SSDAC/xSSDAC/xTIME/WORKSPACE/module_sd_audio/src/decoupler.xc:63:0
	stw r11, dp[ch]
	.loc	1 64 0                  # C:/MEGA/HobbyElec/SSDAC/xSSDAC/xTIME/WORKSPACE/module_sd_audio/src/decoupler.xc:64:0
	stw r11, dp[digit]
	.loc	1 67 0                  # C:/MEGA/HobbyElec/SSDAC/xSSDAC/xTIME/WORKSPACE/module_sd_audio/src/decoupler.xc:67:0
	{
		lsu r3, r0, r5
		nop
	}
.Ltrap_info5:
	{
		ecallf r3
		nop
	}
	bu .LBB1_10
.Ltmp26:
.LBB1_9:                                # %afterboundcheck42.thread140
.Lxtalabel8:
	#DEBUG_VALUE: send_sample:c <- R4
	{
		ldc r1, 0
		nop
	}
	.loc	1 63 0                  # C:/MEGA/HobbyElec/SSDAC/xSSDAC/xTIME/WORKSPACE/module_sd_audio/src/decoupler.xc:63:0
	stw r1, dp[ch]
	.loc	1 64 0                  # C:/MEGA/HobbyElec/SSDAC/xSSDAC/xTIME/WORKSPACE/module_sd_audio/src/decoupler.xc:64:0
	stw r1, dp[digit]
	{
		mkmsk r1, 1
		nop
	}
	ldaw r2, dp[samplesOut]
.Ltmp27:
.LBB1_10:                               # %afterboundcheck52
	#DEBUG_VALUE: send_sample:c <- R4
	.loc	1 67 0                  # C:/MEGA/HobbyElec/SSDAC/xSSDAC/xTIME/WORKSPACE/module_sd_audio/src/decoupler.xc:67:0
	ldw r3, dp[byte_ptr]
	{
		ldc r11, 11
		nop
	}
	.loc	1 67 0                  # C:/MEGA/HobbyElec/SSDAC/xSSDAC/xTIME/WORKSPACE/module_sd_audio/src/decoupler.xc:67:0
	{
		shr r5, r3, r11
		nop
	}
.Ltrap_info6:
	{
		ecallt r5
		nop
	}
	#DEBUG_VALUE: send_sample:c <- R4
	{
		nop
		ldw r5, r2[0]
	}
	.loc	1 67 0                  # C:/MEGA/HobbyElec/SSDAC/xSSDAC/xTIME/WORKSPACE/module_sd_audio/src/decoupler.xc:67:0
	{
		shl r5, r5, 8
		shl r11, r0, r11
	}
	.loc	1 67 0                  # C:/MEGA/HobbyElec/SSDAC/xSSDAC/xTIME/WORKSPACE/module_sd_audio/src/decoupler.xc:67:0
	ldaw r6, dp[audio_buffer]
	{
		add r11, r6, r11
		nop
	}
	{
		nop
		ld8u r11, r11[r3]
	}
	.loc	1 67 0                  # C:/MEGA/HobbyElec/SSDAC/xSSDAC/xTIME/WORKSPACE/module_sd_audio/src/decoupler.xc:67:0
	{
		or r11, r11, r5
		nop
	}
	.loc	1 67 0                  # C:/MEGA/HobbyElec/SSDAC/xSSDAC/xTIME/WORKSPACE/module_sd_audio/src/decoupler.xc:67:0
	{
		add r2, r3, 1
		stw r11, r2[0]
	}
	.loc	1 68 0                  # C:/MEGA/HobbyElec/SSDAC/xSSDAC/xTIME/WORKSPACE/module_sd_audio/src/decoupler.xc:68:0
	stw r2, dp[byte_ptr]
	.loc	1 69 0                  # C:/MEGA/HobbyElec/SSDAC/xSSDAC/xTIME/WORKSPACE/module_sd_audio/src/decoupler.xc:69:0
	ldw r2, dp[digit]
	.loc	1 69 0                  # C:/MEGA/HobbyElec/SSDAC/xSSDAC/xTIME/WORKSPACE/module_sd_audio/src/decoupler.xc:69:0
	{
		add r2, r2, 1
		nop
	}
	.loc	1 69 0                  # C:/MEGA/HobbyElec/SSDAC/xSSDAC/xTIME/WORKSPACE/module_sd_audio/src/decoupler.xc:69:0
	stw r2, dp[digit]
	.loc	1 70 5                  # C:/MEGA/HobbyElec/SSDAC/xSSDAC/xTIME/WORKSPACE/module_sd_audio/src/decoupler.xc:70:5
	ldaw r3, dp[sm_byte_per_sample]
	{
		nop
		ldw r3, r3[r0]
	}
	.loc	1 70 5                  # C:/MEGA/HobbyElec/SSDAC/xSSDAC/xTIME/WORKSPACE/module_sd_audio/src/decoupler.xc:70:5
	{
		eq r2, r2, r3
		nop
	}
	bf r2, .LBB1_15
.Ltmp28:
# BB#11:                                # %afterboundcheck82
.Lxtalabel9:
	#DEBUG_VALUE: send_sample:c <- R4
	{
		ldc r2, 0
		nop
	}
	.loc	1 71 0                  # C:/MEGA/HobbyElec/SSDAC/xSSDAC/xTIME/WORKSPACE/module_sd_audio/src/decoupler.xc:71:0
	stw r2, dp[digit]
	.loc	1 72 0                  # C:/MEGA/HobbyElec/SSDAC/xSSDAC/xTIME/WORKSPACE/module_sd_audio/src/decoupler.xc:72:0
	stw r1, dp[ch]
	.loc	1 73 9                  # C:/MEGA/HobbyElec/SSDAC/xSSDAC/xTIME/WORKSPACE/module_sd_audio/src/decoupler.xc:73:9
	ldaw r3, dp[sm_ch_count]
	{
		nop
		ldw r0, r3[r0]
	}
	.loc	1 73 9                  # C:/MEGA/HobbyElec/SSDAC/xSSDAC/xTIME/WORKSPACE/module_sd_audio/src/decoupler.xc:73:9
	{
		eq r0, r1, r0
		nop
	}
	bf r0, .LBB1_15
.Ltmp29:
# BB#12:                                # %LoopBody102.preheader.split.us
.Lxtalabel10:
	#DEBUG_VALUE: send_sample:c <- R4
	.loc	1 75 0                  # C:/MEGA/HobbyElec/SSDAC/xSSDAC/xTIME/WORKSPACE/module_sd_audio/src/decoupler.xc:75:0
.Lxta.endpoint_labels4:
	{
		in r0, res[r4]
		nop
	}
.Ltmp30:
	#DEBUG_VALUE: temp <- R0
	.loc	1 77 0                  # C:/MEGA/HobbyElec/SSDAC/xSSDAC/xTIME/WORKSPACE/module_sd_audio/src/decoupler.xc:77:0
	stw r2, dp[ch]
	{
		mkmsk r0, 1
		nop
	}
.Ltmp31:
	ldaw r3, dp[samplesOut]
.Ltmp32:
.LBB1_13:                               # %LoopBody102.us
                                        # =>This Inner Loop Header: Depth=1
.Lxtalabel11:
	#DEBUG_VALUE: send_sample:c <- R4
	.loc	1 78 0                  # C:/MEGA/HobbyElec/SSDAC/xSSDAC/xTIME/WORKSPACE/module_sd_audio/src/decoupler.xc:78:0
	{
		lsu r11, r0, r2
		nop
	}
.Ltrap_info7:
	{
		ecallt r11
		nop
	}
	#DEBUG_VALUE: send_sample:c <- R4
	{
		nop
		ldw r11, r3[r2]
	}
	.loc	1 78 0                  # C:/MEGA/HobbyElec/SSDAC/xSSDAC/xTIME/WORKSPACE/module_sd_audio/src/decoupler.xc:78:0
	{
		byterev r11, r11
		nop
	}
	.loc	1 78 0                  # C:/MEGA/HobbyElec/SSDAC/xSSDAC/xTIME/WORKSPACE/module_sd_audio/src/decoupler.xc:78:0
.Lxta.endpoint_labels5:
	{
		out res[r4], r11
		add r2, r2, 1
	}
	.loc	1 77 0                  # C:/MEGA/HobbyElec/SSDAC/xSSDAC/xTIME/WORKSPACE/module_sd_audio/src/decoupler.xc:77:0
	stw r2, dp[ch]
	.loc	1 77 0                  # C:/MEGA/HobbyElec/SSDAC/xSSDAC/xTIME/WORKSPACE/module_sd_audio/src/decoupler.xc:77:0
	{
		lsu r11, r2, r1
		nop
	}
.Lxta.loop_labels1:
	# LOOPMARKER 1
	bt r11, .LBB1_13
.Ltmp33:
# BB#14:                                # %ifdone91
.Lxtalabel12:
	{
		ldc r0, 0
		nop
	}
	.loc	1 80 0                  # C:/MEGA/HobbyElec/SSDAC/xSSDAC/xTIME/WORKSPACE/module_sd_audio/src/decoupler.xc:80:0
	stw r0, dp[ch]
.Ltmp34:
.LBB1_15:                               # %return
.Lxtalabel13:
	ldd r7, r6, sp[2]               # 4-byte Folded Reload
	ldd r5, r4, sp[1]               # 4-byte Folded Reload
	{
		nop
		retsp 6
	}
	# RETURN_REG_HOLDER
	.cc_bottom send_sample.function
	.set	send_sample.nstackwords,(set_frequency.nstackwords + 6)
	.globl	send_sample.nstackwords
	.set	send_sample.maxcores,set_frequency.maxcores $M 1
	.globl	send_sample.maxcores
	.set	send_sample.maxtimers,set_frequency.maxtimers $M 0
	.globl	send_sample.maxtimers
	.set	send_sample.maxchanends,set_frequency.maxchanends $M 0
	.globl	send_sample.maxchanends
.Ltmp35:
	.size	send_sample, .Ltmp35-send_sample
.Lfunc_end1:
	.cfi_endproc

	.section	.cp.rodata.cst4,"aMc",@progbits,4
	.cc_top .LCPI2_0.data,.LCPI2_0
	.align	4
	.type	.LCPI2_0,@object
	.size	.LCPI2_0, 4
.LCPI2_0:
	.long	4294967292              # 0xfffffffc
	.cc_bottom .LCPI2_0.data
	.text
	.globl	decoupler
	.align	4
	.type	decoupler,@function
	.cc_top decoupler.function,decoupler
decoupler:                              # @decoupler
.Lfunc_begin2:
	.loc	1 98 0                  # C:/MEGA/HobbyElec/SSDAC/xSSDAC/xTIME/WORKSPACE/module_sd_audio/src/decoupler.xc:98:0
	.cfi_startproc
	.issue_mode dual
# BB#0:                                 # %allocas
.Lxtalabel14:
	{
		nop
		dualentsp 10
	}
.Ltmp36:
	.cfi_def_cfa_offset 40
.Ltmp37:
	.cfi_offset 15, 0
	std r5, r4, sp[1]               # 4-byte Folded Spill
.Ltmp38:
	.cfi_offset 4, -32
.Ltmp39:
	.cfi_offset 5, -28
	std r7, r6, sp[2]               # 4-byte Folded Spill
.Ltmp40:
	.cfi_offset 6, -24
.Ltmp41:
	.cfi_offset 7, -20
	std r9, r8, sp[3]               # 4-byte Folded Spill
.Ltmp42:
	.cfi_offset 8, -16
.Ltmp43:
	.cfi_offset 9, -12
.Ltmp44:
	.cfi_offset 10, -8
	#DEBUG_VALUE: decoupler:c_buff_control <- R0
	#DEBUG_VALUE: decoupler:c_out <- R1
.Ltmp45:
	#DEBUG_VALUE: decoupler:c_out <- R4
	{
		mov r4, r1
		stw r10, sp[8]
	}
.Ltmp46:
	#DEBUG_VALUE: state <- 0
	#DEBUG_VALUE: decoupler:c_buff_control <- R5
	{
		mov r5, r0
		ldc r6, 0
	}
.Ltmp47:
	.loc	1 102 0 prologue_end    # C:/MEGA/HobbyElec/SSDAC/xSSDAC/xTIME/WORKSPACE/module_sd_audio/src/decoupler.xc:102:0
	stw r6, dp[tx_id]
	.loc	1 103 0                 # C:/MEGA/HobbyElec/SSDAC/xSSDAC/xTIME/WORKSPACE/module_sd_audio/src/decoupler.xc:103:0
	stw r6, dp[rx_id]
.Ltmp48:
	#DEBUG_VALUE: i <- 0
	.loc	1 106 0                 # C:/MEGA/HobbyElec/SSDAC/xSSDAC/xTIME/WORKSPACE/module_sd_audio/src/decoupler.xc:106:0
	stw r6, dp[samplesOut]
.Ltmp49:
	#DEBUG_VALUE: i <- 1
	.loc	1 106 0                 # C:/MEGA/HobbyElec/SSDAC/xSSDAC/xTIME/WORKSPACE/module_sd_audio/src/decoupler.xc:106:0
	stw r6, dp[samplesOut+4]
.Ltmp50:
	.loc	1 108 0                 # C:/MEGA/HobbyElec/SSDAC/xSSDAC/xTIME/WORKSPACE/module_sd_audio/src/decoupler.xc:108:0
	stw r6, dp[ch]
	.loc	1 109 0                 # C:/MEGA/HobbyElec/SSDAC/xSSDAC/xTIME/WORKSPACE/module_sd_audio/src/decoupler.xc:109:0
	stw r6, dp[digit]
	.loc	1 140 13                # C:/MEGA/HobbyElec/SSDAC/xSSDAC/xTIME/WORKSPACE/module_sd_audio/src/decoupler.xc:140:13
	ldaw r8, dp[sm_byte_count]
	{
		mkmsk r9, 2
		mkmsk r10, 1
	}
	{
		ldc r7, 2
		mov r0, r6
	}
	{
		mov r1, r6
		nop
	}
	bu .LBB2_3
.LBB2_12:                               # %selectcase
                                        #   in Loop: Header=BB2_3 Depth=1
.Lxtalabel15:
.Ltmp51:
	#DEBUG_VALUE: decoupler:c_buff_control <- R5
	#DEBUG_VALUE: decoupler:c_out <- R4
	#DEBUG_VALUE: state <- 2
	{
		mov r1, r2
		nop
	}
.Ltmp52:
.LBB2_3:                                # %LoopBody10.outer
                                        # =>This Loop Header: Depth=1
                                        #     Child Loop BB2_21 Depth 2
	#DEBUG_VALUE: decoupler:c_buff_control <- R5
	#DEBUG_VALUE: decoupler:c_out <- R4
	{
		eq r2, r1, 2
		nop
	}
	bt r2, .LBB2_20
.Ltmp53:
# BB#4:                                 # %LoopBody10.outer
                                        #   in Loop: Header=BB2_3 Depth=1
	#DEBUG_VALUE: decoupler:c_buff_control <- R5
	#DEBUG_VALUE: decoupler:c_out <- R4
	bf r1, .LBB2_1
.Ltmp54:
# BB#5:                                 # %LoopBody10.outer
                                        #   in Loop: Header=BB2_3 Depth=1
	#DEBUG_VALUE: decoupler:c_buff_control <- R5
	#DEBUG_VALUE: decoupler:c_out <- R4
	{
		eq r2, r1, 1
		nop
	}
	bf r2, .LBB2_6
.Ltmp55:
# BB#7:                                 # %iftrue19.split
                                        #   in Loop: Header=BB2_3 Depth=1
	#DEBUG_VALUE: decoupler:c_buff_control <- R5
	#DEBUG_VALUE: decoupler:c_out <- R4
	.loc	1 122 13                # C:/MEGA/HobbyElec/SSDAC/xSSDAC/xTIME/WORKSPACE/module_sd_audio/src/decoupler.xc:122:13
	{
		clre
		nop
	}
	ldap r11, .Ltmp56
	.loc	1 122 13                # C:/MEGA/HobbyElec/SSDAC/xSSDAC/xTIME/WORKSPACE/module_sd_audio/src/decoupler.xc:122:13
	{
		setv res[r5], r11
		nop
	}
	.loc	1 122 13                # C:/MEGA/HobbyElec/SSDAC/xSSDAC/xTIME/WORKSPACE/module_sd_audio/src/decoupler.xc:122:13
	{
		eeu res[r5]
		nop
	}
	.loc	1 136 0                 # C:/MEGA/HobbyElec/SSDAC/xSSDAC/xTIME/WORKSPACE/module_sd_audio/src/decoupler.xc:136:0
	{
		setsr 1
		nop
	}
	{
		nop
		nop
	}
	{
		clrsr 1
		nop
	}
	.loc	1 136 0                 # C:/MEGA/HobbyElec/SSDAC/xSSDAC/xTIME/WORKSPACE/module_sd_audio/src/decoupler.xc:136:0
	bu .Ltmp57
.Ltmp58:
.Ltmp56:                                # Block address taken
.LBB2_8:                                # %selectcase
                                        #   in Loop: Header=BB2_3 Depth=1
.Lxtalabel16:
	#DEBUG_VALUE: decoupler:c_buff_control <- R5
	#DEBUG_VALUE: decoupler:c_out <- R4
	.loc	1 123 0                 # C:/MEGA/HobbyElec/SSDAC/xSSDAC/xTIME/WORKSPACE/module_sd_audio/src/decoupler.xc:123:0
	{
		chkct res[r5], 1
		nop
	}
	.loc	1 123 0                 # C:/MEGA/HobbyElec/SSDAC/xSSDAC/xTIME/WORKSPACE/module_sd_audio/src/decoupler.xc:123:0
	{
		outct res[r5], 1
		nop
	}
	.loc	1 123 0                 # C:/MEGA/HobbyElec/SSDAC/xSSDAC/xTIME/WORKSPACE/module_sd_audio/src/decoupler.xc:123:0
.Lxta.endpoint_labels6:
	{
		in r2, res[r5]
		nop
	}
.Ltmp59:
	#DEBUG_VALUE: tmp <- R2
	.loc	1 123 0                 # C:/MEGA/HobbyElec/SSDAC/xSSDAC/xTIME/WORKSPACE/module_sd_audio/src/decoupler.xc:123:0
	{
		chkct res[r5], 1
		nop
	}
	.loc	1 123 0                 # C:/MEGA/HobbyElec/SSDAC/xSSDAC/xTIME/WORKSPACE/module_sd_audio/src/decoupler.xc:123:0
	{
		outct res[r5], 1
		add r3, r2, 1
	}
	.loc	1 125 17                # C:/MEGA/HobbyElec/SSDAC/xSSDAC/xTIME/WORKSPACE/module_sd_audio/src/decoupler.xc:125:17
	{
		eq r11, r3, 4
		mov r2, r6
	}
.Ltmp60:
	bt r11, .LBB2_10
.Ltmp61:
# BB#9:                                 # %selectcase
                                        #   in Loop: Header=BB2_3 Depth=1
.Lxtalabel17:
	#DEBUG_VALUE: decoupler:c_buff_control <- R5
	#DEBUG_VALUE: decoupler:c_out <- R4
	.loc	1 125 17                # C:/MEGA/HobbyElec/SSDAC/xSSDAC/xTIME/WORKSPACE/module_sd_audio/src/decoupler.xc:125:17
	{
		mov r2, r3
		nop
	}
.Ltmp62:
.LBB2_10:                               # %selectcase
                                        #   in Loop: Header=BB2_3 Depth=1
.Lxtalabel18:
	#DEBUG_VALUE: decoupler:c_buff_control <- R5
	#DEBUG_VALUE: decoupler:c_out <- R4
	.loc	1 125 0                 # C:/MEGA/HobbyElec/SSDAC/xSSDAC/xTIME/WORKSPACE/module_sd_audio/src/decoupler.xc:125:0
	stw r2, dp[rx_id]
	.loc	1 126 17                # C:/MEGA/HobbyElec/SSDAC/xSSDAC/xTIME/WORKSPACE/module_sd_audio/src/decoupler.xc:126:17
	{
		add r2, r2, 1
		nop
	}
	.loc	1 126 17                # C:/MEGA/HobbyElec/SSDAC/xSSDAC/xTIME/WORKSPACE/module_sd_audio/src/decoupler.xc:126:17
	{
		zext r2, 2
		nop
	}
	#DEBUG_VALUE: state <- 2
	.loc	1 126 17                # C:/MEGA/HobbyElec/SSDAC/xSSDAC/xTIME/WORKSPACE/module_sd_audio/src/decoupler.xc:126:17
	{
		eq r3, r2, r0
		mov r2, r7
	}
	bt r3, .LBB2_12
.Ltmp63:
# BB#11:                                # %selectcase
                                        #   in Loop: Header=BB2_3 Depth=1
.Lxtalabel19:
	#DEBUG_VALUE: decoupler:c_buff_control <- R5
	#DEBUG_VALUE: decoupler:c_out <- R4
	#DEBUG_VALUE: state <- 2
	.loc	1 126 17                # C:/MEGA/HobbyElec/SSDAC/xSSDAC/xTIME/WORKSPACE/module_sd_audio/src/decoupler.xc:126:17
	{
		mov r2, r1
		nop
	}
	bu .LBB2_12
.Ltmp64:
.Ltmp57:                                # Block address taken
.LBB2_13:                               # %selectcase28
                                        #   in Loop: Header=BB2_3 Depth=1
.Lxtalabel20:
	#DEBUG_VALUE: decoupler:c_buff_control <- R5
	#DEBUG_VALUE: decoupler:c_out <- R4
	.loc	1 129 0                 # C:/MEGA/HobbyElec/SSDAC/xSSDAC/xTIME/WORKSPACE/module_sd_audio/src/decoupler.xc:129:0
	{
		mov r0, r4
		nop
	}
.Lxta.call_labels2:
	bl send_sample
	.loc	1 130 17                # C:/MEGA/HobbyElec/SSDAC/xSSDAC/xTIME/WORKSPACE/module_sd_audio/src/decoupler.xc:130:17
	ldw r0, dp[tx_id]
	{
		ldc r1, 4
		nop
	}
	.loc	1 130 17                # C:/MEGA/HobbyElec/SSDAC/xSSDAC/xTIME/WORKSPACE/module_sd_audio/src/decoupler.xc:130:17
	{
		lsu r1, r0, r1
		nop
	}
.Ltrap_info8:
	{
		ecallf r1
		nop
	}
	#DEBUG_VALUE: decoupler:c_buff_control <- R5
	#DEBUG_VALUE: decoupler:c_out <- R4
	.loc	1 130 17                # C:/MEGA/HobbyElec/SSDAC/xSSDAC/xTIME/WORKSPACE/module_sd_audio/src/decoupler.xc:130:17
	ldw r1, dp[byte_ptr]
	{
		nop
		ldw r2, r8[r0]
	}
	.loc	1 130 17                # C:/MEGA/HobbyElec/SSDAC/xSSDAC/xTIME/WORKSPACE/module_sd_audio/src/decoupler.xc:130:17
	{
		eq r2, r1, r2
		mov r1, r10
	}
	bf r2, .LBB2_3
.Ltmp65:
# BB#14:                                # %iftrue44
                                        #   in Loop: Header=BB2_3 Depth=1
.Lxtalabel21:
	#DEBUG_VALUE: decoupler:c_buff_control <- R5
	#DEBUG_VALUE: decoupler:c_out <- R4
	.loc	1 131 0                 # C:/MEGA/HobbyElec/SSDAC/xSSDAC/xTIME/WORKSPACE/module_sd_audio/src/decoupler.xc:131:0
	stw r6, dp[byte_ptr]
	.loc	1 132 0                 # C:/MEGA/HobbyElec/SSDAC/xSSDAC/xTIME/WORKSPACE/module_sd_audio/src/decoupler.xc:132:0
	{
		add r1, r0, 1
		nop
	}
	.loc	1 133 21                # C:/MEGA/HobbyElec/SSDAC/xSSDAC/xTIME/WORKSPACE/module_sd_audio/src/decoupler.xc:133:21
	{
		eq r2, r1, 4
		mov r0, r6
	}
	bt r2, .LBB2_16
.Ltmp66:
# BB#15:                                # %iftrue44
                                        #   in Loop: Header=BB2_3 Depth=1
.Lxtalabel22:
	#DEBUG_VALUE: decoupler:c_buff_control <- R5
	#DEBUG_VALUE: decoupler:c_out <- R4
	.loc	1 133 21                # C:/MEGA/HobbyElec/SSDAC/xSSDAC/xTIME/WORKSPACE/module_sd_audio/src/decoupler.xc:133:21
	{
		mov r0, r1
		nop
	}
.Ltmp67:
.LBB2_16:                               # %iftrue44
                                        #   in Loop: Header=BB2_3 Depth=1
.Lxtalabel23:
	#DEBUG_VALUE: decoupler:c_buff_control <- R5
	#DEBUG_VALUE: decoupler:c_out <- R4
	.loc	1 133 0                 # C:/MEGA/HobbyElec/SSDAC/xSSDAC/xTIME/WORKSPACE/module_sd_audio/src/decoupler.xc:133:0
	stw r0, dp[tx_id]
	.loc	1 134 21                # C:/MEGA/HobbyElec/SSDAC/xSSDAC/xTIME/WORKSPACE/module_sd_audio/src/decoupler.xc:134:21
	ldw r1, dp[rx_id]
.Ltmp68:
	#DEBUG_VALUE: state <- 0
	{
		eq r1, r0, r1
		nop
	}
	{
		eq r1, r1, 0
		nop
	}
	bu .LBB2_3
.Ltmp69:
.LBB2_20:                               # %iftrue70.split
                                        #   in Loop: Header=BB2_3 Depth=1
	#DEBUG_VALUE: decoupler:c_buff_control <- R5
	#DEBUG_VALUE: decoupler:c_out <- R4
	{
		ldc r1, 4
		nop
	}
	.loc	1 140 13                # C:/MEGA/HobbyElec/SSDAC/xSSDAC/xTIME/WORKSPACE/module_sd_audio/src/decoupler.xc:140:13
	{
		lsu r1, r0, r1
		nop
	}
.Ltrap_info9:
	{
		ecallf r1
		nop
	}
	#DEBUG_VALUE: decoupler:c_buff_control <- R5
	#DEBUG_VALUE: decoupler:c_out <- R4
	.loc	1 140 13                # C:/MEGA/HobbyElec/SSDAC/xSSDAC/xTIME/WORKSPACE/module_sd_audio/src/decoupler.xc:140:13
	ldw r1, dp[byte_ptr]
	{
		nop
		ldw r2, r8[r0]
	}
	.loc	1 140 13                # C:/MEGA/HobbyElec/SSDAC/xSSDAC/xTIME/WORKSPACE/module_sd_audio/src/decoupler.xc:140:13
	{
		lsu r1, r1, r2
		nop
	}
	bf r1, .LBB2_17
.Ltmp70:
.LBB2_21:                               # %LoopBody88
                                        #   Parent Loop BB2_3 Depth=1
                                        # =>  This Inner Loop Header: Depth=2
.Lxtalabel24:
	#DEBUG_VALUE: decoupler:c_buff_control <- R5
	#DEBUG_VALUE: decoupler:c_out <- R4
	.loc	1 142 0                 # C:/MEGA/HobbyElec/SSDAC/xSSDAC/xTIME/WORKSPACE/module_sd_audio/src/decoupler.xc:142:0
	{
		mov r0, r4
		nop
	}
.Lxta.call_labels3:
	bl send_sample
	.loc	1 140 13                # C:/MEGA/HobbyElec/SSDAC/xSSDAC/xTIME/WORKSPACE/module_sd_audio/src/decoupler.xc:140:13
	ldw r0, dp[tx_id]
	.loc	1 140 13                # C:/MEGA/HobbyElec/SSDAC/xSSDAC/xTIME/WORKSPACE/module_sd_audio/src/decoupler.xc:140:13
	{
		lsu r1, r9, r0
		nop
	}
.Ltrap_info10:
	{
		ecallt r1
		nop
	}
	#DEBUG_VALUE: decoupler:c_buff_control <- R5
	#DEBUG_VALUE: decoupler:c_out <- R4
	.loc	1 140 13                # C:/MEGA/HobbyElec/SSDAC/xSSDAC/xTIME/WORKSPACE/module_sd_audio/src/decoupler.xc:140:13
	ldw r1, dp[byte_ptr]
	{
		nop
		ldw r2, r8[r0]
	}
	.loc	1 140 13                # C:/MEGA/HobbyElec/SSDAC/xSSDAC/xTIME/WORKSPACE/module_sd_audio/src/decoupler.xc:140:13
	{
		lsu r1, r1, r2
		nop
	}
.Lxta.loop_labels2:
	# LOOPMARKER 0
	bt r1, .LBB2_21
.Ltmp71:
.LBB2_17:                               # %ifdone77
                                        #   in Loop: Header=BB2_3 Depth=1
.Lxtalabel25:
	#DEBUG_VALUE: decoupler:c_buff_control <- R5
	#DEBUG_VALUE: decoupler:c_out <- R4
	.loc	1 144 0                 # C:/MEGA/HobbyElec/SSDAC/xSSDAC/xTIME/WORKSPACE/module_sd_audio/src/decoupler.xc:144:0
	stw r6, dp[byte_ptr]
	.loc	1 145 0                 # C:/MEGA/HobbyElec/SSDAC/xSSDAC/xTIME/WORKSPACE/module_sd_audio/src/decoupler.xc:145:0
	{
		add r1, r0, 1
		nop
	}
	.loc	1 146 13                # C:/MEGA/HobbyElec/SSDAC/xSSDAC/xTIME/WORKSPACE/module_sd_audio/src/decoupler.xc:146:13
	{
		eq r2, r1, 4
		mov r0, r6
	}
	bt r2, .LBB2_19
.Ltmp72:
# BB#18:                                # %ifdone77
                                        #   in Loop: Header=BB2_3 Depth=1
.Lxtalabel26:
	#DEBUG_VALUE: decoupler:c_buff_control <- R5
	#DEBUG_VALUE: decoupler:c_out <- R4
	.loc	1 146 13                # C:/MEGA/HobbyElec/SSDAC/xSSDAC/xTIME/WORKSPACE/module_sd_audio/src/decoupler.xc:146:13
	{
		mov r0, r1
		nop
	}
.Ltmp73:
.LBB2_19:                               # %ifdone77
                                        #   in Loop: Header=BB2_3 Depth=1
.Lxtalabel27:
	#DEBUG_VALUE: decoupler:c_buff_control <- R5
	#DEBUG_VALUE: decoupler:c_out <- R4
	.loc	1 146 0                 # C:/MEGA/HobbyElec/SSDAC/xSSDAC/xTIME/WORKSPACE/module_sd_audio/src/decoupler.xc:146:0
	stw r0, dp[tx_id]
	bu .LBB2_2
.Ltmp74:
.LBB2_1:                                # %iftrue12.split
                                        #   in Loop: Header=BB2_3 Depth=1
	#DEBUG_VALUE: decoupler:c_buff_control <- R5
	#DEBUG_VALUE: decoupler:c_out <- R4
	.loc	1 114 0                 # C:/MEGA/HobbyElec/SSDAC/xSSDAC/xTIME/WORKSPACE/module_sd_audio/src/decoupler.xc:114:0
	{
		chkct res[r5], 1
		nop
	}
	.loc	1 114 0                 # C:/MEGA/HobbyElec/SSDAC/xSSDAC/xTIME/WORKSPACE/module_sd_audio/src/decoupler.xc:114:0
	{
		outct res[r5], 1
		nop
	}
	.loc	1 114 0                 # C:/MEGA/HobbyElec/SSDAC/xSSDAC/xTIME/WORKSPACE/module_sd_audio/src/decoupler.xc:114:0
.Lxta.endpoint_labels7:
	{
		in r0, res[r5]
		nop
	}
.Ltmp75:
	#DEBUG_VALUE: tmp <- R0
	.loc	1 114 0                 # C:/MEGA/HobbyElec/SSDAC/xSSDAC/xTIME/WORKSPACE/module_sd_audio/src/decoupler.xc:114:0
	{
		chkct res[r5], 1
		nop
	}
	.loc	1 114 0                 # C:/MEGA/HobbyElec/SSDAC/xSSDAC/xTIME/WORKSPACE/module_sd_audio/src/decoupler.xc:114:0
	{
		outct res[r5], 1
		add r1, r0, 1
	}
	.loc	1 115 0                 # C:/MEGA/HobbyElec/SSDAC/xSSDAC/xTIME/WORKSPACE/module_sd_audio/src/decoupler.xc:115:0
	ashr r2, r1, 32
	{
		ldc r3, 30
		nop
	}
	{
		shr r2, r2, r3
		nop
	}
	{
		add r2, r1, r2
		nop
	}
	ldw r3, cp[.LCPI2_0]
	{
		and r2, r2, r3
		nop
	}
	{
		sub r1, r1, r2
		nop
	}
	.loc	1 115 0                 # C:/MEGA/HobbyElec/SSDAC/xSSDAC/xTIME/WORKSPACE/module_sd_audio/src/decoupler.xc:115:0
	stw r1, dp[rx_id]
	.loc	1 116 0                 # C:/MEGA/HobbyElec/SSDAC/xSSDAC/xTIME/WORKSPACE/module_sd_audio/src/decoupler.xc:116:0
	stw r0, dp[tx_id]
	.loc	1 117 0                 # C:/MEGA/HobbyElec/SSDAC/xSSDAC/xTIME/WORKSPACE/module_sd_audio/src/decoupler.xc:117:0
	stw r6, dp[byte_ptr]
.Ltmp76:
.LBB2_2:                                # %LoopBody10.outer.outer
                                        #   in Loop: Header=BB2_3 Depth=1
	#DEBUG_VALUE: state <- 1
	{
		mov r1, r10
		nop
	}
	bu .LBB2_3
.LBB2_6:                                # %LoopBody10
                                        # =>This Inner Loop Header: Depth=1
.Lxtalabel28:
	.loc	1 112 9                 # C:/MEGA/HobbyElec/SSDAC/xSSDAC/xTIME/WORKSPACE/module_sd_audio/src/decoupler.xc:112:9
	bu .LBB2_6
.Ltmp77:
	.cc_bottom decoupler.function
	.set	decoupler.nstackwords,(send_sample.nstackwords + 10)
	.globl	decoupler.nstackwords
	.set	decoupler.maxcores,send_sample.maxcores $M 1
	.globl	decoupler.maxcores
	.set	decoupler.maxtimers,send_sample.maxtimers $M 0
	.globl	decoupler.maxtimers
	.set	decoupler.maxchanends,send_sample.maxchanends $M 0
	.globl	decoupler.maxchanends
.Ltmp78:
	.size	decoupler, .Ltmp78-decoupler
.Lfunc_end2:
	.cfi_endproc

	.section	.dp.bss.4,"awd",@nobits
	.cc_top buff_id.data,buff_id
	.globl	buff_id
	.align	4
	.type	buff_id,@object
	.size	buff_id, 4
buff_id:
	.long	0                       # 0x0
	.cc_bottom buff_id.data
	.section	.dp.bss,"awd",@nobits
	.cc_top audio_buffer.data,audio_buffer
	.globl	audio_buffer.globound
audio_buffer.globound = 4
	.globl	audio_buffer
	.align	8
	.type	audio_buffer,@object
	.size	audio_buffer, 8192
audio_buffer:
	.space	8192
	.cc_bottom audio_buffer.data
	.cc_top sm_sample_rate.data,sm_sample_rate
	.globl	sm_sample_rate.globound
sm_sample_rate.globound = 4
	.globl	sm_sample_rate
	.align	8
	.type	sm_sample_rate,@object
	.size	sm_sample_rate, 16
sm_sample_rate:
	.space	16
	.cc_bottom sm_sample_rate.data
	.cc_top sm_ch_count.data,sm_ch_count
	.globl	sm_ch_count.globound
sm_ch_count.globound = 4
	.globl	sm_ch_count
	.align	8
	.type	sm_ch_count,@object
	.size	sm_ch_count, 16
sm_ch_count:
	.space	16
	.cc_bottom sm_ch_count.data
	.cc_top sm_byte_per_sample.data,sm_byte_per_sample
	.globl	sm_byte_per_sample.globound
sm_byte_per_sample.globound = 4
	.globl	sm_byte_per_sample
	.align	8
	.type	sm_byte_per_sample,@object
	.size	sm_byte_per_sample, 16
sm_byte_per_sample:
	.space	16
	.cc_bottom sm_byte_per_sample.data
	.cc_top sm_byte_count.data,sm_byte_count
	.globl	sm_byte_count.globound
sm_byte_count.globound = 4
	.globl	sm_byte_count
	.align	8
	.type	sm_byte_count,@object
	.size	sm_byte_count, 16
sm_byte_count:
	.space	16
	.cc_bottom sm_byte_count.data
	.cc_top sm_new_track.data,sm_new_track
	.globl	sm_new_track.globound
sm_new_track.globound = 4
	.globl	sm_new_track
	.align	8
	.type	sm_new_track,@object
	.size	sm_new_track, 16
sm_new_track:
	.space	16
	.cc_bottom sm_new_track.data
	.section	.dp.bss.4,"awd",@nobits
	.cc_top rx_id.data,rx_id
	.globl	rx_id
	.align	4
	.type	rx_id,@object
	.size	rx_id, 4
rx_id:
	.long	0                       # 0x0
	.cc_bottom rx_id.data
	.cc_top tx_id.data,tx_id
	.globl	tx_id
	.align	4
	.type	tx_id,@object
	.size	tx_id, 4
tx_id:
	.long	0                       # 0x0
	.cc_bottom tx_id.data
	.cc_top byte_ptr.data,byte_ptr
	.globl	byte_ptr
	.align	4
	.type	byte_ptr,@object
	.size	byte_ptr, 4
byte_ptr:
	.long	0                       # 0x0
	.cc_bottom byte_ptr.data
	.cc_top underflowWord.data,underflowWord
	.globl	underflowWord
	.align	4
	.type	underflowWord,@object
	.size	underflowWord, 4
underflowWord:
	.long	0                       # 0x0
	.cc_bottom underflowWord.data
	.section	.dp.data.4,"awd",@progbits
	.cc_top cur_freq.data,cur_freq
	.globl	cur_freq
	.align	4
	.type	cur_freq,@object
	.size	cur_freq, 4
cur_freq:
	.long	44100                   # 0xac44
	.cc_bottom cur_freq.data
	.section	.dp.bss.4,"awd",@nobits
	.cc_top samplesOut.data,samplesOut
	.align	4
	.type	samplesOut,@object
	.size	samplesOut, 8
samplesOut:
	.space	8
	.cc_bottom samplesOut.data
	.cc_top ch.data,ch
	.align	4
	.type	ch,@object
	.size	ch, 4
ch:
	.long	0                       # 0x0
	.cc_bottom ch.data
	.cc_top digit.data,digit
	.align	4
	.type	digit,@object
	.size	digit, 4
digit:
	.long	0                       # 0x0
	.cc_bottom digit.data
	.section	.cp.rodata.4,"ac",@progbits
	.cc_top .str2.data,.str2
	.align	4
	.type	.str2,@object
	.size	.str2, 20
.str2:
.asciiz"\nSET_SAMPLE_FREQ %d"
	.cc_bottom .str2.data
	.section	.dp.bss.4,"awd",@nobits
.Ldebug_end0:
	.section	.dp.bss,"awd",@nobits
.Ldebug_end1:
	.section	.dp.data.4,"awd",@progbits
.Ldebug_end2:
	.text
.Ldebug_end3:
	.file	2 "C:\\Program Files (x86)\\XMOS\\xTIMEcomposer\\Community_14.4.1\\target/include\\timer.h"
	.section	.xtacalltable,"",@progbits
.Lentries_start0:
	.long	.Lentries_end1-.Lentries_start0
	.long	0
	.ascii	"C:\\MEGA\\HobbyElec\\SSDAC\\xSSDAC\\xTIME\\WORKSPACE\\app_sdc_ssdac_xSSDAC-SD-V2\\.build"
	.byte	0
.cc_top cc_0,.Lxta.call_labels0
	.ascii	"C:/MEGA/HobbyElec/SSDAC/xSSDAC/xTIME/WORKSPACE/module_sd_audio/src/decoupler.xc"
	.byte	0
	.long	43
	.long	.Lxta.call_labels0
.cc_bottom cc_0
.cc_top cc_1,.Lxta.call_labels1
	.ascii	"C:/MEGA/HobbyElec/SSDAC/xSSDAC/xTIME/WORKSPACE/module_sd_audio/src/decoupler.xc"
	.byte	0
	.long	57
	.long	.Lxta.call_labels1
.cc_bottom cc_1
.cc_top cc_2,.Lxta.call_labels2
	.ascii	"C:/MEGA/HobbyElec/SSDAC/xSSDAC/xTIME/WORKSPACE/module_sd_audio/src/decoupler.xc"
	.byte	0
	.long	129
	.long	.Lxta.call_labels2
.cc_bottom cc_2
.cc_top cc_3,.Lxta.call_labels3
	.ascii	"C:/MEGA/HobbyElec/SSDAC/xSSDAC/xTIME/WORKSPACE/module_sd_audio/src/decoupler.xc"
	.byte	0
	.long	142
	.long	.Lxta.call_labels3
.cc_bottom cc_3
.Lentries_end1:
	.section	.xtaendpointtable,"",@progbits
.Lentries_start2:
	.long	.Lentries_end3-.Lentries_start2
	.long	0
	.ascii	"C:\\MEGA\\HobbyElec\\SSDAC\\xSSDAC\\xTIME\\WORKSPACE\\app_sdc_ssdac_xSSDAC-SD-V2\\.build"
	.byte	0
.cc_top cc_4,.Lxta.endpoint_labels0
	.ascii	"C:/MEGA/HobbyElec/SSDAC/xSSDAC/xTIME/WORKSPACE/module_sd_audio/src/decoupler.xc"
	.byte	0
	.long	41
	.long	.Lxta.endpoint_labels0
.cc_bottom cc_4
.cc_top cc_5,.Lxta.endpoint_labels1
	.ascii	"C:/MEGA/HobbyElec/SSDAC/xSSDAC/xTIME/WORKSPACE/module_sd_audio/src/decoupler.xc"
	.byte	0
	.long	44
	.long	.Lxta.endpoint_labels1
.cc_bottom cc_5
.cc_top cc_6,.Lxta.endpoint_labels2
	.ascii	"C:/MEGA/HobbyElec/SSDAC/xSSDAC/xTIME/WORKSPACE/module_sd_audio/src/decoupler.xc"
	.byte	0
	.long	45
	.long	.Lxta.endpoint_labels2
.cc_bottom cc_6
.cc_top cc_7,.Lxta.endpoint_labels3
	.ascii	"C:/MEGA/HobbyElec/SSDAC/xSSDAC/xTIME/WORKSPACE/module_sd_audio/src/decoupler.xc"
	.byte	0
	.long	46
	.long	.Lxta.endpoint_labels3
.cc_bottom cc_7
.cc_top cc_8,.Lxta.endpoint_labels4
	.ascii	"C:/MEGA/HobbyElec/SSDAC/xSSDAC/xTIME/WORKSPACE/module_sd_audio/src/decoupler.xc"
	.byte	0
	.long	75
	.long	.Lxta.endpoint_labels4
.cc_bottom cc_8
.cc_top cc_9,.Lxta.endpoint_labels5
	.ascii	"C:/MEGA/HobbyElec/SSDAC/xSSDAC/xTIME/WORKSPACE/module_sd_audio/src/decoupler.xc"
	.byte	0
	.long	78
	.long	.Lxta.endpoint_labels5
.cc_bottom cc_9
.cc_top cc_10,.Lxta.endpoint_labels7
	.ascii	"C:/MEGA/HobbyElec/SSDAC/xSSDAC/xTIME/WORKSPACE/module_sd_audio/src/decoupler.xc"
	.byte	0
	.long	114
	.long	.Lxta.endpoint_labels7
.cc_bottom cc_10
.cc_top cc_11,.Lxta.endpoint_labels6
	.ascii	"C:/MEGA/HobbyElec/SSDAC/xSSDAC/xTIME/WORKSPACE/module_sd_audio/src/decoupler.xc"
	.byte	0
	.long	122
	.long	.Lxta.endpoint_labels6
.cc_bottom cc_11
.Lentries_end3:
	.section	.xtalabeltable,"",@progbits
.Lentries_start4:
	.long	.Lentries_end5-.Lentries_start4
	.long	0
	.ascii	"C:\\MEGA\\HobbyElec\\SSDAC\\xSSDAC\\xTIME\\WORKSPACE\\app_sdc_ssdac_xSSDAC-SD-V2\\.build"
	.byte	0
.cc_top cc_12,.Lxtalabel0
	.ascii	"C:/MEGA/HobbyElec/SSDAC/xSSDAC/xTIME/WORKSPACE/module_sd_audio/src/decoupler.xc"
	.byte	0
	.long	40
	.long	42
	.long	.Lxtalabel0
.cc_bottom cc_12
.cc_top cc_13,.Lxtalabel0
	.ascii	"C:/MEGA/HobbyElec/SSDAC/xSSDAC/xTIME/WORKSPACE/module_sd_audio/src/decoupler.xc"
	.byte	0
	.long	43
	.long	43
	.long	.Lxtalabel0
.cc_bottom cc_13
.cc_top cc_14,.Lxtalabel0
	.ascii	"C:/MEGA/HobbyElec/SSDAC/xSSDAC/xTIME/WORKSPACE/module_sd_audio/src/decoupler.xc"
	.byte	0
	.long	44
	.long	44
	.long	.Lxtalabel0
.cc_bottom cc_14
.cc_top cc_15,.Lxtalabel0
	.ascii	"C:/MEGA/HobbyElec/SSDAC/xSSDAC/xTIME/WORKSPACE/module_sd_audio/src/decoupler.xc"
	.byte	0
	.long	45
	.long	45
	.long	.Lxtalabel0
.cc_bottom cc_15
.cc_top cc_16,.Lxtalabel0
	.ascii	"C:/MEGA/HobbyElec/SSDAC/xSSDAC/xTIME/WORKSPACE/module_sd_audio/src/decoupler.xc"
	.byte	0
	.long	46
	.long	47
	.long	.Lxtalabel0
.cc_bottom cc_16
.cc_top cc_17,.Lxtalabel1
	.ascii	"C:/MEGA/HobbyElec/SSDAC/xSSDAC/xTIME/WORKSPACE/module_sd_audio/src/decoupler.xc"
	.byte	0
	.long	51
	.long	51
	.long	.Lxtalabel1
.cc_bottom cc_17
.cc_top cc_18,.Lxtalabel1
	.ascii	"C:/MEGA/HobbyElec/SSDAC/xSSDAC/xTIME/WORKSPACE/module_sd_audio/src/decoupler.xc"
	.byte	0
	.long	53
	.long	53
	.long	.Lxtalabel1
.cc_bottom cc_18
.cc_top cc_19,.Lxtalabel2
	.ascii	"C:/MEGA/HobbyElec/SSDAC/xSSDAC/xTIME/WORKSPACE/module_sd_audio/src/decoupler.xc"
	.byte	0
	.long	54
	.long	54
	.long	.Lxtalabel2
.cc_bottom cc_19
.cc_top cc_20,.Lxtalabel2
	.ascii	"C:/MEGA/HobbyElec/SSDAC/xSSDAC/xTIME/WORKSPACE/module_sd_audio/src/decoupler.xc"
	.byte	0
	.long	56
	.long	56
	.long	.Lxtalabel2
.cc_bottom cc_20
.cc_top cc_21,.Lxtalabel5
	.ascii	"C:/MEGA/HobbyElec/SSDAC/xSSDAC/xTIME/WORKSPACE/module_sd_audio/src/decoupler.xc"
	.byte	0
	.long	57
	.long	58
	.long	.Lxtalabel5
.cc_bottom cc_21
.cc_top cc_22,.Lxtalabel3
	.ascii	"C:/MEGA/HobbyElec/SSDAC/xSSDAC/xTIME/WORKSPACE/module_sd_audio/src/decoupler.xc"
	.byte	0
	.long	60
	.long	60
	.long	.Lxtalabel3
.cc_bottom cc_22
.cc_top cc_23,.Lxtalabel5
	.ascii	"C:/MEGA/HobbyElec/SSDAC/xSSDAC/xTIME/WORKSPACE/module_sd_audio/src/decoupler.xc"
	.byte	0
	.long	60
	.long	60
	.long	.Lxtalabel5
.cc_bottom cc_23
.cc_top cc_24,.Lxtalabel6
	.ascii	"C:/MEGA/HobbyElec/SSDAC/xSSDAC/xTIME/WORKSPACE/module_sd_audio/src/decoupler.xc"
	.byte	0
	.long	61
	.long	62
	.long	.Lxtalabel6
.cc_bottom cc_24
.cc_top cc_25,.Lxtalabel7
	.ascii	"C:/MEGA/HobbyElec/SSDAC/xSSDAC/xTIME/WORKSPACE/module_sd_audio/src/decoupler.xc"
	.byte	0
	.long	63
	.long	65
	.long	.Lxtalabel7
.cc_bottom cc_25
.cc_top cc_26,.Lxtalabel8
	.ascii	"C:/MEGA/HobbyElec/SSDAC/xSSDAC/xTIME/WORKSPACE/module_sd_audio/src/decoupler.xc"
	.byte	0
	.long	63
	.long	65
	.long	.Lxtalabel8
.cc_bottom cc_26
.cc_top cc_27,.Lxtalabel4
	.ascii	"C:/MEGA/HobbyElec/SSDAC/xSSDAC/xTIME/WORKSPACE/module_sd_audio/src/decoupler.xc"
	.byte	0
	.long	67
	.long	70
	.long	.Lxtalabel4
.cc_bottom cc_27
.cc_top cc_28,.Lxtalabel7
	.ascii	"C:/MEGA/HobbyElec/SSDAC/xSSDAC/xTIME/WORKSPACE/module_sd_audio/src/decoupler.xc"
	.byte	0
	.long	67
	.long	70
	.long	.Lxtalabel7
.cc_bottom cc_28
.cc_top cc_29,.Lxtalabel8
	.ascii	"C:/MEGA/HobbyElec/SSDAC/xSSDAC/xTIME/WORKSPACE/module_sd_audio/src/decoupler.xc"
	.byte	0
	.long	67
	.long	70
	.long	.Lxtalabel8
.cc_bottom cc_29
.cc_top cc_30,.Lxtalabel9
	.ascii	"C:/MEGA/HobbyElec/SSDAC/xSSDAC/xTIME/WORKSPACE/module_sd_audio/src/decoupler.xc"
	.byte	0
	.long	71
	.long	73
	.long	.Lxtalabel9
.cc_bottom cc_30
.cc_top cc_31,.Lxtalabel10
	.ascii	"C:/MEGA/HobbyElec/SSDAC/xSSDAC/xTIME/WORKSPACE/module_sd_audio/src/decoupler.xc"
	.byte	0
	.long	75
	.long	75
	.long	.Lxtalabel10
.cc_bottom cc_31
.cc_top cc_32,.Lxtalabel10
	.ascii	"C:/MEGA/HobbyElec/SSDAC/xSSDAC/xTIME/WORKSPACE/module_sd_audio/src/decoupler.xc"
	.byte	0
	.long	77
	.long	77
	.long	.Lxtalabel10
.cc_bottom cc_32
.cc_top cc_33,.Lxtalabel11
	.ascii	"C:/MEGA/HobbyElec/SSDAC/xSSDAC/xTIME/WORKSPACE/module_sd_audio/src/decoupler.xc"
	.byte	0
	.long	78
	.long	78
	.long	.Lxtalabel11
.cc_bottom cc_33
.cc_top cc_34,.Lxtalabel11
	.ascii	"C:/MEGA/HobbyElec/SSDAC/xSSDAC/xTIME/WORKSPACE/module_sd_audio/src/decoupler.xc"
	.byte	0
	.long	79
	.long	79
	.long	.Lxtalabel11
.cc_bottom cc_34
.cc_top cc_35,.Lxtalabel12
	.ascii	"C:/MEGA/HobbyElec/SSDAC/xSSDAC/xTIME/WORKSPACE/module_sd_audio/src/decoupler.xc"
	.byte	0
	.long	80
	.long	81
	.long	.Lxtalabel12
.cc_bottom cc_35
.cc_top cc_36,.Lxtalabel13
	.ascii	"C:/MEGA/HobbyElec/SSDAC/xSSDAC/xTIME/WORKSPACE/module_sd_audio/src/decoupler.xc"
	.byte	0
	.long	83
	.long	83
	.long	.Lxtalabel13
.cc_bottom cc_36
.cc_top cc_37,.Lxtalabel14
	.ascii	"C:/MEGA/HobbyElec/SSDAC/xSSDAC/xTIME/WORKSPACE/module_sd_audio/src/decoupler.xc"
	.byte	0
	.long	100
	.long	103
	.long	.Lxtalabel14
.cc_bottom cc_37
.cc_top cc_38,.Lxtalabel14
	.ascii	"C:/MEGA/HobbyElec/SSDAC/xSSDAC/xTIME/WORKSPACE/module_sd_audio/src/decoupler.xc"
	.byte	0
	.long	105
	.long	105
	.long	.Lxtalabel14
.cc_bottom cc_38
.cc_top cc_39,.Lxtalabel14
	.ascii	"C:/MEGA/HobbyElec/SSDAC/xSSDAC/xTIME/WORKSPACE/module_sd_audio/src/decoupler.xc"
	.byte	0
	.long	106
	.long	107
	.long	.Lxtalabel14
.cc_bottom cc_39
.cc_top cc_40,.Lxtalabel14
	.ascii	"C:/MEGA/HobbyElec/SSDAC/xSSDAC/xTIME/WORKSPACE/module_sd_audio/src/decoupler.xc"
	.byte	0
	.long	106
	.long	107
	.long	.Lxtalabel14
.cc_bottom cc_40
.cc_top cc_41,.Lxtalabel14
	.ascii	"C:/MEGA/HobbyElec/SSDAC/xSSDAC/xTIME/WORKSPACE/module_sd_audio/src/decoupler.xc"
	.byte	0
	.long	108
	.long	109
	.long	.Lxtalabel14
.cc_bottom cc_41
.cc_top cc_42,.Lxtalabel14
	.ascii	"C:/MEGA/HobbyElec/SSDAC/xSSDAC/xTIME/WORKSPACE/module_sd_audio/src/decoupler.xc"
	.byte	0
	.long	111
	.long	111
	.long	.Lxtalabel14
.cc_bottom cc_42
.cc_top cc_43,.Lxtalabel28
	.ascii	"C:/MEGA/HobbyElec/SSDAC/xSSDAC/xTIME/WORKSPACE/module_sd_audio/src/decoupler.xc"
	.byte	0
	.long	112
	.long	112
	.long	.Lxtalabel28
.cc_bottom cc_43
.cc_top cc_44,.Lxtalabel15
	.ascii	"C:/MEGA/HobbyElec/SSDAC/xSSDAC/xTIME/WORKSPACE/module_sd_audio/src/decoupler.xc"
	.byte	0
	.long	124
	.long	125
	.long	.Lxtalabel15
.cc_bottom cc_44
.cc_top cc_45,.Lxtalabel16
	.ascii	"C:/MEGA/HobbyElec/SSDAC/xSSDAC/xTIME/WORKSPACE/module_sd_audio/src/decoupler.xc"
	.byte	0
	.long	124
	.long	125
	.long	.Lxtalabel16
.cc_bottom cc_45
.cc_top cc_46,.Lxtalabel17
	.ascii	"C:/MEGA/HobbyElec/SSDAC/xSSDAC/xTIME/WORKSPACE/module_sd_audio/src/decoupler.xc"
	.byte	0
	.long	124
	.long	125
	.long	.Lxtalabel17
.cc_bottom cc_46
.cc_top cc_47,.Lxtalabel18
	.ascii	"C:/MEGA/HobbyElec/SSDAC/xSSDAC/xTIME/WORKSPACE/module_sd_audio/src/decoupler.xc"
	.byte	0
	.long	124
	.long	125
	.long	.Lxtalabel18
.cc_bottom cc_47
.cc_top cc_48,.Lxtalabel19
	.ascii	"C:/MEGA/HobbyElec/SSDAC/xSSDAC/xTIME/WORKSPACE/module_sd_audio/src/decoupler.xc"
	.byte	0
	.long	124
	.long	125
	.long	.Lxtalabel19
.cc_bottom cc_48
.cc_top cc_49,.Lxtalabel15
	.ascii	"C:/MEGA/HobbyElec/SSDAC/xSSDAC/xTIME/WORKSPACE/module_sd_audio/src/decoupler.xc"
	.byte	0
	.long	126
	.long	126
	.long	.Lxtalabel15
.cc_bottom cc_49
.cc_top cc_50,.Lxtalabel16
	.ascii	"C:/MEGA/HobbyElec/SSDAC/xSSDAC/xTIME/WORKSPACE/module_sd_audio/src/decoupler.xc"
	.byte	0
	.long	126
	.long	126
	.long	.Lxtalabel16
.cc_bottom cc_50
.cc_top cc_51,.Lxtalabel17
	.ascii	"C:/MEGA/HobbyElec/SSDAC/xSSDAC/xTIME/WORKSPACE/module_sd_audio/src/decoupler.xc"
	.byte	0
	.long	126
	.long	126
	.long	.Lxtalabel17
.cc_bottom cc_51
.cc_top cc_52,.Lxtalabel18
	.ascii	"C:/MEGA/HobbyElec/SSDAC/xSSDAC/xTIME/WORKSPACE/module_sd_audio/src/decoupler.xc"
	.byte	0
	.long	126
	.long	126
	.long	.Lxtalabel18
.cc_bottom cc_52
.cc_top cc_53,.Lxtalabel19
	.ascii	"C:/MEGA/HobbyElec/SSDAC/xSSDAC/xTIME/WORKSPACE/module_sd_audio/src/decoupler.xc"
	.byte	0
	.long	126
	.long	126
	.long	.Lxtalabel19
.cc_bottom cc_53
.cc_top cc_54,.Lxtalabel20
	.ascii	"C:/MEGA/HobbyElec/SSDAC/xSSDAC/xTIME/WORKSPACE/module_sd_audio/src/decoupler.xc"
	.byte	0
	.long	130
	.long	130
	.long	.Lxtalabel20
.cc_bottom cc_54
.cc_top cc_55,.Lxtalabel21
	.ascii	"C:/MEGA/HobbyElec/SSDAC/xSSDAC/xTIME/WORKSPACE/module_sd_audio/src/decoupler.xc"
	.byte	0
	.long	131
	.long	133
	.long	.Lxtalabel21
.cc_bottom cc_55
.cc_top cc_56,.Lxtalabel22
	.ascii	"C:/MEGA/HobbyElec/SSDAC/xSSDAC/xTIME/WORKSPACE/module_sd_audio/src/decoupler.xc"
	.byte	0
	.long	131
	.long	133
	.long	.Lxtalabel22
.cc_bottom cc_56
.cc_top cc_57,.Lxtalabel23
	.ascii	"C:/MEGA/HobbyElec/SSDAC/xSSDAC/xTIME/WORKSPACE/module_sd_audio/src/decoupler.xc"
	.byte	0
	.long	131
	.long	133
	.long	.Lxtalabel23
.cc_bottom cc_57
.cc_top cc_58,.Lxtalabel21
	.ascii	"C:/MEGA/HobbyElec/SSDAC/xSSDAC/xTIME/WORKSPACE/module_sd_audio/src/decoupler.xc"
	.byte	0
	.long	134
	.long	134
	.long	.Lxtalabel21
.cc_bottom cc_58
.cc_top cc_59,.Lxtalabel22
	.ascii	"C:/MEGA/HobbyElec/SSDAC/xSSDAC/xTIME/WORKSPACE/module_sd_audio/src/decoupler.xc"
	.byte	0
	.long	134
	.long	134
	.long	.Lxtalabel22
.cc_bottom cc_59
.cc_top cc_60,.Lxtalabel23
	.ascii	"C:/MEGA/HobbyElec/SSDAC/xSSDAC/xTIME/WORKSPACE/module_sd_audio/src/decoupler.xc"
	.byte	0
	.long	134
	.long	134
	.long	.Lxtalabel23
.cc_bottom cc_60
.cc_top cc_61,.Lxtalabel24
	.ascii	"C:/MEGA/HobbyElec/SSDAC/xSSDAC/xTIME/WORKSPACE/module_sd_audio/src/decoupler.xc"
	.byte	0
	.long	141
	.long	143
	.long	.Lxtalabel24
.cc_bottom cc_61
.cc_top cc_62,.Lxtalabel25
	.ascii	"C:/MEGA/HobbyElec/SSDAC/xSSDAC/xTIME/WORKSPACE/module_sd_audio/src/decoupler.xc"
	.byte	0
	.long	144
	.long	146
	.long	.Lxtalabel25
.cc_bottom cc_62
.cc_top cc_63,.Lxtalabel26
	.ascii	"C:/MEGA/HobbyElec/SSDAC/xSSDAC/xTIME/WORKSPACE/module_sd_audio/src/decoupler.xc"
	.byte	0
	.long	144
	.long	146
	.long	.Lxtalabel26
.cc_bottom cc_63
.cc_top cc_64,.Lxtalabel27
	.ascii	"C:/MEGA/HobbyElec/SSDAC/xSSDAC/xTIME/WORKSPACE/module_sd_audio/src/decoupler.xc"
	.byte	0
	.long	144
	.long	146
	.long	.Lxtalabel27
.cc_bottom cc_64
.cc_top cc_65,.Lxtalabel25
	.ascii	"C:/MEGA/HobbyElec/SSDAC/xSSDAC/xTIME/WORKSPACE/module_sd_audio/src/decoupler.xc"
	.byte	0
	.long	147
	.long	148
	.long	.Lxtalabel25
.cc_bottom cc_65
.cc_top cc_66,.Lxtalabel26
	.ascii	"C:/MEGA/HobbyElec/SSDAC/xSSDAC/xTIME/WORKSPACE/module_sd_audio/src/decoupler.xc"
	.byte	0
	.long	147
	.long	148
	.long	.Lxtalabel26
.cc_bottom cc_66
.cc_top cc_67,.Lxtalabel27
	.ascii	"C:/MEGA/HobbyElec/SSDAC/xSSDAC/xTIME/WORKSPACE/module_sd_audio/src/decoupler.xc"
	.byte	0
	.long	147
	.long	148
	.long	.Lxtalabel27
.cc_bottom cc_67
.Lentries_end5:
	.section	.xtalooplabeltable,"",@progbits
.Lentries_start6:
	.long	.Lentries_end7-.Lentries_start6
	.long	0
	.ascii	"C:\\MEGA\\HobbyElec\\SSDAC\\xSSDAC\\xTIME\\WORKSPACE\\app_sdc_ssdac_xSSDAC-SD-V2\\.build"
	.byte	0
.cc_top cc_68,.Lxta.loop_labels0
	.ascii	"C:/MEGA/HobbyElec/SSDAC/xSSDAC/xTIME/WORKSPACE/module_sd_audio/src/decoupler.xc"
	.byte	0
	.long	61
	.long	62
	.long	.Lxta.loop_labels0
.cc_bottom cc_68
.cc_top cc_69,.Lxta.loop_labels1
	.ascii	"C:/MEGA/HobbyElec/SSDAC/xSSDAC/xTIME/WORKSPACE/module_sd_audio/src/decoupler.xc"
	.byte	0
	.long	78
	.long	78
	.long	.Lxta.loop_labels1
.cc_bottom cc_69
.cc_top cc_70,.Lxta.loop_labels1
	.ascii	"C:/MEGA/HobbyElec/SSDAC/xSSDAC/xTIME/WORKSPACE/module_sd_audio/src/decoupler.xc"
	.byte	0
	.long	79
	.long	79
	.long	.Lxta.loop_labels1
.cc_bottom cc_70
.cc_top cc_71,.Lxta.loop_labels2
	.ascii	"C:/MEGA/HobbyElec/SSDAC/xSSDAC/xTIME/WORKSPACE/module_sd_audio/src/decoupler.xc"
	.byte	0
	.long	141
	.long	143
	.long	.Lxta.loop_labels2
.cc_bottom cc_71
.Lentries_end7:
	.section	.trap_info,"",@progbits
.Ltrap_info_entries_start0:
	.long	.Ltrap_info_entries_end0-.Ltrap_info_entries_start0
	.long	1
	.section	.trap_info_str,"MS",@progbits
.Ltrap_info_str0:
.asciiz"C:/MEGA/HobbyElec/SSDAC/xSSDAC/xTIME/WORKSPACE/module_sd_audio/src/decoupler.xc:42:16: error: out of bounds array access\n    cur_freq = sm_sample_rate[tx_id];\n               ^~~~~~~~~~~~~~~~~~~~~\n"
	.section	.trap_info,"",@progbits
.cc_top cc_trapinfo_0,.Ltrap_info0
	.long	.Ltrap_info0
	.long	.Ltrap_info_str0
.cc_bottom cc_trapinfo_0
	.section	.trap_info_str,"MS",@progbits
.Ltrap_info_str1:
.asciiz"C:/MEGA/HobbyElec/SSDAC/xSSDAC/xTIME/WORKSPACE/module_sd_audio/src/decoupler.xc:53:9: error: out of bounds array access\n    if (sm_new_track[tx_id]==_TRUE){\n        ^~~~~~~~~~~~~~~~~~~\n"
	.section	.trap_info,"",@progbits
.cc_top cc_trapinfo_1,.Ltrap_info1
	.long	.Ltrap_info1
	.long	.Ltrap_info_str1
.cc_bottom cc_trapinfo_1
	.section	.trap_info_str,"MS",@progbits
.Ltrap_info_str2:
.asciiz"C:/MEGA/HobbyElec/SSDAC/xSSDAC/xTIME/WORKSPACE/module_sd_audio/src/decoupler.xc:67:5: error: out of bounds array access\n    samplesOut[ch]= ( samplesOut[ch] << 8 ) + audio_buffer[tx_id][byte_ptr];\n    ^~~~~~~~~~~~~~\n"
	.section	.trap_info,"",@progbits
.cc_top cc_trapinfo_2,.Ltrap_info2
	.long	.Ltrap_info2
	.long	.Ltrap_info_str2
.cc_bottom cc_trapinfo_2
	.section	.trap_info_str,"MS",@progbits
.Ltrap_info_str3:
.asciiz"C:/MEGA/HobbyElec/SSDAC/xSSDAC/xTIME/WORKSPACE/module_sd_audio/src/decoupler.xc:60:28: error: out of bounds array access\n        for (ch = 0 ; ch < sm_ch_count[tx_id] ; ch++ ){\n                           ^~~~~~~~~~~~~~~~~~\n"
	.section	.trap_info,"",@progbits
.cc_top cc_trapinfo_3,.Ltrap_info3
	.long	.Ltrap_info3
	.long	.Ltrap_info_str3
.cc_bottom cc_trapinfo_3
	.section	.trap_info_str,"MS",@progbits
.Ltrap_info_str4:
.asciiz"C:/MEGA/HobbyElec/SSDAC/xSSDAC/xTIME/WORKSPACE/module_sd_audio/src/decoupler.xc:61:13: error: out of bounds array access\n            samplesOut[ch]=0;\n            ^~~~~~~~~~~~~~\n"
	.section	.trap_info,"",@progbits
.cc_top cc_trapinfo_4,.Ltrap_info4
	.long	.Ltrap_info4
	.long	.Ltrap_info_str4
.cc_bottom cc_trapinfo_4
	.section	.trap_info_str,"MS",@progbits
.Ltrap_info_str5:
.asciiz"C:/MEGA/HobbyElec/SSDAC/xSSDAC/xTIME/WORKSPACE/module_sd_audio/src/decoupler.xc:67:47: error: out of bounds array access\n    samplesOut[ch]= ( samplesOut[ch] << 8 ) + audio_buffer[tx_id][byte_ptr];\n                                              ^~~~~~~~~~~~~~~~~~~\n"
	.section	.trap_info,"",@progbits
.cc_top cc_trapinfo_5,.Ltrap_info5
	.long	.Ltrap_info5
	.long	.Ltrap_info_str5
.cc_bottom cc_trapinfo_5
	.section	.trap_info_str,"MS",@progbits
.Ltrap_info_str6:
.asciiz"C:/MEGA/HobbyElec/SSDAC/xSSDAC/xTIME/WORKSPACE/module_sd_audio/src/decoupler.xc:67:47: error: out of bounds array access\n    samplesOut[ch]= ( samplesOut[ch] << 8 ) + audio_buffer[tx_id][byte_ptr];\n                                              ^~~~~~~~~~~~~~~~~~~~~~~~~~~~~\n"
	.section	.trap_info,"",@progbits
.cc_top cc_trapinfo_6,.Ltrap_info6
	.long	.Ltrap_info6
	.long	.Ltrap_info_str6
.cc_bottom cc_trapinfo_6
	.section	.trap_info_str,"MS",@progbits
.Ltrap_info_str7:
.asciiz"C:/MEGA/HobbyElec/SSDAC/xSSDAC/xTIME/WORKSPACE/module_sd_audio/src/decoupler.xc:78:36: error: out of bounds array access\n                outuint(c, byterev(samplesOut[ch]));\n                                   ^~~~~~~~~~~~~~\nC:\\Program Files (x86)\\XMOS\\xTIMEcomposer\\Community_14.4.1\\target/include\\xclib.h:50:45: note: expanded from macro 'byterev'\n#define byterev(x)        __builtin_byterev(x)\n                                            ^\nC:\\Program Files (x86)\\XMOS\\xTIMEcomposer\\Community_14.4.1\\target/include\\xs1.h:968:67: note: expanded from macro 'outuint'\n#define outuint(c, val)                     __builtin_out_uint(c, val)\n                                                                  ^\n"
	.section	.trap_info,"",@progbits
.cc_top cc_trapinfo_7,.Ltrap_info7
	.long	.Ltrap_info7
	.long	.Ltrap_info_str7
.cc_bottom cc_trapinfo_7
	.section	.trap_info_str,"MS",@progbits
.Ltrap_info_str8:
.asciiz"C:/MEGA/HobbyElec/SSDAC/xSSDAC/xTIME/WORKSPACE/module_sd_audio/src/decoupler.xc:130:33: error: out of bounds array access\n                if (byte_ptr == sm_byte_count[tx_id]){\n                                ^~~~~~~~~~~~~~~~~~~~\n"
	.section	.trap_info,"",@progbits
.cc_top cc_trapinfo_8,.Ltrap_info8
	.long	.Ltrap_info8
	.long	.Ltrap_info_str8
.cc_bottom cc_trapinfo_8
	.section	.trap_info_str,"MS",@progbits
.Ltrap_info_str9:
.asciiz"C:/MEGA/HobbyElec/SSDAC/xSSDAC/xTIME/WORKSPACE/module_sd_audio/src/decoupler.xc:140:30: error: out of bounds array access\n            while(byte_ptr < sm_byte_count[tx_id])\n                             ^~~~~~~~~~~~~~~~~~~~\n"
	.section	.trap_info,"",@progbits
.cc_top cc_trapinfo_9,.Ltrap_info9
	.long	.Ltrap_info9
	.long	.Ltrap_info_str9
.cc_bottom cc_trapinfo_9
	.section	.trap_info_str,"MS",@progbits
.Ltrap_info_str10:
.asciiz"C:/MEGA/HobbyElec/SSDAC/xSSDAC/xTIME/WORKSPACE/module_sd_audio/src/decoupler.xc:140:30: error: out of bounds array access\n            while(byte_ptr < sm_byte_count[tx_id])\n                             ^~~~~~~~~~~~~~~~~~~~\n"
	.section	.trap_info,"",@progbits
.cc_top cc_trapinfo_10,.Ltrap_info10
	.long	.Ltrap_info10
	.long	.Ltrap_info_str10
.cc_bottom cc_trapinfo_10
.Ltrap_info_entries_end0: