	.text
	.file	"ff.c"
	.text
	.globl	ff_convert
	.align	4
	.type	ff_convert,@function
	.cc_top ff_convert.function,ff_convert
ff_convert:
.Lfunc_begin0:
	.loc	3 519 0
	.cfi_startproc
	.issue_mode dual
	{
		shr r1, r0, 7
		dualentsp 0
	}
.Ltmp0:
	bf r1, .LBB0_2
.Ltmp1:
	{
		ldc r0, 0
		nop
	}
.Ltmp2:
.LBB0_2:
	{
		nop
		retsp 0
	}
	.loc	3 527 1 prologue_end
.Ltmp3:
	# RETURN_REG_HOLDER
.Ltmp4:
	.cc_bottom ff_convert.function
	.set	ff_convert.nstackwords,0
	.globl	ff_convert.nstackwords
	.set	ff_convert.maxcores,1
	.globl	ff_convert.maxcores
	.set	ff_convert.maxtimers,0
	.globl	ff_convert.maxtimers
	.set	ff_convert.maxchanends,0
	.globl	ff_convert.maxchanends
.Ltmp5:
	.size	ff_convert, .Ltmp5-ff_convert
.Lfunc_end0:
	.cfi_endproc

	.section	.cp.rodata.cst4,"aMc",@progbits,4
	.cc_top .LCPI1_0.data,.LCPI1_0
	.align	4
	.type	.LCPI1_0,@object
	.size	.LCPI1_0, 4
.LCPI1_0:
	.long	4294967199
	.cc_bottom .LCPI1_0.data
	.text
	.globl	ff_wtoupper
	.align	4
	.type	ff_wtoupper,@function
	.cc_top ff_wtoupper.function,ff_wtoupper
ff_wtoupper:
.Lfunc_begin1:
	.loc	3 530 0
	.cfi_startproc
	.issue_mode dual
	{
		shr r1, r0, 7
		dualentsp 0
	}
	.loc	3 531 15 prologue_end
.Ltmp6:
	bt r1, .LBB1_1
.Ltmp7:
	ldw r1, cp[.LCPI1_0]
	.loc	3 533 25
.Ltmp8:
	{
		add r1, r0, r1
		nop
	}
	{
		zext r1, 16
		ldc r2, 25
	}
	.loc	3 533 25
	{
		lsu r1, r2, r1
		nop
	}
	bt r1, .LBB1_4
.Ltmp9:
	ldc r1, 65503
	.loc	3 534 31
.Ltmp10:
	{
		and r0, r0, r1
		nop
	}
.Ltmp11:
.LBB1_4:
	{
		nop
		retsp 0
	}
	.loc	3 541 1
	# RETURN_REG_HOLDER
.LBB1_1:
	{
		ldc r0, 0
		retsp 0
	}
	# RETURN_REG_HOLDER
.Ltmp12:
	.cc_bottom ff_wtoupper.function
	.set	ff_wtoupper.nstackwords,0
	.globl	ff_wtoupper.nstackwords
	.set	ff_wtoupper.maxcores,1
	.globl	ff_wtoupper.maxcores
	.set	ff_wtoupper.maxtimers,0
	.globl	ff_wtoupper.maxtimers
	.set	ff_wtoupper.maxchanends,0
	.globl	ff_wtoupper.maxchanends
.Ltmp13:
	.size	ff_wtoupper, .Ltmp13-ff_wtoupper
.Lfunc_end1:
	.cfi_endproc

	.globl	clust2sect
	.align	4
	.type	clust2sect,@function
	.cc_top clust2sect.function,clust2sect
clust2sect:
.Lfunc_begin2:
	.loc	3 832 0
	.cfi_startproc
	.issue_mode dual
	{
		sub r1, r1, 2
		dualentsp 0
	}
.Ltmp14:
	{
		nop
		ldw r2, r0[7]
	}
	.loc	3 834 7 prologue_end
.Ltmp15:
	{
		sub r2, r2, 2
		nop
	}
	.loc	3 834 7
	{
		lsu r2, r1, r2
		nop
	}
	bf r2, .LBB2_1
.Ltmp16:
	{
		ldc r2, 2
		nop
	}
	{
		nop
		ld8u r2, r0[r2]
	}
	.loc	3 835 3
	mul r1, r2, r1
.Ltmp17:
	{
		nop
		ldw r0, r0[11]
	}
.Ltmp18:
	.loc	3 835 3
	{
		add r0, r1, r0
		retsp 0
	}
	.loc	3 836 1
	# RETURN_REG_HOLDER
.LBB2_1:
	{
		ldc r0, 0
		retsp 0
	}
	# RETURN_REG_HOLDER
.Ltmp19:
	.cc_bottom clust2sect.function
	.set	clust2sect.nstackwords,0
	.globl	clust2sect.nstackwords
	.set	clust2sect.maxcores,1
	.globl	clust2sect.maxcores
	.set	clust2sect.maxtimers,0
	.globl	clust2sect.maxtimers
	.set	clust2sect.maxchanends,0
	.globl	clust2sect.maxchanends
.Ltmp20:
	.size	clust2sect, .Ltmp20-clust2sect
.Lfunc_end2:
	.cfi_endproc

	.section	.cp.rodata.cst4,"aMc",@progbits,4
	.cc_top .LCPI3_0.data,.LCPI3_0
	.align	4
	.type	.LCPI3_0,@object
	.size	.LCPI3_0, 4
.LCPI3_0:
	.long	251658240
	.cc_bottom .LCPI3_0.data
	.text
	.globl	get_fat
	.align	4
	.type	get_fat,@function
	.cc_top get_fat.function,get_fat
get_fat:
.Lfunc_begin3:
	.loc	3 850 0
	.cfi_startproc
	.issue_mode dual
	{
		nop
		dualentsp 10
	}
.Ltmp21:
	.cfi_def_cfa_offset 40
.Ltmp22:
	.cfi_offset 15, 0
	std r5, r4, sp[1]
.Ltmp23:
	.cfi_offset 4, -32
.Ltmp24:
	.cfi_offset 5, -28
	std r7, r6, sp[2]
.Ltmp25:
	.cfi_offset 6, -24
.Ltmp26:
	.cfi_offset 7, -20
	std r9, r8, sp[3]
.Ltmp27:
	.cfi_offset 8, -16
.Ltmp28:
	.cfi_offset 9, -12
.Ltmp29:
	.cfi_offset 10, -8
.Ltmp30:
	{
		mov r6, r1
		stw r10, sp[8]
	}
.Ltmp31:
	{
		mov r5, r0
		ldc r7, 2
	}
.Ltmp32:
	.loc	3 855 7 prologue_end
	{
		lsu r0, r6, r7
		mkmsk r4, 1
	}
	bt r0, .LBB3_14
.Ltmp33:
	{
		nop
		ldw r0, r5[7]
	}
	.loc	3 855 7
	{
		lsu r0, r6, r0
		nop
	}
	bf r0, .LBB3_14
.Ltmp34:
	.loc	3 858 3
	{
		ldc r0, 0
		nop
	}
	{
		nop
		ld8u r0, r5[r0]
	}
	.loc	3 858 3
	{
		eq r1, r0, 3
		mkmsk r4, 32
	}
	.loc	3 858 3
	bt r1, .LBB3_12
.Ltmp35:
	{
		eq r1, r0, 2
		nop
	}
	bf r1, .LBB3_4
.Ltmp36:
	.loc	3 868 9
	{
		shr r1, r6, 8
		ldw r0, r5[9]
	}
	.loc	3 868 9
	{
		add r1, r0, r1
		mov r0, r5
	}
	.loc	3 868 9
	bl move_window
	bt r0, .LBB3_14
.Ltmp37:
	.loc	3 869 5
	{
		shl r0, r6, 1
		nop
	}
	ldc r1, 510
	.loc	3 869 5
	{
		and r0, r0, r1
		ldc r1, 52
	}
	.loc	3 869 5
	{
		add r1, r5, r1
		mkmsk r2, 1
	}
	.loc	3 870 5
	{
		or r2, r0, r2
		nop
	}
	{
		nop
		ld8u r2, r1[r2]
	}
	.loc	3 870 5
	{
		shl r2, r2, 8
		ld8u r0, r1[r0]
	}
	.loc	3 870 5
	{
		or r4, r2, r0
		nop
	}
	bu .LBB3_14
.Ltmp38:
.LBB3_12:
	.loc	3 873 9
	{
		shr r1, r6, 7
		ldw r0, r5[9]
	}
	.loc	3 873 9
	{
		add r1, r0, r1
		mov r0, r5
	}
	.loc	3 873 9
	bl move_window
	bt r0, .LBB3_14
.Ltmp39:
	.loc	3 874 5
	{
		shl r0, r6, 2
		nop
	}
	ldc r1, 508
	.loc	3 874 5
	{
		and r0, r0, r1
		ldc r1, 52
	}
	.loc	3 874 5
	{
		add r1, r5, r1
		mkmsk r2, 2
	}
	.loc	3 875 5
	{
		or r2, r0, r2
		nop
	}
	{
		nop
		ld8u r2, r1[r2]
	}
	.loc	3 875 5
	{
		shl r2, r2, 24
		or r3, r0, r7
	}
	{
		nop
		ld8u r3, r1[r3]
	}
	.loc	3 875 5
	{
		shl r3, r3, 16
		mkmsk r11, 1
	}
	.loc	3 875 5
	{
		or r11, r0, r11
		nop
	}
	{
		nop
		ld8u r11, r1[r11]
	}
	.loc	3 875 5
	{
		shl r11, r11, 8
		ld8u r0, r1[r0]
	}
	ldw r1, cp[.LCPI3_0]
	.loc	3 875 5
	{
		and r1, r2, r1
		nop
	}
	.loc	3 875 5
	{
		or r1, r1, r3
		nop
	}
	.loc	3 875 5
	{
		or r1, r1, r11
		nop
	}
	.loc	3 875 5
	{
		or r4, r1, r0
		nop
	}
	bu .LBB3_14
.Ltmp40:
.LBB3_4:
	{
		eq r0, r0, 1
		nop
	}
	bf r0, .LBB3_14
.Ltmp41:
	.loc	3 860 22
	{
		shr r0, r6, 1
		nop
	}
.Ltmp42:
	.loc	3 860 22
	{
		add r9, r0, r6
		ldw r0, r5[9]
	}
.Ltmp43:
	{
		ldc r10, 9
		nop
	}
	.loc	3 861 9
.Ltmp44:
	{
		shr r1, r9, r10
		nop
	}
	.loc	3 861 9
	{
		add r1, r0, r1
		mov r0, r5
	}
	.loc	3 861 9
	bl move_window
	bt r0, .LBB3_14
.Ltmp45:
	ldc r8, 511
	.loc	3 862 5
	{
		and r0, r9, r8
		nop
	}
	.loc	3 862 5
	{
		add r0, r5, r0
		ldc r7, 52
	}
	{
		nop
		ld8u r0, r0[r7]
	}
	{
		add r9, r9, 1
		stw r0, sp[1]
	}
.Ltmp46:
	.loc	3 863 9
	{
		shr r1, r9, r10
		ldw r0, r5[9]
	}
	.loc	3 863 9
	{
		add r1, r0, r1
		mov r0, r5
	}
	.loc	3 863 9
	bl move_window
	bt r0, .LBB3_14
.Ltmp47:
	.loc	3 864 5
	{
		and r0, r9, r8
		nop
	}
	.loc	3 864 5
	{
		add r0, r5, r0
		nop
	}
	{
		nop
		ld8u r0, r0[r7]
	}
	.loc	3 864 5
	{
		shl r0, r0, 8
		ldw r1, sp[1]
	}
.Ltmp48:
	.loc	3 864 5
	{
		or r0, r0, r1
		zext r6, 1
	}
.Ltmp49:
	.loc	3 865 5
	bt r6, .LBB3_8
.Ltmp50:
	ldc r1, 4095
	.loc	3 865 5
	{
		and r4, r0, r1
		nop
	}
	bu .LBB3_14
.Ltmp51:
.LBB3_8:
	.loc	3 865 5
	{
		shr r4, r0, 4
		nop
	}
.Ltmp52:
.LBB3_14:
	.loc	3 879 1
	{
		mov r0, r4
		ldw r10, sp[8]
	}
	ldd r9, r8, sp[3]
	ldd r7, r6, sp[2]
	ldd r5, r4, sp[1]
	{
		nop
		retsp 10
	}
	# RETURN_REG_HOLDER
.Ltmp53:
	.cc_bottom get_fat.function
	.set	get_fat.nstackwords,(move_window.nstackwords + 10)
	.globl	get_fat.nstackwords
	.set	get_fat.maxcores,move_window.maxcores $M 1
	.globl	get_fat.maxcores
	.set	get_fat.maxtimers,move_window.maxtimers $M 0
	.globl	get_fat.maxtimers
	.set	get_fat.maxchanends,move_window.maxchanends $M 0
	.globl	get_fat.maxchanends
.Ltmp54:
	.size	get_fat, .Ltmp54-get_fat
.Lfunc_end3:
	.cfi_endproc

	.align	4
	.type	move_window,@function
	.cc_top move_window.function,move_window
move_window:
.Lfunc_begin4:
	.loc	3 750 0
	.cfi_startproc
	.issue_mode dual
	{
		nop
		dualentsp 10
	}
.Ltmp55:
	.cfi_def_cfa_offset 40
.Ltmp56:
	.cfi_offset 15, 0
	std r5, r4, sp[1]
.Ltmp57:
	.cfi_offset 4, -32
.Ltmp58:
	.cfi_offset 5, -28
	std r7, r6, sp[2]
.Ltmp59:
	.cfi_offset 6, -24
.Ltmp60:
	.cfi_offset 7, -20
	std r9, r8, sp[3]
.Ltmp61:
	.cfi_offset 8, -16
.Ltmp62:
	.cfi_offset 9, -12
.Ltmp63:
	.cfi_offset 10, -8
.Ltmp64:
	{
		mov r4, r1
		stw r10, sp[8]
	}
.Ltmp65:
	{
		mov r5, r0
		ldc r0, 48
	}
.Ltmp66:
	.loc	3 754 3 prologue_end
	{
		add r10, r5, r0
		nop
	}
	{
		nop
		ldw r6, r10[0]
	}
.Ltmp67:
	.loc	3 755 7
	{
		eq r0, r6, r4
		ldc r8, 0
	}
	bt r0, .LBB4_12
.Ltmp68:
	{
		ldc r9, 4
		nop
	}
	{
		nop
		ld8u r0, r5[r9]
	}
	bf r0, .LBB4_8
.Ltmp69:
	{
		ldc r0, 52
		nop
	}
	.loc	3 758 11
.Ltmp70:
	{
		add r7, r5, r0
		mkmsk r8, 1
	}
	.loc	3 758 11
	{
		mov r1, r7
		ld8u r0, r5[r8]
	}
	{
		mov r2, r6
		mov r3, r8
	}
	bl disk_write
	bt r0, .LBB4_12
.Ltmp71:
	{
		ldc r0, 0
		nop
	}
	.loc	3 760 7
	st8 r0, r5[r9]
	{
		nop
		ldw r1, r5[9]
	}
	{
		nop
		ldw r0, r5[8]
	}
	.loc	3 761 11
.Ltmp72:
	{
		add r1, r0, r1
		nop
	}
	.loc	3 761 11
	{
		lsu r1, r6, r1
		nop
	}
	bf r1, .LBB4_8
.Ltmp73:
	{
		mkmsk r1, 2
		nop
	}
	.loc	3 763 14
.Ltmp74:
	{
		ldc r1, 2
		ld8u r9, r5[r1]
	}
	{
		lsu r1, r9, r1
		nop
	}
	bt r1, .LBB4_8
.Ltmp75:
	{
		mkmsk r8, 1
		nop
	}
	bu .LBB4_6
.Ltmp76:
.LBB4_7:
	{
		nop
		ldw r0, r5[8]
	}
.Ltmp77:
.LBB4_6:
	.loc	3 764 11
	{
		add r6, r0, r6
		ld8u r0, r5[r8]
	}
.Ltmp78:
	.loc	3 765 11
	{
		mov r1, r7
		mov r2, r6
	}
	{
		mov r3, r8
		nop
	}
	bl disk_write
.Ltmp79:
	.loc	3 763 39
	{
		sub r9, r9, 1
		nop
	}
	{
		mov r0, r9
		nop
	}
	{
		zext r0, 8
		ldc r1, 2
	}
	.loc	3 763 9
	{
		lsu r0, r0, r1
		nop
	}
	bf r0, .LBB4_7
.Ltmp80:
.LBB4_8:
	bf r4, .LBB4_11
.Ltmp81:
	{
		ldc r0, 52
		nop
	}
	.loc	3 771 11
.Ltmp82:
	{
		add r1, r5, r0
		mkmsk r8, 1
	}
	.loc	3 771 11
	{
		mov r2, r4
		ld8u r0, r5[r8]
	}
	{
		mov r3, r8
		nop
	}
	bl disk_read
	bt r0, .LBB4_12
.Ltmp83:
	{
		nop
		stw r4, r10[0]
	}
.Ltmp84:
.LBB4_11:
	{
		ldc r8, 0
		nop
	}
.LBB4_12:
	.loc	3 778 1
	{
		mov r0, r8
		ldw r10, sp[8]
	}
	ldd r9, r8, sp[3]
	ldd r7, r6, sp[2]
	ldd r5, r4, sp[1]
	{
		nop
		retsp 10
	}
	# RETURN_REG_HOLDER
.Ltmp85:
	.cc_bottom move_window.function
	.set	move_window.nstackwords,((disk_read.nstackwords $M disk_write.nstackwords) + 10)
	.set	move_window.maxcores,disk_read.maxcores $M disk_write.maxcores $M 1
	.set	move_window.maxtimers,disk_read.maxtimers $M disk_write.maxtimers $M 0
	.set	move_window.maxchanends,disk_read.maxchanends $M disk_write.maxchanends $M 0
.Ltmp86:
	.size	move_window, .Ltmp86-move_window
.Lfunc_end4:
	.cfi_endproc

	.section	.cp.rodata.cst4,"aMc",@progbits,4
	.cc_top .LCPI5_0.data,.LCPI5_0
	.align	4
	.type	.LCPI5_0,@object
	.size	.LCPI5_0, 4
.LCPI5_0:
	.long	4026531840
	.cc_bottom .LCPI5_0.data
	.text
	.globl	put_fat
	.align	4
	.type	put_fat,@function
	.cc_top put_fat.function,put_fat
put_fat:
.Lfunc_begin5:
	.loc	3 894 0
	.cfi_startproc
	.issue_mode dual
	{
		nop
		dualentsp 10
	}
.Ltmp87:
	.cfi_def_cfa_offset 40
.Ltmp88:
	.cfi_offset 15, 0
	std r5, r4, sp[1]
.Ltmp89:
	.cfi_offset 4, -32
.Ltmp90:
	.cfi_offset 5, -28
	std r7, r6, sp[2]
.Ltmp91:
	.cfi_offset 6, -24
.Ltmp92:
	.cfi_offset 7, -20
	std r9, r8, sp[3]
.Ltmp93:
	.cfi_offset 8, -16
.Ltmp94:
	.cfi_offset 9, -12
.Ltmp95:
	.cfi_offset 10, -8
.Ltmp96:
	{
		mov r5, r2
		stw r10, sp[8]
	}
.Ltmp97:
	{
		mov r6, r1
		mov r4, r0
	}
.Ltmp98:
	{
		ldc r0, 2
		nop
	}
	.loc	3 900 7 prologue_end
.Ltmp99:
	{
		lsu r1, r6, r0
		nop
	}
	bt r1, .LBB5_21
.Ltmp100:
	{
		nop
		ldw r1, r4[7]
	}
	.loc	3 900 7
	{
		lsu r1, r6, r1
		nop
	}
	bf r1, .LBB5_21
.Ltmp101:
	.loc	3 904 5
	{
		ldc r7, 0
		nop
	}
	{
		nop
		ld8u r0, r4[r7]
	}
	.loc	3 904 5
	{
		eq r1, r0, 3
		nop
	}
	.loc	3 904 5
	bt r1, .LBB5_17
.Ltmp102:
	{
		eq r1, r0, 2
		nop
	}
	bf r1, .LBB5_4
.Ltmp103:
	.loc	3 920 13
	{
		shr r1, r6, 8
		ldw r0, r4[9]
	}
	.loc	3 920 13
	{
		add r1, r0, r1
		mov r0, r4
	}
	.loc	3 920 13
	bl move_window
.Ltmp104:
	bt r0, .LBB5_20
.Ltmp105:
	.loc	3 922 7
	{
		shl r0, r6, 1
		nop
	}
	ldc r1, 510
	.loc	3 922 7
	{
		and r0, r0, r1
		ldc r1, 52
	}
	.loc	3 922 7
	{
		add r1, r4, r1
		nop
	}
	.loc	3 923 7
	st8 r5, r1[r0]
	.loc	3 923 7
	{
		shr r2, r5, 8
		mkmsk r3, 1
	}
	.loc	3 923 7
	{
		or r0, r0, r3
		nop
	}
	.loc	3 923 7
	st8 r2, r1[r0]
	bu .LBB5_19
.Ltmp106:
.LBB5_17:
	.loc	3 927 13
	{
		shr r1, r6, 7
		ldw r0, r4[9]
	}
	.loc	3 927 13
	{
		add r1, r0, r1
		mov r0, r4
	}
	.loc	3 927 13
	bl move_window
.Ltmp107:
	bt r0, .LBB5_20
.Ltmp108:
	.loc	3 929 7
	{
		shl r0, r6, 2
		nop
	}
	ldc r1, 508
	.loc	3 929 7
	{
		and r0, r0, r1
		ldc r1, 52
	}
	.loc	3 929 7
	{
		add r1, r4, r1
		mkmsk r2, 2
	}
	.loc	3 930 7
	{
		or r2, r0, r2
		nop
	}
	{
		nop
		ld8u r3, r1[r2]
	}
	.loc	3 930 7
	{
		shl r3, r3, 24
		ldc r11, 2
	}
	.loc	3 930 7
	{
		or r11, r0, r11
		mkmsk r6, 1
	}
.Ltmp109:
	.loc	3 930 7
	{
		or r6, r0, r6
		nop
	}
	ldw r8, cp[.LCPI5_0]
	.loc	3 930 7
	{
		and r3, r3, r8
		nop
	}
	.loc	3 930 7
	{
		or r3, r3, r5
		nop
	}
.Ltmp110:
	.loc	3 931 7
	st8 r5, r1[r0]
	.loc	3 931 7
	{
		shr r0, r5, 8
		nop
	}
	.loc	3 931 7
	st8 r0, r1[r6]
	.loc	3 931 7
	{
		shr r0, r5, 16
		nop
	}
	.loc	3 931 7
	st8 r0, r1[r11]
	.loc	3 931 7
	{
		shr r0, r3, 24
		nop
	}
	.loc	3 931 7
	st8 r0, r1[r2]
.Ltmp111:
.LBB5_19:
	{
		mov r0, r7
		nop
	}
	bu .LBB5_20
.LBB5_4:
.Ltmp112:
	{
		eq r0, r0, 1
		nop
	}
	bf r0, .LBB5_5
.Ltmp113:
	.loc	3 906 18
	{
		shr r0, r6, 1
		nop
	}
.Ltmp114:
	.loc	3 906 18
	{
		add r9, r0, r6
		ldw r0, r4[9]
	}
.Ltmp115:
	{
		ldc r8, 9
		nop
	}
	.loc	3 907 13
	{
		shr r1, r9, r8
		nop
	}
	.loc	3 907 13
	{
		add r1, r0, r1
		mov r0, r4
	}
	.loc	3 907 13
	bl move_window
.Ltmp116:
	bt r0, .LBB5_20
.Ltmp117:
	ldc r0, 511
	.loc	3 909 7
	{
		and r0, r9, r0
		nop
	}
	.loc	3 909 7
	{
		add r0, r4, r0
		ldc r10, 52
	}
.Ltmp118:
	{
		add r0, r0, r10
		zext r6, 1
	}
.Ltmp119:
	.loc	3 910 7
	bf r6, .LBB5_9
.Ltmp120:
	.loc	3 910 7
	{
		ldc r1, 0
		nop
	}
	{
		nop
		ld8u r1, r0[r1]
	}
	.loc	3 910 7
	{
		zext r1, 4
		shl r2, r5, 4
	}
	ldc r3, 4080
	.loc	3 910 7
	{
		and r2, r2, r3
		nop
	}
	.loc	3 910 7
	{
		or r1, r1, r2
		nop
	}
	bu .LBB5_10
.Ltmp121:
.LBB5_5:
	{
		ldc r0, 2
		nop
	}
	bu .LBB5_20
.Ltmp122:
.LBB5_9:
	.loc	3 910 7
	{
		mov r1, r5
		nop
	}
	{
		zext r1, 8
		nop
	}
.Ltmp123:
.LBB5_10:
	.loc	3 910 7
	st8 r1, r0[r7]
	.loc	3 911 7
	{
		add r9, r9, 1
		ldc r0, 4
	}
.Ltmp124:
	{
		mkmsk r1, 1
		nop
	}
	.loc	3 912 7
	st8 r1, r4[r0]
	.loc	3 913 13
	{
		shr r1, r9, r8
		ldw r0, r4[9]
	}
	.loc	3 913 13
	{
		add r1, r0, r1
		mov r0, r4
	}
	.loc	3 913 13
	bl move_window
.Ltmp125:
	bf r0, .LBB5_11
.Ltmp126:
.LBB5_20:
	{
		ldc r1, 4
		mkmsk r2, 1
	}
	.loc	3 937 5
	st8 r2, r4[r1]
.Ltmp127:
.LBB5_21:
	{
		nop
		ldw r10, sp[8]
	}
	.loc	3 940 3
	ldd r9, r8, sp[3]
	ldd r7, r6, sp[2]
	ldd r5, r4, sp[1]
	{
		nop
		retsp 10
	}
	# RETURN_REG_HOLDER
.LBB5_11:
.Ltmp128:
	ldc r0, 511
	.loc	3 915 7
.Ltmp129:
	{
		and r0, r9, r0
		nop
	}
	.loc	3 915 7
	{
		add r0, r4, r0
		nop
	}
	{
		add r0, r0, r10
		nop
	}
.Ltmp130:
	.loc	3 916 7
	bf r6, .LBB5_13
.Ltmp131:
	.loc	3 916 7
	{
		shr r1, r5, 4
		nop
	}
	.loc	3 916 7
	{
		zext r1, 8
		nop
	}
	.loc	3 916 7
	st8 r1, r0[r7]
	bu .LBB5_19
.Ltmp132:
.LBB5_13:
	{
		nop
		ld8u r1, r0[r7]
	}
	ldc r2, 240
	.loc	3 916 7
	{
		and r1, r1, r2
		shr r2, r5, 8
	}
	.loc	3 916 7
	{
		zext r2, 4
		nop
	}
	.loc	3 916 7
	{
		or r1, r1, r2
		nop
	}
	.loc	3 916 7
	st8 r1, r0[r7]
	bu .LBB5_19
.Ltmp133:
	.cc_bottom put_fat.function
	.set	put_fat.nstackwords,(move_window.nstackwords + 10)
	.globl	put_fat.nstackwords
	.set	put_fat.maxcores,move_window.maxcores $M 1
	.globl	put_fat.maxcores
	.set	put_fat.maxtimers,move_window.maxtimers $M 0
	.globl	put_fat.maxtimers
	.set	put_fat.maxchanends,move_window.maxchanends $M 0
	.globl	put_fat.maxchanends
.Ltmp134:
	.size	put_fat, .Ltmp134-put_fat
.Lfunc_end5:
	.cfi_endproc

	.globl	gen_numname
	.align	4
	.type	gen_numname,@function
	.cc_top gen_numname.function,gen_numname
gen_numname:
.Lfunc_begin6:
	.loc	3 1318 0
	.cfi_startproc
	.issue_mode dual
	{
		nop
		dualentsp 10
	}
.Ltmp135:
	.cfi_def_cfa_offset 40
.Ltmp136:
	.cfi_offset 15, 0
	std r5, r4, sp[1]
.Ltmp137:
	.cfi_offset 4, -32
.Ltmp138:
	.cfi_offset 5, -28
	std r7, r6, sp[2]
.Ltmp139:
	.cfi_offset 6, -24
.Ltmp140:
	.cfi_offset 7, -20
	std r9, r8, sp[3]
.Ltmp141:
	.cfi_offset 8, -16
.Ltmp142:
	.cfi_offset 9, -12
.Ltmp143:
	.cfi_offset 10, -8
.Ltmp144:
	{
		ldc r11, 0
		stw r10, sp[8]
	}
	{
		nop
		ld8u r4, r1[r11]
	}
	.loc	3 568 5 prologue_end
.Ltmp145:
	st8 r4, r0[r11]
	{
		mkmsk r4, 1
		nop
	}
	{
		nop
		ld8u r5, r1[r4]
	}
	.loc	3 568 5
	st8 r5, r0[r4]
	{
		ldc r4, 2
		nop
	}
	{
		nop
		ld8u r5, r1[r4]
	}
	.loc	3 568 5
	st8 r5, r0[r4]
	{
		mkmsk r4, 2
		nop
	}
	{
		nop
		ld8u r5, r1[r4]
	}
	.loc	3 568 5
	st8 r5, r0[r4]
	{
		ldc r4, 4
		nop
	}
	{
		nop
		ld8u r5, r1[r4]
	}
	.loc	3 568 5
	st8 r5, r0[r4]
	{
		ldc r4, 5
		nop
	}
	{
		nop
		ld8u r5, r1[r4]
	}
	.loc	3 568 5
	st8 r5, r0[r4]
	{
		ldc r6, 6
		nop
	}
	{
		nop
		ld8u r4, r1[r6]
	}
	.loc	3 568 5
	st8 r4, r0[r6]
	{
		mkmsk r5, 3
		nop
	}
	{
		nop
		ld8u r4, r1[r5]
	}
	.loc	3 568 5
	st8 r4, r0[r5]
	{
		ldc r4, 8
		nop
	}
	{
		nop
		ld8u r7, r1[r4]
	}
	.loc	3 568 5
	st8 r7, r0[r4]
	{
		ldc r7, 9
		nop
	}
	{
		nop
		ld8u r8, r1[r7]
	}
	.loc	3 568 5
	st8 r8, r0[r7]
	{
		ldc r7, 10
		nop
	}
	{
		nop
		ld8u r1, r1[r7]
	}
.Ltmp146:
	.loc	3 568 5
	st8 r1, r0[r7]
.Ltmp147:
	.loc	3 1325 7
	{
		lsu r1, r3, r6
		nop
	}
	bt r1, .LBB6_3
.Ltmp148:
	.loc	3 1326 8
	{
		ldc r1, 0
		nop
	}
	{
		add r2, r2, 2
		ld16s r6, r2[r1]
	}
.Ltmp149:
	{
		mkmsk r7, 4
		nop
	}
.Ltmp150:
.LBB6_2:
	.loc	3 1326 8
	{
		zext r3, 16
		nop
	}
	.loc	3 1326 8
	{
		shr r8, r3, 1
		shl r3, r3, r7
	}
	.loc	3 1326 8
	{
		or r3, r8, r3
		zext r6, 16
	}
	.loc	3 1326 8
	{
		add r3, r3, r6
		ld16s r6, r2[r1]
	}
	.loc	3 1326 8
	{
		zext r6, 16
		add r2, r2, 2
	}
	.loc	3 1326 8
	bt r6, .LBB6_2
.Ltmp151:
.LBB6_3:
	{
		mov r2, r5
		nop
	}
	ldc r1, 65520
	.loc	3 1332 5
.Ltmp152:
	{
		and r6, r3, r1
		zext r3, 4
	}
	{
		ldc r1, 48
		nop
	}
	.loc	3 1332 5
	{
		or r3, r3, r1
		ldc r1, 57
	}
	.loc	3 1333 9
.Ltmp153:
	{
		lsu r1, r1, r3
		nop
	}
	bf r1, .LBB6_5
	.loc	3 1333 18
	{
		add r3, r3, 7
		nop
	}
.Ltmp154:
.LBB6_5:
	.loc	3 1334 5
	{
		sub r5, r2, 1
		ldaw r1, sp[0]
	}
	.loc	3 1334 5
	st8 r3, r1[r2]
	.loc	3 1335 5
	{
		shr r3, r6, 4
		nop
	}
	bt r3, .LBB6_3
.Ltmp155:
	ldc r3, 126
.Ltmp156:
	.loc	3 1337 3
	st8 r3, r1[r5]
	.loc	3 1340 3
.Ltmp157:
	bf r5, .LBB6_7
.Ltmp158:
	.loc	3 1342 11
	{
		sub r2, r2, 2
		ldc r3, 32
	}
	{
		mkmsk r6, 7
		mkmsk r7, 5
	}
	{
		ldc r8, 28
		nop
	}
.Ltmp159:
.LBB6_9:
	{
		nop
		ld8u r9, r0[r11]
	}
	.loc	3 1340 3
	{
		eq r10, r9, r3
		nop
	}
	bt r10, .LBB6_16
.Ltmp160:
	.loc	3 1341 9
	{
		add r10, r9, r6
		nop
	}
	{
		zext r10, 8
		nop
	}
	.loc	3 1341 9
	{
		lsu r10, r10, r7
		nop
	}
	bt r10, .LBB6_12
.Ltmp161:
	ldaw r9, r9[8]
	{
		zext r9, 8
		nop
	}
	{
		lsu r9, r8, r9
		nop
	}
	bt r9, .LBB6_15
.Ltmp162:
.LBB6_12:
	.loc	3 1342 11
	{
		eq r9, r11, r2
		nop
	}
	.loc	3 1342 11
	bt r9, .LBB6_13
.Ltmp163:
	.loc	3 1343 7
	{
		add r11, r11, 1
		nop
	}
.Ltmp164:
.LBB6_15:
	.loc	3 1340 39
	{
		add r11, r11, 1
		nop
	}
.Ltmp165:
	.loc	3 1340 3
	{
		lsu r9, r11, r5
		nop
	}
	bt r9, .LBB6_9
	bu .LBB6_16
.Ltmp166:
.LBB6_7:
	{
		mov r5, r11
		nop
	}
	bu .LBB6_16
.LBB6_13:
.Ltmp167:
	{
		mov r11, r2
		nop
	}
.Ltmp168:
.LBB6_16:
	{
		mkmsk r2, 3
		nop
	}
	.loc	3 1347 5
.Ltmp169:
	{
		lsu r2, r2, r5
		nop
	}
	bt r2, .LBB6_17
.Ltmp170:
	.loc	3 1347 5
	{
		add r3, r5, 1
		ld8u r2, r1[r5]
	}
.Ltmp171:
	{
		mov r5, r3
		nop
	}
.Ltmp172:
	bu .LBB6_19
.Ltmp173:
.LBB6_17:
	{
		ldc r2, 32
		nop
	}
.LBB6_19:
	.loc	3 1347 5
	{
		add r3, r11, 1
		nop
	}
.Ltmp174:
	.loc	3 1347 5
	st8 r2, r0[r11]
.Ltmp175:
	.loc	3 1348 3
	{
		lsu r2, r3, r4
		mov r11, r3
	}
.Ltmp176:
	bt r2, .LBB6_16
.Ltmp177:
	{
		nop
		ldw r10, sp[8]
	}
	.loc	3 1349 1
	ldd r9, r8, sp[3]
	ldd r7, r6, sp[2]
	ldd r5, r4, sp[1]
	{
		nop
		retsp 10
	}
	# RETURN_REG_HOLDER
.Ltmp178:
	.cc_bottom gen_numname.function
	.set	gen_numname.nstackwords,10
	.globl	gen_numname.nstackwords
	.set	gen_numname.maxcores,1
	.globl	gen_numname.maxcores
	.set	gen_numname.maxtimers,0
	.globl	gen_numname.maxtimers
	.set	gen_numname.maxchanends,0
	.globl	gen_numname.maxchanends
.Ltmp179:
	.size	gen_numname, .Ltmp179-gen_numname
.Lfunc_end6:
	.cfi_endproc

	.globl	f_mount
	.align	4
	.type	f_mount,@function
	.cc_top f_mount.function,f_mount
f_mount:
.Lfunc_begin7:
	.loc	3 2235 0
	.cfi_startproc
	.issue_mode dual
	{
		nop
		dualentsp 0
	}
	.loc	3 2239 7 prologue_end
.Ltmp180:
	bf r0, .LBB7_2
.Ltmp181:
	{
		ldc r0, 11
		retsp 0
	}
	.loc	3 2262 1
	# RETURN_REG_HOLDER
.LBB7_2:
	.loc	3 2241 3
	ldw r0, dp[FatFs]
.Ltmp182:
	bf r0, .LBB7_4
.Ltmp183:
	.loc	3 2250 5
	{
		ldc r2, 0
		nop
	}
	st8 r2, r0[r2]
.Ltmp184:
.LBB7_4:
	bf r1, .LBB7_6
	.loc	3 2254 5
.Ltmp185:
	{
		ldc r0, 0
		nop
	}
	st8 r0, r1[r0]
.Ltmp186:
.LBB7_6:
	.loc	3 2259 3
	stw r1, dp[FatFs]
	{
		ldc r0, 0
		retsp 0
	}
	.loc	3 2262 1
	# RETURN_REG_HOLDER
.Ltmp187:
	.cc_bottom f_mount.function
	.set	f_mount.nstackwords,0
	.globl	f_mount.nstackwords
	.set	f_mount.maxcores,1
	.globl	f_mount.maxcores
	.set	f_mount.maxtimers,0
	.globl	f_mount.maxtimers
	.set	f_mount.maxchanends,0
	.globl	f_mount.maxchanends
.Ltmp188:
	.size	f_mount, .Ltmp188-f_mount
.Lfunc_end7:
	.cfi_endproc

	.globl	f_open
	.align	4
	.type	f_open,@function
	.cc_top f_open.function,f_open
f_open:
.Lfunc_begin8:
	.loc	3 2276 0
	.cfi_startproc
	.issue_mode dual
	{
		nop
		dualentsp 26
	}
.Ltmp189:
	.cfi_def_cfa_offset 104
.Ltmp190:
	.cfi_offset 15, 0
	std r5, r4, sp[9]
.Ltmp191:
	.cfi_offset 4, -32
.Ltmp192:
	.cfi_offset 5, -28
	std r7, r6, sp[10]
.Ltmp193:
	.cfi_offset 6, -24
.Ltmp194:
	.cfi_offset 7, -20
	std r9, r8, sp[11]
.Ltmp195:
	.cfi_offset 8, -16
.Ltmp196:
	.cfi_offset 9, -12
.Ltmp197:
	.cfi_offset 10, -8
.Ltmp198:
	{
		mov r6, r2
		stw r10, sp[24]
	}
.Ltmp199:
	{
		mov r4, r0
		stw r1, sp[17]
	}
.Ltmp200:
	{
		ldc r9, 0
		nop
	}
	.loc	3 2283 3 prologue_end
.Ltmp201:
	{
		ldc r10, 30
		stw r9, r4[0]
	}
.Ltmp202:
	.loc	3 2287 9
	{
		and r2, r6, r10
		ldaw r0, sp[17]
	}
.Ltmp203:
	{
		ldaw r1, sp[8]
		nop
	}
	.loc	3 2287 9
	bl chk_mounted
.Ltmp204:
	{
		ldaw r1, sp[5]
		nop
	}
	{
		nop
		stw r1, sp[14]
	}
	.loc	3 2292 3
.Ltmp205:
	ldaw r1, dp[LfnBuf]
	{
		nop
		stw r1, sp[15]
	}
	bt r0, .LBB8_2
.Ltmp206:
	.loc	3 2294 11
	{
		ldaw r0, sp[8]
		ldw r1, sp[17]
	}
.Ltmp207:
	.loc	3 2294 11
	bl follow_path
.Ltmp208:
.LBB8_2:
	{
		nop
		ldw r8, sp[13]
	}
.Ltmp209:
	{
		or r1, r0, r8
		nop
	}
.Ltmp210:
	bt r1, .LBB8_4
.Ltmp211:
	{
		ldc r0, 6
		nop
	}
.Ltmp212:
.LBB8_4:
	.loc	3 2286 3
	{
		mov r7, r6
		nop
	}
	{
		zext r7, 5
		ldc r1, 28
	}
	.loc	3 2307 7
.Ltmp213:
	{
		and r1, r6, r1
		nop
	}
	.loc	3 2307 7
	bf r1, .LBB8_29
.Ltmp214:
	.loc	3 2310 9
	bt r0, .LBB8_6
.Ltmp215:
	{
		ldc r0, 11
		nop
	}
	.loc	3 2321 11
.Ltmp216:
	{
		ldc r1, 17
		ld8u r0, r8[r0]
	}
	.loc	3 2321 11
	{
		and r0, r0, r1
		nop
	}
	bt r0, .LBB8_34
.Ltmp217:
	.loc	3 2324 13
	{
		shl r0, r6, 1
		ldc r1, 8
	}
	.loc	3 2324 13
	{
		and r0, r0, r1
		nop
	}
	bu .LBB8_11
.Ltmp218:
.LBB8_29:
	bt r0, .LBB8_35
.Ltmp219:
	{
		ldc r0, 11
		nop
	}
	.loc	3 2348 11
.Ltmp220:
	{
		ldc r1, 16
		ld8u r0, r8[r0]
	}
	.loc	3 2348 11
	{
		and r1, r0, r1
		nop
	}
	.loc	3 2348 11
	bf r1, .LBB8_32
.Ltmp221:
	{
		ldc r0, 4
		nop
	}
	bu .LBB8_35
.LBB8_6:
.Ltmp222:
	{
		eq r1, r0, 4
		nop
	}
	bf r1, .LBB8_8
.Ltmp223:
	{
		ldaw r0, sp[8]
		nop
	}
.Ltmp224:
	.loc	3 2315 15
	bl dir_register
.Ltmp225:
	{
		nop
		ldw r8, sp[13]
	}
.Ltmp226:
.LBB8_8:
	{
		ldc r1, 8
		nop
	}
	.loc	3 2317 7
	{
		or r7, r7, r1
		nop
	}
.Ltmp227:
.LBB8_11:
	bt r0, .LBB8_22
.Ltmp228:
	{
		ldc r1, 8
		nop
	}
	.loc	3 2328 9
.Ltmp229:
	{
		and r1, r7, r1
		nop
	}
	{
		zext r1, 8
		nop
	}
	bf r1, .LBB8_22
.Ltmp230:
	.loc	3 2329 12
	bl get_fattime
.Ltmp231:
	{
		ldc r1, 14
		nop
	}
	.loc	3 2330 7
	st8 r0, r8[r1]
	.loc	3 2330 7
	{
		shr r1, r0, 8
		mkmsk r2, 4
	}
	.loc	3 2330 7
	st8 r1, r8[r2]
	.loc	3 2330 7
	{
		shr r1, r0, 16
		ldc r2, 16
	}
	.loc	3 2330 7
	st8 r1, r8[r2]
	.loc	3 2330 7
	{
		shr r0, r0, 24
		ldc r1, 17
	}
.Ltmp232:
	.loc	3 2330 7
	st8 r0, r8[r1]
	{
		ldc r0, 11
		nop
	}
	.loc	3 2331 7
	st8 r9, r8[r0]
	.loc	3 2332 7
	ldaw r0, r8[7]
	.loc	3 2332 7
	{
		mov r1, r9
		nop
	}
	bl __misaligned_store
	{
		ldc r0, 21
		nop
	}
	{
		nop
		ld8u r1, r8[r0]
	}
	.loc	3 2333 7
	{
		shl r1, r1, 8
		ldc r2, 20
	}
	{
		nop
		ld8u r3, r8[r2]
	}
	.loc	3 2333 7
	{
		or r1, r1, r3
		nop
	}
	.loc	3 2333 7
	{
		shl r1, r1, 16
		ldc r3, 27
	}
	{
		nop
		ld8u r11, r8[r3]
	}
	.loc	3 2333 7
	{
		shl r11, r11, 8
		ldc r6, 26
	}
	{
		nop
		ld8u r5, r8[r6]
	}
	.loc	3 2333 7
	{
		or r11, r11, r5
		nop
	}
	.loc	3 2333 7
	{
		or r11, r11, r1
		nop
	}
.Ltmp233:
	.loc	3 2334 7
	st8 r9, r8[r6]
	.loc	3 2334 7
	st8 r9, r8[r3]
	.loc	3 2334 7
	st8 r9, r8[r0]
	st8 r9, r8[r2]
.Ltmp234:
	.loc	3 2335 7
	{
		ldc r0, 4
		ldw r6, sp[8]
	}
.Ltmp235:
	{
		mkmsk r1, 1
		nop
	}
	.loc	3 2335 7
	st8 r1, r6[r0]
	bf r11, .LBB8_23
.Ltmp236:
	{
		ldc r0, 2
		nop
	}
	.loc	3 963 7
.Ltmp237:
	{
		lsu r1, r11, r0
		nop
	}
	bt r1, .LBB8_35
.Ltmp238:
	{
		nop
		ldw r1, r6[7]
	}
.Ltmp239:
	.loc	3 963 7
	{
		lsu r1, r11, r1
		stw r11, sp[4]
	}
	bf r1, .LBB8_35
.Ltmp240:
	{
		mov r5, r9
		ldc r0, 48
	}
	.loc	3 2337 9
	{
		add r0, r6, r0
		nop
	}
	{
		nop
		ldw r0, r0[0]
	}
.Ltmp241:
	{
		nop
		stw r0, sp[3]
	}
	{
		nop
		ldw r10, sp[4]
	}
.Ltmp242:
.LBB8_17:
	.loc	3 969 13
	{
		mov r0, r6
		mov r1, r10
	}
	bl get_fat
	{
		mov r9, r0
		nop
	}
	.loc	3 970 11
.Ltmp243:
	{
		add r0, r9, 1
		mkmsk r1, 2
	}
	.loc	3 970 11
	{
		lsu r1, r0, r1
		nop
	}
	.loc	3 970 11
	bt r1, .LBB8_27
.Ltmp244:
	.loc	3 973 13
	{
		mov r0, r6
		mov r1, r10
	}
	{
		ldc r2, 0
		nop
	}
	bl put_fat
	bt r0, .LBB8_35
.Ltmp245:
	.loc	3 975 11
	{
		mkmsk r1, 32
		ldw r0, r6[4]
	}
	.loc	3 975 11
	{
		eq r1, r0, r1
		nop
	}
	bt r1, .LBB8_20
.Ltmp246:
	.loc	3 976 9
	{
		add r0, r0, 1
		nop
	}
	.loc	3 976 9
	{
		mkmsk r0, 1
		stw r0, r6[4]
	}
	{
		ldc r1, 5
		nop
	}
	.loc	3 977 9
	st8 r0, r6[r1]
.Ltmp247:
.LBB8_20:
	{
		nop
		ldw r0, r6[7]
	}
	.loc	3 968 5
	{
		lsu r0, r9, r0
		mov r10, r9
	}
	bt r0, .LBB8_17
	bu .LBB8_21
.Ltmp248:
.LBB8_32:
	{
		ldc r1, 2
		nop
	}
	.loc	3 2351 13
.Ltmp249:
	{
		and r1, r6, r1
		nop
	}
.Ltmp250:
	bf r1, .LBB8_23
.Ltmp251:
	{
		zext r0, 1
		nop
	}
	bf r0, .LBB8_23
.Ltmp252:
.LBB8_34:
	{
		mkmsk r0, 3
		nop
	}
	bu .LBB8_35
.LBB8_27:
.Ltmp253:
	.loc	3 970 11
	ldaw r11, cp[.Lswitch.table2]
.Ltmp254:
	bf r9, .LBB8_21
.Ltmp255:
	{
		nop
		ldw r0, r11[r0]
	}
.Ltmp256:
	bu .LBB8_35
.Ltmp257:
.LBB8_21:
	{
		nop
		ldw r0, sp[4]
	}
	.loc	3 2340 11
.Ltmp258:
	{
		sub r0, r0, 1
		nop
	}
	.loc	3 2340 11
	{
		mov r0, r6
		stw r0, r6[3]
	}
	{
		nop
		ldw r1, sp[3]
	}
	.loc	3 2341 17
	bl move_window
.Ltmp259:
	{
		mov r9, r5
		ldc r10, 30
	}
.Ltmp260:
.LBB8_22:
	bt r0, .LBB8_35
.Ltmp261:
.LBB8_23:
	{
		ldc r0, 8
		nop
	}
	.loc	3 2357 9
.Ltmp262:
	{
		and r0, r7, r0
		nop
	}
	bf r0, .LBB8_25
.Ltmp263:
	.loc	3 2357 9
	{
		zext r7, 8
		ldc r0, 32
	}
	.loc	3 2358 7
	{
		or r7, r7, r0
		nop
	}
.Ltmp264:
.LBB8_25:
	{
		ldc r11, 28
		ldw r0, sp[8]
	}
	{
		ldc r1, 48
		nop
	}
	.loc	3 2359 5
	{
		add r1, r0, r1
		nop
	}
	{
		nop
		ldw r1, r1[0]
	}
	{
		nop
		stw r1, r4[7]
	}
	.loc	3 2360 5
	{
		ldc r1, 6
		stw r8, r4[8]
	}
.Ltmp265:
	.loc	3 2380 5
	st8 r7, r4[r1]
	{
		ldc r1, 21
		nop
	}
	{
		nop
		ld8u r1, r8[r1]
	}
	.loc	3 2381 5
	{
		shl r1, r1, 8
		ldc r2, 20
	}
	{
		nop
		ld8u r2, r8[r2]
	}
	.loc	3 2381 5
	{
		or r1, r1, r2
		nop
	}
	.loc	3 2381 5
	{
		shl r1, r1, 16
		ldc r2, 27
	}
	{
		nop
		ld8u r2, r8[r2]
	}
	.loc	3 2381 5
	{
		shl r2, r2, 8
		ldc r3, 26
	}
	{
		nop
		ld8u r3, r8[r3]
	}
	.loc	3 2381 5
	{
		or r2, r2, r3
		nop
	}
	.loc	3 2381 5
	{
		or r1, r2, r1
		nop
	}
	.loc	3 2381 5
	{
		mkmsk r1, 5
		stw r1, r4[4]
	}
	{
		nop
		ld8u r1, r8[r1]
	}
	.loc	3 2382 5
	{
		shl r1, r1, 24
		ld8u r2, r8[r10]
	}
	.loc	3 2382 5
	{
		shl r2, r2, 16
		nop
	}
	.loc	3 2382 5
	{
		or r1, r2, r1
		ldc r2, 29
	}
	{
		nop
		ld8u r2, r8[r2]
	}
	.loc	3 2382 5
	{
		shl r2, r2, 8
		nop
	}
	.loc	3 2382 5
	{
		or r1, r1, r2
		ld8u r2, r8[r11]
	}
	.loc	3 2382 5
	{
		or r1, r1, r2
		nop
	}
	{
		nop
		stw r1, r4[3]
	}
	{
		nop
		stw r9, r4[2]
	}
	{
		nop
		stw r9, r4[6]
	}
	.loc	3 2388 5
	{
		add r0, r0, 6
		stw r0, r4[0]
	}
	.loc	3 2388 21
	{
		add r1, r4, 4
		ld16s r0, r0[r9]
	}
	.loc	3 2388 21
	st16 r0, r1[r9]
	{
		mov r0, r9
		nop
	}
.Ltmp266:
.LBB8_35:
	{
		nop
		ldw r10, sp[24]
	}
	.loc	3 2392 1
	ldd r9, r8, sp[11]
	ldd r7, r6, sp[10]
	ldd r5, r4, sp[9]
	{
		nop
		retsp 26
	}
	# RETURN_REG_HOLDER
.Ltmp267:
	.cc_bottom f_open.function
	.set	f_open.nstackwords,((chk_mounted.nstackwords $M follow_path.nstackwords $M get_fattime.nstackwords $M __misaligned_store.nstackwords $M get_fat.nstackwords $M move_window.nstackwords $M put_fat.nstackwords $M dir_register.nstackwords) + 26)
	.globl	f_open.nstackwords
	.set	f_open.maxcores,chk_mounted.maxcores $M dir_register.maxcores $M follow_path.maxcores $M get_fat.maxcores $M get_fattime.maxcores $M move_window.maxcores $M put_fat.maxcores $M 1
	.globl	f_open.maxcores
	.set	f_open.maxtimers,chk_mounted.maxtimers $M dir_register.maxtimers $M follow_path.maxtimers $M get_fat.maxtimers $M get_fattime.maxtimers $M move_window.maxtimers $M put_fat.maxtimers $M 0
	.globl	f_open.maxtimers
	.set	f_open.maxchanends,chk_mounted.maxchanends $M dir_register.maxchanends $M follow_path.maxchanends $M get_fat.maxchanends $M get_fattime.maxchanends $M move_window.maxchanends $M put_fat.maxchanends $M 0
	.globl	f_open.maxchanends
.Ltmp268:
	.size	f_open, .Ltmp268-f_open
.Lfunc_end8:
	.cfi_endproc

	.section	.cp.rodata.cst4,"aMc",@progbits,4
	.cc_top .LCPI9_0.data,.LCPI9_0
	.align	4
	.type	.LCPI9_0,@object
	.size	.LCPI9_0, 4
.LCPI9_0:
	.long	4294967248
	.cc_bottom .LCPI9_0.data
	.cc_top .LCPI9_1.data,.LCPI9_1
	.align	4
	.type	.LCPI9_1,@object
	.size	.LCPI9_1, 4
.LCPI9_1:
	.long	5521734
	.cc_bottom .LCPI9_1.data
	.cc_top .LCPI9_2.data,.LCPI9_2
	.align	4
	.type	.LCPI9_2,@object
	.size	.LCPI9_2, 4
.LCPI9_2:
	.long	1096897106
	.cc_bottom .LCPI9_2.data
	.cc_top .LCPI9_3.data,.LCPI9_3
	.align	4
	.type	.LCPI9_3,@object
	.size	.LCPI9_3, 4
.LCPI9_3:
	.long	1631679090
	.cc_bottom .LCPI9_3.data
	.text
	.align	4
	.type	chk_mounted,@function
	.cc_top chk_mounted.function,chk_mounted
chk_mounted:
.Lfunc_begin9:
	.loc	3 2040 0
	.cfi_startproc
	.issue_mode dual
	{
		nop
		dualentsp 16
	}
.Ltmp269:
	.cfi_def_cfa_offset 64
.Ltmp270:
	.cfi_offset 15, 0
	std r5, r4, sp[4]
.Ltmp271:
	.cfi_offset 4, -32
.Ltmp272:
	.cfi_offset 5, -28
	std r7, r6, sp[5]
.Ltmp273:
	.cfi_offset 6, -24
.Ltmp274:
	.cfi_offset 7, -20
	std r9, r8, sp[6]
.Ltmp275:
	.cfi_offset 8, -16
.Ltmp276:
	.cfi_offset 9, -12
.Ltmp277:
	.cfi_offset 10, -8
.Ltmp278:
	{
		mov r4, r2
		stw r10, sp[14]
	}
.Ltmp279:
	.loc	3 2046 3 prologue_end
	{
		ldc r5, 0
		ldw r3, r0[0]
	}
.Ltmp280:
	{
		nop
		ld8u r2, r3[r5]
	}
	ldw r11, cp[.LCPI9_0]
.Ltmp281:
	.loc	3 2050 3
	{
		add r2, r2, r11
		ldc r9, 9
	}
.Ltmp282:
	.loc	3 2051 7
	{
		lsu r11, r9, r2
		nop
	}
	bt r11, .LBB9_3
.Ltmp283:
	{
		mkmsk r11, 1
		nop
	}
	.loc	3 2051 7
	{
		ldc r6, 58
		ld8u r11, r3[r11]
	}
	.loc	3 2051 7
	{
		eq r11, r11, r6
		nop
	}
	bf r11, .LBB9_3
.Ltmp284:
	.loc	3 2052 5
	{
		add r3, r3, 2
		nop
	}
.Ltmp285:
	{
		nop
		stw r3, r0[0]
	}
	bu .LBB9_4
.Ltmp286:
.LBB9_3:
	.loc	3 2056 5
	ldaw r0, dp[CurrVol]
	{
		nop
		ld8u r2, r0[r5]
	}
.Ltmp287:
.LBB9_4:
	.loc	3 2063 7
	bf r2, .LBB9_6
.Ltmp288:
	{
		ldc r6, 11
		nop
	}
	.loc	3 2190 1
	{
		mov r0, r6
		nop
	}
	bu .LBB9_13
.LBB9_6:
.Ltmp289:
	.loc	3 2065 3
	ldw r7, dp[FatFs]
.Ltmp290:
	{
		nop
		stw r7, r1[0]
	}
	.loc	3 2066 7
.Ltmp291:
	bf r7, .LBB9_7
.Ltmp292:
	{
		nop
		ld8u r0, r7[r5]
	}
	bf r0, .LBB9_14
.Ltmp293:
	{
		mkmsk r0, 1
		nop
	}
	{
		nop
		ld8u r0, r7[r0]
	}
	.loc	3 2071 12
.Ltmp294:
	bl disk_status
	.loc	3 2072 9
.Ltmp295:
	{
		mov r1, r0
		nop
	}
	{
		zext r1, 1
		nop
	}
	bf r1, .LBB9_10
.Ltmp296:
.LBB9_14:
	{
		mkmsk r6, 1
		ldc r0, 0
	}
	.loc	3 2082 3
	st8 r0, r7[r6]
	st8 r0, r7[r0]
	.loc	3 2084 10
	bl disk_initialize
	.loc	3 2085 7
.Ltmp297:
	{
		mov r1, r0
		nop
	}
	{
		zext r1, 1
		nop
	}
	.loc	3 2085 7
	bf r1, .LBB9_16
.Ltmp298:
	{
		mkmsk r6, 2
		nop
	}
	.loc	3 2190 1
	{
		mov r0, r6
		nop
	}
	bu .LBB9_13
.LBB9_7:
	{
		ldc r6, 12
		nop
	}
	{
		mov r0, r6
		nop
	}
	bu .LBB9_13
.LBB9_16:
.Ltmp299:
	{
		ldc r8, 4
		nop
	}
	bf r4, .LBB9_19
.Ltmp300:
	{
		and r0, r0, r8
		nop
	}
	bf r0, .LBB9_19
.Ltmp301:
	{
		ldc r6, 10
		nop
	}
	{
		mov r0, r6
		nop
	}
	bu .LBB9_13
.LBB9_10:
.Ltmp302:
	.loc	3 2073 11
	{
		eq r1, r4, 0
		ldc r2, 4
	}
	{
		and r0, r0, r2
		nop
	}
	.loc	3 2073 11
	{
		eq r0, r0, 0
		nop
	}
	.loc	3 2073 11
	{
		or r0, r1, r0
		nop
	}
	bt r0, .LBB9_12
.Ltmp303:
	{
		ldc r5, 10
		nop
	}
.LBB9_12:
	.loc	3 2073 11
	{
		mov r0, r5
		nop
	}
	bu .LBB9_13
.Ltmp304:
.LBB9_19:
	{
		ldc r0, 52
		nop
	}
	.loc	3 2014 7
.Ltmp305:
	{
		add r4, r7, r0
		ld8u r0, r7[r6]
	}
	{
		ldc r5, 0
		mov r1, r4
	}
	.loc	3 2014 7
	{
		mov r2, r5
		mov r3, r6
	}
	bl disk_read
	bt r0, .LBB9_74
.Ltmp306:
	ldc r0, 562
	ldc r1, 563
	{
		nop
		ld8u r2, r7[r1]
	}
	.loc	3 2016 7
.Ltmp307:
	{
		shl r2, r2, 8
		ld8u r3, r7[r0]
	}
	.loc	3 2016 7
	{
		or r2, r2, r3
		ldc r11, 13
	}
	ldc r3, 43605
	.loc	3 2016 7
	{
		eq r2, r2, r3
		nop
	}
	bf r2, .LBB9_21
.Ltmp308:
	.loc	3 2016 7
	{
		add r6, r7, r0
		add r2, r7, r1
	}
	ldc r3, 106
	ldc r0, 108
	{
		nop
		ld8u r0, r7[r0]
	}
.Ltmp309:
	.loc	3 2019 7
	{
		shl r0, r0, 16
		nop
	}
	ldc r1, 107
	{
		nop
		ld8u r1, r7[r1]
	}
	.loc	3 2019 7
	{
		shl r1, r1, 8
		nop
	}
	.loc	3 2019 7
	{
		or r0, r1, r0
		ld8u r1, r7[r3]
	}
	.loc	3 2019 7
	{
		or r0, r0, r1
		nop
	}
	ldw r10, cp[.LCPI9_1]
	.loc	3 2019 7
	{
		eq r0, r0, r10
		nop
	}
	bt r0, .LBB9_31
.Ltmp310:
	ldc r3, 134
	ldc r0, 136
	{
		nop
		ld8u r0, r7[r0]
	}
	.loc	3 2021 7
.Ltmp311:
	{
		shl r0, r0, 16
		nop
	}
	ldc r1, 135
	{
		nop
		ld8u r1, r7[r1]
	}
	.loc	3 2021 7
	{
		shl r1, r1, 8
		nop
	}
	.loc	3 2021 7
	{
		or r0, r1, r0
		ld8u r1, r7[r3]
	}
	.loc	3 2021 7
	{
		or r0, r0, r1
		nop
	}
	.loc	3 2022 5
	{
		eq r0, r0, r10
		nop
	}
	bt r0, .LBB9_31
.Ltmp312:
	{
		nop
		stw r2, sp[7]
	}
	{
		nop
		stw r6, sp[6]
	}
	ldc r0, 502
	{
		nop
		ld8u r0, r7[r0]
	}
	.loc	3 2101 9
.Ltmp313:
	bf r0, .LBB9_25
.Ltmp314:
	ldc r0, 509
	{
		nop
		ld8u r0, r7[r0]
	}
	.loc	3 2102 7
.Ltmp315:
	{
		shl r0, r0, 24
		nop
	}
	ldc r1, 508
	{
		nop
		ld8u r1, r7[r1]
	}
	.loc	3 2102 7
	{
		shl r1, r1, 16
		nop
	}
	.loc	3 2102 7
	{
		or r0, r1, r0
		nop
	}
	ldc r1, 507
	{
		nop
		ld8u r1, r7[r1]
	}
	.loc	3 2102 7
	{
		shl r1, r1, 8
		nop
	}
	.loc	3 2102 7
	{
		or r0, r0, r1
		nop
	}
	ldc r1, 506
	{
		nop
		ld8u r1, r7[r1]
	}
.Ltmp316:
	.loc	3 2102 7
	{
		or r5, r0, r1
		mkmsk r6, 1
	}
.Ltmp317:
	.loc	3 2014 7
	{
		mov r1, r4
		ld8u r0, r7[r6]
	}
	{
		mov r2, r5
		mov r3, r6
	}
	bl disk_read
	bt r0, .LBB9_74
.Ltmp318:
	.loc	3 2016 7
	{
		ldc r0, 0
		ldw r1, sp[7]
	}
	{
		nop
		ld8u r1, r1[r0]
	}
	.loc	3 2016 7
	{
		shl r1, r1, 8
		ldw r6, sp[6]
	}
	{
		nop
		ld8u r2, r6[r0]
	}
	.loc	3 2016 7
	{
		or r1, r1, r2
		nop
	}
	ldc r2, 43605
	.loc	3 2016 7
	{
		eq r1, r1, r2
		ldc r11, 13
	}
	bf r1, .LBB9_28
.Ltmp319:
	ldc r1, 106
	.loc	3 2019 7
.Ltmp320:
	{
		add r1, r7, r1
		nop
	}
	ldc r2, 108
	.loc	3 2019 7
	{
		add r2, r7, r2
		nop
	}
	ldc r3, 107
	.loc	3 2019 7
	{
		add r3, r7, r3
		ld8u r2, r2[r0]
	}
.Ltmp321:
	.loc	3 2019 7
	{
		shl r2, r2, 16
		ld8u r3, r3[r0]
	}
	.loc	3 2019 7
	{
		shl r3, r3, 8
		nop
	}
	.loc	3 2019 7
	{
		or r2, r3, r2
		ld8u r1, r1[r0]
	}
	.loc	3 2019 7
	{
		or r1, r2, r1
		nop
	}
	.loc	3 2019 7
	{
		eq r1, r1, r10
		nop
	}
	.loc	3 2019 7
	bf r1, .LBB9_33
.Ltmp322:
	{
		nop
		ldw r2, sp[7]
	}
	bu .LBB9_31
.Ltmp323:
.LBB9_21:
	{
		mov r6, r11
		nop
	}
	.loc	3 2190 1
	{
		mov r0, r6
		nop
	}
	bu .LBB9_13
.LBB9_25:
	{
		ldc r6, 13
		nop
	}
	{
		mov r0, r6
		nop
	}
	bu .LBB9_13
.LBB9_28:
	{
		mov r6, r11
		nop
	}
	{
		mov r0, r6
		nop
	}
	bu .LBB9_13
.LBB9_33:
.Ltmp324:
	ldc r1, 134
	.loc	3 2021 7
.Ltmp325:
	{
		add r1, r7, r1
		nop
	}
	ldc r2, 136
	.loc	3 2021 7
	{
		add r2, r7, r2
		nop
	}
	ldc r3, 135
	.loc	3 2021 7
	{
		add r3, r7, r3
		ld8u r2, r2[r0]
	}
.Ltmp326:
	.loc	3 2021 7
	{
		shl r2, r2, 16
		ld8u r3, r3[r0]
	}
	.loc	3 2021 7
	{
		shl r3, r3, 8
		nop
	}
	.loc	3 2021 7
	{
		or r2, r3, r2
		ld8u r0, r1[r0]
	}
	.loc	3 2021 7
	{
		or r0, r2, r0
		nop
	}
.Ltmp327:
	.loc	3 2106 7
	{
		eq r0, r0, r10
		ldw r2, sp[7]
	}
	bf r0, .LBB9_34
.Ltmp328:
.LBB9_31:
	ldc r0, 64
	{
		nop
		ld8u r0, r7[r0]
	}
	.loc	3 2111 7
.Ltmp329:
	{
		shl r0, r0, 8
		mkmsk r1, 6
	}
	{
		nop
		ld8u r1, r7[r1]
	}
	.loc	3 2111 7
	{
		or r0, r0, r1
		nop
	}
	ldc r1, 512
	.loc	3 2111 7
	{
		eq r0, r0, r1
		nop
	}
	bf r0, .LBB9_32
.Ltmp330:
	ldc r0, 75
	{
		nop
		ld8u r0, r7[r0]
	}
	.loc	3 2114 3
	{
		shl r0, r0, 8
		nop
	}
	ldc r1, 74
	{
		nop
		ld8u r1, r7[r1]
	}
	.loc	3 2114 3
	{
		or r0, r0, r1
		nop
	}
.Ltmp331:
	bt r0, .LBB9_37
.Ltmp332:
	ldc r0, 91
	{
		nop
		ld8u r0, r7[r0]
	}
	.loc	3 2115 16
.Ltmp333:
	{
		shl r0, r0, 24
		nop
	}
	ldc r1, 90
	{
		nop
		ld8u r1, r7[r1]
	}
	.loc	3 2115 16
	{
		shl r1, r1, 16
		nop
	}
	.loc	3 2115 16
	{
		or r0, r1, r0
		nop
	}
	ldc r1, 89
	{
		nop
		ld8u r1, r7[r1]
	}
	.loc	3 2115 16
	{
		shl r1, r1, 8
		nop
	}
	.loc	3 2115 16
	{
		or r0, r0, r1
		nop
	}
	ldc r1, 88
	{
		nop
		ld8u r1, r7[r1]
	}
	.loc	3 2115 16
	{
		or r0, r0, r1
		nop
	}
.Ltmp334:
.LBB9_37:
	{
		nop
		stw r0, r7[8]
	}
	ldc r1, 68
	.loc	3 2118 3
	{
		mkmsk r10, 2
		ld8u r11, r7[r1]
	}
	.loc	3 2118 3
	st8 r11, r7[r10]
	.loc	3 2119 7
.Ltmp335:
	{
		sub r1, r11, 1
		nop
	}
	{
		zext r1, 8
		mkmsk r3, 1
	}
	.loc	3 2119 7
	{
		lsu r1, r3, r1
		nop
	}
	bt r1, .LBB9_38
.Ltmp336:
	{
		nop
		stw r2, sp[7]
	}
	{
		nop
		stw r6, sp[6]
	}
	ldc r1, 65
	.loc	3 2122 3
	{
		ldc r2, 2
		ld8u r6, r7[r1]
	}
	.loc	3 2122 3
	st8 r6, r7[r2]
	.loc	3 2123 7
.Ltmp337:
	bf r6, .LBB9_40
.Ltmp338:
	{
		mkmsk r1, 8
		nop
	}
	.loc	3 2123 7
	{
		add r1, r6, r1
		nop
	}
	.loc	3 2123 7
	{
		and r1, r1, r6
		nop
	}
	.loc	3 2123 7
	bf r1, .LBB9_43
.Ltmp339:
	{
		ldc r6, 13
		nop
	}
	.loc	3 2190 1
	{
		mov r0, r6
		nop
	}
	bu .LBB9_13
.LBB9_32:
	{
		mov r6, r11
		nop
	}
	{
		mov r0, r6
		nop
	}
	bu .LBB9_13
.LBB9_38:
	{
		ldc r6, 13
		nop
	}
	{
		mov r0, r6
		nop
	}
	bu .LBB9_13
.LBB9_40:
	{
		ldc r6, 13
		nop
	}
	{
		mov r0, r6
		nop
	}
	bu .LBB9_13
.LBB9_43:
.Ltmp340:
	{
		nop
		stw r2, sp[2]
	}
	{
		nop
		stw r10, sp[3]
	}
	ldc r1, 70
	{
		nop
		ld8u r1, r7[r1]
	}
	.loc	3 2125 3
	{
		shl r1, r1, 8
		nop
	}
	ldc r10, 69
	{
		nop
		ld8u r10, r7[r10]
	}
	.loc	3 2125 3
	{
		or r1, r1, r10
		nop
	}
	.loc	3 2125 3
	{
		add r2, r7, 8
		stw r1, sp[4]
	}
	{
		nop
		stw r2, sp[5]
	}
	.loc	3 2125 3
	{
		ldc r3, 0
		ldw r2, sp[5]
	}
	st16 r1, r2[r3]
	.loc	3 2126 7
.Ltmp341:
	{
		zext r10, 4
		nop
	}
	.loc	3 2126 7
	bf r10, .LBB9_45
.Ltmp342:
	{
		ldc r6, 13
		nop
	}
	.loc	3 2190 1
	{
		mov r0, r6
		nop
	}
	bu .LBB9_13
.LBB9_45:
.Ltmp343:
	ldc r1, 72
	{
		nop
		ld8u r1, r7[r1]
	}
	.loc	3 2128 3
	{
		shl r1, r1, 8
		nop
	}
	ldc r10, 71
	{
		nop
		ld8u r10, r7[r10]
	}
	.loc	3 2128 3
	{
		or r1, r1, r10
		nop
	}
.Ltmp344:
	{
		nop
		stw r1, sp[5]
	}
.Ltmp345:
	bt r1, .LBB9_47
.Ltmp346:
	ldc r1, 87
	{
		nop
		ld8u r1, r7[r1]
	}
	.loc	3 2129 15
.Ltmp347:
	{
		shl r1, r1, 24
		nop
	}
	ldc r10, 86
	{
		nop
		ld8u r10, r7[r10]
	}
	.loc	3 2129 15
	{
		shl r10, r10, 16
		nop
	}
	.loc	3 2129 15
	{
		or r1, r10, r1
		nop
	}
	ldc r10, 85
	{
		nop
		ld8u r10, r7[r10]
	}
	.loc	3 2129 15
	{
		shl r10, r10, 8
		nop
	}
	.loc	3 2129 15
	{
		or r1, r1, r10
		nop
	}
	ldc r10, 84
	{
		nop
		ld8u r10, r7[r10]
	}
	.loc	3 2129 15
	{
		or r1, r1, r10
		nop
	}
.Ltmp348:
	{
		nop
		stw r1, sp[5]
	}
.Ltmp349:
.LBB9_47:
	ldc r1, 67
	{
		nop
		ld8u r1, r7[r1]
	}
	.loc	3 2131 3
	{
		shl r1, r1, 8
		nop
	}
	ldc r10, 66
	{
		nop
		ld8u r10, r7[r10]
	}
	.loc	3 2131 3
	{
		or r1, r1, r10
		nop
	}
	.loc	3 2132 7
.Ltmp350:
	bf r1, .LBB9_48
.Ltmp351:
	.loc	3 2120 3
	mul r10, r11, r0
.Ltmp352:
	.loc	3 2135 3
	{
		add r1, r1, r10
		stw r1, sp[1]
	}
	{
		nop
		ldw r11, sp[4]
	}
	.loc	3 2135 3
	{
		shr r11, r11, 4
		nop
	}
.Ltmp353:
	.loc	3 2135 3
	{
		add r11, r1, r11
		ldw r1, sp[5]
	}
.Ltmp354:
	.loc	3 2136 7
	{
		lsu r1, r1, r11
		nop
	}
	.loc	3 2136 7
	bf r1, .LBB9_51
.Ltmp355:
	{
		ldc r6, 13
		nop
	}
	.loc	3 2190 1
	{
		mov r0, r6
		nop
	}
	bu .LBB9_13
.LBB9_34:
	{
		mov r6, r11
		nop
	}
	{
		mov r0, r6
		nop
	}
	bu .LBB9_13
.LBB9_48:
	{
		ldc r6, 13
		nop
	}
	{
		mov r0, r6
		nop
	}
	bu .LBB9_13
.LBB9_51:
.Ltmp356:
	{
		nop
		ldw r1, sp[5]
	}
	.loc	3 2137 3
	{
		sub r1, r1, r11
		nop
	}
	.loc	3 2137 3
	divu r6, r1, r6
.Ltmp357:
	.loc	3 2138 7
	bf r6, .LBB9_52
.Ltmp358:
	ldc r1, 4085
	.loc	3 2140 7
.Ltmp359:
	{
		lsu r1, r1, r6
		nop
	}
	bt r1, .LBB9_55
.Ltmp360:
	{
		mkmsk r1, 1
		nop
	}
	{
		nop
		stw r1, sp[2]
	}
.Ltmp361:
.LBB9_55:
	ldc r1, 65525
	.loc	3 2141 7
.Ltmp362:
	{
		lsu r1, r1, r6
		nop
	}
	bt r1, .LBB9_57
.Ltmp363:
	{
		nop
		ldw r1, sp[2]
	}
	{
		nop
		stw r1, sp[3]
	}
.Ltmp364:
.LBB9_57:
	.loc	3 2144 3
	{
		add r3, r6, 2
		nop
	}
	.loc	3 2144 3
	{
		add r1, r11, r5
		stw r3, r7[7]
	}
	{
		nop
		stw r1, r7[11]
	}
	{
		nop
		ldw r1, sp[1]
	}
	.loc	3 2146 3
	{
		add r11, r1, r5
		nop
	}
.Ltmp365:
	{
		nop
		stw r11, r7[9]
	}
	ldc r1, 65526
	.loc	3 2147 7
.Ltmp366:
	{
		lsu r2, r6, r1
		nop
	}
	bt r2, .LBB9_61
.Ltmp367:
	{
		nop
		ldw r1, sp[4]
	}
	.loc	3 2148 9
.Ltmp368:
	bf r1, .LBB9_60
.Ltmp369:
	{
		ldc r6, 13
		nop
	}
	.loc	3 2190 1
	{
		mov r0, r6
		nop
	}
	bu .LBB9_13
.LBB9_52:
	{
		ldc r6, 13
		nop
	}
	{
		mov r0, r6
		nop
	}
	bu .LBB9_13
.LBB9_61:
.Ltmp370:
	{
		nop
		ldw r1, sp[4]
	}
	.loc	3 2152 9
.Ltmp371:
	bf r1, .LBB9_62
.Ltmp372:
	.loc	3 2153 5
	{
		add r1, r11, r10
		nop
	}
	{
		nop
		stw r1, r7[10]
	}
	{
		nop
		ldw r1, sp[3]
	}
	.loc	3 2154 5
	{
		zext r1, 8
		nop
	}
	.loc	3 2154 5
	{
		eq r1, r1, 2
		nop
	}
	bf r1, .LBB9_65
.Ltmp373:
	.loc	3 2154 5
	{
		shl r1, r3, 1
		nop
	}
	bu .LBB9_66
.Ltmp374:
.LBB9_60:
	ldc r1, 99
	{
		nop
		ld8u r1, r7[r1]
	}
	.loc	3 2149 5
.Ltmp375:
	{
		shl r1, r1, 24
		nop
	}
	ldc r11, 98
	{
		nop
		ld8u r11, r7[r11]
	}
	.loc	3 2149 5
	{
		shl r11, r11, 16
		nop
	}
	.loc	3 2149 5
	{
		or r1, r11, r1
		nop
	}
	ldc r11, 97
	{
		nop
		ld8u r11, r7[r11]
	}
	.loc	3 2149 5
	{
		shl r11, r11, 8
		nop
	}
	.loc	3 2149 5
	{
		or r1, r1, r11
		nop
	}
	ldc r11, 96
	{
		nop
		ld8u r11, r7[r11]
	}
	.loc	3 2149 5
	{
		or r1, r1, r11
		nop
	}
.Ltmp376:
	.loc	3 2149 5
	{
		shl r1, r3, 2
		stw r1, r7[10]
	}
.Ltmp377:
	bu .LBB9_66
.Ltmp378:
.LBB9_62:
	{
		ldc r6, 13
		nop
	}
	.loc	3 2190 1
	{
		mov r0, r6
		nop
	}
	bu .LBB9_13
.LBB9_65:
.Ltmp379:
	.loc	3 2154 5
	lda16 r1, r3[r3]
	.loc	3 2154 5
	{
		shr r1, r1, 1
		zext r3, 1
	}
	.loc	3 2154 5
	{
		add r1, r1, r3
		nop
	}
.Ltmp380:
.LBB9_66:
	ldc r3, 511
	.loc	3 2157 7
.Ltmp381:
	{
		add r1, r1, r3
		nop
	}
	.loc	3 2157 7
	{
		shr r1, r1, r9
		nop
	}
	.loc	3 2157 7
	{
		lsu r0, r0, r1
		ldc r6, 13
	}
	bt r0, .LBB9_74
.Ltmp382:
	{
		mkmsk r0, 32
		nop
	}
	.loc	3 2162 3
	{
		ldc r0, 0
		stw r0, r7[4]
	}
	{
		nop
		stw r0, r7[3]
	}
	bt r2, .LBB9_73
.Ltmp383:
	{
		ldc r0, 5
		ldc r6, 0
	}
	.loc	3 2167 6
.Ltmp384:
	st8 r6, r7[r0]
	ldc r0, 101
	{
		nop
		ld8u r0, r7[r0]
	}
	.loc	3 2168 5
	{
		shl r0, r0, 8
		nop
	}
	ldc r1, 100
	{
		nop
		ld8u r1, r7[r1]
	}
	.loc	3 2168 5
	{
		or r0, r0, r1
		nop
	}
	.loc	3 2168 5
	{
		add r2, r0, r5
		nop
	}
	.loc	3 2168 5
	{
		mkmsk r3, 1
		stw r2, r7[5]
	}
	.loc	3 2169 9
.Ltmp385:
	{
		mov r1, r4
		ld8u r0, r7[r3]
	}
	bl disk_read
	bt r0, .LBB9_73
.Ltmp386:
	{
		nop
		ldw r0, sp[7]
	}
	{
		nop
		ld8u r0, r0[r6]
	}
	.loc	3 2169 9
	{
		shl r0, r0, 8
		ldw r1, sp[6]
	}
	{
		nop
		ld8u r1, r1[r6]
	}
	.loc	3 2169 9
	{
		or r0, r0, r1
		nop
	}
	ldc r1, 43605
	.loc	3 2169 9
	{
		eq r0, r0, r1
		nop
	}
	bf r0, .LBB9_73
.Ltmp387:
	{
		ldc r0, 55
		nop
	}
	{
		nop
		ld8u r0, r7[r0]
	}
	.loc	3 2169 9
	{
		shl r0, r0, 24
		ldc r1, 54
	}
	{
		nop
		ld8u r1, r7[r1]
	}
	.loc	3 2169 9
	{
		shl r1, r1, 16
		nop
	}
	.loc	3 2169 9
	{
		or r0, r1, r0
		ldc r1, 53
	}
	{
		nop
		ld8u r1, r7[r1]
	}
	.loc	3 2169 9
	{
		shl r1, r1, 8
		nop
	}
	.loc	3 2169 9
	{
		or r0, r0, r1
		ld8u r1, r4[r6]
	}
	.loc	3 2169 9
	{
		or r0, r0, r1
		nop
	}
	ldw r1, cp[.LCPI9_2]
	.loc	3 2169 9
	{
		eq r0, r0, r1
		nop
	}
	bf r0, .LBB9_73
.Ltmp388:
	ldc r0, 539
	{
		nop
		ld8u r0, r7[r0]
	}
	.loc	3 2169 9
	{
		shl r0, r0, 24
		nop
	}
	ldc r1, 538
	{
		nop
		ld8u r1, r7[r1]
	}
	.loc	3 2169 9
	{
		shl r1, r1, 16
		nop
	}
	.loc	3 2169 9
	{
		or r0, r1, r0
		nop
	}
	ldc r1, 537
	{
		nop
		ld8u r1, r7[r1]
	}
	.loc	3 2169 9
	{
		shl r1, r1, 8
		nop
	}
	.loc	3 2169 9
	{
		or r0, r0, r1
		nop
	}
	ldc r1, 536
	{
		nop
		ld8u r1, r7[r1]
	}
	.loc	3 2169 9
	{
		or r0, r0, r1
		nop
	}
	ldw r1, cp[.LCPI9_3]
	.loc	3 2169 9
	{
		eq r0, r0, r1
		nop
	}
	bf r0, .LBB9_73
.Ltmp389:
	ldc r0, 547
	{
		nop
		ld8u r0, r7[r0]
	}
	.loc	3 2173 9
.Ltmp390:
	{
		shl r0, r0, 24
		nop
	}
	ldc r1, 546
	{
		nop
		ld8u r1, r7[r1]
	}
	.loc	3 2173 9
	{
		shl r1, r1, 16
		nop
	}
	.loc	3 2173 9
	{
		or r0, r1, r0
		nop
	}
	ldc r1, 545
	{
		nop
		ld8u r1, r7[r1]
	}
	.loc	3 2173 9
	{
		shl r1, r1, 8
		nop
	}
	.loc	3 2173 9
	{
		or r0, r0, r1
		nop
	}
	ldc r1, 544
	{
		nop
		ld8u r1, r7[r1]
	}
	.loc	3 2173 9
	{
		or r0, r0, r1
		nop
	}
	{
		nop
		stw r0, r7[3]
	}
	ldc r0, 543
	{
		nop
		ld8u r0, r7[r0]
	}
	.loc	3 2174 9
	{
		shl r0, r0, 24
		nop
	}
	ldc r1, 542
	{
		nop
		ld8u r1, r7[r1]
	}
	.loc	3 2174 9
	{
		shl r1, r1, 16
		nop
	}
	.loc	3 2174 9
	{
		or r0, r1, r0
		nop
	}
	ldc r1, 541
	{
		nop
		ld8u r1, r7[r1]
	}
	.loc	3 2174 9
	{
		shl r1, r1, 8
		nop
	}
	.loc	3 2174 9
	{
		or r0, r0, r1
		nop
	}
	ldc r1, 540
	{
		nop
		ld8u r1, r7[r1]
	}
	.loc	3 2174 9
	{
		or r0, r0, r1
		nop
	}
	{
		nop
		stw r0, r7[4]
	}
.Ltmp391:
.LBB9_73:
	.loc	3 2178 3
	{
		ldc r1, 0
		ldw r0, sp[3]
	}
	{
		mov r2, r1
		nop
	}
	st8 r0, r7[r2]
	.loc	3 2179 3
	ldaw r0, dp[Fsid]
	{
		nop
		ld16s r1, r0[r2]
	}
	.loc	3 2179 3
	{
		add r1, r1, 1
		nop
	}
	.loc	3 2179 3
	st16 r1, r0[r2]
	.loc	3 2179 3
	{
		add r0, r7, 6
		nop
	}
	.loc	3 2179 3
	st16 r1, r0[r2]
	{
		ldc r0, 48
		nop
	}
	.loc	3 2180 3
	{
		add r0, r7, r0
		nop
	}
	{
		nop
		stw r2, r0[0]
	}
	.loc	3 2181 3
	st8 r2, r7[r8]
	.loc	3 2183 3
	{
		mov r6, r2
		stw r2, r7[6]
	}
.Ltmp392:
.LBB9_74:
	.loc	3 2190 1
	{
		mov r0, r6
		nop
	}
.LBB9_13:
	{
		nop
		ldw r10, sp[14]
	}
	.loc	3 2073 11
.Ltmp393:
	ldd r9, r8, sp[6]
	ldd r7, r6, sp[5]
	ldd r5, r4, sp[4]
	{
		nop
		retsp 16
	}
	# RETURN_REG_HOLDER
.Ltmp394:
	.cc_bottom chk_mounted.function
	.set	chk_mounted.nstackwords,((disk_initialize.nstackwords $M disk_read.nstackwords $M disk_status.nstackwords) + 16)
	.set	chk_mounted.maxcores,disk_initialize.maxcores $M disk_read.maxcores $M disk_status.maxcores $M 1
	.set	chk_mounted.maxtimers,disk_initialize.maxtimers $M disk_read.maxtimers $M disk_status.maxtimers $M 0
	.set	chk_mounted.maxchanends,disk_initialize.maxchanends $M disk_read.maxchanends $M disk_status.maxchanends $M 0
.Ltmp395:
	.size	chk_mounted, .Ltmp395-chk_mounted
.Lfunc_end9:
	.cfi_endproc

	.section	.cp.rodata.cst4,"aMc",@progbits,4
	.cc_top .LCPI10_0.data,.LCPI10_0
	.align	4
	.type	.LCPI10_0,@object
	.size	.LCPI10_0, 4
.LCPI10_0:
	.long	4294967232
	.cc_bottom .LCPI10_0.data
	.cc_top .LCPI10_1.data,.LCPI10_1
	.align	4
	.type	.LCPI10_1,@object
	.size	.LCPI10_1, 4
.LCPI10_1:
	.long	4294967231
	.cc_bottom .LCPI10_1.data
	.cc_top .LCPI10_2.data,.LCPI10_2
	.align	4
	.type	.LCPI10_2,@object
	.size	.LCPI10_2, 4
.LCPI10_2:
	.long	4294967199
	.cc_bottom .LCPI10_2.data
	.text
	.align	4
	.type	follow_path,@function
	.cc_top follow_path.function,follow_path
follow_path:
.Lfunc_begin10:
	.loc	3 1950 0
	.cfi_startproc
	.issue_mode dual
	{
		nop
		dualentsp 20
	}
.Ltmp396:
	.cfi_def_cfa_offset 80
.Ltmp397:
	.cfi_offset 15, 0
	std r5, r4, sp[6]
.Ltmp398:
	.cfi_offset 4, -32
.Ltmp399:
	.cfi_offset 5, -28
	std r7, r6, sp[7]
.Ltmp400:
	.cfi_offset 6, -24
.Ltmp401:
	.cfi_offset 7, -20
	std r9, r8, sp[8]
.Ltmp402:
	.cfi_offset 8, -16
.Ltmp403:
	.cfi_offset 9, -12
.Ltmp404:
	.cfi_offset 10, -8
.Ltmp405:
	{
		mov r5, r1
		stw r10, sp[18]
	}
.Ltmp406:
	{
		mov r4, r0
		nop
	}
.Ltmp407:
	.loc	3 1956 7 prologue_end
	{
		ldc r10, 0
		stw r4, sp[10]
	}
	{
		ldc r8, 47
		ld8u r0, r5[r10]
	}
	.loc	3 1956 7
	{
		eq r1, r0, r8
		nop
	}
	bt r1, .LBB10_2
.Ltmp408:
	ldc r1, 92
	{
		eq r0, r0, r1
		nop
	}
	bf r0, .LBB10_3
.Ltmp409:
.LBB10_2:
	.loc	3 1957 5
	{
		add r5, r5, 1
		ldc r0, 0
	}
.Ltmp410:
	bu .LBB10_4
.Ltmp411:
.LBB10_3:
	{
		nop
		ldw r0, r4[0]
	}
	{
		nop
		ldw r0, r0[6]
	}
.Ltmp412:
.LBB10_4:
	{
		nop
		stw r0, r4[2]
	}
.Ltmp413:
	{
		nop
		ld8u r1, r5[r10]
	}
	.loc	3 1967 7
.Ltmp414:
	{
		shr r0, r1, 5
		nop
	}
	bt r0, .LBB10_5
.Ltmp415:
	{
		ldc r5, 0
		mov r0, r4
	}
	.loc	3 1968 11
.Ltmp416:
	{
		mov r1, r5
		nop
	}
	bl dir_sdi
.Ltmp417:
	{
		nop
		stw r5, r4[5]
	}
	bu .LBB10_124
.Ltmp418:
.LBB10_5:
	ldc r9, 92
	ldc r3, 224
	{
		ldc r7, 46
		ldc r6, 32
	}
	bu .LBB10_6
.Ltmp419:
.LBB10_9:
	{
		nop
		ld8u r1, r5[r10]
	}
.Ltmp420:
.LBB10_6:
	.loc	3 1666 3
	{
		mov r0, r1
		nop
	}
	{
		zext r0, 8
		nop
	}
	{
		eq r2, r0, r8
		nop
	}
	bt r2, .LBB10_8
.Ltmp421:
	{
		eq r0, r0, r9
		nop
	}
	bf r0, .LBB10_10
.Ltmp422:
.LBB10_8:
	.loc	3 1666 44
	{
		add r5, r5, 1
		nop
	}
.Ltmp423:
	bu .LBB10_9
.Ltmp424:
.LBB10_10:
	.loc	3 1671 9
	{
		and r0, r1, r3
		nop
	}
	{
		shr r0, r0, 5
		nop
	}
.Ltmp425:
	.loc	3 1973 13
	bf r0, .LBB10_11
.Ltmp426:
	.loc	3 1667 3
	{
		mkmsk r3, 1
		ldw r9, r4[7]
	}
.Ltmp427:
	.loc	3 1973 13
	{
		mov r0, r10
		mov r2, r10
	}
.Ltmp428:
.LBB10_13:
	.loc	3 1671 9
	{
		mov r11, r1
		nop
	}
	{
		zext r11, 8
		nop
	}
	{
		eq r4, r11, r8
		nop
	}
	bt r4, .LBB10_14
.Ltmp429:
	ldc r4, 92
	{
		eq r4, r11, r4
		nop
	}
	bt r4, .LBB10_16
.Ltmp430:
	ldc r4, 254
	.loc	3 1672 9
.Ltmp431:
	{
		lsu r4, r4, r0
		nop
	}
	.loc	3 1672 9
	bt r4, .LBB10_18
.Ltmp432:
	{
		mov r5, r7
		stw r5, sp[11]
	}
	{
		mkmsk r4, 7
		nop
	}
	.loc	3 1676 9
.Ltmp433:
	{
		add r4, r1, r4
		nop
	}
	{
		zext r4, 8
		mkmsk r7, 5
	}
	.loc	3 1676 9
	{
		lsu r4, r4, r7
		nop
	}
	bt r4, .LBB10_22
.Ltmp434:
	.loc	3 1676 9
	ldaw r4, r1[8]
	{
		zext r4, 8
		ldc r7, 28
	}
	.loc	3 1676 9
	{
		lsu r4, r7, r4
		nop
	}
	bt r4, .LBB10_21
.Ltmp435:
.LBB10_22:
	{
		nop
		ldw r11, sp[11]
	}
	{
		nop
		ld8u r3, r11[r3]
	}
	ldw r11, cp[.LCPI10_0]
	.loc	3 1678 11
.Ltmp436:
	{
		add r11, r3, r11
		nop
	}
	{
		zext r11, 8
		mkmsk r4, 6
	}
	.loc	3 1678 11
	{
		lsu r11, r11, r4
		mov r7, r5
	}
	bt r11, .LBB10_27
.Ltmp437:
	.loc	3 1678 11
	{
		mov r11, r3
		nop
	}
	{
		sext r11, 8
		nop
	}
	.loc	3 1678 11
	ashr r11, r11, 32
	bf r11, .LBB10_24
.Ltmp438:
	ldc r11, 252
	{
		lsu r11, r11, r3
		nop
	}
	bt r11, .LBB10_26
.Ltmp439:
.LBB10_27:
	.loc	3 1677 7
	{
		add r2, r2, 2
		zext r1, 8
	}
.Ltmp440:
	.loc	3 1680 7
	{
		shl r1, r1, 8
		nop
	}
	.loc	3 1680 7
	{
		or r11, r3, r1
		nop
	}
	bu .LBB10_28
.Ltmp441:
.LBB10_21:
	.loc	3 1973 13
	{
		mov r2, r3
		mov r7, r5
	}
.Ltmp442:
.LBB10_28:
	.loc	3 520 15
	{
		shr r3, r11, 7
		mov r1, r10
	}
	{
		nop
		ldw r5, sp[11]
	}
	bt r3, .LBB10_30
.Ltmp443:
	.loc	3 522 21
	{
		mov r1, r11
		nop
	}
.Ltmp444:
.LBB10_30:
	.loc	3 1683 9
	bf r1, .LBB10_31
.Ltmp445:
	ldaw r11, cp[.L.str]
.Ltmp446:
.LBB10_33:
	{
		nop
		ld8u r3, r11[r10]
	}
	bf r3, .LBB10_35
.Ltmp447:
	.loc	3 593 31
	{
		add r11, r11, 1
		eq r4, r3, r1
	}
.Ltmp448:
	bf r4, .LBB10_33
.Ltmp449:
.LBB10_35:
	.loc	3 1685 21
	bt r3, .LBB10_36
.Ltmp450:
	.loc	3 1687 5
	{
		add r11, r0, 1
		nop
	}
.Ltmp451:
	.loc	3 1687 5
	st16 r1, r9[r0]
	.loc	3 1670 5
	{
		add r3, r2, 1
		ld8u r1, r5[r2]
	}
.Ltmp452:
	.loc	3 1973 13
	{
		shr r4, r1, 5
		mov r0, r11
	}
	bt r4, .LBB10_13
.Ltmp453:
	{
		ldc r8, 4
		mov r0, r11
	}
	bu .LBB10_39
.Ltmp454:
.LBB10_14:
	.loc	3 1973 13
	{
		mov r8, r10
		nop
	}
.Ltmp455:
.LBB10_39:
	.loc	3 1692 7
	bf r0, .LBB10_40
.Ltmp456:
	.loc	3 1689 3
	{
		add r5, r5, r3
		eq r1, r0, 2
	}
.Ltmp457:
	bf r1, .LBB10_42
.Ltmp458:
	.loc	3 1692 7
	{
		add r1, r9, 2
		nop
	}
	{
		nop
		ld16s r1, r1[r10]
	}
	.loc	3 1692 7
	{
		zext r1, 16
		nop
	}
	.loc	3 1692 7
	{
		eq r1, r1, r7
		ldc r4, 2
	}
	bf r1, .LBB10_46
.Ltmp459:
	{
		nop
		ld16s r1, r9[r10]
	}
	.loc	3 1692 7
	{
		zext r1, 16
		nop
	}
	.loc	3 1692 7
	{
		eq r1, r1, r7
		ldc r4, 2
	}
	bt r1, .LBB10_52
	bu .LBB10_46
.Ltmp460:
.LBB10_42:
	{
		eq r1, r0, 1
		nop
	}
	bf r1, .LBB10_43
.Ltmp461:
	{
		nop
		ld16s r1, r9[r10]
	}
	.loc	3 1692 7
	{
		zext r1, 16
		nop
	}
	.loc	3 1692 7
	{
		eq r1, r1, r7
		mkmsk r4, 1
	}
	bf r1, .LBB10_46
.Ltmp462:
.LBB10_52:
	.loc	3 1694 5
	st16 r10, r9[r0]
.Ltmp463:
	.loc	3 1973 13
	{
		mov r1, r10
		ldw r4, sp[10]
	}
.Ltmp464:
.LBB10_53:
	.loc	3 1696 7
	{
		lsu r3, r1, r0
		mov r2, r7
	}
	bt r3, .LBB10_55
.Ltmp465:
	.loc	3 1696 7
	{
		mov r2, r6
		nop
	}
.Ltmp466:
.LBB10_55:
	{
		nop
		ldw r3, r4[6]
	}
	.loc	3 1696 7
	st8 r2, r3[r1]
	.loc	3 1695 25
	{
		add r1, r1, 1
		nop
	}
.Ltmp467:
.xtaloop 11
	# LOOPMARKER 0
	.loc	3 1695 5
	{
		eq r2, r1, 11
		nop
	}
	bf r2, .LBB10_53
.Ltmp468:
	.loc	3 1697 5
	{
		or r0, r8, r6
		ldw r1, r4[6]
	}
	{
		ldc r8, 11
		nop
	}
	.loc	3 1697 5
	st8 r0, r1[r8]
	ldc r9, 92
	bu .LBB10_112
.Ltmp469:
.LBB10_43:
	{
		mov r4, r0
		nop
	}
.Ltmp470:
.LBB10_46:
	{
		sub r5, r9, 2
		stw r5, sp[11]
	}
.Ltmp471:
.LBB10_47:
	{
		nop
		ld16s r0, r5[r4]
	}
	.loc	3 1702 5
.Ltmp472:
	{
		zext r0, 16
		nop
	}
	.loc	3 1703 9
.Ltmp473:
	{
		eq r1, r0, r6
		nop
	}
	bt r1, .LBB10_49
.Ltmp474:
	{
		eq r0, r0, r7
		nop
	}
	bf r0, .LBB10_57
.Ltmp475:
.LBB10_49:
	.loc	3 1702 5
	{
		sub r4, r4, 1
		nop
	}
	bt r4, .LBB10_47
	bu .LBB10_50
.Ltmp476:
.LBB10_57:
	.loc	3 1708 3
	st16 r10, r9[r4]
	{
		nop
		ldw r0, sp[10]
	}
.Ltmp477:
	.loc	3 1711 3
	{
		mov r1, r6
		ldw r0, r0[6]
	}
.Ltmp478:
	{
		ldc r2, 11
		nop
	}
	.loc	3 577 5
.Ltmp479:
	bl memset
.Ltmp480:
	.loc	3 1973 13
	{
		mov r1, r10
		nop
	}
	bu .LBB10_58
.Ltmp481:
.LBB10_60:
	.loc	3 1712 50
	{
		add r1, r1, 1
		nop
	}
.Ltmp482:
.LBB10_58:
	{
		nop
		ld16s r0, r9[r1]
	}
	.loc	3 1712 3
	{
		zext r0, 16
		nop
	}
	.loc	3 1712 3
	{
		eq r2, r0, r6
		nop
	}
	bt r2, .LBB10_60
.Ltmp483:
	{
		eq r0, r0, r7
		nop
	}
	bt r0, .LBB10_60
.Ltmp484:
	bf r1, .LBB10_63
.Ltmp485:
	{
		mkmsk r0, 2
		nop
	}
	.loc	3 1713 11
.Ltmp486:
	{
		or r8, r8, r0
		nop
	}
	.loc	3 1713 11
	{
		zext r8, 8
		nop
	}
.Ltmp487:
.LBB10_63:
	.loc	3 1714 3
	bf r4, .LBB10_64
.Ltmp488:
	.loc	3 1714 3
	{
		sub r0, r4, 1
		ld16s r2, r5[r4]
	}
	.loc	3 1714 3
	{
		zext r2, 16
		nop
	}
	.loc	3 1714 3
	{
		eq r2, r2, r7
		mov r4, r0
	}
	bf r2, .LBB10_63
.Ltmp489:
	.loc	3 1714 3
	{
		add r0, r0, 1
		nop
	}
	bu .LBB10_67
.Ltmp490:
.LBB10_64:
	.loc	3 1973 13
	{
		mov r0, r10
		nop
	}
.Ltmp491:
.LBB10_67:
	.loc	3 1718 5
	{
		sub r2, r0, 1
		stw r0, sp[8]
	}
.Ltmp492:
	.loc	3 1973 13
	{
		mov r0, r10
		mov r11, r10
	}
.Ltmp493:
	{
		ldc r3, 8
		ldw r5, sp[11]
	}
.Ltmp494:
.LBB10_68:
	{
		nop
		stw r3, sp[9]
	}
	{
		nop
		stw r0, sp[7]
	}
	bu .LBB10_69
.Ltmp495:
.LBB10_104:
	.loc	3 1762 5
	{
		add r11, r3, 1
		ldw r4, sp[10]
	}
.Ltmp496:
	{
		nop
		ldw r4, r4[6]
	}
	.loc	3 1762 5
	st8 r0, r4[r3]
.Ltmp497:
.LBB10_69:
	.loc	3 1973 13
	{
		mov r3, r11
		mkmsk r4, 2
	}
	bu .LBB10_70
.Ltmp498:
.LBB10_74:
	.loc	3 1718 5
	{
		add r1, r1, 1
		or r8, r8, r4
	}
	.loc	3 1721 7
.Ltmp499:
	{
		zext r8, 8
		nop
	}
.Ltmp500:
.LBB10_70:
	{
		nop
		ld16s r0, r9[r1]
	}
	.loc	3 1718 5
	{
		zext r0, 16
		nop
	}
	.loc	3 1719 9
.Ltmp501:
	{
		eq r11, r0, r6
		nop
	}
	bt r11, .LBB10_74
.Ltmp502:
	bf r0, .LBB10_81
.Ltmp503:
	{
		eq r11, r0, r7
		nop
	}
	bf r11, .LBB10_75
.Ltmp504:
	.loc	3 1720 9
	{
		eq r0, r2, r1
		nop
	}
	bf r0, .LBB10_74
.Ltmp505:
	.loc	3 1720 9
	{
		add r1, r1, 1
		mov r0, r7
	}
	bu .LBB10_77
.Ltmp506:
.LBB10_75:
	{
		add r1, r1, 1
		nop
	}
.Ltmp507:
.LBB10_77:
	{
		nop
		ldw r11, sp[9]
	}
	.loc	3 1724 9
.Ltmp508:
	{
		lsu r11, r3, r11
		nop
	}
	bf r11, .LBB10_79
.Ltmp509:
	{
		nop
		ldw r11, sp[8]
	}
	{
		eq r11, r1, r11
		nop
	}
	bt r11, .LBB10_79
.Ltmp510:
	.loc	3 1734 9
	{
		shr r11, r0, 7
		nop
	}
	bf r11, .LBB10_93
.Ltmp511:
	{
		ldc r0, 2
		nop
	}
	.loc	3 1741 7
.Ltmp512:
	{
		or r8, r8, r0
		nop
	}
	.loc	3 1741 7
	{
		zext r8, 8
		nop
	}
	bu .LBB10_99
.Ltmp513:
.LBB10_93:
	ldaw r11, cp[.L.str1]
	bf r0, .LBB10_99
.Ltmp514:
	{
		nop
		stw r5, sp[11]
	}
.Ltmp515:
.LBB10_95:
	{
		nop
		ld8u r4, r11[r10]
	}
	bf r4, .LBB10_97
.Ltmp516:
	.loc	3 593 31
	{
		add r11, r11, 1
		eq r5, r4, r0
	}
.Ltmp517:
	bf r5, .LBB10_95
.Ltmp518:
.LBB10_97:
	.loc	3 1750 17
	bf r4, .LBB10_100
.Ltmp519:
	{
		mkmsk r4, 2
		ldw r5, sp[11]
	}
.Ltmp520:
.LBB10_99:
	.loc	3 1751 18
	{
		or r8, r8, r4
		nop
	}
	.loc	3 1751 18
	{
		zext r8, 8
		nop
	}
	ldc r0, 95
	bu .LBB10_104
.Ltmp521:
.LBB10_100:
	ldw r11, cp[.LCPI10_1]
	.loc	3 1753 13
.Ltmp522:
	{
		add r11, r0, r11
		nop
	}
	{
		zext r11, 16
		ldc r4, 25
	}
.Ltmp523:
	.loc	3 1753 13
	{
		lsu r11, r4, r11
		ldw r5, sp[11]
	}
.Ltmp524:
	bt r11, .LBB10_102
.Ltmp525:
	{
		ldc r11, 2
		ldw r4, sp[7]
	}
	.loc	3 1754 11
.Ltmp526:
	{
		or r4, r4, r11
		nop
	}
	.loc	3 1754 11
	{
		zext r4, 8
		nop
	}
	{
		nop
		stw r4, sp[7]
	}
	bu .LBB10_104
.Ltmp527:
.LBB10_102:
	ldw r11, cp[.LCPI10_2]
	.loc	3 1756 15
.Ltmp528:
	{
		add r11, r0, r11
		nop
	}
	{
		zext r11, 16
		nop
	}
	.loc	3 1756 15
	{
		lsu r11, r4, r11
		nop
	}
	bt r11, .LBB10_104
.Ltmp529:
	{
		mkmsk r11, 1
		ldw r4, sp[7]
	}
	.loc	3 1757 13
.Ltmp530:
	{
		or r4, r4, r11
		nop
	}
	.loc	3 1757 13
	{
		zext r4, 8
		nop
	}
	{
		nop
		stw r4, sp[7]
	}
	ldc r11, 224
	.loc	3 1757 21
	{
		add r0, r0, r11
		nop
	}
	bu .LBB10_104
.Ltmp531:
.LBB10_79:
	{
		nop
		ldw r0, sp[9]
	}
	.loc	3 1725 11
.Ltmp532:
	{
		eq r0, r0, 11
		nop
	}
	bt r0, .LBB10_80
.Ltmp533:
	{
		nop
		ldw r3, sp[8]
	}
	{
		eq r0, r1, r3
		nop
	}
	bt r0, .LBB10_90
.Ltmp534:
	.loc	3 1728 21
	{
		or r8, r8, r4
		nop
	}
	.loc	3 1728 21
	{
		zext r8, 8
		nop
	}
.Ltmp535:
.LBB10_90:
	{
		nop
		ldw r0, sp[7]
	}
.Ltmp536:
	.loc	3 1729 11
	{
		lsu r4, r3, r1
		stw r0, sp[7]
	}
.Ltmp537:
	.loc	3 1731 7
	{
		zext r0, 8
		nop
	}
	.loc	3 1731 7
	{
		shl r0, r0, 2
		ldc r11, 8
	}
	{
		mov r1, r3
		ldc r3, 11
	}
.Ltmp538:
	bf r4, .LBB10_68
	bu .LBB10_81
.Ltmp539:
.LBB10_16:
	.loc	3 1973 13
	{
		mov r8, r10
		nop
	}
	bu .LBB10_39
.Ltmp540:
.LBB10_80:
	.loc	3 1726 9
	{
		or r8, r8, r4
		nop
	}
	.loc	3 1726 9
	{
		zext r8, 8
		ldc r0, 11
	}
	{
		nop
		stw r0, sp[9]
	}
.Ltmp541:
.LBB10_81:
	{
		nop
		ldw r4, sp[10]
	}
.Ltmp542:
	{
		nop
		ldw r0, r4[6]
	}
	{
		nop
		ld8u r1, r0[r10]
	}
	ldc r2, 229
	.loc	3 1765 7
.Ltmp543:
	{
		eq r1, r1, r2
		nop
	}
	bf r1, .LBB10_83
.Ltmp544:
	{
		ldc r1, 5
		nop
	}
	.loc	3 1765 25
	st8 r1, r0[r10]
.Ltmp545:
.LBB10_83:
	{
		nop
		ldw r0, sp[9]
	}
	.loc	3 1767 7
.Ltmp546:
	{
		eq r0, r0, 8
		nop
	}
	ldc r9, 92
	{
		nop
		ldw r2, sp[7]
	}
	bf r0, .LBB10_85
.Ltmp547:
	.loc	3 1767 16
	{
		zext r2, 8
		nop
	}
	.loc	3 1767 16
	{
		shl r2, r2, 2
		nop
	}
.Ltmp548:
.LBB10_85:
	{
		ldc r0, 12
		nop
	}
	{
		mov r1, r0
		nop
	}
	.loc	3 1768 7
.Ltmp549:
	{
		and r0, r2, r1
		nop
	}
	.loc	3 1768 7
	{
		eq r1, r0, r1
		zext r2, 2
	}
	bt r1, .LBB10_105
.Ltmp550:
	{
		eq r1, r2, 3
		nop
	}
	bt r1, .LBB10_105
.Ltmp551:
	{
		ldc r1, 2
		nop
	}
	bu .LBB10_106
.Ltmp552:
.LBB10_105:
	{
		ldc r1, 2
		nop
	}
	.loc	3 1769 5
	{
		or r8, r8, r1
		nop
	}
	.loc	3 1769 5
	{
		zext r8, 8
		nop
	}
.Ltmp553:
.LBB10_106:
	.loc	3 1770 7
	{
		and r1, r8, r1
		nop
	}
	bt r1, .LBB10_111
.Ltmp554:
	.loc	3 1771 9
	{
		eq r1, r2, 1
		nop
	}
	bf r1, .LBB10_109
.Ltmp555:
	.loc	3 1770 7
	{
		zext r8, 8
		ldc r1, 16
	}
	.loc	3 1771 29
.Ltmp556:
	{
		or r8, r8, r1
		nop
	}
.Ltmp557:
.LBB10_109:
	.loc	3 1772 9
	{
		eq r0, r0, 4
		nop
	}
	bf r0, .LBB10_111
.Ltmp558:
	{
		ldc r0, 8
		nop
	}
	.loc	3 1772 29
	{
		or r8, r8, r0
		nop
	}
	.loc	3 1772 29
	{
		zext r8, 8
		nop
	}
.Ltmp559:
.LBB10_111:
	.loc	3 1775 3
	{
		ldc r1, 11
		ldw r0, r4[6]
	}
	.loc	3 1775 3
	st8 r8, r0[r1]
	{
		mov r8, r1
		nop
	}
.Ltmp560:
.LBB10_112:
	.loc	3 1975 13
	{
		mov r0, r4
		nop
	}
	bl dir_find
.Ltmp561:
	{
		nop
		ldw r1, r4[6]
	}
	.loc	3 1976 7
	{
		ldc r8, 47
		ld8u r1, r1[r8]
	}
	.loc	3 1977 11
.Ltmp562:
	bt r0, .LBB10_113
.Ltmp563:
	{
		ldc r0, 4
		nop
	}
	.loc	3 1989 11
.Ltmp564:
	{
		and r0, r1, r0
		nop
	}
	ldc r3, 224
	.loc	3 1989 11
	bt r0, .LBB10_119
.Ltmp565:
	.loc	3 1990 7
	{
		ldc r1, 11
		ldw r0, r4[5]
	}
.Ltmp566:
	.loc	3 1991 11
	{
		ldc r2, 16
		ld8u r1, r0[r1]
	}
	.loc	3 1991 11
	{
		and r1, r1, r2
		nop
	}
	.loc	3 1991 11
	bf r1, .LBB10_121
.Ltmp567:
	{
		ldc r1, 21
		nop
	}
	{
		nop
		ld8u r1, r0[r1]
	}
	.loc	3 1994 7
	{
		shl r1, r1, 8
		ldc r2, 20
	}
	{
		nop
		ld8u r2, r0[r2]
	}
	.loc	3 1994 7
	{
		or r1, r1, r2
		nop
	}
	.loc	3 1994 7
	{
		shl r1, r1, 16
		ldc r2, 27
	}
	{
		nop
		ld8u r2, r0[r2]
	}
	.loc	3 1994 7
	{
		shl r2, r2, 8
		ldc r11, 26
	}
	{
		nop
		ld8u r0, r0[r11]
	}
.Ltmp568:
	.loc	3 1994 7
	{
		or r0, r2, r0
		nop
	}
	.loc	3 1994 7
	{
		or r0, r0, r1
		nop
	}
	{
		nop
		stw r0, r4[2]
	}
	{
		nop
		ld8u r1, r5[r10]
	}
	bu .LBB10_6
.Ltmp569:
.LBB10_113:
	{
		eq r2, r0, 4
		nop
	}
	ldc r3, 224
	bf r2, .LBB10_124
.Ltmp570:
	.loc	3 1980 13
	{
		and r0, r1, r6
		nop
	}
	.loc	3 1980 13
	bf r0, .LBB10_117
.Ltmp571:
	{
		nop
		stw r10, r4[2]
	}
.Ltmp572:
	.loc	3 1981 27
	{
		ldc r0, 4
		stw r10, r4[5]
	}
	.loc	3 1983 15
.Ltmp573:
	{
		and r0, r1, r0
		nop
	}
	bf r0, .LBB10_9
.Ltmp574:
	{
		mov r0, r10
		nop
	}
	bu .LBB10_124
.LBB10_50:
	{
		ldc r0, 6
		nop
	}
.LBB10_124:
	{
		nop
		ldw r10, sp[18]
	}
	.loc	3 1998 3
	ldd r9, r8, sp[8]
	ldd r7, r6, sp[7]
	ldd r5, r4, sp[6]
	{
		nop
		retsp 20
	}
	# RETURN_REG_HOLDER
.LBB10_40:
	{
		ldc r0, 6
		nop
	}
	bu .LBB10_124
.LBB10_11:
	{
		ldc r0, 6
		nop
	}
	bu .LBB10_124
.LBB10_18:
	{
		ldc r0, 6
		nop
	}
	bu .LBB10_124
.LBB10_31:
	{
		ldc r0, 6
		nop
	}
	bu .LBB10_124
.LBB10_36:
	{
		ldc r0, 6
		nop
	}
	bu .LBB10_124
.LBB10_119:
.Ltmp575:
	{
		mov r0, r10
		nop
	}
	bu .LBB10_124
.LBB10_121:
	{
		ldc r0, 5
		nop
	}
	bu .LBB10_124
.LBB10_117:
.Ltmp576:
	.loc	3 1985 15
	{
		shr r0, r1, 2
		nop
	}
	.loc	3 1985 15
	{
		zext r0, 1
		ldc r1, 5
	}
	.loc	3 1985 15
	xor r0, r0, r1
	bu .LBB10_124
.Ltmp577:
.LBB10_24:
	{
		ldc r0, 6
		nop
	}
	bu .LBB10_124
.LBB10_26:
	{
		ldc r0, 6
		nop
	}
	bu .LBB10_124
	.cc_bottom follow_path.function
	.set	follow_path.nstackwords,((dir_sdi.nstackwords $M dir_find.nstackwords $M memset.nstackwords) + 20)
	.set	follow_path.maxcores,dir_find.maxcores $M dir_sdi.maxcores $M 1
	.set	follow_path.maxtimers,dir_find.maxtimers $M dir_sdi.maxtimers $M 0
	.set	follow_path.maxchanends,dir_find.maxchanends $M dir_sdi.maxchanends $M 0
.Ltmp578:
	.size	follow_path, .Ltmp578-follow_path
.Lfunc_end10:
	.cfi_endproc

	.section	.cp.rodata.cst4,"aMc",@progbits,4
	.cc_top .LCPI11_0.data,.LCPI11_0
	.align	4
	.type	.LCPI11_0,@object
	.size	.LCPI11_0, 4
.LCPI11_0:
	.long	1321528399
	.cc_bottom .LCPI11_0.data
	.cc_top .LCPI11_1.data,.LCPI11_1
	.align	4
	.type	.LCPI11_1,@object
	.size	.LCPI11_1, 4
.LCPI11_1:
	.long	4294967283
	.cc_bottom .LCPI11_1.data
	.text
	.align	4
	.type	dir_register,@function
	.cc_top dir_register.function,dir_register
dir_register:
.Lfunc_begin11:
	.loc	3 1501 0
	.cfi_startproc
	.issue_mode dual
	{
		nop
		dualentsp 16
	}
.Ltmp579:
	.cfi_def_cfa_offset 64
.Ltmp580:
	.cfi_offset 15, 0
	std r5, r4, sp[4]
.Ltmp581:
	.cfi_offset 4, -32
.Ltmp582:
	.cfi_offset 5, -28
	std r7, r6, sp[5]
.Ltmp583:
	.cfi_offset 6, -24
.Ltmp584:
	.cfi_offset 7, -20
	std r9, r8, sp[6]
.Ltmp585:
	.cfi_offset 8, -16
.Ltmp586:
	.cfi_offset 9, -12
	{
		nop
		stw r10, sp[14]
	}
.Ltmp587:
	.cfi_offset 10, -8
	{
		nop
		ldw r6, r0[6]
	}
.Ltmp588:
	.loc	3 1510 16 prologue_end
	{
		mov r8, r0
		ldw r5, r0[7]
	}
.Ltmp589:
	.loc	3 568 5
	{
		ldc r7, 0
		nop
	}
	.loc	3 568 5
	{
		mkmsk r4, 1
		ld8u r1, r6[r7]
	}
	{
		ldaw r0, sp[5]
		nop
	}
.Ltmp590:
	.loc	3 568 5
	{
		or r2, r0, r4
		nop
	}
.Ltmp591:
	.loc	3 568 5
	st8 r1, r0[r7]
	.loc	3 568 5
	{
		ldc r11, 2
		ld8u r1, r6[r4]
	}
	.loc	3 568 5
	{
		or r3, r0, r11
		nop
	}
	.loc	3 568 5
	st8 r1, r2[r7]
	.loc	3 568 5
	{
		mkmsk r11, 2
		ld8u r1, r6[r11]
	}
	.loc	3 568 5
	{
		or r2, r0, r11
		nop
	}
.Ltmp592:
	.loc	3 568 5
	st8 r1, r3[r7]
	{
		nop
		ld8u r1, r6[r11]
	}
	.loc	3 568 5
	st8 r1, r2[r7]
	{
		mov r3, r7
		ldc r2, 4
	}
	{
		nop
		ld8u r1, r6[r2]
	}
	.loc	3 568 5
	st8 r1, r0[r2]
	{
		ldc r2, 5
		nop
	}
	{
		nop
		ld8u r1, r6[r2]
	}
	.loc	3 568 5
	st8 r1, r0[r2]
	{
		ldc r7, 6
		nop
	}
	{
		nop
		ld8u r1, r6[r7]
	}
	.loc	3 568 5
	st8 r1, r0[r7]
	{
		mkmsk r2, 3
		nop
	}
	{
		nop
		ld8u r1, r6[r2]
	}
	.loc	3 568 5
	st8 r1, r0[r2]
	{
		ldc r2, 8
		nop
	}
	{
		nop
		ld8u r1, r6[r2]
	}
	.loc	3 568 5
	st8 r1, r0[r2]
	{
		ldc r2, 9
		nop
	}
	{
		nop
		ld8u r1, r6[r2]
	}
	.loc	3 568 5
	st8 r1, r0[r2]
	{
		ldc r2, 10
		nop
	}
	{
		nop
		ld8u r1, r6[r2]
	}
	.loc	3 568 5
	st8 r1, r0[r2]
	{
		ldc r1, 11
		nop
	}
	{
		nop
		ld8u r10, r6[r1]
	}
	.loc	3 568 5
	st8 r10, r0[r1]
	{
		ldc r0, 32
		nop
	}
.Ltmp593:
	.loc	3 1513 7
	{
		and r0, r10, r0
		nop
	}
	bt r0, .LBB11_45
.Ltmp594:
	.loc	3 1516 7
	{
		mov r0, r10
		nop
	}
	{
		zext r0, 1
		nop
	}
	bf r0, .LBB11_10
.Ltmp595:
	{
		ldc r0, 11
		nop
	}
	.loc	3 1517 5
.Ltmp596:
	st8 r3, r6[r0]
.Ltmp597:
	.loc	3 1517 17
	{
		ldaw r9, sp[5]
		stw r3, r8[7]
	}
.Ltmp598:
.LBB11_3:
	.loc	3 1519 7
	{
		mov r3, r4
		nop
	}
	{
		zext r3, 16
		mov r0, r6
	}
	{
		mov r1, r9
		mov r2, r5
	}
	bl gen_numname
	.loc	3 1520 13
	{
		mov r0, r8
		nop
	}
	bl dir_find
	{
		mov r7, r0
		nop
	}
	.loc	3 1521 11
.Ltmp599:
	{
		eq r0, r7, 4
		nop
	}
	bt r0, .LBB11_9
.Ltmp600:
	bt r7, .LBB11_45
.Ltmp601:
	.loc	3 1518 26
	{
		add r4, r4, 1
		nop
	}
	{
		mov r0, r4
		nop
	}
	{
		zext r0, 16
		nop
	}
	ldc r1, 100
	.loc	3 1518 5
	{
		lsu r1, r0, r1
		nop
	}
	bt r1, .LBB11_3
.Ltmp602:
	ldc r1, 100
	.loc	3 1523 9
.Ltmp603:
	{
		eq r1, r0, r1
		mkmsk r0, 3
	}
	bt r1, .LBB11_8
.Ltmp604:
	.loc	3 568 5
	{
		ldc r0, 0
		nop
	}
	bu .LBB11_8
.Ltmp605:
.LBB11_9:
	{
		ldc r0, 11
		nop
	}
	.loc	3 1525 5
.Ltmp606:
	st8 r10, r6[r0]
	{
		nop
		stw r5, r8[7]
	}
.Ltmp607:
.LBB11_10:
	{
		ldc r0, 2
		nop
	}
	.loc	3 1528 7
.Ltmp608:
	{
		and r0, r10, r0
		nop
	}
	.loc	3 1528 7
	bf r0, .LBB11_11
.Ltmp609:
	{
		ldc r1, 0
		nop
	}
.Ltmp610:
.LBB11_13:
	.loc	3 1529 27
	{
		add r2, r1, 1
		mov r0, r1
	}
	.loc	3 1529 5
	{
		zext r0, 16
		nop
	}
	{
		nop
		ld16s r3, r5[r0]
	}
	.loc	3 1529 5
	{
		zext r3, 16
		mov r1, r2
	}
	.loc	3 1529 5
	bt r3, .LBB11_13
.Ltmp611:
	{
		ldc r1, 25
		nop
	}
	.loc	3 1530 5
	{
		add r0, r0, r1
		ldc r1, 0
	}
	ldw r2, cp[.LCPI11_0]
	.loc	3 1530 5
	lmul r0, r1, r0, r2, r1, r1
	{
		shr r9, r0, 2
		nop
	}
	bu .LBB11_15
.Ltmp612:
.LBB11_11:
	{
		mkmsk r9, 1
		nop
	}
.Ltmp613:
.LBB11_15:
	{
		ldc r6, 0
		mov r0, r8
	}
	.loc	3 1536 9
	{
		mov r1, r6
		nop
	}
	bl dir_sdi
	{
		mov r7, r0
		nop
	}
.Ltmp614:
	bt r7, .LBB11_45
.Ltmp615:
	ldc r4, 229
	{
		mov r5, r6
		mov r10, r6
	}
.Ltmp616:
.LBB11_17:
	{
		nop
		ldw r0, r8[0]
	}
	{
		nop
		ldw r1, r8[4]
	}
	.loc	3 1540 11
.Ltmp617:
	bl move_window
	{
		mov r7, r0
		nop
	}
.Ltmp618:
	bt r7, .LBB11_45
.Ltmp619:
	{
		nop
		ldw r0, r8[5]
	}
	{
		nop
		ld8u r0, r0[r6]
	}
	.loc	3 1542 5
	{
		eq r1, r0, r4
		nop
	}
	bt r1, .LBB11_21
.Ltmp620:
	bt r0, .LBB11_20
.Ltmp621:
.LBB11_21:
	.loc	3 1544 11
	{
		mov r0, r10
		nop
	}
	{
		zext r0, 16
		nop
	}
	bt r0, .LBB11_23
.Ltmp622:
	.loc	3 1544 19
	{
		add r0, r8, 6
		nop
	}
	{
		nop
		ld16s r5, r0[r6]
	}
.Ltmp623:
.LBB11_23:
	.loc	3 1545 11
	{
		add r10, r10, 1
		nop
	}
	{
		mov r1, r10
		nop
	}
	{
		zext r1, 16
		mov r0, r9
	}
	.loc	3 1545 11
	{
		zext r0, 16
		nop
	}
	{
		eq r1, r1, r0
		nop
	}
	bf r1, .LBB11_24
	bu .LBB11_25
.Ltmp624:
.LBB11_20:
	{
		mov r10, r6
		nop
	}
.Ltmp625:
.LBB11_24:
	.loc	3 1549 11
	{
		mov r0, r8
		mkmsk r1, 1
	}
	bl dir_next
	{
		mov r7, r0
		nop
	}
.Ltmp626:
	bf r7, .LBB11_17
	bu .LBB11_45
.Ltmp627:
.LBB11_25:
	{
		ldc r1, 2
		nop
	}
	.loc	3 1552 7
.Ltmp628:
	{
		lsu r0, r0, r1
		nop
	}
	bt r0, .LBB11_43
.Ltmp629:
	.loc	3 1553 11
	{
		zext r5, 16
		mov r0, r8
	}
	{
		mov r1, r5
		nop
	}
	bl dir_sdi
	{
		mov r7, r0
		nop
	}
.Ltmp630:
	bt r7, .LBB11_45
.Ltmp631:
	.loc	3 1555 13
	{
		ldc r1, 0
		ldw r0, r8[6]
	}
.Ltmp632:
	.loc	3 1555 13
	{
		mov r6, r1
		nop
	}
.Ltmp633:
.LBB11_28:
	.loc	3 1367 6
	{
		zext r6, 8
		nop
	}
	.loc	3 1367 6
	{
		shr r2, r6, 1
		shl r3, r6, 7
	}
	.loc	3 1367 6
	{
		or r2, r2, r3
		ld8u r3, r0[r1]
	}
	.loc	3 1367 6
	{
		add r6, r2, r3
		add r1, r1, 1
	}
.xtaloop 11
	# LOOPMARKER 0
	.loc	3 1367 6
	{
		eq r2, r1, 11
		nop
	}
	bf r2, .LBB11_28
.Ltmp634:
	.loc	3 1556 7
	{
		sub r0, r9, 1
		nop
	}
	{
		ldc r5, 0
		stw r0, sp[4]
	}
	{
		mkmsk r10, 16
		nop
	}
.Ltmp635:
.LBB11_30:
	{
		nop
		ldw r0, r8[0]
	}
.Ltmp636:
	.loc	3 1558 15
	{
		mov r4, r8
		ldw r1, r8[4]
	}
.Ltmp637:
	.loc	3 1558 15
	bl move_window
	{
		mov r7, r0
		nop
	}
.Ltmp638:
	bt r7, .LBB11_45
.Ltmp639:
	{
		nop
		stw r4, sp[3]
	}
	{
		nop
		ldw r1, r4[7]
	}
.Ltmp640:
	.loc	3 1560 9
	{
		ldc r2, 13
		ldw r0, r4[5]
	}
.Ltmp641:
	{
		mov r4, r2
		nop
	}
	.loc	3 1287 3
.Ltmp642:
	st8 r6, r0[r4]
	{
		ldc r2, 12
		stw r6, sp[2]
	}
	.loc	3 1288 3
	st8 r5, r0[r2]
	{
		ldc r2, 11
		mkmsk r3, 4
	}
	st8 r3, r0[r2]
	{
		ldc r2, 27
		nop
	}
	.loc	3 1290 3
	st8 r5, r0[r2]
	{
		ldc r2, 26
		nop
	}
	st8 r5, r0[r2]
	{
		nop
		ldw r2, sp[4]
	}
	.loc	3 1292 3
	{
		zext r2, 8
		nop
	}
	{
		nop
		stw r2, sp[1]
	}
	.loc	3 1292 3
	mul r3, r2, r4
	ldw r2, cp[.LCPI11_1]
	.loc	3 1292 3
	{
		add r3, r3, r2
		nop
	}
.Ltmp643:
	ldaw r11, cp[LfnOfs]
.Ltmp644:
	.loc	3 1560 9
	{
		mov r7, r5
		mov r9, r5
	}
.Ltmp645:
.LBB11_32:
	.loc	3 1295 9
	{
		zext r7, 16
		nop
	}
	{
		eq r7, r7, r10
		nop
	}
	.loc	3 1295 9
	bt r7, .LBB11_33
.Ltmp646:
	{
		mov r6, r10
		add r10, r3, 1
	}
.Ltmp647:
	.loc	3 1295 23
	{
		mov r3, r10
		ld16s r7, r1[r3]
	}
.Ltmp648:
	bu .LBB11_35
.Ltmp649:
.LBB11_33:
	.loc	3 1560 9
	{
		mov r7, r10
		mov r6, r10
	}
.Ltmp650:
.LBB11_35:
	.loc	3 1296 5
	{
		mov r10, r7
		nop
	}
	{
		zext r10, 16
		ld8u r2, r11[r9]
	}
	.loc	3 1296 5
	{
		add r5, r0, r2
		nop
	}
	.loc	3 1296 5
	st8 r7, r0[r2]
	.loc	3 1296 5
	{
		shr r2, r10, 8
		mkmsk r8, 1
	}
	.loc	3 1296 5
	st8 r2, r5[r8]
.Ltmp651:
	bt r10, .LBB11_37
.Ltmp652:
	{
		mkmsk r7, 32
		nop
	}
.Ltmp653:
.LBB11_37:
	.loc	3 1298 3
	{
		sub r4, r4, 1
		add r11, r11, 1
	}
.xtaloop 13
	# LOOPMARKER 1
	{
		mov r10, r6
		nop
	}
	bt r4, .LBB11_32
.Ltmp654:
	.loc	3 1299 7
	{
		zext r7, 16
		nop
	}
	{
		eq r2, r7, r10
		nop
	}
	bt r2, .LBB11_40
.Ltmp655:
	{
		nop
		ld16s r2, r1[r3]
	}
	.loc	3 1299 7
	{
		zext r2, 16
		ldw r3, sp[4]
	}
	bt r2, .LBB11_41
.Ltmp656:
.LBB11_40:
	ldc r1, 64
	{
		nop
		ldw r2, sp[1]
	}
	.loc	3 1299 35
	{
		or r3, r2, r1
		nop
	}
.Ltmp657:
.LBB11_41:
	{
		mov r1, r9
		nop
	}
	.loc	3 1300 3
	st8 r3, r0[r1]
	{
		nop
		ldw r0, sp[3]
	}
.Ltmp658:
	.loc	3 1561 9
	{
		ldc r2, 4
		ldw r11, r0[0]
	}
	{
		mkmsk r3, 1
		nop
	}
	.loc	3 1561 9
	st8 r3, r11[r2]
.Ltmp659:
	{
		mov r8, r0
		mov r5, r1
	}
.Ltmp660:
	.loc	3 1562 15
	bl dir_next
.Ltmp661:
	{
		mov r7, r0
		ldw r6, sp[2]
	}
.Ltmp662:
	bt r7, .LBB11_45
.Ltmp663:
	{
		nop
		ldw r0, sp[4]
	}
	.loc	3 1563 7
	{
		sub r0, r0, 1
		nop
	}
	{
		zext r0, 16
		stw r0, sp[4]
	}
	bt r0, .LBB11_30
.Ltmp664:
.LBB11_43:
	{
		nop
		ldw r0, r8[0]
	}
.Ltmp665:
	.loc	3 1581 11
	{
		mov r4, r8
		ldw r1, r8[4]
	}
.Ltmp666:
	.loc	3 1581 11
	bl move_window
	{
		mov r7, r0
		nop
	}
.Ltmp667:
	bt r7, .LBB11_45
.Ltmp668:
	.loc	3 1583 7
	{
		ldc r7, 0
		ldw r6, r4[5]
	}
.Ltmp669:
	{
		ldc r2, 32
		mov r0, r6
	}
	.loc	3 577 5
.Ltmp670:
	{
		mov r1, r7
		nop
	}
	bl memset
	{
		nop
		ldw r0, r4[6]
	}
.Ltmp671:
	{
		nop
		ld8u r1, r0[r7]
	}
.Ltmp672:
	.loc	3 568 5
	st8 r1, r6[r7]
	{
		mkmsk r11, 1
		nop
	}
	{
		nop
		ld8u r1, r0[r11]
	}
	.loc	3 568 5
	st8 r1, r6[r11]
	{
		ldc r1, 2
		nop
	}
	{
		mov r2, r1
		nop
	}
	{
		nop
		ld8u r1, r0[r2]
	}
	.loc	3 568 5
	st8 r1, r6[r2]
	{
		mkmsk r1, 2
		nop
	}
	{
		mov r2, r1
		nop
	}
	{
		nop
		ld8u r1, r0[r2]
	}
	.loc	3 568 5
	st8 r1, r6[r2]
	{
		ldc r1, 4
		nop
	}
	{
		mov r3, r1
		nop
	}
	{
		nop
		ld8u r1, r0[r3]
	}
	.loc	3 568 5
	st8 r1, r6[r3]
	{
		ldc r1, 5
		nop
	}
	{
		mov r2, r1
		nop
	}
	{
		nop
		ld8u r1, r0[r2]
	}
	.loc	3 568 5
	st8 r1, r6[r2]
	{
		ldc r1, 6
		nop
	}
	{
		nop
		ld8u r2, r0[r1]
	}
	.loc	3 568 5
	st8 r2, r6[r1]
	{
		mkmsk r1, 3
		nop
	}
	{
		nop
		ld8u r2, r0[r1]
	}
	.loc	3 568 5
	st8 r2, r6[r1]
	{
		ldc r1, 8
		nop
	}
	{
		mov r2, r1
		nop
	}
	{
		nop
		ld8u r1, r0[r2]
	}
	.loc	3 568 5
	st8 r1, r6[r2]
	{
		ldc r1, 9
		nop
	}
	{
		mov r2, r1
		nop
	}
	{
		nop
		ld8u r1, r0[r2]
	}
	.loc	3 568 5
	st8 r1, r6[r2]
	{
		ldc r1, 10
		nop
	}
	{
		nop
		ld8u r0, r0[r1]
	}
.Ltmp673:
	.loc	3 568 5
	st8 r0, r6[r1]
.Ltmp674:
	.loc	3 1587 7
	{
		ldc r1, 11
		ldw r0, r4[6]
	}
	.loc	3 1587 7
	{
		ldc r1, 24
		ld8u r0, r0[r1]
	}
	.loc	3 1587 7
	{
		and r0, r0, r1
		ldc r1, 12
	}
	.loc	3 1587 7
	st8 r0, r6[r1]
	{
		nop
		ldw r0, r4[0]
	}
	.loc	3 1589 7
	st8 r11, r0[r3]
.Ltmp675:
.LBB11_45:
	.loc	3 1594 1
	{
		mov r0, r7
		nop
	}
.LBB11_8:
	{
		nop
		ldw r10, sp[14]
	}
	.loc	3 1523 9
.Ltmp676:
	ldd r9, r8, sp[6]
	ldd r7, r6, sp[5]
	ldd r5, r4, sp[4]
	{
		nop
		retsp 16
	}
	# RETURN_REG_HOLDER
.Ltmp677:
	.cc_bottom dir_register.function
	.set	dir_register.nstackwords,((dir_sdi.nstackwords $M move_window.nstackwords $M memset.nstackwords $M dir_next.nstackwords $M gen_numname.nstackwords $M dir_find.nstackwords) + 16)
	.set	dir_register.maxcores,dir_find.maxcores $M dir_next.maxcores $M dir_sdi.maxcores $M gen_numname.maxcores $M move_window.maxcores $M 1
	.set	dir_register.maxtimers,dir_find.maxtimers $M dir_next.maxtimers $M dir_sdi.maxtimers $M gen_numname.maxtimers $M move_window.maxtimers $M 0
	.set	dir_register.maxchanends,dir_find.maxchanends $M dir_next.maxchanends $M dir_sdi.maxchanends $M gen_numname.maxchanends $M move_window.maxchanends $M 0
.Ltmp678:
	.size	dir_register, .Ltmp678-dir_register
.Lfunc_end11:
	.cfi_endproc

	.section	.cp.rodata.cst4,"aMc",@progbits,4
	.cc_top .LCPI12_0.data,.LCPI12_0
	.align	4
	.type	.LCPI12_0,@object
	.size	.LCPI12_0, 4
.LCPI12_0:
	.long	4294966784
	.cc_bottom .LCPI12_0.data
	.cc_top .LCPI12_1.data,.LCPI12_1
	.align	4
	.type	.LCPI12_1,@object
	.size	.LCPI12_1, 4
.LCPI12_1:
	.long	4294966783
	.cc_bottom .LCPI12_1.data
	.text
	.globl	f_read
	.align	4
	.type	f_read,@function
	.cc_top f_read.function,f_read
f_read:
.Lfunc_begin12:
	.loc	3 2407 0
	.cfi_startproc
	.issue_mode dual
	{
		nop
		dualentsp 10
	}
.Ltmp679:
	.cfi_def_cfa_offset 40
.Ltmp680:
	.cfi_offset 15, 0
	std r5, r4, sp[1]
.Ltmp681:
	.cfi_offset 4, -32
.Ltmp682:
	.cfi_offset 5, -28
	std r7, r6, sp[2]
.Ltmp683:
	.cfi_offset 6, -24
.Ltmp684:
	.cfi_offset 7, -20
	std r9, r8, sp[3]
.Ltmp685:
	.cfi_offset 8, -16
.Ltmp686:
	.cfi_offset 9, -12
.Ltmp687:
	.cfi_offset 10, -8
.Ltmp688:
	{
		mov r5, r3
		stw r10, sp[8]
	}
.Ltmp689:
	{
		mov r8, r2
		mov r6, r1
	}
.Ltmp690:
	{
		mov r4, r0
		ldc r9, 0
	}
.Ltmp691:
	{
		nop
		stw r9, r5[0]
	}
.Ltmp692:
	.loc	3 2416 9 prologue_end
	{
		ldc r7, 9
		ldw r0, r4[0]
	}
.Ltmp693:
	bf r0, .LBB12_48
.Ltmp694:
	{
		nop
		ld8u r1, r0[r9]
	}
	bf r1, .LBB12_48
.Ltmp695:
	.loc	3 2416 9
	{
		add r1, r4, 4
		nop
	}
	.loc	3 2416 9
	{
		add r2, r0, 6
		ld16s r1, r1[r9]
	}
	{
		nop
		ld16s r2, r2[r9]
	}
	.loc	3 2205 7
.Ltmp696:
	{
		zext r2, 16
		zext r1, 16
	}
	.loc	3 2205 7
	{
		eq r1, r2, r1
		nop
	}
	bf r1, .LBB12_48
.Ltmp697:
	{
		mkmsk r1, 1
		nop
	}
	{
		nop
		ld8u r0, r0[r1]
	}
.Ltmp698:
	.loc	3 2210 7
	bl disk_status
	.loc	3 2210 7
	{
		zext r0, 1
		nop
	}
	bf r0, .LBB12_5
.Ltmp699:
	{
		mkmsk r7, 2
		nop
	}
	bu .LBB12_48
.LBB12_5:
.Ltmp700:
	{
		ldc r0, 6
		nop
	}
	{
		nop
		ld8u r0, r4[r0]
	}
	.loc	3 2418 7
.Ltmp701:
	{
		shr r1, r0, 7
		nop
	}
	bf r1, .LBB12_7
.Ltmp702:
	{
		ldc r7, 2
		nop
	}
	bu .LBB12_48
.LBB12_7:
.Ltmp703:
	.loc	3 2420 7
	{
		zext r0, 1
		nop
	}
	.loc	3 2420 7
	bf r0, .LBB12_8
.Ltmp704:
	{
		nop
		ldw r0, r4[3]
	}
	{
		nop
		ldw r1, r4[2]
	}
	.loc	3 2422 3
	{
		sub r0, r0, r1
		nop
	}
.Ltmp705:
	.loc	3 2423 7
	{
		lsu r2, r0, r8
		nop
	}
	bt r2, .LBB12_11
.Ltmp706:
	.loc	3 2423 7
	{
		mov r0, r8
		nop
	}
.Ltmp707:
.LBB12_11:
	{
		mov r7, r9
		nop
	}
	bf r0, .LBB12_48
.Ltmp708:
	{
		ldc r7, 2
		ldc r10, 0
	}
.Ltmp709:
.LBB12_13:
	{
		nop
		stw r0, sp[1]
	}
	ldc r0, 511
	.loc	3 2427 9
.Ltmp710:
	{
		and r0, r1, r0
		nop
	}
	.loc	3 2427 9
	bf r0, .LBB12_15
.Ltmp711:
	{
		nop
		ldw r0, r4[0]
	}
	{
		nop
		ldw r11, r4[6]
	}
	bu .LBB12_37
.Ltmp712:
.LBB12_15:
	{
		ldc r0, 9
		nop
	}
	.loc	3 2428 7
.Ltmp713:
	{
		shr r2, r1, r0
		ldw r0, r4[0]
	}
	.loc	3 2428 7
	{
		mkmsk r11, 8
		ld8u r3, r0[r7]
	}
	.loc	3 2428 7
	{
		add r3, r3, r11
		nop
	}
	.loc	3 2428 7
	{
		and r9, r3, r2
		nop
	}
	.loc	3 2428 7
	{
		zext r9, 8
		nop
	}
	.loc	3 2429 11
.Ltmp714:
	bf r9, .LBB12_17
.Ltmp715:
	{
		nop
		ldw r1, r4[5]
	}
	bu .LBB12_25
.Ltmp716:
.LBB12_17:
	.loc	3 2430 13
	bf r1, .LBB12_18
.Ltmp717:
	{
		nop
		ldw r1, r4[5]
	}
	.loc	3 2438 20
.Ltmp718:
	bl get_fat
	{
		mov r1, r0
		nop
	}
.Ltmp719:
	bu .LBB12_20
.Ltmp720:
.LBB12_18:
	{
		nop
		ldw r1, r4[4]
	}
.Ltmp721:
.LBB12_20:
	{
		mkmsk r0, 1
		nop
	}
	.loc	3 2440 13
.Ltmp722:
	{
		lsu r0, r0, r1
		nop
	}
	bf r0, .LBB12_21
.Ltmp723:
	{
		mkmsk r0, 32
		nop
	}
	.loc	3 2441 13
.Ltmp724:
	{
		eq r0, r1, r0
		nop
	}
	bt r0, .LBB12_23
.Ltmp725:
	{
		nop
		stw r1, r4[5]
	}
	{
		nop
		ldw r0, r4[0]
	}
.Ltmp726:
.LBB12_25:
	.loc	3 833 3
	{
		sub r2, r1, 2
		ldw r1, r0[7]
	}
.Ltmp727:
	.loc	3 834 7
	{
		sub r1, r1, 2
		nop
	}
	.loc	3 834 7
	{
		lsu r1, r2, r1
		nop
	}
.Ltmp728:
	bf r1, .LBB12_21
.Ltmp729:
	{
		nop
		ld8u r1, r0[r7]
	}
	.loc	3 835 3
	mul r2, r1, r2
.Ltmp730:
	{
		nop
		ldw r3, r0[11]
	}
	.loc	3 835 3
	{
		add r2, r2, r3
		nop
	}
.Ltmp731:
	bf r2, .LBB12_21
.Ltmp732:
	.loc	3 2446 7
	{
		add r11, r2, r9
		ldc r2, 9
	}
.Ltmp733:
	{
		nop
		ldw r3, sp[1]
	}
	.loc	3 2447 7
	{
		shr r3, r3, r2
		nop
	}
.Ltmp734:
	.loc	3 2448 11
	bf r3, .LBB12_36
.Ltmp735:
	.loc	3 2449 13
	{
		add r2, r9, r3
		nop
	}
	.loc	3 2449 13
	{
		lsu r2, r1, r2
		nop
	}
	bf r2, .LBB12_30
.Ltmp736:
	.loc	3 2450 11
	{
		sub r3, r1, r9
		nop
	}
.Ltmp737:
.LBB12_30:
	{
		mov r1, r3
		nop
	}
	{
		mov r9, r1
		zext r3, 8
	}
	{
		mkmsk r1, 1
		nop
	}
.Ltmp738:
	.loc	3 2451 13
	{
		mov r1, r6
		ld8u r0, r0[r1]
	}
.Ltmp739:
	{
		mov r2, r11
		mov r8, r11
	}
.Ltmp740:
	bl disk_read
	bt r0, .LBB12_23
.Ltmp741:
	.loc	3 2455 13
	{
		ldc r1, 4
		ldw r0, r4[0]
	}
	{
		nop
		ld8u r1, r0[r1]
	}
	bf r1, .LBB12_35
.Ltmp742:
	{
		ldc r1, 48
		nop
	}
	.loc	3 2455 13
	{
		add r1, r0, r1
		nop
	}
	{
		nop
		ldw r1, r1[0]
	}
	.loc	3 2455 13
	{
		sub r1, r1, r8
		nop
	}
	.loc	3 2455 13
	{
		lsu r2, r1, r9
		nop
	}
	bf r2, .LBB12_35
.Ltmp743:
	{
		ldc r2, 9
		nop
	}
	.loc	3 2456 11
	{
		shl r1, r1, r2
		nop
	}
.Ltmp744:
	.loc	3 2456 11
	{
		add r1, r6, r1
		ldc r2, 52
	}
.Ltmp745:
	.loc	3 2456 11
	{
		add r2, r0, r2
		nop
	}
.Ltmp746:
	ldw r0, cp[.LCPI12_0]
.Ltmp747:
.LBB12_34:
	.loc	3 568 5
	{
		add r3, r2, 1
		ld8u r2, r2[r10]
	}
.Ltmp748:
	.loc	3 568 5
	{
		add r11, r1, 1
		nop
	}
.Ltmp749:
	.loc	3 568 5
	st8 r2, r1[r10]
	.loc	3 567 3
	{
		add r0, r0, 1
		nop
	}
.xtaloop 512
	# LOOPMARKER 0
.Ltmp750:
	.loc	3 2456 11
	{
		mov r2, r3
		mov r1, r11
	}
.Ltmp751:
	bt r0, .LBB12_34
.Ltmp752:
.LBB12_35:
	{
		ldc r0, 9
		nop
	}
	.loc	3 2462 9
	{
		shl r2, r9, r0
		nop
	}
.Ltmp753:
	bu .LBB12_46
.Ltmp754:
.LBB12_36:
	{
		nop
		stw r11, r4[6]
	}
	{
		nop
		ldw r1, r4[2]
	}
.Ltmp755:
.LBB12_37:
	ldc r2, 511
	.loc	3 2480 5
	{
		and r8, r1, r2
		nop
	}
	ldc r1, 512
.Ltmp756:
	.loc	3 2480 5
	{
		sub r1, r1, r8
		ldw r3, sp[1]
	}
.Ltmp757:
	.loc	3 2481 9
	{
		lsu r2, r3, r1
		mov r9, r3
	}
	bt r2, .LBB12_39
.Ltmp758:
	.loc	3 2481 9
	{
		mov r9, r1
		nop
	}
.Ltmp759:
.LBB12_39:
	.loc	3 2483 9
	{
		mov r1, r11
		nop
	}
	bl move_window
	bt r0, .LBB12_23
.Ltmp760:
	{
		mov r2, r10
		nop
	}
	bf r9, .LBB12_46
.Ltmp761:
	{
		nop
		ldw r0, r4[0]
	}
	{
		nop
		ldw r1, r4[2]
	}
	ldc r2, 511
	.loc	3 2485 5
	{
		and r1, r1, r2
		nop
	}
	.loc	3 2485 5
	{
		add r0, r0, r1
		ldw r1, sp[1]
	}
	.loc	3 567 3
.Ltmp762:
	{
		not r2, r1
		nop
	}
	ldw r1, cp[.LCPI12_1]
	.loc	3 567 3
	{
		add r1, r8, r1
		nop
	}
	{
		lsu r3, r1, r2
		nop
	}
	bt r3, .LBB12_43
.Ltmp763:
	{
		mov r2, r1
		nop
	}
.Ltmp764:
.LBB12_43:
	{
		ldc r1, 52
		nop
	}
.Ltmp765:
	.loc	3 2485 5
	{
		add r1, r0, r1
		add r0, r2, 1
	}
.Ltmp766:
	.loc	3 2485 5
	{
		mov r2, r6
		nop
	}
.Ltmp767:
.LBB12_44:
	.loc	3 568 5
	{
		add r3, r1, 1
		ld8u r1, r1[r10]
	}
.Ltmp768:
	.loc	3 568 5
	{
		add r11, r2, 1
		nop
	}
.Ltmp769:
	.loc	3 568 5
	st8 r1, r2[r10]
.Ltmp770:
	.loc	3 567 3
	{
		add r0, r0, 1
		mov r1, r3
	}
.Ltmp771:
	.loc	3 2485 5
	{
		mov r2, r11
		nop
	}
.Ltmp772:
	.loc	3 567 3
	bt r0, .LBB12_44
.Ltmp773:
	{
		mov r2, r9
		nop
	}
.Ltmp774:
.LBB12_46:
	.loc	3 2426 5
	{
		add r6, r6, r2
		ldw r0, r4[2]
	}
.Ltmp775:
	.loc	3 2426 5
	{
		add r1, r0, r2
		nop
	}
	{
		nop
		stw r1, r4[2]
	}
	{
		nop
		ldw r0, r5[0]
	}
	.loc	3 2426 5
	{
		add r0, r0, r2
		nop
	}
	{
		nop
		stw r0, r5[0]
	}
	{
		nop
		ldw r3, sp[1]
	}
.Ltmp776:
	.loc	3 2426 5
	{
		sub r0, r3, r2
		eq r2, r3, r2
	}
.Ltmp777:
	bf r2, .LBB12_13
.Ltmp778:
	{
		mov r7, r10
		nop
	}
	bu .LBB12_48
.LBB12_8:
	{
		mkmsk r7, 3
		nop
	}
	bu .LBB12_48
.LBB12_23:
.Ltmp779:
	{
		ldc r0, 6
		nop
	}
	{
		mov r2, r0
		nop
	}
	{
		nop
		ld8u r0, r4[r2]
	}
	ldc r1, 128
	.loc	3 2441 33
.Ltmp780:
	{
		or r0, r0, r1
		nop
	}
	.loc	3 2441 33
	st8 r0, r4[r2]
	{
		mkmsk r7, 1
		nop
	}
	bu .LBB12_48
.Ltmp781:
.LBB12_21:
	{
		ldc r0, 6
		nop
	}
	{
		mov r2, r0
		nop
	}
	{
		nop
		ld8u r0, r4[r2]
	}
	ldc r1, 128
	.loc	3 2440 23
.Ltmp782:
	{
		or r0, r0, r1
		nop
	}
	.loc	3 2440 23
	st8 r0, r4[r2]
.Ltmp783:
.LBB12_48:
	.loc	3 2492 1
	{
		mov r0, r7
		ldw r10, sp[8]
	}
	ldd r9, r8, sp[3]
	ldd r7, r6, sp[2]
	ldd r5, r4, sp[1]
	{
		nop
		retsp 10
	}
	# RETURN_REG_HOLDER
.Ltmp784:
	.cc_bottom f_read.function
	.set	f_read.nstackwords,((disk_status.nstackwords $M move_window.nstackwords $M disk_read.nstackwords $M get_fat.nstackwords) + 10)
	.globl	f_read.nstackwords
	.set	f_read.maxcores,disk_read.maxcores $M disk_status.maxcores $M get_fat.maxcores $M move_window.maxcores $M 1
	.globl	f_read.maxcores
	.set	f_read.maxtimers,disk_read.maxtimers $M disk_status.maxtimers $M get_fat.maxtimers $M move_window.maxtimers $M 0
	.globl	f_read.maxtimers
	.set	f_read.maxchanends,disk_read.maxchanends $M disk_status.maxchanends $M get_fat.maxchanends $M move_window.maxchanends $M 0
	.globl	f_read.maxchanends
.Ltmp785:
	.size	f_read, .Ltmp785-f_read
.Lfunc_end12:
	.cfi_endproc

	.section	.cp.rodata.cst4,"aMc",@progbits,4
	.cc_top .LCPI13_0.data,.LCPI13_0
	.align	4
	.type	.LCPI13_0,@object
	.size	.LCPI13_0, 4
.LCPI13_0:
	.long	4294966784
	.cc_bottom .LCPI13_0.data
	.cc_top .LCPI13_1.data,.LCPI13_1
	.align	4
	.type	.LCPI13_1,@object
	.size	.LCPI13_1, 4
.LCPI13_1:
	.long	4294966783
	.cc_bottom .LCPI13_1.data
	.text
	.globl	f_write
	.align	4
	.type	f_write,@function
	.cc_top f_write.function,f_write
f_write:
.Lfunc_begin13:
	.loc	3 2508 0
	.cfi_startproc
	.issue_mode dual
	{
		nop
		dualentsp 16
	}
.Ltmp786:
	.cfi_def_cfa_offset 64
.Ltmp787:
	.cfi_offset 15, 0
	std r5, r4, sp[4]
.Ltmp788:
	.cfi_offset 4, -32
.Ltmp789:
	.cfi_offset 5, -28
	std r7, r6, sp[5]
.Ltmp790:
	.cfi_offset 6, -24
.Ltmp791:
	.cfi_offset 7, -20
	std r9, r8, sp[6]
.Ltmp792:
	.cfi_offset 8, -16
.Ltmp793:
	.cfi_offset 9, -12
.Ltmp794:
	.cfi_offset 10, -8
.Ltmp795:
	{
		mov r6, r3
		stw r10, sp[14]
	}
.Ltmp796:
	{
		mov r7, r2
		mov r8, r1
	}
.Ltmp797:
	{
		mov r4, r0
		ldc r9, 0
	}
.Ltmp798:
	{
		nop
		stw r9, r6[0]
	}
.Ltmp799:
	.loc	3 2518 9 prologue_end
	{
		ldc r5, 9
		ldw r0, r4[0]
	}
.Ltmp800:
	bf r0, .LBB13_70
.Ltmp801:
	{
		nop
		ld8u r1, r0[r9]
	}
	bf r1, .LBB13_70
.Ltmp802:
	.loc	3 2518 9
	{
		add r1, r4, 4
		nop
	}
	.loc	3 2518 9
	{
		add r2, r0, 6
		ld16s r1, r1[r9]
	}
	{
		nop
		ld16s r2, r2[r9]
	}
	.loc	3 2205 7
.Ltmp803:
	{
		zext r2, 16
		zext r1, 16
	}
	.loc	3 2205 7
	{
		eq r1, r2, r1
		nop
	}
	bf r1, .LBB13_70
.Ltmp804:
	{
		mkmsk r1, 1
		nop
	}
	{
		nop
		ld8u r0, r0[r1]
	}
.Ltmp805:
	.loc	3 2210 7
	bl disk_status
	.loc	3 2210 7
	{
		zext r0, 1
		nop
	}
	bf r0, .LBB13_5
.Ltmp806:
	{
		mkmsk r5, 2
		nop
	}
	bu .LBB13_70
.LBB13_5:
.Ltmp807:
	{
		ldc r0, 6
		nop
	}
	.loc	3 2520 7
.Ltmp808:
	{
		ldc r5, 2
		ld8u r0, r4[r0]
	}
	.loc	3 2520 7
	{
		shr r1, r0, 7
		nop
	}
	bt r1, .LBB13_70
.Ltmp809:
	.loc	3 2522 7
	{
		and r0, r0, r5
		nop
	}
	.loc	3 2522 7
	bf r0, .LBB13_7
.Ltmp810:
	{
		nop
		ldw r0, r4[3]
	}
	.loc	3 2524 7
.Ltmp811:
	{
		add r1, r0, r7
		nop
	}
	{
		lsu r0, r1, r0
		nop
	}
.Ltmp812:
	bt r0, .LBB13_10
.Ltmp813:
	{
		mov r9, r7
		nop
	}
.Ltmp814:
.LBB13_10:
	bf r9, .LBB13_67
.Ltmp815:
	.loc	3 2528 9
	{
		ldc r7, 0
		ldw r0, r4[2]
	}
	bu .LBB13_12
.Ltmp816:
.LBB13_7:
	{
		mkmsk r5, 3
		nop
	}
	bu .LBB13_70
.LBB13_21:
.Ltmp817:
	bf r0, .LBB13_67
.Ltmp818:
	{
		eq r1, r0, 1
		nop
	}
	bt r1, .LBB13_23
.Ltmp819:
	{
		nop
		stw r0, r4[5]
	}
	{
		nop
		ldw r11, r4[0]
	}
	bu .LBB13_26
.Ltmp820:
.LBB13_12:
	ldc r1, 511
	.loc	3 2528 9
	{
		and r1, r0, r1
		nop
	}
	.loc	3 2528 9
	bf r1, .LBB13_14
.Ltmp821:
	{
		nop
		ldw r3, r4[0]
	}
	{
		nop
		ldw r11, r4[6]
	}
.Ltmp822:
.LBB13_56:
	ldc r1, 511
	.loc	3 2595 5
	{
		and r7, r0, r1
		nop
	}
	ldc r0, 512
	.loc	3 2595 5
	{
		sub r0, r0, r7
		nop
	}
.Ltmp823:
	.loc	3 2596 9
	{
		lsu r1, r9, r0
		mov r10, r9
	}
	bt r1, .LBB13_58
.Ltmp824:
	.loc	3 2596 9
	{
		mov r10, r0
		nop
	}
.Ltmp825:
.LBB13_58:
	.loc	3 2598 9
	{
		mov r0, r3
		mov r1, r11
	}
	bl move_window
	.loc	3 2598 9
	bt r0, .LBB13_59
.Ltmp826:
	{
		mov r3, r7
		ldc r7, 0
	}
	bf r10, .LBB13_65
.Ltmp827:
	{
		nop
		ldw r0, r4[0]
	}
	{
		nop
		ldw r1, r4[2]
	}
	ldc r2, 511
	.loc	3 2600 5
	{
		and r1, r1, r2
		nop
	}
	.loc	3 2600 5
	{
		add r0, r0, r1
		not r2, r9
	}
	ldw r1, cp[.LCPI13_1]
	.loc	3 567 3
.Ltmp828:
	{
		add r1, r3, r1
		nop
	}
	{
		lsu r3, r1, r2
		nop
	}
	bt r3, .LBB13_63
.Ltmp829:
	{
		mov r2, r1
		nop
	}
.Ltmp830:
.LBB13_63:
	{
		ldc r1, 52
		nop
	}
.Ltmp831:
	.loc	3 2600 5
	{
		add r1, r0, r1
		add r0, r2, 1
	}
.Ltmp832:
	.loc	3 2600 5
	{
		mov r2, r8
		nop
	}
.Ltmp833:
.LBB13_64:
	.loc	3 568 5
	{
		add r3, r2, 1
		ld8u r2, r2[r7]
	}
.Ltmp834:
	.loc	3 568 5
	{
		add r11, r1, 1
		nop
	}
.Ltmp835:
	.loc	3 568 5
	st8 r2, r1[r7]
.Ltmp836:
	.loc	3 567 3
	{
		add r0, r0, 1
		mov r2, r3
	}
.Ltmp837:
	.loc	3 2600 5
	{
		mov r1, r11
		nop
	}
.Ltmp838:
	bt r0, .LBB13_64
.Ltmp839:
.LBB13_65:
	.loc	3 2601 5
	{
		mkmsk r1, 1
		ldw r0, r4[0]
	}
	{
		ldc r2, 4
		nop
	}
	.loc	3 2601 5
	st8 r1, r0[r2]
	bu .LBB13_66
.Ltmp840:
.LBB13_14:
	{
		ldc r1, 9
		nop
	}
	.loc	3 2529 7
.Ltmp841:
	{
		shr r1, r0, r1
		ldw r11, r4[0]
	}
	.loc	3 2529 7
	{
		mkmsk r3, 8
		ld8u r2, r11[r5]
	}
	.loc	3 2529 7
	{
		add r2, r2, r3
		nop
	}
	.loc	3 2529 7
	{
		and r2, r2, r1
		nop
	}
	.loc	3 2529 7
	{
		zext r2, 8
		nop
	}
	.loc	3 2530 11
.Ltmp842:
	bf r2, .LBB13_16
.Ltmp843:
	{
		nop
		stw r2, sp[6]
	}
.Ltmp844:
.LBB13_26:
	{
		ldc r0, 48
		nop
	}
	.loc	3 2549 11
.Ltmp845:
	{
		add r0, r11, r0
		nop
	}
	{
		nop
		ldw r10, r0[0]
	}
.Ltmp846:
	{
		nop
		ldw r0, r4[6]
	}
.Ltmp847:
	.loc	3 2549 11
	{
		eq r0, r10, r0
		nop
	}
	bf r0, .LBB13_34
.Ltmp848:
	bf r10, .LBB13_34
.Ltmp849:
	{
		ldc r0, 4
		nop
	}
	{
		nop
		ld8u r0, r11[r0]
	}
	bf r0, .LBB13_34
.Ltmp850:
	{
		ldc r0, 52
		nop
	}
	.loc	3 758 11
.Ltmp851:
	{
		add r1, r11, r0
		nop
	}
	{
		mkmsk r3, 1
		stw r1, sp[5]
	}
	.loc	3 758 11
	{
		mov r2, r10
		ld8u r0, r11[r3]
	}
	{
		mov r7, r11
		nop
	}
	bl disk_write
	bt r0, .LBB13_59
.Ltmp852:
	{
		ldc r0, 0
		ldc r1, 4
	}
	.loc	3 760 7
	st8 r0, r7[r1]
	{
		nop
		ldw r1, r7[9]
	}
	{
		nop
		ldw r0, r7[8]
	}
	.loc	3 761 11
.Ltmp853:
	{
		add r1, r0, r1
		nop
	}
	.loc	3 761 11
	{
		lsu r1, r10, r1
		mov r11, r7
	}
	{
		nop
		ldw r7, sp[5]
	}
	bf r1, .LBB13_34
.Ltmp854:
	{
		mkmsk r1, 2
		nop
	}
	{
		nop
		ld8u r2, r11[r1]
	}
	.loc	3 763 14
.Ltmp855:
	{
		lsu r1, r2, r5
		nop
	}
	bt r1, .LBB13_34
.Ltmp856:
	{
		add r2, r10, r0
		stw r2, sp[3]
	}
.Ltmp857:
	{
		mkmsk r3, 1
		stw r2, sp[7]
	}
.Ltmp858:
	.loc	3 765 11
	{
		mov r1, r7
		ld8u r0, r11[r3]
	}
	{
		mov r10, r11
		nop
	}
	{
		nop
		stw r10, sp[4]
	}
	bl disk_write
	{
		mov r3, r10
		ldw r1, sp[5]
	}
	{
		nop
		ldw r0, sp[3]
	}
.Ltmp859:
	.loc	3 763 39
	{
		sub r7, r0, 1
		nop
	}
	{
		mov r0, r7
		nop
	}
	{
		zext r0, 8
		nop
	}
	.loc	3 763 9
	{
		lsu r0, r0, r5
		nop
	}
	bt r0, .LBB13_34
.Ltmp860:
.LBB13_33:
	{
		nop
		ldw r0, r3[8]
	}
	{
		nop
		ldw r2, sp[7]
	}
.Ltmp861:
	.loc	3 764 11
	{
		add r2, r2, r0
		nop
	}
.Ltmp862:
	{
		mkmsk r10, 1
		stw r2, sp[7]
	}
	.loc	3 765 11
	{
		mov r3, r10
		ld8u r0, r3[r10]
	}
	bl disk_write
	{
		nop
		ldw r1, sp[5]
	}
	{
		sub r7, r7, 1
		ldw r3, sp[4]
	}
.Ltmp863:
	.loc	3 763 39
	{
		mov r0, r7
		nop
	}
	{
		zext r0, 8
		nop
	}
	.loc	3 763 9
	{
		lsu r0, r10, r0
		nop
	}
	bt r0, .LBB13_33
.Ltmp864:
.LBB13_34:
	{
		nop
		ldw r3, r4[0]
	}
.Ltmp865:
	{
		nop
		ldw r0, r4[5]
	}
.Ltmp866:
	.loc	3 833 3
	{
		sub r1, r0, 2
		ldw r0, r3[7]
	}
.Ltmp867:
	.loc	3 834 7
	{
		sub r0, r0, 2
		nop
	}
	.loc	3 834 7
	{
		lsu r0, r1, r0
		nop
	}
	bf r0, .LBB13_23
.Ltmp868:
	{
		nop
		ld8u r0, r3[r5]
	}
	.loc	3 835 3
	mul r1, r0, r1
.Ltmp869:
	{
		nop
		ldw r2, r3[11]
	}
	.loc	3 835 3
	{
		add r1, r1, r2
		nop
	}
.Ltmp870:
	bf r1, .LBB13_23
.Ltmp871:
	{
		nop
		ldw r2, sp[6]
	}
.Ltmp872:
	.loc	3 2560 7
	{
		add r11, r1, r2
		ldc r1, 9
	}
.Ltmp873:
	.loc	3 2561 7
	{
		shr r1, r9, r1
		nop
	}
.Ltmp874:
	.loc	3 2562 11
	bf r1, .LBB13_46
.Ltmp875:
	{
		mov r10, r3
		mov r3, r1
	}
.Ltmp876:
	.loc	3 2563 13
	{
		add r1, r2, r3
		nop
	}
	.loc	3 2563 13
	{
		lsu r1, r0, r1
		nop
	}
	.loc	3 2563 13
	bt r1, .LBB13_38
.Ltmp877:
	{
		ldc r7, 0
		mov r1, r3
	}
.Ltmp878:
	bu .LBB13_40
.Ltmp879:
.LBB13_16:
	{
		mov r1, r7
		nop
	}
	.loc	3 2531 13
.Ltmp880:
	bf r0, .LBB13_17
.Ltmp881:
	{
		nop
		stw r2, sp[6]
	}
	.loc	3 2541 20
.Ltmp882:
	{
		mov r0, r11
		ldw r1, r4[5]
	}
	.loc	3 2541 20
	bl create_chain
.Ltmp883:
	{
		mkmsk r7, 1
		nop
	}
	bu .LBB13_20
.Ltmp884:
.LBB13_46:
	{
		nop
		ldw r0, r4[2]
	}
	{
		nop
		ldw r1, r4[3]
	}
	.loc	3 2582 11
.Ltmp885:
	{
		lsu r1, r0, r1
		nop
	}
	bt r1, .LBB13_55
.Ltmp886:
	{
		ldc r0, 48
		stw r11, sp[7]
	}
	.loc	3 754 3
.Ltmp887:
	{
		add r0, r3, r0
		nop
	}
.Ltmp888:
	.loc	3 754 3
	{
		mkmsk r10, 1
		ldw r2, r0[0]
	}
.Ltmp889:
	bf r2, .LBB13_54
.Ltmp890:
	{
		ldc r0, 4
		nop
	}
	{
		nop
		ld8u r0, r3[r0]
	}
	bf r0, .LBB13_54
.Ltmp891:
	{
		ldc r0, 52
		nop
	}
	.loc	3 758 11
.Ltmp892:
	{
		add r1, r3, r0
		nop
	}
	{
		nop
		stw r1, sp[5]
	}
	{
		nop
		ld8u r0, r3[r10]
	}
.Ltmp893:
	.loc	3 758 11
	{
		mov r7, r3
		stw r2, sp[6]
	}
	{
		mov r3, r10
		nop
	}
	bl disk_write
	.loc	3 758 11
	bt r0, .LBB13_71
.Ltmp894:
	{
		ldc r0, 0
		ldc r1, 4
	}
	.loc	3 760 7
	st8 r0, r7[r1]
	{
		nop
		ldw r1, r7[9]
	}
	{
		nop
		ldw r0, r7[8]
	}
.Ltmp895:
	.loc	3 761 11
	{
		add r1, r0, r1
		ldw r2, sp[6]
	}
.Ltmp896:
	.loc	3 761 11
	{
		lsu r1, r2, r1
		mov r3, r7
	}
	{
		nop
		ldw r11, sp[5]
	}
	bf r1, .LBB13_54
.Ltmp897:
	{
		mkmsk r1, 2
		nop
	}
	{
		nop
		ld8u r7, r3[r1]
	}
	.loc	3 763 14
.Ltmp898:
	{
		lsu r1, r7, r5
		nop
	}
	bt r1, .LBB13_54
.Ltmp899:
	.loc	3 764 11
	{
		add r2, r2, r0
		nop
	}
.Ltmp900:
	{
		nop
		stw r2, sp[6]
	}
.Ltmp901:
	.loc	3 765 11
	{
		mov r1, r11
		ld8u r0, r3[r10]
	}
	{
		mov r3, r10
		stw r3, sp[4]
	}
	bl disk_write
	{
		nop
		ldw r1, sp[5]
	}
	{
		sub r7, r7, 1
		ldw r3, sp[4]
	}
.Ltmp902:
	.loc	3 763 39
	{
		mov r0, r7
		nop
	}
	{
		zext r0, 8
		nop
	}
	.loc	3 763 9
	{
		lsu r0, r0, r5
		nop
	}
	bt r0, .LBB13_54
.Ltmp903:
.LBB13_53:
	{
		nop
		ldw r0, r3[8]
	}
	{
		nop
		ldw r2, sp[6]
	}
.Ltmp904:
	.loc	3 764 11
	{
		add r2, r2, r0
		nop
	}
.Ltmp905:
	{
		nop
		stw r2, sp[6]
	}
	.loc	3 765 11
	{
		mov r3, r10
		ld8u r0, r3[r10]
	}
	bl disk_write
	{
		nop
		ldw r1, sp[5]
	}
	{
		sub r7, r7, 1
		ldw r3, sp[4]
	}
.Ltmp906:
	.loc	3 763 39
	{
		mov r0, r7
		nop
	}
	{
		zext r0, 8
		nop
	}
	.loc	3 763 9
	{
		lsu r0, r10, r0
		nop
	}
	bt r0, .LBB13_53
.Ltmp907:
.LBB13_54:
	.loc	3 2584 9
	{
		ldc r0, 48
		ldw r3, r4[0]
	}
.Ltmp908:
	.loc	3 2584 9
	{
		add r0, r3, r0
		ldw r11, sp[7]
	}
.Ltmp909:
	{
		nop
		stw r11, r0[0]
	}
	{
		nop
		ldw r0, r4[2]
	}
.Ltmp910:
.LBB13_55:
	{
		nop
		stw r11, r4[6]
	}
	bu .LBB13_56
.Ltmp911:
.LBB13_38:
	.loc	3 2564 11
	{
		sub r1, r0, r2
		ldc r7, 0
	}
.Ltmp912:
.LBB13_40:
	.loc	3 2565 13
	{
		mov r3, r1
		nop
	}
	{
		zext r3, 8
		mkmsk r0, 1
	}
.Ltmp913:
	{
		mov r10, r1
		ld8u r0, r10[r0]
	}
	{
		mov r1, r8
		mov r2, r11
	}
	{
		nop
		stw r11, sp[7]
	}
.Ltmp914:
	bl disk_write
	bt r0, .LBB13_59
.Ltmp915:
	.loc	3 2568 13
	{
		ldc r1, 48
		ldw r0, r4[0]
	}
	.loc	3 2568 13
	{
		add r1, r0, r1
		nop
	}
	{
		nop
		ldw r1, r1[0]
	}
	{
		nop
		ldw r2, sp[7]
	}
	.loc	3 2568 13
	{
		sub r2, r1, r2
		nop
	}
	.loc	3 2568 13
	{
		lsu r1, r2, r10
		nop
	}
	bf r1, .LBB13_45
.Ltmp916:
	{
		ldc r1, 52
		nop
	}
.Ltmp917:
	.loc	3 2569 11
	{
		add r1, r0, r1
		ldc r0, 9
	}
.Ltmp918:
	.loc	3 2569 11
	{
		shl r0, r2, r0
		nop
	}
	.loc	3 2569 11
	{
		add r2, r8, r0
		nop
	}
.Ltmp919:
	ldw r0, cp[.LCPI13_0]
.Ltmp920:
.LBB13_43:
	.loc	3 568 5
	{
		add r3, r2, 1
		ld8u r2, r2[r7]
	}
.Ltmp921:
	.loc	3 568 5
	{
		add r11, r1, 1
		nop
	}
.Ltmp922:
	.loc	3 568 5
	st8 r2, r1[r7]
	.loc	3 567 3
	{
		add r0, r0, 1
		nop
	}
.xtaloop 512
	# LOOPMARKER 0
.Ltmp923:
	.loc	3 2569 11
	{
		mov r2, r3
		mov r1, r11
	}
.Ltmp924:
	.loc	3 567 3
	bt r0, .LBB13_43
.Ltmp925:
	.loc	3 2570 11
	{
		ldc r1, 4
		ldw r0, r4[0]
	}
	.loc	3 2570 11
	st8 r7, r0[r1]
.Ltmp926:
.LBB13_45:
	{
		ldc r0, 9
		nop
	}
	.loc	3 2578 9
	{
		shl r10, r10, r0
		nop
	}
.Ltmp927:
.LBB13_66:
	.loc	3 2527 5
	{
		add r8, r8, r10
		ldw r0, r4[2]
	}
.Ltmp928:
	.loc	3 2527 5
	{
		add r0, r0, r10
		nop
	}
	{
		nop
		stw r0, r4[2]
	}
	{
		nop
		ldw r1, r6[0]
	}
	.loc	3 2527 5
	{
		add r1, r1, r10
		nop
	}
.Ltmp929:
	.loc	3 2527 5
	{
		sub r1, r9, r10
		stw r1, r6[0]
	}
.Ltmp930:
	.loc	3 2526 3
	{
		eq r2, r9, r10
		mov r9, r1
	}
.Ltmp931:
	bf r2, .LBB13_12
	bu .LBB13_67
.Ltmp932:
.LBB13_17:
	{
		nop
		stw r2, sp[6]
	}
.Ltmp933:
	.loc	3 2532 11
	{
		mkmsk r7, 1
		ldw r0, r4[4]
	}
.Ltmp934:
	bt r0, .LBB13_20
.Ltmp935:
	.loc	3 2534 33
	{
		mov r0, r11
		nop
	}
	bl create_chain
.Ltmp936:
	{
		nop
		stw r0, r4[4]
	}
.Ltmp937:
.LBB13_20:
	{
		mkmsk r1, 32
		nop
	}
	.loc	3 2543 13
.Ltmp938:
	{
		eq r1, r0, r1
		nop
	}
	bf r1, .LBB13_21
.Ltmp939:
	{
		ldc r0, 6
		nop
	}
	{
		mov r2, r0
		nop
	}
	{
		nop
		ld8u r0, r4[r2]
	}
	ldc r1, 128
	.loc	3 2545 33
.Ltmp940:
	{
		or r0, r0, r1
		nop
	}
	.loc	3 2545 33
	st8 r0, r4[r2]
	{
		mov r5, r7
		nop
	}
	bu .LBB13_70
.Ltmp941:
.LBB13_67:
	{
		nop
		ldw r0, r4[2]
	}
	{
		nop
		ldw r1, r4[3]
	}
	.loc	3 2608 7
.Ltmp942:
	{
		lsu r1, r1, r0
		ldc r2, 6
	}
	bf r1, .LBB13_69
.Ltmp943:
	{
		nop
		stw r0, r4[3]
	}
.Ltmp944:
.LBB13_69:
	.loc	3 2609 3
	{
		ldc r1, 32
		ld8u r0, r4[r2]
	}
	.loc	3 2609 3
	{
		or r0, r0, r1
		nop
	}
	.loc	3 2609 3
	st8 r0, r4[r2]
	{
		ldc r5, 0
		nop
	}
.Ltmp945:
.LBB13_70:
	.loc	3 2612 1
	{
		mov r0, r5
		ldw r10, sp[14]
	}
	ldd r9, r8, sp[6]
	ldd r7, r6, sp[5]
	ldd r5, r4, sp[4]
	{
		nop
		retsp 16
	}
	# RETURN_REG_HOLDER
.LBB13_59:
.Ltmp946:
	{
		ldc r0, 6
		nop
	}
	{
		mov r2, r0
		nop
	}
	{
		nop
		ld8u r0, r4[r2]
	}
	ldc r1, 128
	.loc	3 2550 9
.Ltmp947:
	{
		or r0, r0, r1
		nop
	}
	.loc	3 2550 9
	st8 r0, r4[r2]
	{
		mkmsk r5, 1
		nop
	}
	bu .LBB13_70
.Ltmp948:
.LBB13_23:
	{
		ldc r0, 6
		nop
	}
	{
		mov r2, r0
		nop
	}
	{
		nop
		ld8u r0, r4[r2]
	}
	ldc r1, 128
	.loc	3 2544 24
.Ltmp949:
	{
		or r0, r0, r1
		nop
	}
	.loc	3 2544 24
	st8 r0, r4[r2]
	bu .LBB13_70
.Ltmp950:
.LBB13_71:
	{
		ldc r0, 6
		nop
	}
	{
		mov r2, r0
		nop
	}
	{
		nop
		ld8u r0, r4[r2]
	}
	ldc r1, 128
	.loc	3 2583 37
.Ltmp951:
	{
		or r0, r0, r1
		nop
	}
	.loc	3 2583 37
	st8 r0, r4[r2]
	{
		mov r5, r10
		nop
	}
	bu .LBB13_70
.Ltmp952:
	.cc_bottom f_write.function
	.set	f_write.nstackwords,((disk_status.nstackwords $M move_window.nstackwords $M disk_write.nstackwords $M create_chain.nstackwords) + 16)
	.globl	f_write.nstackwords
	.set	f_write.maxcores,create_chain.maxcores $M disk_status.maxcores $M disk_write.maxcores $M move_window.maxcores $M 1
	.globl	f_write.maxcores
	.set	f_write.maxtimers,create_chain.maxtimers $M disk_status.maxtimers $M disk_write.maxtimers $M move_window.maxtimers $M 0
	.globl	f_write.maxtimers
	.set	f_write.maxchanends,create_chain.maxchanends $M disk_status.maxchanends $M disk_write.maxchanends $M move_window.maxchanends $M 0
	.globl	f_write.maxchanends
.Ltmp953:
	.size	f_write, .Ltmp953-f_write
.Lfunc_end13:
	.cfi_endproc

	.section	.cp.rodata.cst4,"aMc",@progbits,4
	.cc_top .LCPI14_0.data,.LCPI14_0
	.align	4
	.type	.LCPI14_0,@object
	.size	.LCPI14_0, 4
.LCPI14_0:
	.long	268435455
	.cc_bottom .LCPI14_0.data
	.text
	.align	4
	.type	create_chain,@function
	.cc_top create_chain.function,create_chain
create_chain:
.Lfunc_begin14:
	.loc	3 1009 0
	.cfi_startproc
	.issue_mode dual
	{
		nop
		dualentsp 10
	}
.Ltmp954:
	.cfi_def_cfa_offset 40
.Ltmp955:
	.cfi_offset 15, 0
	std r5, r4, sp[1]
.Ltmp956:
	.cfi_offset 4, -32
.Ltmp957:
	.cfi_offset 5, -28
	std r7, r6, sp[2]
.Ltmp958:
	.cfi_offset 6, -24
.Ltmp959:
	.cfi_offset 7, -20
	std r9, r8, sp[3]
.Ltmp960:
	.cfi_offset 8, -16
.Ltmp961:
	.cfi_offset 9, -12
.Ltmp962:
	.cfi_offset 10, -8
.Ltmp963:
	{
		mov r5, r1
		stw r10, sp[8]
	}
.Ltmp964:
	{
		mov r4, r0
		nop
	}
.Ltmp965:
	.loc	3 1014 7 prologue_end
	bf r5, .LBB14_1
.Ltmp966:
	.loc	3 1019 10
	{
		mov r0, r4
		mov r1, r5
	}
	bl get_fat
.Ltmp967:
	{
		mov r6, r0
		ldc r0, 2
	}
.Ltmp968:
	.loc	3 1020 9
	{
		lsu r0, r6, r0
		nop
	}
	bt r0, .LBB14_31
.Ltmp969:
	{
		nop
		ldw r0, r4[7]
	}
	.loc	3 1021 9
.Ltmp970:
	{
		lsu r0, r6, r0
		nop
	}
	bt r0, .LBB14_32
.Ltmp971:
	.loc	3 1021 9
	ldaw r9, r4[7]
	{
		mov r8, r5
		nop
	}
	bu .LBB14_9
.Ltmp972:
.LBB14_1:
	{
		nop
		ldw r8, r4[3]
	}
.Ltmp973:
	.loc	3 1028 9
	ldaw r9, r4[7]
	bf r8, .LBB14_3
.Ltmp974:
	{
		nop
		ldw r0, r9[0]
	}
	.loc	3 1016 9
.Ltmp975:
	{
		lsu r0, r8, r0
		nop
	}
	bf r0, .LBB14_3
.Ltmp976:
.LBB14_9:
	{
		mkmsk r0, 1
		nop
	}
	{
		lsu r0, r0, r8
		nop
	}
	bt r0, .LBB14_10
.Ltmp977:
.LBB14_3:
	{
		ldc r7, 2
		ldc r8, 0
	}
	{
		mkmsk r10, 32
		nop
	}
.Ltmp978:
.LBB14_4:
	{
		nop
		ldw r0, r9[0]
	}
	.loc	3 1028 9
.Ltmp979:
	{
		lsu r0, r7, r0
		nop
	}
	bf r0, .LBB14_5
.Ltmp980:
	.loc	3 1032 10
	{
		mov r0, r4
		mov r1, r7
	}
	bl get_fat
	{
		mov r6, r0
		nop
	}
.Ltmp981:
	.loc	3 1033 9
	{
		eq r0, r6, r10
		nop
	}
	bt r0, .LBB14_32
.Ltmp982:
	bf r6, .LBB14_15
.Ltmp983:
	{
		eq r0, r6, 1
		nop
	}
	bt r0, .LBB14_32
.Ltmp984:
	.loc	3 1036 9
	{
		add r7, r7, 1
		nop
	}
	.loc	3 1036 9
	{
		eq r0, r7, 2
		nop
	}
	bf r0, .LBB14_4
.Ltmp985:
	{
		mov r6, r8
		nop
	}
	bu .LBB14_32
.LBB14_10:
.Ltmp986:
	{
		ldc r9, 2
		mkmsk r10, 32
	}
	{
		mov r7, r8
		nop
	}
.Ltmp987:
.LBB14_11:
	.loc	3 1027 5
	{
		add r7, r7, 1
		ldw r0, r4[7]
	}
.Ltmp988:
	.loc	3 1028 9
	{
		lsu r0, r7, r0
		nop
	}
.Ltmp989:
	bt r0, .LBB14_13
.Ltmp990:
	.loc	3 1028 9
	{
		mov r7, r9
		nop
	}
.Ltmp991:
.LBB14_13:
	.loc	3 1032 10
	{
		mov r0, r4
		mov r1, r7
	}
	bl get_fat
	{
		mov r6, r0
		nop
	}
.Ltmp992:
	.loc	3 1033 9
	{
		eq r0, r6, r10
		nop
	}
	bt r0, .LBB14_32
.Ltmp993:
	bf r6, .LBB14_15
.Ltmp994:
	{
		eq r0, r6, 1
		nop
	}
	bt r0, .LBB14_32
.Ltmp995:
	.loc	3 1036 9
	{
		eq r0, r7, r8
		nop
	}
	bf r0, .LBB14_11
.Ltmp996:
	{
		ldc r6, 0
		nop
	}
	bu .LBB14_32
.LBB14_15:
.Ltmp997:
	{
		mov r6, r7
		nop
	}
	ldw r2, cp[.LCPI14_0]
	.loc	3 1039 9
	{
		mov r0, r4
		mov r1, r6
	}
	bl put_fat
.Ltmp998:
	bt r0, .LBB14_18
.Ltmp999:
	bf r5, .LBB14_18
.Ltmp1000:
	.loc	3 1041 11
	{
		mov r0, r4
		mov r1, r5
	}
	{
		mov r2, r6
		nop
	}
	bl put_fat
.Ltmp1001:
.LBB14_18:
	bf r0, .LBB14_19
.Ltmp1002:
	.loc	3 1050 5
	{
		eq r0, r0, 1
		nop
	}
	bt r0, .LBB14_30
.Ltmp1003:
.LBB14_31:
	{
		mkmsk r6, 1
		nop
	}
	bu .LBB14_32
.LBB14_19:
.Ltmp1004:
	{
		nop
		stw r6, r4[3]
	}
	.loc	3 1045 9
.Ltmp1005:
	{
		mkmsk r1, 32
		ldw r0, r4[4]
	}
	.loc	3 1045 9
	{
		eq r1, r0, r1
		nop
	}
	bt r1, .LBB14_32
.Ltmp1006:
	.loc	3 1046 7
	{
		sub r0, r0, 1
		nop
	}
	.loc	3 1046 7
	{
		ldc r0, 5
		stw r0, r4[4]
	}
	{
		mkmsk r1, 1
		nop
	}
	.loc	3 1047 7
	st8 r1, r4[r0]
	bu .LBB14_32
.Ltmp1007:
.LBB14_30:
	{
		mkmsk r6, 32
		nop
	}
	bu .LBB14_32
.LBB14_5:
	{
		mov r6, r8
		nop
	}
.LBB14_32:
	.loc	3 1054 1
	{
		mov r0, r6
		ldw r10, sp[8]
	}
	ldd r9, r8, sp[3]
	ldd r7, r6, sp[2]
	ldd r5, r4, sp[1]
	{
		nop
		retsp 10
	}
	# RETURN_REG_HOLDER
.Ltmp1008:
	.cc_bottom create_chain.function
	.set	create_chain.nstackwords,((put_fat.nstackwords $M get_fat.nstackwords) + 10)
	.set	create_chain.maxcores,get_fat.maxcores $M put_fat.maxcores $M 1
	.set	create_chain.maxtimers,get_fat.maxtimers $M put_fat.maxtimers $M 0
	.set	create_chain.maxchanends,get_fat.maxchanends $M put_fat.maxchanends $M 0
.Ltmp1009:
	.size	create_chain, .Ltmp1009-create_chain
.Lfunc_end14:
	.cfi_endproc

	.globl	f_sync
	.align	4
	.type	f_sync,@function
	.cc_top f_sync.function,f_sync
f_sync:
.Lfunc_begin15:
	.loc	3 2624 0
	.cfi_startproc
	.issue_mode dual
	{
		nop
		dualentsp 8
	}
.Ltmp1010:
	.cfi_def_cfa_offset 32
.Ltmp1011:
	.cfi_offset 15, 0
	std r5, r4, sp[1]
.Ltmp1012:
	.cfi_offset 4, -24
.Ltmp1013:
	.cfi_offset 5, -20
	std r7, r6, sp[2]
.Ltmp1014:
	.cfi_offset 6, -16
.Ltmp1015:
	.cfi_offset 7, -12
.Ltmp1016:
	.cfi_offset 8, -8
.Ltmp1017:
	{
		mov r4, r0
		stw r8, sp[6]
	}
.Ltmp1018:
	.loc	3 2630 9 prologue_end
	{
		ldc r0, 9
		ldw r1, r4[0]
	}
.Ltmp1019:
	bf r1, .LBB15_8
.Ltmp1020:
	.loc	3 2630 9
	{
		ldc r7, 0
		nop
	}
	{
		nop
		ld8u r2, r1[r7]
	}
	bf r2, .LBB15_8
.Ltmp1021:
	.loc	3 2630 9
	{
		add r2, r4, 4
		nop
	}
	.loc	3 2630 9
	{
		add r3, r1, 6
		ld16s r2, r2[r7]
	}
	{
		nop
		ld16s r3, r3[r7]
	}
	.loc	3 2205 7
.Ltmp1022:
	{
		zext r3, 16
		zext r2, 16
	}
	.loc	3 2205 7
	{
		eq r2, r3, r2
		nop
	}
	bf r2, .LBB15_8
.Ltmp1023:
	{
		mkmsk r5, 1
		nop
	}
	{
		nop
		ld8u r0, r1[r5]
	}
	.loc	3 2210 7
.Ltmp1024:
	bl disk_status
.Ltmp1025:
	.loc	3 2210 7
	{
		zext r0, 1
		nop
	}
	bf r0, .LBB15_5
.Ltmp1026:
	{
		mkmsk r0, 2
		nop
	}
	bu .LBB15_8
.LBB15_5:
.Ltmp1027:
	{
		ldc r6, 6
		nop
	}
	.loc	3 2632 9
.Ltmp1028:
	{
		ldc r8, 32
		ld8u r0, r4[r6]
	}
	.loc	3 2632 9
	{
		and r1, r0, r8
		mov r0, r7
	}
	bf r1, .LBB15_8
.Ltmp1029:
	{
		nop
		ldw r0, r4[0]
	}
	{
		nop
		ldw r1, r4[7]
	}
	.loc	3 2641 13
.Ltmp1030:
	bl move_window
.Ltmp1031:
	bt r0, .LBB15_8
.Ltmp1032:
	.loc	3 2643 9
	{
		ldc r0, 11
		ldw r7, r4[8]
	}
.Ltmp1033:
	{
		nop
		ld8u r1, r7[r0]
	}
	.loc	3 2644 9
	{
		or r1, r1, r8
		nop
	}
	.loc	3 2644 9
	st8 r1, r7[r0]
	.loc	3 2645 9
	{
		ldc r1, 28
		ldw r0, r4[3]
	}
	.loc	3 2645 9
	st8 r0, r7[r1]
	{
		nop
		ldw r0, r4[3]
	}
	.loc	3 2645 9
	{
		shr r0, r0, 8
		ldc r1, 29
	}
	.loc	3 2645 9
	st8 r0, r7[r1]
	{
		ldc r0, 14
		nop
	}
	.loc	3 2645 9
	{
		add r0, r4, r0
		ldc r1, 0
	}
	{
		ldc r2, 30
		ld16s r0, r0[r1]
	}
	.loc	3 2645 9
	st8 r0, r7[r2]
	{
		mkmsk r0, 4
		nop
	}
	.loc	3 2645 9
	{
		mkmsk r2, 5
		ld8u r0, r4[r0]
	}
	.loc	3 2645 9
	st8 r0, r7[r2]
	.loc	3 2646 9
.Ltmp1034:
	{
		ldc r2, 26
		ldw r0, r4[4]
	}
	.loc	3 2646 9
	st8 r0, r7[r2]
	{
		nop
		ldw r0, r4[4]
	}
	.loc	3 2646 9
	{
		shr r0, r0, 8
		ldc r2, 27
	}
	.loc	3 2646 9
	st8 r0, r7[r2]
	{
		ldc r0, 18
		nop
	}
	.loc	3 2646 9
	{
		add r0, r4, r0
		nop
	}
	{
		ldc r1, 20
		ld16s r0, r0[r1]
	}
	.loc	3 2646 9
	st8 r0, r7[r1]
	{
		ldc r0, 19
		nop
	}
	.loc	3 2646 9
	{
		ldc r1, 21
		ld8u r0, r4[r0]
	}
	.loc	3 2646 9
	st8 r0, r7[r1]
.Ltmp1035:
	.loc	3 2647 15
	bl get_fattime
.Ltmp1036:
	{
		ldc r1, 22
		nop
	}
	.loc	3 2648 9
	st8 r0, r7[r1]
	.loc	3 2648 9
	{
		shr r1, r0, 8
		ldc r2, 23
	}
	.loc	3 2648 9
	st8 r1, r7[r2]
	.loc	3 2648 9
	{
		shr r1, r0, 16
		ldc r2, 24
	}
	.loc	3 2648 9
	st8 r1, r7[r2]
	.loc	3 2648 9
	{
		shr r0, r0, 24
		ldc r1, 25
	}
.Ltmp1037:
	.loc	3 2648 9
	st8 r0, r7[r1]
	{
		nop
		ld8u r0, r4[r6]
	}
	ldc r1, 223
	.loc	3 2649 9
	{
		and r0, r0, r1
		nop
	}
	.loc	3 2649 9
	st8 r0, r4[r6]
	.loc	3 2650 9
	{
		ldc r1, 4
		ldw r0, r4[0]
	}
	.loc	3 2650 9
	st8 r5, r0[r1]
	.loc	3 2651 15
	bl sync
.Ltmp1038:
.LBB15_8:
	{
		nop
		ldw r8, sp[6]
	}
	.loc	3 2656 3
	ldd r7, r6, sp[2]
	ldd r5, r4, sp[1]
	{
		nop
		retsp 8
	}
	# RETURN_REG_HOLDER
.Ltmp1039:
	.cc_bottom f_sync.function
	.set	f_sync.nstackwords,((disk_status.nstackwords $M move_window.nstackwords $M get_fattime.nstackwords $M sync.nstackwords) + 8)
	.globl	f_sync.nstackwords
	.set	f_sync.maxcores,disk_status.maxcores $M get_fattime.maxcores $M move_window.maxcores $M sync.maxcores $M 1
	.globl	f_sync.maxcores
	.set	f_sync.maxtimers,disk_status.maxtimers $M get_fattime.maxtimers $M move_window.maxtimers $M sync.maxtimers $M 0
	.globl	f_sync.maxtimers
	.set	f_sync.maxchanends,disk_status.maxchanends $M get_fattime.maxchanends $M move_window.maxchanends $M sync.maxchanends $M 0
	.globl	f_sync.maxchanends
.Ltmp1040:
	.size	f_sync, .Ltmp1040-f_sync
.Lfunc_end15:
	.cfi_endproc

	.align	4
	.type	sync,@function
	.cc_top sync.function,sync
sync:
.Lfunc_begin16:
	.loc	3 791 0
	.cfi_startproc
	.issue_mode dual
	{
		nop
		dualentsp 10
	}
.Ltmp1041:
	.cfi_def_cfa_offset 40
.Ltmp1042:
	.cfi_offset 15, 0
	std r5, r4, sp[1]
.Ltmp1043:
	.cfi_offset 4, -32
.Ltmp1044:
	.cfi_offset 5, -28
	std r7, r6, sp[2]
.Ltmp1045:
	.cfi_offset 6, -24
.Ltmp1046:
	.cfi_offset 7, -20
	std r9, r8, sp[3]
.Ltmp1047:
	.cfi_offset 8, -16
.Ltmp1048:
	.cfi_offset 9, -12
.Ltmp1049:
	.cfi_offset 10, -8
.Ltmp1050:
	{
		mov r4, r0
		stw r10, sp[8]
	}
.Ltmp1051:
	{
		ldc r0, 48
		nop
	}
	.loc	3 754 3 prologue_end
.Ltmp1052:
	{
		add r5, r4, r0
		nop
	}
	{
		nop
		ldw r8, r5[0]
	}
.Ltmp1053:
	bf r8, .LBB16_7
.Ltmp1054:
	{
		ldc r9, 4
		nop
	}
	{
		nop
		ld8u r0, r4[r9]
	}
	bf r0, .LBB16_7
.Ltmp1055:
	{
		ldc r0, 52
		nop
	}
	.loc	3 758 11
.Ltmp1056:
	{
		add r6, r4, r0
		mkmsk r7, 1
	}
	.loc	3 758 11
	{
		mov r1, r6
		ld8u r0, r4[r7]
	}
	{
		mov r2, r8
		mov r3, r7
	}
	bl disk_write
	.loc	3 758 11
	bf r0, .LBB16_3
.Ltmp1057:
	{
		mkmsk r0, 1
		nop
	}
	bu .LBB16_12
.LBB16_3:
.Ltmp1058:
	{
		ldc r0, 0
		nop
	}
	.loc	3 760 7
	st8 r0, r4[r9]
	{
		nop
		ldw r1, r4[9]
	}
	{
		nop
		ldw r0, r4[8]
	}
	.loc	3 761 11
.Ltmp1059:
	{
		add r1, r0, r1
		nop
	}
	.loc	3 761 11
	{
		lsu r1, r8, r1
		nop
	}
	bf r1, .LBB16_7
.Ltmp1060:
	{
		mkmsk r1, 2
		nop
	}
	.loc	3 763 14
.Ltmp1061:
	{
		ldc r10, 2
		ld8u r9, r4[r1]
	}
	{
		lsu r1, r9, r10
		nop
	}
	bt r1, .LBB16_7
.Ltmp1062:
	.loc	3 764 11
	{
		add r8, r8, r0
		ld8u r0, r4[r7]
	}
.Ltmp1063:
	.loc	3 765 11
	{
		mov r1, r6
		mov r2, r8
	}
	{
		mov r3, r7
		nop
	}
	bl disk_write
.Ltmp1064:
	.loc	3 763 39
	{
		sub r9, r9, 1
		nop
	}
	{
		mov r0, r9
		nop
	}
	{
		zext r0, 8
		nop
	}
	.loc	3 763 9
	{
		lsu r0, r0, r10
		nop
	}
	bt r0, .LBB16_7
.Ltmp1065:
.LBB16_6:
	{
		nop
		ldw r0, r4[8]
	}
	.loc	3 764 11
.Ltmp1066:
	{
		add r8, r8, r0
		ld8u r0, r4[r7]
	}
.Ltmp1067:
	.loc	3 765 11
	{
		mov r1, r6
		mov r2, r8
	}
	{
		mov r3, r7
		nop
	}
	bl disk_write
.Ltmp1068:
	.loc	3 763 39
	{
		sub r9, r9, 1
		nop
	}
	{
		mov r0, r9
		nop
	}
	{
		zext r0, 8
		nop
	}
	.loc	3 763 9
	{
		lsu r0, r7, r0
		nop
	}
	bt r0, .LBB16_6
.Ltmp1069:
.LBB16_7:
	.loc	3 798 9
	{
		ldc r6, 0
		nop
	}
	{
		nop
		ld8u r0, r4[r6]
	}
	.loc	3 798 9
	{
		eq r0, r0, 3
		nop
	}
	bf r0, .LBB16_10
.Ltmp1070:
	{
		ldc r8, 5
		nop
	}
	{
		nop
		ld8u r0, r4[r8]
	}
	bf r0, .LBB16_10
.Ltmp1071:
	{
		ldc r9, 52
		nop
	}
	.loc	3 801 7
.Ltmp1072:
	{
		add r7, r4, r9
		nop
	}
.Ltmp1073:
	ldc r2, 516
	.loc	3 577 5
.Ltmp1074:
	{
		mov r0, r5
		mov r1, r6
	}
	bl memset
	ldc r0, 562
	ldc r1, 85
.Ltmp1075:
	.loc	3 802 7
	st8 r1, r4[r0]
	ldc r0, 563
	ldc r1, 170
	.loc	3 802 7
	st8 r1, r4[r0]
	ldc r0, 82
	.loc	3 803 7
	st8 r0, r4[r9]
	{
		ldc r1, 54
		nop
	}
	ldc r2, 97
	.loc	3 803 7
	st8 r2, r4[r1]
	{
		ldc r1, 53
		nop
	}
	st8 r0, r4[r1]
	{
		ldc r0, 55
		nop
	}
	ldc r1, 65
	.loc	3 803 7
	st8 r1, r4[r0]
	ldc r0, 536
	ldc r3, 114
	.loc	3 804 7
	st8 r3, r4[r0]
	ldc r0, 537
	.loc	3 804 7
	st8 r3, r4[r0]
	ldc r0, 538
	.loc	3 804 7
	st8 r1, r4[r0]
	ldc r0, 539
	.loc	3 804 7
	st8 r2, r4[r0]
	{
		nop
		ldw r0, r4[4]
	}
	ldc r1, 540
	.loc	3 805 7
	st8 r0, r4[r1]
	.loc	3 805 7
	{
		shr r1, r0, 8
		nop
	}
	ldc r2, 541
	.loc	3 805 7
	st8 r1, r4[r2]
	.loc	3 805 7
	{
		shr r1, r0, 16
		nop
	}
	ldc r2, 542
	.loc	3 805 7
	st8 r1, r4[r2]
	.loc	3 805 7
	{
		shr r0, r0, 24
		nop
	}
	ldc r1, 543
	.loc	3 805 7
	st8 r0, r4[r1]
	{
		nop
		ldw r0, r4[3]
	}
	ldc r1, 544
	.loc	3 806 7
	st8 r0, r4[r1]
	.loc	3 806 7
	{
		shr r1, r0, 8
		nop
	}
	ldc r2, 545
	.loc	3 806 7
	st8 r1, r4[r2]
	.loc	3 806 7
	{
		shr r1, r0, 16
		nop
	}
	ldc r2, 546
	.loc	3 806 7
	st8 r1, r4[r2]
	.loc	3 806 7
	{
		shr r0, r0, 24
		nop
	}
	ldc r1, 547
	.loc	3 806 7
	st8 r0, r4[r1]
	.loc	3 808 7
	{
		mkmsk r3, 1
		ldw r2, r4[5]
	}
	.loc	3 808 7
	{
		mov r1, r7
		ld8u r0, r4[r3]
	}
	bl disk_write
	.loc	3 809 7
	st8 r6, r4[r8]
.Ltmp1076:
.LBB16_10:
	{
		mkmsk r0, 1
		nop
	}
	.loc	3 812 9
.Ltmp1077:
	{
		ldc r1, 0
		ld8u r0, r4[r0]
	}
	{
		mov r2, r1
		nop
	}
	bl disk_ioctl
.Ltmp1078:
	.loc	3 812 9
	{
		eq r0, r0, 0
		nop
	}
	{
		eq r0, r0, 0
		nop
	}
.Ltmp1079:
.LBB16_12:
	{
		nop
		ldw r10, sp[8]
	}
	.loc	3 816 3
	ldd r9, r8, sp[3]
	ldd r7, r6, sp[2]
	ldd r5, r4, sp[1]
	{
		nop
		retsp 10
	}
	# RETURN_REG_HOLDER
.Ltmp1080:
	.cc_bottom sync.function
	.set	sync.nstackwords,((disk_ioctl.nstackwords $M memset.nstackwords $M disk_write.nstackwords) + 10)
	.set	sync.maxcores,disk_ioctl.maxcores $M disk_write.maxcores $M 1
	.set	sync.maxtimers,disk_ioctl.maxtimers $M disk_write.maxtimers $M 0
	.set	sync.maxchanends,disk_ioctl.maxchanends $M disk_write.maxchanends $M 0
.Ltmp1081:
	.size	sync, .Ltmp1081-sync
.Lfunc_end16:
	.cfi_endproc

	.globl	f_close
	.align	4
	.type	f_close,@function
	.cc_top f_close.function,f_close
f_close:
.Lfunc_begin17:
	.loc	3 2671 0
	.cfi_startproc
	.issue_mode dual
	{
		nop
		dualentsp 4
	}
.Ltmp1082:
	.cfi_def_cfa_offset 16
.Ltmp1083:
	.cfi_offset 15, 0
.Ltmp1084:
	.cfi_offset 4, -8
.Ltmp1085:
	{
		mov r4, r0
		stw r4, sp[2]
	}
.Ltmp1086:
	.loc	3 2681 9 prologue_end
	bl f_sync
.Ltmp1087:
	bt r0, .LBB17_2
.Ltmp1088:
	{
		ldc r1, 0
		nop
	}
	{
		nop
		stw r1, r4[0]
	}
.Ltmp1089:
.LBB17_2:
	{
		nop
		ldw r4, sp[2]
	}
	{
		nop
		retsp 4
	}
	.loc	3 2696 3
	# RETURN_REG_HOLDER
.Ltmp1090:
	.cc_bottom f_close.function
	.set	f_close.nstackwords,(f_sync.nstackwords + 4)
	.globl	f_close.nstackwords
	.set	f_close.maxcores,f_sync.maxcores $M 1
	.globl	f_close.maxcores
	.set	f_close.maxtimers,f_sync.maxtimers $M 0
	.globl	f_close.maxtimers
	.set	f_close.maxchanends,f_sync.maxchanends $M 0
	.globl	f_close.maxchanends
.Ltmp1091:
	.size	f_close, .Ltmp1091-f_close
.Lfunc_end17:
	.cfi_endproc

	.globl	f_chdrive
	.align	4
	.type	f_chdrive,@function
	.cc_top f_chdrive.function,f_chdrive
f_chdrive:
.Lfunc_begin18:
	.loc	3 2712 0
	.cfi_startproc
	.issue_mode dual
	{
		nop
		dualentsp 0
	}
	.loc	3 2713 7 prologue_end
.Ltmp1092:
	bf r0, .LBB18_2
.Ltmp1093:
	{
		ldc r0, 11
		retsp 0
	}
	.loc	3 2718 1
	# RETURN_REG_HOLDER
.LBB18_2:
	.loc	3 2715 3
	ldaw r1, dp[CurrVol]
	{
		ldc r0, 0
		nop
	}
	st8 r0, r1[r0]
	{
		nop
		retsp 0
	}
	.loc	3 2718 1
	# RETURN_REG_HOLDER
.Ltmp1094:
	.cc_bottom f_chdrive.function
	.set	f_chdrive.nstackwords,0
	.globl	f_chdrive.nstackwords
	.set	f_chdrive.maxcores,1
	.globl	f_chdrive.maxcores
	.set	f_chdrive.maxtimers,0
	.globl	f_chdrive.maxtimers
	.set	f_chdrive.maxchanends,0
	.globl	f_chdrive.maxchanends
.Ltmp1095:
	.size	f_chdrive, .Ltmp1095-f_chdrive
.Lfunc_end18:
	.cfi_endproc

	.globl	f_chdir
	.align	4
	.type	f_chdir,@function
	.cc_top f_chdir.function,f_chdir
f_chdir:
.Lfunc_begin19:
	.loc	3 2725 0
	.cfi_startproc
	.issue_mode dual
	{
		nop
		dualentsp 16
	}
.Ltmp1096:
	.cfi_def_cfa_offset 64
.Ltmp1097:
	.cfi_offset 15, 0
	{
		nop
		stw r4, sp[14]
	}
.Ltmp1098:
	.cfi_offset 4, -8
.Ltmp1099:
	{
		ldaw r0, sp[13]
		stw r0, sp[13]
	}
.Ltmp1100:
	{
		ldaw r1, sp[4]
		ldc r4, 0
	}
	.loc	3 2731 9 prologue_end
.Ltmp1101:
	{
		mov r2, r4
		nop
	}
	bl chk_mounted
.Ltmp1102:
	bt r0, .LBB19_10
.Ltmp1103:
	{
		ldaw r0, sp[1]
		nop
	}
	{
		nop
		stw r0, sp[10]
	}
	.loc	3 2733 5
.Ltmp1104:
	ldaw r0, dp[LfnBuf]
	{
		nop
		stw r0, sp[11]
	}
.Ltmp1105:
	.loc	3 2734 11
	{
		ldaw r0, sp[4]
		ldw r1, sp[13]
	}
.Ltmp1106:
	.loc	3 2734 11
	bl follow_path
.Ltmp1107:
	bt r0, .LBB19_8
.Ltmp1108:
	{
		nop
		ldw r0, sp[9]
	}
	.loc	3 2737 11
.Ltmp1109:
	bf r0, .LBB19_3
	{
		ldc r1, 11
		nop
	}
	.loc	3 2740 13
.Ltmp1110:
	{
		ldc r2, 16
		ld8u r1, r0[r1]
	}
	.loc	3 2740 13
	{
		and r1, r1, r2
		nop
	}
	.loc	3 2740 13
	bf r1, .LBB19_5
	{
		ldc r1, 21
		nop
	}
	{
		nop
		ld8u r1, r0[r1]
	}
	.loc	3 2741 11
	{
		shl r1, r1, 8
		ldc r2, 20
	}
	{
		nop
		ld8u r2, r0[r2]
	}
	.loc	3 2741 11
	{
		or r1, r1, r2
		nop
	}
	.loc	3 2741 11
	{
		shl r1, r1, 16
		ldc r2, 27
	}
	{
		nop
		ld8u r2, r0[r2]
	}
	.loc	3 2741 11
	{
		shl r2, r2, 8
		ldc r3, 26
	}
	{
		nop
		ld8u r0, r0[r3]
	}
	.loc	3 2741 11
	{
		or r0, r2, r0
		nop
	}
	.loc	3 2741 11
	{
		or r0, r0, r1
		nop
	}
	bu .LBB19_7
.LBB19_3:
	{
		nop
		ldw r0, sp[6]
	}
.LBB19_7:
	{
		nop
		ldw r1, sp[4]
	}
	.loc	3 2741 11
	{
		mov r0, r4
		stw r0, r1[6]
	}
	bu .LBB19_8
.Ltmp1111:
.LBB19_5:
	{
		ldc r0, 5
		nop
	}
.LBB19_8:
.Ltmp1112:
	.loc	3 2746 9
	{
		eq r1, r0, 4
		nop
	}
	bf r1, .LBB19_10
.Ltmp1113:
	{
		ldc r0, 5
		nop
	}
.LBB19_10:
	{
		nop
		ldw r4, sp[14]
	}
	{
		nop
		retsp 16
	}
	.loc	3 2750 1
	# RETURN_REG_HOLDER
.Ltmp1114:
	.cc_bottom f_chdir.function
	.set	f_chdir.nstackwords,((chk_mounted.nstackwords $M follow_path.nstackwords) + 16)
	.globl	f_chdir.nstackwords
	.set	f_chdir.maxcores,chk_mounted.maxcores $M follow_path.maxcores $M 1
	.globl	f_chdir.maxcores
	.set	f_chdir.maxtimers,chk_mounted.maxtimers $M follow_path.maxtimers $M 0
	.globl	f_chdir.maxtimers
	.set	f_chdir.maxchanends,chk_mounted.maxchanends $M follow_path.maxchanends $M 0
	.globl	f_chdir.maxchanends
.Ltmp1115:
	.size	f_chdir, .Ltmp1115-f_chdir
.Lfunc_end19:
	.cfi_endproc

	.globl	f_getcwd
	.align	4
	.type	f_getcwd,@function
	.cc_top f_getcwd.function,f_getcwd
f_getcwd:
.Lfunc_begin20:
	.loc	3 2758 0
	.cfi_startproc
	.issue_mode dual
	{
		nop
		dualentsp 36
	}
.Ltmp1116:
	.cfi_def_cfa_offset 144
.Ltmp1117:
	.cfi_offset 15, 0
	{
		nop
		stw r4, sp[28]
	}
	{
		nop
		stw r5, sp[29]
	}
.Ltmp1118:
	.cfi_offset 4, -32
.Ltmp1119:
	.cfi_offset 5, -28
	{
		nop
		stw r6, sp[30]
	}
	{
		nop
		stw r7, sp[31]
	}
.Ltmp1120:
	.cfi_offset 6, -24
.Ltmp1121:
	.cfi_offset 7, -20
	{
		nop
		stw r8, sp[32]
	}
	{
		nop
		stw r9, sp[33]
	}
.Ltmp1122:
	.cfi_offset 8, -16
.Ltmp1123:
	.cfi_offset 9, -12
.Ltmp1124:
	.cfi_offset 10, -8
.Ltmp1125:
	{
		mov r9, r1
		stw r10, sp[34]
	}
.Ltmp1126:
	{
		ldc r7, 0
		stw r0, sp[27]
	}
	.loc	3 2768 3 prologue_end
.Ltmp1127:
	st8 r7, r0[r7]
.Ltmp1128:
	{
		ldaw r0, sp[27]
		ldaw r5, sp[18]
	}
.Ltmp1129:
	.loc	3 2769 9
	{
		mov r1, r5
		mov r2, r7
	}
	bl chk_mounted
.Ltmp1130:
	bt r0, .LBB20_55
.Ltmp1131:
	{
		ldaw r0, sp[7]
		nop
	}
	{
		nop
		stw r0, sp[24]
	}
	.loc	3 2771 5
.Ltmp1132:
	ldaw r0, dp[LfnBuf]
	{
		nop
		stw r0, sp[25]
	}
	{
		nop
		ldw r0, sp[18]
	}
	{
		nop
		ldw r0, r0[6]
	}
.Ltmp1133:
	{
		nop
		stw r0, sp[20]
	}
	{
		nop
		stw r0, sp[6]
	}
.Ltmp1134:
	.loc	3 2774 5
	bf r0, .LBB20_2
.Ltmp1135:
	{
		nop
		ldw r4, sp[27]
	}
.Ltmp1136:
	{
		ldaw r0, sp[10]
		stw r4, sp[5]
	}
	.loc	3 2795 7
.Ltmp1137:
	{
		add r0, r0, 9
		nop
	}
.Ltmp1138:
	{
		sub r0, r4, 1
		stw r0, sp[2]
	}
	{
		mov r8, r9
		stw r0, sp[3]
	}
	bu .LBB20_4
.Ltmp1139:
.LBB20_6:
	.loc	3 2777 13
	{
		mov r0, r5
		nop
	}
	bl dir_read
.Ltmp1140:
	.loc	3 2778 11
	bt r0, .LBB20_7
.Ltmp1141:
	.loc	3 2779 7
	{
		ldc r1, 21
		ldw r0, sp[23]
	}
	{
		nop
		ld8u r1, r0[r1]
	}
	.loc	3 2779 7
	{
		shl r1, r1, 8
		ldc r2, 20
	}
	{
		nop
		ld8u r2, r0[r2]
	}
	.loc	3 2779 7
	{
		or r1, r1, r2
		nop
	}
	.loc	3 2779 7
	{
		shl r1, r1, 16
		ldc r2, 27
	}
	{
		nop
		ld8u r2, r0[r2]
	}
	.loc	3 2779 7
	{
		shl r2, r2, 8
		ldc r3, 26
	}
	{
		nop
		ld8u r0, r0[r3]
	}
	.loc	3 2779 7
	{
		or r0, r2, r0
		nop
	}
	.loc	3 2779 7
	{
		or r0, r0, r1
		nop
	}
	.loc	3 2779 7
	{
		mov r0, r5
		stw r0, sp[20]
	}
	.loc	3 2780 13
	{
		mov r1, r7
		nop
	}
	bl dir_sdi
.Ltmp1142:
	bf r0, .LBB20_10
	bu .LBB20_9
.Ltmp1143:
.LBB20_35:
	.loc	3 1194 3
	st16 r7, r5[r6]
	{
		mov r7, r6
		shl r0, r4, 5
	}
	.loc	3 1195 3
	{
		add r0, r10, r0
		ldc r1, 52
	}
	{
		add r0, r0, r1
		nop
	}
	.loc	3 1195 3
	{
		ldaw r5, sp[18]
		stw r0, sp[23]
	}
.Ltmp1144:
.LBB20_10:
	.loc	3 2783 15
	{
		mov r0, r5
		nop
	}
	bl dir_read
.Ltmp1145:
	bt r0, .LBB20_13
.Ltmp1146:
	.loc	3 2785 13
	{
		ldc r1, 21
		ldw r0, sp[23]
	}
	{
		nop
		ld8u r1, r0[r1]
	}
	.loc	3 2785 13
	{
		shl r1, r1, 8
		ldc r2, 20
	}
	{
		nop
		ld8u r2, r0[r2]
	}
	.loc	3 2785 13
	{
		or r1, r1, r2
		nop
	}
	.loc	3 2785 13
	{
		shl r1, r1, 16
		ldc r2, 27
	}
	{
		nop
		ld8u r2, r0[r2]
	}
	.loc	3 2785 13
	{
		shl r2, r2, 8
		ldc r3, 26
	}
	{
		nop
		ld8u r0, r0[r3]
	}
	.loc	3 2785 13
	{
		or r0, r2, r0
		nop
	}
	.loc	3 2785 13
	{
		or r0, r0, r1
		ldw r1, sp[6]
	}
	.loc	3 2785 13
	{
		eq r0, r1, r0
		nop
	}
	.loc	3 2785 13
	bt r0, .LBB20_12
.Ltmp1147:
	.loc	3 1150 3
	{
		add r5, r5, 6
		nop
	}
.Ltmp1148:
	.loc	3 1150 3
	{
		mov r6, r7
		ld16s r0, r5[r7]
	}
	{
		zext r0, 16
		nop
	}
	.loc	3 1150 3
	{
		add r7, r0, 1
		nop
	}
	.loc	3 1150 3
	{
		mov r0, r7
		nop
	}
	{
		zext r0, 16
		nop
	}
	.loc	3 1151 7
.Ltmp1149:
	bf r0, .LBB20_18
.Ltmp1150:
	{
		nop
		ldw r1, sp[22]
	}
	bf r1, .LBB20_18
.Ltmp1151:
	.loc	3 1154 7
	{
		mov r4, r7
		nop
	}
	{
		zext r4, 4
		nop
	}
	.loc	3 1154 7
	bf r4, .LBB20_22
.Ltmp1152:
	{
		nop
		ldw r10, sp[18]
	}
	bu .LBB20_35
.Ltmp1153:
.LBB20_22:
	.loc	3 1155 5
	{
		add r1, r1, 1
		nop
	}
	{
		nop
		stw r1, sp[22]
	}
	{
		nop
		ldw r1, sp[21]
	}
	.loc	3 1157 9
.Ltmp1154:
	bf r1, .LBB20_23
.Ltmp1155:
	{
		shr r0, r0, 4
		stw r9, sp[4]
	}
.Ltmp1156:
	.loc	3 1162 11
	{
		ldc r9, 2
		ldw r10, sp[18]
	}
.Ltmp1157:
	{
		nop
		ld8u r2, r10[r9]
	}
	ldc r3, 4095
	.loc	3 1162 11
	{
		add r2, r2, r3
		nop
	}
	.loc	3 1162 11
	{
		and r0, r2, r0
		nop
	}
	.loc	3 1162 11
	bf r0, .LBB20_26
.Ltmp1158:
	{
		nop
		ldw r9, sp[4]
	}
.Ltmp1159:
	bu .LBB20_35
.Ltmp1160:
.LBB20_23:
	{
		nop
		ldw r10, sp[18]
	}
	.loc	3 1158 11
.Ltmp1161:
	{
		add r1, r10, 8
		nop
	}
	{
		nop
		ld16s r1, r1[r6]
	}
	.loc	3 1158 11
	{
		zext r1, 16
		nop
	}
	.loc	3 1158 11
	{
		lsu r0, r0, r1
		nop
	}
	bt r0, .LBB20_35
	bu .LBB20_18
.Ltmp1162:
.LBB20_26:
	.loc	3 1163 16
	{
		mov r0, r10
		nop
	}
	bl get_fat
.Ltmp1163:
	.loc	3 1164 13
	{
		lsu r1, r0, r9
		nop
	}
	.loc	3 1164 13
	bt r1, .LBB20_27
.Ltmp1164:
	{
		mkmsk r1, 32
		nop
	}
.Ltmp1165:
	.loc	3 1165 13
	{
		eq r1, r0, r1
		ldw r9, sp[4]
	}
.Ltmp1166:
	.loc	3 1165 13
	bt r1, .LBB20_29
.Ltmp1167:
	{
		nop
		ldw r1, r10[7]
	}
	.loc	3 1166 13
.Ltmp1168:
	{
		lsu r2, r0, r1
		nop
	}
	bf r2, .LBB20_18
.Ltmp1169:
	.loc	3 1188 9
	{
		sub r0, r0, 2
		stw r0, sp[21]
	}
.Ltmp1170:
	.loc	3 834 7
	{
		sub r1, r1, 2
		nop
	}
	.loc	3 834 7
	{
		lsu r2, r0, r1
		mov r1, r6
	}
	bf r2, .LBB20_34
.Ltmp1171:
	{
		ldc r1, 2
		nop
	}
	{
		nop
		ld8u r1, r10[r1]
	}
	.loc	3 835 3
	mul r0, r1, r0
.Ltmp1172:
	{
		nop
		ldw r1, r10[11]
	}
	.loc	3 835 3
	{
		add r1, r0, r1
		nop
	}
.Ltmp1173:
.LBB20_34:
	{
		nop
		stw r1, sp[22]
	}
	bu .LBB20_35
.Ltmp1174:
.LBB20_12:
	{
		mov r0, r7
		nop
	}
.Ltmp1175:
.LBB20_13:
	.loc	3 2788 11
	{
		eq r2, r0, 4
		ldc r1, 2
	}
	{
		nop
		ldw r4, sp[5]
	}
	bt r2, .LBB20_15
.Ltmp1176:
	.loc	3 2788 11
	{
		mov r1, r0
		nop
	}
.Ltmp1177:
.LBB20_15:
	bt r1, .LBB20_16
.Ltmp1178:
	{
		nop
		stw r4, sp[16]
	}
.Ltmp1179:
	.loc	3 2792 7
	{
		mov r0, r5
		stw r8, sp[17]
	}
	{
		ldaw r1, sp[10]
		nop
	}
	.loc	3 2794 7
	bl get_fileinfo
	.loc	3 2796 11
.Ltmp1180:
	{
		mov r1, r4
		ld8u r0, r4[r7]
	}
	bt r0, .LBB20_38
.Ltmp1181:
	{
		nop
		ldw r1, sp[2]
	}
.Ltmp1182:
.LBB20_38:
	{
		mov r2, r7
		nop
	}
.Ltmp1183:
.LBB20_39:
	{
		mov r0, r2
		nop
	}
.Ltmp1184:
	.loc	3 2797 7
	{
		add r2, r0, 1
		ld8u r3, r1[r0]
	}
.Ltmp1185:
	.loc	3 2797 7
	bt r3, .LBB20_39
.Ltmp1186:
	.loc	3 2798 11
	{
		add r2, r0, 3
		nop
	}
	.loc	3 2798 11
	{
		lsu r2, r8, r2
		nop
	}
	.loc	3 2798 11
	bt r2, .LBB20_41
.Ltmp1187:
	bf r0, .LBB20_46
.Ltmp1188:
	{
		nop
		ldw r2, sp[3]
	}
	{
		add r2, r2, r8
		sub r1, r1, 1
	}
	{
		mov r3, r0
		nop
	}
.Ltmp1189:
.LBB20_44:
	.loc	3 2801 17
	{
		sub r11, r3, 1
		ld8u r3, r1[r3]
	}
.Ltmp1190:
	.loc	3 2801 17
	st8 r3, r2[r7]
.Ltmp1191:
	.loc	3 2801 7
	{
		sub r2, r2, 1
		mov r3, r11
	}
.Ltmp1192:
	.loc	3 2801 7
	bt r11, .LBB20_44
.Ltmp1193:
	.loc	3 2801 7
	{
		sub r8, r8, r0
		nop
	}
.Ltmp1194:
.LBB20_46:
	.loc	3 2802 7
	{
		sub r8, r8, 1
		ldc r0, 47
	}
	.loc	3 2802 7
	st8 r0, r4[r8]
	{
		nop
		ldw r0, sp[20]
	}
	{
		nop
		stw r0, sp[6]
	}
	bt r0, .LBB20_4
	bu .LBB20_47
.Ltmp1195:
.LBB20_27:
	{
		ldc r0, 2
		ldw r9, sp[4]
	}
	bu .LBB20_30
.Ltmp1196:
.LBB20_29:
	{
		mkmsk r0, 1
		nop
	}
.Ltmp1197:
.LBB20_30:
	{
		ldaw r5, sp[18]
		mov r7, r6
	}
.Ltmp1198:
	bu .LBB20_13
.LBB20_4:
.Ltmp1199:
	.loc	3 2775 13
	{
		mov r0, r5
		mkmsk r1, 1
	}
	bl dir_sdi
.Ltmp1200:
	.loc	3 2776 11
	bf r0, .LBB20_6
.Ltmp1201:
	{
		mov r3, r4
		nop
	}
	bu .LBB20_54
.Ltmp1202:
.LBB20_2:
	.loc	3 2804 5
	{
		mov r8, r9
		ldw r4, sp[27]
	}
.Ltmp1203:
.LBB20_47:
	.loc	3 2806 7
	ldaw r1, dp[CurrVol]
	.loc	3 2806 7
	{
		ldc r0, 0
		nop
	}
	.loc	3 2806 7
	{
		ldc r1, 48
		ld8u r2, r1[r0]
	}
	.loc	3 2806 7
	{
		add r1, r2, r1
		nop
	}
	.loc	3 2806 7
	st8 r1, r4[r0]
	{
		mkmsk r2, 1
		ldc r1, 58
	}
	.loc	3 2807 7
	st8 r1, r4[r2]
	.loc	3 2808 11
.Ltmp1204:
	{
		eq r1, r8, r9
		nop
	}
	.loc	3 2808 11
	bf r1, .LBB20_48
.Ltmp1205:
	.loc	3 2809 9
	{
		add r3, r4, 3
		ldc r1, 2
	}
.Ltmp1206:
	{
		ldc r2, 47
		nop
	}
	.loc	3 2809 9
	st8 r2, r4[r1]
	bu .LBB20_54
.Ltmp1207:
.LBB20_18:
	{
		ldc r0, 2
		ldw r3, sp[5]
	}
	bu .LBB20_54
.LBB20_48:
.Ltmp1208:
	.loc	3 2812 11
	{
		add r3, r8, 1
		nop
	}
	{
		lsu r2, r3, r9
		mov r1, r9
	}
	bt r2, .LBB20_50
.Ltmp1209:
	{
		mov r1, r3
		nop
	}
.Ltmp1210:
.LBB20_50:
	.loc	3 2807 7
	{
		add r11, r4, 2
		add r1, r1, 2
	}
.Ltmp1211:
	.loc	3 2812 11
	{
		sub r1, r1, r8
		mov r2, r4
	}
	bu .LBB20_51
.Ltmp1212:
.LBB20_52:
	.loc	3 2812 11
	{
		add r11, r11, 1
		ldw r2, sp[27]
	}
	{
		mov r8, r3
		nop
	}
.Ltmp1213:
.LBB20_51:
	.loc	3 2812 11
	{
		add r3, r8, 1
		ld8u r2, r2[r8]
	}
.Ltmp1214:
	.loc	3 2812 11
	st8 r2, r11[r0]
	.loc	3 2812 11
	{
		lsu r2, r3, r9
		nop
	}
	bt r2, .LBB20_52
.Ltmp1215:
	{
		add r3, r4, r1
		nop
	}
.Ltmp1216:
	bu .LBB20_54
.Ltmp1217:
.LBB20_7:
	{
		mov r3, r4
		nop
	}
	bu .LBB20_54
.Ltmp1218:
.LBB20_9:
	{
		mov r3, r4
		nop
	}
	bu .LBB20_54
.Ltmp1219:
.LBB20_16:
	{
		mov r0, r1
		mov r3, r4
	}
	bu .LBB20_54
.LBB20_41:
	{
		ldc r0, 17
		mov r3, r4
	}
.LBB20_54:
	.loc	3 2816 5
	{
		ldc r1, 0
		nop
	}
	st8 r1, r3[r1]
.Ltmp1220:
.LBB20_55:
	{
		nop
		ldw r10, sp[34]
	}
	{
		nop
		ldw r8, sp[32]
	}
	{
		nop
		ldw r9, sp[33]
	}
	{
		nop
		ldw r6, sp[30]
	}
	{
		nop
		ldw r7, sp[31]
	}
	{
		nop
		ldw r4, sp[28]
	}
	{
		nop
		ldw r5, sp[29]
	}
	{
		nop
		retsp 36
	}
	.loc	3 2821 1
	# RETURN_REG_HOLDER
.Ltmp1221:
	.cc_bottom f_getcwd.function
	.set	f_getcwd.nstackwords,((chk_mounted.nstackwords $M dir_sdi.nstackwords $M dir_read.nstackwords $M get_fileinfo.nstackwords $M get_fat.nstackwords) + 36)
	.globl	f_getcwd.nstackwords
	.set	f_getcwd.maxcores,chk_mounted.maxcores $M dir_read.maxcores $M dir_sdi.maxcores $M get_fat.maxcores $M get_fileinfo.maxcores $M 1
	.globl	f_getcwd.maxcores
	.set	f_getcwd.maxtimers,chk_mounted.maxtimers $M dir_read.maxtimers $M dir_sdi.maxtimers $M get_fat.maxtimers $M get_fileinfo.maxtimers $M 0
	.globl	f_getcwd.maxtimers
	.set	f_getcwd.maxchanends,chk_mounted.maxchanends $M dir_read.maxchanends $M dir_sdi.maxchanends $M get_fat.maxchanends $M get_fileinfo.maxchanends $M 0
	.globl	f_getcwd.maxchanends
.Ltmp1222:
	.size	f_getcwd, .Ltmp1222-f_getcwd
.Lfunc_end20:
	.cfi_endproc

	.align	4
	.type	dir_sdi,@function
	.cc_top dir_sdi.function,dir_sdi
dir_sdi:
.Lfunc_begin21:
	.loc	3 1096 0
	.cfi_startproc
	.issue_mode dual
	{
		nop
		dualentsp 10
	}
.Ltmp1223:
	.cfi_def_cfa_offset 40
.Ltmp1224:
	.cfi_offset 15, 0
	std r5, r4, sp[1]
.Ltmp1225:
	.cfi_offset 4, -32
.Ltmp1226:
	.cfi_offset 5, -28
	std r7, r6, sp[2]
.Ltmp1227:
	.cfi_offset 6, -24
.Ltmp1228:
	.cfi_offset 7, -20
	std r9, r8, sp[3]
.Ltmp1229:
	.cfi_offset 8, -16
.Ltmp1230:
	.cfi_offset 9, -12
.Ltmp1231:
	.cfi_offset 10, -8
.Ltmp1232:
	{
		mov r5, r1
		stw r10, sp[8]
	}
.Ltmp1233:
	{
		mov r4, r0
		nop
	}
.Ltmp1234:
	.loc	3 1101 3 prologue_end
	{
		add r0, r4, 6
		ldc r7, 0
	}
	.loc	3 1101 3
	st16 r5, r0[r7]
	{
		nop
		ldw r1, r4[2]
	}
.Ltmp1235:
	.loc	3 1103 7
	{
		eq r0, r1, 1
		ldc r6, 2
	}
	bt r0, .LBB21_20
.Ltmp1236:
	{
		nop
		ldw r0, r4[0]
	}
	{
		nop
		ldw r2, r0[7]
	}
	.loc	3 1103 7
	{
		lsu r3, r1, r2
		nop
	}
	bf r3, .LBB21_20
.Ltmp1237:
	bt r1, .LBB21_7
.Ltmp1238:
	.loc	3 1105 7
	{
		ldc r3, 0
		nop
	}
	{
		nop
		ld8u r1, r0[r3]
	}
	.loc	3 1105 7
	{
		eq r1, r1, 3
		nop
	}
	bf r1, .LBB21_5
.Ltmp1239:
	{
		nop
		ldw r1, r0[10]
	}
.Ltmp1240:
	bf r1, .LBB21_5
.Ltmp1241:
.LBB21_7:
	{
		ldc r8, 2
		nop
	}
	{
		nop
		ld8u r3, r0[r8]
	}
	.loc	3 1115 5
.Ltmp1242:
	{
		shl r9, r3, 4
		nop
	}
	.loc	3 1116 5
	{
		lsu r3, r5, r9
		nop
	}
	bt r3, .LBB21_16
.Ltmp1243:
	{
		mkmsk r10, 32
		mkmsk r6, 1
	}
.Ltmp1244:
.LBB21_10:
	.loc	3 1117 14
	bl get_fat
	{
		mov r1, r0
		nop
	}
	.loc	3 1118 11
.Ltmp1245:
	{
		eq r0, r1, r10
		nop
	}
	bt r0, .LBB21_20
.Ltmp1246:
	.loc	3 1119 11
	{
		lsu r0, r1, r8
		nop
	}
	.loc	3 1119 11
	bt r0, .LBB21_12
.Ltmp1247:
	{
		nop
		ldw r0, r4[0]
	}
	{
		nop
		ldw r2, r0[7]
	}
	.loc	3 1119 11
	{
		lsu r3, r1, r2
		nop
	}
	.loc	3 1119 11
	bf r3, .LBB21_14
.Ltmp1248:
	.loc	3 1121 7
	{
		sub r3, r5, r9
		nop
	}
.Ltmp1249:
	.loc	3 1116 5
	{
		mov r5, r3
		nop
	}
	{
		zext r5, 16
		nop
	}
	.loc	3 1116 5
	{
		lsu r11, r5, r9
		nop
	}
	bf r11, .LBB21_10
.Ltmp1250:
	{
		mov r5, r3
		nop
	}
.Ltmp1251:
.LBB21_16:
	.loc	3 1123 5
	{
		sub r1, r1, 2
		stw r1, r4[3]
	}
.Ltmp1252:
	.loc	3 834 7
	{
		sub r2, r2, 2
		nop
	}
	.loc	3 834 7
	{
		lsu r2, r1, r2
		nop
	}
	bf r2, .LBB21_18
.Ltmp1253:
	{
		ldc r2, 2
		nop
	}
	{
		nop
		ld8u r2, r0[r2]
	}
	.loc	3 835 3
	mul r1, r2, r1
.Ltmp1254:
	{
		nop
		ldw r2, r0[11]
	}
	.loc	3 835 3
	{
		add r7, r1, r2
		nop
	}
.Ltmp1255:
.LBB21_18:
	ldc r1, 65520
	.loc	3 1124 16
	{
		and r1, r5, r1
		nop
	}
	{
		shr r1, r1, 4
		nop
	}
	.loc	3 1124 16
	{
		add r1, r7, r1
		nop
	}
	bu .LBB21_19
.Ltmp1256:
.LBB21_5:
	.loc	3 1109 5
	{
		add r1, r0, 8
		stw r3, r4[3]
	}
	{
		nop
		ld16s r1, r1[r3]
	}
	.loc	3 1110 9
.Ltmp1257:
	{
		zext r1, 16
		nop
	}
	.loc	3 1110 9
	{
		lsu r1, r5, r1
		nop
	}
	bf r1, .LBB21_20
.Ltmp1258:
	.loc	3 1112 5
	{
		shr r2, r5, 4
		ldw r1, r0[10]
	}
	.loc	3 1112 5
	{
		add r1, r1, r2
		nop
	}
.Ltmp1259:
.LBB21_19:
	.loc	3 1124 16
	{
		zext r5, 4
		stw r1, r4[4]
	}
.Ltmp1260:
	.loc	3 1127 3
	{
		shl r1, r5, 5
		nop
	}
	.loc	3 1127 3
	{
		add r0, r0, r1
		ldc r1, 52
	}
	{
		add r0, r0, r1
		nop
	}
	.loc	3 1127 3
	{
		ldc r6, 0
		stw r0, r4[5]
	}
.Ltmp1261:
.LBB21_20:
	.loc	3 1130 1
	{
		mov r0, r6
		ldw r10, sp[8]
	}
	ldd r9, r8, sp[3]
	ldd r7, r6, sp[2]
	ldd r5, r4, sp[1]
	{
		nop
		retsp 10
	}
	# RETURN_REG_HOLDER
.Ltmp1262:
.LBB21_12:
	{
		mov r6, r8
		nop
	}
	bu .LBB21_20
.LBB21_14:
	{
		mov r6, r8
		nop
	}
	bu .LBB21_20
	.cc_bottom dir_sdi.function
	.set	dir_sdi.nstackwords,(get_fat.nstackwords + 10)
	.set	dir_sdi.maxcores,get_fat.maxcores $M 1
	.set	dir_sdi.maxtimers,get_fat.maxtimers $M 0
	.set	dir_sdi.maxchanends,get_fat.maxchanends $M 0
.Ltmp1263:
	.size	dir_sdi, .Ltmp1263-dir_sdi
.Lfunc_end21:
	.cfi_endproc

	.section	.cp.rodata.cst4,"aMc",@progbits,4
	.cc_top .LCPI22_0.data,.LCPI22_0
	.align	4
	.type	.LCPI22_0,@object
	.size	.LCPI22_0, 4
.LCPI22_0:
	.long	4294967283
	.cc_bottom .LCPI22_0.data
	.text
	.align	4
	.type	dir_read,@function
	.cc_top dir_read.function,dir_read
dir_read:
.Lfunc_begin22:
	.loc	3 1444 0
	.cfi_startproc
	.issue_mode dual
	{
		nop
		dualentsp 14
	}
.Ltmp1264:
	.cfi_def_cfa_offset 56
.Ltmp1265:
	.cfi_offset 15, 0
	std r5, r4, sp[3]
.Ltmp1266:
	.cfi_offset 4, -32
.Ltmp1267:
	.cfi_offset 5, -28
	std r7, r6, sp[4]
.Ltmp1268:
	.cfi_offset 6, -24
.Ltmp1269:
	.cfi_offset 7, -20
	std r9, r8, sp[5]
.Ltmp1270:
	.cfi_offset 8, -16
.Ltmp1271:
	.cfi_offset 9, -12
.Ltmp1272:
	.cfi_offset 10, -8
.Ltmp1273:
	{
		mov r4, r0
		stw r10, sp[12]
	}
.Ltmp1274:
	.loc	3 1467 11 prologue_end
	ldaw r5, r4[8]
	{
		mkmsk r8, 8
		ldc r2, 4
	}
.Ltmp1275:
	.loc	3 1456 5
	{
		ldc r9, 0
		nop
	}
	ldc r7, 229
	{
		mkmsk r6, 16
		mov r10, r8
	}
	{
		nop
		stw r8, sp[5]
	}
	bu .LBB22_1
.LBB22_2:
.Ltmp1276:
	{
		nop
		ldw r0, r4[0]
	}
	.loc	3 1453 11
	bl move_window
.Ltmp1277:
	bt r0, .LBB22_31
.Ltmp1278:
	{
		nop
		ldw r0, r4[5]
	}
	{
		nop
		ld8u r1, r0[r9]
	}
	.loc	3 1456 5
	{
		eq r2, r1, r7
		nop
	}
	.loc	3 1457 9
.Ltmp1279:
	bf r2, .LBB22_5
.Ltmp1280:
	{
		mov r10, r8
		nop
	}
.Ltmp1281:
.LBB22_30:
	.loc	3 1481 11
	{
		mov r0, r4
		mov r1, r9
	}
	bl dir_next
.Ltmp1282:
	{
		mov r2, r9
		nop
	}
	bf r0, .LBB22_1
	bu .LBB22_31
.Ltmp1283:
.LBB22_5:
	bf r1, .LBB22_6
.Ltmp1284:
	{
		ldc r2, 11
		nop
	}
	.loc	3 1459 5
	{
		ldc r3, 8
		ld8u r2, r0[r2]
	}
	.loc	3 1460 9
.Ltmp1285:
	{
		and r3, r2, r3
		zext r2, 6
	}
	bf r3, .LBB22_10
.Ltmp1286:
	{
		mkmsk r3, 4
		nop
	}
	{
		eq r3, r2, r3
		nop
	}
	bt r3, .LBB22_10
.Ltmp1287:
	{
		mov r10, r8
		nop
	}
	bu .LBB22_30
.Ltmp1288:
.LBB22_10:
	{
		mkmsk r3, 4
		nop
	}
	.loc	3 1463 11
.Ltmp1289:
	{
		eq r2, r2, r3
		nop
	}
	bf r2, .LBB22_32
.Ltmp1290:
	ldc r2, 64
	.loc	3 1464 13
.Ltmp1291:
	{
		and r2, r1, r2
		nop
	}
	.loc	3 1464 13
	bf r2, .LBB22_13
.Ltmp1292:
	{
		ldc r2, 13
		nop
	}
	{
		mov r3, r2
		nop
	}
	.loc	3 1465 11
.Ltmp1293:
	{
		add r2, r0, r3
		ld8u r3, r0[r3]
	}
	ldc r11, 191
	.loc	3 1466 11
	{
		and r10, r1, r11
		add r1, r4, 6
	}
	{
		nop
		ld16s r1, r1[r9]
	}
	.loc	3 1467 11
	st16 r1, r5[r9]
	bu .LBB22_16
.Ltmp1294:
.LBB22_13:
	.loc	3 1470 9
	{
		zext r10, 8
		nop
	}
	.loc	3 1470 9
	{
		eq r1, r1, r10
		nop
	}
	bf r1, .LBB22_14
.Ltmp1295:
	{
		ldc r1, 13
		nop
	}
	.loc	3 1470 9
	{
		add r2, r0, r1
		ldw r3, sp[5]
	}
.Ltmp1296:
.LBB22_16:
	.loc	3 1470 9
	{
		mov r2, r3
		ld8u r1, r2[r9]
	}
	.loc	3 1470 9
	{
		zext r2, 8
		nop
	}
	.loc	3 1470 9
	{
		eq r1, r2, r1
		nop
	}
	bf r1, .LBB22_17
.Ltmp1297:
	{
		nop
		stw r3, sp[5]
	}
	{
		nop
		stw r5, sp[3]
	}
	{
		nop
		ldw r1, r4[7]
	}
.Ltmp1298:
	{
		nop
		stw r1, sp[4]
	}
	{
		nop
		ld8u r2, r0[r9]
	}
	.loc	3 1252 3
.Ltmp1299:
	{
		zext r2, 6
		ldc r3, 13
	}
	.loc	3 1252 3
	mul r2, r2, r3
	ldw r3, cp[.LCPI22_0]
.Ltmp1300:
	.loc	3 1252 3
	{
		add r2, r2, r3
		mov r3, r9
	}
.Ltmp1301:
	{
		mkmsk r5, 1
		nop
	}
.Ltmp1302:
.LBB22_19:
	ldaw r11, cp[LfnOfs]
	{
		nop
		ld8u r11, r11[r3]
	}
	.loc	3 1256 5
.Ltmp1303:
	{
		add r6, r0, r11
		mkmsk r1, 1
	}
	{
		nop
		ld8u r6, r6[r1]
	}
	.loc	3 1256 5
	{
		shl r6, r6, 8
		ld8u r11, r0[r11]
	}
	.loc	3 1256 5
	{
		or r11, r6, r11
		zext r5, 16
	}
	.loc	3 1257 9
.Ltmp1304:
	bf r5, .LBB22_22
.Ltmp1305:
	ldc r1, 254
	.loc	3 1258 11
.Ltmp1306:
	{
		lsu r5, r1, r2
		nop
	}
	.loc	3 1258 11
	bt r5, .LBB22_21
.Ltmp1307:
	.loc	3 1259 7
	{
		add r5, r2, 1
		ldw r1, sp[4]
	}
.Ltmp1308:
	.loc	3 1259 7
	st16 r11, r1[r2]
.Ltmp1309:
	.loc	3 1470 55
	{
		mov r2, r5
		mov r5, r11
	}
.Ltmp1310:
	bu .LBB22_24
.Ltmp1311:
.LBB22_22:
	{
		mkmsk r5, 16
		nop
	}
	.loc	3 1261 11
.Ltmp1312:
	{
		eq r11, r11, r5
		mov r5, r9
	}
	bf r11, .LBB22_21
.Ltmp1313:
.LBB22_24:
	.loc	3 1263 3
	{
		add r3, r3, 1
		ldc r11, 13
	}
.Ltmp1314:
	.loc	3 1263 3
	{
		lsu r11, r3, r11
		nop
	}
	bt r11, .LBB22_19
.Ltmp1315:
	{
		nop
		ld8u r0, r0[r9]
	}
	ldc r3, 64
	.loc	3 1265 7
.Ltmp1316:
	{
		and r0, r0, r3
		ldw r5, sp[3]
	}
	{
		mkmsk r6, 16
		nop
	}
	bf r0, .LBB22_29
.Ltmp1317:
	ldc r0, 254
	.loc	3 1266 9
.Ltmp1318:
	{
		lsu r0, r0, r2
		nop
	}
	.loc	3 1266 9
	bf r0, .LBB22_28
.Ltmp1319:
	{
		mov r10, r8
		nop
	}
	bu .LBB22_30
.Ltmp1320:
.LBB22_17:
	{
		mov r10, r8
		stw r3, sp[5]
	}
	bu .LBB22_30
.Ltmp1321:
.LBB22_21:
	{
		mov r10, r8
		ldw r5, sp[3]
	}
	{
		mkmsk r6, 16
		nop
	}
	bu .LBB22_30
.Ltmp1322:
.LBB22_14:
	{
		mov r10, r8
		nop
	}
	bu .LBB22_30
.Ltmp1323:
.LBB22_28:
	{
		nop
		ldw r0, sp[4]
	}
	.loc	3 1267 5
	st16 r9, r0[r2]
.Ltmp1324:
.LBB22_29:
	.loc	3 1470 55
	{
		add r10, r10, r8
		nop
	}
	bu .LBB22_30
.Ltmp1325:
.LBB22_1:
	{
		nop
		ldw r1, r4[4]
	}
	.loc	3 1452 3
	bt r1, .LBB22_2
.Ltmp1326:
	{
		mov r0, r2
		nop
	}
	bt r2, .LBB22_31
	bu .LBB22_39
.Ltmp1327:
.LBB22_6:
	{
		ldc r0, 4
		nop
	}
.Ltmp1328:
.LBB22_31:
	{
		ldc r1, 0
		nop
	}
	{
		nop
		stw r1, r4[4]
	}
.Ltmp1329:
.LBB22_40:
	{
		nop
		ldw r10, sp[12]
	}
	.loc	3 1487 3
	ldd r9, r8, sp[5]
	ldd r7, r6, sp[4]
	ldd r5, r4, sp[3]
	{
		nop
		retsp 14
	}
	# RETURN_REG_HOLDER
.LBB22_32:
.Ltmp1330:
	.loc	3 1472 13
	{
		zext r10, 8
		nop
	}
	bt r10, .LBB22_37
	{
		ldc r2, 0
		mkmsk r3, 1
	}
	bu .LBB22_34
.LBB22_35:
.Ltmp1331:
	.loc	3 1367 6
	{
		zext r2, 8
		ld8u r1, r0[r3]
	}
	.loc	3 1367 6
	{
		add r3, r3, 1
		nop
	}
.Ltmp1332:
.LBB22_34:
	.loc	3 1367 6
	{
		shr r11, r2, 1
		shl r2, r2, 7
	}
	.loc	3 1367 6
	{
		or r2, r11, r2
		zext r1, 8
	}
	.loc	3 1367 6
	{
		add r2, r2, r1
		eq r1, r3, 11
	}
.xtaloop 11
	# LOOPMARKER 0
	.loc	3 1367 6
	bf r1, .LBB22_35
	.loc	3 1367 6
	{
		zext r2, 8
		ldw r0, sp[5]
	}
.Ltmp1333:
	.loc	3 1472 27
	{
		zext r0, 8
		nop
	}
	{
		eq r0, r0, r2
		nop
	}
	bf r0, .LBB22_37
.LBB22_39:
.Ltmp1334:
	{
		ldc r0, 0
		nop
	}
	bu .LBB22_40
.LBB22_37:
.Ltmp1335:
	.loc	3 1473 11
	{
		ldc r0, 0
		nop
	}
	st16 r6, r5[r0]
	bu .LBB22_40
.Ltmp1336:
	.cc_bottom dir_read.function
	.set	dir_read.nstackwords,((move_window.nstackwords $M dir_next.nstackwords) + 14)
	.set	dir_read.maxcores,dir_next.maxcores $M move_window.maxcores $M 1
	.set	dir_read.maxtimers,dir_next.maxtimers $M move_window.maxtimers $M 0
	.set	dir_read.maxchanends,dir_next.maxchanends $M move_window.maxchanends $M 0
.Ltmp1337:
	.size	dir_read, .Ltmp1337-dir_read
.Lfunc_end22:
	.cfi_endproc

	.align	4
	.type	dir_next,@function
	.cc_top dir_next.function,dir_next
dir_next:
.Lfunc_begin23:
	.loc	3 1144 0
	.cfi_startproc
	.issue_mode dual
	{
		nop
		dualentsp 14
	}
.Ltmp1338:
	.cfi_def_cfa_offset 56
.Ltmp1339:
	.cfi_offset 15, 0
	std r5, r4, sp[3]
.Ltmp1340:
	.cfi_offset 4, -32
.Ltmp1341:
	.cfi_offset 5, -28
	std r7, r6, sp[4]
.Ltmp1342:
	.cfi_offset 6, -24
.Ltmp1343:
	.cfi_offset 7, -20
	std r9, r8, sp[5]
.Ltmp1344:
	.cfi_offset 8, -16
.Ltmp1345:
	.cfi_offset 9, -12
.Ltmp1346:
	.cfi_offset 10, -8
.Ltmp1347:
	{
		mov r7, r1
		stw r10, sp[12]
	}
.Ltmp1348:
	{
		mov r4, r0
		nop
	}
.Ltmp1349:
	.loc	3 1150 3 prologue_end
	{
		add r10, r4, 6
		ldc r11, 0
	}
	{
		nop
		ld16s r0, r10[r11]
	}
	.loc	3 1150 3
	{
		zext r0, 16
		nop
	}
	.loc	3 1150 3
	{
		add r5, r0, 1
		nop
	}
	.loc	3 1150 3
	{
		mov r0, r5
		nop
	}
	{
		zext r0, 16
		ldc r6, 4
	}
	.loc	3 1151 7
.Ltmp1350:
	bf r0, .LBB23_1
.Ltmp1351:
	{
		nop
		ldw r1, r4[4]
	}
	.loc	3 1151 7
	bf r1, .LBB23_3
.Ltmp1352:
	.loc	3 1154 7
	{
		mov r9, r5
		nop
	}
	{
		zext r9, 4
		nop
	}
	.loc	3 1154 7
	bf r9, .LBB23_6
.Ltmp1353:
	{
		nop
		ldw r3, r4[0]
	}
	bu .LBB23_42
.Ltmp1354:
.LBB23_1:
	{
		mov r8, r6
		nop
	}
	bu .LBB23_43
.LBB23_3:
	{
		mov r8, r6
		nop
	}
	bu .LBB23_43
.LBB23_6:
.Ltmp1355:
	.loc	3 1155 5
	{
		add r1, r1, 1
		nop
	}
	{
		nop
		stw r1, r4[4]
	}
	{
		nop
		ldw r1, r4[3]
	}
	.loc	3 1157 9
.Ltmp1356:
	bf r1, .LBB23_7
.Ltmp1357:
	{
		shr r0, r0, 4
		stw r9, sp[5]
	}
	.loc	3 1162 11
.Ltmp1358:
	{
		ldc r8, 2
		ldw r9, r4[0]
	}
	{
		nop
		ld8u r2, r9[r8]
	}
	ldc r3, 4095
	.loc	3 1162 11
	{
		add r2, r2, r3
		nop
	}
	.loc	3 1162 11
	{
		and r0, r2, r0
		nop
	}
	.loc	3 1162 11
	bf r0, .LBB23_10
.Ltmp1359:
	{
		mov r3, r9
		ldw r9, sp[5]
	}
	bu .LBB23_42
.Ltmp1360:
.LBB23_7:
	{
		nop
		ldw r3, r4[0]
	}
	.loc	3 1158 11
.Ltmp1361:
	{
		add r1, r3, 8
		ldc r2, 0
	}
	{
		nop
		ld16s r1, r1[r2]
	}
	.loc	3 1158 11
	{
		zext r1, 16
		nop
	}
	.loc	3 1158 11
	{
		lsu r0, r0, r1
		mov r8, r6
	}
	bt r0, .LBB23_42
	bu .LBB23_43
.Ltmp1362:
.LBB23_10:
	.loc	3 1163 16
	{
		mov r0, r9
		nop
	}
	bl get_fat
.Ltmp1363:
	.loc	3 1150 3
	{
		ldc r11, 0
		lsu r1, r0, r8
	}
	{
		nop
		ldw r9, sp[5]
	}
	bt r1, .LBB23_43
.Ltmp1364:
	{
		mkmsk r1, 32
		nop
	}
	.loc	3 1165 13
.Ltmp1365:
	{
		eq r1, r0, r1
		nop
	}
	.loc	3 1165 13
	bt r1, .LBB23_12
.Ltmp1366:
	{
		nop
		ldw r3, r4[0]
	}
	{
		nop
		ldw r8, r3[7]
	}
	.loc	3 1166 13
.Ltmp1367:
	{
		lsu r1, r0, r8
		nop
	}
	bt r1, .LBB23_38
.Ltmp1368:
	{
		mov r8, r6
		nop
	}
	bf r7, .LBB23_43
.Ltmp1369:
	.loc	3 1170 18
	{
		mov r0, r3
		ldw r1, r4[3]
	}
	.loc	3 1170 18
	bl create_chain
.Ltmp1370:
	.loc	3 1171 15
	{
		add r2, r0, 1
		mkmsk r1, 2
	}
	.loc	3 1171 15
	{
		lsu r1, r2, r1
		nop
	}
	.loc	3 1171 15
	bf r1, .LBB23_16
.Ltmp1371:
	.loc	3 1171 15
	ldaw r11, cp[.Lswitch.table]
	{
		nop
		ldw r0, r11[r2]
	}
	bu .LBB23_44
.Ltmp1372:
.LBB23_12:
	{
		mkmsk r8, 1
		nop
	}
	bu .LBB23_43
.LBB23_16:
.Ltmp1373:
	{
		nop
		stw r0, sp[2]
	}
.Ltmp1374:
	.loc	3 1175 15
	{
		ldc r0, 48
		ldw r2, r4[0]
	}
.Ltmp1375:
	.loc	3 754 3
	{
		add r0, r2, r0
		nop
	}
	{
		nop
		ldw r7, r0[0]
	}
.Ltmp1376:
	bf r7, .LBB23_23
.Ltmp1377:
	{
		ldc r0, 4
		nop
	}
	{
		nop
		ld8u r0, r2[r0]
	}
	bf r0, .LBB23_23
.Ltmp1378:
	{
		ldc r0, 52
		nop
	}
	.loc	3 758 11
.Ltmp1379:
	{
		add r1, r2, r0
		nop
	}
	{
		mkmsk r8, 1
		stw r1, sp[4]
	}
.Ltmp1380:
	.loc	3 758 11
	{
		mov r6, r2
		ld8u r0, r2[r8]
	}
.Ltmp1381:
	{
		mov r2, r7
		mov r3, r8
	}
	bl disk_write
.Ltmp1382:
	bt r0, .LBB23_43
.Ltmp1383:
	{
		ldc r0, 0
		ldc r1, 4
	}
	.loc	3 760 7
	st8 r0, r6[r1]
	{
		nop
		ldw r1, r6[9]
	}
	{
		nop
		ldw r0, r6[8]
	}
	.loc	3 761 11
.Ltmp1384:
	{
		add r1, r0, r1
		nop
	}
.Ltmp1385:
	.loc	3 761 11
	{
		lsu r1, r7, r1
		mov r2, r6
	}
.Ltmp1386:
	bf r1, .LBB23_23
.Ltmp1387:
	{
		mkmsk r1, 2
		nop
	}
	.loc	3 763 14
.Ltmp1388:
	{
		ldc r1, 2
		ld8u r8, r2[r1]
	}
	{
		lsu r1, r8, r1
		nop
	}
	bt r1, .LBB23_23
.Ltmp1389:
	.loc	3 764 11
	{
		add r7, r7, r0
		mkmsk r3, 1
	}
.Ltmp1390:
	{
		nop
		ld8u r0, r2[r3]
	}
	{
		nop
		ldw r1, sp[4]
	}
.Ltmp1391:
	{
		mov r2, r7
		stw r2, sp[3]
	}
	{
		mov r6, r3
		nop
	}
	.loc	3 765 11
	bl disk_write
.Ltmp1392:
	{
		sub r8, r8, 1
		ldw r1, sp[3]
	}
.Ltmp1393:
	.loc	3 763 39
	{
		mov r0, r8
		nop
	}
	{
		zext r0, 8
		ldc r2, 2
	}
	.loc	3 763 9
	{
		lsu r0, r0, r2
		nop
	}
	bt r0, .LBB23_23
.Ltmp1394:
.LBB23_22:
	{
		nop
		ldw r0, r1[8]
	}
	.loc	3 764 11
.Ltmp1395:
	{
		add r7, r7, r0
		ld8u r0, r1[r6]
	}
.Ltmp1396:
	.loc	3 765 11
	{
		mov r2, r7
		ldw r1, sp[4]
	}
	{
		mov r3, r6
		nop
	}
	bl disk_write
	{
		sub r8, r8, 1
		ldw r1, sp[3]
	}
.Ltmp1397:
	.loc	3 763 39
	{
		mov r0, r8
		nop
	}
	{
		zext r0, 8
		nop
	}
	.loc	3 763 9
	{
		lsu r0, r6, r0
		nop
	}
	bt r0, .LBB23_22
.Ltmp1398:
.LBB23_23:
	.loc	3 1176 11
	{
		ldc r1, 52
		ldw r0, r4[0]
	}
.Ltmp1399:
	.loc	3 1176 11
	{
		add r0, r0, r1
		ldc r7, 0
	}
.Ltmp1400:
	ldc r2, 512
	.loc	3 577 5
.Ltmp1401:
	{
		mov r1, r7
		nop
	}
	bl memset
	{
		nop
		ldw r6, r4[0]
	}
.Ltmp1402:
	{
		nop
		ldw r0, sp[2]
	}
.Ltmp1403:
	.loc	3 833 3
	{
		sub r2, r0, 2
		ldw r8, r6[7]
	}
.Ltmp1404:
	.loc	3 834 7
	{
		sub r3, r8, 2
		ldc r0, 2
	}
.Ltmp1405:
	.loc	3 835 3
	{
		lsu r3, r2, r3
		ld8u r1, r6[r0]
	}
	bf r3, .LBB23_25
.Ltmp1406:
	.loc	3 835 3
	mul r2, r1, r2
.Ltmp1407:
	{
		nop
		ldw r3, r6[11]
	}
	.loc	3 835 3
	{
		add r7, r2, r3
		nop
	}
.Ltmp1408:
.LBB23_25:
	{
		ldc r0, 48
		nop
	}
	.loc	3 1177 29
	{
		add r2, r6, r0
		nop
	}
.Ltmp1409:
	.loc	3 1177 29
	{
		ldc r11, 0
		stw r7, r2[0]
	}
	{
		mov r3, r6
		nop
	}
	.loc	3 1178 11
.Ltmp1410:
	bf r1, .LBB23_26
.Ltmp1411:
	{
		mkmsk r0, 1
		nop
	}
	{
		mkmsk r8, 1
		stw r0, sp[3]
	}
	bu .LBB23_28
.Ltmp1412:
.LBB23_35:
	.loc	3 1178 11
	{
		add r2, r2, 1
		nop
	}
	{
		nop
		stw r2, sp[3]
	}
.Ltmp1413:
.LBB23_28:
	{
		ldc r0, 4
		nop
	}
	.loc	3 1179 13
.Ltmp1414:
	st8 r8, r3[r0]
.Ltmp1415:
	bf r7, .LBB23_34
.Ltmp1416:
	{
		ldc r0, 52
		nop
	}
	.loc	3 758 11
.Ltmp1417:
	{
		add r9, r3, r0
		ld8u r0, r3[r8]
	}
	.loc	3 758 11
	{
		mov r1, r9
		mov r2, r7
	}
.Ltmp1418:
	{
		mov r6, r3
		mov r3, r8
	}
.Ltmp1419:
	bl disk_write
	bt r0, .LBB23_43
.Ltmp1420:
	{
		ldc r0, 4
		ldc r1, 0
	}
	.loc	3 760 7
	st8 r1, r6[r0]
	{
		nop
		ldw r1, r6[9]
	}
	{
		nop
		ldw r0, r6[8]
	}
	.loc	3 761 11
.Ltmp1421:
	{
		add r1, r0, r1
		nop
	}
.Ltmp1422:
	.loc	3 761 11
	{
		lsu r1, r7, r1
		mov r3, r6
	}
.Ltmp1423:
	bf r1, .LBB23_34
.Ltmp1424:
	{
		mkmsk r1, 2
		nop
	}
	.loc	3 763 14
.Ltmp1425:
	{
		ldc r1, 2
		ld8u r6, r3[r1]
	}
	{
		lsu r1, r6, r1
		nop
	}
	bt r1, .LBB23_34
.Ltmp1426:
	.loc	3 764 11
	{
		add r7, r7, r0
		ld8u r0, r3[r8]
	}
.Ltmp1427:
	.loc	3 765 11
	{
		mov r1, r9
		mov r2, r7
	}
.Ltmp1428:
	{
		mov r9, r3
		stw r9, sp[4]
	}
.Ltmp1429:
	{
		mov r3, r8
		nop
	}
	bl disk_write
.Ltmp1430:
	{
		mov r3, r9
		ldw r2, sp[4]
	}
.Ltmp1431:
	.loc	3 763 39
	{
		sub r6, r6, 1
		nop
	}
	{
		mov r0, r6
		nop
	}
	{
		zext r0, 8
		ldc r1, 2
	}
	.loc	3 763 9
	{
		lsu r0, r0, r1
		nop
	}
	bt r0, .LBB23_34
.Ltmp1432:
.LBB23_33:
	{
		nop
		ldw r0, r3[8]
	}
	.loc	3 764 11
.Ltmp1433:
	{
		add r7, r7, r0
		ld8u r0, r3[r8]
	}
.Ltmp1434:
	.loc	3 765 11
	{
		mov r1, r2
		mov r2, r7
	}
.Ltmp1435:
	{
		mov r9, r3
		mov r3, r8
	}
.Ltmp1436:
	bl disk_write
.Ltmp1437:
	{
		mov r3, r9
		ldw r2, sp[4]
	}
.Ltmp1438:
	.loc	3 763 39
	{
		sub r6, r6, 1
		nop
	}
	{
		mov r0, r6
		nop
	}
	{
		zext r0, 8
		nop
	}
	.loc	3 763 9
	{
		lsu r0, r8, r0
		nop
	}
	bt r0, .LBB23_33
.Ltmp1439:
.LBB23_34:
	.loc	3 1181 13
	{
		ldc r0, 48
		ldw r3, r4[0]
	}
	.loc	3 1181 13
	{
		add r0, r3, r0
		nop
	}
	{
		nop
		ldw r1, r0[0]
	}
	.loc	3 1181 13
	{
		add r7, r1, 1
		nop
	}
	.loc	3 1181 13
	{
		ldc r0, 2
		stw r7, r0[0]
	}
	{
		nop
		ld8u r0, r3[r0]
	}
	{
		nop
		ldw r2, sp[3]
	}
.Ltmp1440:
	.loc	3 1178 11
	{
		mov r1, r2
		nop
	}
	{
		zext r1, 8
		nop
	}
	.loc	3 1178 11
	{
		lsu r0, r1, r0
		nop
	}
	bt r0, .LBB23_35
.Ltmp1441:
	.loc	3 834 7
	{
		ldc r11, 0
		ldw r8, r3[7]
	}
	{
		nop
		ldw r9, sp[5]
	}
	bu .LBB23_37
.Ltmp1442:
.LBB23_26:
	{
		ldc r2, 0
		nop
	}
.Ltmp1443:
.LBB23_37:
	.loc	3 1178 11
	{
		zext r2, 8
		ldc r0, 48
	}
.Ltmp1444:
	.loc	3 1183 11
	{
		add r1, r3, r0
		sub r2, r7, r2
	}
	{
		nop
		stw r2, r1[0]
	}
	{
		nop
		ldw r0, sp[2]
	}
.Ltmp1445:
.LBB23_38:
	.loc	3 1188 9
	{
		sub r1, r0, 2
		stw r0, r4[3]
	}
.Ltmp1446:
	.loc	3 834 7
	{
		sub r0, r8, 2
		nop
	}
	.loc	3 834 7
	{
		lsu r0, r1, r0
		nop
	}
	bf r0, .LBB23_39
.Ltmp1447:
	{
		ldc r0, 2
		nop
	}
	{
		nop
		ld8u r0, r3[r0]
	}
	.loc	3 835 3
	mul r0, r0, r1
	{
		nop
		ldw r1, r3[11]
	}
.Ltmp1448:
	.loc	3 835 3
	{
		add r0, r0, r1
		nop
	}
	bu .LBB23_41
.Ltmp1449:
.LBB23_39:
	{
		ldc r0, 0
		nop
	}
.Ltmp1450:
.LBB23_41:
	{
		nop
		stw r0, r4[4]
	}
.Ltmp1451:
.LBB23_42:
	.loc	3 1194 3
	st16 r5, r10[r11]
	.loc	3 1195 3
	{
		shl r0, r9, 5
		nop
	}
	.loc	3 1195 3
	{
		add r0, r3, r0
		ldc r1, 52
	}
	{
		add r0, r0, r1
		nop
	}
	.loc	3 1195 3
	{
		mov r8, r11
		stw r0, r4[5]
	}
.Ltmp1452:
.LBB23_43:
	.loc	3 1198 1
	{
		mov r0, r8
		nop
	}
.LBB23_44:
	{
		nop
		ldw r10, sp[12]
	}
	ldd r9, r8, sp[5]
	ldd r7, r6, sp[4]
	ldd r5, r4, sp[3]
	{
		nop
		retsp 14
	}
	# RETURN_REG_HOLDER
.Ltmp1453:
	.cc_bottom dir_next.function
	.set	dir_next.nstackwords,((get_fat.nstackwords $M create_chain.nstackwords $M memset.nstackwords $M disk_write.nstackwords) + 14)
	.set	dir_next.maxcores,create_chain.maxcores $M disk_write.maxcores $M get_fat.maxcores $M 1
	.set	dir_next.maxtimers,create_chain.maxtimers $M disk_write.maxtimers $M get_fat.maxtimers $M 0
	.set	dir_next.maxchanends,create_chain.maxchanends $M disk_write.maxchanends $M get_fat.maxchanends $M 0
.Ltmp1454:
	.size	dir_next, .Ltmp1454-dir_next
.Lfunc_end23:
	.cfi_endproc

	.section	.cp.rodata.cst4,"aMc",@progbits,4
	.cc_top .LCPI24_0.data,.LCPI24_0
	.align	4
	.type	.LCPI24_0,@object
	.size	.LCPI24_0, 4
.LCPI24_0:
	.long	4294967231
	.cc_bottom .LCPI24_0.data
	.text
	.align	4
	.type	get_fileinfo,@function
	.cc_top get_fileinfo.function,get_fileinfo
get_fileinfo:
.Lfunc_begin24:
	.loc	3 1868 0
	.cfi_startproc
	.issue_mode dual
	{
		nop
		dualentsp 10
	}
.Ltmp1455:
	.cfi_def_cfa_offset 40
.Ltmp1456:
	.cfi_offset 15, 0
	std r5, r4, sp[1]
.Ltmp1457:
	.cfi_offset 4, -32
.Ltmp1458:
	.cfi_offset 5, -28
	std r7, r6, sp[2]
.Ltmp1459:
	.cfi_offset 6, -24
.Ltmp1460:
	.cfi_offset 7, -20
	std r9, r8, sp[3]
.Ltmp1461:
	.cfi_offset 8, -16
.Ltmp1462:
	.cfi_offset 9, -12
	{
		nop
		stw r10, sp[8]
	}
.Ltmp1463:
	.cfi_offset 10, -8
	{
		nop
		ldw r2, r0[4]
	}
	.loc	3 1875 7 prologue_end
.Ltmp1464:
	bf r2, .LBB24_1
.Ltmp1465:
	{
		nop
		ldw r2, r0[5]
	}
.Ltmp1466:
	{
		ldc r3, 12
		stw r0, sp[1]
	}
.Ltmp1467:
	.loc	3 1877 5
	{
		ldc r3, 8
		ld8u r11, r2[r3]
	}
	{
		add r5, r1, 9
		and r4, r11, r3
	}
	bf r4, .LBB24_10
.Ltmp1468:
	{
		ldc r4, 0
		nop
	}
	ldc r8, 229
	{
		ldc r7, 32
		nop
	}
	ldw r0, cp[.LCPI24_0]
	bu .LBB24_4
.LBB24_5:
.Ltmp1469:
	{
		eq r6, r10, r7
		nop
	}
	bt r6, .LBB24_15
.Ltmp1470:
	{
		add r6, r10, r0
		nop
	}
	{
		zext r6, 8
		ldc r9, 25
	}
	.loc	3 1882 11
.Ltmp1471:
	{
		lsu r6, r9, r6
		nop
	}
	bt r6, .LBB24_7
.Ltmp1472:
	.loc	3 1882 53
	ldaw r6, r10[8]
	bu .LBB24_9
.Ltmp1473:
.LBB24_7:
	{
		mov r6, r10
		nop
	}
	bu .LBB24_9
.Ltmp1474:
.LBB24_4:
	{
		nop
		ld8u r10, r2[r4]
	}
	.loc	3 1879 7
	{
		eq r9, r10, 5
		mov r6, r8
	}
	bf r9, .LBB24_5
.Ltmp1475:
.LBB24_9:
	.loc	3 1889 7
	st8 r6, r5[r4]
.Ltmp1476:
	.loc	3 1878 24
	{
		add r4, r4, 1
		nop
	}
.Ltmp1477:
	.loc	3 1878 5
	{
		lsu r6, r4, r3
		nop
	}
	bt r6, .LBB24_4
	bu .LBB24_15
.Ltmp1478:
.LBB24_1:
	.loc	3 1874 3
	{
		add r11, r1, 9
		nop
	}
.Ltmp1479:
	bu .LBB24_29
.Ltmp1480:
.LBB24_10:
	{
		ldc r4, 0
		ldc r6, 32
	}
	ldc r7, 229
	{
		ldc r8, 8
		nop
	}
.LBB24_11:
.Ltmp1481:
	{
		nop
		ld8u r9, r2[r4]
	}
	.loc	3 1879 7
.Ltmp1482:
	{
		eq r10, r9, r6
		nop
	}
	bt r10, .LBB24_15
.Ltmp1483:
	{
		eq r10, r9, 5
		nop
	}
	bf r10, .LBB24_14
.Ltmp1484:
	{
		mov r9, r7
		nop
	}
.Ltmp1485:
.LBB24_14:
	.loc	3 1889 7
	st8 r9, r5[r4]
.Ltmp1486:
	.loc	3 1878 24
	{
		add r4, r4, 1
		nop
	}
.Ltmp1487:
	.loc	3 1878 5
	{
		lsu r9, r4, r8
		nop
	}
	bt r9, .LBB24_11
.Ltmp1488:
.LBB24_15:
	{
		add r4, r1, r4
		nop
	}
	{
		add r4, r4, 9
		ld8u r6, r2[r3]
	}
	{
		ldc r5, 32
		nop
	}
	.loc	3 1891 9
.Ltmp1489:
	{
		eq r6, r6, r5
		nop
	}
	.loc	3 1891 9
	bf r6, .LBB24_17
.Ltmp1490:
	{
		mov r11, r4
		nop
	}
	bu .LBB24_28
.Ltmp1491:
.LBB24_17:
	.loc	3 1892 7
	{
		ldc r6, 0
		ldc r7, 46
	}
	st8 r7, r4[r6]
.Ltmp1492:
	.loc	3 1892 7
	{
		add r7, r4, 1
		ldc r8, 16
	}
	.loc	3 1896 13
.Ltmp1493:
	{
		and r11, r11, r8
		nop
	}
	bf r11, .LBB24_18
.Ltmp1494:
	ldw r0, cp[.LCPI24_0]
	{
		ldc r9, 25
		ldc r10, 11
	}
.Ltmp1495:
.LBB24_22:
	{
		nop
		ld8u r11, r2[r3]
	}
	.loc	3 1894 9
	{
		eq r8, r11, r5
		nop
	}
	.loc	3 1895 13
.Ltmp1496:
	bt r8, .LBB24_23
.Ltmp1497:
	.loc	3 1896 13
	{
		add r8, r11, r0
		nop
	}
	{
		zext r8, 8
		nop
	}
	.loc	3 1896 13
	{
		lsu r8, r9, r8
		nop
	}
	bt r8, .LBB24_26
.Ltmp1498:
	.loc	3 1896 54
	ldaw r11, r11[8]
.Ltmp1499:
.LBB24_26:
	.loc	3 1903 9
	st8 r11, r7[r6]
.Ltmp1500:
	.loc	3 1893 27
	{
		add r3, r3, 1
		add r11, r4, 2
	}
.Ltmp1501:
	.loc	3 1893 7
	{
		lsu r8, r3, r10
		mov r4, r7
	}
	{
		mov r7, r11
		nop
	}
	bt r8, .LBB24_22
	bu .LBB24_28
.Ltmp1502:
.LBB24_18:
	{
		ldc r8, 11
		nop
	}
.Ltmp1503:
.LBB24_19:
	{
		nop
		ld8u r11, r2[r3]
	}
	.loc	3 1894 9
.Ltmp1504:
	{
		eq r0, r11, r5
		nop
	}
	bt r0, .LBB24_20
.Ltmp1505:
	.loc	3 1903 9
	st8 r11, r7[r6]
.Ltmp1506:
	.loc	3 1893 27
	{
		add r3, r3, 1
		add r11, r4, 2
	}
.Ltmp1507:
	.loc	3 1893 7
	{
		lsu r0, r3, r8
		mov r4, r7
	}
	{
		mov r7, r11
		nop
	}
	bt r0, .LBB24_19
	bu .LBB24_28
.Ltmp1508:
.LBB24_23:
	{
		mov r11, r7
		nop
	}
	bu .LBB24_28
.Ltmp1509:
.LBB24_20:
	{
		mov r11, r7
		nop
	}
.Ltmp1510:
.LBB24_28:
	{
		ldc r0, 11
		nop
	}
	.loc	3 1906 5
	{
		ldc r3, 8
		ld8u r0, r2[r0]
	}
	.loc	3 1906 5
	st8 r0, r1[r3]
	{
		mkmsk r0, 5
		nop
	}
	{
		nop
		ld8u r0, r2[r0]
	}
	.loc	3 1907 5
	{
		shl r0, r0, 24
		ldc r3, 30
	}
	{
		nop
		ld8u r3, r2[r3]
	}
	.loc	3 1907 5
	{
		shl r3, r3, 16
		nop
	}
	.loc	3 1907 5
	{
		or r0, r3, r0
		ldc r3, 29
	}
	{
		nop
		ld8u r3, r2[r3]
	}
	.loc	3 1907 5
	{
		shl r3, r3, 8
		nop
	}
	.loc	3 1907 5
	{
		or r0, r0, r3
		ldc r3, 28
	}
	{
		nop
		ld8u r3, r2[r3]
	}
	.loc	3 1907 5
	{
		or r0, r0, r3
		nop
	}
	.loc	3 1907 5
	{
		ldc r0, 25
		stw r0, r1[0]
	}
	{
		nop
		ld8u r0, r2[r0]
	}
	.loc	3 1908 5
	{
		shl r0, r0, 8
		ldc r3, 24
	}
	{
		nop
		ld8u r3, r2[r3]
	}
	.loc	3 1908 5
	{
		or r0, r0, r3
		add r3, r1, 4
	}
	.loc	3 1909 5
	{
		ldc r4, 0
		nop
	}
	.loc	3 1908 5
	st16 r0, r3[r4]
	{
		ldc r0, 23
		nop
	}
	{
		nop
		ld8u r0, r2[r0]
	}
	.loc	3 1909 5
	{
		shl r0, r0, 8
		ldc r3, 22
	}
	{
		nop
		ld8u r2, r2[r3]
	}
.Ltmp1511:
	.loc	3 1909 5
	{
		or r0, r0, r2
		add r2, r1, 6
	}
	.loc	3 1909 5
	st16 r0, r2[r4]
	{
		nop
		ldw r0, sp[1]
	}
.Ltmp1512:
.LBB24_29:
	.loc	3 1911 3
	{
		ldc r2, 0
		nop
	}
	st8 r2, r11[r2]
	{
		nop
		ldw r3, r1[6]
	}
.Ltmp1513:
	bf r3, .LBB24_46
.Ltmp1514:
	{
		nop
		ldw r11, r1[7]
	}
	bf r11, .LBB24_46
.Ltmp1515:
	.loc	3 1919 9
	{
		mov r11, r2
		ldw r4, r0[4]
	}
	bf r4, .LBB24_45
.Ltmp1516:
	.loc	3 1919 9
	ldaw r4, r0[8]
	.loc	3 1919 9
	{
		ldc r11, 0
		nop
	}
	{
		nop
		ld16s r5, r4[r11]
	}
	{
		zext r5, 16
		mkmsk r4, 16
	}
	.loc	3 1919 9
	{
		eq r4, r5, r4
		nop
	}
	bt r4, .LBB24_45
.Ltmp1517:
	.loc	3 1920 7
	{
		ldc r11, 0
		ldw r0, r0[7]
	}
.Ltmp1518:
	{
		nop
		ld16s r7, r0[r11]
	}
	.loc	3 1921 7
	{
		zext r7, 16
		nop
	}
	bf r7, .LBB24_45
	{
		add r4, r0, 2
		ldc r0, 0
	}
	ldc r5, 65408
	ldc r6, 65280
	{
		mov r11, r0
		nop
	}
.LBB24_35:
	.loc	3 520 15
.Ltmp1519:
	{
		and r8, r7, r5
		nop
	}
	{
		shr r9, r8, 7
		mov r8, r0
	}
	bt r9, .LBB24_37
	.loc	3 522 21
.Ltmp1520:
	{
		mov r8, r7
		nop
	}
.LBB24_37:
	{
		mov r7, r8
		nop
	}
	{
		zext r7, 16
		nop
	}
.Ltmp1521:
	.loc	3 1924 13
	bf r7, .LBB24_38
.Ltmp1522:
	.loc	3 1925 13
	{
		and r7, r8, r6
		nop
	}
	.loc	3 1925 13
	{
		shr r7, r7, 8
		nop
	}
	bf r7, .LBB24_40
.Ltmp1523:
	.loc	3 1926 11
	{
		shr r9, r8, 8
		add r7, r11, 1
	}
.Ltmp1524:
	.loc	3 1926 11
	st8 r9, r3[r11]
	bu .LBB24_42
.Ltmp1525:
.LBB24_40:
	{
		mov r7, r11
		nop
	}
.LBB24_42:
	{
		nop
		ldw r11, r1[7]
	}
	.loc	3 1928 13
.Ltmp1526:
	{
		sub r11, r11, 1
		nop
	}
	.loc	3 1928 13
	{
		lsu r11, r7, r11
		nop
	}
	bf r11, .LBB24_43
.Ltmp1527:
	.loc	3 1929 9
	{
		add r11, r7, 1
		nop
	}
.Ltmp1528:
	.loc	3 1929 9
	st8 r8, r3[r7]
	{
		nop
		ld16s r7, r4[r0]
	}
.Ltmp1529:
	.loc	3 1921 7
	{
		zext r7, 16
		add r4, r4, 2
	}
	bt r7, .LBB24_35
	bu .LBB24_45
.Ltmp1530:
.LBB24_38:
	{
		mov r11, r0
		nop
	}
	bu .LBB24_45
.LBB24_43:
	{
		mov r11, r0
		nop
	}
.LBB24_45:
	.loc	3 1932 5
	st8 r2, r3[r11]
.Ltmp1531:
.LBB24_46:
	{
		nop
		ldw r10, sp[8]
	}
	.loc	3 1935 1
	ldd r9, r8, sp[3]
	ldd r7, r6, sp[2]
	ldd r5, r4, sp[1]
	{
		nop
		retsp 10
	}
	# RETURN_REG_HOLDER
.Ltmp1532:
	.cc_bottom get_fileinfo.function
	.set	get_fileinfo.nstackwords,10
	.set	get_fileinfo.maxcores,1
	.set	get_fileinfo.maxtimers,0
	.set	get_fileinfo.maxchanends,0
.Ltmp1533:
	.size	get_fileinfo, .Ltmp1533-get_fileinfo
.Lfunc_end24:
	.cfi_endproc

	.globl	f_lseek
	.align	4
	.type	f_lseek,@function
	.cc_top f_lseek.function,f_lseek
f_lseek:
.Lfunc_begin25:
	.loc	3 2836 0
	.cfi_startproc
	.issue_mode dual
	{
		nop
		dualentsp 10
	}
.Ltmp1534:
	.cfi_def_cfa_offset 40
.Ltmp1535:
	.cfi_offset 15, 0
	std r5, r4, sp[1]
.Ltmp1536:
	.cfi_offset 4, -32
.Ltmp1537:
	.cfi_offset 5, -28
	std r7, r6, sp[2]
.Ltmp1538:
	.cfi_offset 6, -24
.Ltmp1539:
	.cfi_offset 7, -20
	std r9, r8, sp[3]
.Ltmp1540:
	.cfi_offset 8, -16
.Ltmp1541:
	.cfi_offset 9, -12
.Ltmp1542:
	.cfi_offset 10, -8
.Ltmp1543:
	{
		mov r6, r1
		stw r10, sp[8]
	}
.Ltmp1544:
	{
		mov r4, r0
		nop
	}
.Ltmp1545:
	.loc	3 2840 9 prologue_end
	{
		ldc r5, 9
		ldw r0, r4[0]
	}
.Ltmp1546:
	bf r0, .LBB25_44
.Ltmp1547:
	.loc	3 2840 9
	{
		ldc r7, 0
		nop
	}
	{
		nop
		ld8u r1, r0[r7]
	}
	bf r1, .LBB25_44
.Ltmp1548:
	.loc	3 2840 9
	{
		add r1, r4, 4
		nop
	}
	.loc	3 2840 9
	{
		add r2, r0, 6
		ld16s r1, r1[r7]
	}
	{
		nop
		ld16s r2, r2[r7]
	}
	.loc	3 2205 7
.Ltmp1549:
	{
		zext r2, 16
		zext r1, 16
	}
	.loc	3 2205 7
	{
		eq r1, r2, r1
		nop
	}
	bf r1, .LBB25_44
.Ltmp1550:
	{
		mkmsk r9, 1
		nop
	}
	{
		nop
		ld8u r0, r0[r9]
	}
.Ltmp1551:
	.loc	3 2210 7
	bl disk_status
	.loc	3 2210 7
	{
		zext r0, 1
		nop
	}
	bf r0, .LBB25_5
.Ltmp1552:
	{
		mkmsk r5, 2
		nop
	}
	bu .LBB25_44
.LBB25_5:
.Ltmp1553:
	{
		ldc r8, 6
		nop
	}
	{
		nop
		ld8u r0, r4[r8]
	}
	.loc	3 2842 7
.Ltmp1554:
	{
		shr r1, r0, 7
		nop
	}
	bf r1, .LBB25_7
.Ltmp1555:
	{
		ldc r5, 2
		nop
	}
	bu .LBB25_44
.LBB25_7:
.Ltmp1556:
	{
		nop
		ldw r10, r4[3]
	}
.Ltmp1557:
	.loc	3 2906 9
	{
		lsu r1, r10, r6
		ldc r5, 2
	}
	{
		and r0, r0, r5
		nop
	}
	.loc	3 2906 9
	{
		eq r0, r0, 0
		nop
	}
	.loc	3 2906 9
	{
		and r0, r1, r0
		nop
	}
	bt r0, .LBB25_9
.Ltmp1558:
	.loc	3 2906 9
	{
		mov r10, r6
		nop
	}
.Ltmp1559:
.LBB25_9:
	{
		nop
		ldw r1, r4[2]
	}
.Ltmp1560:
	{
		nop
		stw r7, r4[2]
	}
	bf r10, .LBB25_43
.Ltmp1561:
	{
		nop
		ldw r0, r4[0]
	}
	.loc	3 2915 7
.Ltmp1562:
	{
		ldc r3, 9
		ld8u r2, r0[r5]
	}
	.loc	3 2915 7
	{
		shl r6, r2, r3
		nop
	}
.Ltmp1563:
	bf r1, .LBB25_13
.Ltmp1564:
	.loc	3 2916 11
	{
		sub r2, r10, 1
		nop
	}
	.loc	3 2916 11
	divu r2, r2, r6
	.loc	3 2916 11
	{
		sub r1, r1, 1
		nop
	}
.Ltmp1565:
	.loc	3 2916 11
	divu r3, r1, r6
	.loc	3 2916 11
	{
		lsu r2, r2, r3
		nop
	}
	bf r2, .LBB25_12
.Ltmp1566:
.LBB25_13:
	{
		nop
		ldw r1, r4[4]
	}
.Ltmp1567:
	bt r1, .LBB25_18
.Ltmp1568:
	{
		ldc r1, 0
		nop
	}
	.loc	3 2925 18
.Ltmp1569:
	bl create_chain
.Ltmp1570:
	{
		mov r1, r0
		mkmsk r0, 32
	}
.Ltmp1571:
	.loc	3 2926 15
	{
		eq r0, r1, r0
		nop
	}
	bt r0, .LBB25_28
.Ltmp1572:
	{
		eq r0, r1, 1
		nop
	}
	bt r0, .LBB25_16
.Ltmp1573:
	{
		nop
		stw r1, r4[4]
	}
.Ltmp1574:
.LBB25_18:
	{
		nop
		stw r1, r4[5]
	}
	bu .LBB25_19
.Ltmp1575:
.LBB25_12:
	.loc	3 2918 9
	{
		neg r0, r6
		nop
	}
	.loc	3 2918 9
	{
		and r0, r1, r0
		nop
	}
.Ltmp1576:
	.loc	3 2918 9
	{
		sub r10, r10, r0
		stw r0, r4[2]
	}
.Ltmp1577:
	{
		nop
		ldw r1, r4[5]
	}
.Ltmp1578:
.LBB25_19:
	.loc	3 2933 11
	bf r1, .LBB25_20
.Ltmp1579:
	.loc	3 2934 9
	{
		lsu r0, r6, r10
		nop
	}
	bf r0, .LBB25_32
.Ltmp1580:
	.loc	3 2937 20
	{
		ldc r5, 2
		ldw r0, r4[0]
	}
.Ltmp1581:
.LBB25_23:
	{
		nop
		ld8u r2, r4[r8]
	}
	.loc	3 2936 15
	{
		and r2, r2, r5
		nop
	}
	.loc	3 2936 15
	bf r2, .LBB25_26
.Ltmp1582:
	.loc	3 2937 20
	bl create_chain
	{
		mov r1, r0
		nop
	}
.Ltmp1583:
	bt r1, .LBB25_27
	bu .LBB25_25
.Ltmp1584:
.LBB25_26:
	.loc	3 2943 20
	bl get_fat
	{
		mov r1, r0
		nop
	}
.Ltmp1585:
.LBB25_27:
	{
		mkmsk r0, 32
		nop
	}
	.loc	3 2944 15
.Ltmp1586:
	{
		eq r0, r1, r0
		nop
	}
	bt r0, .LBB25_28
.Ltmp1587:
	.loc	3 2945 15
	{
		lsu r0, r1, r5
		nop
	}
	bt r0, .LBB25_16
.Ltmp1588:
	{
		nop
		ldw r0, r4[0]
	}
	{
		nop
		ldw r2, r0[7]
	}
	.loc	3 2945 15
	{
		lsu r2, r1, r2
		nop
	}
	bf r2, .LBB25_16
.Ltmp1589:
	{
		nop
		stw r1, r4[5]
	}
	{
		nop
		ldw r2, r4[2]
	}
	.loc	3 2947 11
	{
		add r2, r2, r6
		nop
	}
.Ltmp1590:
	.loc	3 2947 11
	{
		sub r10, r10, r6
		stw r2, r4[2]
	}
.Ltmp1591:
	.loc	3 2934 9
	{
		lsu r2, r6, r10
		nop
	}
	bt r2, .LBB25_23
	bu .LBB25_32
.Ltmp1592:
.LBB25_20:
	.loc	3 2958 9
	{
		ldc r1, 0
		ldw r0, r4[2]
	}
	bu .LBB25_38
.Ltmp1593:
.LBB25_28:
	{
		nop
		ld8u r0, r4[r8]
	}
	ldc r1, 128
	.loc	3 2927 35
.Ltmp1594:
	{
		or r0, r0, r1
		nop
	}
	.loc	3 2927 35
	st8 r0, r4[r8]
	{
		mov r5, r9
		nop
	}
	bu .LBB25_44
.Ltmp1595:
.LBB25_16:
	{
		nop
		ld8u r0, r4[r8]
	}
	ldc r1, 128
	.loc	3 2926 26
.Ltmp1596:
	{
		or r0, r0, r1
		nop
	}
	.loc	3 2926 26
	st8 r0, r4[r8]
	bu .LBB25_44
.Ltmp1597:
.LBB25_25:
	{
		ldc r1, 0
		mov r10, r6
	}
.Ltmp1598:
.LBB25_32:
	{
		nop
		ldw r0, r4[2]
	}
	.loc	3 2950 9
.Ltmp1599:
	{
		add r0, r0, r10
		nop
	}
	{
		nop
		stw r0, r4[2]
	}
	ldc r2, 511
	.loc	3 2951 13
.Ltmp1600:
	{
		and r2, r10, r2
		nop
	}
	.loc	3 2951 13
	bf r2, .LBB25_33
.Ltmp1601:
	.loc	3 2952 19
	{
		sub r1, r1, 2
		ldw r2, r4[0]
	}
.Ltmp1602:
	{
		nop
		ldw r3, r2[7]
	}
	.loc	3 834 7
.Ltmp1603:
	{
		sub r3, r3, 2
		nop
	}
	.loc	3 834 7
	{
		lsu r3, r1, r3
		nop
	}
	bf r3, .LBB25_36
.Ltmp1604:
	{
		ldc r3, 2
		nop
	}
	{
		nop
		ld8u r3, r2[r3]
	}
	.loc	3 835 3
	mul r1, r3, r1
.Ltmp1605:
	{
		nop
		ldw r2, r2[11]
	}
.Ltmp1606:
	.loc	3 835 3
	{
		add r1, r1, r2
		nop
	}
.Ltmp1607:
	bf r1, .LBB25_36
.Ltmp1608:
	{
		ldc r2, 9
		nop
	}
	.loc	3 2954 11
	{
		shr r2, r10, r2
		nop
	}
	.loc	3 2954 11
	{
		add r1, r1, r2
		nop
	}
.Ltmp1609:
	bu .LBB25_38
.Ltmp1610:
.LBB25_36:
	{
		nop
		ld8u r0, r4[r8]
	}
	ldc r1, 128
	.loc	3 2953 23
.Ltmp1611:
	{
		or r0, r0, r1
		nop
	}
	.loc	3 2953 23
	st8 r0, r4[r8]
	{
		ldc r5, 2
		nop
	}
	bu .LBB25_44
.Ltmp1612:
.LBB25_33:
	{
		ldc r1, 0
		nop
	}
.Ltmp1613:
.LBB25_38:
	ldc r2, 511
	.loc	3 2958 9
.Ltmp1614:
	{
		and r2, r0, r2
		nop
	}
	bf r2, .LBB25_41
.Ltmp1615:
	{
		nop
		ldw r2, r4[6]
	}
	.loc	3 2958 9
	{
		eq r2, r1, r2
		nop
	}
	bt r2, .LBB25_41
.Ltmp1616:
	{
		nop
		stw r1, r4[6]
	}
.Ltmp1617:
.LBB25_41:
	{
		nop
		ldw r1, r4[3]
	}
	.loc	3 2973 9
.Ltmp1618:
	{
		lsu r1, r1, r0
		nop
	}
	bf r1, .LBB25_43
.Ltmp1619:
	{
		nop
		stw r0, r4[3]
	}
	.loc	3 2975 7
.Ltmp1620:
	{
		ldc r1, 32
		ld8u r0, r4[r8]
	}
	.loc	3 2975 7
	{
		or r0, r0, r1
		nop
	}
	.loc	3 2975 7
	st8 r0, r4[r8]
.Ltmp1621:
.LBB25_43:
	{
		mov r5, r7
		nop
	}
.LBB25_44:
	.loc	3 2981 1
	{
		mov r0, r5
		ldw r10, sp[8]
	}
	ldd r9, r8, sp[3]
	ldd r7, r6, sp[2]
	ldd r5, r4, sp[1]
	{
		nop
		retsp 10
	}
	# RETURN_REG_HOLDER
.Ltmp1622:
	.cc_bottom f_lseek.function
	.set	f_lseek.nstackwords,((disk_status.nstackwords $M get_fat.nstackwords $M create_chain.nstackwords) + 10)
	.globl	f_lseek.nstackwords
	.set	f_lseek.maxcores,create_chain.maxcores $M disk_status.maxcores $M get_fat.maxcores $M 1
	.globl	f_lseek.maxcores
	.set	f_lseek.maxtimers,create_chain.maxtimers $M disk_status.maxtimers $M get_fat.maxtimers $M 0
	.globl	f_lseek.maxtimers
	.set	f_lseek.maxchanends,create_chain.maxchanends $M disk_status.maxchanends $M get_fat.maxchanends $M 0
	.globl	f_lseek.maxchanends
.Ltmp1623:
	.size	f_lseek, .Ltmp1623-f_lseek
.Lfunc_end25:
	.cfi_endproc

	.globl	f_opendir
	.align	4
	.type	f_opendir,@function
	.cc_top f_opendir.function,f_opendir
f_opendir:
.Lfunc_begin26:
	.loc	3 2994 0
	.cfi_startproc
	.issue_mode dual
	{
		nop
		dualentsp 8
	}
.Ltmp1624:
	.cfi_def_cfa_offset 32
.Ltmp1625:
	.cfi_offset 15, 0
	std r5, r4, sp[3]
.Ltmp1626:
	.cfi_offset 4, -8
.Ltmp1627:
	.cfi_offset 5, -4
.Ltmp1628:
	{
		mov r4, r0
		stw r1, sp[5]
	}
.Ltmp1629:
	{
		ldaw r0, sp[5]
		ldc r5, 0
	}
.Ltmp1630:
	.loc	3 2999 9 prologue_end
	{
		mov r1, r4
		mov r2, r5
	}
	bl chk_mounted
.Ltmp1631:
	bt r0, .LBB26_9
.Ltmp1632:
	{
		ldaw r0, sp[2]
		nop
	}
	{
		nop
		stw r0, r4[6]
	}
	.loc	3 3001 5
.Ltmp1633:
	ldaw r0, dp[LfnBuf]
	{
		nop
		stw r0, r4[7]
	}
.Ltmp1634:
	.loc	3 3002 11
	{
		mov r0, r4
		ldw r1, sp[5]
	}
	.loc	3 3002 11
	bl follow_path
.Ltmp1635:
	bt r0, .LBB26_7
.Ltmp1636:
	{
		nop
		ldw r0, r4[5]
	}
	bf r0, .LBB26_6
.Ltmp1637:
	{
		ldc r1, 11
		nop
	}
	.loc	3 3006 13
.Ltmp1638:
	{
		ldc r2, 16
		ld8u r1, r0[r1]
	}
	.loc	3 3006 13
	{
		and r1, r1, r2
		nop
	}
	.loc	3 3006 13
	bf r1, .LBB26_4
.Ltmp1639:
	{
		ldc r1, 21
		nop
	}
	{
		nop
		ld8u r1, r0[r1]
	}
	.loc	3 3007 11
.Ltmp1640:
	{
		shl r1, r1, 8
		ldc r2, 20
	}
	{
		nop
		ld8u r2, r0[r2]
	}
	.loc	3 3007 11
	{
		or r1, r1, r2
		nop
	}
	.loc	3 3007 11
	{
		shl r1, r1, 16
		ldc r2, 27
	}
	{
		nop
		ld8u r2, r0[r2]
	}
	.loc	3 3007 11
	{
		shl r2, r2, 8
		ldc r3, 26
	}
	{
		nop
		ld8u r0, r0[r3]
	}
	.loc	3 3007 11
	{
		or r0, r2, r0
		nop
	}
	.loc	3 3007 11
	{
		or r0, r0, r1
		nop
	}
	{
		nop
		stw r0, r4[2]
	}
.Ltmp1641:
.LBB26_6:
	{
		nop
		ldw r0, r4[0]
	}
	.loc	3 3013 9
.Ltmp1642:
	{
		add r0, r0, 6
		nop
	}
	.loc	3 3013 9
	{
		add r1, r4, 4
		ld16s r0, r0[r5]
	}
	.loc	3 3013 9
	st16 r0, r1[r5]
	.loc	3 3014 15
	{
		mov r0, r4
		mov r1, r5
	}
	bl dir_sdi
.Ltmp1643:
	bu .LBB26_7
.Ltmp1644:
.LBB26_4:
	{
		ldc r0, 5
		nop
	}
.LBB26_7:
.Ltmp1645:
	.loc	3 3017 9
	{
		eq r1, r0, 4
		nop
	}
	bf r1, .LBB26_9
.Ltmp1646:
	{
		ldc r0, 5
		nop
	}
.LBB26_9:
.Ltmp1647:
	.loc	3 3020 3
	ldd r5, r4, sp[3]
	{
		nop
		retsp 8
	}
	# RETURN_REG_HOLDER
.Ltmp1648:
	.cc_bottom f_opendir.function
	.set	f_opendir.nstackwords,((chk_mounted.nstackwords $M follow_path.nstackwords $M dir_sdi.nstackwords) + 8)
	.globl	f_opendir.nstackwords
	.set	f_opendir.maxcores,chk_mounted.maxcores $M dir_sdi.maxcores $M follow_path.maxcores $M 1
	.globl	f_opendir.maxcores
	.set	f_opendir.maxtimers,chk_mounted.maxtimers $M dir_sdi.maxtimers $M follow_path.maxtimers $M 0
	.globl	f_opendir.maxtimers
	.set	f_opendir.maxchanends,chk_mounted.maxchanends $M dir_sdi.maxchanends $M follow_path.maxchanends $M 0
	.globl	f_opendir.maxchanends
.Ltmp1649:
	.size	f_opendir, .Ltmp1649-f_opendir
.Lfunc_end26:
	.cfi_endproc

	.globl	f_readdir
	.align	4
	.type	f_readdir,@function
	.cc_top f_readdir.function,f_readdir
f_readdir:
.Lfunc_begin27:
	.loc	3 3034 0
	.cfi_startproc
	.issue_mode dual
	{
		nop
		dualentsp 8
	}
.Ltmp1650:
	.cfi_def_cfa_offset 32
.Ltmp1651:
	.cfi_offset 15, 0
	std r5, r4, sp[2]
.Ltmp1652:
	.cfi_offset 4, -16
.Ltmp1653:
	.cfi_offset 5, -12
.Ltmp1654:
	.cfi_offset 6, -8
.Ltmp1655:
	{
		mov r5, r1
		stw r6, sp[6]
	}
.Ltmp1656:
	{
		mov r4, r0
		nop
	}
.Ltmp1657:
	.loc	3 3039 9 prologue_end
	{
		ldc r0, 9
		ldw r1, r4[0]
	}
.Ltmp1658:
	bf r1, .LBB27_12
.Ltmp1659:
	.loc	3 3039 9
	{
		ldc r6, 0
		nop
	}
	{
		nop
		ld8u r2, r1[r6]
	}
	bf r2, .LBB27_12
.Ltmp1660:
	.loc	3 3039 9
	{
		add r2, r4, 4
		nop
	}
	.loc	3 3039 9
	{
		add r3, r1, 6
		ld16s r2, r2[r6]
	}
	{
		nop
		ld16s r3, r3[r6]
	}
	.loc	3 2205 7
.Ltmp1661:
	{
		zext r3, 16
		zext r2, 16
	}
	.loc	3 2205 7
	{
		eq r2, r3, r2
		nop
	}
	bf r2, .LBB27_12
.Ltmp1662:
	{
		mkmsk r0, 1
		nop
	}
	{
		nop
		ld8u r0, r1[r0]
	}
	.loc	3 2210 7
.Ltmp1663:
	bl disk_status
.Ltmp1664:
	.loc	3 2210 7
	{
		zext r0, 1
		nop
	}
	bf r0, .LBB27_5
.Ltmp1665:
	{
		mkmsk r0, 2
		nop
	}
	bu .LBB27_12
.LBB27_5:
.Ltmp1666:
	.loc	3 3041 9
	bf r5, .LBB27_6
.Ltmp1667:
	{
		ldaw r0, sp[1]
		nop
	}
	{
		nop
		stw r0, r4[6]
	}
	.loc	3 3044 7
.Ltmp1668:
	ldaw r0, dp[LfnBuf]
	{
		mov r0, r4
		stw r0, r4[7]
	}
.Ltmp1669:
	.loc	3 3045 13
	bl dir_read
.Ltmp1670:
	bf r0, .LBB27_10
.Ltmp1671:
	{
		eq r1, r0, 4
		nop
	}
	bf r1, .LBB27_12
.Ltmp1672:
	{
		nop
		stw r6, r4[4]
	}
.Ltmp1673:
.LBB27_10:
	.loc	3 3051 9
	{
		mov r0, r4
		mov r1, r5
	}
	bl get_fileinfo
	{
		ldc r5, 0
		mov r0, r4
	}
.Ltmp1674:
	.loc	3 3052 15
	{
		mov r1, r5
		nop
	}
	bl dir_next
.Ltmp1675:
	.loc	3 3053 13
	{
		eq r1, r0, 4
		nop
	}
	bf r1, .LBB27_12
.Ltmp1676:
	.loc	3 3054 11
	{
		mov r0, r5
		stw r5, r4[4]
	}
	bu .LBB27_12
.Ltmp1677:
.LBB27_6:
	{
		ldc r1, 0
		mov r0, r4
	}
	.loc	3 3042 13
.Ltmp1678:
	bl dir_sdi
.Ltmp1679:
.LBB27_12:
	{
		nop
		ldw r6, sp[6]
	}
	.loc	3 3062 3
	ldd r5, r4, sp[2]
	{
		nop
		retsp 8
	}
	# RETURN_REG_HOLDER
.Ltmp1680:
	.cc_bottom f_readdir.function
	.set	f_readdir.nstackwords,((disk_status.nstackwords $M dir_sdi.nstackwords $M dir_read.nstackwords $M get_fileinfo.nstackwords $M dir_next.nstackwords) + 8)
	.globl	f_readdir.nstackwords
	.set	f_readdir.maxcores,dir_next.maxcores $M dir_read.maxcores $M dir_sdi.maxcores $M disk_status.maxcores $M get_fileinfo.maxcores $M 1
	.globl	f_readdir.maxcores
	.set	f_readdir.maxtimers,dir_next.maxtimers $M dir_read.maxtimers $M dir_sdi.maxtimers $M disk_status.maxtimers $M get_fileinfo.maxtimers $M 0
	.globl	f_readdir.maxtimers
	.set	f_readdir.maxchanends,dir_next.maxchanends $M dir_read.maxchanends $M dir_sdi.maxchanends $M disk_status.maxchanends $M get_fileinfo.maxchanends $M 0
	.globl	f_readdir.maxchanends
.Ltmp1681:
	.size	f_readdir, .Ltmp1681-f_readdir
.Lfunc_end27:
	.cfi_endproc

	.globl	f_stat
	.align	4
	.type	f_stat,@function
	.cc_top f_stat.function,f_stat
f_stat:
.Lfunc_begin28:
	.loc	3 3076 0
	.cfi_startproc
	.issue_mode dual
	{
		nop
		dualentsp 16
	}
.Ltmp1682:
	.cfi_def_cfa_offset 64
.Ltmp1683:
	.cfi_offset 15, 0
	std r5, r4, sp[7]
.Ltmp1684:
	.cfi_offset 4, -8
.Ltmp1685:
	.cfi_offset 5, -4
.Ltmp1686:
	{
		mov r4, r1
		stw r0, sp[13]
	}
.Ltmp1687:
	{
		ldaw r0, sp[13]
		ldaw r1, sp[4]
	}
.Ltmp1688:
	{
		ldc r5, 0
		nop
	}
	.loc	3 3082 9 prologue_end
.Ltmp1689:
	{
		mov r2, r5
		nop
	}
	bl chk_mounted
.Ltmp1690:
	bt r0, .LBB28_5
.Ltmp1691:
	{
		ldaw r0, sp[1]
		nop
	}
	{
		nop
		stw r0, sp[10]
	}
	.loc	3 3084 5
.Ltmp1692:
	ldaw r0, dp[LfnBuf]
	{
		nop
		stw r0, sp[11]
	}
.Ltmp1693:
	.loc	3 3085 11
	{
		ldaw r0, sp[4]
		ldw r1, sp[13]
	}
.Ltmp1694:
	.loc	3 3085 11
	bl follow_path
.Ltmp1695:
	bt r0, .LBB28_5
.Ltmp1696:
	{
		nop
		ldw r0, sp[9]
	}
	.loc	3 3087 11
.Ltmp1697:
	bf r0, .LBB28_3
.Ltmp1698:
	{
		ldaw r0, sp[4]
		mov r1, r4
	}
.Ltmp1699:
	.loc	3 3088 9
	bl get_fileinfo
	{
		mov r0, r5
		nop
	}
	bu .LBB28_5
.Ltmp1700:
.LBB28_3:
	{
		ldc r0, 6
		nop
	}
.LBB28_5:
	.loc	3 3096 1
	ldd r5, r4, sp[7]
	{
		nop
		retsp 16
	}
	# RETURN_REG_HOLDER
.Ltmp1701:
	.cc_bottom f_stat.function
	.set	f_stat.nstackwords,((chk_mounted.nstackwords $M follow_path.nstackwords $M get_fileinfo.nstackwords) + 16)
	.globl	f_stat.nstackwords
	.set	f_stat.maxcores,chk_mounted.maxcores $M follow_path.maxcores $M get_fileinfo.maxcores $M 1
	.globl	f_stat.maxcores
	.set	f_stat.maxtimers,chk_mounted.maxtimers $M follow_path.maxtimers $M get_fileinfo.maxtimers $M 0
	.globl	f_stat.maxtimers
	.set	f_stat.maxchanends,chk_mounted.maxchanends $M follow_path.maxchanends $M get_fileinfo.maxchanends $M 0
	.globl	f_stat.maxchanends
.Ltmp1702:
	.size	f_stat, .Ltmp1702-f_stat
.Lfunc_end28:
	.cfi_endproc

	.section	.cp.rodata.cst4,"aMc",@progbits,4
	.cc_top .LCPI29_0.data,.LCPI29_0
	.align	4
	.type	.LCPI29_0,@object
	.size	.LCPI29_0, 4
.LCPI29_0:
	.long	251658240
	.cc_bottom .LCPI29_0.data
	.text
	.globl	f_getfree
	.align	4
	.type	f_getfree,@function
	.cc_top f_getfree.function,f_getfree
f_getfree:
.Lfunc_begin29:
	.loc	3 3110 0
	.cfi_startproc
	.issue_mode dual
	{
		nop
		dualentsp 12
	}
.Ltmp1703:
	.cfi_def_cfa_offset 48
.Ltmp1704:
	.cfi_offset 15, 0
	std r5, r4, sp[2]
.Ltmp1705:
	.cfi_offset 4, -32
.Ltmp1706:
	.cfi_offset 5, -28
	std r7, r6, sp[3]
.Ltmp1707:
	.cfi_offset 6, -24
.Ltmp1708:
	.cfi_offset 7, -20
	std r9, r8, sp[4]
.Ltmp1709:
	.cfi_offset 8, -16
.Ltmp1710:
	.cfi_offset 9, -12
.Ltmp1711:
	.cfi_offset 10, -8
.Ltmp1712:
	{
		mov r5, r2
		stw r10, sp[10]
	}
.Ltmp1713:
	{
		mov r4, r1
		stw r0, sp[3]
	}
.Ltmp1714:
	{
		ldaw r0, sp[3]
		ldc r6, 0
	}
.Ltmp1715:
	.loc	3 3118 9 prologue_end
	{
		mov r1, r5
		mov r2, r6
	}
	bl chk_mounted
	{
		mov r7, r0
		nop
	}
.Ltmp1716:
	bt r7, .LBB29_3
.Ltmp1717:
	{
		nop
		ldw r0, r5[0]
	}
	{
		nop
		ldw r1, r0[4]
	}
	{
		nop
		ldw r10, r0[7]
	}
.Ltmp1718:
	.loc	3 3121 9
	{
		sub r2, r10, 2
		nop
	}
	.loc	3 3121 9
	{
		lsu r2, r2, r1
		nop
	}
	.loc	3 3121 9
	bf r2, .LBB29_2
.Ltmp1719:
	.loc	3 3125 7
	{
		ldc r8, 0
		nop
	}
.Ltmp1720:
	{
		nop
		ld8u r2, r0[r8]
	}
	.loc	3 3127 11
.Ltmp1721:
	{
		eq r1, r2, 1
		nop
	}
	bf r1, .LBB29_14
.Ltmp1722:
	{
		mov r9, r2
		ldc r6, 2
	}
	{
		mkmsk r7, 1
		mkmsk r10, 32
	}
.Ltmp1723:
.LBB29_6:
	.loc	3 3130 18
	{
		mov r1, r6
		nop
	}
	bl get_fat
.Ltmp1724:
	.loc	3 3131 15
	{
		eq r1, r0, 1
		nop
	}
	bt r1, .LBB29_7
.Ltmp1725:
	{
		eq r1, r0, r10
		nop
	}
	bt r1, .LBB29_9
.Ltmp1726:
	bt r0, .LBB29_12
.Ltmp1727:
	.loc	3 3133 26
	{
		add r8, r8, 1
		nop
	}
.Ltmp1728:
.LBB29_12:
	.loc	3 3134 9
	{
		add r6, r6, 1
		ldw r0, r5[0]
	}
.Ltmp1729:
	{
		nop
		ldw r1, r0[7]
	}
	.loc	3 3134 9
	{
		lsu r1, r6, r1
		nop
	}
	bt r1, .LBB29_6
.Ltmp1730:
	{
		ldc r7, 0
		nop
	}
	bu .LBB29_9
.Ltmp1731:
.LBB29_2:
	.loc	3 3122 7
	{
		mov r7, r6
		stw r1, r4[0]
	}
	bu .LBB29_3
.Ltmp1732:
.LBB29_14:
	{
		nop
		stw r4, sp[2]
	}
.Ltmp1733:
	.loc	3 3137 9
	{
		ldc r8, 0
		ldw r6, r0[9]
	}
.Ltmp1734:
	{
		eq r1, r2, 2
		stw r2, sp[1]
	}
	bf r1, .LBB29_21
.Ltmp1735:
	{
		mkmsk r4, 1
		ldc r9, 0
	}
	{
		mov r2, r8
		mov r1, r8
	}
.Ltmp1736:
.LBB29_16:
	bt r2, .LBB29_19
.Ltmp1737:
	.loc	3 3141 19
	{
		mov r1, r6
		nop
	}
	bl move_window
	{
		mov r7, r0
		nop
	}
.Ltmp1738:
	bt r7, .LBB29_24
.Ltmp1739:
	.loc	3 3141 19
	{
		add r6, r6, 1
		ldw r0, r5[0]
	}
.Ltmp1740:
	{
		ldc r1, 52
		nop
	}
	.loc	3 3143 13
	{
		add r1, r0, r1
		nop
	}
.Ltmp1741:
	ldc r2, 512
.Ltmp1742:
.LBB29_19:
	{
		nop
		ld8u r3, r1[r4]
	}
	.loc	3 3147 17
.Ltmp1743:
	{
		shl r3, r3, 8
		ld8u r11, r1[r9]
	}
	.loc	3 3147 17
	{
		or r3, r3, r11
		nop
	}
.Ltmp1744:
	.loc	3 3147 17
	{
		eq r3, r3, 0
		add r1, r1, 2
	}
.Ltmp1745:
	.loc	3 3148 21
	{
		sub r2, r2, 2
		add r8, r3, r8
	}
.Ltmp1746:
	.loc	3 3153 9
	{
		sub r10, r10, 1
		nop
	}
.Ltmp1747:
	bt r10, .LBB29_16
.Ltmp1748:
	{
		mov r7, r9
		nop
	}
	bu .LBB29_24
.Ltmp1749:
.LBB29_21:
	{
		mov r2, r8
		mov r1, r8
	}
.Ltmp1750:
.LBB29_22:
	bt r2, .LBB29_29
.Ltmp1751:
	.loc	3 3141 19
	{
		mov r1, r6
		nop
	}
	bl move_window
	{
		mov r7, r0
		nop
	}
.Ltmp1752:
	.loc	3 3142 17
	bt r7, .LBB29_24
.Ltmp1753:
	.loc	3 3141 19
	{
		add r6, r6, 1
		ldw r0, r5[0]
	}
.Ltmp1754:
	{
		ldc r1, 52
		nop
	}
	.loc	3 3143 13
	{
		add r1, r0, r1
		nop
	}
.Ltmp1755:
	ldc r2, 512
.Ltmp1756:
.LBB29_29:
	{
		mkmsk r3, 2
		nop
	}
	{
		nop
		ld8u r3, r1[r3]
	}
	.loc	3 3150 17
.Ltmp1757:
	{
		shl r3, r3, 24
		ldc r11, 2
	}
	{
		nop
		ld8u r11, r1[r11]
	}
	.loc	3 3150 17
	{
		shl r11, r11, 16
		mkmsk r7, 1
	}
	{
		nop
		ld8u r7, r1[r7]
	}
	.loc	3 3150 17
	{
		shl r7, r7, 8
		ldc r4, 0
	}
	{
		nop
		ld8u r9, r1[r4]
	}
	ldw r4, cp[.LCPI29_0]
	.loc	3 3150 17
	{
		and r3, r3, r4
		nop
	}
	.loc	3 3150 17
	{
		or r3, r3, r11
		nop
	}
	.loc	3 3150 17
	{
		or r3, r3, r7
		nop
	}
	.loc	3 3150 17
	{
		or r3, r3, r9
		nop
	}
.Ltmp1758:
	.loc	3 3150 17
	{
		eq r3, r3, 0
		add r1, r1, 4
	}
.Ltmp1759:
	.loc	3 3151 21
	{
		sub r2, r2, 4
		add r8, r3, r8
	}
.Ltmp1760:
	.loc	3 3153 9
	{
		sub r10, r10, 1
		nop
	}
.Ltmp1761:
	bt r10, .LBB29_22
.Ltmp1762:
	.loc	3 3150 17
	{
		ldc r7, 0
		nop
	}
.Ltmp1763:
.LBB29_24:
	{
		nop
		ldw r3, sp[2]
	}
.Ltmp1764:
	{
		nop
		ldw r1, sp[1]
	}
	bu .LBB29_25
.Ltmp1765:
.LBB29_7:
	{
		ldc r7, 2
		nop
	}
.Ltmp1766:
.LBB29_9:
	{
		mov r3, r4
		mov r1, r9
	}
.Ltmp1767:
.LBB29_25:
	{
		nop
		ldw r0, r5[0]
	}
	.loc	3 3155 7
	{
		eq r1, r1, 3
		stw r8, r0[4]
	}
	bf r1, .LBB29_27
.Ltmp1768:
	{
		ldc r1, 5
		mkmsk r2, 1
	}
	.loc	3 3156 28
.Ltmp1769:
	st8 r2, r0[r1]
.Ltmp1770:
.LBB29_27:
	{
		nop
		stw r8, r3[0]
	}
.Ltmp1771:
.LBB29_3:
	.loc	3 3161 3
	{
		mov r0, r7
		ldw r10, sp[10]
	}
	ldd r9, r8, sp[4]
	ldd r7, r6, sp[3]
	ldd r5, r4, sp[2]
	{
		nop
		retsp 12
	}
	# RETURN_REG_HOLDER
.Ltmp1772:
	.cc_bottom f_getfree.function
	.set	f_getfree.nstackwords,((chk_mounted.nstackwords $M get_fat.nstackwords $M move_window.nstackwords) + 12)
	.globl	f_getfree.nstackwords
	.set	f_getfree.maxcores,chk_mounted.maxcores $M get_fat.maxcores $M move_window.maxcores $M 1
	.globl	f_getfree.maxcores
	.set	f_getfree.maxtimers,chk_mounted.maxtimers $M get_fat.maxtimers $M move_window.maxtimers $M 0
	.globl	f_getfree.maxtimers
	.set	f_getfree.maxchanends,chk_mounted.maxchanends $M get_fat.maxchanends $M move_window.maxchanends $M 0
	.globl	f_getfree.maxchanends
.Ltmp1773:
	.size	f_getfree, .Ltmp1773-f_getfree
.Lfunc_end29:
	.cfi_endproc

	.section	.cp.rodata.cst4,"aMc",@progbits,4
	.cc_top .LCPI30_0.data,.LCPI30_0
	.align	4
	.type	.LCPI30_0,@object
	.size	.LCPI30_0, 4
.LCPI30_0:
	.long	268435455
	.cc_bottom .LCPI30_0.data
	.text
	.globl	f_truncate
	.align	4
	.type	f_truncate,@function
	.cc_top f_truncate.function,f_truncate
f_truncate:
.Lfunc_begin30:
	.loc	3 3171 0
	.cfi_startproc
	.issue_mode dual
	{
		nop
		dualentsp 10
	}
.Ltmp1774:
	.cfi_def_cfa_offset 40
.Ltmp1775:
	.cfi_offset 15, 0
	std r5, r4, sp[1]
.Ltmp1776:
	.cfi_offset 4, -32
.Ltmp1777:
	.cfi_offset 5, -28
	std r7, r6, sp[2]
.Ltmp1778:
	.cfi_offset 6, -24
.Ltmp1779:
	.cfi_offset 7, -20
	std r9, r8, sp[3]
.Ltmp1780:
	.cfi_offset 8, -16
.Ltmp1781:
	.cfi_offset 9, -12
.Ltmp1782:
	.cfi_offset 10, -8
.Ltmp1783:
	{
		mov r4, r0
		stw r10, sp[8]
	}
.Ltmp1784:
	.loc	3 3176 9 prologue_end
	{
		ldc r6, 9
		ldw r0, r4[0]
	}
.Ltmp1785:
	bf r0, .LBB30_39
.Ltmp1786:
	.loc	3 3176 9
	{
		ldc r10, 0
		nop
	}
	{
		nop
		ld8u r1, r0[r10]
	}
	bf r1, .LBB30_39
.Ltmp1787:
	.loc	3 3176 9
	{
		add r1, r4, 4
		nop
	}
	.loc	3 3176 9
	{
		add r2, r0, 6
		ld16s r1, r1[r10]
	}
	{
		nop
		ld16s r2, r2[r10]
	}
	.loc	3 2205 7
.Ltmp1788:
	{
		zext r2, 16
		zext r1, 16
	}
	.loc	3 2205 7
	{
		eq r1, r2, r1
		nop
	}
	bf r1, .LBB30_39
.Ltmp1789:
	{
		mkmsk r7, 1
		nop
	}
	{
		nop
		ld8u r0, r0[r7]
	}
.Ltmp1790:
	.loc	3 2210 7
	bl disk_status
	.loc	3 2210 7
	{
		zext r0, 1
		nop
	}
	bf r0, .LBB30_5
.Ltmp1791:
	{
		mkmsk r6, 2
		nop
	}
	bu .LBB30_39
.LBB30_5:
.Ltmp1792:
	{
		ldc r3, 6
		nop
	}
	{
		nop
		ld8u r0, r4[r3]
	}
	.loc	3 3178 9
.Ltmp1793:
	{
		shr r1, r0, 7
		nop
	}
	bf r1, .LBB30_7
.Ltmp1794:
	{
		ldc r6, 2
		nop
	}
	bu .LBB30_39
.LBB30_7:
.Ltmp1795:
	{
		ldc r5, 2
		nop
	}
	.loc	3 3181 11
.Ltmp1796:
	{
		and r1, r0, r5
		nop
	}
.Ltmp1797:
	bf r1, .LBB30_8
.Ltmp1798:
	{
		nop
		ldw r2, r4[3]
	}
	{
		nop
		ldw r1, r4[2]
	}
	.loc	3 3186 9
.Ltmp1799:
	{
		lsu r2, r1, r2
		nop
	}
	bf r2, .LBB30_10
.Ltmp1800:
	.loc	3 3187 7
	{
		ldc r2, 32
		stw r1, r4[3]
	}
	.loc	3 3188 7
	{
		or r0, r0, r2
		nop
	}
	.loc	3 3188 7
	st8 r0, r4[r3]
	{
		nop
		ldw r6, r4[0]
	}
.Ltmp1801:
	.loc	3 3189 11
	bf r1, .LBB30_12
.Ltmp1802:
	.loc	3 3193 15
	{
		mov r0, r6
		ldw r1, r4[5]
	}
	.loc	3 3193 15
	bl get_fat
.Ltmp1803:
	{
		mov r8, r0
		mkmsk r1, 32
	}
.Ltmp1804:
	.loc	3 3196 13
	{
		eq r0, r8, 1
		nop
	}
	bt r0, .LBB30_24
.Ltmp1805:
	.loc	3 3195 13
	{
		eq r5, r8, r1
		nop
	}
.Ltmp1806:
.LBB30_24:
	bt r5, .LBB30_38
.Ltmp1807:
	{
		nop
		ldw r0, r4[0]
	}
	{
		nop
		ldw r1, r0[7]
	}
	.loc	3 3197 13
.Ltmp1808:
	{
		lsu r1, r8, r1
		nop
	}
	bf r1, .LBB30_26
.Ltmp1809:
	{
		nop
		ldw r1, r4[5]
	}
	ldw r2, cp[.LCPI30_0]
	.loc	3 3198 17
.Ltmp1810:
	bl put_fat
	{
		mov r5, r0
		nop
	}
.Ltmp1811:
	bt r5, .LBB30_38
.Ltmp1812:
	{
		ldc r5, 2
		nop
	}
	.loc	3 963 7
.Ltmp1813:
	{
		lsu r0, r8, r5
		nop
	}
	bt r0, .LBB30_38
.Ltmp1814:
	{
		nop
		ldw r1, r4[0]
	}
.Ltmp1815:
	{
		nop
		ldw r0, r1[7]
	}
	.loc	3 963 7
	{
		lsu r0, r8, r0
		nop
	}
	bf r0, .LBB30_38
.Ltmp1816:
	{
		ldc r6, 0
		mov r5, r1
	}
.Ltmp1817:
.LBB30_31:
	.loc	3 969 13
	{
		mov r0, r5
		mov r1, r8
	}
	bl get_fat
	{
		mov r9, r0
		nop
	}
.Ltmp1818:
	.loc	3 970 11
	{
		add r0, r9, 1
		mkmsk r1, 2
	}
	.loc	3 970 11
	{
		lsu r1, r0, r1
		nop
	}
	.loc	3 970 11
	bt r1, .LBB30_36
.Ltmp1819:
	.loc	3 973 13
	{
		mov r0, r5
		mov r1, r8
	}
	{
		mov r2, r6
		nop
	}
	bl put_fat
	{
		mov r2, r5
		mov r5, r0
	}
	{
		mkmsk r1, 32
		nop
	}
	bt r5, .LBB30_38
.Ltmp1820:
	{
		nop
		ldw r0, r2[4]
	}
	.loc	3 975 11
.Ltmp1821:
	{
		eq r1, r0, r1
		mov r5, r2
	}
	bt r1, .LBB30_34
.Ltmp1822:
	.loc	3 976 9
	{
		add r0, r0, 1
		nop
	}
	.loc	3 976 9
	{
		ldc r0, 5
		stw r0, r5[4]
	}
	.loc	3 977 9
	st8 r7, r5[r0]
.Ltmp1823:
.LBB30_34:
	{
		nop
		ldw r0, r5[7]
	}
.Ltmp1824:
	.loc	3 968 5
	{
		lsu r0, r9, r0
		mov r8, r9
	}
.Ltmp1825:
	bt r0, .LBB30_31
	bu .LBB30_39
.Ltmp1826:
.LBB30_8:
	{
		mkmsk r6, 3
		nop
	}
	bu .LBB30_39
.LBB30_10:
	{
		mov r6, r10
		nop
	}
	bu .LBB30_39
.LBB30_12:
.Ltmp1827:
	.loc	3 3190 15
	{
		ldc r5, 2
		ldw r8, r4[4]
	}
.Ltmp1828:
	.loc	3 963 7
	{
		lsu r0, r8, r5
		nop
	}
	bt r0, .LBB30_21
.Ltmp1829:
	{
		nop
		ldw r0, r6[7]
	}
	.loc	3 963 7
	{
		lsu r0, r8, r0
		nop
	}
	bf r0, .LBB30_21
.Ltmp1830:
.LBB30_14:
	.loc	3 969 13
	{
		mov r0, r6
		mov r1, r8
	}
	bl get_fat
	{
		mov r9, r0
		nop
	}
.Ltmp1831:
	.loc	3 970 11
	{
		add r0, r9, 1
		mkmsk r1, 2
	}
	.loc	3 970 11
	{
		lsu r1, r0, r1
		nop
	}
	.loc	3 970 11
	bt r1, .LBB30_20
.Ltmp1832:
	.loc	3 973 13
	{
		mov r0, r6
		mov r1, r8
	}
	{
		ldc r2, 0
		nop
	}
	bl put_fat
	{
		mov r5, r0
		nop
	}
.Ltmp1833:
	bt r5, .LBB30_21
.Ltmp1834:
	.loc	3 975 11
	{
		mkmsk r1, 32
		ldw r0, r6[4]
	}
	.loc	3 975 11
	{
		eq r1, r0, r1
		nop
	}
	bt r1, .LBB30_17
.Ltmp1835:
	.loc	3 976 9
	{
		add r0, r0, 1
		nop
	}
	.loc	3 976 9
	{
		ldc r0, 5
		stw r0, r6[4]
	}
	.loc	3 977 9
	st8 r7, r6[r0]
.Ltmp1836:
.LBB30_17:
	{
		nop
		ldw r0, r6[7]
	}
.Ltmp1837:
	.loc	3 968 5
	{
		lsu r0, r9, r0
		mov r8, r9
	}
.Ltmp1838:
	bt r0, .LBB30_14
.Ltmp1839:
	{
		ldc r5, 0
		nop
	}
	bu .LBB30_21
.Ltmp1840:
.LBB30_26:
	{
		mov r6, r10
		nop
	}
	bu .LBB30_39
.LBB30_20:
.Ltmp1841:
	.loc	3 970 11
	ldaw r11, cp[.Lswitch.table2]
	{
		nop
		ldw r5, r11[r0]
	}
.Ltmp1842:
.LBB30_21:
	{
		ldc r0, 0
		nop
	}
	{
		nop
		stw r0, r4[4]
	}
.Ltmp1843:
.LBB30_37:
	{
		mov r6, r10
		nop
	}
	bf r5, .LBB30_39
.Ltmp1844:
.LBB30_38:
	{
		ldc r0, 6
		nop
	}
	{
		mov r2, r0
		nop
	}
	{
		nop
		ld8u r0, r4[r2]
	}
	ldc r1, 128
	.loc	3 3203 23
.Ltmp1845:
	{
		or r0, r0, r1
		nop
	}
	.loc	3 3203 23
	st8 r0, r4[r2]
	{
		mov r6, r5
		nop
	}
.Ltmp1846:
.LBB30_39:
	.loc	3 3206 3
	{
		mov r0, r6
		ldw r10, sp[8]
	}
	ldd r9, r8, sp[3]
	ldd r7, r6, sp[2]
	ldd r5, r4, sp[1]
	{
		nop
		retsp 10
	}
	# RETURN_REG_HOLDER
.LBB30_36:
.Ltmp1847:
	.loc	3 970 11
	ldaw r11, cp[.Lswitch.table2]
	{
		nop
		ldw r5, r11[r0]
	}
	bu .LBB30_37
.Ltmp1848:
	.cc_bottom f_truncate.function
	.set	f_truncate.nstackwords,((disk_status.nstackwords $M get_fat.nstackwords $M put_fat.nstackwords) + 10)
	.globl	f_truncate.nstackwords
	.set	f_truncate.maxcores,disk_status.maxcores $M get_fat.maxcores $M put_fat.maxcores $M 1
	.globl	f_truncate.maxcores
	.set	f_truncate.maxtimers,disk_status.maxtimers $M get_fat.maxtimers $M put_fat.maxtimers $M 0
	.globl	f_truncate.maxtimers
	.set	f_truncate.maxchanends,disk_status.maxchanends $M get_fat.maxchanends $M put_fat.maxchanends $M 0
	.globl	f_truncate.maxchanends
.Ltmp1849:
	.size	f_truncate, .Ltmp1849-f_truncate
.Lfunc_end30:
	.cfi_endproc

	.globl	f_unlink
	.align	4
	.type	f_unlink,@function
	.cc_top f_unlink.function,f_unlink
f_unlink:
.Lfunc_begin31:
	.loc	3 3219 0
	.cfi_startproc
	.issue_mode dual
	{
		nop
		dualentsp 32
	}
.Ltmp1850:
	.cfi_def_cfa_offset 128
.Ltmp1851:
	.cfi_offset 15, 0
	{
		nop
		stw r4, sp[24]
	}
	{
		nop
		stw r5, sp[25]
	}
.Ltmp1852:
	.cfi_offset 4, -32
.Ltmp1853:
	.cfi_offset 5, -28
	{
		nop
		stw r6, sp[26]
	}
	{
		nop
		stw r7, sp[27]
	}
.Ltmp1854:
	.cfi_offset 6, -24
.Ltmp1855:
	.cfi_offset 7, -20
	{
		nop
		stw r8, sp[28]
	}
	{
		nop
		stw r9, sp[29]
	}
.Ltmp1856:
	.cfi_offset 8, -16
.Ltmp1857:
	.cfi_offset 9, -12
	{
		nop
		stw r10, sp[30]
	}
.Ltmp1858:
	.cfi_offset 10, -8
.Ltmp1859:
	{
		ldaw r0, sp[23]
		stw r0, sp[23]
	}
.Ltmp1860:
	{
		ldaw r1, sp[14]
		mkmsk r4, 1
	}
	.loc	3 3227 9 prologue_end
.Ltmp1861:
	{
		mov r2, r4
		nop
	}
	bl chk_mounted
.Ltmp1862:
	bt r0, .LBB31_55
.Ltmp1863:
	{
		ldaw r0, sp[2]
		nop
	}
	{
		nop
		stw r0, sp[20]
	}
	.loc	3 3229 5
.Ltmp1864:
	ldaw r0, dp[LfnBuf]
	{
		nop
		stw r0, sp[21]
	}
.Ltmp1865:
	.loc	3 3230 11
	{
		ldaw r6, sp[14]
		ldw r1, sp[23]
	}
.Ltmp1866:
	.loc	3 3230 11
	{
		mov r0, r6
		nop
	}
	bl follow_path
.Ltmp1867:
	bt r0, .LBB31_55
.Ltmp1868:
	.loc	3 3231 9
	{
		ldc r1, 11
		ldw r0, sp[20]
	}
	.loc	3 3231 9
	{
		ldc r2, 32
		ld8u r0, r0[r1]
	}
	.loc	3 3231 9
	{
		and r0, r0, r2
		nop
	}
.Ltmp1869:
	bf r0, .LBB31_4
.Ltmp1870:
	{
		ldc r0, 6
		nop
	}
	bu .LBB31_55
.LBB31_4:
.Ltmp1871:
	{
		nop
		ldw r2, sp[19]
	}
.Ltmp1872:
	.loc	3 3238 11
	bf r2, .LBB31_5
.Ltmp1873:
	{
		nop
		ld8u r0, r2[r1]
	}
	.loc	3 3241 13
.Ltmp1874:
	{
		sext r0, 1
		nop
	}
.Ltmp1875:
	{
		zext r0, 3
		nop
	}
	bu .LBB31_7
.Ltmp1876:
.LBB31_5:
	{
		ldc r0, 6
		nop
	}
.Ltmp1877:
.LBB31_7:
	bt r0, .LBB31_55
.Ltmp1878:
	{
		ldc r0, 21
		nop
	}
	{
		nop
		ld8u r0, r2[r0]
	}
	.loc	3 3244 7
	{
		shl r0, r0, 8
		ldc r3, 20
	}
	{
		nop
		ld8u r3, r2[r3]
	}
	.loc	3 3244 7
	{
		or r0, r0, r3
		nop
	}
	.loc	3 3244 7
	{
		shl r0, r0, 16
		ldc r3, 27
	}
	{
		nop
		ld8u r3, r2[r3]
	}
	.loc	3 3244 7
	{
		shl r3, r3, 8
		ldc r11, 26
	}
	{
		nop
		ld8u r11, r2[r11]
	}
	.loc	3 3244 7
	{
		or r3, r3, r11
		nop
	}
.Ltmp1879:
	.loc	3 3244 7
	{
		or r8, r3, r0
		ld8u r0, r2[r1]
	}
.Ltmp1880:
	{
		ldc r1, 16
		nop
	}
	.loc	3 3245 11
.Ltmp1881:
	{
		and r0, r0, r1
		nop
	}
	bf r0, .LBB31_16
.Ltmp1882:
	{
		ldc r0, 2
		nop
	}
	.loc	3 3246 13
.Ltmp1883:
	{
		lsu r1, r8, r0
		nop
	}
	bt r1, .LBB31_55
.Ltmp1884:
	{
		ldc r0, 0
		ldaw r1, sp[5]
	}
	{
		ldc r2, 36
		nop
	}
.Ltmp1885:
.LBB31_11:
	{
		nop
		ld8u r3, r6[r0]
	}
	.loc	3 568 5
.Ltmp1886:
	st8 r3, r1[r0]
	.loc	3 567 3
	{
		add r0, r0, 1
		nop
	}
.xtaloop 36
	# LOOPMARKER 0
	.loc	3 567 3
	{
		eq r3, r0, r2
		nop
	}
	bf r3, .LBB31_11
.Ltmp1887:
	.loc	3 3250 11
	{
		ldaw r0, sp[5]
		stw r8, sp[7]
	}
.Ltmp1888:
	{
		ldc r1, 2
		nop
	}
	.loc	3 3251 17
	bl dir_sdi
.Ltmp1889:
	bt r0, .LBB31_55
.Ltmp1890:
	{
		ldaw r0, sp[5]
		nop
	}
.Ltmp1891:
	.loc	3 3253 19
	bl dir_read
.Ltmp1892:
	{
		mov r1, r0
		mkmsk r0, 3
	}
.Ltmp1893:
	bf r1, .LBB31_55
.Ltmp1894:
	{
		nop
		ldw r2, sp[5]
	}
	{
		nop
		ldw r2, r2[6]
	}
	.loc	3 3254 17
.Ltmp1895:
	{
		eq r2, r8, r2
		nop
	}
	bt r2, .LBB31_55
.Ltmp1896:
	{
		eq r2, r1, 4
		mov r0, r1
	}
	bf r2, .LBB31_55
.Ltmp1897:
.LBB31_16:
	.loc	3 1613 3
	{
		add r5, r6, 6
		ldc r9, 0
	}
	{
		nop
		ld16s r3, r5[r9]
	}
	.loc	3 1614 9
	{
		ldaw r0, sp[22]
		stw r3, sp[1]
	}
	{
		nop
		ld16s r0, r0[r9]
	}
	.loc	3 1614 9
	{
		zext r0, 16
		mkmsk r1, 16
	}
	.loc	3 1614 9
	{
		eq r2, r0, r1
		mov r1, r3
	}
	bt r2, .LBB31_18
.Ltmp1898:
	.loc	3 1614 9
	{
		mov r1, r0
		nop
	}
.Ltmp1899:
.LBB31_18:
	.loc	3 1614 9
	{
		zext r1, 16
		mov r0, r6
	}
	bl dir_sdi
.Ltmp1900:
	bt r0, .LBB31_55
.Ltmp1901:
	{
		nop
		ldw r3, sp[14]
	}
.Ltmp1902:
	{
		nop
		ldw r7, sp[18]
	}
	bu .LBB31_20
.Ltmp1903:
.LBB31_42:
	.loc	3 1194 3
	st16 r5, r6[r9]
	{
		mov r5, r6
		shl r0, r8, 5
	}
	.loc	3 1195 3
	{
		add r0, r3, r0
		ldc r1, 52
	}
	{
		add r0, r0, r1
		nop
	}
.Ltmp1904:
	.loc	3 1195 3
	{
		mov r8, r10
		stw r0, sp[19]
	}
.Ltmp1905:
.LBB31_20:
	.loc	3 1617 13
	{
		mov r0, r3
		mov r6, r3
	}
	{
		mov r1, r7
		nop
	}
	bl move_window
	.loc	3 1618 11
.Ltmp1906:
	{
		eq r1, r0, 4
		nop
	}
	bt r1, .LBB31_21
.Ltmp1907:
	bt r0, .LBB31_55
.Ltmp1908:
	{
		nop
		ldw r0, sp[19]
	}
	ldc r1, 229
	.loc	3 1619 7
	st8 r1, r0[r9]
	{
		mov r3, r6
		ldc r0, 4
	}
	.loc	3 1620 7
	st8 r4, r3[r0]
	{
		nop
		ld16s r0, r5[r9]
	}
	.loc	3 1621 11
.Ltmp1909:
	{
		zext r0, 16
		ldw r1, sp[1]
	}
	.loc	3 1621 11
	{
		zext r1, 16
		nop
	}
	.loc	3 1621 11
	{
		lsu r1, r0, r1
		nop
	}
	bf r1, .LBB31_43
.Ltmp1910:
	{
		mov r6, r5
		add r5, r0, 1
	}
	.loc	3 1150 3
.Ltmp1911:
	{
		mov r0, r5
		nop
	}
	{
		zext r0, 16
		nop
	}
	.loc	3 1151 7
.Ltmp1912:
	bf r0, .LBB31_25
.Ltmp1913:
	bf r7, .LBB31_27
.Ltmp1914:
	{
		mov r10, r8
		mov r8, r5
	}
.Ltmp1915:
	.loc	3 1154 7
	{
		zext r8, 4
		nop
	}
	bt r8, .LBB31_42
.Ltmp1916:
	.loc	3 1155 5
	{
		add r7, r7, 1
		nop
	}
	{
		nop
		stw r7, sp[18]
	}
	{
		nop
		ldw r1, sp[17]
	}
	.loc	3 1157 9
.Ltmp1917:
	bf r1, .LBB31_30
.Ltmp1918:
	.loc	3 1162 11
	{
		shr r0, r0, 4
		ldc r2, 2
	}
	{
		nop
		ld8u r2, r3[r2]
	}
	ldc r11, 4095
	.loc	3 1162 11
	{
		add r2, r2, r11
		nop
	}
	.loc	3 1162 11
	{
		and r0, r2, r0
		nop
	}
	bt r0, .LBB31_42
.Ltmp1919:
	.loc	3 1163 16
	{
		mov r0, r3
		mov r7, r3
	}
	bl get_fat
.Ltmp1920:
	{
		ldc r1, 2
		nop
	}
	.loc	3 1164 13
.Ltmp1921:
	{
		lsu r1, r0, r1
		nop
	}
	.loc	3 1164 13
	bt r1, .LBB31_34
.Ltmp1922:
	{
		mkmsk r1, 32
		nop
	}
	.loc	3 1165 13
.Ltmp1923:
	{
		eq r1, r0, r1
		nop
	}
	.loc	3 1165 13
	bt r1, .LBB31_36
.Ltmp1924:
	{
		mov r3, r7
		nop
	}
	{
		nop
		ldw r1, r3[7]
	}
	.loc	3 1166 13
.Ltmp1925:
	{
		lsu r2, r0, r1
		nop
	}
	bf r2, .LBB31_38
.Ltmp1926:
	.loc	3 1188 9
	{
		sub r0, r0, 2
		stw r0, sp[17]
	}
.Ltmp1927:
	.loc	3 834 7
	{
		sub r1, r1, 2
		nop
	}
	.loc	3 834 7
	{
		lsu r1, r0, r1
		mov r7, r9
	}
	bf r1, .LBB31_41
.Ltmp1928:
	{
		ldc r1, 2
		nop
	}
	{
		nop
		ld8u r1, r3[r1]
	}
	.loc	3 835 3
	mul r0, r1, r0
.Ltmp1929:
	{
		nop
		ldw r1, r3[11]
	}
	.loc	3 835 3
	{
		add r7, r0, r1
		nop
	}
.Ltmp1930:
.LBB31_41:
	{
		nop
		stw r7, sp[18]
	}
	bu .LBB31_42
.Ltmp1931:
.LBB31_30:
	.loc	3 1158 11
	{
		add r1, r3, 8
		nop
	}
	{
		nop
		ld16s r1, r1[r9]
	}
	.loc	3 1158 11
	{
		zext r1, 16
		nop
	}
	.loc	3 1158 11
	{
		lsu r0, r0, r1
		nop
	}
	bt r0, .LBB31_42
.Ltmp1932:
	{
		ldc r0, 2
		nop
	}
	bu .LBB31_55
.LBB31_43:
.Ltmp1933:
	bf r8, .LBB31_51
.Ltmp1934:
	{
		ldc r0, 2
		nop
	}
.Ltmp1935:
	.loc	3 963 7
	{
		lsu r1, r8, r0
		mov r2, r8
	}
.Ltmp1936:
	bt r1, .LBB31_55
.Ltmp1937:
	{
		nop
		ldw r1, r3[7]
	}
	.loc	3 963 7
	{
		lsu r1, r2, r1
		nop
	}
	bf r1, .LBB31_55
.Ltmp1938:
	{
		mkmsk r5, 2
		ldc r4, 0
	}
.Ltmp1939:
	{
		mov r10, r2
		ldc r8, 5
	}
.Ltmp1940:
	{
		mkmsk r9, 1
		nop
	}
.LBB31_47:
	.loc	3 969 13
.Ltmp1941:
	{
		mov r0, r3
		mov r1, r10
	}
	{
		mov r6, r3
		nop
	}
	bl get_fat
	{
		mov r7, r0
		nop
	}
	.loc	3 970 11
.Ltmp1942:
	{
		add r0, r7, 1
		nop
	}
	.loc	3 970 11
	{
		lsu r1, r0, r5
		nop
	}
	.loc	3 970 11
	bt r1, .LBB31_53
.Ltmp1943:
	.loc	3 973 13
	{
		mov r0, r6
		mov r1, r10
	}
	{
		mov r2, r4
		nop
	}
	bl put_fat
	bt r0, .LBB31_55
	{
		mov r3, r6
		nop
	}
	.loc	3 975 11
.Ltmp1944:
	{
		mkmsk r1, 32
		ldw r0, r3[4]
	}
	.loc	3 975 11
	{
		eq r1, r0, r1
		nop
	}
	bt r1, .LBB31_50
	.loc	3 976 9
.Ltmp1945:
	{
		add r0, r0, 1
		nop
	}
	{
		nop
		stw r0, r3[4]
	}
	.loc	3 977 9
	st8 r9, r3[r8]
.Ltmp1946:
.LBB31_50:
	{
		nop
		ldw r0, r3[7]
	}
	.loc	3 968 5
	{
		lsu r0, r7, r0
		mov r10, r7
	}
	bt r0, .LBB31_47
	bu .LBB31_51
.LBB31_21:
	{
		ldc r0, 2
		nop
	}
	bu .LBB31_55
.LBB31_25:
	{
		ldc r0, 2
		nop
	}
	bu .LBB31_55
.LBB31_27:
	{
		ldc r0, 2
		nop
	}
	bu .LBB31_55
.LBB31_34:
	{
		ldc r0, 2
		nop
	}
	bu .LBB31_55
.LBB31_36:
	{
		mov r0, r4
		nop
	}
	bu .LBB31_55
.LBB31_38:
	{
		ldc r0, 2
		nop
	}
	bu .LBB31_55
.LBB31_53:
.Ltmp1947:
	.loc	3 970 11
	ldaw r11, cp[.Lswitch.table2]
	{
		mov r3, r6
		nop
	}
	bf r7, .LBB31_51
.Ltmp1948:
	{
		nop
		ldw r0, r11[r0]
	}
	bu .LBB31_55
.LBB31_51:
	.loc	3 3268 35
.Ltmp1949:
	{
		mov r0, r3
		nop
	}
	bl sync
.Ltmp1950:
.LBB31_55:
	{
		nop
		ldw r10, sp[30]
	}
	{
		nop
		ldw r8, sp[28]
	}
	{
		nop
		ldw r9, sp[29]
	}
	{
		nop
		ldw r6, sp[26]
	}
	{
		nop
		ldw r7, sp[27]
	}
	{
		nop
		ldw r4, sp[24]
	}
	{
		nop
		ldw r5, sp[25]
	}
	{
		nop
		retsp 32
	}
	.loc	3 3275 1
	# RETURN_REG_HOLDER
.Ltmp1951:
	.cc_bottom f_unlink.function
	.set	f_unlink.nstackwords,((chk_mounted.nstackwords $M follow_path.nstackwords $M move_window.nstackwords $M sync.nstackwords $M get_fat.nstackwords $M put_fat.nstackwords $M dir_sdi.nstackwords $M dir_read.nstackwords) + 32)
	.globl	f_unlink.nstackwords
	.set	f_unlink.maxcores,chk_mounted.maxcores $M dir_read.maxcores $M dir_sdi.maxcores $M follow_path.maxcores $M get_fat.maxcores $M move_window.maxcores $M put_fat.maxcores $M sync.maxcores $M 1
	.globl	f_unlink.maxcores
	.set	f_unlink.maxtimers,chk_mounted.maxtimers $M dir_read.maxtimers $M dir_sdi.maxtimers $M follow_path.maxtimers $M get_fat.maxtimers $M move_window.maxtimers $M put_fat.maxtimers $M sync.maxtimers $M 0
	.globl	f_unlink.maxtimers
	.set	f_unlink.maxchanends,chk_mounted.maxchanends $M dir_read.maxchanends $M dir_sdi.maxchanends $M follow_path.maxchanends $M get_fat.maxchanends $M move_window.maxchanends $M put_fat.maxchanends $M sync.maxchanends $M 0
	.globl	f_unlink.maxchanends
.Ltmp1952:
	.size	f_unlink, .Ltmp1952-f_unlink
.Lfunc_end31:
	.cfi_endproc

	.section	.cp.rodata.cst4,"aMc",@progbits,4
	.cc_top .LCPI32_0.data,.LCPI32_0
	.align	4
	.type	.LCPI32_0,@object
	.size	.LCPI32_0, 4
.LCPI32_0:
	.long	4294967265
	.cc_bottom .LCPI32_0.data
	.text
	.globl	f_mkdir
	.align	4
	.type	f_mkdir,@function
	.cc_top f_mkdir.function,f_mkdir
f_mkdir:
.Lfunc_begin32:
	.loc	3 3287 0
	.cfi_startproc
	.issue_mode dual
	{
		nop
		dualentsp 34
	}
.Ltmp1953:
	.cfi_def_cfa_offset 136
.Ltmp1954:
	.cfi_offset 15, 0
	{
		nop
		stw r4, sp[26]
	}
	{
		nop
		stw r5, sp[27]
	}
.Ltmp1955:
	.cfi_offset 4, -32
.Ltmp1956:
	.cfi_offset 5, -28
	{
		nop
		stw r6, sp[28]
	}
	{
		nop
		stw r7, sp[29]
	}
.Ltmp1957:
	.cfi_offset 6, -24
.Ltmp1958:
	.cfi_offset 7, -20
	{
		nop
		stw r8, sp[30]
	}
	{
		nop
		stw r9, sp[31]
	}
.Ltmp1959:
	.cfi_offset 8, -16
.Ltmp1960:
	.cfi_offset 9, -12
	{
		nop
		stw r10, sp[32]
	}
.Ltmp1961:
	.cfi_offset 10, -8
	{
		nop
		stw r0, sp[25]
	}
	.loc	3 3291 30 prologue_end
.Ltmp1962:
	bl get_fattime
.Ltmp1963:
	{
		mov r5, r0
		ldaw r0, sp[25]
	}
.Ltmp1964:
	{
		ldaw r1, sp[16]
		mkmsk r7, 1
	}
	.loc	3 3295 9
	{
		mov r2, r7
		nop
	}
	bl chk_mounted
.Ltmp1965:
	bt r0, .LBB32_58
.Ltmp1966:
	{
		ldaw r0, sp[13]
		nop
	}
	{
		nop
		stw r0, sp[22]
	}
	.loc	3 3297 5
.Ltmp1967:
	ldaw r0, dp[LfnBuf]
	{
		nop
		stw r0, sp[23]
	}
.Ltmp1968:
	.loc	3 3298 11
	{
		ldaw r0, sp[16]
		ldw r1, sp[25]
	}
.Ltmp1969:
	.loc	3 3298 11
	bl follow_path
.Ltmp1970:
	bt r0, .LBB32_3
.Ltmp1971:
	{
		ldc r0, 8
		nop
	}
.Ltmp1972:
.LBB32_3:
	.loc	3 3300 9
	{
		eq r1, r0, 4
		nop
	}
	bf r1, .LBB32_58
.Ltmp1973:
	.loc	3 3300 9
	{
		ldc r1, 11
		ldw r0, sp[22]
	}
	.loc	3 3300 9
	{
		ldc r1, 32
		ld8u r0, r0[r1]
	}
	.loc	3 3300 9
	{
		and r0, r0, r1
		nop
	}
.Ltmp1974:
	bf r0, .LBB32_6
.Ltmp1975:
	{
		ldc r0, 6
		nop
	}
	bu .LBB32_58
.LBB32_6:
.Ltmp1976:
	.loc	3 3303 13
	{
		ldc r8, 0
		ldw r10, sp[16]
	}
.Ltmp1977:
	.loc	3 3303 13
	{
		mov r0, r10
		mov r1, r8
	}
	bl create_chain
	{
		mov r4, r0
		nop
	}
.Ltmp1978:
	bt r4, .LBB32_8
.Ltmp1979:
	{
		mkmsk r8, 3
		nop
	}
.Ltmp1980:
.LBB32_8:
	.loc	3 3306 11
	{
		eq r0, r4, 1
		nop
	}
	bf r0, .LBB32_10
.Ltmp1981:
	{
		ldc r8, 2
		nop
	}
.Ltmp1982:
.LBB32_10:
	{
		mkmsk r0, 32
		nop
	}
	.loc	3 3307 11
.Ltmp1983:
	{
		eq r0, r4, r0
		nop
	}
	bt r0, .LBB32_12
.Ltmp1984:
	.loc	3 3307 11
	{
		mov r7, r8
		nop
	}
.Ltmp1985:
.LBB32_12:
	bt r7, .LBB32_44
.Ltmp1986:
	{
		mov r6, r4
		stw r5, sp[10]
	}
.Ltmp1987:
	{
		ldc r0, 48
		nop
	}
	.loc	3 754 3
.Ltmp1988:
	{
		add r0, r10, r0
		nop
	}
	{
		nop
		ldw r9, r0[0]
	}
.Ltmp1989:
	bf r9, .LBB32_21
.Ltmp1990:
	{
		ldc r4, 4
		nop
	}
	{
		nop
		ld8u r0, r10[r4]
	}
	bf r0, .LBB32_21
.Ltmp1991:
	{
		ldc r0, 52
		nop
	}
	.loc	3 758 11
.Ltmp1992:
	{
		add r8, r10, r0
		mkmsk r7, 1
	}
	.loc	3 758 11
	{
		mov r1, r8
		ld8u r0, r10[r7]
	}
	{
		mov r2, r9
		mov r3, r7
	}
	bl disk_write
	.loc	3 758 11
	bf r0, .LBB32_17
.Ltmp1993:
	{
		mov r4, r6
		nop
	}
.Ltmp1994:
	bu .LBB32_44
.Ltmp1995:
.LBB32_17:
	{
		ldc r0, 0
		nop
	}
	.loc	3 760 7
	st8 r0, r10[r4]
	{
		nop
		ldw r1, r10[9]
	}
	{
		nop
		ldw r0, r10[8]
	}
	.loc	3 761 11
.Ltmp1996:
	{
		add r1, r0, r1
		nop
	}
	.loc	3 761 11
	{
		lsu r1, r9, r1
		nop
	}
	bf r1, .LBB32_21
.Ltmp1997:
	{
		mkmsk r1, 2
		nop
	}
	.loc	3 763 14
.Ltmp1998:
	{
		ldc r4, 2
		ld8u r5, r10[r1]
	}
	{
		lsu r1, r5, r4
		nop
	}
	bt r1, .LBB32_21
.Ltmp1999:
	.loc	3 764 11
	{
		add r7, r9, r0
		mkmsk r9, 1
	}
.Ltmp2000:
	.loc	3 765 11
	{
		mov r1, r8
		ld8u r0, r10[r9]
	}
	{
		mov r2, r7
		mov r3, r9
	}
	bl disk_write
.Ltmp2001:
	.loc	3 763 39
	{
		sub r5, r5, 1
		nop
	}
	{
		mov r0, r5
		nop
	}
	{
		zext r0, 8
		nop
	}
	.loc	3 763 9
	{
		lsu r0, r0, r4
		nop
	}
	bt r0, .LBB32_21
.Ltmp2002:
.LBB32_20:
	{
		nop
		ldw r0, r10[8]
	}
	.loc	3 764 11
.Ltmp2003:
	{
		add r7, r7, r0
		ld8u r0, r10[r9]
	}
.Ltmp2004:
	.loc	3 765 11
	{
		mov r1, r8
		mov r2, r7
	}
	{
		mov r3, r9
		nop
	}
	bl disk_write
.Ltmp2005:
	.loc	3 763 39
	{
		sub r5, r5, 1
		nop
	}
	{
		mov r0, r5
		nop
	}
	{
		zext r0, 8
		nop
	}
	.loc	3 763 9
	{
		lsu r0, r9, r0
		nop
	}
	bt r0, .LBB32_20
.Ltmp2006:
.LBB32_21:
	{
		mov r4, r6
		nop
	}
.Ltmp2007:
	.loc	3 833 3
	{
		sub r0, r4, 2
		ldw r1, r10[7]
	}
.Ltmp2008:
	.loc	3 834 7
	{
		sub r1, r1, 2
		ldc r7, 0
	}
	.loc	3 834 7
	{
		lsu r1, r0, r1
		mov r8, r7
	}
	bf r1, .LBB32_23
.Ltmp2009:
	{
		ldc r1, 2
		nop
	}
	{
		nop
		ld8u r1, r10[r1]
	}
	.loc	3 835 3
	mul r0, r1, r0
.Ltmp2010:
	{
		nop
		ldw r1, r10[11]
	}
	.loc	3 835 3
	{
		add r8, r0, r1
		nop
	}
.Ltmp2011:
.LBB32_23:
	{
		ldc r9, 52
		nop
	}
	.loc	3 3312 9
	{
		add r5, r10, r9
		nop
	}
.Ltmp2012:
	{
		nop
		stw r5, sp[12]
	}
	ldc r2, 512
	.loc	3 577 5
.Ltmp2013:
	{
		mov r0, r5
		mov r1, r7
	}
	bl memset
.Ltmp2014:
	{
		ldc r1, 32
		ldc r2, 11
	}
.Ltmp2015:
	.loc	3 577 5
	{
		mov r0, r5
		nop
	}
.Ltmp2016:
	bl memset
	{
		ldc r0, 46
		nop
	}
.Ltmp2017:
	.loc	3 3315 9
	st8 r0, r10[r9]
	{
		mkmsk r1, 6
		ldc r2, 16
	}
	.loc	3 3316 9
	st8 r2, r10[r1]
	ldc r1, 74
	{
		nop
		ldw r2, sp[10]
	}
.Ltmp2018:
	.loc	3 3317 9
	st8 r2, r10[r1]
	.loc	3 3317 9
	{
		shr r3, r2, 8
		nop
	}
	{
		nop
		stw r3, sp[8]
	}
	ldc r1, 75
	.loc	3 3317 9
	st8 r3, r10[r1]
	.loc	3 3317 9
	{
		shr r3, r2, 16
		nop
	}
	{
		nop
		stw r3, sp[7]
	}
	ldc r1, 76
	.loc	3 3317 9
	st8 r3, r10[r1]
	.loc	3 3317 9
	{
		shr r2, r2, 24
		nop
	}
.Ltmp2019:
	{
		nop
		stw r2, sp[6]
	}
	ldc r1, 77
	.loc	3 3317 9
	st8 r2, r10[r1]
	ldc r1, 78
	.loc	3 3318 9
.Ltmp2020:
	st8 r4, r10[r1]
	.loc	3 3318 9
	{
		shr r2, r4, 8
		nop
	}
	{
		nop
		stw r2, sp[5]
	}
	ldc r1, 79
	.loc	3 3318 9
	st8 r2, r10[r1]
	.loc	3 3318 9
	{
		shr r2, r4, 16
		nop
	}
	{
		nop
		stw r2, sp[4]
	}
	ldc r1, 72
	.loc	3 3318 9
	st8 r2, r10[r1]
	.loc	3 3318 9
	{
		shr r2, r4, 24
		nop
	}
	{
		nop
		stw r2, sp[3]
	}
	ldc r1, 73
	.loc	3 3318 9
	st8 r2, r10[r1]
	ldc r1, 84
.Ltmp2021:
	.loc	3 3319 9
	{
		add r1, r10, r1
		ldc r2, 53
	}
.Ltmp2022:
	{
		add r2, r10, r2
		nop
	}
	ldw r3, cp[.LCPI32_0]
	bu .LBB32_24
.Ltmp2023:
.LBB32_25:
	.loc	3 568 5
	{
		add r1, r1, 1
		ld8u r0, r2[r7]
	}
.Ltmp2024:
	.loc	3 567 3
	{
		add r2, r2, 1
		add r3, r3, 1
	}
.Ltmp2025:
.LBB32_24:
	.loc	3 568 5
	st8 r0, r1[r7]
.xtaloop 32
	# LOOPMARKER 0
	.loc	3 567 3
	bt r3, .LBB32_25
.Ltmp2026:
	ldc r0, 85
	{
		ldc r1, 46
		nop
	}
	.loc	3 3320 9
	st8 r1, r10[r0]
	{
		nop
		ldw r1, sp[18]
	}
.Ltmp2027:
	.loc	3 3321 13
	{
		ldc r3, 0
		ldw r6, sp[16]
	}
.Ltmp2028:
	{
		nop
		ld8u r0, r6[r3]
	}
	.loc	3 3321 13
	{
		eq r0, r0, 3
		nop
	}
	bf r0, .LBB32_27
.Ltmp2029:
	{
		nop
		ldw r0, r6[10]
	}
.Ltmp2030:
	.loc	3 3321 13
	{
		eq r2, r1, r0
		mov r0, r3
	}
	bt r2, .LBB32_30
.Ltmp2031:
	.loc	3 3321 13
	{
		mov r0, r1
		nop
	}
.Ltmp2032:
.LBB32_30:
	{
		nop
		stw r4, sp[9]
	}
.Ltmp2033:
	bu .LBB32_31
.Ltmp2034:
.LBB32_27:
	{
		mov r0, r1
		stw r4, sp[9]
	}
.Ltmp2035:
.LBB32_31:
	ldc r1, 110
	.loc	3 3323 9
.Ltmp2036:
	st8 r0, r10[r1]
	.loc	3 3323 9
	{
		shr r1, r0, 8
		nop
	}
	ldc r2, 111
	.loc	3 3323 9
	st8 r1, r10[r2]
	.loc	3 3323 9
	{
		shr r1, r0, 16
		nop
	}
	ldc r2, 104
	.loc	3 3323 9
	st8 r1, r10[r2]
	.loc	3 3323 9
	{
		shr r0, r0, 24
		nop
	}
	ldc r1, 105
	.loc	3 3323 9
	st8 r0, r10[r1]
	{
		ldc r0, 2
		nop
	}
	{
		nop
		ld8u r5, r6[r0]
	}
	bf r5, .LBB32_41
.Ltmp2037:
	{
		ldc r0, 48
		nop
	}
	.loc	3 3325 11
.Ltmp2038:
	{
		add r0, r6, r0
		nop
	}
	.loc	3 758 11
.Ltmp2039:
	{
		add r9, r6, r9
		stw r0, sp[11]
	}
	{
		mkmsk r7, 1
		nop
	}
.Ltmp2040:
.LBB32_33:
	{
		nop
		ldw r0, sp[11]
	}
	.loc	3 3325 11
	{
		ldc r0, 4
		stw r8, r0[0]
	}
	.loc	3 3326 11
	st8 r7, r6[r0]
.Ltmp2041:
	bf r8, .LBB32_40
.Ltmp2042:
	.loc	3 758 11
	{
		mov r1, r9
		ld8u r0, r6[r7]
	}
	{
		mov r2, r8
		mov r3, r7
	}
	bl disk_write
	.loc	3 758 11
	bt r0, .LBB32_35
.Ltmp2043:
	.loc	3 3321 13
	{
		ldc r0, 0
		ldc r1, 4
	}
.Ltmp2044:
	.loc	3 760 7
	st8 r0, r6[r1]
	{
		nop
		ldw r1, r6[9]
	}
	{
		nop
		ldw r0, r6[8]
	}
	.loc	3 761 11
.Ltmp2045:
	{
		add r1, r0, r1
		nop
	}
	.loc	3 761 11
	{
		lsu r1, r8, r1
		nop
	}
	bf r1, .LBB32_40
.Ltmp2046:
	{
		mkmsk r1, 2
		nop
	}
	.loc	3 763 14
.Ltmp2047:
	{
		ldc r1, 2
		ld8u r4, r6[r1]
	}
	{
		lsu r1, r4, r1
		nop
	}
	bt r1, .LBB32_40
.Ltmp2048:
	.loc	3 764 11
	{
		add r10, r8, r0
		ld8u r0, r6[r7]
	}
.Ltmp2049:
	.loc	3 765 11
	{
		mov r1, r9
		mov r2, r10
	}
	{
		mov r3, r7
		nop
	}
	bl disk_write
.Ltmp2050:
	.loc	3 763 39
	{
		sub r4, r4, 1
		nop
	}
	{
		mov r0, r4
		nop
	}
	{
		zext r0, 8
		ldc r1, 2
	}
	.loc	3 763 9
	{
		lsu r0, r0, r1
		nop
	}
	bt r0, .LBB32_40
.Ltmp2051:
.LBB32_39:
	{
		nop
		ldw r0, r6[8]
	}
	.loc	3 764 11
.Ltmp2052:
	{
		add r10, r10, r0
		ld8u r0, r6[r7]
	}
.Ltmp2053:
	.loc	3 765 11
	{
		mov r1, r9
		mov r2, r10
	}
	{
		mov r3, r7
		nop
	}
	bl disk_write
.Ltmp2054:
	.loc	3 763 39
	{
		sub r4, r4, 1
		nop
	}
	{
		mov r0, r4
		nop
	}
	{
		zext r0, 8
		nop
	}
	.loc	3 763 9
	{
		lsu r0, r7, r0
		nop
	}
	bt r0, .LBB32_39
.Ltmp2055:
.LBB32_40:
	.loc	3 3325 11
	{
		add r8, r8, 1
		ldw r0, sp[12]
	}
.Ltmp2056:
	.loc	3 3321 13
	{
		ldc r1, 0
		nop
	}
	ldc r2, 512
.Ltmp2057:
	.loc	3 577 5
	bl memset
.Ltmp2058:
	.loc	3 3324 35
	{
		sub r5, r5, 1
		nop
	}
	{
		mov r0, r5
		nop
	}
	{
		zext r0, 8
		nop
	}
	bt r0, .LBB32_33
.Ltmp2059:
.LBB32_41:
	{
		ldaw r0, sp[16]
		nop
	}
.Ltmp2060:
	.loc	3 3332 31
	bl dir_register
.Ltmp2061:
	{
		mov r7, r0
		nop
	}
.Ltmp2062:
	.loc	3 3333 11
	bf r7, .LBB32_57
.Ltmp2063:
	{
		nop
		ldw r10, sp[16]
	}
	bu .LBB32_43
.Ltmp2064:
.LBB32_57:
	.loc	3 3336 9
	{
		ldc r1, 11
		ldw r0, sp[21]
	}
.Ltmp2065:
	{
		ldc r2, 16
		nop
	}
	.loc	3 3337 9
	st8 r2, r0[r1]
	{
		ldc r1, 22
		ldw r2, sp[10]
	}
	.loc	3 3338 9
	st8 r2, r0[r1]
	{
		ldc r1, 23
		ldw r2, sp[8]
	}
	.loc	3 3338 9
	st8 r2, r0[r1]
	{
		ldc r1, 24
		ldw r2, sp[7]
	}
	.loc	3 3338 9
	st8 r2, r0[r1]
	{
		ldc r1, 25
		ldw r2, sp[6]
	}
	.loc	3 3338 9
	st8 r2, r0[r1]
	{
		ldc r1, 26
		ldw r2, sp[9]
	}
	.loc	3 3339 9
.Ltmp2066:
	st8 r2, r0[r1]
	{
		ldc r1, 27
		ldw r2, sp[5]
	}
	.loc	3 3339 9
	st8 r2, r0[r1]
	{
		ldc r1, 20
		ldw r2, sp[4]
	}
	.loc	3 3339 9
	st8 r2, r0[r1]
	{
		ldc r1, 21
		ldw r2, sp[3]
	}
	.loc	3 3339 9
	st8 r2, r0[r1]
.Ltmp2067:
	.loc	3 3340 9
	{
		ldc r1, 4
		ldw r0, sp[16]
	}
	{
		mkmsk r2, 1
		nop
	}
	.loc	3 3340 9
	st8 r2, r0[r1]
	.loc	3 3341 15
	bl sync
.Ltmp2068:
	bu .LBB32_58
.Ltmp2069:
.LBB32_35:
	{
		mov r10, r6
		nop
	}
.Ltmp2070:
.LBB32_43:
	{
		nop
		ldw r4, sp[9]
	}
.Ltmp2071:
.LBB32_44:
	{
		ldc r0, 2
		nop
	}
	.loc	3 963 7
.Ltmp2072:
	{
		lsu r0, r4, r0
		nop
	}
	.loc	3 963 7
	bf r0, .LBB32_46
.Ltmp2073:
	{
		mov r0, r7
		nop
	}
	bu .LBB32_58
.LBB32_46:
.Ltmp2074:
	{
		nop
		ldw r0, r10[7]
	}
	.loc	3 963 7
	{
		lsu r0, r4, r0
		nop
	}
	bf r0, .LBB32_47
.Ltmp2075:
	{
		mkmsk r6, 2
		ldc r5, 0
	}
	{
		mkmsk r9, 1
		nop
	}
.Ltmp2076:
.LBB32_49:
	.loc	3 969 13
	{
		mov r0, r10
		mov r1, r4
	}
	bl get_fat
	{
		mov r8, r0
		nop
	}
.Ltmp2077:
	.loc	3 970 11
	{
		add r0, r8, 1
		nop
	}
	.loc	3 970 11
	{
		lsu r0, r0, r6
		nop
	}
	.loc	3 970 11
	bt r0, .LBB32_50
.Ltmp2078:
	.loc	3 973 13
	{
		mov r0, r10
		mov r1, r4
	}
	{
		mov r2, r5
		nop
	}
	bl put_fat
.Ltmp2079:
	.loc	3 974 11
	bt r0, .LBB32_52
.Ltmp2080:
	.loc	3 975 11
	{
		mkmsk r1, 32
		ldw r0, r10[4]
	}
	.loc	3 975 11
	{
		eq r1, r0, r1
		nop
	}
	bt r1, .LBB32_54
.Ltmp2081:
	.loc	3 976 9
	{
		add r0, r0, 1
		nop
	}
	.loc	3 976 9
	{
		ldc r0, 5
		stw r0, r10[4]
	}
	.loc	3 977 9
	st8 r9, r10[r0]
.Ltmp2082:
.LBB32_54:
	{
		nop
		ldw r0, r10[7]
	}
.Ltmp2083:
	.loc	3 968 5
	{
		lsu r0, r8, r0
		mov r4, r8
	}
.Ltmp2084:
	bt r0, .LBB32_49
.Ltmp2085:
	{
		mov r0, r7
		nop
	}
	bu .LBB32_58
.LBB32_47:
	{
		mov r0, r7
		nop
	}
	bu .LBB32_58
.LBB32_50:
	{
		mov r0, r7
		nop
	}
	bu .LBB32_58
.LBB32_52:
	{
		mov r0, r7
		nop
	}
.LBB32_58:
	{
		nop
		ldw r10, sp[32]
	}
	{
		nop
		ldw r8, sp[30]
	}
	{
		nop
		ldw r9, sp[31]
	}
	{
		nop
		ldw r6, sp[28]
	}
	{
		nop
		ldw r7, sp[29]
	}
	{
		nop
		ldw r4, sp[26]
	}
	{
		nop
		ldw r5, sp[27]
	}
	{
		nop
		retsp 34
	}
	.loc	3 3348 1
	# RETURN_REG_HOLDER
.Ltmp2086:
	.cc_bottom f_mkdir.function
	.set	f_mkdir.nstackwords,((get_fattime.nstackwords $M chk_mounted.nstackwords $M follow_path.nstackwords $M create_chain.nstackwords $M dir_register.nstackwords $M sync.nstackwords $M get_fat.nstackwords $M put_fat.nstackwords $M memset.nstackwords $M disk_write.nstackwords) + 34)
	.globl	f_mkdir.nstackwords
	.set	f_mkdir.maxcores,chk_mounted.maxcores $M create_chain.maxcores $M dir_register.maxcores $M disk_write.maxcores $M follow_path.maxcores $M get_fat.maxcores $M get_fattime.maxcores $M put_fat.maxcores $M sync.maxcores $M 1
	.globl	f_mkdir.maxcores
	.set	f_mkdir.maxtimers,chk_mounted.maxtimers $M create_chain.maxtimers $M dir_register.maxtimers $M disk_write.maxtimers $M follow_path.maxtimers $M get_fat.maxtimers $M get_fattime.maxtimers $M put_fat.maxtimers $M sync.maxtimers $M 0
	.globl	f_mkdir.maxtimers
	.set	f_mkdir.maxchanends,chk_mounted.maxchanends $M create_chain.maxchanends $M dir_register.maxchanends $M disk_write.maxchanends $M follow_path.maxchanends $M get_fat.maxchanends $M get_fattime.maxchanends $M put_fat.maxchanends $M sync.maxchanends $M 0
	.globl	f_mkdir.maxchanends
.Ltmp2087:
	.size	f_mkdir, .Ltmp2087-f_mkdir
.Lfunc_end32:
	.cfi_endproc

	.globl	f_chmod
	.align	4
	.type	f_chmod,@function
	.cc_top f_chmod.function,f_chmod
f_chmod:
.Lfunc_begin33:
	.loc	3 3362 0
	.cfi_startproc
	.issue_mode dual
	{
		nop
		dualentsp 18
	}
.Ltmp2088:
	.cfi_def_cfa_offset 72
.Ltmp2089:
	.cfi_offset 15, 0
	std r5, r4, sp[7]
.Ltmp2090:
	.cfi_offset 4, -16
.Ltmp2091:
	.cfi_offset 5, -12
.Ltmp2092:
	.cfi_offset 6, -8
.Ltmp2093:
	{
		mov r4, r2
		stw r6, sp[16]
	}
.Ltmp2094:
	{
		mov r6, r1
		stw r0, sp[13]
	}
.Ltmp2095:
	{
		ldaw r0, sp[13]
		ldaw r1, sp[4]
	}
.Ltmp2096:
	{
		mkmsk r5, 1
		nop
	}
	.loc	3 3369 9 prologue_end
.Ltmp2097:
	{
		mov r2, r5
		nop
	}
	bl chk_mounted
.Ltmp2098:
	bt r0, .LBB33_5
.Ltmp2099:
	{
		ldaw r0, sp[1]
		nop
	}
	{
		nop
		stw r0, sp[10]
	}
	.loc	3 3371 5
.Ltmp2100:
	ldaw r0, dp[LfnBuf]
	{
		nop
		stw r0, sp[11]
	}
.Ltmp2101:
	.loc	3 3372 11
	{
		ldaw r0, sp[4]
		ldw r1, sp[13]
	}
.Ltmp2102:
	.loc	3 3372 11
	bl follow_path
.Ltmp2103:
	bt r0, .LBB33_5
.Ltmp2104:
	.loc	3 3374 9
	{
		ldc r1, 11
		ldw r0, sp[10]
	}
	.loc	3 3374 9
	{
		ldc r2, 32
		ld8u r0, r0[r1]
	}
.Ltmp2105:
	.loc	3 3374 9
	{
		and r2, r0, r2
		ldc r0, 6
	}
	bt r2, .LBB33_5
.Ltmp2106:
	{
		nop
		ldw r2, sp[9]
	}
.Ltmp2107:
	bf r2, .LBB33_5
.Ltmp2108:
	.loc	3 3381 9
	{
		and r0, r6, r4
		ldc r3, 39
	}
	.loc	3 3382 9
	{
		and r0, r0, r3
		ld8u r11, r2[r1]
	}
	ldc r6, 216
	.loc	3 3382 9
	{
		or r4, r4, r6
		nop
	}
	.loc	3 3382 9
	xor r3, r4, r3
	.loc	3 3382 9
	{
		and r3, r11, r3
		nop
	}
	.loc	3 3382 9
	{
		or r0, r3, r0
		nop
	}
	.loc	3 3382 9
	st8 r0, r2[r1]
	.loc	3 3383 9
	{
		ldc r1, 4
		ldw r0, sp[4]
	}
	.loc	3 3383 9
	st8 r5, r0[r1]
	.loc	3 3384 15
	bl sync
.Ltmp2109:
.LBB33_5:
	{
		nop
		ldw r6, sp[16]
	}
	.loc	3 3390 1
	ldd r5, r4, sp[7]
	{
		nop
		retsp 18
	}
	# RETURN_REG_HOLDER
.Ltmp2110:
	.cc_bottom f_chmod.function
	.set	f_chmod.nstackwords,((chk_mounted.nstackwords $M follow_path.nstackwords $M sync.nstackwords) + 18)
	.globl	f_chmod.nstackwords
	.set	f_chmod.maxcores,chk_mounted.maxcores $M follow_path.maxcores $M sync.maxcores $M 1
	.globl	f_chmod.maxcores
	.set	f_chmod.maxtimers,chk_mounted.maxtimers $M follow_path.maxtimers $M sync.maxtimers $M 0
	.globl	f_chmod.maxtimers
	.set	f_chmod.maxchanends,chk_mounted.maxchanends $M follow_path.maxchanends $M sync.maxchanends $M 0
	.globl	f_chmod.maxchanends
.Ltmp2111:
	.size	f_chmod, .Ltmp2111-f_chmod
.Lfunc_end33:
	.cfi_endproc

	.globl	f_utime
	.align	4
	.type	f_utime,@function
	.cc_top f_utime.function,f_utime
f_utime:
.Lfunc_begin34:
	.loc	3 3403 0
	.cfi_startproc
	.issue_mode dual
	{
		nop
		dualentsp 16
	}
.Ltmp2112:
	.cfi_def_cfa_offset 64
.Ltmp2113:
	.cfi_offset 15, 0
	std r5, r4, sp[7]
.Ltmp2114:
	.cfi_offset 4, -8
.Ltmp2115:
	.cfi_offset 5, -4
.Ltmp2116:
	{
		mov r4, r1
		stw r0, sp[13]
	}
.Ltmp2117:
	{
		ldaw r0, sp[13]
		ldaw r1, sp[4]
	}
.Ltmp2118:
	{
		mkmsk r5, 1
		nop
	}
	.loc	3 3410 9 prologue_end
.Ltmp2119:
	{
		mov r2, r5
		nop
	}
	bl chk_mounted
.Ltmp2120:
	bt r0, .LBB34_5
.Ltmp2121:
	{
		ldaw r0, sp[1]
		nop
	}
	{
		nop
		stw r0, sp[10]
	}
	.loc	3 3412 5
.Ltmp2122:
	ldaw r0, dp[LfnBuf]
	{
		nop
		stw r0, sp[11]
	}
.Ltmp2123:
	.loc	3 3413 11
	{
		ldaw r0, sp[4]
		ldw r1, sp[13]
	}
.Ltmp2124:
	.loc	3 3413 11
	bl follow_path
.Ltmp2125:
	bt r0, .LBB34_5
.Ltmp2126:
	.loc	3 3415 9
	{
		ldc r1, 11
		ldw r0, sp[10]
	}
	.loc	3 3415 9
	{
		ldc r1, 32
		ld8u r0, r0[r1]
	}
.Ltmp2127:
	.loc	3 3415 9
	{
		and r1, r0, r1
		ldc r0, 6
	}
	bt r1, .LBB34_5
.Ltmp2128:
	{
		nop
		ldw r1, sp[9]
	}
.Ltmp2129:
	bf r1, .LBB34_5
.Ltmp2130:
	{
		ldc r0, 6
		nop
	}
	.loc	3 3422 9
.Ltmp2131:
	{
		ldc r2, 22
		ld8u r0, r4[r0]
	}
	.loc	3 3422 9
	st8 r0, r1[r2]
	{
		mkmsk r0, 3
		nop
	}
	.loc	3 3422 9
	{
		ldc r2, 23
		ld8u r0, r4[r0]
	}
	.loc	3 3422 9
	st8 r0, r1[r2]
	{
		ldc r2, 4
		nop
	}
	.loc	3 3423 9
	{
		ldc r3, 24
		ld8u r0, r4[r2]
	}
	.loc	3 3423 9
	st8 r0, r1[r3]
	{
		ldc r0, 5
		nop
	}
	.loc	3 3423 9
	{
		ldc r3, 25
		ld8u r0, r4[r0]
	}
	.loc	3 3423 9
	st8 r0, r1[r3]
	{
		nop
		ldw r0, sp[4]
	}
	.loc	3 3424 9
	st8 r5, r0[r2]
	.loc	3 3425 15
	bl sync
.Ltmp2132:
.LBB34_5:
	.loc	3 3431 1
	ldd r5, r4, sp[7]
	{
		nop
		retsp 16
	}
	# RETURN_REG_HOLDER
.Ltmp2133:
	.cc_bottom f_utime.function
	.set	f_utime.nstackwords,((chk_mounted.nstackwords $M follow_path.nstackwords $M sync.nstackwords) + 16)
	.globl	f_utime.nstackwords
	.set	f_utime.maxcores,chk_mounted.maxcores $M follow_path.maxcores $M sync.maxcores $M 1
	.globl	f_utime.maxcores
	.set	f_utime.maxtimers,chk_mounted.maxtimers $M follow_path.maxtimers $M sync.maxtimers $M 0
	.globl	f_utime.maxtimers
	.set	f_utime.maxchanends,chk_mounted.maxchanends $M follow_path.maxchanends $M sync.maxchanends $M 0
	.globl	f_utime.maxchanends
.Ltmp2134:
	.size	f_utime, .Ltmp2134-f_utime
.Lfunc_end34:
	.cfi_endproc

	.section	.cp.rodata.cst4,"aMc",@progbits,4
	.cc_top .LCPI35_0.data,.LCPI35_0
	.align	4
	.type	.LCPI35_0,@object
	.size	.LCPI35_0, 4
.LCPI35_0:
	.long	4294967285
	.cc_bottom .LCPI35_0.data
	.text
	.globl	f_rename
	.align	4
	.type	f_rename,@function
	.cc_top f_rename.function,f_rename
f_rename:
.Lfunc_begin35:
	.loc	3 3444 0
	.cfi_startproc
	.issue_mode dual
	{
		nop
		dualentsp 38
	}
.Ltmp2135:
	.cfi_def_cfa_offset 152
.Ltmp2136:
	.cfi_offset 15, 0
	{
		nop
		stw r4, sp[30]
	}
	{
		nop
		stw r5, sp[31]
	}
.Ltmp2137:
	.cfi_offset 4, -32
.Ltmp2138:
	.cfi_offset 5, -28
	{
		nop
		stw r6, sp[32]
	}
	{
		nop
		stw r7, sp[33]
	}
.Ltmp2139:
	.cfi_offset 6, -24
.Ltmp2140:
	.cfi_offset 7, -20
	{
		nop
		stw r8, sp[34]
	}
	{
		nop
		stw r9, sp[35]
	}
.Ltmp2141:
	.cfi_offset 8, -16
.Ltmp2142:
	.cfi_offset 9, -12
.Ltmp2143:
	.cfi_offset 10, -8
.Ltmp2144:
	{
		mov r6, r1
		stw r10, sp[36]
	}
.Ltmp2145:
	{
		ldaw r0, sp[29]
		stw r0, sp[29]
	}
.Ltmp2146:
	{
		ldaw r1, sp[20]
		mkmsk r4, 1
	}
	.loc	3 3452 9 prologue_end
.Ltmp2147:
	{
		mov r2, r4
		nop
	}
	bl chk_mounted
.Ltmp2148:
	bt r0, .LBB35_55
.Ltmp2149:
	{
		nop
		ldw r0, sp[20]
	}
	.loc	3 3454 5
.Ltmp2150:
	{
		ldaw r0, sp[2]
		stw r0, sp[11]
	}
	{
		nop
		stw r0, sp[26]
	}
	.loc	3 3455 5
.Ltmp2151:
	ldaw r0, dp[LfnBuf]
	{
		nop
		stw r0, sp[27]
	}
.Ltmp2152:
	.loc	3 3456 11
	{
		ldaw r5, sp[20]
		ldw r1, sp[29]
	}
.Ltmp2153:
	.loc	3 3456 11
	{
		mov r0, r5
		nop
	}
	bl follow_path
.Ltmp2154:
	bt r0, .LBB35_55
.Ltmp2155:
	.loc	3 3457 9
	{
		ldc r1, 11
		ldw r0, sp[26]
	}
	.loc	3 3457 9
	{
		ldc r8, 32
		ld8u r0, r0[r1]
	}
	.loc	3 3457 9
	{
		and r0, r0, r8
		nop
	}
.Ltmp2156:
	bf r0, .LBB35_4
.Ltmp2157:
	{
		ldc r0, 6
		nop
	}
	bu .LBB35_55
.LBB35_4:
.Ltmp2158:
	{
		nop
		ldw r2, sp[25]
	}
	.loc	3 3463 11
.Ltmp2159:
	bf r2, .LBB35_5
.Ltmp2160:
	{
		ldaw r9, sp[5]
		nop
	}
	ldw r7, cp[.LCPI35_0]
	{
		ldc r0, 0
		nop
	}
.Ltmp2161:
.LBB35_7:
	.loc	3 568 5
	{
		add r11, r9, r1
		ld8u r3, r2[r1]
	}
	.loc	3 568 5
	st8 r3, r11[r7]
	.loc	3 567 3
	{
		add r1, r1, 1
		nop
	}
.xtaloop 21
	# LOOPMARKER 0
	.loc	3 567 3
	{
		eq r3, r1, r8
		nop
	}
	bf r3, .LBB35_7
.Ltmp2162:
	{
		ldaw r1, sp[11]
		ldc r2, 36
	}
.Ltmp2163:
.LBB35_9:
	{
		nop
		ld8u r3, r5[r0]
	}
	.loc	3 568 5
.Ltmp2164:
	st8 r3, r1[r0]
	.loc	3 567 3
	{
		add r0, r0, 1
		nop
	}
.xtaloop 36
	# LOOPMARKER 1
	.loc	3 567 3
	{
		eq r3, r0, r2
		nop
	}
	bf r3, .LBB35_9
.Ltmp2165:
	{
		ldaw r0, sp[11]
		mov r1, r6
	}
.Ltmp2166:
	.loc	3 3468 15
	bl follow_path
.Ltmp2167:
	bt r0, .LBB35_12
.Ltmp2168:
	{
		ldc r0, 8
		nop
	}
.Ltmp2169:
.LBB35_12:
	.loc	3 3470 13
	{
		eq r1, r0, 4
		nop
	}
	bf r1, .LBB35_55
.Ltmp2170:
	{
		ldaw r0, sp[11]
		nop
	}
.Ltmp2171:
	.loc	3 3472 17
	bl dir_register
.Ltmp2172:
	bt r0, .LBB35_55
.Ltmp2173:
	.loc	3 3474 13
	{
		ldc r1, 13
		ldw r0, sp[16]
	}
.Ltmp2174:
.LBB35_15:
	{
		add r2, r9, r1
		nop
	}
	{
		nop
		ld8u r2, r2[r7]
	}
	.loc	3 568 5
.Ltmp2175:
	st8 r2, r0[r1]
	.loc	3 567 3
	{
		add r1, r1, 1
		nop
	}
.xtaloop 19
	# LOOPMARKER 2
	.loc	3 567 3
	{
		eq r2, r1, r8
		nop
	}
	bf r2, .LBB35_15
.Ltmp2176:
	.loc	3 3476 13
	{
		ldc r7, 0
		nop
	}
	{
		nop
		ld8u r1, r9[r7]
	}
	.loc	3 3476 13
	{
		or r2, r1, r8
		ldc r1, 11
	}
	.loc	3 3476 13
	st8 r2, r0[r1]
	.loc	3 3477 13
	{
		ldc r3, 4
		ldw r2, sp[20]
	}
	.loc	3 3477 13
	st8 r4, r2[r3]
	{
		nop
		ldw r2, sp[22]
	}
	{
		nop
		ldw r8, sp[13]
	}
	.loc	3 3478 17
.Ltmp2177:
	{
		eq r2, r2, r8
		nop
	}
	bt r2, .LBB35_27
.Ltmp2178:
	.loc	3 3478 17
	{
		ldc r2, 16
		ld8u r1, r0[r1]
	}
	.loc	3 3478 17
	{
		and r1, r1, r2
		nop
	}
	bf r1, .LBB35_27
.Ltmp2179:
	.loc	3 3479 20
	{
		ldc r1, 21
		ldw r6, sp[11]
	}
.Ltmp2180:
	{
		nop
		ld8u r1, r0[r1]
	}
	.loc	3 3479 20
	{
		shl r1, r1, 8
		ldc r2, 20
	}
	{
		nop
		ld8u r2, r0[r2]
	}
	.loc	3 3479 20
	{
		or r1, r1, r2
		nop
	}
	.loc	3 3479 20
	{
		shl r1, r1, 16
		ldc r2, 27
	}
	{
		nop
		ld8u r2, r0[r2]
	}
	.loc	3 3479 20
	{
		shl r2, r2, 8
		ldc r3, 26
	}
	{
		nop
		ld8u r0, r0[r3]
	}
.Ltmp2181:
	.loc	3 3479 20
	{
		or r0, r2, r0
		nop
	}
	.loc	3 3479 20
	{
		or r0, r0, r1
		nop
	}
.Ltmp2182:
	.loc	3 833 3
	{
		sub r1, r0, 2
		ldw r0, r6[7]
	}
.Ltmp2183:
	.loc	3 834 7
	{
		sub r0, r0, 2
		nop
	}
	.loc	3 834 7
	{
		lsu r0, r1, r0
		nop
	}
	bf r0, .LBB35_19
.Ltmp2184:
	{
		ldc r0, 2
		nop
	}
	{
		nop
		ld8u r2, r6[r0]
	}
	.loc	3 835 3
	mul r1, r2, r1
.Ltmp2185:
	{
		nop
		ldw r2, r6[11]
	}
	.loc	3 835 3
	{
		add r1, r1, r2
		nop
	}
.Ltmp2186:
	bf r1, .LBB35_55
.Ltmp2187:
	.loc	3 3483 23
	{
		mov r0, r6
		nop
	}
	bl move_window
.Ltmp2188:
	bt r0, .LBB35_55
.Ltmp2189:
	ldc r0, 85
	.loc	3 3485 21
.Ltmp2190:
	{
		ldc r1, 46
		ld8u r0, r6[r0]
	}
	.loc	3 3485 21
	{
		eq r0, r0, r1
		nop
	}
	bf r0, .LBB35_27
.Ltmp2191:
	{
		nop
		ld8u r0, r6[r7]
	}
	.loc	3 3486 19
.Ltmp2192:
	{
		eq r0, r0, 3
		nop
	}
	bf r0, .LBB35_25
.Ltmp2193:
	{
		nop
		ldw r0, r6[10]
	}
	.loc	3 3486 19
	{
		eq r0, r8, r0
		nop
	}
	bt r0, .LBB35_26
.Ltmp2194:
.LBB35_25:
	.loc	3 3486 19
	{
		mov r7, r8
		nop
	}
.Ltmp2195:
.LBB35_26:
	ldc r0, 110
	.loc	3 3487 19
.Ltmp2196:
	st8 r7, r6[r0]
	.loc	3 3487 19
	{
		shr r0, r7, 8
		nop
	}
	ldc r1, 111
	.loc	3 3487 19
	st8 r0, r6[r1]
	.loc	3 3487 19
	{
		shr r0, r7, 16
		nop
	}
	ldc r1, 104
	.loc	3 3487 19
	st8 r0, r6[r1]
	.loc	3 3487 19
	{
		shr r0, r7, 24
		nop
	}
	ldc r1, 105
	.loc	3 3487 19
	st8 r0, r6[r1]
	{
		ldc r0, 4
		nop
	}
.Ltmp2197:
	.loc	3 3488 19
	st8 r4, r6[r0]
.Ltmp2198:
.LBB35_27:
	.loc	3 1613 3
	{
		add r8, r5, 6
		ldc r9, 0
	}
	{
		nop
		ld16s r3, r8[r9]
	}
	.loc	3 1614 9
	{
		ldaw r0, sp[28]
		stw r3, sp[1]
	}
	{
		nop
		ld16s r0, r0[r9]
	}
	.loc	3 1614 9
	{
		zext r0, 16
		mkmsk r1, 16
	}
	.loc	3 1614 9
	{
		eq r2, r0, r1
		mov r1, r3
	}
	bt r2, .LBB35_29
.Ltmp2199:
	.loc	3 1614 9
	{
		mov r1, r0
		nop
	}
.Ltmp2200:
.LBB35_29:
	.loc	3 1614 9
	{
		zext r1, 16
		mov r0, r5
	}
	bl dir_sdi
.Ltmp2201:
	bt r0, .LBB35_55
.Ltmp2202:
	{
		nop
		ldw r5, sp[20]
	}
.Ltmp2203:
	{
		nop
		ldw r6, sp[24]
	}
	bu .LBB35_31
.Ltmp2204:
.LBB35_5:
	{
		ldc r0, 4
		nop
	}
.LBB35_55:
	{
		nop
		ldw r10, sp[36]
	}
	{
		nop
		ldw r8, sp[34]
	}
	{
		nop
		ldw r9, sp[35]
	}
	{
		nop
		ldw r6, sp[32]
	}
	{
		nop
		ldw r7, sp[33]
	}
	{
		nop
		ldw r4, sp[30]
	}
	{
		nop
		ldw r5, sp[31]
	}
	{
		nop
		retsp 38
	}
	.loc	3 3505 1
	# RETURN_REG_HOLDER
.LBB35_53:
	.loc	3 1194 3
.Ltmp2205:
	st16 r7, r8[r9]
	.loc	3 1195 3
	{
		shl r0, r10, 5
		nop
	}
	.loc	3 1195 3
	{
		add r0, r5, r0
		ldc r1, 52
	}
	{
		add r0, r0, r1
		nop
	}
	{
		nop
		stw r0, sp[25]
	}
.Ltmp2206:
.LBB35_31:
	.loc	3 1617 13
	{
		mov r0, r5
		mov r1, r6
	}
	bl move_window
	.loc	3 1618 11
.Ltmp2207:
	{
		eq r1, r0, 4
		nop
	}
	bt r1, .LBB35_32
.Ltmp2208:
	bt r0, .LBB35_55
	{
		nop
		ldw r0, sp[25]
	}
	ldc r1, 229
	.loc	3 1619 7
	st8 r1, r0[r9]
	{
		ldc r0, 4
		nop
	}
	.loc	3 1620 7
	st8 r4, r5[r0]
	{
		nop
		ld16s r0, r8[r9]
	}
	.loc	3 1621 11
.Ltmp2209:
	{
		zext r0, 16
		ldw r1, sp[1]
	}
	.loc	3 1621 11
	{
		zext r1, 16
		nop
	}
	.loc	3 1621 11
	{
		lsu r1, r0, r1
		nop
	}
	bf r1, .LBB35_54
.Ltmp2210:
	.loc	3 1150 3
	{
		add r7, r0, 1
		nop
	}
	.loc	3 1150 3
	{
		mov r0, r7
		nop
	}
	{
		zext r0, 16
		nop
	}
	.loc	3 1151 7
.Ltmp2211:
	bf r0, .LBB35_36
.Ltmp2212:
	bf r6, .LBB35_38
	.loc	3 1154 7
.Ltmp2213:
	{
		mov r10, r7
		nop
	}
	{
		zext r10, 4
		nop
	}
	bt r10, .LBB35_53
	.loc	3 1155 5
.Ltmp2214:
	{
		add r6, r6, 1
		nop
	}
	{
		nop
		stw r6, sp[24]
	}
	{
		nop
		ldw r1, sp[23]
	}
	.loc	3 1157 9
.Ltmp2215:
	bf r1, .LBB35_41
	.loc	3 1162 11
.Ltmp2216:
	{
		shr r0, r0, 4
		ldc r2, 2
	}
	{
		nop
		ld8u r2, r5[r2]
	}
	ldc r3, 4095
	.loc	3 1162 11
	{
		add r2, r2, r3
		nop
	}
	.loc	3 1162 11
	{
		and r0, r2, r0
		nop
	}
	bt r0, .LBB35_53
	.loc	3 1163 16
.Ltmp2217:
	{
		mov r0, r5
		nop
	}
	bl get_fat
.Ltmp2218:
	{
		ldc r1, 2
		nop
	}
	.loc	3 1164 13
.Ltmp2219:
	{
		lsu r1, r0, r1
		nop
	}
	.loc	3 1164 13
	bt r1, .LBB35_45
.Ltmp2220:
	{
		mkmsk r1, 32
		nop
	}
	.loc	3 1165 13
.Ltmp2221:
	{
		eq r1, r0, r1
		nop
	}
	.loc	3 1165 13
	bt r1, .LBB35_47
.Ltmp2222:
	{
		nop
		ldw r1, r5[7]
	}
	.loc	3 1166 13
.Ltmp2223:
	{
		lsu r2, r0, r1
		nop
	}
	bf r2, .LBB35_49
.Ltmp2224:
	.loc	3 1188 9
	{
		sub r0, r0, 2
		stw r0, sp[23]
	}
.Ltmp2225:
	.loc	3 834 7
	{
		sub r1, r1, 2
		nop
	}
	.loc	3 834 7
	{
		lsu r1, r0, r1
		mov r6, r9
	}
	bf r1, .LBB35_52
.Ltmp2226:
	{
		ldc r1, 2
		nop
	}
	{
		nop
		ld8u r1, r5[r1]
	}
	.loc	3 835 3
	mul r0, r1, r0
.Ltmp2227:
	{
		nop
		ldw r1, r5[11]
	}
	.loc	3 835 3
	{
		add r6, r0, r1
		nop
	}
.Ltmp2228:
.LBB35_52:
	{
		nop
		stw r6, sp[24]
	}
	bu .LBB35_53
.LBB35_41:
	.loc	3 1158 11
.Ltmp2229:
	{
		add r1, r5, 8
		nop
	}
	{
		nop
		ld16s r1, r1[r9]
	}
	.loc	3 1158 11
	{
		zext r1, 16
		nop
	}
	.loc	3 1158 11
	{
		lsu r0, r0, r1
		nop
	}
	bt r0, .LBB35_53
.Ltmp2230:
	{
		ldc r0, 2
		nop
	}
	bu .LBB35_55
.LBB35_19:
	{
		ldc r0, 2
		nop
	}
	bu .LBB35_55
.LBB35_54:
.Ltmp2231:
	.loc	3 3495 23
	{
		mov r0, r5
		nop
	}
	bl sync
.Ltmp2232:
	bu .LBB35_55
.Ltmp2233:
.LBB35_32:
	{
		ldc r0, 2
		nop
	}
	bu .LBB35_55
.LBB35_36:
	{
		ldc r0, 2
		nop
	}
	bu .LBB35_55
.LBB35_38:
	{
		ldc r0, 2
		nop
	}
	bu .LBB35_55
.LBB35_45:
	{
		ldc r0, 2
		nop
	}
	bu .LBB35_55
.LBB35_47:
	{
		mov r0, r4
		nop
	}
	bu .LBB35_55
.LBB35_49:
	{
		ldc r0, 2
		nop
	}
	bu .LBB35_55
	.cc_bottom f_rename.function
	.set	f_rename.nstackwords,((chk_mounted.nstackwords $M follow_path.nstackwords $M dir_register.nstackwords $M dir_sdi.nstackwords $M get_fat.nstackwords $M sync.nstackwords $M move_window.nstackwords) + 38)
	.globl	f_rename.nstackwords
	.set	f_rename.maxcores,chk_mounted.maxcores $M dir_register.maxcores $M dir_sdi.maxcores $M follow_path.maxcores $M get_fat.maxcores $M move_window.maxcores $M sync.maxcores $M 1
	.globl	f_rename.maxcores
	.set	f_rename.maxtimers,chk_mounted.maxtimers $M dir_register.maxtimers $M dir_sdi.maxtimers $M follow_path.maxtimers $M get_fat.maxtimers $M move_window.maxtimers $M sync.maxtimers $M 0
	.globl	f_rename.maxtimers
	.set	f_rename.maxchanends,chk_mounted.maxchanends $M dir_register.maxchanends $M dir_sdi.maxchanends $M follow_path.maxchanends $M get_fat.maxchanends $M move_window.maxchanends $M sync.maxchanends $M 0
	.globl	f_rename.maxchanends
.Ltmp2234:
	.size	f_rename, .Ltmp2234-f_rename
.Lfunc_end35:
	.cfi_endproc

	.globl	f_gets
	.align	4
	.type	f_gets,@function
	.cc_top f_gets.function,f_gets
f_gets:
.Lfunc_begin36:
	.loc	3 3895 0
	.cfi_startproc
	.issue_mode dual
	{
		nop
		dualentsp 14
	}
.Ltmp2235:
	.cfi_def_cfa_offset 56
.Ltmp2236:
	.cfi_offset 15, 0
	std r5, r4, sp[3]
.Ltmp2237:
	.cfi_offset 4, -32
.Ltmp2238:
	.cfi_offset 5, -28
	std r7, r6, sp[4]
.Ltmp2239:
	.cfi_offset 6, -24
.Ltmp2240:
	.cfi_offset 7, -20
	std r9, r8, sp[5]
.Ltmp2241:
	.cfi_offset 8, -16
.Ltmp2242:
	.cfi_offset 9, -12
.Ltmp2243:
	.cfi_offset 10, -8
.Ltmp2244:
	{
		mov r5, r2
		stw r10, sp[12]
	}
.Ltmp2245:
	.loc	3 3902 3 prologue_end
	{
		sub r4, r1, 1
		stw r0, sp[1]
	}
	{
		ldc r9, 0
		ldaw r6, sp[5]
	}
	{
		mkmsk r7, 1
		ldaw r8, sp[4]
	}
	{
		ldc r10, 13
		mov r2, r9
	}
	{
		mov r3, r0
		nop
	}
.Ltmp2246:
.LBB36_1:
	{
		nop
		stw r3, sp[2]
	}
	{
		lss r0, r2, r4
		stw r2, sp[3]
	}
	bf r0, .LBB36_2
.Ltmp2247:
.LBB36_3:
	.loc	3 3903 5
	{
		mov r0, r5
		mov r1, r6
	}
	{
		mov r2, r7
		mov r3, r8
	}
	bl f_read
	{
		nop
		ldw r0, sp[4]
	}
	.loc	3 3904 9
.Ltmp2248:
	{
		eq r0, r0, 1
		nop
	}
	bf r0, .LBB36_2
.Ltmp2249:
	{
		nop
		ld8u r1, r6[r9]
	}
	.loc	3 3905 5
	{
		eq r0, r1, r10
		nop
	}
	bt r0, .LBB36_3
.Ltmp2250:
	{
		nop
		ldw r2, sp[2]
	}
	.loc	3 3929 5
	{
		add r0, r2, 1
		nop
	}
.Ltmp2251:
	.loc	3 3929 5
	st8 r1, r2[r9]
	{
		nop
		ldw r2, sp[3]
	}
.Ltmp2252:
	.loc	3 3930 5
	{
		add r2, r2, 1
		eq r1, r1, 10
	}
.Ltmp2253:
	{
		mov r3, r0
		nop
	}
	bf r1, .LBB36_1
	bu .LBB36_6
.Ltmp2254:
.LBB36_2:
	{
		nop
		ldw r0, sp[2]
	}
	{
		nop
		ldw r2, sp[3]
	}
.Ltmp2255:
.LBB36_6:
	.loc	3 3933 3
	{
		ldc r1, 0
		nop
	}
	st8 r1, r0[r1]
	{
		nop
		ldw r0, sp[1]
	}
.Ltmp2256:
	bt r2, .LBB36_8
.Ltmp2257:
	.loc	3 3934 3
	{
		mov r0, r1
		nop
	}
.LBB36_8:
	{
		nop
		ldw r10, sp[12]
	}
	.loc	3 3934 3
	ldd r9, r8, sp[5]
	ldd r7, r6, sp[4]
	ldd r5, r4, sp[3]
	{
		nop
		retsp 14
	}
	# RETURN_REG_HOLDER
.Ltmp2258:
	.cc_bottom f_gets.function
	.set	f_gets.nstackwords,(f_read.nstackwords + 14)
	.globl	f_gets.nstackwords
	.set	f_gets.maxcores,f_read.maxcores $M 1
	.globl	f_gets.maxcores
	.set	f_gets.maxtimers,f_read.maxtimers $M 0
	.globl	f_gets.maxtimers
	.set	f_gets.maxchanends,f_read.maxchanends $M 0
	.globl	f_gets.maxchanends
.Ltmp2259:
	.size	f_gets, .Ltmp2259-f_gets
.Lfunc_end36:
	.cfi_endproc

	.globl	f_putc
	.align	4
	.type	f_putc,@function
	.cc_top f_putc.function,f_putc
f_putc:
.Lfunc_begin37:
	.loc	3 3948 0
	.cfi_startproc
	.issue_mode dual
	{
		nop
		dualentsp 8
	}
.Ltmp2260:
	.cfi_def_cfa_offset 32
.Ltmp2261:
	.cfi_offset 15, 0
	std r5, r4, sp[3]
.Ltmp2262:
	.cfi_offset 4, -8
.Ltmp2263:
	.cfi_offset 5, -4
.Ltmp2264:
	{
		mov r4, r1
		mov r5, r0
	}
.Ltmp2265:
	.loc	3 3954 7 prologue_end
	{
		eq r0, r5, 10
		nop
	}
	bf r0, .LBB37_2
.Ltmp2266:
	.loc	3 3974 3
	{
		ldc r0, 0
		ldaw r1, sp[4]
	}
.Ltmp2267:
	{
		ldc r2, 13
		nop
	}
	st8 r2, r1[r0]
.Ltmp2268:
	{
		mkmsk r2, 1
		ldaw r3, sp[5]
	}
.Ltmp2269:
	.loc	3 3977 3
	{
		mov r0, r4
		nop
	}
	bl f_write
.Ltmp2270:
.LBB37_2:
	.loc	3 3974 3
	{
		ldc r0, 0
		ldaw r1, sp[2]
	}
	st8 r5, r1[r0]
.Ltmp2271:
	{
		mkmsk r5, 1
		ldaw r3, sp[3]
	}
.Ltmp2272:
	.loc	3 3977 3
	{
		mov r0, r4
		mov r2, r5
	}
	bl f_write
	{
		nop
		ldw r0, sp[3]
	}
	.loc	3 3978 3
	{
		eq r0, r0, 1
		nop
	}
	bt r0, .LBB37_4
.Ltmp2273:
	{
		mkmsk r5, 32
		nop
	}
.LBB37_4:
	.loc	3 3978 3
	{
		mov r0, r5
		nop
	}
	ldd r5, r4, sp[3]
	{
		nop
		retsp 8
	}
	# RETURN_REG_HOLDER
.Ltmp2274:
	.cc_bottom f_putc.function
	.set	f_putc.nstackwords,(f_write.nstackwords + 8)
	.globl	f_putc.nstackwords
	.set	f_putc.maxcores,f_write.maxcores $M 1
	.globl	f_putc.maxcores
	.set	f_putc.maxtimers,f_write.maxtimers $M 0
	.globl	f_putc.maxtimers
	.set	f_putc.maxchanends,f_write.maxchanends $M 0
	.globl	f_putc.maxchanends
.Ltmp2275:
	.size	f_putc, .Ltmp2275-f_putc
.Lfunc_end37:
	.cfi_endproc

	.globl	f_puts
	.align	4
	.type	f_puts,@function
	.cc_top f_puts.function,f_puts
f_puts:
.Lfunc_begin38:
	.loc	3 3991 0
	.cfi_startproc
	.issue_mode dual
	{
		nop
		dualentsp 14
	}
.Ltmp2276:
	.cfi_def_cfa_offset 56
.Ltmp2277:
	.cfi_offset 15, 0
	std r5, r4, sp[3]
.Ltmp2278:
	.cfi_offset 4, -32
.Ltmp2279:
	.cfi_offset 5, -28
	std r7, r6, sp[4]
.Ltmp2280:
	.cfi_offset 6, -24
.Ltmp2281:
	.cfi_offset 7, -20
	std r9, r8, sp[5]
.Ltmp2282:
	.cfi_offset 8, -16
.Ltmp2283:
	.cfi_offset 9, -12
.Ltmp2284:
	.cfi_offset 10, -8
.Ltmp2285:
	{
		mov r4, r1
		stw r10, sp[12]
	}
.Ltmp2286:
	{
		mov r1, r0
		ldc r0, 0
	}
.Ltmp2287:
	{
		nop
		ld8u r5, r1[r0]
	}
	bf r5, .LBB38_7
.Ltmp2288:
	{
		add r10, r1, 1
		ldc r0, 0
	}
	{
		ldaw r7, sp[4]
		ldaw r8, sp[2]
	}
	{
		mov r9, r0
		mov r6, r0
	}
.Ltmp2289:
.LBB38_2:
	.loc	3 3954 7 prologue_end
	{
		mov r0, r5
		nop
	}
	{
		zext r0, 8
		nop
	}
	.loc	3 3954 7
	{
		eq r0, r0, 10
		nop
	}
	bf r0, .LBB38_4
.Ltmp2290:
	{
		mov r1, r7
		ldc r0, 13
	}
.Ltmp2291:
	.loc	3 3974 3
	st8 r0, r1[r6]
.Ltmp2292:
	.loc	3 3977 3
	{
		mov r0, r4
		mkmsk r2, 1
	}
	{
		ldaw r3, sp[5]
		nop
	}
	bl f_write
.Ltmp2293:
.LBB38_4:
	.loc	3 3974 3
	st8 r5, r8[r6]
.Ltmp2294:
	.loc	3 3977 3
	{
		mov r0, r4
		mov r1, r8
	}
	{
		mkmsk r2, 1
		ldaw r3, sp[3]
	}
	bl f_write
	{
		nop
		ldw r0, sp[3]
	}
.Ltmp2295:
	.loc	3 3996 9
	{
		eq r0, r0, 1
		nop
	}
	bf r0, .LBB38_5
.Ltmp2296:
	.loc	3 3995 21
	{
		add r0, r9, 1
		ld8u r5, r10[r9]
	}
.Ltmp2297:
	{
		mov r9, r0
		nop
	}
	bt r5, .LBB38_2
	bu .LBB38_7
.Ltmp2298:
.LBB38_5:
	{
		mkmsk r0, 32
		nop
	}
.LBB38_7:
	{
		nop
		ldw r10, sp[12]
	}
	.loc	3 3999 1
	ldd r9, r8, sp[5]
	ldd r7, r6, sp[4]
	ldd r5, r4, sp[3]
	{
		nop
		retsp 14
	}
	# RETURN_REG_HOLDER
.Ltmp2299:
	.cc_bottom f_puts.function
	.set	f_puts.nstackwords,(f_write.nstackwords + 14)
	.globl	f_puts.nstackwords
	.set	f_puts.maxcores,f_write.maxcores $M 1
	.globl	f_puts.maxcores
	.set	f_puts.maxtimers,f_write.maxtimers $M 0
	.globl	f_puts.maxtimers
	.set	f_puts.maxchanends,f_write.maxchanends $M 0
	.globl	f_puts.maxchanends
.Ltmp2300:
	.size	f_puts, .Ltmp2300-f_puts
.Lfunc_end38:
	.cfi_endproc

	.section	.cp.rodata.cst4,"aMc",@progbits,4
	.cc_top .LCPI39_0.data,.LCPI39_0
	.align	4
	.type	.LCPI39_0,@object
	.size	.LCPI39_0, 4
.LCPI39_0:
	.long	4294967248
	.cc_bottom .LCPI39_0.data
	.cc_top .LCPI39_1.data,.LCPI39_1
	.align	4
	.type	.LCPI39_1,@object
	.size	.LCPI39_1, 4
.LCPI39_1:
	.long	4294967199
	.cc_bottom .LCPI39_1.data
	.cc_top .LCPI39_2.data,.LCPI39_2
	.align	4
	.type	.LCPI39_2,@object
	.size	.LCPI39_2, 4
.LCPI39_2:
	.long	4294967217
	.cc_bottom .LCPI39_2.data
	.text
	.globl	f_printf
	.align	4
	.type	f_printf,@function
	.cc_top f_printf.function,f_printf
f_printf:
.Lfunc_begin39:
	.loc	3 4012 0
	.cfi_startproc
	.issue_mode dual
	{
		nop
		dualentsp 0
	}
	{
		extsp 32
		nop
	}
.Ltmp2301:
	.cfi_def_cfa_offset 128
	{
		nop
		stw lr, sp[2]
	}
.Ltmp2302:
	.cfi_offset 15, -120
	std r5, r4, sp[11]
.Ltmp2303:
	.cfi_offset 4, -40
.Ltmp2304:
	.cfi_offset 5, -36
	{
		nop
		stw r6, sp[24]
	}
	{
		nop
		stw r7, sp[25]
	}
.Ltmp2305:
	.cfi_offset 6, -32
.Ltmp2306:
	.cfi_offset 7, -28
	{
		nop
		stw r8, sp[26]
	}
	{
		nop
		stw r9, sp[27]
	}
.Ltmp2307:
	.cfi_offset 8, -24
.Ltmp2308:
	.cfi_offset 9, -20
	{
		nop
		stw r10, sp[28]
	}
.Ltmp2309:
	.cfi_offset 10, -16
	{
		nop
		stw r0, sp[12]
	}
.Ltmp2310:
	{
		nop
		stw r2, sp[31]
	}
	{
		ldaw r0, sp[31]
		stw r3, sp[32]
	}
.Ltmp2311:
	.loc	3 4021 3 prologue_end
	{
		ldaw r0, sp[13]
		stw r0, sp[17]
	}
	{
		sub r0, r0, 1
		nop
	}
	{
		ldc r4, 0
		stw r0, sp[11]
	}
	{
		ldc r2, 37
		mkmsk r8, 1
	}
	ldw r11, cp[.LCPI39_0]
	{
		mkmsk r9, 32
		mov r10, r4
	}
	bu .LBB39_1
.Ltmp2312:
.LBB39_54:
	.loc	3 4023 33
	{
		add r10, r10, 1
		mov r11, r7
	}
	{
		ldc r2, 37
		ldw r1, sp[10]
	}
.Ltmp2313:
.LBB39_1:
	{
		nop
		ld8u r5, r1[r4]
	}
	.loc	3 4024 5
.Ltmp2314:
	{
		eq r0, r5, r2
		nop
	}
	.loc	3 4025 9
.Ltmp2315:
	bf r0, .LBB39_2
.Ltmp2316:
	.loc	3 4032 5
	{
		ldc r0, 45
		ld8u r9, r1[r8]
	}
	{
		eq r0, r9, r0
		ldc r5, 10
	}
	.loc	3 4033 9
.Ltmp2317:
	bf r0, .LBB39_8
.Ltmp2318:
	.loc	3 4037 16
	{
		add r6, r1, 3
		ldc r0, 2
	}
.Ltmp2319:
	{
		nop
		ld8u r9, r1[r0]
	}
	bu .LBB39_12
.Ltmp2320:
.LBB39_8:
	{
		ldc r0, 48
		nop
	}
	{
		eq r0, r9, r0
		nop
	}
	bf r0, .LBB39_9
.Ltmp2321:
	.loc	3 4034 14
	{
		add r6, r1, 3
		ldc r0, 2
	}
.Ltmp2322:
	.loc	3 4034 14
	{
		mov r0, r8
		ld8u r9, r1[r0]
	}
	bu .LBB39_12
.Ltmp2323:
.LBB39_9:
	.loc	3 4032 5
	{
		add r6, r1, 2
		mov r0, r4
	}
.Ltmp2324:
.LBB39_12:
	.loc	3 4040 5
	{
		add r2, r9, r11
		nop
	}
	{
		zext r2, 8
		ldc r3, 9
	}
	.loc	3 4040 5
	{
		lsu r2, r3, r2
		mov r7, r4
	}
	bt r2, .LBB39_14
.Ltmp2325:
.LBB39_13:
	.loc	3 4040 5
	{
		zext r9, 8
		nop
	}
	.loc	3 4041 7
.Ltmp2326:
	mul r2, r7, r5
	.loc	3 4041 7
	{
		add r2, r2, r9
		nop
	}
	.loc	3 4041 7
	{
		add r7, r2, r11
		add r2, r6, 1
	}
	{
		nop
		ld8u r9, r6[r4]
	}
.Ltmp2327:
	.loc	3 4040 5
	{
		add r1, r9, r11
		nop
	}
	{
		zext r1, 8
		nop
	}
	.loc	3 4040 5
	{
		lsu r3, r1, r5
		mov r6, r2
	}
	bt r3, .LBB39_13
.Ltmp2328:
.LBB39_14:
	{
		ldc r2, 32
		nop
	}
	.loc	3 4044 9
.Ltmp2329:
	{
		or r2, r9, r2
		nop
	}
	ldc r3, 108
	{
		eq r2, r2, r3
		nop
	}
	bf r2, .LBB39_15
.Ltmp2330:
	{
		ldc r2, 4
		nop
	}
	.loc	3 4045 7
.Ltmp2331:
	{
		or r0, r0, r2
		nop
	}
.Ltmp2332:
	.loc	3 4045 7
	{
		zext r0, 8
		add r1, r6, 1
	}
	{
		nop
		stw r1, sp[10]
	}
	{
		nop
		ld8u r9, r6[r4]
	}
	bu .LBB39_17
.Ltmp2333:
.LBB39_15:
	{
		nop
		stw r6, sp[10]
	}
.Ltmp2334:
.LBB39_17:
	bf r9, .LBB39_94
.Ltmp2335:
	ldw r1, cp[.LCPI39_1]
	.loc	3 4049 9
.Ltmp2336:
	{
		add r1, r9, r1
		nop
	}
	{
		zext r1, 8
		ldc r2, 25
	}
	.loc	3 4049 9
	{
		lsu r1, r2, r1
		mov r3, r9
	}
	bt r1, .LBB39_20
.Ltmp2337:
	ldc r1, 224
	.loc	3 4049 21
	{
		add r3, r9, r1
		nop
	}
.Ltmp2338:
.LBB39_20:
	.loc	3 4050 5
	{
		zext r3, 8
		nop
	}
	ldc r1, 78
	.loc	3 4050 5
	{
		lss r1, r1, r3
		nop
	}
	bt r1, .LBB39_25
.Ltmp2339:
	ldc r1, 66
	{
		eq r2, r3, r1
		ldc r1, 2
	}
	bt r2, .LBB39_60
.Ltmp2340:
	ldc r1, 67
	{
		eq r1, r3, r1
		nop
	}
	bf r1, .LBB39_23
.Ltmp2341:
	{
		mov r7, r11
		ldw r0, sp[17]
	}
	.loc	3 4063 12
.Ltmp2342:
	{
		add r1, r0, 4
		nop
	}
.Ltmp2343:
	{
		nop
		stw r1, sp[17]
	}
	{
		nop
		ldw r5, r0[0]
	}
	.loc	3 4063 12
	{
		mov r0, r5
		nop
	}
	{
		zext r0, 8
		nop
	}
	.loc	3 3954 7
.Ltmp2344:
	{
		eq r0, r0, 10
		nop
	}
	bf r0, .LBB39_52
.Ltmp2345:
	{
		ldaw r1, sp[19]
		ldc r0, 13
	}
.Ltmp2346:
	.loc	3 3974 3
	st8 r0, r1[r4]
.Ltmp2347:
	.loc	3 3977 3
	{
		mov r2, r8
		ldw r0, sp[12]
	}
	{
		ldaw r3, sp[21]
		nop
	}
	bl f_write
.Ltmp2348:
.LBB39_52:
	{
		ldaw r1, sp[18]
		nop
	}
	.loc	3 3974 3
	st8 r5, r1[r4]
	bu .LBB39_53
.Ltmp2349:
.LBB39_25:
	ldw r1, cp[.LCPI39_2]
	{
		add r1, r3, r1
		ldc r2, 9
	}
	{
		lsu r2, r2, r1
		nop
	}
	bt r2, .LBB39_56
.Ltmp2350:

	.xtabranch .Ljumptable0+4,.Ljumptable0+8,.Ljumptable0+12,.Ljumptable0+16,.Ljumptable0+20,.Ljumptable0+24,.Ljumptable0+28,.Ljumptable0+32,.Ljumptable0+36,.Ljumptable0+40
.Ljumptable0:
		
	{
		nop
		bru r1
	}
	.jmptable32 .LBB39_59,.LBB39_56,.LBB39_56,.LBB39_56,.LBB39_27,.LBB39_56,.LBB39_24,.LBB39_56,.LBB39_56,.LBB39_55
.Ltmp2351:
.LBB39_59:
	{
		ldc r1, 8
		nop
	}
	bu .LBB39_60
.Ltmp2352:
.LBB39_23:
	ldc r1, 68
	{
		eq r1, r3, r1
		nop
	}
	bf r1, .LBB39_56
.Ltmp2353:
.LBB39_24:
	{
		mov r1, r5
		nop
	}
	bu .LBB39_60
.Ltmp2354:
.LBB39_56:
	{
		mov r7, r11
		eq r0, r9, 10
	}
	bf r0, .LBB39_58
.Ltmp2355:
	{
		ldaw r1, sp[19]
		ldc r0, 13
	}
.Ltmp2356:
	.loc	3 3974 3
	st8 r0, r1[r4]
.Ltmp2357:
	.loc	3 3977 3
	{
		mov r2, r8
		ldw r0, sp[12]
	}
	{
		ldaw r3, sp[21]
		nop
	}
	bl f_write
.Ltmp2358:
.LBB39_58:
	{
		ldaw r1, sp[18]
		nop
	}
	.loc	3 3974 3
	st8 r9, r1[r4]
.Ltmp2359:
.LBB39_53:
	.loc	3 3977 3
	{
		mov r2, r8
		ldw r0, sp[12]
	}
	{
		ldaw r3, sp[20]
		nop
	}
	bl f_write
	{
		nop
		ldw r0, sp[20]
	}
	.loc	3 3978 3
	{
		eq r0, r0, 1
		mkmsk r9, 32
	}
	bt r0, .LBB39_54
	bu .LBB39_93
.Ltmp2360:
.LBB39_2:
	bf r5, .LBB39_94
.Ltmp2361:
	{
		mov r7, r11
		stw r1, sp[10]
	}
	.loc	3 3954 7
.Ltmp2362:
	{
		eq r0, r5, 10
		nop
	}
	bf r0, .LBB39_5
.Ltmp2363:
	{
		ldaw r1, sp[19]
		ldc r0, 13
	}
.Ltmp2364:
	.loc	3 3974 3
	st8 r0, r1[r4]
.Ltmp2365:
	.loc	3 3977 3
	{
		mov r2, r8
		ldw r0, sp[12]
	}
	{
		ldaw r3, sp[21]
		nop
	}
	bl f_write
.Ltmp2366:
.LBB39_5:
	{
		ldaw r1, sp[18]
		nop
	}
	.loc	3 3974 3
	st8 r5, r1[r4]
.Ltmp2367:
	.loc	3 3977 3
	{
		mov r2, r8
		ldw r0, sp[12]
	}
	{
		ldaw r3, sp[20]
		nop
	}
	bl f_write
	{
		nop
		ldw r0, sp[20]
	}
	.loc	3 3978 3
	{
		eq r0, r0, 1
		nop
	}
	bf r0, .LBB39_93
.Ltmp2368:
	{
		nop
		ldw r0, sp[10]
	}
	.loc	3 4024 5
	{
		add r0, r0, 1
		nop
	}
.Ltmp2369:
	{
		nop
		stw r0, sp[10]
	}
	bu .LBB39_54
.Ltmp2370:
.LBB39_27:
	{
		nop
		ldw r1, sp[17]
	}
	.loc	3 4052 7
.Ltmp2371:
	{
		add r2, r1, 4
		nop
	}
.Ltmp2372:
	{
		nop
		stw r2, sp[17]
	}
.Ltmp2373:
	.loc	3 4052 7
	{
		mov r1, r4
		ldw r3, r1[0]
	}
.Ltmp2374:
.LBB39_28:
	{
		mov r9, r1
		nop
	}
	.loc	3 4053 7
.Ltmp2375:
	{
		add r1, r9, 1
		ld8u r2, r3[r9]
	}
	.loc	3 4053 7
	bt r2, .LBB39_28
.Ltmp2376:
	{
		ldc r2, 2
		nop
	}
	.loc	3 4055 11
.Ltmp2377:
	{
		and r0, r0, r2
		mov r2, r4
	}
	bt r0, .LBB39_37
.Ltmp2378:
	.loc	3 4056 9
	{
		lsu r0, r9, r7
		nop
	}
	bf r0, .LBB39_31
.Ltmp2379:
	{
		add r9, r7, 1
		stw r3, sp[8]
	}
	.loc	3 4056 9
	{
		sub r5, r9, r1
		stw r4, sp[9]
	}
.Ltmp2380:
.LBB39_33:
	{
		ldc r0, 32
		ldaw r1, sp[19]
	}
.Ltmp2381:
	.loc	3 3974 3
	st8 r0, r1[r4]
.Ltmp2382:
	.loc	3 3977 3
	{
		mov r6, r8
		ldw r0, sp[12]
	}
	{
		mov r2, r6
		ldaw r3, sp[21]
	}
	bl f_write
	{
		nop
		ldw r0, sp[21]
	}
	.loc	3 3978 3
	{
		eq r1, r0, 1
		mov r0, r6
	}
	bt r1, .LBB39_35
.Ltmp2383:
	{
		mkmsk r0, 32
		nop
	}
.Ltmp2384:
.LBB39_35:
	{
		nop
		ldw r1, sp[9]
	}
	.loc	3 4056 38
	{
		add r1, r0, r1
		nop
	}
	.loc	3 4056 9
	{
		sub r5, r5, 1
		stw r1, sp[9]
	}
	bt r5, .LBB39_33
.Ltmp2385:
	{
		nop
		ldw r2, sp[9]
	}
	{
		nop
		ldw r3, sp[8]
	}
.Ltmp2386:
	bu .LBB39_37
.Ltmp2387:
.LBB39_55:
	{
		ldc r1, 16
		nop
	}
.Ltmp2388:
.LBB39_60:
	{
		nop
		ldw r2, sp[17]
	}
	.loc	3 4078 5
	{
		add r11, r2, 4
		nop
	}
.Ltmp2389:
	{
		nop
		stw r11, sp[17]
	}
	{
		nop
		ldw r2, r2[0]
	}
.Ltmp2390:
	ldc r11, 68
.Ltmp2391:
	.loc	3 4079 9
	{
		eq r3, r3, r11
		nop
	}
	bf r3, .LBB39_61
.Ltmp2392:
	ashr r3, r2, 32
	{
		ldaw r10, sp[13]
		nop
	}
	bf r3, .LBB39_64
.Ltmp2393:
	.loc	3 4080 7
	{
		neg r2, r2
		ldc r3, 8
	}
.Ltmp2394:
	.loc	3 4081 7
	{
		or r0, r0, r3
		nop
	}
	bu .LBB39_64
.Ltmp2395:
.LBB39_61:
	{
		ldaw r10, sp[13]
		nop
	}
.Ltmp2396:
.LBB39_64:
	ldc r3, 120
	.loc	3 4086 18
.Ltmp2397:
	{
		eq r11, r9, r3
		ldc r3, 39
	}
	bt r11, .LBB39_66
.Ltmp2398:
	{
		mkmsk r3, 3
		nop
	}
.Ltmp2399:
.LBB39_66:
	{
		mov r5, r4
		nop
	}
.Ltmp2400:
.LBB39_67:
	{
		mov r11, r5
		nop
	}
	.loc	3 4085 7
	remu r5, r2, r1
	.loc	3 4085 27
	divu r2, r2, r1
.Ltmp2401:
	{
		ldc r6, 9
		nop
	}
	.loc	3 4086 11
.Ltmp2402:
	{
		lsu r9, r6, r5
		mov r6, r3
	}
	bt r9, .LBB39_69
.Ltmp2403:
	.loc	3 4086 11
	{
		mov r6, r4
		nop
	}
.Ltmp2404:
.LBB39_69:
	.loc	3 4086 11
	{
		add r5, r5, r6
		ldc r6, 48
	}
.Ltmp2405:
	.loc	3 4087 7
	{
		add r6, r5, r6
		add r5, r11, 1
	}
	.loc	3 4087 7
	st8 r6, r10[r11]
	bf r2, .LBB39_71
.Ltmp2406:
	{
		shr r6, r5, 4
		nop
	}
	bf r6, .LBB39_67
.Ltmp2407:
.LBB39_71:
	{
		ldc r1, 8
		nop
	}
	.loc	3 4089 9
.Ltmp2408:
	{
		and r1, r0, r1
		nop
	}
	.loc	3 4089 9
	bf r1, .LBB39_72
.Ltmp2409:
	.loc	3 4089 16
	{
		add r9, r11, 2
		ldc r1, 45
	}
.Ltmp2410:
	.loc	3 4089 16
	st8 r1, r10[r5]
.Ltmp2411:
	bu .LBB39_74
.Ltmp2412:
.LBB39_72:
	{
		mov r9, r5
		nop
	}
.Ltmp2413:
.LBB39_74:
	{
		ldc r1, 2
		nop
	}
	.loc	3 4092 5
	{
		and r1, r0, r1
		mov r10, r4
	}
	{
		mov r6, r9
		nop
	}
	bt r1, .LBB39_80
.Ltmp2414:
	.loc	3 4090 12
	{
		shl r0, r0, 4
		ldc r1, 16
	}
	.loc	3 4090 12
	{
		and r0, r0, r1
		ldc r1, 32
	}
	.loc	3 4090 12
	{
		or r5, r0, r1
		mov r10, r4
	}
	{
		mov r0, r9
		nop
	}
	bu .LBB39_76
.Ltmp2415:
.LBB39_79:
	.loc	3 4092 46
	{
		add r10, r0, r10
		mov r0, r6
	}
.Ltmp2416:
.LBB39_76:
	.loc	3 4092 5
	{
		add r6, r0, 1
		lsu r0, r0, r7
	}
	bf r0, .LBB39_80
.Ltmp2417:
	{
		ldaw r1, sp[19]
		nop
	}
.Ltmp2418:
	.loc	3 3974 3
	st8 r5, r1[r4]
.Ltmp2419:
	.loc	3 3977 3
	{
		mov r2, r8
		ldw r0, sp[12]
	}
	{
		ldaw r3, sp[21]
		nop
	}
	bl f_write
	{
		nop
		ldw r0, sp[21]
	}
	.loc	3 3978 3
	{
		eq r1, r0, 1
		mov r0, r8
	}
	bt r1, .LBB39_79
.Ltmp2420:
	{
		mkmsk r0, 32
		nop
	}
	bu .LBB39_79
.Ltmp2421:
.LBB39_80:
	{
		nop
		ldw r0, sp[11]
	}
	{
		nop
		ld8u r5, r0[r9]
	}
	.loc	3 3954 7
.Ltmp2422:
	{
		eq r0, r5, 10
		nop
	}
	bf r0, .LBB39_82
.Ltmp2423:
	{
		ldaw r1, sp[19]
		ldc r0, 13
	}
.Ltmp2424:
	.loc	3 3974 3
	st8 r0, r1[r4]
.Ltmp2425:
	.loc	3 3977 3
	{
		mov r2, r8
		ldw r0, sp[12]
	}
	{
		ldaw r3, sp[21]
		nop
	}
	bl f_write
.Ltmp2426:
.LBB39_82:
	.loc	3 4093 21
	{
		sub r9, r9, 1
		ldaw r1, sp[18]
	}
.Ltmp2427:
	.loc	3 3974 3
	st8 r5, r1[r4]
.Ltmp2428:
	.loc	3 3977 3
	{
		mov r5, r8
		ldw r0, sp[12]
	}
	{
		mov r2, r5
		ldaw r3, sp[20]
	}
	bl f_write
	{
		nop
		ldw r0, sp[20]
	}
	.loc	3 3978 3
	{
		eq r1, r0, 1
		mov r0, r5
	}
	bt r1, .LBB39_84
.Ltmp2429:
	{
		mkmsk r0, 32
		nop
	}
.Ltmp2430:
.LBB39_84:
	.loc	3 4093 21
	{
		add r10, r0, r10
		nop
	}
	bt r9, .LBB39_80
.Ltmp2431:
	.loc	3 4094 5
	{
		lsu r1, r6, r7
		nop
	}
	bf r1, .LBB39_86
.Ltmp2432:
	.loc	3 4094 5
	{
		sub r5, r7, r6
		ldc r7, 32
	}
	{
		mkmsk r9, 32
		nop
	}
.Ltmp2433:
.LBB39_88:
	{
		ldaw r1, sp[19]
		nop
	}
.Ltmp2434:
	.loc	3 3974 3
	st8 r7, r1[r4]
.Ltmp2435:
	.loc	3 3977 3
	{
		mov r6, r8
		ldw r0, sp[12]
	}
	{
		mov r2, r6
		ldaw r3, sp[21]
	}
	bl f_write
	{
		nop
		ldw r0, sp[21]
	}
	.loc	3 3978 3
	{
		eq r1, r0, 1
		mov r0, r6
	}
	bt r1, .LBB39_90
.Ltmp2436:
	.loc	3 3978 3
	{
		mov r0, r9
		nop
	}
.Ltmp2437:
.LBB39_90:
	.loc	3 4094 34
	{
		add r10, r0, r10
		sub r5, r5, 1
	}
	bt r5, .LBB39_88
	bu .LBB39_91
.Ltmp2438:
.LBB39_86:
	{
		mkmsk r9, 32
		nop
	}
.Ltmp2439:
.LBB39_91:
	.loc	3 4095 9
	{
		eq r0, r0, r9
		mov r6, r10
	}
	bt r0, .LBB39_93
.Ltmp2440:
.LBB39_92:
	.loc	3 4023 33
	{
		add r10, r6, r10
		eq r0, r6, r9
	}
.Ltmp2441:
	{
		ldc r6, 37
		nop
	}
	{
		mov r2, r6
		nop
	}
	ldw r11, cp[.LCPI39_0]
	{
		nop
		ldw r1, sp[10]
	}
	bf r0, .LBB39_1
	bu .LBB39_93
.Ltmp2442:
.LBB39_31:
	{
		mov r9, r1
		mov r2, r4
	}
.Ltmp2443:
.LBB39_37:
	{
		nop
		stw r2, sp[9]
	}
	.loc	3 3995 3
.Ltmp2444:
	{
		mov r0, r4
		ld8u r6, r3[r4]
	}
	bf r6, .LBB39_44
.Ltmp2445:
	{
		add r0, r3, 1
		nop
	}
	.loc	3 4058 20
	{
		mov r1, r4
		stw r0, sp[8]
	}
.Ltmp2446:
.LBB39_39:
	{
		mov r5, r1
		mov r0, r6
	}
	.loc	3 3954 7
.Ltmp2447:
	{
		zext r0, 8
		nop
	}
	.loc	3 3954 7
	{
		eq r0, r0, 10
		nop
	}
	bf r0, .LBB39_41
.Ltmp2448:
	{
		ldaw r1, sp[19]
		ldc r0, 13
	}
.Ltmp2449:
	.loc	3 3974 3
	st8 r0, r1[r4]
.Ltmp2450:
	.loc	3 3977 3
	{
		mov r2, r8
		ldw r0, sp[12]
	}
	{
		ldaw r3, sp[21]
		nop
	}
	bl f_write
.Ltmp2451:
.LBB39_41:
	{
		ldaw r1, sp[18]
		nop
	}
	.loc	3 3974 3
	st8 r6, r1[r4]
.Ltmp2452:
	.loc	3 3977 3
	{
		mov r2, r8
		ldw r0, sp[12]
	}
	{
		ldaw r3, sp[20]
		nop
	}
	bl f_write
	{
		nop
		ldw r0, sp[20]
	}
.Ltmp2453:
	.loc	3 3996 9
	{
		eq r0, r0, 1
		nop
	}
	bf r0, .LBB39_42
.Ltmp2454:
	.loc	3 3995 21
	{
		add r0, r5, 1
		ldw r1, sp[8]
	}
.Ltmp2455:
	.loc	3 3995 3
	{
		mov r1, r0
		ld8u r6, r1[r5]
	}
	bt r6, .LBB39_39
	bu .LBB39_44
.Ltmp2456:
.LBB39_42:
	{
		mkmsk r0, 32
		nop
	}
.Ltmp2457:
.LBB39_44:
	{
		nop
		ldw r1, sp[9]
	}
.Ltmp2458:
	.loc	3 4058 20
	{
		add r6, r0, r1
		lsu r1, r9, r7
	}
.Ltmp2459:
	bf r1, .LBB39_49
.Ltmp2460:
	.loc	3 4059 7
	{
		sub r5, r7, r9
		ldc r9, 32
	}
.Ltmp2461:
.LBB39_46:
	{
		ldaw r1, sp[19]
		nop
	}
.Ltmp2462:
	.loc	3 3974 3
	st8 r9, r1[r4]
.Ltmp2463:
	.loc	3 3977 3
	{
		mov r7, r8
		ldw r0, sp[12]
	}
	{
		mov r2, r7
		ldaw r3, sp[21]
	}
	bl f_write
	{
		nop
		ldw r0, sp[21]
	}
	.loc	3 3978 3
	{
		eq r1, r0, 1
		mov r0, r7
	}
	bt r1, .LBB39_48
.Ltmp2464:
	{
		mkmsk r0, 32
		nop
	}
.Ltmp2465:
.LBB39_48:
	.loc	3 4059 36
	{
		add r6, r0, r6
		sub r5, r5, 1
	}
	bt r5, .LBB39_46
.Ltmp2466:
.LBB39_49:
	{
		mkmsk r9, 32
		nop
	}
	.loc	3 4060 11
.Ltmp2467:
	{
		eq r0, r0, r9
		nop
	}
	bf r0, .LBB39_92
.Ltmp2468:
.LBB39_93:
	{
		mov r10, r9
		nop
	}
.LBB39_94:
	.loc	3 4099 3
	{
		mov r0, r10
		ldw r10, sp[28]
	}
	{
		nop
		ldw r8, sp[26]
	}
	{
		nop
		ldw r9, sp[27]
	}
	{
		nop
		ldw r6, sp[24]
	}
	{
		nop
		ldw r7, sp[25]
	}
	ldd r5, r4, sp[11]
	{
		ldaw sp, sp[32]
		ldw lr, sp[2]
	}
	{
		nop
		retsp 0
	}
	# RETURN_REG_HOLDER
.Ltmp2469:
	.cc_bottom f_printf.function
	.set	f_printf.nstackwords,(f_write.nstackwords + 32)
	.globl	f_printf.nstackwords
	.set	f_printf.maxcores,f_write.maxcores $M 1
	.globl	f_printf.maxcores
	.set	f_printf.maxtimers,f_write.maxtimers $M 0
	.globl	f_printf.maxtimers
	.set	f_printf.maxchanends,f_write.maxchanends $M 0
	.globl	f_printf.maxchanends
.Ltmp2470:
	.size	f_printf, .Ltmp2470-f_printf
.Lfunc_end39:
	.cfi_endproc

	.section	.cp.rodata.cst4,"aMc",@progbits,4
	.cc_top .LCPI40_0.data,.LCPI40_0
	.align	4
	.type	.LCPI40_0,@object
	.size	.LCPI40_0, 4
.LCPI40_0:
	.long	4294967283
	.cc_bottom .LCPI40_0.data
	.cc_top .LCPI40_1.data,.LCPI40_1
	.align	4
	.type	.LCPI40_1,@object
	.size	.LCPI40_1, 4
.LCPI40_1:
	.long	4294967199
	.cc_bottom .LCPI40_1.data
	.text
	.align	4
	.type	dir_find,@function
	.cc_top dir_find.function,dir_find
dir_find:
.Lfunc_begin40:
	.loc	3 1383 0
	.cfi_startproc
	.issue_mode dual
	{
		nop
		dualentsp 14
	}
.Ltmp2471:
	.cfi_def_cfa_offset 56
.Ltmp2472:
	.cfi_offset 15, 0
	std r5, r4, sp[3]
.Ltmp2473:
	.cfi_offset 4, -32
.Ltmp2474:
	.cfi_offset 5, -28
	std r7, r6, sp[4]
.Ltmp2475:
	.cfi_offset 6, -24
.Ltmp2476:
	.cfi_offset 7, -20
	std r9, r8, sp[5]
.Ltmp2477:
	.cfi_offset 8, -16
.Ltmp2478:
	.cfi_offset 9, -12
.Ltmp2479:
	.cfi_offset 10, -8
.Ltmp2480:
	{
		mov r5, r0
		stw r10, sp[12]
	}
.Ltmp2481:
	{
		ldc r4, 0
		nop
	}
	.loc	3 1390 9 prologue_end
.Ltmp2482:
	{
		mov r1, r4
		nop
	}
	bl dir_sdi
.Ltmp2483:
	bt r0, .LBB40_51
.Ltmp2484:
	.loc	3 1412 13
	ldaw r6, r5[8]
	{
		mkmsk r8, 8
		stw r6, sp[4]
	}
	ldc r9, 229
	{
		ldc r10, 8
		mov r7, r8
	}
	{
		nop
		stw r8, sp[5]
	}
	bu .LBB40_2
.Ltmp2485:
.LBB40_3:
	{
		nop
		ldw r0, r5[5]
	}
.Ltmp2486:
	{
		nop
		ld8u r2, r0[r4]
	}
	.loc	3 1400 5
	{
		eq r1, r2, r9
		nop
	}
	.loc	3 1401 9
.Ltmp2487:
	bf r1, .LBB40_5
.Ltmp2488:
	{
		mov r7, r8
		nop
	}
.Ltmp2489:
.LBB40_38:
	.loc	3 1427 11
	{
		mov r0, r5
		mov r1, r4
	}
	bl dir_next
.Ltmp2490:
	bf r0, .LBB40_2
	bu .LBB40_51
.Ltmp2491:
.LBB40_5:
	bf r2, .LBB40_6
.Ltmp2492:
	{
		ldc r1, 11
		nop
	}
	{
		nop
		ld8u r1, r0[r1]
	}
	.loc	3 1404 9
.Ltmp2493:
	{
		and r3, r1, r10
		zext r1, 6
	}
	bf r3, .LBB40_10
.Ltmp2494:
	{
		mkmsk r3, 4
		nop
	}
	{
		eq r3, r1, r3
		nop
	}
	bt r3, .LBB40_10
.Ltmp2495:
	{
		mov r7, r8
		nop
	}
	bu .LBB40_38
.Ltmp2496:
.LBB40_10:
	{
		mkmsk r3, 4
		nop
	}
	.loc	3 1407 11
.Ltmp2497:
	{
		eq r1, r1, r3
		nop
	}
	bf r1, .LBB40_41
.Ltmp2498:
	{
		nop
		ldw r1, r5[7]
	}
.Ltmp2499:
	{
		nop
		stw r1, sp[3]
	}
.Ltmp2500:
	bf r1, .LBB40_38
.Ltmp2501:
	ldc r1, 64
	.loc	3 1409 15
.Ltmp2502:
	{
		and r3, r2, r1
		nop
	}
	.loc	3 1409 15
	bf r3, .LBB40_14
.Ltmp2503:
	{
		ldc r1, 13
		nop
	}
	.loc	3 1410 13
.Ltmp2504:
	{
		add r3, r0, r1
		ld8u r11, r0[r1]
	}
	ldc r1, 191
	.loc	3 1411 13
	{
		and r7, r2, r1
		add r2, r5, 6
	}
	{
		nop
		ld16s r2, r2[r4]
	}
	.loc	3 1412 13
	st16 r2, r6[r4]
	bu .LBB40_17
.Ltmp2505:
.LBB40_41:
	.loc	3 1418 13
	{
		zext r7, 8
		mkmsk r1, 1
	}
	{
		mov r3, r4
		nop
	}
	bt r7, .LBB40_45
	bu .LBB40_42
.Ltmp2506:
.LBB40_43:
	.loc	3 1367 6
	{
		zext r3, 8
		ld8u r2, r0[r1]
	}
	.loc	3 1367 6
	{
		add r1, r1, 1
		nop
	}
.Ltmp2507:
.LBB40_42:
	.loc	3 1367 6
	{
		shr r11, r3, 1
		shl r3, r3, 7
	}
	.loc	3 1367 6
	{
		or r3, r11, r3
		zext r2, 8
	}
	.loc	3 1367 6
	{
		add r3, r3, r2
		eq r2, r1, 11
	}
.xtaloop 11
	# LOOPMARKER 0
	.loc	3 1367 6
	bf r2, .LBB40_43
.Ltmp2508:
	.loc	3 1367 6
	{
		zext r3, 8
		ldw r1, sp[5]
	}
.Ltmp2509:
	.loc	3 1418 28
	{
		zext r1, 8
		nop
	}
	{
		eq r1, r1, r3
		nop
	}
	bt r1, .LBB40_50
.Ltmp2510:
.LBB40_45:
	{
		mkmsk r1, 16
		nop
	}
	.loc	3 1419 21
	st16 r1, r6[r4]
	{
		mov r10, r6
		ldw r1, r5[6]
	}
	{
		ldc r2, 11
		nop
	}
	{
		nop
		ld8u r11, r1[r2]
	}
	.loc	3 1420 13
.Ltmp2511:
	{
		zext r11, 1
		mov r2, r4
	}
	.loc	3 1420 41
	{
		mov r3, r4
		nop
	}
	bf r11, .LBB40_47
.Ltmp2512:
	{
		mov r7, r8
		mov r6, r10
	}
	{
		ldc r10, 8
		nop
	}
	bu .LBB40_38
.Ltmp2513:
.LBB40_47:
	.loc	3 586 3
	{
		eq r11, r2, 11
		nop
	}
	bt r11, .LBB40_49
.Ltmp2514:
	{
		nop
		ld8u r11, r0[r2]
	}
	{
		nop
		ld8u r6, r1[r2]
	}
.Ltmp2515:
	.loc	3 586 3
	{
		sub r3, r11, r6
		eq r11, r11, r6
	}
.Ltmp2516:
	.loc	3 586 3
	{
		add r2, r2, 1
		nop
	}
	bt r11, .LBB40_47
.Ltmp2517:
.LBB40_49:
	{
		mov r7, r8
		mov r6, r10
	}
	{
		ldc r10, 8
		nop
	}
	bt r3, .LBB40_38
	bu .LBB40_50
.Ltmp2518:
.LBB40_14:
	.loc	3 1415 11
	{
		zext r7, 8
		nop
	}
	.loc	3 1415 11
	{
		eq r2, r2, r7
		nop
	}
	bf r2, .LBB40_15
.Ltmp2519:
	{
		ldc r1, 13
		nop
	}
	.loc	3 1415 11
	{
		add r3, r0, r1
		ldw r11, sp[5]
	}
.Ltmp2520:
.LBB40_17:
	.loc	3 1415 11
	{
		mov r3, r11
		ld8u r2, r3[r4]
	}
	.loc	3 1415 11
	{
		zext r3, 8
		nop
	}
	.loc	3 1415 11
	{
		eq r2, r3, r2
		nop
	}
	bf r2, .LBB40_18
.Ltmp2521:
	{
		nop
		stw r11, sp[5]
	}
	{
		nop
		ld8u r2, r0[r4]
	}
	{
		nop
		stw r2, sp[2]
	}
	ldc r1, 191
	.loc	3 1221 3
.Ltmp2522:
	{
		and r2, r2, r1
		ldc r1, 13
	}
	.loc	3 1221 3
	mul r2, r2, r1
	ldw r1, cp[.LCPI40_0]
.Ltmp2523:
	.loc	3 1221 3
	{
		add r2, r2, r1
		mov r3, r4
	}
.Ltmp2524:
	{
		mkmsk r6, 1
		nop
	}
.Ltmp2525:
.LBB40_20:
	ldaw r11, cp[LfnOfs]
	{
		nop
		ld8u r11, r11[r3]
	}
	.loc	3 1224 5
.Ltmp2526:
	{
		add r10, r0, r11
		mkmsk r1, 1
	}
	{
		nop
		ld8u r10, r10[r1]
	}
	.loc	3 1224 5
	{
		shl r10, r10, 8
		ld8u r11, r0[r11]
	}
	.loc	3 1224 5
	{
		or r11, r10, r11
		zext r6, 16
	}
	.loc	3 1225 9
.Ltmp2527:
	bf r6, .LBB40_39
.Ltmp2528:
	.loc	3 531 15
	{
		shr r10, r11, 7
		mov r6, r4
	}
	bt r10, .LBB40_24
.Ltmp2529:
	ldw r1, cp[.LCPI40_1]
	.loc	3 533 25
.Ltmp2530:
	{
		add r6, r11, r1
		nop
	}
	{
		zext r6, 16
		ldc r1, 25
	}
	.loc	3 533 25
	{
		lsu r10, r1, r6
		mov r6, r11
	}
	bt r10, .LBB40_24
.Ltmp2531:
	ldc r1, 65503
	.loc	3 534 31
.Ltmp2532:
	{
		and r6, r11, r1
		nop
	}
.Ltmp2533:
.LBB40_24:
	ldc r1, 254
	.loc	3 1227 11
.Ltmp2534:
	{
		lsu r11, r1, r2
		nop
	}
	.loc	3 1227 11
	bt r11, .LBB40_25
.Ltmp2535:
	{
		nop
		ldw r1, sp[3]
	}
	{
		nop
		ld16s r11, r1[r2]
	}
	.loc	3 1227 34
	{
		zext r11, 16
		nop
	}
	.loc	3 531 15
.Ltmp2536:
	{
		shr r1, r11, 7
		mov r10, r4
	}
	bt r1, .LBB40_30
.Ltmp2537:
	ldw r1, cp[.LCPI40_1]
	.loc	3 533 25
.Ltmp2538:
	{
		add r1, r11, r1
		nop
	}
	{
		zext r1, 16
		ldc r10, 25
	}
	.loc	3 533 25
	{
		lsu r1, r10, r1
		nop
	}
	bt r1, .LBB40_28
.Ltmp2539:
	ldc r1, 65503
	.loc	3 534 31
.Ltmp2540:
	{
		and r10, r11, r1
		nop
	}
	bu .LBB40_30
.Ltmp2541:
.LBB40_39:
	{
		mkmsk r1, 16
		nop
	}
	.loc	3 1230 11
.Ltmp2542:
	{
		eq r1, r11, r1
		mov r6, r4
	}
	{
		ldc r10, 8
		nop
	}
	bt r1, .LBB40_32
	bu .LBB40_40
.Ltmp2543:
.LBB40_28:
	.loc	3 1227 34
	{
		mov r10, r11
		nop
	}
.Ltmp2544:
.LBB40_30:
	.loc	3 1227 34
	{
		eq r1, r6, r10
		nop
	}
	bf r1, .LBB40_25
.Ltmp2545:
	.loc	3 1227 34
	{
		add r2, r2, 1
		ldc r10, 8
	}
.Ltmp2546:
.LBB40_32:
	.loc	3 1232 3
	{
		add r3, r3, 1
		ldc r1, 13
	}
.Ltmp2547:
	.loc	3 1232 3
	{
		lsu r1, r3, r1
		nop
	}
	bt r1, .LBB40_20
.Ltmp2548:
	ldc r0, 64
	{
		nop
		ldw r1, sp[2]
	}
	.loc	3 1234 7
.Ltmp2549:
	{
		and r0, r1, r0
		nop
	}
	bf r0, .LBB40_36
.Ltmp2550:
	bf r6, .LBB40_36
.Ltmp2551:
	{
		nop
		ldw r0, sp[3]
	}
	{
		nop
		ld16s r0, r0[r2]
	}
	.loc	3 1234 7
	{
		zext r0, 16
		nop
	}
	bf r0, .LBB40_36
.Ltmp2552:
.LBB40_40:
	{
		mov r7, r8
		nop
	}
	bu .LBB40_37
.Ltmp2553:
.LBB40_18:
	{
		mov r7, r8
		stw r11, sp[5]
	}
	bu .LBB40_38
.Ltmp2554:
.LBB40_25:
	{
		mov r7, r8
		ldw r6, sp[4]
	}
	{
		ldc r10, 8
		nop
	}
	bu .LBB40_38
.Ltmp2555:
.LBB40_15:
	{
		mov r7, r8
		nop
	}
	bu .LBB40_38
.Ltmp2556:
.LBB40_36:
	.loc	3 1415 57
	{
		add r7, r7, r8
		nop
	}
.Ltmp2557:
.LBB40_37:
	{
		nop
		ldw r6, sp[4]
	}
	bu .LBB40_38
.LBB40_2:
.Ltmp2558:
	{
		nop
		ldw r0, r5[0]
	}
	{
		nop
		ldw r1, r5[4]
	}
	.loc	3 1397 11
	bl move_window
.Ltmp2559:
	bf r0, .LBB40_3
	bu .LBB40_51
.Ltmp2560:
.LBB40_6:
	{
		ldc r0, 4
		nop
	}
.LBB40_51:
	{
		nop
		ldw r10, sp[12]
	}
	.loc	3 1431 1
	ldd r9, r8, sp[5]
	ldd r7, r6, sp[4]
	ldd r5, r4, sp[3]
	{
		nop
		retsp 14
	}
	# RETURN_REG_HOLDER
.Ltmp2561:
.LBB40_50:
	{
		mov r0, r4
		nop
	}
	bu .LBB40_51
	.cc_bottom dir_find.function
	.set	dir_find.nstackwords,((dir_sdi.nstackwords $M move_window.nstackwords $M dir_next.nstackwords) + 14)
	.set	dir_find.maxcores,dir_next.maxcores $M dir_sdi.maxcores $M move_window.maxcores $M 1
	.set	dir_find.maxtimers,dir_next.maxtimers $M dir_sdi.maxtimers $M move_window.maxtimers $M 0
	.set	dir_find.maxchanends,dir_next.maxchanends $M dir_sdi.maxchanends $M move_window.maxchanends $M 0
.Ltmp2562:
	.size	dir_find, .Ltmp2562-dir_find
.Lfunc_end40:
	.cfi_endproc

	.section	.dp.bss.4,"awd",@nobits
	.cc_top FatFs.data,FatFs
	.align	4
	.type	FatFs,@object
	.size	FatFs, 4
FatFs:
	.space	4
	.cc_bottom FatFs.data
	.cc_top LfnBuf.data,LfnBuf
	.align	4
	.type	LfnBuf,@object
	.size	LfnBuf, 512
LfnBuf:
	.space	512
	.cc_bottom LfnBuf.data
	.cc_top CurrVol.data,CurrVol
	.align	4
	.type	CurrVol,@object
	.size	CurrVol, 1
CurrVol:
	.byte	0
	.space	3
	.cc_bottom CurrVol.data
	.section	.cp.rodata.4,"ac",@progbits
	.cc_top LfnOfs.data,LfnOfs
	.align	4
	.type	LfnOfs,@object
	.size	LfnOfs, 13
LfnOfs:
	.ascii	"\001\003\005\007\t\016\020\022\024\026\030\034\036"
	.cc_bottom LfnOfs.data
	.section	.cp.rodata.string,"aMSc",@progbits
	.cc_top .L.str.data,.L.str
	.align	4
	.type	.L.str,@object
	.size	.L.str, 9
.L.str:
.asciiz"\"*:<>?|\177"
	.cc_bottom .L.str.data
	.cc_top .L.str1.data,.L.str1
	.align	4
	.type	.L.str1,@object
	.size	.L.str1, 7
.L.str1:
.asciiz"+,;=[]"
	.cc_bottom .L.str1.data
	.section	.dp.bss.4,"awd",@nobits
	.cc_top Fsid.data,Fsid
	.align	4
	.type	Fsid,@object
	.size	Fsid, 2
Fsid:
	.short	0
	.space	2
	.cc_bottom Fsid.data
	.section	.cp.rodata.4,"ac",@progbits
	.cc_top .Lswitch.table.data,.Lswitch.table
	.align	4
	.type	.Lswitch.table,@object
	.size	.Lswitch.table, 12
.Lswitch.table:
	.long	1
	.long	7
	.long	2
	.cc_bottom .Lswitch.table.data
	.cc_top .Lswitch.table2.data,.Lswitch.table2
	.align	4
	.type	.Lswitch.table2,@object
	.size	.Lswitch.table2, 12
.Lswitch.table2:
	.long	1
	.long	0
	.long	2
	.cc_bottom .Lswitch.table2.data
.Ldebug_end0:
	.section	.dp.bss.4,"awd",@nobits
.Ldebug_end1:
	.text
.Ldebug_end2:
	.file	5 "C:/Users/takaaki/git/sw_xSSDAC/module_FatFs/src\\ff.c"
	.file	6 "C:\\Program Files (x86)\\XMOS\\xTIMEcomposer\\Community_14.4.1\\target/include/clang\\stdarg.h"
	.section	.trap_info,"",@progbits
.Ltrap_info_entries_start0:
	.long	.Ltrap_info_entries_end0-.Ltrap_info_entries_start0
	.long	1
.Ltrap_info_entries_end0: