	.text
	.file	"window.c"
	.section	.cp.rodata.cst4,"aMc",@progbits,4
	.cc_top .LCPI0_0.data,.LCPI0_0
	.align	4
	.type	.LCPI0_0,@object
	.size	.LCPI0_0, 4
.LCPI0_0:
	.long	1073741824
	.cc_bottom .LCPI0_0.data
	.text
	.globl	FLAC__window_bartlett
	.align	4
	.type	FLAC__window_bartlett,@function
	.cc_top FLAC__window_bartlett.function,FLAC__window_bartlett
FLAC__window_bartlett:
.Lfunc_begin0:
	.file	4 "C:/Users/takaaki/git/sw_xSSDAC/module_libFLAC/source\\window.c"
	.loc	4 51 0
	.cfi_startproc
	.issue_mode dual
	{
		nop
		dualentsp 8
	}
.Ltmp0:
	.cfi_def_cfa_offset 32
.Ltmp1:
	.cfi_offset 15, 0
	std r5, r4, sp[1]
.Ltmp2:
	.cfi_offset 4, -24
.Ltmp3:
	.cfi_offset 5, -20
	std r7, r6, sp[2]
.Ltmp4:
	.cfi_offset 6, -16
.Ltmp5:
	.cfi_offset 7, -12
	std r9, r8, sp[3]
.Ltmp6:
	.cfi_offset 8, -8
.Ltmp7:
	.cfi_offset 9, -4
.Ltmp8:
	{
		mov r4, r0
		sub r5, r1, 1
	}
.Ltmp9:
	.loc	4 55 6 prologue_end
	{
		mov r0, r1
		nop
	}
	{
		zext r0, 1
		nop
	}
	.loc	4 55 6
	bf r0, .LBB0_3
.Ltmp10:
	.loc	4 56 3
	ashr r0, r1, 32
	bt r0, .LBB0_2
.Ltmp11:
	{
		mkmsk r0, 5
		nop
	}
	.loc	4 56 3
	{
		shr r0, r5, r0
		nop
	}
	{
		add r0, r5, r0
		nop
	}
	ashr r8, r0, 1
	.loc	4 57 4
	{
		mov r0, r5
		nop
	}
	bl __floatsisf
	{
		mov r6, r0
		ldc r7, 0
	}
.Ltmp12:
.LBB0_12:
	.loc	4 57 4
	{
		mov r0, r7
		nop
	}
	bl __floatsisf
	.loc	4 57 4
	{
		mov r1, r0
		nop
	}
	bl __addsf3
	.loc	4 57 4
	{
		mov r1, r6
		nop
	}
	bl __divsf3
	.loc	4 57 4
	stw r0, r4[r7]
	.loc	4 56 25
	{
		add r0, r7, 1
		lss r1, r7, r8
	}
	{
		mov r7, r0
		nop
	}
	.loc	4 56 3
	bt r1, .LBB0_12
.Ltmp13:
	{
		mkmsk r6, 1
		nop
	}
	{
		lss r0, r6, r5
		nop
	}
	bf r0, .LBB0_7
.Ltmp14:
	.loc	4 56 3
	{
		add r6, r8, 1
		nop
	}
	bu .LBB0_7
.Ltmp15:
.LBB0_3:
	{
		ldc r0, 2
		nop
	}
	.loc	4 62 3
.Ltmp16:
	{
		lss r0, r1, r0
		nop
	}
	.loc	4 62 3
	bf r0, .LBB0_18
.Ltmp17:
	{
		ldc r6, 0
		nop
	}
	bu .LBB0_15
.Ltmp18:
.LBB0_2:
	{
		ldc r6, 0
		nop
	}
.Ltmp19:
.LBB0_7:
	.loc	4 58 3
	{
		lss r0, r5, r6
		nop
	}
	bt r0, .LBB0_10
.Ltmp20:
	.loc	4 59 4
	{
		mov r0, r5
		nop
	}
	bl __floatsisf
	{
		mov r7, r0
		nop
	}
	ldw r8, cp[.LCPI0_0]
.Ltmp21:
.LBB0_9:
	.loc	4 59 4
	{
		mov r0, r6
		nop
	}
	bl __floatsisf
	.loc	4 59 4
	{
		mov r1, r0
		nop
	}
	bl __addsf3
	.loc	4 59 4
	{
		mov r1, r7
		nop
	}
	bl __divsf3
	{
		mov r1, r0
		mov r0, r8
	}
	.loc	4 59 4
	bl __subsf3
	.loc	4 59 4
	stw r0, r4[r6]
.Ltmp22:
	.loc	4 58 18
	{
		add r0, r6, 1
		lss r1, r6, r5
	}
.Ltmp23:
	{
		mov r6, r0
		nop
	}
.Ltmp24:
	bt r1, .LBB0_9
	bu .LBB0_10
.Ltmp25:
.LBB0_18:
	{
		mkmsk r0, 5
		nop
	}
	.loc	4 62 3
.Ltmp26:
	{
		shr r0, r1, r0
		nop
	}
	{
		add r0, r1, r0
		nop
	}
	ashr r6, r0, 1
	.loc	4 62 3
	{
		sub r9, r6, 1
		mov r0, r5
	}
	.loc	4 63 4
	bl __floatsisf
.Ltmp27:
	{
		mov r7, r0
		ldc r8, 0
	}
.Ltmp28:
.LBB0_19:
	.loc	4 63 4
	{
		mov r0, r8
		nop
	}
	bl __floatsisf
	.loc	4 63 4
	{
		mov r1, r0
		nop
	}
	bl __addsf3
	.loc	4 63 4
	{
		mov r1, r7
		nop
	}
	bl __divsf3
	.loc	4 63 4
	stw r0, r4[r8]
	.loc	4 62 27
	{
		add r0, r8, 1
		lss r1, r8, r9
	}
	{
		mov r8, r0
		nop
	}
	.loc	4 62 3
	bt r1, .LBB0_19
.Ltmp29:
	{
		ldc r0, 0
		nop
	}
	{
		lss r0, r0, r9
		nop
	}
	bt r0, .LBB0_15
.Ltmp30:
	{
		mkmsk r6, 1
		nop
	}
.Ltmp31:
.LBB0_15:
	.loc	4 64 3
	{
		lss r0, r5, r6
		nop
	}
	bt r0, .LBB0_10
.Ltmp32:
	.loc	4 65 4
	{
		mov r0, r5
		nop
	}
	bl __floatsisf
	{
		mov r7, r0
		nop
	}
	ldw r8, cp[.LCPI0_0]
.Ltmp33:
.LBB0_17:
	.loc	4 65 4
	{
		mov r0, r6
		nop
	}
	bl __floatsisf
	.loc	4 65 4
	{
		mov r1, r0
		nop
	}
	bl __addsf3
	.loc	4 65 4
	{
		mov r1, r7
		nop
	}
	bl __divsf3
	{
		mov r1, r0
		mov r0, r8
	}
	.loc	4 65 4
	bl __subsf3
	.loc	4 65 4
	stw r0, r4[r6]
.Ltmp34:
	.loc	4 64 18
	{
		add r0, r6, 1
		lss r1, r6, r5
	}
.Ltmp35:
	{
		mov r6, r0
		nop
	}
.Ltmp36:
	bt r1, .LBB0_17
.Ltmp37:
.LBB0_10:
	.loc	4 67 1
	ldd r9, r8, sp[3]
	ldd r7, r6, sp[2]
	ldd r5, r4, sp[1]
	{
		nop
		retsp 8
	}
	# RETURN_REG_HOLDER
.Ltmp38:
	.cc_bottom FLAC__window_bartlett.function
	.set	FLAC__window_bartlett.nstackwords,((__subsf3.nstackwords $M __floatsisf.nstackwords $M __addsf3.nstackwords $M __divsf3.nstackwords) + 8)
	.globl	FLAC__window_bartlett.nstackwords
	.set	FLAC__window_bartlett.maxcores,1
	.globl	FLAC__window_bartlett.maxcores
	.set	FLAC__window_bartlett.maxtimers,0
	.globl	FLAC__window_bartlett.maxtimers
	.set	FLAC__window_bartlett.maxchanends,0
	.globl	FLAC__window_bartlett.maxchanends
.Ltmp39:
	.size	FLAC__window_bartlett, .Ltmp39-FLAC__window_bartlett
.Lfunc_end0:
	.cfi_endproc

	.section	.cp.rodata.cst4,"aMc",@progbits,4
	.cc_top .LCPI1_0.data,.LCPI1_0
	.align	4
	.type	.LCPI1_0,@object
	.size	.LCPI1_0, 4
.LCPI1_0:
	.long	3204448256
	.cc_bottom .LCPI1_0.data
	.cc_top .LCPI1_1.data,.LCPI1_1
	.align	4
	.type	.LCPI1_1,@object
	.size	.LCPI1_1, 4
.LCPI1_1:
	.long	2147483647
	.cc_bottom .LCPI1_1.data
	.cc_top .LCPI1_2.data,.LCPI1_2
	.align	4
	.type	.LCPI1_2,@object
	.size	.LCPI1_2, 4
.LCPI1_2:
	.long	3203777167
	.cc_bottom .LCPI1_2.data
	.cc_top .LCPI1_3.data,.LCPI1_3
	.align	4
	.type	.LCPI1_3,@object
	.size	.LCPI1_3, 4
.LCPI1_3:
	.long	1058977874
	.cc_bottom .LCPI1_3.data
	.cc_top .LCPI1_4.data,.LCPI1_4
	.align	4
	.type	.LCPI1_4,@object
	.size	.LCPI1_4, 4
.LCPI1_4:
	.long	1413754136
	.cc_bottom .LCPI1_4.data
	.cc_top .LCPI1_5.data,.LCPI1_5
	.align	4
	.type	.LCPI1_5,@object
	.size	.LCPI1_5, 4
.LCPI1_5:
	.long	1075388923
	.cc_bottom .LCPI1_5.data
	.cc_top .LCPI1_6.data,.LCPI1_6
	.align	4
	.type	.LCPI1_6,@object
	.size	.LCPI1_6, 4
.LCPI1_6:
	.long	3200421724
	.cc_bottom .LCPI1_6.data
	.text
	.globl	FLAC__window_bartlett_hann
	.align	4
	.type	FLAC__window_bartlett_hann,@function
	.cc_top FLAC__window_bartlett_hann.function,FLAC__window_bartlett_hann
FLAC__window_bartlett_hann:
.Lfunc_begin1:
	.loc	4 70 0
	.cfi_startproc
	.issue_mode dual
	{
		nop
		dualentsp 10
	}
.Ltmp40:
	.cfi_def_cfa_offset 40
.Ltmp41:
	.cfi_offset 15, 0
	std r5, r4, sp[1]
.Ltmp42:
	.cfi_offset 4, -32
.Ltmp43:
	.cfi_offset 5, -28
	std r7, r6, sp[2]
.Ltmp44:
	.cfi_offset 6, -24
.Ltmp45:
	.cfi_offset 7, -20
	std r9, r8, sp[3]
.Ltmp46:
	.cfi_offset 8, -16
.Ltmp47:
	.cfi_offset 9, -12
.Ltmp48:
	.cfi_offset 10, -8
.Ltmp49:
	{
		mov r4, r1
		stw r10, sp[8]
	}
.Ltmp50:
	{
		mov r5, r0
		mkmsk r0, 1
	}
.Ltmp51:
	.loc	4 74 2 prologue_end
	{
		lss r0, r4, r0
		nop
	}
	bt r0, .LBB1_3
.Ltmp52:
	.loc	4 71 2
	{
		sub r0, r4, 1
		nop
	}
.Ltmp53:
	.loc	4 75 44
	bl __floatsisf
.Ltmp54:
	{
		mov r6, r0
		ldc r7, 0
	}
	ldw r10, cp[.LCPI1_6]
.Ltmp55:
.LBB1_2:
	.loc	4 75 44
	{
		mov r0, r7
		nop
	}
	bl __floatsisf
	.loc	4 75 44
	{
		mov r1, r6
		nop
	}
	bl __divsf3
	{
		mov r9, r0
		nop
	}
	ldw r1, cp[.LCPI1_0]
	.loc	4 75 44
	bl __addsf3
	ldw r1, cp[.LCPI1_1]
	.loc	4 75 44
	{
		and r0, r0, r1
		nop
	}
	ldw r1, cp[.LCPI1_2]
	.loc	4 75 44
	bl __mulsf3
	ldw r1, cp[.LCPI1_3]
	.loc	4 75 44
	bl __addsf3
	{
		mov r8, r0
		mov r0, r9
	}
	.loc	4 75 84
	bl __extendsfdf2
	ldw r2, cp[.LCPI1_4]
	ldw r3, cp[.LCPI1_5]
	.loc	4 75 84
	bl __muldf3
	.loc	4 75 84
	bl __truncdfsf2
	.loc	4 75 84
	bl cosf
	.loc	4 75 84
	{
		mov r1, r10
		nop
	}
	bl __mulsf3
	{
		mov r1, r0
		mov r0, r8
	}
	.loc	4 75 84
	bl __addsf3
	.loc	4 75 84
	stw r0, r5[r7]
	.loc	4 74 21
	{
		add r7, r7, 1
		nop
	}
.Ltmp56:
	.loc	4 74 2
	{
		eq r0, r4, r7
		nop
	}
	bf r0, .LBB1_2
.Ltmp57:
.LBB1_3:
	{
		nop
		ldw r10, sp[8]
	}
	.loc	4 76 1
	ldd r9, r8, sp[3]
	ldd r7, r6, sp[2]
	ldd r5, r4, sp[1]
	{
		nop
		retsp 10
	}
	# RETURN_REG_HOLDER
.Ltmp58:
	.cc_bottom FLAC__window_bartlett_hann.function
	.set	FLAC__window_bartlett_hann.nstackwords,((__floatsisf.nstackwords $M __divsf3.nstackwords $M __extendsfdf2.nstackwords $M __muldf3.nstackwords $M __truncdfsf2.nstackwords $M cosf.nstackwords $M __mulsf3.nstackwords $M __addsf3.nstackwords) + 10)
	.globl	FLAC__window_bartlett_hann.nstackwords
	.set	FLAC__window_bartlett_hann.maxcores,cosf.maxcores $M fabsf.maxcores $M 1
	.globl	FLAC__window_bartlett_hann.maxcores
	.set	FLAC__window_bartlett_hann.maxtimers,cosf.maxtimers $M fabsf.maxtimers $M 0
	.globl	FLAC__window_bartlett_hann.maxtimers
	.set	FLAC__window_bartlett_hann.maxchanends,cosf.maxchanends $M fabsf.maxchanends $M 0
	.globl	FLAC__window_bartlett_hann.maxchanends
.Ltmp59:
	.size	FLAC__window_bartlett_hann, .Ltmp59-FLAC__window_bartlett_hann
.Lfunc_end1:
	.cfi_endproc

	.section	.cp.rodata.cst4,"aMc",@progbits,4
	.cc_top .LCPI2_0.data,.LCPI2_0
	.align	4
	.type	.LCPI2_0,@object
	.size	.LCPI2_0, 4
.LCPI2_0:
	.long	1413754136
	.cc_bottom .LCPI2_0.data
	.cc_top .LCPI2_1.data,.LCPI2_1
	.align	4
	.type	.LCPI2_1,@object
	.size	.LCPI2_1, 4
.LCPI2_1:
	.long	1075388923
	.cc_bottom .LCPI2_1.data
	.cc_top .LCPI2_2.data,.LCPI2_2
	.align	4
	.type	.LCPI2_2,@object
	.size	.LCPI2_2, 4
.LCPI2_2:
	.long	3204448256
	.cc_bottom .LCPI2_2.data
	.cc_top .LCPI2_3.data,.LCPI2_3
	.align	4
	.type	.LCPI2_3,@object
	.size	.LCPI2_3, 4
.LCPI2_3:
	.long	1054280253
	.cc_bottom .LCPI2_3.data
	.cc_top .LCPI2_4.data,.LCPI2_4
	.align	4
	.type	.LCPI2_4,@object
	.size	.LCPI2_4, 4
.LCPI2_4:
	.long	1076437499
	.cc_bottom .LCPI2_4.data
	.cc_top .LCPI2_5.data,.LCPI2_5
	.align	4
	.type	.LCPI2_5,@object
	.size	.LCPI2_5, 4
.LCPI2_5:
	.long	1034147594
	.cc_bottom .LCPI2_5.data
	.text
	.globl	FLAC__window_blackman
	.align	4
	.type	FLAC__window_blackman,@function
	.cc_top FLAC__window_blackman.function,FLAC__window_blackman
FLAC__window_blackman:
.Lfunc_begin2:
	.loc	4 79 0
	.cfi_startproc
	.issue_mode dual
	{
		nop
		dualentsp 12
	}
.Ltmp60:
	.cfi_def_cfa_offset 48
.Ltmp61:
	.cfi_offset 15, 0
	std r5, r4, sp[2]
.Ltmp62:
	.cfi_offset 4, -32
.Ltmp63:
	.cfi_offset 5, -28
	std r7, r6, sp[3]
.Ltmp64:
	.cfi_offset 6, -24
.Ltmp65:
	.cfi_offset 7, -20
	std r9, r8, sp[4]
.Ltmp66:
	.cfi_offset 8, -16
.Ltmp67:
	.cfi_offset 9, -12
	{
		nop
		stw r10, sp[10]
	}
.Ltmp68:
	.cfi_offset 10, -8
	{
		nop
		stw r1, sp[3]
	}
.Ltmp69:
	{
		mkmsk r0, 1
		stw r0, sp[2]
	}
.Ltmp70:
	.loc	4 83 2 prologue_end
	{
		lss r0, r1, r0
		nop
	}
.Ltmp71:
	bt r0, .LBB2_3
.Ltmp72:
	{
		nop
		ldw r0, sp[3]
	}
.Ltmp73:
	.loc	4 80 2
	{
		sub r0, r0, 1
		nop
	}
.Ltmp74:
	.loc	4 84 43
	bl __floatsidf
.Ltmp75:
	{
		mov r7, r0
		mov r9, r1
	}
	{
		ldc r8, 0
		nop
	}
	ldw r6, cp[.LCPI2_0]
.Ltmp76:
.LBB2_2:
	.loc	4 84 43
	{
		mov r0, r8
		nop
	}
.Ltmp77:
	bl __floatsidf
	{
		mov r10, r0
		mov r5, r1
	}
	.loc	4 84 43
	{
		mov r2, r6
		nop
	}
	ldw r3, cp[.LCPI2_1]
	bl __muldf3
	.loc	4 84 43
	{
		mov r2, r7
		mov r3, r9
	}
	bl __divdf3
	.loc	4 84 43
	bl __truncdfsf2
	.loc	4 84 43
	bl cosf
	ldw r1, cp[.LCPI2_2]
	.loc	4 84 43
	bl __mulsf3
	ldw r1, cp[.LCPI2_3]
	.loc	4 84 43
	bl __addsf3
.Ltmp78:
	{
		mov r4, r0
		mov r0, r10
	}
	.loc	4 84 79
	{
		mov r1, r5
		mov r2, r6
	}
	ldw r3, cp[.LCPI2_4]
	bl __muldf3
	.loc	4 84 79
	{
		mov r2, r7
		mov r3, r9
	}
	bl __divdf3
	.loc	4 84 79
	bl __truncdfsf2
	.loc	4 84 79
	bl cosf
	ldw r1, cp[.LCPI2_5]
	.loc	4 84 79
	bl __mulsf3
	{
		mov r1, r0
		mov r0, r4
	}
	{
		nop
		ldw r4, sp[2]
	}
.Ltmp79:
	.loc	4 84 79
	bl __addsf3
.Ltmp80:
	.loc	4 84 79
	stw r0, r4[r8]
.Ltmp81:
	.loc	4 83 21
	{
		add r8, r8, 1
		ldw r0, sp[3]
	}
.Ltmp82:
	.loc	4 83 2
	{
		eq r0, r0, r8
		nop
	}
	bf r0, .LBB2_2
.Ltmp83:
.LBB2_3:
	{
		nop
		ldw r10, sp[10]
	}
	.loc	4 85 1
	ldd r9, r8, sp[4]
	ldd r7, r6, sp[3]
	ldd r5, r4, sp[2]
	{
		nop
		retsp 12
	}
	# RETURN_REG_HOLDER
.Ltmp84:
	.cc_bottom FLAC__window_blackman.function
	.set	FLAC__window_blackman.nstackwords,((__floatsidf.nstackwords $M __muldf3.nstackwords $M __divdf3.nstackwords $M __truncdfsf2.nstackwords $M cosf.nstackwords $M __mulsf3.nstackwords $M __addsf3.nstackwords) + 12)
	.globl	FLAC__window_blackman.nstackwords
	.set	FLAC__window_blackman.maxcores,cosf.maxcores $M 1
	.globl	FLAC__window_blackman.maxcores
	.set	FLAC__window_blackman.maxtimers,cosf.maxtimers $M 0
	.globl	FLAC__window_blackman.maxtimers
	.set	FLAC__window_blackman.maxchanends,cosf.maxchanends $M 0
	.globl	FLAC__window_blackman.maxchanends
.Ltmp85:
	.size	FLAC__window_blackman, .Ltmp85-FLAC__window_blackman
.Lfunc_end2:
	.cfi_endproc

	.section	.cp.rodata.cst4,"aMc",@progbits,4
	.cc_top .LCPI3_0.data,.LCPI3_0
	.align	4
	.type	.LCPI3_0,@object
	.size	.LCPI3_0, 4
.LCPI3_0:
	.long	1413754136
	.cc_bottom .LCPI3_0.data
	.cc_top .LCPI3_1.data,.LCPI3_1
	.align	4
	.type	.LCPI3_1,@object
	.size	.LCPI3_1, 4
.LCPI3_1:
	.long	1075388923
	.cc_bottom .LCPI3_1.data
	.cc_top .LCPI3_2.data,.LCPI3_2
	.align	4
	.type	.LCPI3_2,@object
	.size	.LCPI3_2, 4
.LCPI3_2:
	.long	3204055334
	.cc_bottom .LCPI3_2.data
	.cc_top .LCPI3_3.data,.LCPI3_3
	.align	4
	.type	.LCPI3_3,@object
	.size	.LCPI3_3, 4
.LCPI3_3:
	.long	1052225044
	.cc_bottom .LCPI3_3.data
	.cc_top .LCPI3_4.data,.LCPI3_4
	.align	4
	.type	.LCPI3_4,@object
	.size	.LCPI3_4, 4
.LCPI3_4:
	.long	1076437499
	.cc_bottom .LCPI3_4.data
	.cc_top .LCPI3_5.data,.LCPI3_5
	.align	4
	.type	.LCPI3_5,@object
	.size	.LCPI3_5, 4
.LCPI3_5:
	.long	1041279924
	.cc_bottom .LCPI3_5.data
	.cc_top .LCPI3_6.data,.LCPI3_6
	.align	4
	.type	.LCPI3_6,@object
	.size	.LCPI3_6, 4
.LCPI3_6:
	.long	2134057426
	.cc_bottom .LCPI3_6.data
	.cc_top .LCPI3_7.data,.LCPI3_7
	.align	4
	.type	.LCPI3_7,@object
	.size	.LCPI3_7, 4
.LCPI3_7:
	.long	1077074300
	.cc_bottom .LCPI3_7.data
	.cc_top .LCPI3_8.data,.LCPI3_8
	.align	4
	.type	.LCPI3_8,@object
	.size	.LCPI3_8, 4
.LCPI3_8:
	.long	3158269305
	.cc_bottom .LCPI3_8.data
	.text
	.globl	FLAC__window_blackman_harris_4term_92db_sidelobe
	.align	4
	.type	FLAC__window_blackman_harris_4term_92db_sidelobe,@function
	.cc_top FLAC__window_blackman_harris_4term_92db_sidelobe.function,FLAC__window_blackman_harris_4term_92db_sidelobe
FLAC__window_blackman_harris_4term_92db_sidelobe:
.Lfunc_begin3:
	.loc	4 89 0
	.cfi_startproc
	.issue_mode dual
	{
		nop
		dualentsp 12
	}
.Ltmp86:
	.cfi_def_cfa_offset 48
.Ltmp87:
	.cfi_offset 15, 0
	std r5, r4, sp[2]
.Ltmp88:
	.cfi_offset 4, -32
.Ltmp89:
	.cfi_offset 5, -28
	std r7, r6, sp[3]
.Ltmp90:
	.cfi_offset 6, -24
.Ltmp91:
	.cfi_offset 7, -20
	std r9, r8, sp[4]
.Ltmp92:
	.cfi_offset 8, -16
.Ltmp93:
	.cfi_offset 9, -12
	{
		nop
		stw r10, sp[10]
	}
.Ltmp94:
	.cfi_offset 10, -8
.Ltmp95:
	{
		mkmsk r0, 1
		stw r0, sp[3]
	}
.Ltmp96:
	.loc	4 93 2 prologue_end
	{
		lss r0, r1, r0
		nop
	}
	bt r0, .LBB3_3
.Ltmp97:
	.loc	4 90 2
	{
		sub r0, r1, 1
		nop
	}
.Ltmp98:
	{
		nop
		stw r0, sp[2]
	}
.Ltmp99:
	.loc	4 94 50
	bl __floatsidf
.Ltmp100:
	{
		mov r7, r0
		mov r9, r1
	}
	{
		ldc r8, 0
		nop
	}
	ldw r6, cp[.LCPI3_0]
.Ltmp101:
.LBB3_2:
	.loc	4 94 50
	{
		mov r0, r8
		nop
	}
.Ltmp102:
	bl __floatsidf
.Ltmp103:
	{
		mov r10, r0
		mov r4, r1
	}
	.loc	4 94 50
	{
		mov r2, r6
		nop
	}
	ldw r3, cp[.LCPI3_1]
	bl __muldf3
	.loc	4 94 50
	{
		mov r2, r7
		mov r3, r9
	}
	bl __divdf3
	.loc	4 94 50
	bl __truncdfsf2
	.loc	4 94 50
	bl cosf
	ldw r1, cp[.LCPI3_2]
	.loc	4 94 50
	bl __mulsf3
	ldw r1, cp[.LCPI3_3]
	.loc	4 94 50
	bl __addsf3
	{
		mov r5, r0
		mov r0, r10
	}
	.loc	4 94 89
	{
		mov r1, r4
		mov r2, r6
	}
	ldw r3, cp[.LCPI3_4]
	bl __muldf3
	.loc	4 94 89
	{
		mov r2, r7
		mov r3, r9
	}
	bl __divdf3
	.loc	4 94 89
	bl __truncdfsf2
	.loc	4 94 89
	bl cosf
	ldw r1, cp[.LCPI3_5]
	.loc	4 94 89
	bl __mulsf3
	{
		mov r1, r0
		mov r0, r5
	}
	.loc	4 94 89
	bl __addsf3
	{
		mov r5, r0
		mov r0, r10
	}
.Ltmp104:
	.loc	4 94 128
	{
		mov r1, r4
		ldw r4, sp[3]
	}
	ldw r2, cp[.LCPI3_6]
	ldw r3, cp[.LCPI3_7]
	bl __muldf3
.Ltmp105:
	.loc	4 94 128
	{
		mov r2, r7
		mov r3, r9
	}
	bl __divdf3
	.loc	4 94 128
	bl __truncdfsf2
	.loc	4 94 128
	bl cosf
	ldw r1, cp[.LCPI3_8]
	.loc	4 94 128
	bl __mulsf3
	{
		mov r1, r0
		mov r0, r5
	}
	.loc	4 94 128
	bl __addsf3
	.loc	4 94 128
	stw r0, r4[r8]
.Ltmp106:
	.loc	4 93 22
	{
		add r0, r8, 1
		ldw r1, sp[2]
	}
.Ltmp107:
	.loc	4 93 2
	{
		lss r1, r8, r1
		mov r8, r0
	}
.Ltmp108:
	bt r1, .LBB3_2
.Ltmp109:
.LBB3_3:
	{
		nop
		ldw r10, sp[10]
	}
	.loc	4 95 1
	ldd r9, r8, sp[4]
	ldd r7, r6, sp[3]
	ldd r5, r4, sp[2]
	{
		nop
		retsp 12
	}
	# RETURN_REG_HOLDER
.Ltmp110:
	.cc_bottom FLAC__window_blackman_harris_4term_92db_sidelobe.function
	.set	FLAC__window_blackman_harris_4term_92db_sidelobe.nstackwords,((__floatsidf.nstackwords $M __muldf3.nstackwords $M __divdf3.nstackwords $M __truncdfsf2.nstackwords $M cosf.nstackwords $M __mulsf3.nstackwords $M __addsf3.nstackwords) + 12)
	.globl	FLAC__window_blackman_harris_4term_92db_sidelobe.nstackwords
	.set	FLAC__window_blackman_harris_4term_92db_sidelobe.maxcores,cosf.maxcores $M 1
	.globl	FLAC__window_blackman_harris_4term_92db_sidelobe.maxcores
	.set	FLAC__window_blackman_harris_4term_92db_sidelobe.maxtimers,cosf.maxtimers $M 0
	.globl	FLAC__window_blackman_harris_4term_92db_sidelobe.maxtimers
	.set	FLAC__window_blackman_harris_4term_92db_sidelobe.maxchanends,cosf.maxchanends $M 0
	.globl	FLAC__window_blackman_harris_4term_92db_sidelobe.maxchanends
.Ltmp111:
	.size	FLAC__window_blackman_harris_4term_92db_sidelobe, .Ltmp111-FLAC__window_blackman_harris_4term_92db_sidelobe
.Lfunc_end3:
	.cfi_endproc

	.section	.cp.rodata.cst4,"aMc",@progbits,4
	.cc_top .LCPI4_0.data,.LCPI4_0
	.align	4
	.type	.LCPI4_0,@object
	.size	.LCPI4_0, 4
.LCPI4_0:
	.long	1071644672
	.cc_bottom .LCPI4_0.data
	.cc_top .LCPI4_1.data,.LCPI4_1
	.align	4
	.type	.LCPI4_1,@object
	.size	.LCPI4_1, 4
.LCPI4_1:
	.long	1072693248
	.cc_bottom .LCPI4_1.data
	.text
	.globl	FLAC__window_connes
	.align	4
	.type	FLAC__window_connes,@function
	.cc_top FLAC__window_connes.function,FLAC__window_connes
FLAC__window_connes:
.Lfunc_begin4:
	.loc	4 98 0
	.cfi_startproc
	.issue_mode dual
	{
		nop
		dualentsp 10
	}
.Ltmp112:
	.cfi_def_cfa_offset 40
.Ltmp113:
	.cfi_offset 15, 0
	std r5, r4, sp[1]
.Ltmp114:
	.cfi_offset 4, -32
.Ltmp115:
	.cfi_offset 5, -28
	std r7, r6, sp[2]
.Ltmp116:
	.cfi_offset 6, -24
.Ltmp117:
	.cfi_offset 7, -20
	std r9, r8, sp[3]
.Ltmp118:
	.cfi_offset 8, -16
.Ltmp119:
	.cfi_offset 9, -12
.Ltmp120:
	.cfi_offset 10, -8
.Ltmp121:
	{
		mov r9, r1
		stw r10, sp[8]
	}
.Ltmp122:
	{
		mov r4, r0
		sub r5, r9, 1
	}
.Ltmp123:
	.loc	4 100 2 prologue_end
	{
		mov r0, r5
		nop
	}
	bl __floatsidf
	{
		ldc r6, 0
		nop
	}
	ldw r3, cp[.LCPI4_0]
	.loc	4 100 2
	{
		mov r2, r6
		nop
	}
	bl __muldf3
	{
		mov r7, r0
		mov r8, r1
	}
	{
		mkmsk r0, 1
		nop
	}
.Ltmp124:
	.loc	4 103 2
	{
		lss r0, r9, r0
		nop
	}
	bt r0, .LBB4_3
.Ltmp125:
	{
		ldc r9, 0
		nop
	}
	ldw r10, cp[.LCPI4_1]
.Ltmp126:
.LBB4_2:
	.loc	4 104 3
	{
		mov r0, r6
		nop
	}
	bl __floatsidf
	.loc	4 104 3
	{
		mov r2, r7
		mov r3, r8
	}
	bl __subdf3
	.loc	4 104 3
	{
		mov r2, r7
		mov r3, r8
	}
	bl __divdf3
	.loc	4 105 3
	{
		mov r2, r0
		mov r3, r1
	}
	bl __muldf3
	{
		mov r2, r0
		mov r3, r1
	}
	.loc	4 105 3
	{
		mov r0, r9
		mov r1, r10
	}
	bl __subdf3
	.loc	4 106 3
	{
		mov r2, r0
		mov r3, r1
	}
	bl __muldf3
	.loc	4 106 3
	bl __truncdfsf2
	.loc	4 106 3
	stw r0, r4[r6]
.Ltmp127:
	.loc	4 103 22
	{
		add r0, r6, 1
		lss r1, r6, r5
	}
.Ltmp128:
	{
		mov r6, r0
		nop
	}
.Ltmp129:
	bt r1, .LBB4_2
.Ltmp130:
.LBB4_3:
	{
		nop
		ldw r10, sp[8]
	}
	.loc	4 108 1
	ldd r9, r8, sp[3]
	ldd r7, r6, sp[2]
	ldd r5, r4, sp[1]
	{
		nop
		retsp 10
	}
	# RETURN_REG_HOLDER
.Ltmp131:
	.cc_bottom FLAC__window_connes.function
	.set	FLAC__window_connes.nstackwords,((__floatsidf.nstackwords $M __divdf3.nstackwords $M __subdf3.nstackwords $M __muldf3.nstackwords $M __truncdfsf2.nstackwords) + 10)
	.globl	FLAC__window_connes.nstackwords
	.set	FLAC__window_connes.maxcores,1
	.globl	FLAC__window_connes.maxcores
	.set	FLAC__window_connes.maxtimers,0
	.globl	FLAC__window_connes.maxtimers
	.set	FLAC__window_connes.maxchanends,0
	.globl	FLAC__window_connes.maxchanends
.Ltmp132:
	.size	FLAC__window_connes, .Ltmp132-FLAC__window_connes
.Lfunc_end4:
	.cfi_endproc

	.section	.cp.rodata.cst4,"aMc",@progbits,4
	.cc_top .LCPI5_0.data,.LCPI5_0
	.align	4
	.type	.LCPI5_0,@object
	.size	.LCPI5_0, 4
.LCPI5_0:
	.long	1413754136
	.cc_bottom .LCPI5_0.data
	.cc_top .LCPI5_1.data,.LCPI5_1
	.align	4
	.type	.LCPI5_1,@object
	.size	.LCPI5_1, 4
.LCPI5_1:
	.long	1075388923
	.cc_bottom .LCPI5_1.data
	.cc_top .LCPI5_2.data,.LCPI5_2
	.align	4
	.type	.LCPI5_2,@object
	.size	.LCPI5_2, 4
.LCPI5_2:
	.long	3201650876
	.cc_bottom .LCPI5_2.data
	.cc_top .LCPI5_3.data,.LCPI5_3
	.align	4
	.type	.LCPI5_3,@object
	.size	.LCPI5_3, 4
.LCPI5_3:
	.long	1046266042
	.cc_bottom .LCPI5_3.data
	.cc_top .LCPI5_4.data,.LCPI5_4
	.align	4
	.type	.LCPI5_4,@object
	.size	.LCPI5_4, 4
.LCPI5_4:
	.long	1076437499
	.cc_bottom .LCPI5_4.data
	.cc_top .LCPI5_5.data,.LCPI5_5
	.align	4
	.type	.LCPI5_5,@object
	.size	.LCPI5_5, 4
.LCPI5_5:
	.long	1049490800
	.cc_bottom .LCPI5_5.data
	.cc_top .LCPI5_6.data,.LCPI5_6
	.align	4
	.type	.LCPI5_6,@object
	.size	.LCPI5_6, 4
.LCPI5_6:
	.long	2134057426
	.cc_bottom .LCPI5_6.data
	.cc_top .LCPI5_7.data,.LCPI5_7
	.align	4
	.type	.LCPI5_7,@object
	.size	.LCPI5_7, 4
.LCPI5_7:
	.long	1077074300
	.cc_bottom .LCPI5_7.data
	.cc_top .LCPI5_8.data,.LCPI5_8
	.align	4
	.type	.LCPI5_8,@object
	.size	.LCPI5_8, 4
.LCPI5_8:
	.long	3182111600
	.cc_bottom .LCPI5_8.data
	.cc_top .LCPI5_9.data,.LCPI5_9
	.align	4
	.type	.LCPI5_9,@object
	.size	.LCPI5_9, 4
.LCPI5_9:
	.long	1077486075
	.cc_bottom .LCPI5_9.data
	.cc_top .LCPI5_10.data,.LCPI5_10
	.align	4
	.type	.LCPI5_10,@object
	.size	.LCPI5_10, 4
.LCPI5_10:
	.long	1004775103
	.cc_bottom .LCPI5_10.data
	.text
	.globl	FLAC__window_flattop
	.align	4
	.type	FLAC__window_flattop,@function
	.cc_top FLAC__window_flattop.function,FLAC__window_flattop
FLAC__window_flattop:
.Lfunc_begin5:
	.loc	4 111 0
	.cfi_startproc
	.issue_mode dual
	{
		nop
		dualentsp 12
	}
.Ltmp133:
	.cfi_def_cfa_offset 48
.Ltmp134:
	.cfi_offset 15, 0
	std r5, r4, sp[2]
.Ltmp135:
	.cfi_offset 4, -32
.Ltmp136:
	.cfi_offset 5, -28
	std r7, r6, sp[3]
.Ltmp137:
	.cfi_offset 6, -24
.Ltmp138:
	.cfi_offset 7, -20
	std r9, r8, sp[4]
.Ltmp139:
	.cfi_offset 8, -16
.Ltmp140:
	.cfi_offset 9, -12
	{
		nop
		stw r10, sp[10]
	}
.Ltmp141:
	.cfi_offset 10, -8
	{
		nop
		stw r1, sp[3]
	}
.Ltmp142:
	{
		mkmsk r0, 1
		stw r0, sp[2]
	}
.Ltmp143:
	.loc	4 115 2 prologue_end
	{
		lss r0, r1, r0
		nop
	}
.Ltmp144:
	bt r0, .LBB5_3
.Ltmp145:
	{
		nop
		ldw r0, sp[3]
	}
.Ltmp146:
	.loc	4 112 2
	{
		sub r0, r0, 1
		nop
	}
.Ltmp147:
	.loc	4 116 56
	bl __floatsidf
.Ltmp148:
	{
		mov r6, r0
		mov r7, r1
	}
	{
		ldc r8, 0
		nop
	}
	ldw r9, cp[.LCPI5_0]
.Ltmp149:
.LBB5_2:
	.loc	4 116 56
	{
		mov r0, r8
		nop
	}
.Ltmp150:
	bl __floatsidf
	{
		mov r10, r0
		mov r5, r1
	}
	.loc	4 116 56
	{
		mov r2, r9
		nop
	}
	ldw r3, cp[.LCPI5_1]
	bl __muldf3
	.loc	4 116 56
	{
		mov r2, r6
		mov r3, r7
	}
	bl __divdf3
	.loc	4 116 56
	bl __truncdfsf2
	.loc	4 116 56
	bl cosf
	ldw r1, cp[.LCPI5_2]
	.loc	4 116 56
	bl __mulsf3
	ldw r1, cp[.LCPI5_3]
	.loc	4 116 56
	bl __addsf3
.Ltmp151:
	{
		mov r4, r0
		mov r0, r10
	}
	.loc	4 116 99
	{
		mov r1, r5
		mov r2, r9
	}
	ldw r3, cp[.LCPI5_4]
	bl __muldf3
	.loc	4 116 99
	{
		mov r2, r6
		mov r3, r7
	}
	bl __divdf3
	.loc	4 116 99
	bl __truncdfsf2
	.loc	4 116 99
	bl cosf
	ldw r1, cp[.LCPI5_5]
	.loc	4 116 99
	bl __mulsf3
	{
		mov r1, r0
		mov r0, r4
	}
	.loc	4 116 99
	bl __addsf3
	{
		mov r4, r0
		mov r0, r10
	}
	.loc	4 116 142
	{
		mov r1, r5
		nop
	}
	ldw r2, cp[.LCPI5_6]
	ldw r3, cp[.LCPI5_7]
	bl __muldf3
	.loc	4 116 142
	{
		mov r2, r6
		mov r3, r7
	}
	bl __divdf3
	.loc	4 116 142
	bl __truncdfsf2
	.loc	4 116 142
	bl cosf
	ldw r1, cp[.LCPI5_8]
	.loc	4 116 142
	bl __mulsf3
	{
		mov r1, r0
		mov r0, r4
	}
	.loc	4 116 142
	bl __addsf3
	{
		mov r4, r0
		mov r0, r10
	}
	.loc	4 116 185
	{
		mov r1, r5
		mov r2, r9
	}
	ldw r3, cp[.LCPI5_9]
	bl __muldf3
	.loc	4 116 185
	{
		mov r2, r6
		mov r3, r7
	}
	bl __divdf3
	.loc	4 116 185
	bl __truncdfsf2
	.loc	4 116 185
	bl cosf
	ldw r1, cp[.LCPI5_10]
	.loc	4 116 185
	bl __mulsf3
	{
		mov r1, r0
		mov r0, r4
	}
	{
		nop
		ldw r4, sp[2]
	}
.Ltmp152:
	.loc	4 116 185
	bl __addsf3
.Ltmp153:
	.loc	4 116 185
	stw r0, r4[r8]
.Ltmp154:
	.loc	4 115 21
	{
		add r8, r8, 1
		ldw r0, sp[3]
	}
.Ltmp155:
	.loc	4 115 2
	{
		eq r0, r0, r8
		nop
	}
	bf r0, .LBB5_2
.Ltmp156:
.LBB5_3:
	{
		nop
		ldw r10, sp[10]
	}
	.loc	4 117 1
	ldd r9, r8, sp[4]
	ldd r7, r6, sp[3]
	ldd r5, r4, sp[2]
	{
		nop
		retsp 12
	}
	# RETURN_REG_HOLDER
.Ltmp157:
	.cc_bottom FLAC__window_flattop.function
	.set	FLAC__window_flattop.nstackwords,((__floatsidf.nstackwords $M __muldf3.nstackwords $M __divdf3.nstackwords $M __truncdfsf2.nstackwords $M cosf.nstackwords $M __mulsf3.nstackwords $M __addsf3.nstackwords) + 12)
	.globl	FLAC__window_flattop.nstackwords
	.set	FLAC__window_flattop.maxcores,cosf.maxcores $M 1
	.globl	FLAC__window_flattop.maxcores
	.set	FLAC__window_flattop.maxtimers,cosf.maxtimers $M 0
	.globl	FLAC__window_flattop.maxtimers
	.set	FLAC__window_flattop.maxchanends,cosf.maxchanends $M 0
	.globl	FLAC__window_flattop.maxchanends
.Ltmp158:
	.size	FLAC__window_flattop, .Ltmp158-FLAC__window_flattop
.Lfunc_end5:
	.cfi_endproc

	.section	.cp.rodata.cst4,"aMc",@progbits,4
	.cc_top .LCPI6_0.data,.LCPI6_0
	.align	4
	.type	.LCPI6_0,@object
	.size	.LCPI6_0, 4
.LCPI6_0:
	.long	1071644672
	.cc_bottom .LCPI6_0.data
	.cc_top .LCPI6_1.data,.LCPI6_1
	.align	4
	.type	.LCPI6_1,@object
	.size	.LCPI6_1, 4
.LCPI6_1:
	.long	1056964608
	.cc_bottom .LCPI6_1.data
	.cc_top .LCPI6_2.data,.LCPI6_2
	.align	4
	.type	.LCPI6_2,@object
	.size	.LCPI6_2, 4
.LCPI6_2:
	.long	1070596096
	.cc_bottom .LCPI6_2.data
	.cc_top .LCPI6_3.data,.LCPI6_3
	.align	4
	.type	.LCPI6_3,@object
	.size	.LCPI6_3, 4
.LCPI6_3:
	.long	3219128320
	.cc_bottom .LCPI6_3.data
	.text
	.globl	FLAC__window_gauss
	.align	4
	.type	FLAC__window_gauss,@function
	.cc_top FLAC__window_gauss.function,FLAC__window_gauss
FLAC__window_gauss:
.Lfunc_begin6:
	.loc	4 120 0
	.cfi_startproc
	.issue_mode dual
	{
		nop
		dualentsp 14
	}
.Ltmp159:
	.cfi_def_cfa_offset 56
.Ltmp160:
	.cfi_offset 15, 0
	std r5, r4, sp[3]
.Ltmp161:
	.cfi_offset 4, -32
.Ltmp162:
	.cfi_offset 5, -28
	std r7, r6, sp[4]
.Ltmp163:
	.cfi_offset 6, -24
.Ltmp164:
	.cfi_offset 7, -20
	std r9, r8, sp[5]
.Ltmp165:
	.cfi_offset 8, -16
.Ltmp166:
	.cfi_offset 9, -12
.Ltmp167:
	.cfi_offset 10, -8
	{
		mov r8, r2
		stw r10, sp[12]
	}
.Ltmp168:
	{
		mov r9, r1
		stw r0, sp[2]
	}
.Ltmp169:
	.loc	4 121 2 prologue_end
	{
		sub r6, r9, 1
		nop
	}
.Ltmp170:
	.loc	4 122 2
	{
		mov r0, r6
		nop
	}
	bl __floatsidf
	{
		ldc r10, 0
		nop
	}
	ldw r3, cp[.LCPI6_0]
	.loc	4 122 2
	{
		mov r2, r10
		nop
	}
	bl __muldf3
	{
		mov r7, r1
		stw r0, sp[3]
	}
	.loc	4 125 5
.Ltmp171:
	{
		mov r0, r8
		mov r1, r10
	}
	bl __lesf2
	{
		mkmsk r4, 1
		nop
	}
	{
		lss r5, r0, r4
		mov r0, r8
	}
	{
		mov r1, r10
		nop
	}
	bl __unordsf2
	{
		eq r0, r0, 0
		nop
	}
	{
		eq r0, r0, 0
		nop
	}
	{
		or r0, r0, r5
		nop
	}
	bt r0, .LBB6_2
.Ltmp172:
	ldw r1, cp[.LCPI6_1]
	{
		mov r0, r8
		nop
	}
	bl __lesf2
	{
		lss r0, r0, r4
		nop
	}
	bf r0, .LBB6_2
.Ltmp173:
	{
		lss r0, r9, r4
		ldw r5, sp[2]
	}
.Ltmp174:
	{
		nop
		ldw r4, sp[3]
	}
	bt r0, .LBB6_8
.Ltmp175:
	.loc	4 131 4
	{
		mov r0, r8
		nop
	}
	bl __extendsfdf2
	.loc	4 131 4
	{
		mov r2, r4
		mov r3, r7
	}
	bl __muldf3
	{
		nop
		stw r0, sp[5]
	}
	{
		ldc r10, 0
		stw r1, sp[4]
	}
.Ltmp176:
.LBB6_7:
	.loc	4 131 4
	{
		mov r0, r10
		nop
	}
	bl __floatsidf
	.loc	4 131 4
	{
		mov r2, r4
		mov r3, r7
	}
	bl __subdf3
	{
		nop
		ldw r2, sp[5]
	}
	{
		nop
		ldw r3, sp[4]
	}
	.loc	4 131 4
	bl __divdf3
	{
		mov r8, r7
		mov r7, r4
	}
.Ltmp177:
	{
		mov r4, r0
		mov r9, r6
	}
.Ltmp178:
	{
		mov r6, r5
		mov r5, r1
	}
.Ltmp179:
	{
		ldc r2, 0
		nop
	}
	ldw r3, cp[.LCPI6_3]
	.loc	4 132 28
	bl __muldf3
	{
		mov r2, r0
		mov r3, r1
	}
	.loc	4 132 28
	{
		mov r0, r4
		mov r4, r7
	}
	{
		mov r7, r8
		mov r1, r5
	}
.Ltmp180:
	{
		mov r5, r6
		mov r6, r9
	}
.Ltmp181:
	bl __muldf3
	.loc	4 132 28
	bl exp
	.loc	4 132 28
	bl __truncdfsf2
	.loc	4 132 28
	stw r0, r5[r10]
.Ltmp182:
	.loc	4 130 23
	{
		add r0, r10, 1
		lss r1, r10, r6
	}
.Ltmp183:
	{
		mov r10, r0
		nop
	}
.Ltmp184:
	bt r1, .LBB6_7
	bu .LBB6_8
.Ltmp185:
.LBB6_2:
	{
		lss r0, r9, r4
		ldw r5, sp[2]
	}
.Ltmp186:
	{
		nop
		ldw r4, sp[3]
	}
	bt r0, .LBB6_8
.Ltmp187:
	ldw r3, cp[.LCPI6_2]
	.loc	4 131 4
.Ltmp188:
	{
		mov r0, r4
		mov r1, r7
	}
	{
		mov r8, r10
		nop
	}
	{
		mov r2, r8
		nop
	}
	bl __muldf3
	{
		nop
		stw r0, sp[5]
	}
	{
		nop
		stw r1, sp[4]
	}
.Ltmp189:
.LBB6_4:
	.loc	4 131 4
	{
		mov r0, r8
		nop
	}
	bl __floatsidf
	.loc	4 131 4
	{
		mov r2, r4
		mov r3, r7
	}
	bl __subdf3
	{
		nop
		ldw r2, sp[5]
	}
	{
		nop
		ldw r3, sp[4]
	}
	.loc	4 131 4
	bl __divdf3
.Ltmp190:
	{
		mov r9, r6
		mov r6, r7
	}
.Ltmp191:
	{
		mov r7, r4
		mov r4, r0
	}
.Ltmp192:
	{
		mov r10, r5
		mov r5, r1
	}
.Ltmp193:
	{
		ldc r2, 0
		nop
	}
	ldw r3, cp[.LCPI6_3]
	.loc	4 132 28
	bl __muldf3
	{
		mov r2, r0
		mov r3, r1
	}
	.loc	4 132 28
	{
		mov r0, r4
		mov r4, r7
	}
.Ltmp194:
	{
		mov r7, r6
		mov r6, r9
	}
.Ltmp195:
	{
		mov r1, r5
		mov r5, r10
	}
.Ltmp196:
	bl __muldf3
	.loc	4 132 28
	bl exp
	.loc	4 132 28
	bl __truncdfsf2
	.loc	4 132 28
	stw r0, r5[r8]
.Ltmp197:
	.loc	4 130 23
	{
		add r0, r8, 1
		lss r1, r8, r6
	}
.Ltmp198:
	{
		mov r8, r0
		nop
	}
.Ltmp199:
	bt r1, .LBB6_4
.Ltmp200:
.LBB6_8:
	{
		nop
		ldw r10, sp[12]
	}
	.loc	4 135 1
	ldd r9, r8, sp[5]
	ldd r7, r6, sp[4]
	ldd r5, r4, sp[3]
	{
		nop
		retsp 14
	}
	# RETURN_REG_HOLDER
.Ltmp201:
	.cc_bottom FLAC__window_gauss.function
	.set	FLAC__window_gauss.nstackwords,((__unordsf2.nstackwords $M __lesf2.nstackwords $M __extendsfdf2.nstackwords $M __floatsidf.nstackwords $M __subdf3.nstackwords $M __divdf3.nstackwords $M __muldf3.nstackwords $M exp.nstackwords $M __truncdfsf2.nstackwords) + 14)
	.globl	FLAC__window_gauss.nstackwords
	.set	FLAC__window_gauss.maxcores,exp.maxcores $M 1
	.globl	FLAC__window_gauss.maxcores
	.set	FLAC__window_gauss.maxtimers,exp.maxtimers $M 0
	.globl	FLAC__window_gauss.maxtimers
	.set	FLAC__window_gauss.maxchanends,exp.maxchanends $M 0
	.globl	FLAC__window_gauss.maxchanends
.Ltmp202:
	.size	FLAC__window_gauss, .Ltmp202-FLAC__window_gauss
.Lfunc_end6:
	.cfi_endproc

	.section	.cp.rodata.cst4,"aMc",@progbits,4
	.cc_top .LCPI7_0.data,.LCPI7_0
	.align	4
	.type	.LCPI7_0,@object
	.size	.LCPI7_0, 4
.LCPI7_0:
	.long	1413754136
	.cc_bottom .LCPI7_0.data
	.cc_top .LCPI7_1.data,.LCPI7_1
	.align	4
	.type	.LCPI7_1,@object
	.size	.LCPI7_1, 4
.LCPI7_1:
	.long	1075388923
	.cc_bottom .LCPI7_1.data
	.cc_top .LCPI7_2.data,.LCPI7_2
	.align	4
	.type	.LCPI7_2,@object
	.size	.LCPI7_2, 4
.LCPI7_2:
	.long	3203106079
	.cc_bottom .LCPI7_2.data
	.cc_top .LCPI7_3.data,.LCPI7_3
	.align	4
	.type	.LCPI7_3,@object
	.size	.LCPI7_3, 4
.LCPI7_3:
	.long	1057635697
	.cc_bottom .LCPI7_3.data
	.text
	.globl	FLAC__window_hamming
	.align	4
	.type	FLAC__window_hamming,@function
	.cc_top FLAC__window_hamming.function,FLAC__window_hamming
FLAC__window_hamming:
.Lfunc_begin7:
	.loc	4 138 0
	.cfi_startproc
	.issue_mode dual
	{
		nop
		dualentsp 10
	}
.Ltmp203:
	.cfi_def_cfa_offset 40
.Ltmp204:
	.cfi_offset 15, 0
	std r5, r4, sp[1]
.Ltmp205:
	.cfi_offset 4, -32
.Ltmp206:
	.cfi_offset 5, -28
	std r7, r6, sp[2]
.Ltmp207:
	.cfi_offset 6, -24
.Ltmp208:
	.cfi_offset 7, -20
	std r9, r8, sp[3]
.Ltmp209:
	.cfi_offset 8, -16
.Ltmp210:
	.cfi_offset 9, -12
.Ltmp211:
	.cfi_offset 10, -8
.Ltmp212:
	{
		mov r4, r1
		stw r10, sp[8]
	}
.Ltmp213:
	{
		mov r5, r0
		mkmsk r0, 1
	}
.Ltmp214:
	.loc	4 142 2 prologue_end
	{
		lss r0, r4, r0
		nop
	}
	bt r0, .LBB7_3
.Ltmp215:
	.loc	4 139 2
	{
		sub r0, r4, 1
		nop
	}
.Ltmp216:
	.loc	4 143 44
	bl __floatsidf
.Ltmp217:
	{
		mov r6, r0
		mov r7, r1
	}
	{
		ldc r8, 0
		nop
	}
	ldw r9, cp[.LCPI7_2]
	ldw r10, cp[.LCPI7_3]
.Ltmp218:
.LBB7_2:
	.loc	4 143 44
	{
		mov r0, r8
		nop
	}
	bl __floatsidf
	ldw r2, cp[.LCPI7_0]
	ldw r3, cp[.LCPI7_1]
	.loc	4 143 44
	bl __muldf3
	.loc	4 143 44
	{
		mov r2, r6
		mov r3, r7
	}
	bl __divdf3
	.loc	4 143 44
	bl __truncdfsf2
	.loc	4 143 44
	bl cosf
	.loc	4 143 44
	{
		mov r1, r9
		nop
	}
	bl __mulsf3
	.loc	4 143 44
	{
		mov r1, r10
		nop
	}
	bl __addsf3
	.loc	4 143 44
	stw r0, r5[r8]
	.loc	4 142 21
	{
		add r8, r8, 1
		nop
	}
.Ltmp219:
	.loc	4 142 2
	{
		eq r0, r4, r8
		nop
	}
	bf r0, .LBB7_2
.Ltmp220:
.LBB7_3:
	{
		nop
		ldw r10, sp[8]
	}
	.loc	4 144 1
	ldd r9, r8, sp[3]
	ldd r7, r6, sp[2]
	ldd r5, r4, sp[1]
	{
		nop
		retsp 10
	}
	# RETURN_REG_HOLDER
.Ltmp221:
	.cc_bottom FLAC__window_hamming.function
	.set	FLAC__window_hamming.nstackwords,((__floatsidf.nstackwords $M __muldf3.nstackwords $M __divdf3.nstackwords $M __truncdfsf2.nstackwords $M cosf.nstackwords $M __mulsf3.nstackwords $M __addsf3.nstackwords) + 10)
	.globl	FLAC__window_hamming.nstackwords
	.set	FLAC__window_hamming.maxcores,cosf.maxcores $M 1
	.globl	FLAC__window_hamming.maxcores
	.set	FLAC__window_hamming.maxtimers,cosf.maxtimers $M 0
	.globl	FLAC__window_hamming.maxtimers
	.set	FLAC__window_hamming.maxchanends,cosf.maxchanends $M 0
	.globl	FLAC__window_hamming.maxchanends
.Ltmp222:
	.size	FLAC__window_hamming, .Ltmp222-FLAC__window_hamming
.Lfunc_end7:
	.cfi_endproc

	.section	.cp.rodata.cst4,"aMc",@progbits,4
	.cc_top .LCPI8_0.data,.LCPI8_0
	.align	4
	.type	.LCPI8_0,@object
	.size	.LCPI8_0, 4
.LCPI8_0:
	.long	1413754136
	.cc_bottom .LCPI8_0.data
	.cc_top .LCPI8_1.data,.LCPI8_1
	.align	4
	.type	.LCPI8_1,@object
	.size	.LCPI8_1, 4
.LCPI8_1:
	.long	1075388923
	.cc_bottom .LCPI8_1.data
	.cc_top .LCPI8_2.data,.LCPI8_2
	.align	4
	.type	.LCPI8_2,@object
	.size	.LCPI8_2, 4
.LCPI8_2:
	.long	1056964608
	.cc_bottom .LCPI8_2.data
	.text
	.globl	FLAC__window_hann
	.align	4
	.type	FLAC__window_hann,@function
	.cc_top FLAC__window_hann.function,FLAC__window_hann
FLAC__window_hann:
.Lfunc_begin8:
	.loc	4 147 0
	.cfi_startproc
	.issue_mode dual
	{
		nop
		dualentsp 10
	}
.Ltmp223:
	.cfi_def_cfa_offset 40
.Ltmp224:
	.cfi_offset 15, 0
	std r5, r4, sp[1]
.Ltmp225:
	.cfi_offset 4, -32
.Ltmp226:
	.cfi_offset 5, -28
	std r7, r6, sp[2]
.Ltmp227:
	.cfi_offset 6, -24
.Ltmp228:
	.cfi_offset 7, -20
	std r9, r8, sp[3]
.Ltmp229:
	.cfi_offset 8, -16
.Ltmp230:
	.cfi_offset 9, -12
.Ltmp231:
	.cfi_offset 10, -8
.Ltmp232:
	{
		mov r4, r1
		stw r10, sp[8]
	}
.Ltmp233:
	{
		mov r5, r0
		mkmsk r0, 1
	}
.Ltmp234:
	.loc	4 151 2 prologue_end
	{
		lss r0, r4, r0
		nop
	}
	bt r0, .LBB8_3
.Ltmp235:
	.loc	4 148 2
	{
		sub r0, r4, 1
		nop
	}
.Ltmp236:
	.loc	4 152 42
	bl __floatsidf
.Ltmp237:
	{
		mov r6, r0
		mov r7, r1
	}
	{
		ldc r8, 0
		nop
	}
	ldw r10, cp[.LCPI8_1]
	ldw r9, cp[.LCPI8_2]
.Ltmp238:
.LBB8_2:
	.loc	4 152 42
	{
		mov r0, r8
		nop
	}
	bl __floatsidf
	ldw r2, cp[.LCPI8_0]
	.loc	4 152 42
	{
		mov r3, r10
		nop
	}
	bl __muldf3
	.loc	4 152 42
	{
		mov r2, r6
		mov r3, r7
	}
	bl __divdf3
	.loc	4 152 42
	bl __truncdfsf2
	.loc	4 152 42
	bl cosf
	.loc	4 152 42
	{
		mov r1, r9
		nop
	}
	bl __mulsf3
	{
		mov r1, r0
		mov r0, r9
	}
	.loc	4 152 42
	bl __subsf3
	.loc	4 152 42
	stw r0, r5[r8]
	.loc	4 151 21
	{
		add r8, r8, 1
		nop
	}
.Ltmp239:
	.loc	4 151 2
	{
		eq r0, r4, r8
		nop
	}
	bf r0, .LBB8_2
.Ltmp240:
.LBB8_3:
	{
		nop
		ldw r10, sp[8]
	}
	.loc	4 153 1
	ldd r9, r8, sp[3]
	ldd r7, r6, sp[2]
	ldd r5, r4, sp[1]
	{
		nop
		retsp 10
	}
	# RETURN_REG_HOLDER
.Ltmp241:
	.cc_bottom FLAC__window_hann.function
	.set	FLAC__window_hann.nstackwords,((__floatsidf.nstackwords $M __muldf3.nstackwords $M __divdf3.nstackwords $M __truncdfsf2.nstackwords $M cosf.nstackwords $M __mulsf3.nstackwords $M __subsf3.nstackwords) + 10)
	.globl	FLAC__window_hann.nstackwords
	.set	FLAC__window_hann.maxcores,cosf.maxcores $M 1
	.globl	FLAC__window_hann.maxcores
	.set	FLAC__window_hann.maxtimers,cosf.maxtimers $M 0
	.globl	FLAC__window_hann.maxtimers
	.set	FLAC__window_hann.maxchanends,cosf.maxchanends $M 0
	.globl	FLAC__window_hann.maxchanends
.Ltmp242:
	.size	FLAC__window_hann, .Ltmp242-FLAC__window_hann
.Lfunc_end8:
	.cfi_endproc

	.section	.cp.rodata.cst4,"aMc",@progbits,4
	.cc_top .LCPI9_0.data,.LCPI9_0
	.align	4
	.type	.LCPI9_0,@object
	.size	.LCPI9_0, 4
.LCPI9_0:
	.long	1413754136
	.cc_bottom .LCPI9_0.data
	.cc_top .LCPI9_1.data,.LCPI9_1
	.align	4
	.type	.LCPI9_1,@object
	.size	.LCPI9_1, 4
.LCPI9_1:
	.long	1075388923
	.cc_bottom .LCPI9_1.data
	.cc_top .LCPI9_2.data,.LCPI9_2
	.align	4
	.type	.LCPI9_2,@object
	.size	.LCPI9_2, 4
.LCPI9_2:
	.long	3204381147
	.cc_bottom .LCPI9_2.data
	.cc_top .LCPI9_3.data,.LCPI9_3
	.align	4
	.type	.LCPI9_3,@object
	.size	.LCPI9_3, 4
.LCPI9_3:
	.long	1053676274
	.cc_bottom .LCPI9_3.data
	.cc_top .LCPI9_4.data,.LCPI9_4
	.align	4
	.type	.LCPI9_4,@object
	.size	.LCPI9_4, 4
.LCPI9_4:
	.long	1076437499
	.cc_bottom .LCPI9_4.data
	.cc_top .LCPI9_5.data,.LCPI9_5
	.align	4
	.type	.LCPI9_5,@object
	.size	.LCPI9_5, 4
.LCPI9_5:
	.long	1036563513
	.cc_bottom .LCPI9_5.data
	.cc_top .LCPI9_6.data,.LCPI9_6
	.align	4
	.type	.LCPI9_6,@object
	.size	.LCPI9_6, 4
.LCPI9_6:
	.long	2134057426
	.cc_bottom .LCPI9_6.data
	.cc_top .LCPI9_7.data,.LCPI9_7
	.align	4
	.type	.LCPI9_7,@object
	.size	.LCPI9_7, 4
.LCPI9_7:
	.long	1077074300
	.cc_bottom .LCPI9_7.data
	.cc_top .LCPI9_8.data,.LCPI9_8
	.align	4
	.type	.LCPI9_8,@object
	.size	.LCPI9_8, 4
.LCPI9_8:
	.long	3129152111
	.cc_bottom .LCPI9_8.data
	.text
	.globl	FLAC__window_kaiser_bessel
	.align	4
	.type	FLAC__window_kaiser_bessel,@function
	.cc_top FLAC__window_kaiser_bessel.function,FLAC__window_kaiser_bessel
FLAC__window_kaiser_bessel:
.Lfunc_begin9:
	.loc	4 156 0
	.cfi_startproc
	.issue_mode dual
	{
		nop
		dualentsp 12
	}
.Ltmp243:
	.cfi_def_cfa_offset 48
.Ltmp244:
	.cfi_offset 15, 0
	std r5, r4, sp[2]
.Ltmp245:
	.cfi_offset 4, -32
.Ltmp246:
	.cfi_offset 5, -28
	std r7, r6, sp[3]
.Ltmp247:
	.cfi_offset 6, -24
.Ltmp248:
	.cfi_offset 7, -20
	std r9, r8, sp[4]
.Ltmp249:
	.cfi_offset 8, -16
.Ltmp250:
	.cfi_offset 9, -12
	{
		nop
		stw r10, sp[10]
	}
.Ltmp251:
	.cfi_offset 10, -8
	{
		nop
		stw r1, sp[3]
	}
.Ltmp252:
	{
		mkmsk r0, 1
		stw r0, sp[2]
	}
.Ltmp253:
	.loc	4 160 2 prologue_end
	{
		lss r0, r1, r0
		nop
	}
.Ltmp254:
	bt r0, .LBB9_3
.Ltmp255:
	{
		nop
		ldw r0, sp[3]
	}
.Ltmp256:
	.loc	4 157 2
	{
		sub r0, r0, 1
		nop
	}
.Ltmp257:
	.loc	4 161 46
	bl __floatsidf
.Ltmp258:
	{
		mov r7, r0
		mov r4, r1
	}
	{
		ldc r8, 0
		nop
	}
	ldw r6, cp[.LCPI9_0]
.Ltmp259:
.LBB9_2:
	.loc	4 161 46
	{
		mov r0, r8
		nop
	}
.Ltmp260:
	bl __floatsidf
.Ltmp261:
	{
		mov r10, r0
		mov r5, r1
	}
	.loc	4 161 46
	{
		mov r2, r6
		nop
	}
	ldw r3, cp[.LCPI9_1]
	bl __muldf3
	.loc	4 161 46
	{
		mov r2, r7
		mov r3, r4
	}
	bl __divdf3
	.loc	4 161 46
	bl __truncdfsf2
	.loc	4 161 46
	bl cosf
	ldw r1, cp[.LCPI9_2]
	.loc	4 161 46
	bl __mulsf3
	ldw r1, cp[.LCPI9_3]
	.loc	4 161 46
	bl __addsf3
	{
		mov r9, r0
		mov r0, r10
	}
	.loc	4 161 83
	{
		mov r1, r5
		mov r2, r6
	}
	ldw r3, cp[.LCPI9_4]
	bl __muldf3
	.loc	4 161 83
	{
		mov r2, r7
		mov r3, r4
	}
	bl __divdf3
	.loc	4 161 83
	bl __truncdfsf2
	.loc	4 161 83
	bl cosf
	ldw r1, cp[.LCPI9_5]
	.loc	4 161 83
	bl __mulsf3
	{
		mov r1, r0
		mov r0, r9
	}
	.loc	4 161 83
	bl __addsf3
	{
		mov r9, r0
		mov r0, r10
	}
.Ltmp262:
	.loc	4 161 120
	{
		mov r1, r5
		ldw r5, sp[2]
	}
	ldw r2, cp[.LCPI9_6]
	ldw r3, cp[.LCPI9_7]
	bl __muldf3
.Ltmp263:
	.loc	4 161 120
	{
		mov r2, r7
		mov r3, r4
	}
	bl __divdf3
	.loc	4 161 120
	bl __truncdfsf2
	.loc	4 161 120
	bl cosf
	ldw r1, cp[.LCPI9_8]
	.loc	4 161 120
	bl __mulsf3
	{
		mov r1, r0
		mov r0, r9
	}
	.loc	4 161 120
	bl __addsf3
	.loc	4 161 120
	stw r0, r5[r8]
.Ltmp264:
	.loc	4 160 21
	{
		add r8, r8, 1
		ldw r0, sp[3]
	}
.Ltmp265:
	.loc	4 160 2
	{
		eq r0, r0, r8
		nop
	}
	bf r0, .LBB9_2
.Ltmp266:
.LBB9_3:
	{
		nop
		ldw r10, sp[10]
	}
	.loc	4 162 1
	ldd r9, r8, sp[4]
	ldd r7, r6, sp[3]
	ldd r5, r4, sp[2]
	{
		nop
		retsp 12
	}
	# RETURN_REG_HOLDER
.Ltmp267:
	.cc_bottom FLAC__window_kaiser_bessel.function
	.set	FLAC__window_kaiser_bessel.nstackwords,((__floatsidf.nstackwords $M __muldf3.nstackwords $M __divdf3.nstackwords $M __truncdfsf2.nstackwords $M cosf.nstackwords $M __mulsf3.nstackwords $M __addsf3.nstackwords) + 12)
	.globl	FLAC__window_kaiser_bessel.nstackwords
	.set	FLAC__window_kaiser_bessel.maxcores,cosf.maxcores $M 1
	.globl	FLAC__window_kaiser_bessel.maxcores
	.set	FLAC__window_kaiser_bessel.maxtimers,cosf.maxtimers $M 0
	.globl	FLAC__window_kaiser_bessel.maxtimers
	.set	FLAC__window_kaiser_bessel.maxchanends,cosf.maxchanends $M 0
	.globl	FLAC__window_kaiser_bessel.maxchanends
.Ltmp268:
	.size	FLAC__window_kaiser_bessel, .Ltmp268-FLAC__window_kaiser_bessel
.Lfunc_end9:
	.cfi_endproc

	.section	.cp.rodata.cst4,"aMc",@progbits,4
	.cc_top .LCPI10_0.data,.LCPI10_0
	.align	4
	.type	.LCPI10_0,@object
	.size	.LCPI10_0, 4
.LCPI10_0:
	.long	1413754136
	.cc_bottom .LCPI10_0.data
	.cc_top .LCPI10_1.data,.LCPI10_1
	.align	4
	.type	.LCPI10_1,@object
	.size	.LCPI10_1, 4
.LCPI10_1:
	.long	1075388923
	.cc_bottom .LCPI10_1.data
	.cc_top .LCPI10_2.data,.LCPI10_2
	.align	4
	.type	.LCPI10_2,@object
	.size	.LCPI10_2, 4
.LCPI10_2:
	.long	3204085113
	.cc_bottom .LCPI10_2.data
	.cc_top .LCPI10_3.data,.LCPI10_3
	.align	4
	.type	.LCPI10_3,@object
	.size	.LCPI10_3, 4
.LCPI10_3:
	.long	1052387176
	.cc_bottom .LCPI10_3.data
	.cc_top .LCPI10_4.data,.LCPI10_4
	.align	4
	.type	.LCPI10_4,@object
	.size	.LCPI10_4, 4
.LCPI10_4:
	.long	1076437499
	.cc_bottom .LCPI10_4.data
	.cc_top .LCPI10_5.data,.LCPI10_5
	.align	4
	.type	.LCPI10_5,@object
	.size	.LCPI10_5, 4
.LCPI10_5:
	.long	1040965821
	.cc_bottom .LCPI10_5.data
	.cc_top .LCPI10_6.data,.LCPI10_6
	.align	4
	.type	.LCPI10_6,@object
	.size	.LCPI10_6, 4
.LCPI10_6:
	.long	2134057426
	.cc_bottom .LCPI10_6.data
	.cc_top .LCPI10_7.data,.LCPI10_7
	.align	4
	.type	.LCPI10_7,@object
	.size	.LCPI10_7, 4
.LCPI10_7:
	.long	1077074300
	.cc_bottom .LCPI10_7.data
	.cc_top .LCPI10_8.data,.LCPI10_8
	.align	4
	.type	.LCPI10_8,@object
	.size	.LCPI10_8, 4
.LCPI10_8:
	.long	3157153794
	.cc_bottom .LCPI10_8.data
	.text
	.globl	FLAC__window_nuttall
	.align	4
	.type	FLAC__window_nuttall,@function
	.cc_top FLAC__window_nuttall.function,FLAC__window_nuttall
FLAC__window_nuttall:
.Lfunc_begin10:
	.loc	4 165 0
	.cfi_startproc
	.issue_mode dual
	{
		nop
		dualentsp 12
	}
.Ltmp269:
	.cfi_def_cfa_offset 48
.Ltmp270:
	.cfi_offset 15, 0
	std r5, r4, sp[2]
.Ltmp271:
	.cfi_offset 4, -32
.Ltmp272:
	.cfi_offset 5, -28
	std r7, r6, sp[3]
.Ltmp273:
	.cfi_offset 6, -24
.Ltmp274:
	.cfi_offset 7, -20
	std r9, r8, sp[4]
.Ltmp275:
	.cfi_offset 8, -16
.Ltmp276:
	.cfi_offset 9, -12
	{
		nop
		stw r10, sp[10]
	}
.Ltmp277:
	.cfi_offset 10, -8
	{
		nop
		stw r1, sp[3]
	}
.Ltmp278:
	{
		mkmsk r0, 1
		stw r0, sp[2]
	}
.Ltmp279:
	.loc	4 169 2 prologue_end
	{
		lss r0, r1, r0
		nop
	}
.Ltmp280:
	bt r0, .LBB10_3
.Ltmp281:
	{
		nop
		ldw r0, sp[3]
	}
.Ltmp282:
	.loc	4 166 2
	{
		sub r0, r0, 1
		nop
	}
.Ltmp283:
	.loc	4 170 52
	bl __floatsidf
.Ltmp284:
	{
		mov r7, r0
		mov r4, r1
	}
	{
		ldc r8, 0
		nop
	}
	ldw r6, cp[.LCPI10_0]
.Ltmp285:
.LBB10_2:
	.loc	4 170 52
	{
		mov r0, r8
		nop
	}
.Ltmp286:
	bl __floatsidf
.Ltmp287:
	{
		mov r10, r0
		mov r5, r1
	}
	.loc	4 170 52
	{
		mov r2, r6
		nop
	}
	ldw r3, cp[.LCPI10_1]
	bl __muldf3
	.loc	4 170 52
	{
		mov r2, r7
		mov r3, r4
	}
	bl __divdf3
	.loc	4 170 52
	bl __truncdfsf2
	.loc	4 170 52
	bl cosf
	ldw r1, cp[.LCPI10_2]
	.loc	4 170 52
	bl __mulsf3
	ldw r1, cp[.LCPI10_3]
	.loc	4 170 52
	bl __addsf3
	{
		mov r9, r0
		mov r0, r10
	}
	.loc	4 170 85
	{
		mov r1, r5
		mov r2, r6
	}
	ldw r3, cp[.LCPI10_4]
	bl __muldf3
	.loc	4 170 85
	{
		mov r2, r7
		mov r3, r4
	}
	bl __divdf3
	.loc	4 170 85
	bl __truncdfsf2
	.loc	4 170 85
	bl cosf
	ldw r1, cp[.LCPI10_5]
	.loc	4 170 85
	bl __mulsf3
	{
		mov r1, r0
		mov r0, r9
	}
	.loc	4 170 85
	bl __addsf3
	{
		mov r9, r0
		mov r0, r10
	}
.Ltmp288:
	.loc	4 170 118
	{
		mov r1, r5
		ldw r5, sp[2]
	}
	ldw r2, cp[.LCPI10_6]
	ldw r3, cp[.LCPI10_7]
	bl __muldf3
.Ltmp289:
	.loc	4 170 118
	{
		mov r2, r7
		mov r3, r4
	}
	bl __divdf3
	.loc	4 170 118
	bl __truncdfsf2
	.loc	4 170 118
	bl cosf
	ldw r1, cp[.LCPI10_8]
	.loc	4 170 118
	bl __mulsf3
	{
		mov r1, r0
		mov r0, r9
	}
	.loc	4 170 118
	bl __addsf3
	.loc	4 170 118
	stw r0, r5[r8]
.Ltmp290:
	.loc	4 169 21
	{
		add r8, r8, 1
		ldw r0, sp[3]
	}
.Ltmp291:
	.loc	4 169 2
	{
		eq r0, r0, r8
		nop
	}
	bf r0, .LBB10_2
.Ltmp292:
.LBB10_3:
	{
		nop
		ldw r10, sp[10]
	}
	.loc	4 171 1
	ldd r9, r8, sp[4]
	ldd r7, r6, sp[3]
	ldd r5, r4, sp[2]
	{
		nop
		retsp 12
	}
	# RETURN_REG_HOLDER
.Ltmp293:
	.cc_bottom FLAC__window_nuttall.function
	.set	FLAC__window_nuttall.nstackwords,((__floatsidf.nstackwords $M __muldf3.nstackwords $M __divdf3.nstackwords $M __truncdfsf2.nstackwords $M cosf.nstackwords $M __mulsf3.nstackwords $M __addsf3.nstackwords) + 12)
	.globl	FLAC__window_nuttall.nstackwords
	.set	FLAC__window_nuttall.maxcores,cosf.maxcores $M 1
	.globl	FLAC__window_nuttall.maxcores
	.set	FLAC__window_nuttall.maxtimers,cosf.maxtimers $M 0
	.globl	FLAC__window_nuttall.maxtimers
	.set	FLAC__window_nuttall.maxchanends,cosf.maxchanends $M 0
	.globl	FLAC__window_nuttall.maxchanends
.Ltmp294:
	.size	FLAC__window_nuttall, .Ltmp294-FLAC__window_nuttall
.Lfunc_end10:
	.cfi_endproc

	.section	.cp.rodata.cst4,"aMc",@progbits,4
	.cc_top .LCPI11_0.data,.LCPI11_0
	.align	4
	.type	.LCPI11_0,@object
	.size	.LCPI11_0, 4
.LCPI11_0:
	.long	1065353216
	.cc_bottom .LCPI11_0.data
	.text
	.globl	FLAC__window_rectangle
	.align	4
	.type	FLAC__window_rectangle,@function
	.cc_top FLAC__window_rectangle.function,FLAC__window_rectangle
FLAC__window_rectangle:
.Lfunc_begin11:
	.loc	4 174 0
	.cfi_startproc
	.issue_mode dual
	{
		mkmsk r2, 1
		dualentsp 0
	}
	.loc	4 177 2 prologue_end
.Ltmp295:
	{
		lss r2, r1, r2
		nop
	}
	bt r2, .LBB11_3
.Ltmp296:
	ldw r2, cp[.LCPI11_0]
.Ltmp297:
.LBB11_2:
	.loc	4 178 3
	{
		sub r1, r1, 1
		stw r2, r0[0]
	}
	.loc	4 177 2
	{
		add r0, r0, 4
		nop
	}
	bt r1, .LBB11_2
.Ltmp298:
.LBB11_3:
	{
		nop
		retsp 0
	}
	.loc	4 179 1
	# RETURN_REG_HOLDER
.Ltmp299:
	.cc_bottom FLAC__window_rectangle.function
	.set	FLAC__window_rectangle.nstackwords,0
	.globl	FLAC__window_rectangle.nstackwords
	.set	FLAC__window_rectangle.maxcores,1
	.globl	FLAC__window_rectangle.maxcores
	.set	FLAC__window_rectangle.maxtimers,0
	.globl	FLAC__window_rectangle.maxtimers
	.set	FLAC__window_rectangle.maxchanends,0
	.globl	FLAC__window_rectangle.maxchanends
.Ltmp300:
	.size	FLAC__window_rectangle, .Ltmp300-FLAC__window_rectangle
.Lfunc_end11:
	.cfi_endproc

	.section	.cp.rodata.cst4,"aMc",@progbits,4
	.cc_top .LCPI12_0.data,.LCPI12_0
	.align	4
	.type	.LCPI12_0,@object
	.size	.LCPI12_0, 4
.LCPI12_0:
	.long	1065353216
	.cc_bottom .LCPI12_0.data
	.text
	.globl	FLAC__window_triangle
	.align	4
	.type	FLAC__window_triangle,@function
	.cc_top FLAC__window_triangle.function,FLAC__window_triangle
FLAC__window_triangle:
.Lfunc_begin12:
	.loc	4 182 0
	.cfi_startproc
	.issue_mode dual
	{
		nop
		dualentsp 10
	}
.Ltmp301:
	.cfi_def_cfa_offset 40
.Ltmp302:
	.cfi_offset 15, 0
	std r5, r4, sp[1]
.Ltmp303:
	.cfi_offset 4, -32
.Ltmp304:
	.cfi_offset 5, -28
	std r7, r6, sp[2]
.Ltmp305:
	.cfi_offset 6, -24
.Ltmp306:
	.cfi_offset 7, -20
	std r9, r8, sp[3]
.Ltmp307:
	.cfi_offset 8, -16
.Ltmp308:
	.cfi_offset 9, -12
.Ltmp309:
	.cfi_offset 10, -8
.Ltmp310:
	{
		mov r4, r1
		stw r10, sp[8]
	}
.Ltmp311:
	{
		mov r5, r0
		mov r0, r4
	}
.Ltmp312:
	.loc	4 185 6 prologue_end
	{
		zext r0, 1
		nop
	}
.Ltmp313:
	.loc	4 185 6
	bf r0, .LBB12_3
.Ltmp314:
	.loc	4 186 3
	{
		add r0, r4, 1
		ldc r8, 2
	}
	.loc	4 186 3
	{
		lss r1, r0, r8
		nop
	}
	.loc	4 186 3
	bf r1, .LBB12_11
.Ltmp315:
	{
		mkmsk r8, 1
		nop
	}
	bu .LBB12_7
.Ltmp316:
.LBB12_3:
	{
		ldc r8, 2
		nop
	}
	.loc	4 192 3
.Ltmp317:
	{
		lss r0, r4, r8
		nop
	}
	.loc	4 192 3
	bf r0, .LBB12_18
.Ltmp318:
	{
		mkmsk r8, 1
		nop
	}
	bu .LBB12_15
.Ltmp319:
.LBB12_11:
	{
		mkmsk r1, 5
		nop
	}
	.loc	4 186 3
.Ltmp320:
	{
		shr r1, r0, r1
		nop
	}
	{
		add r0, r0, r1
		nop
	}
	ashr r9, r0, 1
	.loc	4 187 4
	{
		mov r0, r4
		nop
	}
	bl __floatsisf
	ldw r1, cp[.LCPI12_0]
	.loc	4 187 4
	bl __addsf3
	{
		mov r6, r0
		ldc r10, 0
	}
.Ltmp321:
.LBB12_12:
	.loc	4 187 4
	{
		add r7, r10, 1
		nop
	}
	.loc	4 187 4
	{
		mov r0, r7
		nop
	}
	bl __floatsisf
	.loc	4 187 4
	{
		mov r1, r0
		nop
	}
	bl __addsf3
	.loc	4 187 4
	{
		mov r1, r6
		nop
	}
	bl __divsf3
	.loc	4 187 4
	stw r0, r5[r10]
	.loc	4 186 3
	{
		lss r0, r7, r9
		mov r10, r7
	}
	.loc	4 186 3
	bt r0, .LBB12_12
.Ltmp322:
	{
		lss r0, r8, r4
		nop
	}
	bf r0, .LBB12_7
.Ltmp323:
	.loc	4 186 3
	{
		add r8, r9, 1
		nop
	}
.Ltmp324:
.LBB12_7:
	.loc	4 188 3
	{
		lss r0, r4, r8
		nop
	}
	bt r0, .LBB12_10
.Ltmp325:
	.loc	4 189 4
	{
		mov r0, r4
		nop
	}
	bl __floatsisf
	ldw r1, cp[.LCPI12_0]
	.loc	4 189 4
	bl __addsf3
	{
		mov r6, r0
		sub r9, r8, 1
	}
	.loc	4 188 3
	{
		sub r0, r4, r8
		ldc r1, 2
	}
	.loc	4 188 3
	lda16 r7, r1[r0]
.Ltmp326:
.LBB12_9:
	.loc	4 189 4
	{
		mov r0, r7
		nop
	}
	bl __floatsisf
	.loc	4 189 4
	{
		mov r1, r6
		nop
	}
	bl __divsf3
	.loc	4 189 4
	stw r0, r5[r9]
	.loc	4 188 3
	{
		add r9, r9, 1
		sub r7, r7, 2
	}
	.loc	4 188 3
	{
		lss r0, r9, r4
		nop
	}
	bt r0, .LBB12_9
	bu .LBB12_10
.Ltmp327:
.LBB12_18:
	{
		mkmsk r0, 5
		nop
	}
	.loc	4 192 3
.Ltmp328:
	{
		shr r0, r4, r0
		nop
	}
	{
		add r0, r4, r0
		nop
	}
	ashr r9, r0, 1
	.loc	4 193 4
	{
		mov r0, r4
		nop
	}
	bl __floatsisf
	ldw r1, cp[.LCPI12_0]
	.loc	4 193 4
	bl __addsf3
	{
		mov r6, r0
		ldc r10, 0
	}
.Ltmp329:
.LBB12_19:
	.loc	4 193 4
	{
		add r7, r10, 1
		nop
	}
	.loc	4 193 4
	{
		mov r0, r7
		nop
	}
	bl __floatsisf
	.loc	4 193 4
	{
		mov r1, r0
		nop
	}
	bl __addsf3
	.loc	4 193 4
	{
		mov r1, r6
		nop
	}
	bl __divsf3
	.loc	4 193 4
	stw r0, r5[r10]
	.loc	4 192 3
	{
		lss r0, r7, r9
		mov r10, r7
	}
	.loc	4 192 3
	bt r0, .LBB12_19
.Ltmp330:
	{
		mkmsk r0, 2
		nop
	}
	{
		lss r0, r0, r4
		nop
	}
	bf r0, .LBB12_15
.Ltmp331:
	.loc	4 192 3
	{
		add r8, r9, 1
		nop
	}
.Ltmp332:
.LBB12_15:
	.loc	4 194 3
	{
		lss r0, r4, r8
		nop
	}
	bt r0, .LBB12_10
.Ltmp333:
	.loc	4 195 4
	{
		mov r0, r4
		nop
	}
	bl __floatsisf
	ldw r1, cp[.LCPI12_0]
	.loc	4 195 4
	bl __addsf3
	{
		mov r6, r0
		sub r9, r8, 1
	}
	.loc	4 194 3
	{
		sub r0, r4, r8
		ldc r1, 2
	}
	.loc	4 194 3
	lda16 r7, r1[r0]
.Ltmp334:
.LBB12_17:
	.loc	4 195 4
	{
		mov r0, r7
		nop
	}
	bl __floatsisf
	.loc	4 195 4
	{
		mov r1, r6
		nop
	}
	bl __divsf3
	.loc	4 195 4
	stw r0, r5[r9]
	.loc	4 194 3
	{
		add r9, r9, 1
		sub r7, r7, 2
	}
	.loc	4 194 3
	{
		lss r0, r9, r4
		nop
	}
	bt r0, .LBB12_17
.Ltmp335:
.LBB12_10:
	{
		nop
		ldw r10, sp[8]
	}
	.loc	4 197 1
	ldd r9, r8, sp[3]
	ldd r7, r6, sp[2]
	ldd r5, r4, sp[1]
	{
		nop
		retsp 10
	}
	# RETURN_REG_HOLDER
.Ltmp336:
	.cc_bottom FLAC__window_triangle.function
	.set	FLAC__window_triangle.nstackwords,((__floatsisf.nstackwords $M __addsf3.nstackwords $M __divsf3.nstackwords) + 10)
	.globl	FLAC__window_triangle.nstackwords
	.set	FLAC__window_triangle.maxcores,1
	.globl	FLAC__window_triangle.maxcores
	.set	FLAC__window_triangle.maxtimers,0
	.globl	FLAC__window_triangle.maxtimers
	.set	FLAC__window_triangle.maxchanends,0
	.globl	FLAC__window_triangle.maxchanends
.Ltmp337:
	.size	FLAC__window_triangle, .Ltmp337-FLAC__window_triangle
.Lfunc_end12:
	.cfi_endproc

	.section	.cp.rodata.cst4,"aMc",@progbits,4
	.cc_top .LCPI13_0.data,.LCPI13_0
	.align	4
	.type	.LCPI13_0,@object
	.size	.LCPI13_0, 4
.LCPI13_0:
	.long	1065353216
	.cc_bottom .LCPI13_0.data
	.cc_top .LCPI13_1.data,.LCPI13_1
	.align	4
	.type	.LCPI13_1,@object
	.size	.LCPI13_1, 4
.LCPI13_1:
	.long	1413754136
	.cc_bottom .LCPI13_1.data
	.cc_top .LCPI13_2.data,.LCPI13_2
	.align	4
	.type	.LCPI13_2,@object
	.size	.LCPI13_2, 4
.LCPI13_2:
	.long	1075388923
	.cc_bottom .LCPI13_2.data
	.cc_top .LCPI13_3.data,.LCPI13_3
	.align	4
	.type	.LCPI13_3,@object
	.size	.LCPI13_3, 4
.LCPI13_3:
	.long	1056964608
	.cc_bottom .LCPI13_3.data
	.cc_top .LCPI13_4.data,.LCPI13_4
	.align	4
	.type	.LCPI13_4,@object
	.size	.LCPI13_4, 4
.LCPI13_4:
	.long	1048576000
	.cc_bottom .LCPI13_4.data
	.cc_top .LCPI13_5.data,.LCPI13_5
	.align	4
	.type	.LCPI13_5,@object
	.size	.LCPI13_5, 4
.LCPI13_5:
	.long	1074340347
	.cc_bottom .LCPI13_5.data
	.text
	.globl	FLAC__window_tukey
	.align	4
	.type	FLAC__window_tukey,@function
	.cc_top FLAC__window_tukey.function,FLAC__window_tukey
FLAC__window_tukey:
.Lfunc_begin13:
	.loc	4 200 0
	.cfi_startproc
	.issue_mode dual
	{
		nop
		dualentsp 14
	}
.Ltmp338:
	.cfi_def_cfa_offset 56
.Ltmp339:
	.cfi_offset 15, 0
	std r5, r4, sp[3]
.Ltmp340:
	.cfi_offset 4, -32
.Ltmp341:
	.cfi_offset 5, -28
	std r7, r6, sp[4]
.Ltmp342:
	.cfi_offset 6, -24
.Ltmp343:
	.cfi_offset 7, -20
	std r9, r8, sp[5]
.Ltmp344:
	.cfi_offset 8, -16
.Ltmp345:
	.cfi_offset 9, -12
.Ltmp346:
	.cfi_offset 10, -8
	{
		mov r7, r2
		stw r10, sp[12]
	}
.Ltmp347:
	{
		mov r5, r1
		mov r4, r0
	}
.Ltmp348:
	{
		ldc r6, 0
		mov r0, r7
	}
	.loc	4 201 6 prologue_end
.Ltmp349:
	{
		mov r1, r6
		nop
	}
	bl __gtsf2
	{
		lss r8, r6, r0
		mov r0, r7
	}
	{
		mov r1, r6
		nop
	}
	bl __unordsf2
	{
		eq r0, r0, 0
		nop
	}
	{
		eq r0, r0, 0
		nop
	}
	{
		or r0, r0, r8
		nop
	}
	.loc	4 201 6
	bf r0, .LBB13_1
.Ltmp350:
	ldw r8, cp[.LCPI13_0]
	.loc	4 203 11
.Ltmp351:
	{
		mov r0, r7
		mov r1, r8
	}
	bl __ltsf2
	{
		lss r9, r0, r6
		mov r0, r7
	}
	{
		mov r1, r8
		nop
	}
	bl __unordsf2
	{
		eq r0, r0, 0
		nop
	}
	{
		eq r0, r0, 0
		nop
	}
	{
		or r0, r0, r9
		nop
	}
	.loc	4 203 11
	bf r0, .LBB13_5
.Ltmp352:
	{
		ldc r6, 0
		mov r0, r7
	}
	.loc	4 205 11
.Ltmp353:
	{
		mov r1, r6
		nop
	}
	bl __lesf2
	{
		mkmsk r10, 1
		nop
	}
	{
		lss r9, r0, r10
		mov r0, r7
	}
	{
		mov r1, r6
		nop
	}
	bl __unordsf2
	{
		eq r0, r0, 0
		nop
	}
	{
		eq r0, r0, 0
		nop
	}
	{
		or r0, r0, r9
		nop
	}
	bt r0, .LBB13_10
.Ltmp354:
	ldw r9, cp[.LCPI13_0]
	{
		mov r0, r7
		mov r1, r9
	}
	bl __ltsf2
	ashr r0, r0, 32
	bf r0, .LBB13_10
.Ltmp355:
	ldw r1, cp[.LCPI13_3]
	.loc	4 210 3
.Ltmp356:
	{
		mov r0, r7
		nop
	}
	bl __mulsf3
.Ltmp357:
	{
		mov r6, r0
		mov r0, r5
	}
	.loc	4 210 3
	bl __floatsisf
	.loc	4 210 3
	{
		mov r1, r6
		nop
	}
	bl __mulsf3
	.loc	4 210 3
	bl __fixsfsi
	{
		mov r3, r0
		nop
	}
.Ltmp358:
	.loc	4 210 3
	{
		sub r0, r3, 1
		lss r1, r5, r10
	}
.Ltmp359:
	bt r1, .LBB13_20
.Ltmp360:
	{
		mov r1, r4
		mov r2, r5
	}
.Ltmp361:
.LBB13_19:
	.loc	4 178 3
	{
		sub r2, r2, 1
		stw r9, r1[0]
	}
	.loc	4 177 2
	{
		add r1, r1, 4
		nop
	}
	bt r2, .LBB13_19
.Ltmp362:
.LBB13_20:
	.loc	4 215 7
	{
		lss r1, r0, r10
		nop
	}
	bt r1, .LBB13_24
.Ltmp363:
	{
		lss r1, r3, r10
		nop
	}
	bt r1, .LBB13_24
.Ltmp364:
	{
		mov r6, r3
		nop
	}
	{
		nop
		stw r6, sp[5]
	}
	.loc	4 217 44
.Ltmp365:
	bl __floatsidf
	{
		mov r2, r6
		stw r0, sp[3]
	}
	{
		mov r9, r1
		shl r0, r5, 2
	}
.Ltmp366:
	.loc	4 216 4
	ldaw r0, r0[-r2]
	{
		add r0, r4, r0
		nop
	}
.Ltmp367:
	{
		ldc r5, 0
		stw r0, sp[4]
	}
.Ltmp368:
	ldw r10, cp[.LCPI13_1]
	ldw r6, cp[.LCPI13_5]
	ldw r8, cp[.LCPI13_3]
	{
		nop
		ldw r7, sp[3]
	}
.Ltmp369:
.LBB13_23:
	.loc	4 217 44
	{
		mov r0, r5
		nop
	}
	bl __floatsidf
	.loc	4 217 44
	{
		mov r2, r10
		mov r3, r6
	}
	bl __muldf3
	.loc	4 217 44
	{
		mov r2, r7
		mov r3, r9
	}
	bl __divdf3
	.loc	4 217 44
	bl __truncdfsf2
	.loc	4 217 44
	bl cosf
	.loc	4 217 44
	{
		mov r1, r8
		nop
	}
	bl __mulsf3
	{
		mov r1, r0
		mov r0, r8
	}
	.loc	4 217 44
	bl __subsf3
	.loc	4 217 44
	stw r0, r4[r5]
	{
		nop
		ldw r0, sp[5]
	}
	.loc	4 218 51
	{
		add r0, r0, r5
		nop
	}
	.loc	4 218 51
	{
		sub r0, r0, 1
		nop
	}
	.loc	4 218 51
	bl __floatsidf
	.loc	4 218 51
	{
		mov r2, r10
		mov r3, r6
	}
	bl __muldf3
	.loc	4 218 51
	{
		mov r2, r7
		mov r3, r9
	}
	bl __divdf3
	.loc	4 218 51
	bl __truncdfsf2
	.loc	4 218 51
	bl cosf
	.loc	4 218 51
	{
		mov r1, r8
		nop
	}
	bl __mulsf3
	{
		mov r1, r0
		mov r0, r8
	}
	.loc	4 218 51
	bl __subsf3
	{
		nop
		ldw r2, sp[5]
	}
	{
		nop
		ldw r1, sp[4]
	}
	.loc	4 218 51
	stw r0, r1[r5]
.Ltmp370:
	.loc	4 216 25
	{
		add r5, r5, 1
		nop
	}
.Ltmp371:
	.loc	4 216 4
	{
		eq r0, r2, r5
		nop
	}
	bf r0, .LBB13_23
	bu .LBB13_24
.Ltmp372:
.LBB13_1:
	{
		mkmsk r0, 1
		nop
	}
	.loc	4 177 2
.Ltmp373:
	{
		lss r0, r5, r0
		nop
	}
	bt r0, .LBB13_24
.Ltmp374:
	ldw r0, cp[.LCPI13_0]
.Ltmp375:
.LBB13_3:
	.loc	4 178 3
	{
		sub r5, r5, 1
		stw r0, r4[0]
	}
	.loc	4 177 2
	{
		add r4, r4, 4
		nop
	}
	bt r5, .LBB13_3
	bu .LBB13_24
.Ltmp376:
.LBB13_5:
	{
		mkmsk r0, 1
		nop
	}
	.loc	4 151 2
.Ltmp377:
	{
		lss r0, r5, r0
		nop
	}
	bt r0, .LBB13_24
.Ltmp378:
	.loc	4 148 2
	{
		sub r0, r5, 1
		nop
	}
	.loc	4 152 42
.Ltmp379:
	bl __floatsidf
	{
		mov r7, r0
		mov r8, r1
	}
	ldw r10, cp[.LCPI13_2]
	ldw r9, cp[.LCPI13_3]
.Ltmp380:
.LBB13_7:
	.loc	4 152 42
	{
		mov r0, r6
		nop
	}
	bl __floatsidf
.Ltmp381:
	ldw r2, cp[.LCPI13_1]
	.loc	4 152 42
	{
		mov r3, r10
		nop
	}
	bl __muldf3
	.loc	4 152 42
	{
		mov r2, r7
		mov r3, r8
	}
	bl __divdf3
	.loc	4 152 42
	bl __truncdfsf2
	.loc	4 152 42
	bl cosf
	.loc	4 152 42
	{
		mov r1, r9
		nop
	}
	bl __mulsf3
	{
		mov r1, r0
		mov r0, r9
	}
	.loc	4 152 42
	bl __subsf3
	.loc	4 152 42
	stw r0, r4[r6]
	.loc	4 151 21
	{
		add r6, r6, 1
		nop
	}
.Ltmp382:
	.loc	4 151 2
	{
		eq r0, r5, r6
		nop
	}
	bf r0, .LBB13_7
	bu .LBB13_24
.Ltmp383:
.LBB13_10:
	.loc	4 210 3
	{
		mov r0, r5
		nop
	}
	bl __floatsisf
	ldw r1, cp[.LCPI13_4]
	.loc	4 210 3
	bl __mulsf3
	.loc	4 210 3
	bl __fixsfsi
	{
		mov r3, r0
		nop
	}
.Ltmp384:
	.loc	4 210 3
	{
		sub r0, r3, 1
		lss r1, r5, r10
	}
.Ltmp385:
	bt r1, .LBB13_13
.Ltmp386:
	{
		mov r1, r4
		mov r2, r5
	}
.Ltmp387:
.LBB13_12:
	.loc	4 178 3
	{
		sub r2, r2, 1
		stw r8, r1[0]
	}
	.loc	4 177 2
	{
		add r1, r1, 4
		nop
	}
	bt r2, .LBB13_12
.Ltmp388:
.LBB13_13:
	.loc	4 215 7
	{
		lss r1, r0, r10
		mov r9, r6
	}
	bt r1, .LBB13_24
.Ltmp389:
	{
		lss r1, r3, r10
		nop
	}
	bt r1, .LBB13_24
.Ltmp390:
	{
		mov r7, r3
		nop
	}
	{
		nop
		stw r7, sp[5]
	}
	.loc	4 217 44
.Ltmp391:
	bl __floatsidf
	{
		mov r2, r7
		stw r0, sp[2]
	}
	{
		shl r0, r5, 2
		stw r1, sp[3]
	}
.Ltmp392:
	.loc	4 216 4
	ldaw r0, r0[-r2]
	{
		add r0, r4, r0
		nop
	}
.Ltmp393:
	{
		nop
		stw r0, sp[4]
	}
	ldw r10, cp[.LCPI13_1]
	ldw r7, cp[.LCPI13_5]
	ldw r6, cp[.LCPI13_3]
	{
		nop
		ldw r8, sp[2]
	}
	{
		nop
		ldw r5, sp[3]
	}
.Ltmp394:
.LBB13_16:
	.loc	4 217 44
	{
		mov r0, r9
		nop
	}
	bl __floatsidf
	.loc	4 217 44
	{
		mov r2, r10
		mov r3, r7
	}
	bl __muldf3
	.loc	4 217 44
	{
		mov r2, r8
		mov r3, r5
	}
	bl __divdf3
	.loc	4 217 44
	bl __truncdfsf2
	.loc	4 217 44
	bl cosf
	.loc	4 217 44
	{
		mov r1, r6
		nop
	}
	bl __mulsf3
	{
		mov r1, r0
		mov r0, r6
	}
	.loc	4 217 44
	bl __subsf3
	.loc	4 217 44
	stw r0, r4[r9]
	{
		nop
		ldw r0, sp[5]
	}
	.loc	4 218 51
	{
		add r0, r0, r9
		nop
	}
	.loc	4 218 51
	{
		sub r0, r0, 1
		nop
	}
	.loc	4 218 51
	bl __floatsidf
	.loc	4 218 51
	{
		mov r2, r10
		mov r3, r7
	}
	bl __muldf3
	.loc	4 218 51
	{
		mov r2, r8
		mov r3, r5
	}
	bl __divdf3
	.loc	4 218 51
	bl __truncdfsf2
	.loc	4 218 51
	bl cosf
	.loc	4 218 51
	{
		mov r1, r6
		nop
	}
	bl __mulsf3
	{
		mov r1, r0
		mov r0, r6
	}
	.loc	4 218 51
	bl __subsf3
	{
		nop
		ldw r2, sp[5]
	}
	{
		nop
		ldw r1, sp[4]
	}
	.loc	4 218 51
	stw r0, r1[r9]
.Ltmp395:
	.loc	4 216 25
	{
		add r9, r9, 1
		nop
	}
.Ltmp396:
	.loc	4 216 4
	{
		eq r0, r2, r9
		nop
	}
	bf r0, .LBB13_16
.Ltmp397:
.LBB13_24:
	{
		nop
		ldw r10, sp[12]
	}
	.loc	4 222 1
	ldd r9, r8, sp[5]
	ldd r7, r6, sp[4]
	ldd r5, r4, sp[3]
	{
		nop
		retsp 14
	}
	# RETURN_REG_HOLDER
.Ltmp398:
	.cc_bottom FLAC__window_tukey.function
	.set	FLAC__window_tukey.nstackwords,((__gtsf2.nstackwords $M __lesf2.nstackwords $M __unordsf2.nstackwords $M __ltsf2.nstackwords $M __floatsisf.nstackwords $M __fixsfsi.nstackwords $M __floatsidf.nstackwords $M __muldf3.nstackwords $M __divdf3.nstackwords $M __truncdfsf2.nstackwords $M cosf.nstackwords $M __mulsf3.nstackwords $M __subsf3.nstackwords) + 14)
	.globl	FLAC__window_tukey.nstackwords
	.set	FLAC__window_tukey.maxcores,cosf.maxcores $M 1
	.globl	FLAC__window_tukey.maxcores
	.set	FLAC__window_tukey.maxtimers,cosf.maxtimers $M 0
	.globl	FLAC__window_tukey.maxtimers
	.set	FLAC__window_tukey.maxchanends,cosf.maxchanends $M 0
	.globl	FLAC__window_tukey.maxchanends
.Ltmp399:
	.size	FLAC__window_tukey, .Ltmp399-FLAC__window_tukey
.Lfunc_end13:
	.cfi_endproc

	.section	.cp.rodata.cst4,"aMc",@progbits,4
	.cc_top .LCPI14_0.data,.LCPI14_0
	.align	4
	.type	.LCPI14_0,@object
	.size	.LCPI14_0, 4
.LCPI14_0:
	.long	1028443341
	.cc_bottom .LCPI14_0.data
	.cc_top .LCPI14_1.data,.LCPI14_1
	.align	4
	.type	.LCPI14_1,@object
	.size	.LCPI14_1, 4
.LCPI14_1:
	.long	1064514355
	.cc_bottom .LCPI14_1.data
	.cc_top .LCPI14_2.data,.LCPI14_2
	.align	4
	.type	.LCPI14_2,@object
	.size	.LCPI14_2, 4
.LCPI14_2:
	.long	1065353216
	.cc_bottom .LCPI14_2.data
	.cc_top .LCPI14_3.data,.LCPI14_3
	.align	4
	.type	.LCPI14_3,@object
	.size	.LCPI14_3, 4
.LCPI14_3:
	.long	1056964608
	.cc_bottom .LCPI14_3.data
	.cc_top .LCPI14_4.data,.LCPI14_4
	.align	4
	.type	.LCPI14_4,@object
	.size	.LCPI14_4, 4
.LCPI14_4:
	.long	1413754136
	.cc_bottom .LCPI14_4.data
	.cc_top .LCPI14_5.data,.LCPI14_5
	.align	4
	.type	.LCPI14_5,@object
	.size	.LCPI14_5, 4
.LCPI14_5:
	.long	1074340347
	.cc_bottom .LCPI14_5.data
	.text
	.globl	FLAC__window_partial_tukey
	.align	4
	.type	FLAC__window_partial_tukey,@function
	.cc_top FLAC__window_partial_tukey.function,FLAC__window_partial_tukey
FLAC__window_partial_tukey:
.Lfunc_begin14:
	.loc	4 225 0
	.cfi_startproc
	.issue_mode dual
	{
		nop
		dualentsp 16
	}
.Ltmp400:
	.cfi_def_cfa_offset 64
.Ltmp401:
	.cfi_offset 15, 0
	std r5, r4, sp[4]
.Ltmp402:
	.cfi_offset 4, -32
.Ltmp403:
	.cfi_offset 5, -28
	std r7, r6, sp[5]
.Ltmp404:
	.cfi_offset 6, -24
.Ltmp405:
	.cfi_offset 7, -20
	std r9, r8, sp[6]
.Ltmp406:
	.cfi_offset 8, -16
.Ltmp407:
	.cfi_offset 9, -12
	{
		nop
		stw r10, sp[14]
	}
.Ltmp408:
	.cfi_offset 10, -8
	{
		nop
		stw r3, sp[7]
	}
	{
		nop
		stw r1, sp[4]
	}
.Ltmp409:
	{
		nop
		stw r0, sp[5]
	}
.Ltmp410:
	ldw r4, cp[.LCPI14_0]
	{
		ldc r6, 0
		mkmsk r9, 1
	}
	ldw r5, cp[.LCPI14_1]
	ldw r7, cp[.LCPI14_2]
.Ltmp411:
.LBB14_1:
	{
		mov r8, r2
		nop
	}
	.loc	4 231 6 prologue_end
.Ltmp412:
	{
		mov r0, r8
		mov r1, r6
	}
	bl __lesf2
	{
		lss r0, r0, r9
		mov r2, r4
	}
	bt r0, .LBB14_1
.Ltmp413:
	.loc	4 233 11
	{
		mov r0, r8
		mov r1, r7
	}
	bl __gesf2
	ashr r0, r0, 32
	{
		mov r2, r5
		nop
	}
	bf r0, .LBB14_1
.Ltmp414:
	.loc	4 235 11
	{
		mov r0, r8
		mov r1, r6
	}
	bl __lesf2
	{
		mov r10, r7
		lss r7, r0, r9
	}
	{
		mov r0, r8
		mov r1, r6
	}
	bl __unordsf2
	{
		eq r0, r0, 0
		nop
	}
	{
		eq r0, r0, 0
		nop
	}
	{
		or r0, r0, r7
		mov r7, r10
	}
	ldw r2, cp[.LCPI14_3]
	bt r0, .LBB14_1
.Ltmp415:
	{
		mov r0, r8
		mov r1, r7
	}
	bl __gesf2
	ashr r0, r0, 32
	{
		mov r10, r7
		eq r7, r0, 0
	}
	{
		mov r0, r8
		mov r1, r10
	}
	bl __unordsf2
	{
		eq r0, r0, 0
		nop
	}
	{
		eq r0, r0, 0
		nop
	}
	{
		or r0, r0, r7
		mov r7, r10
	}
	ldw r2, cp[.LCPI14_3]
	bt r0, .LBB14_1
.Ltmp416:
	{
		nop
		ldw r7, sp[4]
	}
.Ltmp417:
	.loc	4 226 2
	{
		mov r0, r7
		nop
	}
	bl __floatsisf
	{
		mov r4, r0
		ldw r1, sp[7]
	}
	.loc	4 226 2
	bl __mulsf3
	.loc	4 226 2
	bl __fixsfsi
	{
		mov r10, r0
		mov r0, r4
	}
	{
		nop
		ldw r1, sp[17]
	}
	.loc	4 227 2
	bl __mulsf3
	.loc	4 227 2
	bl __fixsfsi
.Ltmp418:
	.loc	4 228 2
	{
		sub r4, r0, r10
		stw r0, sp[3]
	}
.Ltmp419:
	ldw r1, cp[.LCPI14_3]
	.loc	4 241 3
.Ltmp420:
	{
		mov r0, r8
		nop
	}
	bl __mulsf3
	{
		mov r5, r0
		mov r0, r4
	}
	.loc	4 241 3
	bl __floatsisf
	.loc	4 241 3
	{
		mov r1, r5
		nop
	}
	bl __mulsf3
	.loc	4 241 3
	bl __fixsfsi
.Ltmp421:
	{
		mov r8, r0
		lss r0, r10, r9
	}
	bt r0, .LBB14_10
.Ltmp422:
	{
		lss r0, r7, r9
		nop
	}
	bt r0, .LBB14_10
.Ltmp423:
	.loc	4 243 3
	{
		neg r4, r10
		neg r0, r7
	}
	{
		lsu r1, r0, r4
		nop
	}
	bt r1, .LBB14_9
.Ltmp424:
	{
		mov r4, r0
		nop
	}
.Ltmp425:
.LBB14_9:
	{
		ldc r1, 0
		nop
	}
	.loc	4 243 3
	ldaw r2, r1[-r4]
	{
		nop
		ldw r0, sp[5]
	}
	.loc	4 244 4
	bl memset
	.loc	4 243 3
	{
		neg r6, r4
		nop
	}
.Ltmp426:
.LBB14_10:
	.loc	4 245 3
	{
		add r0, r8, r10
		nop
	}
	.loc	4 245 3
	{
		lss r0, r6, r0
		nop
	}
	bf r0, .LBB14_17
.Ltmp427:
	{
		lss r0, r6, r7
		ldw r4, sp[3]
	}
	bf r0, .LBB14_18
.Ltmp428:
	.loc	4 246 43
	{
		mov r0, r8
		nop
	}
	bl __floatsidf
	{
		mov r2, r0
		sub r0, r6, r8
	}
.Ltmp429:
	.loc	4 245 3
	{
		sub r11, r0, r10
		sub r0, r6, r7
	}
	{
		lsu r3, r0, r11
		nop
	}
	bt r3, .LBB14_14
.Ltmp430:
	{
		mov r11, r0
		nop
	}
.Ltmp431:
.LBB14_14:
	.loc	4 245 3
	{
		neg r0, r11
		stw r11, sp[2]
	}
	{
		nop
		stw r0, sp[7]
	}
	{
		nop
		ldw r0, sp[5]
	}
	ldaw r0, r0[r6]
	{
		ldc r9, 0
		stw r0, sp[6]
	}
	ldw r10, cp[.LCPI14_3]
	{
		mov r5, r2
		mov r4, r1
	}
.Ltmp432:
.LBB14_15:
	.loc	4 246 43
	{
		add r7, r9, 1
		nop
	}
	.loc	4 246 43
	{
		mov r0, r7
		nop
	}
	bl __floatsidf
	ldw r2, cp[.LCPI14_4]
	ldw r3, cp[.LCPI14_5]
	.loc	4 246 43
	bl __muldf3
	.loc	4 246 43
	{
		mov r2, r5
		mov r3, r4
	}
	bl __divdf3
	.loc	4 246 43
	bl __truncdfsf2
	.loc	4 246 43
	bl cosf
	.loc	4 246 43
	{
		mov r1, r10
		nop
	}
	bl __mulsf3
	{
		mov r1, r0
		mov r0, r10
	}
	.loc	4 246 43
	bl __subsf3
	{
		nop
		ldw r1, sp[6]
	}
	.loc	4 246 43
	stw r0, r1[r9]
	{
		nop
		ldw r0, sp[7]
	}
	.loc	4 245 3
	{
		eq r0, r0, r7
		mov r9, r7
	}
	.loc	4 245 3
	bf r0, .LBB14_15
.Ltmp433:
	{
		nop
		ldw r0, sp[2]
	}
.Ltmp434:
	.loc	4 245 3
	{
		sub r6, r6, r0
		ldw r7, sp[4]
	}
.Ltmp435:
.LBB14_17:
	{
		nop
		ldw r4, sp[3]
	}
.Ltmp436:
.LBB14_18:
	.loc	4 247 3
	{
		sub r0, r4, r8
		nop
	}
	.loc	4 247 3
	{
		lss r0, r6, r0
		nop
	}
	bf r0, .LBB14_25
.Ltmp437:
	{
		lss r0, r6, r7
		nop
	}
	bf r0, .LBB14_25
.Ltmp438:
	.loc	4 247 3
	{
		add r0, r6, r8
		nop
	}
	.loc	4 247 3
	{
		sub r0, r0, r4
		sub r1, r6, r7
	}
	{
		lsu r2, r1, r0
		nop
	}
	bt r2, .LBB14_22
.Ltmp439:
	{
		mov r0, r1
		nop
	}
.Ltmp440:
.LBB14_22:
	.loc	4 247 3
	{
		neg r1, r0
		ldw r2, sp[5]
	}
	ldaw r2, r2[r6]
	ldw r3, cp[.LCPI14_2]
.Ltmp441:
.LBB14_23:
	.loc	4 248 4
	{
		sub r1, r1, 1
		stw r3, r2[0]
	}
	.loc	4 247 3
	{
		add r2, r2, 4
		nop
	}
	.loc	4 247 3
	bt r1, .LBB14_23
.Ltmp442:
	.loc	4 247 3
	{
		sub r6, r6, r0
		nop
	}
.Ltmp443:
.LBB14_25:
	.loc	4 249 3
	{
		lss r0, r6, r4
		nop
	}
	bf r0, .LBB14_32
.Ltmp444:
	{
		lss r0, r6, r7
		nop
	}
	bf r0, .LBB14_32
.Ltmp445:
	.loc	4 250 43
	{
		mov r0, r8
		nop
	}
	bl __floatsidf
.Ltmp446:
	{
		mov r2, r7
		mov r7, r0
	}
.Ltmp447:
	{
		mov r10, r1
		sub r3, r6, r4
	}
	.loc	4 249 3
	{
		sub r0, r6, r2
		nop
	}
.Ltmp448:
	{
		lsu r1, r0, r3
		nop
	}
	bt r1, .LBB14_29
.Ltmp449:
	{
		mov r3, r0
		nop
	}
.Ltmp450:
.LBB14_29:
	.loc	4 249 3
	{
		neg r4, r3
		stw r3, sp[7]
	}
	{
		nop
		ldw r0, sp[5]
	}
	ldaw r5, r0[r6]
	ldw r9, cp[.LCPI14_3]
.Ltmp451:
.LBB14_30:
	.loc	4 250 43
	{
		mov r0, r8
		nop
	}
	bl __floatsidf
	ldw r2, cp[.LCPI14_4]
	ldw r3, cp[.LCPI14_5]
	.loc	4 250 43
	bl __muldf3
	.loc	4 250 43
	{
		mov r2, r7
		mov r3, r10
	}
	bl __divdf3
	.loc	4 250 43
	bl __truncdfsf2
	.loc	4 250 43
	bl cosf
	.loc	4 250 43
	{
		mov r1, r9
		nop
	}
	bl __mulsf3
	{
		mov r1, r0
		mov r0, r9
	}
	.loc	4 250 43
	bl __subsf3
.Ltmp452:
	.loc	4 250 43
	{
		sub r8, r8, 1
		stw r0, r5[0]
	}
.Ltmp453:
	.loc	4 249 3
	{
		sub r4, r4, 1
		add r5, r5, 4
	}
	.loc	4 249 3
	bt r4, .LBB14_30
.Ltmp454:
	{
		nop
		ldw r0, sp[7]
	}
.Ltmp455:
	.loc	4 249 3
	{
		sub r6, r6, r0
		ldw r7, sp[4]
	}
.Ltmp456:
.LBB14_32:
	.loc	4 251 3
	{
		lss r0, r6, r7
		nop
	}
	bf r0, .LBB14_34
.Ltmp457:
	{
		nop
		ldw r0, sp[5]
	}
	ldaw r0, r0[r6]
	.loc	4 251 3
	{
		sub r1, r7, r6
		nop
	}
	.loc	4 251 3
	{
		shl r2, r1, 2
		ldc r1, 0
	}
	.loc	4 252 4
	bl memset
.Ltmp458:
.LBB14_34:
	{
		nop
		ldw r10, sp[14]
	}
	.loc	4 254 1
	ldd r9, r8, sp[6]
	ldd r7, r6, sp[5]
	ldd r5, r4, sp[4]
	{
		nop
		retsp 16
	}
	# RETURN_REG_HOLDER
.Ltmp459:
	.cc_bottom FLAC__window_partial_tukey.function
	.set	FLAC__window_partial_tukey.nstackwords,((__lesf2.nstackwords $M __gesf2.nstackwords $M __unordsf2.nstackwords $M __floatsisf.nstackwords $M __fixsfsi.nstackwords $M __floatsidf.nstackwords $M __muldf3.nstackwords $M __divdf3.nstackwords $M __truncdfsf2.nstackwords $M cosf.nstackwords $M __mulsf3.nstackwords $M __subsf3.nstackwords $M memset.nstackwords) + 16)
	.globl	FLAC__window_partial_tukey.nstackwords
	.set	FLAC__window_partial_tukey.maxcores,cosf.maxcores $M 1
	.globl	FLAC__window_partial_tukey.maxcores
	.set	FLAC__window_partial_tukey.maxtimers,cosf.maxtimers $M 0
	.globl	FLAC__window_partial_tukey.maxtimers
	.set	FLAC__window_partial_tukey.maxchanends,cosf.maxchanends $M 0
	.globl	FLAC__window_partial_tukey.maxchanends
.Ltmp460:
	.size	FLAC__window_partial_tukey, .Ltmp460-FLAC__window_partial_tukey
.Lfunc_end14:
	.cfi_endproc

	.section	.cp.rodata.cst4,"aMc",@progbits,4
	.cc_top .LCPI15_0.data,.LCPI15_0
	.align	4
	.type	.LCPI15_0,@object
	.size	.LCPI15_0, 4
.LCPI15_0:
	.long	1028443341
	.cc_bottom .LCPI15_0.data
	.cc_top .LCPI15_1.data,.LCPI15_1
	.align	4
	.type	.LCPI15_1,@object
	.size	.LCPI15_1, 4
.LCPI15_1:
	.long	1064514355
	.cc_bottom .LCPI15_1.data
	.cc_top .LCPI15_2.data,.LCPI15_2
	.align	4
	.type	.LCPI15_2,@object
	.size	.LCPI15_2, 4
.LCPI15_2:
	.long	1065353216
	.cc_bottom .LCPI15_2.data
	.cc_top .LCPI15_3.data,.LCPI15_3
	.align	4
	.type	.LCPI15_3,@object
	.size	.LCPI15_3, 4
.LCPI15_3:
	.long	1056964608
	.cc_bottom .LCPI15_3.data
	.cc_top .LCPI15_4.data,.LCPI15_4
	.align	4
	.type	.LCPI15_4,@object
	.size	.LCPI15_4, 4
.LCPI15_4:
	.long	1413754136
	.cc_bottom .LCPI15_4.data
	.cc_top .LCPI15_5.data,.LCPI15_5
	.align	4
	.type	.LCPI15_5,@object
	.size	.LCPI15_5, 4
.LCPI15_5:
	.long	1074340347
	.cc_bottom .LCPI15_5.data
	.text
	.globl	FLAC__window_punchout_tukey
	.align	4
	.type	FLAC__window_punchout_tukey,@function
	.cc_top FLAC__window_punchout_tukey.function,FLAC__window_punchout_tukey
FLAC__window_punchout_tukey:
.Lfunc_begin15:
	.loc	4 257 0
	.cfi_startproc
	.issue_mode dual
	{
		nop
		dualentsp 18
	}
.Ltmp461:
	.cfi_def_cfa_offset 72
.Ltmp462:
	.cfi_offset 15, 0
	std r5, r4, sp[5]
.Ltmp463:
	.cfi_offset 4, -32
.Ltmp464:
	.cfi_offset 5, -28
	std r7, r6, sp[6]
.Ltmp465:
	.cfi_offset 6, -24
.Ltmp466:
	.cfi_offset 7, -20
	std r9, r8, sp[7]
.Ltmp467:
	.cfi_offset 8, -16
.Ltmp468:
	.cfi_offset 9, -12
	{
		nop
		stw r10, sp[16]
	}
.Ltmp469:
	.cfi_offset 10, -8
	{
		nop
		stw r3, sp[9]
	}
	{
		nop
		stw r1, sp[6]
	}
.Ltmp470:
	{
		nop
		stw r0, sp[5]
	}
.Ltmp471:
	ldw r4, cp[.LCPI15_0]
	{
		ldc r8, 0
		mkmsk r5, 1
	}
	ldw r10, cp[.LCPI15_1]
	ldw r6, cp[.LCPI15_2]
.Ltmp472:
.LBB15_1:
	{
		mov r7, r2
		nop
	}
	.loc	4 262 6 prologue_end
.Ltmp473:
	{
		mov r0, r7
		mov r1, r8
	}
	bl __lesf2
	{
		lss r0, r0, r5
		mov r2, r4
	}
	bt r0, .LBB15_1
.Ltmp474:
	.loc	4 264 11
	{
		mov r0, r7
		mov r1, r6
	}
	bl __gesf2
	ashr r0, r0, 32
	{
		mov r2, r10
		nop
	}
	bf r0, .LBB15_1
.Ltmp475:
	.loc	4 266 11
	{
		mov r0, r7
		mov r1, r8
	}
	bl __lesf2
	{
		lss r9, r0, r5
		mov r0, r7
	}
	{
		mov r1, r8
		nop
	}
	bl __unordsf2
	{
		eq r0, r0, 0
		nop
	}
	{
		eq r0, r0, 0
		nop
	}
	{
		or r0, r0, r9
		nop
	}
	ldw r2, cp[.LCPI15_3]
	bt r0, .LBB15_1
.Ltmp476:
	{
		mov r0, r7
		mov r1, r6
	}
	bl __gesf2
	ashr r0, r0, 32
	{
		eq r9, r0, 0
		mov r0, r7
	}
	{
		mov r1, r6
		nop
	}
	bl __unordsf2
	{
		eq r0, r0, 0
		nop
	}
	{
		eq r0, r0, 0
		nop
	}
	{
		or r0, r0, r9
		nop
	}
	ldw r2, cp[.LCPI15_3]
	bt r0, .LBB15_1
.Ltmp477:
	{
		nop
		ldw r0, sp[6]
	}
.Ltmp478:
	.loc	4 258 2
	bl __floatsisf
	{
		mov r4, r0
		ldw r1, sp[9]
	}
	.loc	4 258 2
	bl __mulsf3
	.loc	4 258 2
	bl __fixsfsi
	{
		mov r10, r0
		nop
	}
	.loc	4 259 2
	{
		mov r0, r4
		stw r10, sp[3]
	}
	{
		nop
		ldw r1, sp[19]
	}
	bl __mulsf3
	.loc	4 259 2
	bl __fixsfsi
	{
		mov r9, r0
		nop
	}
	{
		nop
		stw r9, sp[4]
	}
	ldw r1, cp[.LCPI15_3]
	.loc	4 272 3
.Ltmp479:
	{
		mov r0, r7
		nop
	}
	bl __mulsf3
	{
		mov r4, r0
		mov r0, r10
	}
	.loc	4 272 3
	bl __floatsisf
	.loc	4 272 3
	{
		mov r1, r4
		nop
	}
	bl __mulsf3
	.loc	4 272 3
	bl __fixsfsi
.Ltmp480:
	{
		mov r10, r0
		ldw r1, sp[6]
	}
.Ltmp481:
	.loc	4 273 3
	{
		sub r0, r1, r9
		mov r9, r1
	}
.Ltmp482:
	.loc	4 273 3
	bl __floatsisf
	.loc	4 273 3
	{
		mov r1, r4
		nop
	}
	bl __mulsf3
	.loc	4 273 3
	bl __fixsfsi
.Ltmp483:
	{
		mov r7, r0
		lss r0, r10, r5
	}
	bt r0, .LBB15_12
.Ltmp484:
	{
		lss r0, r9, r5
		nop
	}
	bt r0, .LBB15_12
.Ltmp485:
	.loc	4 276 43
	{
		mov r0, r10
		nop
	}
	bl __floatsidf
.Ltmp486:
	.loc	4 275 3
	{
		neg r11, r10
		neg r2, r9
	}
	{
		lsu r3, r2, r11
		nop
	}
	bt r3, .LBB15_9
.Ltmp487:
	{
		mov r11, r2
		nop
	}
.Ltmp488:
.LBB15_9:
	.loc	4 275 3
	{
		not r2, r11
		stw r11, sp[2]
	}
	{
		ldc r9, 0
		stw r2, sp[9]
	}
	ldw r4, cp[.LCPI15_3]
	{
		nop
		ldw r8, sp[5]
	}
	{
		nop
		stw r0, sp[8]
	}
	{
		nop
		stw r1, sp[7]
	}
.Ltmp489:
.LBB15_10:
	.loc	4 276 43
	{
		add r5, r9, 1
		nop
	}
	.loc	4 276 43
	{
		mov r0, r5
		nop
	}
	bl __floatsidf
	ldw r2, cp[.LCPI15_4]
	ldw r3, cp[.LCPI15_5]
	.loc	4 276 43
	bl __muldf3
	{
		nop
		ldw r2, sp[8]
	}
	{
		nop
		ldw r3, sp[7]
	}
	.loc	4 276 43
	bl __divdf3
	.loc	4 276 43
	bl __truncdfsf2
	.loc	4 276 43
	bl cosf
	.loc	4 276 43
	{
		mov r1, r4
		nop
	}
	bl __mulsf3
	{
		mov r1, r0
		mov r0, r4
	}
	.loc	4 276 43
	bl __subsf3
	.loc	4 276 43
	stw r0, r8[r9]
	{
		nop
		ldw r0, sp[9]
	}
	.loc	4 275 3
	{
		eq r0, r9, r0
		mov r9, r5
	}
	.loc	4 275 3
	bf r0, .LBB15_10
.Ltmp490:
	{
		nop
		ldw r0, sp[2]
	}
.Ltmp491:
	.loc	4 275 3
	{
		neg r8, r0
		ldw r9, sp[6]
	}
.Ltmp492:
.LBB15_12:
	{
		nop
		ldw r4, sp[3]
	}
	.loc	4 277 3
.Ltmp493:
	{
		sub r0, r4, r10
		nop
	}
	.loc	4 277 3
	{
		lss r0, r8, r0
		nop
	}
	bf r0, .LBB15_13
.Ltmp494:
	{
		lss r0, r8, r9
		ldw r3, sp[5]
	}
	bf r0, .LBB15_20
.Ltmp495:
	.loc	4 277 3
	{
		add r0, r8, r10
		nop
	}
	.loc	4 277 3
	{
		sub r0, r0, r4
		sub r1, r8, r9
	}
	{
		lsu r2, r1, r0
		nop
	}
	bt r2, .LBB15_17
.Ltmp496:
	{
		mov r0, r1
		nop
	}
.Ltmp497:
.LBB15_17:
	.loc	4 277 3
	{
		neg r1, r0
		nop
	}
	ldaw r2, r3[r8]
.Ltmp498:
.LBB15_18:
	.loc	4 278 4
	{
		sub r1, r1, 1
		stw r6, r2[0]
	}
	.loc	4 277 3
	{
		add r2, r2, 4
		nop
	}
	.loc	4 277 3
	bt r1, .LBB15_18
.Ltmp499:
	.loc	4 277 3
	{
		sub r8, r8, r0
		nop
	}
.Ltmp500:
	bu .LBB15_20
.Ltmp501:
.LBB15_13:
	{
		nop
		ldw r3, sp[5]
	}
.Ltmp502:
.LBB15_20:
	.loc	4 279 3
	{
		lss r0, r8, r4
		nop
	}
	bf r0, .LBB15_27
.Ltmp503:
	{
		lss r0, r8, r9
		nop
	}
	bf r0, .LBB15_27
.Ltmp504:
	.loc	4 280 43
	{
		mov r0, r10
		nop
	}
	bl __floatsidf
	{
		mov r2, r0
		sub r11, r8, r4
	}
	.loc	4 279 3
	{
		sub r0, r8, r9
		nop
	}
.Ltmp505:
	{
		lsu r3, r0, r11
		nop
	}
	bt r3, .LBB15_24
.Ltmp506:
	{
		mov r11, r0
		nop
	}
.Ltmp507:
.LBB15_24:
	.loc	4 279 3
	{
		neg r6, r11
		stw r11, sp[8]
	}
	{
		nop
		ldw r0, sp[5]
	}
	ldaw r9, r0[r8]
	ldw r5, cp[.LCPI15_3]
	{
		mov r4, r1
		stw r2, sp[9]
	}
.Ltmp508:
.LBB15_25:
	.loc	4 280 43
	{
		mov r0, r10
		nop
	}
	bl __floatsidf
	ldw r2, cp[.LCPI15_4]
	ldw r3, cp[.LCPI15_5]
	.loc	4 280 43
	bl __muldf3
	.loc	4 280 43
	{
		mov r3, r4
		ldw r2, sp[9]
	}
	bl __divdf3
	.loc	4 280 43
	bl __truncdfsf2
	.loc	4 280 43
	bl cosf
	.loc	4 280 43
	{
		mov r1, r5
		nop
	}
	bl __mulsf3
	{
		mov r1, r0
		mov r0, r5
	}
	.loc	4 280 43
	bl __subsf3
.Ltmp509:
	.loc	4 280 43
	{
		sub r10, r10, 1
		stw r0, r9[0]
	}
.Ltmp510:
	.loc	4 279 3
	{
		sub r6, r6, 1
		add r9, r9, 4
	}
	.loc	4 279 3
	bt r6, .LBB15_25
.Ltmp511:
	{
		nop
		ldw r0, sp[8]
	}
.Ltmp512:
	.loc	4 279 3
	{
		sub r8, r8, r0
		ldw r3, sp[5]
	}
.Ltmp513:
	{
		nop
		ldw r9, sp[6]
	}
.Ltmp514:
	ldw r6, cp[.LCPI15_2]
.Ltmp515:
.LBB15_27:
	{
		nop
		ldw r5, sp[4]
	}
	.loc	4 281 3
.Ltmp516:
	{
		lss r0, r8, r5
		nop
	}
	bf r0, .LBB15_28
.Ltmp517:
	{
		lss r0, r8, r9
		nop
	}
	bf r0, .LBB15_30
.Ltmp518:
	.loc	4 281 3
	{
		sub r4, r8, r5
		sub r0, r8, r9
	}
	{
		lsu r1, r0, r4
		nop
	}
	bt r1, .LBB15_33
.Ltmp519:
	{
		mov r4, r0
		nop
	}
.Ltmp520:
.LBB15_33:
	ldaw r0, r3[r8]
	{
		mov r10, r3
		ldc r1, 0
	}
	.loc	4 281 3
	ldaw r2, r1[-r4]
	.loc	4 282 4
	bl memset
	.loc	4 281 3
	{
		sub r8, r8, r4
		nop
	}
	bu .LBB15_34
.Ltmp521:
.LBB15_28:
	{
		mov r10, r3
		nop
	}
	bu .LBB15_34
.Ltmp522:
.LBB15_30:
	{
		mov r10, r3
		nop
	}
.Ltmp523:
.LBB15_34:
	.loc	4 283 3
	{
		add r0, r7, r5
		nop
	}
	.loc	4 283 3
	{
		lss r0, r8, r0
		nop
	}
	bf r0, .LBB15_35
.Ltmp524:
	{
		lss r0, r8, r9
		nop
	}
	bf r0, .LBB15_37
.Ltmp525:
	.loc	4 284 43
	{
		mov r0, r7
		nop
	}
	bl __floatsidf
	.loc	4 283 3
	{
		sub r2, r8, r7
		nop
	}
.Ltmp526:
	.loc	4 283 3
	{
		sub r11, r2, r5
		sub r2, r8, r9
	}
	{
		lsu r3, r2, r11
		nop
	}
	bt r3, .LBB15_40
.Ltmp527:
	{
		mov r11, r2
		nop
	}
.Ltmp528:
.LBB15_40:
	.loc	4 283 3
	{
		neg r2, r11
		stw r11, sp[7]
	}
	{
		nop
		stw r2, sp[9]
	}
	ldaw r2, r10[r8]
	{
		ldc r10, 0
		stw r2, sp[8]
	}
	ldw r4, cp[.LCPI15_3]
	{
		mov r6, r0
		mov r5, r1
	}
.Ltmp529:
.LBB15_41:
	.loc	4 284 43
	{
		add r9, r10, 1
		nop
	}
	.loc	4 284 43
	{
		mov r0, r9
		nop
	}
	bl __floatsidf
	ldw r2, cp[.LCPI15_4]
	ldw r3, cp[.LCPI15_5]
	.loc	4 284 43
	bl __muldf3
	.loc	4 284 43
	{
		mov r2, r6
		mov r3, r5
	}
	bl __divdf3
	.loc	4 284 43
	bl __truncdfsf2
	.loc	4 284 43
	bl cosf
	.loc	4 284 43
	{
		mov r1, r4
		nop
	}
	bl __mulsf3
	{
		mov r1, r0
		mov r0, r4
	}
	.loc	4 284 43
	bl __subsf3
	{
		nop
		ldw r1, sp[8]
	}
	.loc	4 284 43
	stw r0, r1[r10]
	{
		nop
		ldw r0, sp[9]
	}
	.loc	4 283 3
	{
		eq r0, r0, r9
		mov r10, r9
	}
	.loc	4 283 3
	bf r0, .LBB15_41
.Ltmp530:
	{
		nop
		ldw r0, sp[7]
	}
.Ltmp531:
	.loc	4 283 3
	{
		sub r8, r8, r0
		ldw r3, sp[5]
	}
.Ltmp532:
	{
		nop
		ldw r9, sp[6]
	}
.Ltmp533:
	ldw r6, cp[.LCPI15_2]
	bu .LBB15_43
.Ltmp534:
.LBB15_35:
	{
		mov r3, r10
		nop
	}
	bu .LBB15_43
.Ltmp535:
.LBB15_37:
	{
		mov r3, r10
		nop
	}
.Ltmp536:
.LBB15_43:
	.loc	4 285 3
	{
		sub r0, r9, r7
		nop
	}
	.loc	4 285 3
	{
		lss r0, r8, r0
		nop
	}
	bf r0, .LBB15_44
.Ltmp537:
	{
		lss r0, r8, r9
		nop
	}
	bf r0, .LBB15_46
.Ltmp538:
	.loc	4 285 3
	{
		add r0, r8, r7
		nop
	}
	.loc	4 285 3
	{
		sub r0, r0, r9
		sub r1, r8, r9
	}
	{
		lsu r2, r1, r0
		nop
	}
	bt r2, .LBB15_49
.Ltmp539:
	{
		mov r0, r1
		nop
	}
.Ltmp540:
.LBB15_49:
	.loc	4 285 3
	{
		neg r1, r0
		nop
	}
	ldaw r2, r3[r8]
.Ltmp541:
.LBB15_50:
	.loc	4 286 4
	{
		sub r1, r1, 1
		stw r6, r2[0]
	}
	.loc	4 285 3
	{
		add r2, r2, 4
		nop
	}
	.loc	4 285 3
	bt r1, .LBB15_50
.Ltmp542:
	{
		mov r4, r3
		sub r8, r8, r0
	}
.Ltmp543:
	bu .LBB15_52
.Ltmp544:
.LBB15_44:
	{
		mov r4, r3
		nop
	}
	bu .LBB15_52
.Ltmp545:
.LBB15_46:
	{
		mov r4, r3
		nop
	}
.Ltmp546:
.LBB15_52:
	.loc	4 287 3
	{
		lss r0, r8, r9
		nop
	}
	bf r0, .LBB15_55
.Ltmp547:
	.loc	4 288 43
	{
		mov r0, r7
		nop
	}
	bl __floatsidf
.Ltmp548:
	{
		mov r5, r0
		mov r0, r9
	}
.Ltmp549:
	{
		mov r6, r1
		sub r10, r0, r8
	}
	ldaw r4, r4[r8]
	ldw r8, cp[.LCPI15_5]
	ldw r9, cp[.LCPI15_3]
.LBB15_54:
	.loc	4 288 43
	{
		mov r0, r7
		nop
	}
	bl __floatsidf
	ldw r2, cp[.LCPI15_4]
	.loc	4 288 43
	{
		mov r3, r8
		nop
	}
	bl __muldf3
	.loc	4 288 43
	{
		mov r2, r5
		mov r3, r6
	}
	bl __divdf3
	.loc	4 288 43
	bl __truncdfsf2
	.loc	4 288 43
	bl cosf
	.loc	4 288 43
	{
		mov r1, r9
		nop
	}
	bl __mulsf3
	{
		mov r1, r0
		mov r0, r9
	}
	.loc	4 288 43
	bl __subsf3
.Ltmp550:
	.loc	4 288 43
	{
		sub r7, r7, 1
		stw r0, r4[0]
	}
.Ltmp551:
	.loc	4 287 3
	{
		sub r10, r10, 1
		add r4, r4, 4
	}
	bt r10, .LBB15_54
.Ltmp552:
.LBB15_55:
	{
		nop
		ldw r10, sp[16]
	}
	.loc	4 290 1
	ldd r9, r8, sp[7]
	ldd r7, r6, sp[6]
	ldd r5, r4, sp[5]
	{
		nop
		retsp 18
	}
	# RETURN_REG_HOLDER
.Ltmp553:
	.cc_bottom FLAC__window_punchout_tukey.function
	.set	FLAC__window_punchout_tukey.nstackwords,((__lesf2.nstackwords $M __gesf2.nstackwords $M __unordsf2.nstackwords $M __floatsisf.nstackwords $M __fixsfsi.nstackwords $M memset.nstackwords $M __floatsidf.nstackwords $M __muldf3.nstackwords $M __divdf3.nstackwords $M __truncdfsf2.nstackwords $M cosf.nstackwords $M __mulsf3.nstackwords $M __subsf3.nstackwords) + 18)
	.globl	FLAC__window_punchout_tukey.nstackwords
	.set	FLAC__window_punchout_tukey.maxcores,cosf.maxcores $M 1
	.globl	FLAC__window_punchout_tukey.maxcores
	.set	FLAC__window_punchout_tukey.maxtimers,cosf.maxtimers $M 0
	.globl	FLAC__window_punchout_tukey.maxtimers
	.set	FLAC__window_punchout_tukey.maxchanends,cosf.maxchanends $M 0
	.globl	FLAC__window_punchout_tukey.maxchanends
.Ltmp554:
	.size	FLAC__window_punchout_tukey, .Ltmp554-FLAC__window_punchout_tukey
.Lfunc_end15:
	.cfi_endproc

	.section	.cp.rodata.cst4,"aMc",@progbits,4
	.cc_top .LCPI16_0.data,.LCPI16_0
	.align	4
	.type	.LCPI16_0,@object
	.size	.LCPI16_0, 4
.LCPI16_0:
	.long	1071644672
	.cc_bottom .LCPI16_0.data
	.cc_top .LCPI16_1.data,.LCPI16_1
	.align	4
	.type	.LCPI16_1,@object
	.size	.LCPI16_1, 4
.LCPI16_1:
	.long	1072693248
	.cc_bottom .LCPI16_1.data
	.text
	.globl	FLAC__window_welch
	.align	4
	.type	FLAC__window_welch,@function
	.cc_top FLAC__window_welch.function,FLAC__window_welch
FLAC__window_welch:
.Lfunc_begin16:
	.loc	4 293 0
	.cfi_startproc
	.issue_mode dual
	{
		nop
		dualentsp 10
	}
.Ltmp555:
	.cfi_def_cfa_offset 40
.Ltmp556:
	.cfi_offset 15, 0
	std r5, r4, sp[1]
.Ltmp557:
	.cfi_offset 4, -32
.Ltmp558:
	.cfi_offset 5, -28
	std r7, r6, sp[2]
.Ltmp559:
	.cfi_offset 6, -24
.Ltmp560:
	.cfi_offset 7, -20
	std r9, r8, sp[3]
.Ltmp561:
	.cfi_offset 8, -16
.Ltmp562:
	.cfi_offset 9, -12
.Ltmp563:
	.cfi_offset 10, -8
.Ltmp564:
	{
		mov r9, r1
		stw r10, sp[8]
	}
.Ltmp565:
	{
		mov r4, r0
		sub r5, r9, 1
	}
.Ltmp566:
	.loc	4 295 2 prologue_end
	{
		mov r0, r5
		nop
	}
	bl __floatsidf
	{
		ldc r6, 0
		nop
	}
	ldw r3, cp[.LCPI16_0]
	.loc	4 295 2
	{
		mov r2, r6
		nop
	}
	bl __muldf3
	{
		mov r7, r0
		mov r8, r1
	}
	{
		mkmsk r0, 1
		nop
	}
.Ltmp567:
	.loc	4 298 2
	{
		lss r0, r9, r0
		nop
	}
	bt r0, .LBB16_3
.Ltmp568:
	{
		ldc r9, 0
		nop
	}
	ldw r10, cp[.LCPI16_1]
.Ltmp569:
.LBB16_2:
	.loc	4 299 3
	{
		mov r0, r6
		nop
	}
	bl __floatsidf
	.loc	4 299 3
	{
		mov r2, r7
		mov r3, r8
	}
	bl __subdf3
	.loc	4 299 3
	{
		mov r2, r7
		mov r3, r8
	}
	bl __divdf3
	.loc	4 300 3
	{
		mov r2, r0
		mov r3, r1
	}
	bl __muldf3
	{
		mov r2, r0
		mov r3, r1
	}
	.loc	4 300 3
	{
		mov r0, r9
		mov r1, r10
	}
	bl __subdf3
	.loc	4 300 3
	bl __truncdfsf2
	.loc	4 300 3
	stw r0, r4[r6]
.Ltmp570:
	.loc	4 298 22
	{
		add r0, r6, 1
		lss r1, r6, r5
	}
.Ltmp571:
	{
		mov r6, r0
		nop
	}
.Ltmp572:
	bt r1, .LBB16_2
.Ltmp573:
.LBB16_3:
	{
		nop
		ldw r10, sp[8]
	}
	.loc	4 302 1
	ldd r9, r8, sp[3]
	ldd r7, r6, sp[2]
	ldd r5, r4, sp[1]
	{
		nop
		retsp 10
	}
	# RETURN_REG_HOLDER
.Ltmp574:
	.cc_bottom FLAC__window_welch.function
	.set	FLAC__window_welch.nstackwords,((__floatsidf.nstackwords $M __divdf3.nstackwords $M __muldf3.nstackwords $M __subdf3.nstackwords $M __truncdfsf2.nstackwords) + 10)
	.globl	FLAC__window_welch.nstackwords
	.set	FLAC__window_welch.maxcores,1
	.globl	FLAC__window_welch.maxcores
	.set	FLAC__window_welch.maxtimers,0
	.globl	FLAC__window_welch.maxtimers
	.set	FLAC__window_welch.maxchanends,0
	.globl	FLAC__window_welch.maxchanends
.Ltmp575:
	.size	FLAC__window_welch, .Ltmp575-FLAC__window_welch
.Lfunc_end16:
	.cfi_endproc

.Ldebug_end0:
	.section	.trap_info,"",@progbits
.Ltrap_info_entries_start0:
	.long	.Ltrap_info_entries_end0-.Ltrap_info_entries_start0
	.long	1
.Ltrap_info_entries_end0: