	.text
	.file	"xcore_c_chan.c"
	.text
	.globl	_s_chanend_alloc
	.align	4
	.type	_s_chanend_alloc,@function
	.cc_top _s_chanend_alloc.function,_s_chanend_alloc
_s_chanend_alloc:
.Lfunc_begin0:
	.file	6 "C:/Users/takaaki/git/lib_xcore_c/lib_xcore_c/src\\xcore_c_chan_impl.h"
	.loc	6 48 0
	.cfi_startproc
	.issue_mode dual
	{
		nop
		dualentsp 0
	}
	.loc	6 50 3 prologue_end
.Ltmp0:
	#APP
	getr r0, 0x2
	#NO_APP
.Ltmp1:
	{
		nop
		retsp 0
	}
	.loc	6 51 3
	# RETURN_REG_HOLDER
.Ltmp2:
	.cc_bottom _s_chanend_alloc.function
	.set	_s_chanend_alloc.nstackwords,0
	.globl	_s_chanend_alloc.nstackwords
	.set	_s_chanend_alloc.maxcores,1
	.globl	_s_chanend_alloc.maxcores
	.set	_s_chanend_alloc.maxtimers,0
	.globl	_s_chanend_alloc.maxtimers
	.set	_s_chanend_alloc.maxchanends,0
	.globl	_s_chanend_alloc.maxchanends
.Ltmp3:
	.size	_s_chanend_alloc, .Ltmp3-_s_chanend_alloc
.Lfunc_end0:
	.cfi_endproc

	.globl	_s_chanend_free
	.align	4
	.type	_s_chanend_free,@function
	.cc_top _s_chanend_free.function,_s_chanend_free
_s_chanend_free:
.Lfunc_begin1:
	.loc	6 55 0
	.cfi_startproc
	.issue_mode dual
	{
		nop
		dualentsp 0
	}
.Ltmp4:
	.loc	5 76 3 prologue_end
	#APP
	freer res[r0]
	#NO_APP
	{
		nop
		retsp 0
	}
.Ltmp5:
	.loc	6 57 1
	# RETURN_REG_HOLDER
.Ltmp6:
	.cc_bottom _s_chanend_free.function
	.set	_s_chanend_free.nstackwords,0
	.globl	_s_chanend_free.nstackwords
	.set	_s_chanend_free.maxcores,1
	.globl	_s_chanend_free.maxcores
	.set	_s_chanend_free.maxtimers,0
	.globl	_s_chanend_free.maxtimers
	.set	_s_chanend_free.maxchanends,0
	.globl	_s_chanend_free.maxchanends
.Ltmp7:
	.size	_s_chanend_free, .Ltmp7-_s_chanend_free
.Lfunc_end1:
	.cfi_endproc

	.globl	_s_chanend_set_dest
	.align	4
	.type	_s_chanend_set_dest,@function
	.cc_top _s_chanend_set_dest.function,_s_chanend_set_dest
_s_chanend_set_dest:
.Lfunc_begin2:
	.loc	6 60 0
	.cfi_startproc
	.issue_mode dual
	{
		nop
		dualentsp 0
	}
	.loc	6 61 3 prologue_end
.Ltmp8:
	#APP
	setd res[r0], r1
	#NO_APP
	{
		nop
		retsp 0
	}
	.loc	6 62 1
	# RETURN_REG_HOLDER
.Ltmp9:
	.cc_bottom _s_chanend_set_dest.function
	.set	_s_chanend_set_dest.nstackwords,0
	.globl	_s_chanend_set_dest.nstackwords
	.set	_s_chanend_set_dest.maxcores,1
	.globl	_s_chanend_set_dest.maxcores
	.set	_s_chanend_set_dest.maxtimers,0
	.globl	_s_chanend_set_dest.maxtimers
	.set	_s_chanend_set_dest.maxchanends,0
	.globl	_s_chanend_set_dest.maxchanends
.Ltmp10:
	.size	_s_chanend_set_dest, .Ltmp10-_s_chanend_set_dest
.Lfunc_end2:
	.cfi_endproc

	.globl	_s_chan_out_word
	.align	4
	.type	_s_chan_out_word,@function
	.cc_top _s_chan_out_word.function,_s_chan_out_word
_s_chan_out_word:
.Lfunc_begin3:
	.loc	6 66 0
	.cfi_startproc
	.issue_mode dual
	{
		nop
		dualentsp 0
	}
	.loc	6 67 3 prologue_end
.Ltmp11:
	#APP
	out res[r0], r1
	#NO_APP
	{
		nop
		retsp 0
	}
	.loc	6 68 1
	# RETURN_REG_HOLDER
.Ltmp12:
	.cc_bottom _s_chan_out_word.function
	.set	_s_chan_out_word.nstackwords,0
	.globl	_s_chan_out_word.nstackwords
	.set	_s_chan_out_word.maxcores,1
	.globl	_s_chan_out_word.maxcores
	.set	_s_chan_out_word.maxtimers,0
	.globl	_s_chan_out_word.maxtimers
	.set	_s_chan_out_word.maxchanends,0
	.globl	_s_chan_out_word.maxchanends
.Ltmp13:
	.size	_s_chan_out_word, .Ltmp13-_s_chan_out_word
.Lfunc_end3:
	.cfi_endproc

	.globl	_s_chan_out_byte
	.align	4
	.type	_s_chan_out_byte,@function
	.cc_top _s_chan_out_byte.function,_s_chan_out_byte
_s_chan_out_byte:
.Lfunc_begin4:
	.loc	6 71 0
	.cfi_startproc
	.issue_mode dual
	{
		nop
		dualentsp 0
	}
	.loc	6 72 3 prologue_end
.Ltmp14:
	#APP
	outt res[r0], r1
	#NO_APP
	{
		nop
		retsp 0
	}
	.loc	6 73 1
	# RETURN_REG_HOLDER
.Ltmp15:
	.cc_bottom _s_chan_out_byte.function
	.set	_s_chan_out_byte.nstackwords,0
	.globl	_s_chan_out_byte.nstackwords
	.set	_s_chan_out_byte.maxcores,1
	.globl	_s_chan_out_byte.maxcores
	.set	_s_chan_out_byte.maxtimers,0
	.globl	_s_chan_out_byte.maxtimers
	.set	_s_chan_out_byte.maxchanends,0
	.globl	_s_chan_out_byte.maxchanends
.Ltmp16:
	.size	_s_chan_out_byte, .Ltmp16-_s_chan_out_byte
.Lfunc_end4:
	.cfi_endproc

	.globl	_s_chan_in_word
	.align	4
	.type	_s_chan_in_word,@function
	.cc_top _s_chan_in_word.function,_s_chan_in_word
_s_chan_in_word:
.Lfunc_begin5:
	.loc	6 76 0
	.cfi_startproc
	.issue_mode dual
	{
		nop
		dualentsp 0
	}
	.loc	6 78 3 prologue_end
.Ltmp17:
	#APP
	in r0, res[r0]
	#NO_APP
.Ltmp18:
	{
		nop
		retsp 0
	}
	.loc	6 79 3
	# RETURN_REG_HOLDER
.Ltmp19:
	.cc_bottom _s_chan_in_word.function
	.set	_s_chan_in_word.nstackwords,0
	.globl	_s_chan_in_word.nstackwords
	.set	_s_chan_in_word.maxcores,1
	.globl	_s_chan_in_word.maxcores
	.set	_s_chan_in_word.maxtimers,0
	.globl	_s_chan_in_word.maxtimers
	.set	_s_chan_in_word.maxchanends,0
	.globl	_s_chan_in_word.maxchanends
.Ltmp20:
	.size	_s_chan_in_word, .Ltmp20-_s_chan_in_word
.Lfunc_end5:
	.cfi_endproc

	.globl	_s_chan_in_byte
	.align	4
	.type	_s_chan_in_byte,@function
	.cc_top _s_chan_in_byte.function,_s_chan_in_byte
_s_chan_in_byte:
.Lfunc_begin6:
	.loc	6 83 0
	.cfi_startproc
	.issue_mode dual
	{
		nop
		dualentsp 0
	}
	.loc	6 85 3 prologue_end
.Ltmp21:
	#APP
	int r0, res[r0]
	#NO_APP
.Ltmp22:
	.loc	6 86 3
	{
		zext r0, 8
		retsp 0
	}
	# RETURN_REG_HOLDER
.Ltmp23:
	.cc_bottom _s_chan_in_byte.function
	.set	_s_chan_in_byte.nstackwords,0
	.globl	_s_chan_in_byte.nstackwords
	.set	_s_chan_in_byte.maxcores,1
	.globl	_s_chan_in_byte.maxcores
	.set	_s_chan_in_byte.maxtimers,0
	.globl	_s_chan_in_byte.maxtimers
	.set	_s_chan_in_byte.maxchanends,0
	.globl	_s_chan_in_byte.maxchanends
.Ltmp24:
	.size	_s_chan_in_byte, .Ltmp24-_s_chan_in_byte
.Lfunc_end6:
	.cfi_endproc

	.globl	_s_chan_out_ct
	.align	4
	.type	_s_chan_out_ct,@function
	.cc_top _s_chan_out_ct.function,_s_chan_out_ct
_s_chan_out_ct:
.Lfunc_begin7:
	.loc	6 90 0
	.cfi_startproc
	.issue_mode dual
	{
		nop
		dualentsp 0
	}
	.loc	6 91 3 prologue_end
.Ltmp25:
	#APP
	outct res[r0], r1
	#NO_APP
	{
		nop
		retsp 0
	}
	.loc	6 92 1
	# RETURN_REG_HOLDER
.Ltmp26:
	.cc_bottom _s_chan_out_ct.function
	.set	_s_chan_out_ct.nstackwords,0
	.globl	_s_chan_out_ct.nstackwords
	.set	_s_chan_out_ct.maxcores,1
	.globl	_s_chan_out_ct.maxcores
	.set	_s_chan_out_ct.maxtimers,0
	.globl	_s_chan_out_ct.maxtimers
	.set	_s_chan_out_ct.maxchanends,0
	.globl	_s_chan_out_ct.maxchanends
.Ltmp27:
	.size	_s_chan_out_ct, .Ltmp27-_s_chan_out_ct
.Lfunc_end7:
	.cfi_endproc

	.globl	_s_chan_out_ct_end
	.align	4
	.type	_s_chan_out_ct_end,@function
	.cc_top _s_chan_out_ct_end.function,_s_chan_out_ct_end
_s_chan_out_ct_end:
.Lfunc_begin8:
	.loc	6 95 0
	.cfi_startproc
	.issue_mode dual
	{
		nop
		dualentsp 0
	}
	.loc	6 96 3 prologue_end
.Ltmp28:
	#APP
	outct res[r0], 0x1
	#NO_APP
	{
		nop
		retsp 0
	}
	.loc	6 97 1
	# RETURN_REG_HOLDER
.Ltmp29:
	.cc_bottom _s_chan_out_ct_end.function
	.set	_s_chan_out_ct_end.nstackwords,0
	.globl	_s_chan_out_ct_end.nstackwords
	.set	_s_chan_out_ct_end.maxcores,1
	.globl	_s_chan_out_ct_end.maxcores
	.set	_s_chan_out_ct_end.maxtimers,0
	.globl	_s_chan_out_ct_end.maxtimers
	.set	_s_chan_out_ct_end.maxchanends,0
	.globl	_s_chan_out_ct_end.maxchanends
.Ltmp30:
	.size	_s_chan_out_ct_end, .Ltmp30-_s_chan_out_ct_end
.Lfunc_end8:
	.cfi_endproc

	.globl	_s_chan_check_ct
	.align	4
	.type	_s_chan_check_ct,@function
	.cc_top _s_chan_check_ct.function,_s_chan_check_ct
_s_chan_check_ct:
.Lfunc_begin9:
	.loc	6 100 0
	.cfi_startproc
	.issue_mode dual
	{
		nop
		dualentsp 0
	}
	.loc	6 101 3 prologue_end
.Ltmp31:
	#APP
	chkct res[r0], r1
	#NO_APP
	{
		nop
		retsp 0
	}
	.loc	6 102 1
	# RETURN_REG_HOLDER
.Ltmp32:
	.cc_bottom _s_chan_check_ct.function
	.set	_s_chan_check_ct.nstackwords,0
	.globl	_s_chan_check_ct.nstackwords
	.set	_s_chan_check_ct.maxcores,1
	.globl	_s_chan_check_ct.maxcores
	.set	_s_chan_check_ct.maxtimers,0
	.globl	_s_chan_check_ct.maxtimers
	.set	_s_chan_check_ct.maxchanends,0
	.globl	_s_chan_check_ct.maxchanends
.Ltmp33:
	.size	_s_chan_check_ct, .Ltmp33-_s_chan_check_ct
.Lfunc_end9:
	.cfi_endproc

	.globl	_s_chan_check_ct_end
	.align	4
	.type	_s_chan_check_ct_end,@function
	.cc_top _s_chan_check_ct_end.function,_s_chan_check_ct_end
_s_chan_check_ct_end:
.Lfunc_begin10:
	.loc	6 105 0
	.cfi_startproc
	.issue_mode dual
	{
		nop
		dualentsp 0
	}
	.loc	6 106 3 prologue_end
.Ltmp34:
	#APP
	chkct res[r0], 0x1
	#NO_APP
	{
		nop
		retsp 0
	}
	.loc	6 107 1
	# RETURN_REG_HOLDER
.Ltmp35:
	.cc_bottom _s_chan_check_ct_end.function
	.set	_s_chan_check_ct_end.nstackwords,0
	.globl	_s_chan_check_ct_end.nstackwords
	.set	_s_chan_check_ct_end.maxcores,1
	.globl	_s_chan_check_ct_end.maxcores
	.set	_s_chan_check_ct_end.maxtimers,0
	.globl	_s_chan_check_ct_end.maxtimers
	.set	_s_chan_check_ct_end.maxchanends,0
	.globl	_s_chan_check_ct_end.maxchanends
.Ltmp36:
	.size	_s_chan_check_ct_end, .Ltmp36-_s_chan_check_ct_end
.Lfunc_end10:
	.cfi_endproc

	.globl	_t_chan_change_to_input
	.align	4
	.type	_t_chan_change_to_input,@function
	.cc_top _t_chan_change_to_input.function,_t_chan_change_to_input
_t_chan_change_to_input:
.Lfunc_begin11:
	.loc	6 114 0
	.cfi_startproc
	.issue_mode dual
	{
		nop
		dualentsp 0
	}
	{
		nop
		ldw r1, r0[1]
	}
	bf r1, .LBB11_2
	{
		nop
		ldw r1, r0[0]
	}
.Ltmp37:
	.loc	6 96 3 prologue_end
	#APP
	outct res[r1], 0x1
	#NO_APP
	{
		ldc r1, 0
		nop
	}
.Ltmp38:
	{
		nop
		stw r1, r0[1]
	}
.Ltmp39:
.LBB11_2:
	{
		nop
		retsp 0
	}
	.loc	6 119 1
	# RETURN_REG_HOLDER
.Ltmp40:
	.cc_bottom _t_chan_change_to_input.function
	.set	_t_chan_change_to_input.nstackwords,0
	.globl	_t_chan_change_to_input.nstackwords
	.set	_t_chan_change_to_input.maxcores,1
	.globl	_t_chan_change_to_input.maxcores
	.set	_t_chan_change_to_input.maxtimers,0
	.globl	_t_chan_change_to_input.maxtimers
	.set	_t_chan_change_to_input.maxchanends,0
	.globl	_t_chan_change_to_input.maxchanends
.Ltmp41:
	.size	_t_chan_change_to_input, .Ltmp41-_t_chan_change_to_input
.Lfunc_end11:
	.cfi_endproc

	.globl	_t_chan_change_to_output
	.align	4
	.type	_t_chan_change_to_output,@function
	.cc_top _t_chan_change_to_output.function,_t_chan_change_to_output
_t_chan_change_to_output:
.Lfunc_begin12:
	.loc	6 121 0
	.cfi_startproc
	.issue_mode dual
	{
		nop
		dualentsp 0
	}
	{
		nop
		ldw r1, r0[1]
	}
	bt r1, .LBB12_2
	{
		nop
		ldw r1, r0[0]
	}
.Ltmp42:
	.loc	6 106 3 prologue_end
	#APP
	chkct res[r1], 0x1
	#NO_APP
	{
		mkmsk r1, 1
		nop
	}
.Ltmp43:
	{
		nop
		stw r1, r0[1]
	}
.Ltmp44:
.LBB12_2:
	{
		nop
		retsp 0
	}
	.loc	6 126 1
	# RETURN_REG_HOLDER
.Ltmp45:
	.cc_bottom _t_chan_change_to_output.function
	.set	_t_chan_change_to_output.nstackwords,0
	.globl	_t_chan_change_to_output.nstackwords
	.set	_t_chan_change_to_output.maxcores,1
	.globl	_t_chan_change_to_output.maxcores
	.set	_t_chan_change_to_output.maxtimers,0
	.globl	_t_chan_change_to_output.maxtimers
	.set	_t_chan_change_to_output.maxchanends,0
	.globl	_t_chan_change_to_output.maxchanends
.Ltmp46:
	.size	_t_chan_change_to_output, .Ltmp46-_t_chan_change_to_output
.Lfunc_end12:
	.cfi_endproc

	.globl	s_chanend_alloc
	.align	4
	.type	s_chanend_alloc,@function
	.cc_top s_chanend_alloc.function,s_chanend_alloc
s_chanend_alloc:
.Lfunc_begin13:
	.file	7 "C:/Users/takaaki/git/lib_xcore_c/lib_xcore_c/api\\xcore_c_chanend.h"
	.loc	7 27 0
	.cfi_startproc
	.issue_mode dual
	{
		nop
		dualentsp 0
	}
	.loc	6 50 3 prologue_end
.Ltmp47:
	#APP
	getr r1, 0x2
	#NO_APP
.Ltmp48:
	.loc	7 28 3
	{
		ldc r0, 0
		stw r1, r0[0]
	}
.Ltmp49:
	{
		nop
		retsp 0
	}
.Ltmp50:
	.loc	7 28 3
	# RETURN_REG_HOLDER
.Ltmp51:
	.cc_bottom s_chanend_alloc.function
	.set	s_chanend_alloc.nstackwords,0
	.globl	s_chanend_alloc.nstackwords
	.set	s_chanend_alloc.maxcores,1
	.globl	s_chanend_alloc.maxcores
	.set	s_chanend_alloc.maxtimers,0
	.globl	s_chanend_alloc.maxtimers
	.set	s_chanend_alloc.maxchanends,0
	.globl	s_chanend_alloc.maxchanends
.Ltmp52:
	.size	s_chanend_alloc, .Ltmp52-s_chanend_alloc
.Lfunc_end13:
	.cfi_endproc

	.globl	s_chanend_free
	.align	4
	.type	s_chanend_free,@function
	.cc_top s_chanend_free.function,s_chanend_free
s_chanend_free:
.Lfunc_begin14:
	.loc	7 47 0
	.cfi_startproc
	.issue_mode dual
	{
		nop
		dualentsp 0
	}
	{
		nop
		ldw r1, r0[0]
	}
.Ltmp53:
	.loc	5 76 3 prologue_end
	#APP
	freer res[r1]
	#NO_APP
	{
		ldc r1, 0
		nop
	}
.Ltmp54:
	.loc	7 48 3
	{
		mov r0, r1
		stw r1, r0[0]
	}
.Ltmp55:
	{
		nop
		retsp 0
	}
.Ltmp56:
	.loc	7 48 3
	# RETURN_REG_HOLDER
.Ltmp57:
	.cc_bottom s_chanend_free.function
	.set	s_chanend_free.nstackwords,0
	.globl	s_chanend_free.nstackwords
	.set	s_chanend_free.maxcores,1
	.globl	s_chanend_free.maxcores
	.set	s_chanend_free.maxtimers,0
	.globl	s_chanend_free.maxtimers
	.set	s_chanend_free.maxchanends,0
	.globl	s_chanend_free.maxchanends
.Ltmp58:
	.size	s_chanend_free, .Ltmp58-s_chanend_free
.Lfunc_end14:
	.cfi_endproc

	.globl	s_chanend_set_dest
	.align	4
	.type	s_chanend_set_dest,@function
	.cc_top s_chanend_set_dest.function,s_chanend_set_dest
s_chanend_set_dest:
.Lfunc_begin15:
	.loc	7 66 0
	.cfi_startproc
	.issue_mode dual
	{
		nop
		dualentsp 0
	}
.Ltmp59:
	.loc	6 61 3 prologue_end
	#APP
	setd res[r0], r1
	#NO_APP
	{
		ldc r0, 0
		retsp 0
	}
.Ltmp60:
	.loc	7 67 3
	# RETURN_REG_HOLDER
.Ltmp61:
	.cc_bottom s_chanend_set_dest.function
	.set	s_chanend_set_dest.nstackwords,0
	.globl	s_chanend_set_dest.nstackwords
	.set	s_chanend_set_dest.maxcores,1
	.globl	s_chanend_set_dest.maxcores
	.set	s_chanend_set_dest.maxtimers,0
	.globl	s_chanend_set_dest.maxtimers
	.set	s_chanend_set_dest.maxchanends,0
	.globl	s_chanend_set_dest.maxchanends
.Ltmp62:
	.size	s_chanend_set_dest, .Ltmp62-s_chanend_set_dest
.Lfunc_end15:
	.cfi_endproc

	.globl	s_chanend_convert
	.align	4
	.type	s_chanend_convert,@function
	.cc_top s_chanend_convert.function,s_chanend_convert
s_chanend_convert:
.Lfunc_begin16:
	.loc	7 79 0
	.cfi_startproc
	.issue_mode dual
	{
		nop
		dualentsp 0
	}
	{
		nop
		retsp 0
	}
	.loc	7 80 3 prologue_end
.Ltmp63:
	# RETURN_REG_HOLDER
.Ltmp64:
	.cc_bottom s_chanend_convert.function
	.set	s_chanend_convert.nstackwords,0
	.globl	s_chanend_convert.nstackwords
	.set	s_chanend_convert.maxcores,1
	.globl	s_chanend_convert.maxcores
	.set	s_chanend_convert.maxtimers,0
	.globl	s_chanend_convert.maxtimers
	.set	s_chanend_convert.maxchanends,0
	.globl	s_chanend_convert.maxchanends
.Ltmp65:
	.size	s_chanend_convert, .Ltmp65-s_chanend_convert
.Lfunc_end16:
	.cfi_endproc

	.globl	chanend_alloc
	.align	4
	.type	chanend_alloc,@function
	.cc_top chanend_alloc.function,chanend_alloc
chanend_alloc:
.Lfunc_begin17:
	.loc	7 97 0
	.cfi_startproc
	.issue_mode dual
	{
		nop
		dualentsp 0
	}
.Ltmp66:
	.loc	6 50 3 prologue_end
	#APP
	getr r1, 0x2
	#NO_APP
.Ltmp67:
	.loc	7 28 3
	{
		ldc r0, 0
		stw r1, r0[0]
	}
.Ltmp68:
	{
		nop
		retsp 0
	}
.Ltmp69:
	.loc	7 98 10
	# RETURN_REG_HOLDER
.Ltmp70:
	.cc_bottom chanend_alloc.function
	.set	chanend_alloc.nstackwords,0
	.globl	chanend_alloc.nstackwords
	.set	chanend_alloc.maxcores,1
	.globl	chanend_alloc.maxcores
	.set	chanend_alloc.maxtimers,0
	.globl	chanend_alloc.maxtimers
	.set	chanend_alloc.maxchanends,0
	.globl	chanend_alloc.maxchanends
.Ltmp71:
	.size	chanend_alloc, .Ltmp71-chanend_alloc
.Lfunc_end17:
	.cfi_endproc

	.globl	chanend_free
	.align	4
	.type	chanend_free,@function
	.cc_top chanend_free.function,chanend_free
chanend_free:
.Lfunc_begin18:
	.loc	7 117 0
	.cfi_startproc
	.issue_mode dual
	{
		nop
		dualentsp 0
	}
.Ltmp72:
	{
		nop
		ldw r1, r0[0]
	}
.Ltmp73:
	.loc	5 76 3 prologue_end
	#APP
	freer res[r1]
	#NO_APP
	{
		ldc r1, 0
		nop
	}
.Ltmp74:
	.loc	7 48 3
	{
		mov r0, r1
		stw r1, r0[0]
	}
.Ltmp75:
	{
		nop
		retsp 0
	}
.Ltmp76:
	.loc	7 118 10
	# RETURN_REG_HOLDER
.Ltmp77:
	.cc_bottom chanend_free.function
	.set	chanend_free.nstackwords,0
	.globl	chanend_free.nstackwords
	.set	chanend_free.maxcores,1
	.globl	chanend_free.maxcores
	.set	chanend_free.maxtimers,0
	.globl	chanend_free.maxtimers
	.set	chanend_free.maxchanends,0
	.globl	chanend_free.maxchanends
.Ltmp78:
	.size	chanend_free, .Ltmp78-chanend_free
.Lfunc_end18:
	.cfi_endproc

	.globl	chanend_convert
	.align	4
	.type	chanend_convert,@function
	.cc_top chanend_convert.function,chanend_convert
chanend_convert:
.Lfunc_begin19:
	.loc	7 147 0
	.cfi_startproc
	.issue_mode dual
	{
		nop
		dualentsp 0
	}
	{
		nop
		retsp 0
	}
	.loc	7 148 3 prologue_end
.Ltmp79:
	# RETURN_REG_HOLDER
.Ltmp80:
	.cc_bottom chanend_convert.function
	.set	chanend_convert.nstackwords,0
	.globl	chanend_convert.nstackwords
	.set	chanend_convert.maxcores,1
	.globl	chanend_convert.maxcores
	.set	chanend_convert.maxtimers,0
	.globl	chanend_convert.maxtimers
	.set	chanend_convert.maxchanends,0
	.globl	chanend_convert.maxchanends
.Ltmp81:
	.size	chanend_convert, .Ltmp81-chanend_convert
.Lfunc_end19:
	.cfi_endproc

	.globl	chanend_set_dest
	.align	4
	.type	chanend_set_dest,@function
	.cc_top chanend_set_dest.function,chanend_set_dest
chanend_set_dest:
.Lfunc_begin20:
	.loc	7 133 0
	.cfi_startproc
	.issue_mode dual
	{
		nop
		dualentsp 0
	}
.Ltmp82:
	.loc	6 61 3 prologue_end
	#APP
	setd res[r0], r1
	#NO_APP
	{
		ldc r0, 0
		retsp 0
	}
.Ltmp83:
	.loc	7 134 10
	# RETURN_REG_HOLDER
.Ltmp84:
	.cc_bottom chanend_set_dest.function
	.set	chanend_set_dest.nstackwords,0
	.globl	chanend_set_dest.nstackwords
	.set	chanend_set_dest.maxcores,1
	.globl	chanend_set_dest.maxcores
	.set	chanend_set_dest.maxtimers,0
	.globl	chanend_set_dest.maxtimers
	.set	chanend_set_dest.maxchanends,0
	.globl	chanend_set_dest.maxchanends
.Ltmp85:
	.size	chanend_set_dest, .Ltmp85-chanend_set_dest
.Lfunc_end20:
	.cfi_endproc

	.globl	chanend_setup_select
	.align	4
	.type	chanend_setup_select,@function
	.cc_top chanend_setup_select.function,chanend_setup_select
chanend_setup_select:
.Lfunc_begin21:
	.loc	7 170 0
	.cfi_startproc
	.issue_mode dual
	{
		nop
		dualentsp 2
	}
.Ltmp86:
	.cfi_def_cfa_offset 8
.Ltmp87:
	.cfi_offset 15, 0
.Ltmp88:
	.loc	5 64 3 prologue_end
	ldap r11, _select_non_callback
.Ltmp89:
	{
		ldc r3, 2
		mov r2, r11
	}
	bl _resource_setup_callback
.Ltmp90:
	{
		ldc r0, 0
		retsp 2
	}
.Ltmp91:
	.loc	7 171 3
	# RETURN_REG_HOLDER
.Ltmp92:
	.cc_bottom chanend_setup_select.function
	.set	chanend_setup_select.nstackwords,(_resource_setup_callback.nstackwords + 2)
	.globl	chanend_setup_select.nstackwords
	.set	chanend_setup_select.maxcores,_resource_setup_callback.maxcores $M 1
	.globl	chanend_setup_select.maxcores
	.set	chanend_setup_select.maxtimers,_resource_setup_callback.maxtimers $M 0
	.globl	chanend_setup_select.maxtimers
	.set	chanend_setup_select.maxchanends,_resource_setup_callback.maxchanends $M 0
	.globl	chanend_setup_select.maxchanends
.Ltmp93:
	.size	chanend_setup_select, .Ltmp93-chanend_setup_select
.Lfunc_end21:
	.cfi_endproc

	.globl	chanend_setup_select_callback
	.align	4
	.type	chanend_setup_select_callback,@function
	.cc_top chanend_setup_select_callback.function,chanend_setup_select_callback
chanend_setup_select_callback:
.Lfunc_begin22:
	.loc	7 192 0
	.cfi_startproc
	.issue_mode dual
.Ltmp94:
	.cfi_def_cfa_offset 8
.Ltmp95:
	.cfi_offset 15, 0
.Ltmp96:
	{
		ldc r3, 2
		dualentsp 2
	}
	.loc	5 64 3 prologue_end
.Ltmp97:
	bl _resource_setup_callback
.Ltmp98:
	{
		ldc r0, 0
		retsp 2
	}
.Ltmp99:
	.loc	7 193 3
	# RETURN_REG_HOLDER
.Ltmp100:
	.cc_bottom chanend_setup_select_callback.function
	.set	chanend_setup_select_callback.nstackwords,(_resource_setup_callback.nstackwords + 2)
	.globl	chanend_setup_select_callback.nstackwords
	.set	chanend_setup_select_callback.maxcores,_resource_setup_callback.maxcores $M 1
	.globl	chanend_setup_select_callback.maxcores
	.set	chanend_setup_select_callback.maxtimers,_resource_setup_callback.maxtimers $M 0
	.globl	chanend_setup_select_callback.maxtimers
	.set	chanend_setup_select_callback.maxchanends,_resource_setup_callback.maxchanends $M 0
	.globl	chanend_setup_select_callback.maxchanends
.Ltmp101:
	.size	chanend_setup_select_callback, .Ltmp101-chanend_setup_select_callback
.Lfunc_end22:
	.cfi_endproc

	.globl	chanend_setup_interrupt_callback
	.align	4
	.type	chanend_setup_interrupt_callback,@function
	.cc_top chanend_setup_interrupt_callback.function,chanend_setup_interrupt_callback
chanend_setup_interrupt_callback:
.Lfunc_begin23:
	.loc	7 212 0
	.cfi_startproc
	.issue_mode dual
.Ltmp102:
	.cfi_def_cfa_offset 8
.Ltmp103:
	.cfi_offset 15, 0
.Ltmp104:
	{
		ldc r3, 10
		dualentsp 2
	}
	.loc	5 59 3 prologue_end
.Ltmp105:
	bl _resource_setup_callback
.Ltmp106:
	{
		ldc r0, 0
		retsp 2
	}
.Ltmp107:
	.loc	7 213 3
	# RETURN_REG_HOLDER
.Ltmp108:
	.cc_bottom chanend_setup_interrupt_callback.function
	.set	chanend_setup_interrupt_callback.nstackwords,(_resource_setup_callback.nstackwords + 2)
	.globl	chanend_setup_interrupt_callback.nstackwords
	.set	chanend_setup_interrupt_callback.maxcores,_resource_setup_callback.maxcores $M 1
	.globl	chanend_setup_interrupt_callback.maxcores
	.set	chanend_setup_interrupt_callback.maxtimers,_resource_setup_callback.maxtimers $M 0
	.globl	chanend_setup_interrupt_callback.maxtimers
	.set	chanend_setup_interrupt_callback.maxchanends,_resource_setup_callback.maxchanends $M 0
	.globl	chanend_setup_interrupt_callback.maxchanends
.Ltmp109:
	.size	chanend_setup_interrupt_callback, .Ltmp109-chanend_setup_interrupt_callback
.Lfunc_end23:
	.cfi_endproc

	.globl	chanend_enable_trigger
	.align	4
	.type	chanend_enable_trigger,@function
	.cc_top chanend_enable_trigger.function,chanend_enable_trigger
chanend_enable_trigger:
.Lfunc_begin24:
	.loc	7 232 0
	.cfi_startproc
	.issue_mode dual
	{
		nop
		dualentsp 0
	}
.Ltmp110:
	.loc	5 47 3 prologue_end
	#APP
	eeu res[r0]
	#NO_APP
	{
		ldc r0, 0
		retsp 0
	}
.Ltmp111:
	.loc	7 233 3
	# RETURN_REG_HOLDER
.Ltmp112:
	.cc_bottom chanend_enable_trigger.function
	.set	chanend_enable_trigger.nstackwords,0
	.globl	chanend_enable_trigger.nstackwords
	.set	chanend_enable_trigger.maxcores,1
	.globl	chanend_enable_trigger.maxcores
	.set	chanend_enable_trigger.maxtimers,0
	.globl	chanend_enable_trigger.maxtimers
	.set	chanend_enable_trigger.maxchanends,0
	.globl	chanend_enable_trigger.maxchanends
.Ltmp113:
	.size	chanend_enable_trigger, .Ltmp113-chanend_enable_trigger
.Lfunc_end24:
	.cfi_endproc

	.globl	chanend_disable_trigger
	.align	4
	.type	chanend_disable_trigger,@function
	.cc_top chanend_disable_trigger.function,chanend_disable_trigger
chanend_disable_trigger:
.Lfunc_begin25:
	.loc	7 248 0
	.cfi_startproc
	.issue_mode dual
	{
		nop
		dualentsp 0
	}
.Ltmp114:
	.loc	5 52 3 prologue_end
	#APP
	edu res[r0]
	#NO_APP
	{
		ldc r0, 0
		retsp 0
	}
.Ltmp115:
	.loc	7 249 3
	# RETURN_REG_HOLDER
.Ltmp116:
	.cc_bottom chanend_disable_trigger.function
	.set	chanend_disable_trigger.nstackwords,0
	.globl	chanend_disable_trigger.nstackwords
	.set	chanend_disable_trigger.maxcores,1
	.globl	chanend_disable_trigger.maxcores
	.set	chanend_disable_trigger.maxtimers,0
	.globl	chanend_disable_trigger.maxtimers
	.set	chanend_disable_trigger.maxchanends,0
	.globl	chanend_disable_trigger.maxchanends
.Ltmp117:
	.size	chanend_disable_trigger, .Ltmp117-chanend_disable_trigger
.Lfunc_end25:
	.cfi_endproc

	.globl	s_chan_alloc
	.align	4
	.type	s_chan_alloc,@function
	.cc_top s_chan_alloc.function,s_chan_alloc
s_chan_alloc:
.Lfunc_begin26:
	.loc	3 38 0
	.cfi_startproc
	.issue_mode dual
	{
		nop
		dualentsp 0
	}
	.loc	6 50 3 prologue_end
.Ltmp118:
	#APP
	getr r1, 0x2
	#NO_APP
.Ltmp119:
	{
		nop
		stw r1, r0[0]
	}
	bf r1, .LBB26_4
.Ltmp120:
	.loc	6 50 3
	#APP
	getr r2, 0x2
	#NO_APP
.Ltmp121:
	{
		nop
		stw r2, r0[1]
	}
.Ltmp122:
	.loc	3 39 3
	bf r2, .LBB26_3
.Ltmp123:
	.loc	6 61 3
	#APP
	setd res[r1], r2
	#NO_APP
	.loc	6 61 3
	#APP
	setd res[r2], r1
	#NO_APP
	bu .LBB26_5
.Ltmp124:
.LBB26_3:
	.loc	5 76 3
	#APP
	freer res[r1]
	#NO_APP
.Ltmp125:
.LBB26_4:
	{
		ldc r1, 0
		nop
	}
	{
		nop
		stw r1, r0[0]
	}
	{
		nop
		stw r1, r0[1]
	}
.Ltmp126:
.LBB26_5:
	{
		ldc r0, 0
		retsp 0
	}
	.loc	3 39 3
	# RETURN_REG_HOLDER
.Ltmp127:
	.cc_bottom s_chan_alloc.function
	.set	s_chan_alloc.nstackwords,0
	.globl	s_chan_alloc.nstackwords
	.set	s_chan_alloc.maxcores,1
	.globl	s_chan_alloc.maxcores
	.set	s_chan_alloc.maxtimers,0
	.globl	s_chan_alloc.maxtimers
	.set	s_chan_alloc.maxchanends,0
	.globl	s_chan_alloc.maxchanends
.Ltmp128:
	.size	s_chan_alloc, .Ltmp128-s_chan_alloc
.Lfunc_end26:
	.cfi_endproc

	.globl	s_chan_free
	.align	4
	.type	s_chan_free,@function
	.cc_top s_chan_free.function,s_chan_free
s_chan_free:
.Lfunc_begin27:
	.loc	3 74 0
	.cfi_startproc
	.issue_mode dual
	{
		nop
		dualentsp 0
	}
	{
		nop
		ldw r1, r0[0]
	}
.Ltmp129:
	.loc	6 96 3 prologue_end
	#APP
	outct res[r1], 0x1
	#NO_APP
	{
		nop
		ldw r2, r0[1]
	}
.Ltmp130:
	.loc	6 96 3
	#APP
	outct res[r2], 0x1
	#NO_APP
.Ltmp131:
	.loc	6 106 3
	#APP
	chkct res[r1], 0x1
	#NO_APP
	.loc	6 106 3
	#APP
	chkct res[r2], 0x1
	#NO_APP
.Ltmp132:
	.loc	5 76 3
	#APP
	freer res[r1]
	#NO_APP
	{
		ldc r1, 0
		nop
	}
	{
		nop
		stw r1, r0[0]
	}
	.loc	5 76 3
	#APP
	freer res[r2]
	#NO_APP
.Ltmp133:
	.loc	3 75 3
	{
		mov r0, r1
		stw r1, r0[1]
	}
.Ltmp134:
	{
		nop
		retsp 0
	}
.Ltmp135:
	.loc	3 75 3
	# RETURN_REG_HOLDER
.Ltmp136:
	.cc_bottom s_chan_free.function
	.set	s_chan_free.nstackwords,0
	.globl	s_chan_free.nstackwords
	.set	s_chan_free.maxcores,1
	.globl	s_chan_free.maxcores
	.set	s_chan_free.maxtimers,0
	.globl	s_chan_free.maxtimers
	.set	s_chan_free.maxchanends,0
	.globl	s_chan_free.maxchanends
.Ltmp137:
	.size	s_chan_free, .Ltmp137-s_chan_free
.Lfunc_end27:
	.cfi_endproc

	.globl	s_chan_out_word
	.align	4
	.type	s_chan_out_word,@function
	.cc_top s_chan_out_word.function,s_chan_out_word
s_chan_out_word:
.Lfunc_begin28:
	.loc	3 100 0
	.cfi_startproc
	.issue_mode dual
	{
		nop
		dualentsp 0
	}
.Ltmp138:
	.loc	6 67 3 prologue_end
	#APP
	out res[r0], r1
	#NO_APP
	{
		ldc r0, 0
		retsp 0
	}
.Ltmp139:
	.loc	3 101 3
	# RETURN_REG_HOLDER
.Ltmp140:
	.cc_bottom s_chan_out_word.function
	.set	s_chan_out_word.nstackwords,0
	.globl	s_chan_out_word.nstackwords
	.set	s_chan_out_word.maxcores,1
	.globl	s_chan_out_word.maxcores
	.set	s_chan_out_word.maxtimers,0
	.globl	s_chan_out_word.maxtimers
	.set	s_chan_out_word.maxchanends,0
	.globl	s_chan_out_word.maxchanends
.Ltmp141:
	.size	s_chan_out_word, .Ltmp141-s_chan_out_word
.Lfunc_end28:
	.cfi_endproc

	.globl	s_chan_out_byte
	.align	4
	.type	s_chan_out_byte,@function
	.cc_top s_chan_out_byte.function,s_chan_out_byte
s_chan_out_byte:
.Lfunc_begin29:
	.loc	3 117 0
	.cfi_startproc
	.issue_mode dual
	{
		nop
		dualentsp 0
	}
.Ltmp142:
	.loc	6 72 3 prologue_end
	#APP
	outt res[r0], r1
	#NO_APP
	{
		ldc r0, 0
		retsp 0
	}
.Ltmp143:
	.loc	3 118 3
	# RETURN_REG_HOLDER
.Ltmp144:
	.cc_bottom s_chan_out_byte.function
	.set	s_chan_out_byte.nstackwords,0
	.globl	s_chan_out_byte.nstackwords
	.set	s_chan_out_byte.maxcores,1
	.globl	s_chan_out_byte.maxcores
	.set	s_chan_out_byte.maxtimers,0
	.globl	s_chan_out_byte.maxtimers
	.set	s_chan_out_byte.maxchanends,0
	.globl	s_chan_out_byte.maxchanends
.Ltmp145:
	.size	s_chan_out_byte, .Ltmp145-s_chan_out_byte
.Lfunc_end29:
	.cfi_endproc

	.globl	s_chan_out_buf_word
	.align	4
	.type	s_chan_out_buf_word,@function
	.cc_top s_chan_out_buf_word.function,s_chan_out_buf_word
s_chan_out_buf_word:
.Lfunc_begin30:
	.loc	3 137 0
	.cfi_startproc
	.issue_mode dual
	{
		nop
		dualentsp 0
	}
.Ltmp146:
	bf r2, .LBB30_2
.Ltmp147:
.LBB30_1:
	{
		nop
		ldw r3, r1[0]
	}
.Ltmp148:
	.loc	6 67 3 prologue_end
	#APP
	out res[r0], r3
	#NO_APP
.Ltmp149:
	.loc	3 138 3
	{
		add r1, r1, 4
		sub r2, r2, 1
	}
	bt r2, .LBB30_1
.Ltmp150:
.LBB30_2:
	{
		ldc r0, 0
		retsp 0
	}
	.loc	3 138 3
	# RETURN_REG_HOLDER
.Ltmp151:
	.cc_bottom s_chan_out_buf_word.function
	.set	s_chan_out_buf_word.nstackwords,0
	.globl	s_chan_out_buf_word.nstackwords
	.set	s_chan_out_buf_word.maxcores,1
	.globl	s_chan_out_buf_word.maxcores
	.set	s_chan_out_buf_word.maxtimers,0
	.globl	s_chan_out_buf_word.maxtimers
	.set	s_chan_out_buf_word.maxchanends,0
	.globl	s_chan_out_buf_word.maxchanends
.Ltmp152:
	.size	s_chan_out_buf_word, .Ltmp152-s_chan_out_buf_word
.Lfunc_end30:
	.cfi_endproc

	.globl	s_chan_out_buf_byte
	.align	4
	.type	s_chan_out_buf_byte,@function
	.cc_top s_chan_out_buf_byte.function,s_chan_out_buf_byte
s_chan_out_buf_byte:
.Lfunc_begin31:
	.loc	3 161 0
	.cfi_startproc
	.issue_mode dual
	{
		nop
		dualentsp 0
	}
.Ltmp153:
	bf r2, .LBB31_3
.Ltmp154:
	.loc	6 72 3 prologue_end
	{
		ldc r3, 0
		nop
	}
.Ltmp155:
.LBB31_2:
	{
		nop
		ld8u r11, r1[r3]
	}
.Ltmp156:
	#APP
	outt res[r0], r11
	#NO_APP
.Ltmp157:
	.loc	3 162 3
	{
		add r1, r1, 1
		sub r2, r2, 1
	}
	bt r2, .LBB31_2
.Ltmp158:
.LBB31_3:
	{
		ldc r0, 0
		retsp 0
	}
	.loc	3 162 3
	# RETURN_REG_HOLDER
.Ltmp159:
	.cc_bottom s_chan_out_buf_byte.function
	.set	s_chan_out_buf_byte.nstackwords,0
	.globl	s_chan_out_buf_byte.nstackwords
	.set	s_chan_out_buf_byte.maxcores,1
	.globl	s_chan_out_buf_byte.maxcores
	.set	s_chan_out_buf_byte.maxtimers,0
	.globl	s_chan_out_buf_byte.maxtimers
	.set	s_chan_out_buf_byte.maxchanends,0
	.globl	s_chan_out_buf_byte.maxchanends
.Ltmp160:
	.size	s_chan_out_buf_byte, .Ltmp160-s_chan_out_buf_byte
.Lfunc_end31:
	.cfi_endproc

	.globl	s_chan_in_word
	.align	4
	.type	s_chan_in_word,@function
	.cc_top s_chan_in_word.function,s_chan_in_word
s_chan_in_word:
.Lfunc_begin32:
	.loc	3 184 0
	.cfi_startproc
	.issue_mode dual
	{
		nop
		dualentsp 0
	}
.Ltmp161:
	.loc	6 78 3 prologue_end
	#APP
	in r0, res[r0]
	#NO_APP
.Ltmp162:
	.loc	3 185 3
	{
		ldc r0, 0
		stw r0, r1[0]
	}
.Ltmp163:
	{
		nop
		retsp 0
	}
.Ltmp164:
	.loc	3 185 3
	# RETURN_REG_HOLDER
.Ltmp165:
	.cc_bottom s_chan_in_word.function
	.set	s_chan_in_word.nstackwords,0
	.globl	s_chan_in_word.nstackwords
	.set	s_chan_in_word.maxcores,1
	.globl	s_chan_in_word.maxcores
	.set	s_chan_in_word.maxtimers,0
	.globl	s_chan_in_word.maxtimers
	.set	s_chan_in_word.maxchanends,0
	.globl	s_chan_in_word.maxchanends
.Ltmp166:
	.size	s_chan_in_word, .Ltmp166-s_chan_in_word
.Lfunc_end32:
	.cfi_endproc

	.globl	s_chan_in_byte
	.align	4
	.type	s_chan_in_byte,@function
	.cc_top s_chan_in_byte.function,s_chan_in_byte
s_chan_in_byte:
.Lfunc_begin33:
	.loc	3 202 0
	.cfi_startproc
	.issue_mode dual
	{
		nop
		dualentsp 0
	}
.Ltmp167:
	.loc	6 85 3 prologue_end
	#APP
	int r2, res[r0]
	#NO_APP
.Ltmp168:
	.loc	3 203 3
	{
		ldc r0, 0
		nop
	}
.Ltmp169:
	st8 r2, r1[r0]
	{
		nop
		retsp 0
	}
.Ltmp170:
	.loc	3 203 3
	# RETURN_REG_HOLDER
.Ltmp171:
	.cc_bottom s_chan_in_byte.function
	.set	s_chan_in_byte.nstackwords,0
	.globl	s_chan_in_byte.nstackwords
	.set	s_chan_in_byte.maxcores,1
	.globl	s_chan_in_byte.maxcores
	.set	s_chan_in_byte.maxtimers,0
	.globl	s_chan_in_byte.maxtimers
	.set	s_chan_in_byte.maxchanends,0
	.globl	s_chan_in_byte.maxchanends
.Ltmp172:
	.size	s_chan_in_byte, .Ltmp172-s_chan_in_byte
.Lfunc_end33:
	.cfi_endproc

	.globl	s_chan_in_buf_word
	.align	4
	.type	s_chan_in_buf_word,@function
	.cc_top s_chan_in_buf_word.function,s_chan_in_buf_word
s_chan_in_buf_word:
.Lfunc_begin34:
	.loc	3 222 0
	.cfi_startproc
	.issue_mode dual
	{
		nop
		dualentsp 0
	}
.Ltmp173:
	bf r2, .LBB34_2
.Ltmp174:
.LBB34_1:
	.loc	6 78 3 prologue_end
	#APP
	in r3, res[r0]
	#NO_APP
.Ltmp175:
	.loc	3 223 3
	{
		add r1, r1, 4
		stw r3, r1[0]
	}
.Ltmp176:
	.loc	3 223 3
	{
		sub r2, r2, 1
		nop
	}
	bt r2, .LBB34_1
.Ltmp177:
.LBB34_2:
	{
		ldc r0, 0
		retsp 0
	}
	.loc	3 223 3
	# RETURN_REG_HOLDER
.Ltmp178:
	.cc_bottom s_chan_in_buf_word.function
	.set	s_chan_in_buf_word.nstackwords,0
	.globl	s_chan_in_buf_word.nstackwords
	.set	s_chan_in_buf_word.maxcores,1
	.globl	s_chan_in_buf_word.maxcores
	.set	s_chan_in_buf_word.maxtimers,0
	.globl	s_chan_in_buf_word.maxtimers
	.set	s_chan_in_buf_word.maxchanends,0
	.globl	s_chan_in_buf_word.maxchanends
.Ltmp179:
	.size	s_chan_in_buf_word, .Ltmp179-s_chan_in_buf_word
.Lfunc_end34:
	.cfi_endproc

	.globl	s_chan_in_buf_byte
	.align	4
	.type	s_chan_in_buf_byte,@function
	.cc_top s_chan_in_buf_byte.function,s_chan_in_buf_byte
s_chan_in_buf_byte:
.Lfunc_begin35:
	.loc	3 246 0
	.cfi_startproc
	.issue_mode dual
	{
		nop
		dualentsp 0
	}
.Ltmp180:
	bf r2, .LBB35_3
.Ltmp181:
	.loc	3 247 3 prologue_end
	{
		ldc r3, 0
		nop
	}
.Ltmp182:
.LBB35_2:
	.loc	6 85 3
	#APP
	int r11, res[r0]
	#NO_APP
.Ltmp183:
	.loc	3 247 3
	st8 r11, r1[r3]
.Ltmp184:
	.loc	3 247 3
	{
		add r1, r1, 1
		sub r2, r2, 1
	}
	bt r2, .LBB35_2
.Ltmp185:
.LBB35_3:
	{
		ldc r0, 0
		retsp 0
	}
	.loc	3 247 3
	# RETURN_REG_HOLDER
.Ltmp186:
	.cc_bottom s_chan_in_buf_byte.function
	.set	s_chan_in_buf_byte.nstackwords,0
	.globl	s_chan_in_buf_byte.nstackwords
	.set	s_chan_in_buf_byte.maxcores,1
	.globl	s_chan_in_buf_byte.maxcores
	.set	s_chan_in_buf_byte.maxtimers,0
	.globl	s_chan_in_buf_byte.maxtimers
	.set	s_chan_in_buf_byte.maxchanends,0
	.globl	s_chan_in_buf_byte.maxchanends
.Ltmp187:
	.size	s_chan_in_buf_byte, .Ltmp187-s_chan_in_buf_byte
.Lfunc_end35:
	.cfi_endproc

	.globl	s_chan_out_ct
	.align	4
	.type	s_chan_out_ct,@function
	.cc_top s_chan_out_ct.function,s_chan_out_ct
s_chan_out_ct:
.Lfunc_begin36:
	.loc	3 269 0
	.cfi_startproc
	.issue_mode dual
	{
		nop
		dualentsp 0
	}
.Ltmp188:
	.loc	6 91 3 prologue_end
	#APP
	outct res[r0], r1
	#NO_APP
	{
		ldc r0, 0
		retsp 0
	}
.Ltmp189:
	.loc	3 270 3
	# RETURN_REG_HOLDER
.Ltmp190:
	.cc_bottom s_chan_out_ct.function
	.set	s_chan_out_ct.nstackwords,0
	.globl	s_chan_out_ct.nstackwords
	.set	s_chan_out_ct.maxcores,1
	.globl	s_chan_out_ct.maxcores
	.set	s_chan_out_ct.maxtimers,0
	.globl	s_chan_out_ct.maxtimers
	.set	s_chan_out_ct.maxchanends,0
	.globl	s_chan_out_ct.maxchanends
.Ltmp191:
	.size	s_chan_out_ct, .Ltmp191-s_chan_out_ct
.Lfunc_end36:
	.cfi_endproc

	.globl	s_chan_out_ct_end
	.align	4
	.type	s_chan_out_ct_end,@function
	.cc_top s_chan_out_ct_end.function,s_chan_out_ct_end
s_chan_out_ct_end:
.Lfunc_begin37:
	.loc	3 291 0
	.cfi_startproc
	.issue_mode dual
	{
		nop
		dualentsp 0
	}
.Ltmp192:
	.loc	6 96 3 prologue_end
	#APP
	outct res[r0], 0x1
	#NO_APP
	{
		ldc r0, 0
		retsp 0
	}
.Ltmp193:
	.loc	3 292 3
	# RETURN_REG_HOLDER
.Ltmp194:
	.cc_bottom s_chan_out_ct_end.function
	.set	s_chan_out_ct_end.nstackwords,0
	.globl	s_chan_out_ct_end.nstackwords
	.set	s_chan_out_ct_end.maxcores,1
	.globl	s_chan_out_ct_end.maxcores
	.set	s_chan_out_ct_end.maxtimers,0
	.globl	s_chan_out_ct_end.maxtimers
	.set	s_chan_out_ct_end.maxchanends,0
	.globl	s_chan_out_ct_end.maxchanends
.Ltmp195:
	.size	s_chan_out_ct_end, .Ltmp195-s_chan_out_ct_end
.Lfunc_end37:
	.cfi_endproc

	.globl	s_chan_check_ct
	.align	4
	.type	s_chan_check_ct,@function
	.cc_top s_chan_check_ct.function,s_chan_check_ct
s_chan_check_ct:
.Lfunc_begin38:
	.loc	3 312 0
	.cfi_startproc
	.issue_mode dual
	{
		nop
		dualentsp 0
	}
.Ltmp196:
	.loc	6 101 3 prologue_end
	#APP
	chkct res[r0], r1
	#NO_APP
	{
		ldc r0, 0
		retsp 0
	}
.Ltmp197:
	.loc	3 313 3
	# RETURN_REG_HOLDER
.Ltmp198:
	.cc_bottom s_chan_check_ct.function
	.set	s_chan_check_ct.nstackwords,0
	.globl	s_chan_check_ct.nstackwords
	.set	s_chan_check_ct.maxcores,1
	.globl	s_chan_check_ct.maxcores
	.set	s_chan_check_ct.maxtimers,0
	.globl	s_chan_check_ct.maxtimers
	.set	s_chan_check_ct.maxchanends,0
	.globl	s_chan_check_ct.maxchanends
.Ltmp199:
	.size	s_chan_check_ct, .Ltmp199-s_chan_check_ct
.Lfunc_end38:
	.cfi_endproc

	.globl	s_chan_check_ct_end
	.align	4
	.type	s_chan_check_ct_end,@function
	.cc_top s_chan_check_ct_end.function,s_chan_check_ct_end
s_chan_check_ct_end:
.Lfunc_begin39:
	.loc	3 331 0
	.cfi_startproc
	.issue_mode dual
	{
		nop
		dualentsp 0
	}
.Ltmp200:
	.loc	6 106 3 prologue_end
	#APP
	chkct res[r0], 0x1
	#NO_APP
	{
		ldc r0, 0
		retsp 0
	}
.Ltmp201:
	.loc	3 332 3
	# RETURN_REG_HOLDER
.Ltmp202:
	.cc_bottom s_chan_check_ct_end.function
	.set	s_chan_check_ct_end.nstackwords,0
	.globl	s_chan_check_ct_end.nstackwords
	.set	s_chan_check_ct_end.maxcores,1
	.globl	s_chan_check_ct_end.maxcores
	.set	s_chan_check_ct_end.maxtimers,0
	.globl	s_chan_check_ct_end.maxtimers
	.set	s_chan_check_ct_end.maxchanends,0
	.globl	s_chan_check_ct_end.maxchanends
.Ltmp203:
	.size	s_chan_check_ct_end, .Ltmp203-s_chan_check_ct_end
.Lfunc_end39:
	.cfi_endproc

	.globl	chan_alloc
	.align	4
	.type	chan_alloc,@function
	.cc_top chan_alloc.function,chan_alloc
chan_alloc:
.Lfunc_begin40:
	.file	8 "C:/Users/takaaki/git/lib_xcore_c/lib_xcore_c/api\\xcore_c_channel.h"
	.loc	8 36 0
	.cfi_startproc
	.issue_mode dual
	{
		nop
		dualentsp 0
	}
.Ltmp204:
	.loc	6 50 3 prologue_end
	#APP
	getr r1, 0x2
	#NO_APP
.Ltmp205:
	{
		nop
		stw r1, r0[0]
	}
	bf r1, .LBB40_4
.Ltmp206:
	.loc	6 50 3
	#APP
	getr r2, 0x2
	#NO_APP
.Ltmp207:
	{
		nop
		stw r2, r0[1]
	}
.Ltmp208:
	.loc	3 39 3
	bf r2, .LBB40_3
.Ltmp209:
	.loc	6 61 3
	#APP
	setd res[r1], r2
	#NO_APP
	.loc	6 61 3
	#APP
	setd res[r2], r1
	#NO_APP
	bu .LBB40_5
.Ltmp210:
.LBB40_3:
	.loc	5 76 3
	#APP
	freer res[r1]
	#NO_APP
.Ltmp211:
.LBB40_4:
	{
		ldc r1, 0
		nop
	}
	{
		nop
		stw r1, r0[0]
	}
	{
		nop
		stw r1, r0[1]
	}
.Ltmp212:
.LBB40_5:
	{
		ldc r0, 0
		retsp 0
	}
	.loc	8 37 10
	# RETURN_REG_HOLDER
.Ltmp213:
	.cc_bottom chan_alloc.function
	.set	chan_alloc.nstackwords,0
	.globl	chan_alloc.nstackwords
	.set	chan_alloc.maxcores,1
	.globl	chan_alloc.maxcores
	.set	chan_alloc.maxtimers,0
	.globl	chan_alloc.maxtimers
	.set	chan_alloc.maxchanends,0
	.globl	chan_alloc.maxchanends
.Ltmp214:
	.size	chan_alloc, .Ltmp214-chan_alloc
.Lfunc_end40:
	.cfi_endproc

	.globl	chan_free
	.align	4
	.type	chan_free,@function
	.cc_top chan_free.function,chan_free
chan_free:
.Lfunc_begin41:
	.loc	8 54 0
	.cfi_startproc
	.issue_mode dual
	{
		nop
		dualentsp 0
	}
	{
		nop
		ldw r1, r0[0]
	}
.Ltmp215:
	.loc	5 76 3 prologue_end
	#APP
	freer res[r1]
	#NO_APP
	{
		ldc r1, 0
		nop
	}
.Ltmp216:
	{
		nop
		stw r1, r0[0]
	}
	{
		nop
		ldw r2, r0[1]
	}
.Ltmp217:
	.loc	5 76 3
	#APP
	freer res[r2]
	#NO_APP
.Ltmp218:
	.loc	8 56 3
	{
		mov r0, r1
		stw r1, r0[1]
	}
.Ltmp219:
	{
		nop
		retsp 0
	}
.Ltmp220:
	.loc	8 56 3
	# RETURN_REG_HOLDER
.Ltmp221:
	.cc_bottom chan_free.function
	.set	chan_free.nstackwords,0
	.globl	chan_free.nstackwords
	.set	chan_free.maxcores,1
	.globl	chan_free.maxcores
	.set	chan_free.maxtimers,0
	.globl	chan_free.maxtimers
	.set	chan_free.maxchanends,0
	.globl	chan_free.maxchanends
.Ltmp222:
	.size	chan_free, .Ltmp222-chan_free
.Lfunc_end41:
	.cfi_endproc

	.globl	chan_out_word
	.align	4
	.type	chan_out_word,@function
	.cc_top chan_out_word.function,chan_out_word
chan_out_word:
.Lfunc_begin42:
	.loc	8 78 0
	.cfi_startproc
	.issue_mode dual
	{
		nop
		dualentsp 0
	}
.Ltmp223:
	.loc	6 96 3 prologue_end
	#APP
	outct res[r0], 0x1
	#NO_APP
.Ltmp224:
	.loc	6 106 3
	#APP
	chkct res[r0], 0x1
	#NO_APP
.Ltmp225:
	.loc	6 67 3
	#APP
	out res[r0], r1
	#NO_APP
.Ltmp226:
	.loc	6 96 3
	#APP
	outct res[r0], 0x1
	#NO_APP
.Ltmp227:
	.loc	6 106 3
	#APP
	chkct res[r0], 0x1
	#NO_APP
	{
		ldc r0, 0
		retsp 0
	}
.Ltmp228:
	.loc	8 79 3
	# RETURN_REG_HOLDER
.Ltmp229:
	.cc_bottom chan_out_word.function
	.set	chan_out_word.nstackwords,0
	.globl	chan_out_word.nstackwords
	.set	chan_out_word.maxcores,1
	.globl	chan_out_word.maxcores
	.set	chan_out_word.maxtimers,0
	.globl	chan_out_word.maxtimers
	.set	chan_out_word.maxchanends,0
	.globl	chan_out_word.maxchanends
.Ltmp230:
	.size	chan_out_word, .Ltmp230-chan_out_word
.Lfunc_end42:
	.cfi_endproc

	.globl	chan_out_byte
	.align	4
	.type	chan_out_byte,@function
	.cc_top chan_out_byte.function,chan_out_byte
chan_out_byte:
.Lfunc_begin43:
	.loc	8 102 0
	.cfi_startproc
	.issue_mode dual
	{
		nop
		dualentsp 0
	}
.Ltmp231:
	.loc	6 96 3 prologue_end
	#APP
	outct res[r0], 0x1
	#NO_APP
.Ltmp232:
	.loc	6 106 3
	#APP
	chkct res[r0], 0x1
	#NO_APP
.Ltmp233:
	.loc	6 72 3
	#APP
	outt res[r0], r1
	#NO_APP
.Ltmp234:
	.loc	6 96 3
	#APP
	outct res[r0], 0x1
	#NO_APP
.Ltmp235:
	.loc	6 106 3
	#APP
	chkct res[r0], 0x1
	#NO_APP
	{
		ldc r0, 0
		retsp 0
	}
.Ltmp236:
	.loc	8 103 3
	# RETURN_REG_HOLDER
.Ltmp237:
	.cc_bottom chan_out_byte.function
	.set	chan_out_byte.nstackwords,0
	.globl	chan_out_byte.nstackwords
	.set	chan_out_byte.maxcores,1
	.globl	chan_out_byte.maxcores
	.set	chan_out_byte.maxtimers,0
	.globl	chan_out_byte.maxtimers
	.set	chan_out_byte.maxchanends,0
	.globl	chan_out_byte.maxchanends
.Ltmp238:
	.size	chan_out_byte, .Ltmp238-chan_out_byte
.Lfunc_end43:
	.cfi_endproc

	.globl	chan_out_buf_word
	.align	4
	.type	chan_out_buf_word,@function
	.cc_top chan_out_buf_word.function,chan_out_buf_word
chan_out_buf_word:
.Lfunc_begin44:
	.loc	8 129 0
	.cfi_startproc
	.issue_mode dual
	{
		nop
		dualentsp 0
	}
.Ltmp239:
	.loc	6 96 3 prologue_end
	#APP
	outct res[r0], 0x1
	#NO_APP
.Ltmp240:
	.loc	6 106 3
	#APP
	chkct res[r0], 0x1
	#NO_APP
.Ltmp241:
	bf r2, .LBB44_2
.Ltmp242:
.LBB44_1:
	{
		nop
		ldw r3, r1[0]
	}
.Ltmp243:
	.loc	6 67 3
	#APP
	out res[r0], r3
	#NO_APP
.Ltmp244:
	.loc	8 130 3
	{
		add r1, r1, 4
		sub r2, r2, 1
	}
	bt r2, .LBB44_1
.Ltmp245:
.LBB44_2:
	.loc	6 96 3
	#APP
	outct res[r0], 0x1
	#NO_APP
.Ltmp246:
	.loc	6 106 3
	#APP
	chkct res[r0], 0x1
	#NO_APP
	{
		ldc r0, 0
		retsp 0
	}
.Ltmp247:
	.loc	8 130 3
	# RETURN_REG_HOLDER
.Ltmp248:
	.cc_bottom chan_out_buf_word.function
	.set	chan_out_buf_word.nstackwords,0
	.globl	chan_out_buf_word.nstackwords
	.set	chan_out_buf_word.maxcores,1
	.globl	chan_out_buf_word.maxcores
	.set	chan_out_buf_word.maxtimers,0
	.globl	chan_out_buf_word.maxtimers
	.set	chan_out_buf_word.maxchanends,0
	.globl	chan_out_buf_word.maxchanends
.Ltmp249:
	.size	chan_out_buf_word, .Ltmp249-chan_out_buf_word
.Lfunc_end44:
	.cfi_endproc

	.globl	chan_out_buf_byte
	.align	4
	.type	chan_out_buf_byte,@function
	.cc_top chan_out_buf_byte.function,chan_out_buf_byte
chan_out_buf_byte:
.Lfunc_begin45:
	.loc	8 158 0
	.cfi_startproc
	.issue_mode dual
	{
		nop
		dualentsp 0
	}
.Ltmp250:
	.loc	6 96 3 prologue_end
	#APP
	outct res[r0], 0x1
	#NO_APP
.Ltmp251:
	.loc	6 106 3
	#APP
	chkct res[r0], 0x1
	#NO_APP
.Ltmp252:
	bf r2, .LBB45_3
.Ltmp253:
	.loc	6 72 3
	{
		ldc r3, 0
		nop
	}
.Ltmp254:
.LBB45_2:
	{
		nop
		ld8u r11, r1[r3]
	}
.Ltmp255:
	#APP
	outt res[r0], r11
	#NO_APP
.Ltmp256:
	.loc	8 159 3
	{
		add r1, r1, 1
		sub r2, r2, 1
	}
	bt r2, .LBB45_2
.Ltmp257:
.LBB45_3:
	.loc	6 96 3
	#APP
	outct res[r0], 0x1
	#NO_APP
.Ltmp258:
	.loc	6 106 3
	#APP
	chkct res[r0], 0x1
	#NO_APP
	{
		ldc r0, 0
		retsp 0
	}
.Ltmp259:
	.loc	8 159 3
	# RETURN_REG_HOLDER
.Ltmp260:
	.cc_bottom chan_out_buf_byte.function
	.set	chan_out_buf_byte.nstackwords,0
	.globl	chan_out_buf_byte.nstackwords
	.set	chan_out_buf_byte.maxcores,1
	.globl	chan_out_buf_byte.maxcores
	.set	chan_out_buf_byte.maxtimers,0
	.globl	chan_out_buf_byte.maxtimers
	.set	chan_out_buf_byte.maxchanends,0
	.globl	chan_out_buf_byte.maxchanends
.Ltmp261:
	.size	chan_out_buf_byte, .Ltmp261-chan_out_buf_byte
.Lfunc_end45:
	.cfi_endproc

	.globl	chan_in_word
	.align	4
	.type	chan_in_word,@function
	.cc_top chan_in_word.function,chan_in_word
chan_in_word:
.Lfunc_begin46:
	.loc	8 184 0
	.cfi_startproc
	.issue_mode dual
	{
		nop
		dualentsp 0
	}
.Ltmp262:
	.loc	6 106 3 prologue_end
	#APP
	chkct res[r0], 0x1
	#NO_APP
.Ltmp263:
	.loc	6 96 3
	#APP
	outct res[r0], 0x1
	#NO_APP
.Ltmp264:
	.loc	6 78 3
	#APP
	in r2, res[r0]
	#NO_APP
.Ltmp265:
	{
		nop
		stw r2, r1[0]
	}
.Ltmp266:
	.loc	6 106 3
	#APP
	chkct res[r0], 0x1
	#NO_APP
.Ltmp267:
	.loc	6 96 3
	#APP
	outct res[r0], 0x1
	#NO_APP
	{
		ldc r0, 0
		retsp 0
	}
.Ltmp268:
	.loc	8 185 3
	# RETURN_REG_HOLDER
.Ltmp269:
	.cc_bottom chan_in_word.function
	.set	chan_in_word.nstackwords,0
	.globl	chan_in_word.nstackwords
	.set	chan_in_word.maxcores,1
	.globl	chan_in_word.maxcores
	.set	chan_in_word.maxtimers,0
	.globl	chan_in_word.maxtimers
	.set	chan_in_word.maxchanends,0
	.globl	chan_in_word.maxchanends
.Ltmp270:
	.size	chan_in_word, .Ltmp270-chan_in_word
.Lfunc_end46:
	.cfi_endproc

	.globl	chan_in_byte
	.align	4
	.type	chan_in_byte,@function
	.cc_top chan_in_byte.function,chan_in_byte
chan_in_byte:
.Lfunc_begin47:
	.loc	8 208 0
	.cfi_startproc
	.issue_mode dual
	{
		nop
		dualentsp 0
	}
.Ltmp271:
	.loc	6 106 3 prologue_end
	#APP
	chkct res[r0], 0x1
	#NO_APP
.Ltmp272:
	.loc	6 96 3
	#APP
	outct res[r0], 0x1
	#NO_APP
.Ltmp273:
	.loc	6 85 3
	#APP
	int r3, res[r0]
	#NO_APP
.Ltmp274:
	.loc	8 209 3
	{
		ldc r2, 0
		nop
	}
	st8 r3, r1[r2]
	.loc	6 106 3
.Ltmp275:
	#APP
	chkct res[r0], 0x1
	#NO_APP
.Ltmp276:
	.loc	6 96 3
	#APP
	outct res[r0], 0x1
	#NO_APP
.Ltmp277:
	.loc	8 209 3
	{
		mov r0, r2
		retsp 0
	}
	# RETURN_REG_HOLDER
.Ltmp278:
	.cc_bottom chan_in_byte.function
	.set	chan_in_byte.nstackwords,0
	.globl	chan_in_byte.nstackwords
	.set	chan_in_byte.maxcores,1
	.globl	chan_in_byte.maxcores
	.set	chan_in_byte.maxtimers,0
	.globl	chan_in_byte.maxtimers
	.set	chan_in_byte.maxchanends,0
	.globl	chan_in_byte.maxchanends
.Ltmp279:
	.size	chan_in_byte, .Ltmp279-chan_in_byte
.Lfunc_end47:
	.cfi_endproc

	.globl	chan_in_buf_word
	.align	4
	.type	chan_in_buf_word,@function
	.cc_top chan_in_buf_word.function,chan_in_buf_word
chan_in_buf_word:
.Lfunc_begin48:
	.loc	8 234 0
	.cfi_startproc
	.issue_mode dual
	{
		nop
		dualentsp 0
	}
.Ltmp280:
	.loc	6 106 3 prologue_end
	#APP
	chkct res[r0], 0x1
	#NO_APP
.Ltmp281:
	.loc	6 96 3
	#APP
	outct res[r0], 0x1
	#NO_APP
.Ltmp282:
	bf r2, .LBB48_2
.Ltmp283:
.LBB48_1:
	.loc	6 78 3
	#APP
	in r3, res[r0]
	#NO_APP
.Ltmp284:
	.loc	8 235 3
	{
		add r1, r1, 4
		stw r3, r1[0]
	}
.Ltmp285:
	.loc	8 235 3
	{
		sub r2, r2, 1
		nop
	}
	bt r2, .LBB48_1
.Ltmp286:
.LBB48_2:
	.loc	6 106 3
	#APP
	chkct res[r0], 0x1
	#NO_APP
.Ltmp287:
	.loc	6 96 3
	#APP
	outct res[r0], 0x1
	#NO_APP
	{
		ldc r0, 0
		retsp 0
	}
.Ltmp288:
	.loc	8 235 3
	# RETURN_REG_HOLDER
.Ltmp289:
	.cc_bottom chan_in_buf_word.function
	.set	chan_in_buf_word.nstackwords,0
	.globl	chan_in_buf_word.nstackwords
	.set	chan_in_buf_word.maxcores,1
	.globl	chan_in_buf_word.maxcores
	.set	chan_in_buf_word.maxtimers,0
	.globl	chan_in_buf_word.maxtimers
	.set	chan_in_buf_word.maxchanends,0
	.globl	chan_in_buf_word.maxchanends
.Ltmp290:
	.size	chan_in_buf_word, .Ltmp290-chan_in_buf_word
.Lfunc_end48:
	.cfi_endproc

	.globl	chan_in_buf_byte
	.align	4
	.type	chan_in_buf_byte,@function
	.cc_top chan_in_buf_byte.function,chan_in_buf_byte
chan_in_buf_byte:
.Lfunc_begin49:
	.loc	8 262 0
	.cfi_startproc
	.issue_mode dual
	{
		nop
		dualentsp 0
	}
.Ltmp291:
	.loc	6 106 3 prologue_end
	#APP
	chkct res[r0], 0x1
	#NO_APP
.Ltmp292:
	.loc	6 96 3
	#APP
	outct res[r0], 0x1
	#NO_APP
.Ltmp293:
	bf r2, .LBB49_3
.Ltmp294:
	.loc	8 263 3
	{
		ldc r3, 0
		nop
	}
.Ltmp295:
.LBB49_2:
	.loc	6 85 3
	#APP
	int r11, res[r0]
	#NO_APP
.Ltmp296:
	.loc	8 263 3
	st8 r11, r1[r3]
.Ltmp297:
	.loc	8 263 3
	{
		add r1, r1, 1
		sub r2, r2, 1
	}
	bt r2, .LBB49_2
.Ltmp298:
.LBB49_3:
	.loc	6 106 3
	#APP
	chkct res[r0], 0x1
	#NO_APP
.Ltmp299:
	.loc	6 96 3
	#APP
	outct res[r0], 0x1
	#NO_APP
	{
		ldc r0, 0
		retsp 0
	}
.Ltmp300:
	.loc	8 263 3
	# RETURN_REG_HOLDER
.Ltmp301:
	.cc_bottom chan_in_buf_byte.function
	.set	chan_in_buf_byte.nstackwords,0
	.globl	chan_in_buf_byte.nstackwords
	.set	chan_in_buf_byte.maxcores,1
	.globl	chan_in_buf_byte.maxcores
	.set	chan_in_buf_byte.maxtimers,0
	.globl	chan_in_buf_byte.maxtimers
	.set	chan_in_buf_byte.maxchanends,0
	.globl	chan_in_buf_byte.maxchanends
.Ltmp302:
	.size	chan_in_buf_byte, .Ltmp302-chan_in_buf_byte
.Lfunc_end49:
	.cfi_endproc

	.globl	chan_init_transaction_master
	.align	4
	.type	chan_init_transaction_master,@function
	.cc_top chan_init_transaction_master.function,chan_init_transaction_master
chan_init_transaction_master:
.Lfunc_begin50:
	.file	9 "C:/Users/takaaki/git/lib_xcore_c/lib_xcore_c/api\\xcore_c_channel_transaction.h"
	.loc	9 41 0
	.cfi_startproc
	.issue_mode dual
	{
		nop
		dualentsp 0
	}
	{
		nop
		ldw r2, r0[0]
	}
.Ltmp303:
	.loc	6 96 3 prologue_end
	#APP
	outct res[r2], 0x1
	#NO_APP
	{
		ldc r2, 0
		nop
	}
.Ltmp304:
	{
		nop
		stw r2, r1[1]
	}
	{
		nop
		ldw r3, r0[0]
	}
	{
		nop
		stw r3, r1[0]
	}
.Ltmp305:
	.loc	9 42 3
	{
		mov r0, r2
		stw r2, r0[0]
	}
.Ltmp306:
	{
		nop
		retsp 0
	}
.Ltmp307:
	.loc	9 42 3
	# RETURN_REG_HOLDER
.Ltmp308:
	.cc_bottom chan_init_transaction_master.function
	.set	chan_init_transaction_master.nstackwords,0
	.globl	chan_init_transaction_master.nstackwords
	.set	chan_init_transaction_master.maxcores,1
	.globl	chan_init_transaction_master.maxcores
	.set	chan_init_transaction_master.maxtimers,0
	.globl	chan_init_transaction_master.maxtimers
	.set	chan_init_transaction_master.maxchanends,0
	.globl	chan_init_transaction_master.maxchanends
.Ltmp309:
	.size	chan_init_transaction_master, .Ltmp309-chan_init_transaction_master
.Lfunc_end50:
	.cfi_endproc

	.globl	chan_init_transaction_slave
	.align	4
	.type	chan_init_transaction_slave,@function
	.cc_top chan_init_transaction_slave.function,chan_init_transaction_slave
chan_init_transaction_slave:
.Lfunc_begin51:
	.loc	9 72 0
	.cfi_startproc
	.issue_mode dual
	{
		nop
		dualentsp 0
	}
	{
		nop
		ldw r2, r0[0]
	}
.Ltmp310:
	.loc	6 106 3 prologue_end
	#APP
	chkct res[r2], 0x1
	#NO_APP
	{
		mkmsk r2, 1
		nop
	}
.Ltmp311:
	{
		nop
		stw r2, r1[1]
	}
	{
		nop
		ldw r2, r0[0]
	}
.Ltmp312:
	.loc	9 73 3
	{
		ldc r1, 0
		stw r2, r1[0]
	}
.Ltmp313:
	.loc	9 73 3
	{
		mov r0, r1
		stw r1, r0[0]
	}
.Ltmp314:
	{
		nop
		retsp 0
	}
.Ltmp315:
	.loc	9 73 3
	# RETURN_REG_HOLDER
.Ltmp316:
	.cc_bottom chan_init_transaction_slave.function
	.set	chan_init_transaction_slave.nstackwords,0
	.globl	chan_init_transaction_slave.nstackwords
	.set	chan_init_transaction_slave.maxcores,1
	.globl	chan_init_transaction_slave.maxcores
	.set	chan_init_transaction_slave.maxtimers,0
	.globl	chan_init_transaction_slave.maxtimers
	.set	chan_init_transaction_slave.maxchanends,0
	.globl	chan_init_transaction_slave.maxchanends
.Ltmp317:
	.size	chan_init_transaction_slave, .Ltmp317-chan_init_transaction_slave
.Lfunc_end51:
	.cfi_endproc

	.globl	chan_complete_transaction
	.align	4
	.type	chan_complete_transaction,@function
	.cc_top chan_complete_transaction.function,chan_complete_transaction
chan_complete_transaction:
.Lfunc_begin52:
	.loc	9 103 0
	.cfi_startproc
	.issue_mode dual
	{
		nop
		dualentsp 0
	}
	{
		nop
		ldw r3, r1[1]
	}
	{
		nop
		ldw r2, r1[0]
	}
.Ltmp318:
	.loc	9 104 3 prologue_end
	bf r3, .LBB52_2
.Ltmp319:
	.loc	6 96 3
	#APP
	outct res[r2], 0x1
	#NO_APP
.Ltmp320:
	.loc	6 106 3
	#APP
	chkct res[r2], 0x1
	#NO_APP
	bu .LBB52_3
.Ltmp321:
.LBB52_2:
	.loc	6 106 3
	#APP
	chkct res[r2], 0x1
	#NO_APP
.Ltmp322:
	.loc	6 96 3
	#APP
	outct res[r2], 0x1
	#NO_APP
.Ltmp323:
.LBB52_3:
	.loc	9 104 3
	{
		ldc r0, 0
		stw r2, r0[0]
	}
.Ltmp324:
	{
		nop
		stw r0, r1[0]
	}
	{
		nop
		retsp 0
	}
.Ltmp325:
	.loc	9 104 3
	# RETURN_REG_HOLDER
.Ltmp326:
	.cc_bottom chan_complete_transaction.function
	.set	chan_complete_transaction.nstackwords,0
	.globl	chan_complete_transaction.nstackwords
	.set	chan_complete_transaction.maxcores,1
	.globl	chan_complete_transaction.maxcores
	.set	chan_complete_transaction.maxtimers,0
	.globl	chan_complete_transaction.maxtimers
	.set	chan_complete_transaction.maxchanends,0
	.globl	chan_complete_transaction.maxchanends
.Ltmp327:
	.size	chan_complete_transaction, .Ltmp327-chan_complete_transaction
.Lfunc_end52:
	.cfi_endproc

	.globl	t_chan_out_word
	.align	4
	.type	t_chan_out_word,@function
	.cc_top t_chan_out_word.function,t_chan_out_word
t_chan_out_word:
.Lfunc_begin53:
	.loc	9 131 0
	.cfi_startproc
	.issue_mode dual
	{
		nop
		dualentsp 0
	}
.Ltmp328:
	{
		nop
		ldw r3, r0[1]
	}
	{
		nop
		ldw r2, r0[0]
	}
.Ltmp329:
	bt r3, .LBB53_2
.Ltmp330:
	.loc	6 106 3 prologue_end
	#APP
	chkct res[r2], 0x1
	#NO_APP
	{
		mkmsk r3, 1
		nop
	}
	{
		nop
		stw r3, r0[1]
	}
.Ltmp331:
.LBB53_2:
	.loc	6 67 3
	#APP
	out res[r2], r1
	#NO_APP
	{
		ldc r0, 0
		retsp 0
	}
.Ltmp332:
	.loc	9 132 3
	# RETURN_REG_HOLDER
.Ltmp333:
	.cc_bottom t_chan_out_word.function
	.set	t_chan_out_word.nstackwords,0
	.globl	t_chan_out_word.nstackwords
	.set	t_chan_out_word.maxcores,1
	.globl	t_chan_out_word.maxcores
	.set	t_chan_out_word.maxtimers,0
	.globl	t_chan_out_word.maxtimers
	.set	t_chan_out_word.maxchanends,0
	.globl	t_chan_out_word.maxchanends
.Ltmp334:
	.size	t_chan_out_word, .Ltmp334-t_chan_out_word
.Lfunc_end53:
	.cfi_endproc

	.globl	t_chan_out_byte
	.align	4
	.type	t_chan_out_byte,@function
	.cc_top t_chan_out_byte.function,t_chan_out_byte
t_chan_out_byte:
.Lfunc_begin54:
	.loc	9 152 0
	.cfi_startproc
	.issue_mode dual
	{
		nop
		dualentsp 0
	}
.Ltmp335:
	{
		nop
		ldw r3, r0[1]
	}
	{
		nop
		ldw r2, r0[0]
	}
.Ltmp336:
	bt r3, .LBB54_2
.Ltmp337:
	.loc	6 106 3 prologue_end
	#APP
	chkct res[r2], 0x1
	#NO_APP
	{
		mkmsk r3, 1
		nop
	}
	{
		nop
		stw r3, r0[1]
	}
.Ltmp338:
.LBB54_2:
	.loc	6 72 3
	#APP
	outt res[r2], r1
	#NO_APP
	{
		ldc r0, 0
		retsp 0
	}
.Ltmp339:
	.loc	9 153 3
	# RETURN_REG_HOLDER
.Ltmp340:
	.cc_bottom t_chan_out_byte.function
	.set	t_chan_out_byte.nstackwords,0
	.globl	t_chan_out_byte.nstackwords
	.set	t_chan_out_byte.maxcores,1
	.globl	t_chan_out_byte.maxcores
	.set	t_chan_out_byte.maxtimers,0
	.globl	t_chan_out_byte.maxtimers
	.set	t_chan_out_byte.maxchanends,0
	.globl	t_chan_out_byte.maxchanends
.Ltmp341:
	.size	t_chan_out_byte, .Ltmp341-t_chan_out_byte
.Lfunc_end54:
	.cfi_endproc

	.globl	t_chan_out_buf_word
	.align	4
	.type	t_chan_out_buf_word,@function
	.cc_top t_chan_out_buf_word.function,t_chan_out_buf_word
t_chan_out_buf_word:
.Lfunc_begin55:
	.loc	9 174 0
	.cfi_startproc
	.issue_mode dual
	{
		nop
		dualentsp 0
	}
.Ltmp342:
	{
		nop
		ldw r3, r0[1]
	}
	bt r3, .LBB55_2
.Ltmp343:
	{
		nop
		ldw r3, r0[0]
	}
.Ltmp344:
	.loc	6 106 3 prologue_end
	#APP
	chkct res[r3], 0x1
	#NO_APP
	{
		mkmsk r3, 1
		nop
	}
.Ltmp345:
	{
		nop
		stw r3, r0[1]
	}
.Ltmp346:
.LBB55_2:
	bf r2, .LBB55_5
.Ltmp347:
	{
		nop
		ldw r0, r0[0]
	}
.Ltmp348:
.LBB55_4:
	{
		nop
		ldw r3, r1[0]
	}
.Ltmp349:
	.loc	6 67 3
	#APP
	out res[r0], r3
	#NO_APP
.Ltmp350:
	.loc	9 175 3
	{
		add r1, r1, 4
		sub r2, r2, 1
	}
	bt r2, .LBB55_4
.Ltmp351:
.LBB55_5:
	{
		ldc r0, 0
		retsp 0
	}
	.loc	9 175 3
	# RETURN_REG_HOLDER
.Ltmp352:
	.cc_bottom t_chan_out_buf_word.function
	.set	t_chan_out_buf_word.nstackwords,0
	.globl	t_chan_out_buf_word.nstackwords
	.set	t_chan_out_buf_word.maxcores,1
	.globl	t_chan_out_buf_word.maxcores
	.set	t_chan_out_buf_word.maxtimers,0
	.globl	t_chan_out_buf_word.maxtimers
	.set	t_chan_out_buf_word.maxchanends,0
	.globl	t_chan_out_buf_word.maxchanends
.Ltmp353:
	.size	t_chan_out_buf_word, .Ltmp353-t_chan_out_buf_word
.Lfunc_end55:
	.cfi_endproc

	.globl	t_chan_out_buf_byte
	.align	4
	.type	t_chan_out_buf_byte,@function
	.cc_top t_chan_out_buf_byte.function,t_chan_out_buf_byte
t_chan_out_buf_byte:
.Lfunc_begin56:
	.loc	9 198 0
	.cfi_startproc
	.issue_mode dual
	{
		nop
		dualentsp 0
	}
.Ltmp354:
	{
		nop
		ldw r3, r0[1]
	}
	bt r3, .LBB56_2
.Ltmp355:
	{
		nop
		ldw r3, r0[0]
	}
.Ltmp356:
	.loc	6 106 3 prologue_end
	#APP
	chkct res[r3], 0x1
	#NO_APP
	{
		mkmsk r3, 1
		nop
	}
.Ltmp357:
	{
		nop
		stw r3, r0[1]
	}
.Ltmp358:
.LBB56_2:
	bf r2, .LBB56_5
.Ltmp359:
	.loc	9 199 3
	{
		ldc r3, 0
		ldw r0, r0[0]
	}
.Ltmp360:
.LBB56_4:
	{
		nop
		ld8u r11, r1[r3]
	}
	.loc	6 72 3
.Ltmp361:
	#APP
	outt res[r0], r11
	#NO_APP
.Ltmp362:
	.loc	9 199 3
	{
		add r1, r1, 1
		sub r2, r2, 1
	}
	bt r2, .LBB56_4
.Ltmp363:
.LBB56_5:
	{
		ldc r0, 0
		retsp 0
	}
	.loc	9 199 3
	# RETURN_REG_HOLDER
.Ltmp364:
	.cc_bottom t_chan_out_buf_byte.function
	.set	t_chan_out_buf_byte.nstackwords,0
	.globl	t_chan_out_buf_byte.nstackwords
	.set	t_chan_out_buf_byte.maxcores,1
	.globl	t_chan_out_buf_byte.maxcores
	.set	t_chan_out_buf_byte.maxtimers,0
	.globl	t_chan_out_buf_byte.maxtimers
	.set	t_chan_out_buf_byte.maxchanends,0
	.globl	t_chan_out_buf_byte.maxchanends
.Ltmp365:
	.size	t_chan_out_buf_byte, .Ltmp365-t_chan_out_buf_byte
.Lfunc_end56:
	.cfi_endproc

	.globl	t_chan_in_word
	.align	4
	.type	t_chan_in_word,@function
	.cc_top t_chan_in_word.function,t_chan_in_word
t_chan_in_word:
.Lfunc_begin57:
	.loc	9 221 0
	.cfi_startproc
	.issue_mode dual
	{
		nop
		dualentsp 0
	}
.Ltmp366:
	{
		nop
		ldw r3, r0[1]
	}
	{
		nop
		ldw r2, r0[0]
	}
.Ltmp367:
	bf r3, .LBB57_2
.Ltmp368:
	.loc	6 96 3 prologue_end
	#APP
	outct res[r2], 0x1
	#NO_APP
	{
		ldc r3, 0
		nop
	}
	{
		nop
		stw r3, r0[1]
	}
.Ltmp369:
.LBB57_2:
	.loc	6 78 3
	#APP
	in r0, res[r2]
	#NO_APP
.Ltmp370:
	.loc	9 222 3
	{
		ldc r0, 0
		stw r0, r1[0]
	}
.Ltmp371:
	{
		nop
		retsp 0
	}
.Ltmp372:
	.loc	9 222 3
	# RETURN_REG_HOLDER
.Ltmp373:
	.cc_bottom t_chan_in_word.function
	.set	t_chan_in_word.nstackwords,0
	.globl	t_chan_in_word.nstackwords
	.set	t_chan_in_word.maxcores,1
	.globl	t_chan_in_word.maxcores
	.set	t_chan_in_word.maxtimers,0
	.globl	t_chan_in_word.maxtimers
	.set	t_chan_in_word.maxchanends,0
	.globl	t_chan_in_word.maxchanends
.Ltmp374:
	.size	t_chan_in_word, .Ltmp374-t_chan_in_word
.Lfunc_end57:
	.cfi_endproc

	.globl	t_chan_in_byte
	.align	4
	.type	t_chan_in_byte,@function
	.cc_top t_chan_in_byte.function,t_chan_in_byte
t_chan_in_byte:
.Lfunc_begin58:
	.loc	9 242 0
	.cfi_startproc
	.issue_mode dual
	{
		nop
		dualentsp 0
	}
.Ltmp375:
	{
		nop
		ldw r3, r0[1]
	}
	{
		nop
		ldw r2, r0[0]
	}
.Ltmp376:
	bf r3, .LBB58_2
.Ltmp377:
	.loc	6 96 3 prologue_end
	#APP
	outct res[r2], 0x1
	#NO_APP
	{
		ldc r3, 0
		nop
	}
	{
		nop
		stw r3, r0[1]
	}
.Ltmp378:
.LBB58_2:
	.loc	6 85 3
	#APP
	int r2, res[r2]
	#NO_APP
.Ltmp379:
	.loc	9 243 3
	{
		ldc r0, 0
		nop
	}
	st8 r2, r1[r0]
	{
		nop
		retsp 0
	}
.Ltmp380:
	.loc	9 243 3
	# RETURN_REG_HOLDER
.Ltmp381:
	.cc_bottom t_chan_in_byte.function
	.set	t_chan_in_byte.nstackwords,0
	.globl	t_chan_in_byte.nstackwords
	.set	t_chan_in_byte.maxcores,1
	.globl	t_chan_in_byte.maxcores
	.set	t_chan_in_byte.maxtimers,0
	.globl	t_chan_in_byte.maxtimers
	.set	t_chan_in_byte.maxchanends,0
	.globl	t_chan_in_byte.maxchanends
.Ltmp382:
	.size	t_chan_in_byte, .Ltmp382-t_chan_in_byte
.Lfunc_end58:
	.cfi_endproc

	.globl	t_chan_in_buf_word
	.align	4
	.type	t_chan_in_buf_word,@function
	.cc_top t_chan_in_buf_word.function,t_chan_in_buf_word
t_chan_in_buf_word:
.Lfunc_begin59:
	.loc	9 264 0
	.cfi_startproc
	.issue_mode dual
	{
		nop
		dualentsp 0
	}
.Ltmp383:
	{
		nop
		ldw r3, r0[1]
	}
	bf r3, .LBB59_2
.Ltmp384:
	{
		nop
		ldw r3, r0[0]
	}
.Ltmp385:
	.loc	6 96 3 prologue_end
	#APP
	outct res[r3], 0x1
	#NO_APP
	{
		ldc r3, 0
		nop
	}
.Ltmp386:
	{
		nop
		stw r3, r0[1]
	}
.Ltmp387:
.LBB59_2:
	bf r2, .LBB59_5
.Ltmp388:
	{
		nop
		ldw r0, r0[0]
	}
.Ltmp389:
.LBB59_4:
	.loc	6 78 3
	#APP
	in r3, res[r0]
	#NO_APP
.Ltmp390:
	.loc	9 265 3
	{
		add r1, r1, 4
		stw r3, r1[0]
	}
.Ltmp391:
	.loc	9 265 3
	{
		sub r2, r2, 1
		nop
	}
	bt r2, .LBB59_4
.Ltmp392:
.LBB59_5:
	{
		ldc r0, 0
		retsp 0
	}
	.loc	9 265 3
	# RETURN_REG_HOLDER
.Ltmp393:
	.cc_bottom t_chan_in_buf_word.function
	.set	t_chan_in_buf_word.nstackwords,0
	.globl	t_chan_in_buf_word.nstackwords
	.set	t_chan_in_buf_word.maxcores,1
	.globl	t_chan_in_buf_word.maxcores
	.set	t_chan_in_buf_word.maxtimers,0
	.globl	t_chan_in_buf_word.maxtimers
	.set	t_chan_in_buf_word.maxchanends,0
	.globl	t_chan_in_buf_word.maxchanends
.Ltmp394:
	.size	t_chan_in_buf_word, .Ltmp394-t_chan_in_buf_word
.Lfunc_end59:
	.cfi_endproc

	.globl	t_chan_in_buf_byte
	.align	4
	.type	t_chan_in_buf_byte,@function
	.cc_top t_chan_in_buf_byte.function,t_chan_in_buf_byte
t_chan_in_buf_byte:
.Lfunc_begin60:
	.loc	9 288 0
	.cfi_startproc
	.issue_mode dual
	{
		nop
		dualentsp 0
	}
.Ltmp395:
	{
		nop
		ldw r3, r0[1]
	}
	bf r3, .LBB60_2
.Ltmp396:
	{
		nop
		ldw r3, r0[0]
	}
.Ltmp397:
	.loc	6 96 3 prologue_end
	#APP
	outct res[r3], 0x1
	#NO_APP
	{
		ldc r3, 0
		nop
	}
.Ltmp398:
	{
		nop
		stw r3, r0[1]
	}
.Ltmp399:
.LBB60_2:
	bf r2, .LBB60_5
.Ltmp400:
	.loc	9 289 3
	{
		ldc r3, 0
		nop
	}
.Ltmp401:
.LBB60_4:
	{
		nop
		ldw r11, r0[0]
	}
.Ltmp402:
	.loc	6 85 3
	#APP
	int r11, res[r11]
	#NO_APP
.Ltmp403:
	.loc	9 289 3
	st8 r11, r1[r3]
.Ltmp404:
	.loc	9 289 3
	{
		add r1, r1, 1
		sub r2, r2, 1
	}
	bt r2, .LBB60_4
.Ltmp405:
.LBB60_5:
	{
		ldc r0, 0
		retsp 0
	}
	.loc	9 289 3
	# RETURN_REG_HOLDER
.Ltmp406:
	.cc_bottom t_chan_in_buf_byte.function
	.set	t_chan_in_buf_byte.nstackwords,0
	.globl	t_chan_in_buf_byte.nstackwords
	.set	t_chan_in_buf_byte.maxcores,1
	.globl	t_chan_in_buf_byte.maxcores
	.set	t_chan_in_buf_byte.maxtimers,0
	.globl	t_chan_in_buf_byte.maxtimers
	.set	t_chan_in_buf_byte.maxchanends,0
	.globl	t_chan_in_buf_byte.maxchanends
.Ltmp407:
	.size	t_chan_in_buf_byte, .Ltmp407-t_chan_in_buf_byte
.Lfunc_end60:
	.cfi_endproc

.Ldebug_end0:
	.file	10 "C:\\Program Files (x86)\\XMOS\\xTIMEcomposer\\Community_14.4.1\\target/include/clang\\stddef.h"
	.section	.trap_info,"",@progbits
.Ltrap_info_entries_start0:
	.long	.Ltrap_info_entries_end0-.Ltrap_info_entries_start0
	.long	1
.Ltrap_info_entries_end0: