	.text
	.file	"format.c"
	.section	.cp.rodata.cst4,"aMc",@progbits,4
	.cc_top .LCPI0_0.data,.LCPI0_0
	.align	4
	.type	.LCPI0_0,@object
	.size	.LCPI0_0, 4
.LCPI0_0:
	.long	1048575
	.cc_bottom .LCPI0_0.data
	.text
	.globl	FLAC__format_sample_rate_is_valid
	.align	4
	.type	FLAC__format_sample_rate_is_valid,@function
	.cc_top FLAC__format_sample_rate_is_valid.function,FLAC__format_sample_rate_is_valid
FLAC__format_sample_rate_is_valid:
.Lfunc_begin0:
	.loc	1 213 0
	.cfi_startproc
	.issue_mode dual
	{
		sub r0, r0, 1
		dualentsp 0
	}
.Ltmp0:
	ldw r1, cp[.LCPI0_0]
	.loc	1 215 3 prologue_end
.Ltmp1:
	{
		lsu r0, r0, r1
		retsp 0
	}
.Ltmp2:
	.loc	1 219 1
	# RETURN_REG_HOLDER
.Ltmp3:
	.cc_bottom FLAC__format_sample_rate_is_valid.function
	.set	FLAC__format_sample_rate_is_valid.nstackwords,0
	.globl	FLAC__format_sample_rate_is_valid.nstackwords
	.set	FLAC__format_sample_rate_is_valid.maxcores,1
	.globl	FLAC__format_sample_rate_is_valid.maxcores
	.set	FLAC__format_sample_rate_is_valid.maxtimers,0
	.globl	FLAC__format_sample_rate_is_valid.maxtimers
	.set	FLAC__format_sample_rate_is_valid.maxchanends,0
	.globl	FLAC__format_sample_rate_is_valid.maxchanends
.Ltmp4:
	.size	FLAC__format_sample_rate_is_valid, .Ltmp4-FLAC__format_sample_rate_is_valid
.Lfunc_end0:
	.cfi_endproc

	.globl	FLAC__format_blocksize_is_subset
	.align	4
	.type	FLAC__format_blocksize_is_subset,@function
	.cc_top FLAC__format_blocksize_is_subset.function,FLAC__format_blocksize_is_subset
FLAC__format_blocksize_is_subset:
.Lfunc_begin1:
	.loc	1 222 0
	.cfi_startproc
	.issue_mode dual
	{
		nop
		dualentsp 0
	}
	ldc r2, 16384
	.loc	1 223 5 prologue_end
.Ltmp5:
	{
		lsu r2, r2, r0
		nop
	}
	.loc	1 223 5
	bf r2, .LBB1_2
.Ltmp6:
	{
		ldc r0, 0
		retsp 0
	}
	.loc	1 229 1
	# RETURN_REG_HOLDER
.LBB1_2:
.Ltmp7:
	ldc r2, 48001
	.loc	1 225 10
.Ltmp8:
	{
		lsu r1, r1, r2
		nop
	}
.Ltmp9:
	ldc r2, 4608
	.loc	1 225 10
	{
		lsu r0, r2, r0
		nop
	}
.Ltmp10:
	.loc	1 225 10
	{
		and r0, r1, r0
		mkmsk r1, 1
	}
	.loc	1 226 3
	xor r0, r0, r1
	{
		nop
		retsp 0
	}
.Ltmp11:
	.loc	1 229 1
	# RETURN_REG_HOLDER
.Ltmp12:
	.cc_bottom FLAC__format_blocksize_is_subset.function
	.set	FLAC__format_blocksize_is_subset.nstackwords,0
	.globl	FLAC__format_blocksize_is_subset.nstackwords
	.set	FLAC__format_blocksize_is_subset.maxcores,1
	.globl	FLAC__format_blocksize_is_subset.maxcores
	.set	FLAC__format_blocksize_is_subset.maxtimers,0
	.globl	FLAC__format_blocksize_is_subset.maxtimers
	.set	FLAC__format_blocksize_is_subset.maxchanends,0
	.globl	FLAC__format_blocksize_is_subset.maxchanends
.Ltmp13:
	.size	FLAC__format_blocksize_is_subset, .Ltmp13-FLAC__format_blocksize_is_subset
.Lfunc_end1:
	.cfi_endproc

	.section	.cp.rodata.cst4,"aMc",@progbits,4
	.cc_top .LCPI2_0.data,.LCPI2_0
	.align	4
	.type	.LCPI2_0,@object
	.size	.LCPI2_0, 4
.LCPI2_0:
	.long	1048574
	.cc_bottom .LCPI2_0.data
	.cc_top .LCPI2_1.data,.LCPI2_1
	.align	4
	.type	.LCPI2_1,@object
	.size	.LCPI2_1, 4
.LCPI2_1:
	.long	3435973837
	.cc_bottom .LCPI2_1.data
	.text
	.globl	FLAC__format_sample_rate_is_subset
	.align	4
	.type	FLAC__format_sample_rate_is_subset,@function
	.cc_top FLAC__format_sample_rate_is_subset.function,FLAC__format_sample_rate_is_subset
FLAC__format_sample_rate_is_subset:
.Lfunc_begin2:
	.loc	1 232 0
	.cfi_startproc
	.issue_mode dual
	{
		ldc r1, 17
		dualentsp 0
	}
	.loc	1 234 4 prologue_end
.Ltmp14:
	{
		shr r1, r0, r1
		ldc r2, 4
	}
	{
		lsu r1, r2, r1
		nop
	}
	bt r1, .LBB2_3
.Ltmp15:
	.loc	1 214 5
	{
		sub r1, r0, 1
		nop
	}
	ldw r2, cp[.LCPI2_0]
	{
		lsu r1, r2, r1
		nop
	}
	bt r1, .LBB2_3
.Ltmp16:
	.loc	1 234 4
	{
		shr r1, r0, 16
		nop
	}
	{
		eq r1, r1, 0
		ldc r2, 0
	}
	ldw r3, cp[.LCPI2_1]
	lmul r2, r3, r0, r3, r2, r2
	{
		shr r2, r2, 3
		ldc r3, 10
	}
	mul r2, r2, r3
	{
		sub r0, r0, r2
		nop
	}
.Ltmp17:
	.loc	1 234 4
	{
		eq r0, r0, 0
		nop
	}
	.loc	1 234 4
	{
		or r0, r1, r0
		retsp 0
	}
	.loc	1 234 4
	# RETURN_REG_HOLDER
.Ltmp18:
.LBB2_3:
	{
		ldc r0, 0
		retsp 0
	}
	.loc	1 242 1
	# RETURN_REG_HOLDER
.Ltmp19:
	.cc_bottom FLAC__format_sample_rate_is_subset.function
	.set	FLAC__format_sample_rate_is_subset.nstackwords,0
	.globl	FLAC__format_sample_rate_is_subset.nstackwords
	.set	FLAC__format_sample_rate_is_subset.maxcores,1
	.globl	FLAC__format_sample_rate_is_subset.maxcores
	.set	FLAC__format_sample_rate_is_subset.maxtimers,0
	.globl	FLAC__format_sample_rate_is_subset.maxtimers
	.set	FLAC__format_sample_rate_is_subset.maxchanends,0
	.globl	FLAC__format_sample_rate_is_subset.maxchanends
.Ltmp20:
	.size	FLAC__format_sample_rate_is_subset, .Ltmp20-FLAC__format_sample_rate_is_subset
.Lfunc_end2:
	.cfi_endproc

	.globl	FLAC__format_seektable_is_legal
	.align	4
	.type	FLAC__format_seektable_is_legal,@function
	.cc_top FLAC__format_seektable_is_legal.function,FLAC__format_seektable_is_legal
FLAC__format_seektable_is_legal:
.Lfunc_begin3:
	.loc	1 246 0
	.cfi_startproc
	.issue_mode dual
	{
		nop
		dualentsp 0
	}
	{
		extsp 8
		nop
	}
.Ltmp21:
	.cfi_def_cfa_offset 32
	std r5, r4, sp[0]
.Ltmp22:
	.cfi_offset 4, -32
.Ltmp23:
	.cfi_offset 5, -28
	std r7, r6, sp[1]
.Ltmp24:
	.cfi_offset 6, -24
.Ltmp25:
	.cfi_offset 7, -20
	std r9, r8, sp[2]
.Ltmp26:
	.cfi_offset 8, -16
.Ltmp27:
	.cfi_offset 9, -12
.Ltmp28:
	.cfi_offset 10, -8
.Ltmp29:
	{
		mov r1, r0
		stw r10, sp[6]
	}
.Ltmp30:
	{
		nop
		ldw r2, r1[0]
	}
	.loc	1 253 2 prologue_end
.Ltmp31:
	bf r2, .LBB3_1
.Ltmp32:
	{
		ldc r0, 0
		mkmsk r3, 1
	}
	{
		mkmsk r11, 32
		mov r4, r0
	}
	{
		mov r9, r3
		mov r6, r0
	}
	{
		mov r7, r0
		mov r5, r0
	}
.Ltmp33:
.LBB3_3:
	{
		mov r8, r7
		mov r10, r6
	}
	{
		nop
		ldw r6, r1[1]
	}
	{
		add r6, r6, r4
		nop
	}
	.loc	1 261 3
.Ltmp34:
	ldd r7, r6, r6[0]
	.loc	1 254 6
.Ltmp35:
	{
		zext r9, 1
		nop
	}
	bt r9, .LBB3_9
.Ltmp36:
	.loc	1 256 5
	{
		and r9, r6, r7
		nop
	}
	{
		eq r9, r9, r11
		nop
	}
	bt r9, .LBB3_9
.Ltmp37:
	{
		eq r9, r7, r8
		nop
	}
	bt r9, .LBB3_6
.Ltmp38:
	{
		lsu r8, r8, r7
		nop
	}
	bu .LBB3_8
.Ltmp39:
.LBB3_6:
	{
		lsu r8, r10, r6
		nop
	}
.Ltmp40:
.LBB3_8:
	{
		eq r8, r8, 0
		nop
	}
.Ltmp41:
	bt r8, .LBB3_11
.Ltmp42:
.LBB3_9:
	.loc	1 253 41
	{
		add r5, r5, 1
		nop
	}
.Ltmp43:
	.loc	1 253 2
	ldaw r4, r4[6]
	.loc	1 253 2
	{
		lsu r8, r5, r2
		mov r9, r0
	}
	bt r8, .LBB3_3
.Ltmp44:
	{
		mov r0, r3
		nop
	}
	bu .LBB3_11
.LBB3_1:
.Ltmp45:
	{
		mkmsk r0, 1
		nop
	}
.LBB3_11:
	{
		nop
		ldw r10, sp[6]
	}
	.loc	1 266 1
	ldd r9, r8, sp[2]
	ldd r7, r6, sp[1]
	ldd r5, r4, sp[0]
	{
		ldaw sp, sp[8]
		nop
	}
	{
		nop
		retsp 0
	}
	# RETURN_REG_HOLDER
.Ltmp46:
	.cc_bottom FLAC__format_seektable_is_legal.function
	.set	FLAC__format_seektable_is_legal.nstackwords,8
	.globl	FLAC__format_seektable_is_legal.nstackwords
	.set	FLAC__format_seektable_is_legal.maxcores,1
	.globl	FLAC__format_seektable_is_legal.maxcores
	.set	FLAC__format_seektable_is_legal.maxtimers,0
	.globl	FLAC__format_seektable_is_legal.maxtimers
	.set	FLAC__format_seektable_is_legal.maxchanends,0
	.globl	FLAC__format_seektable_is_legal.maxchanends
.Ltmp47:
	.size	FLAC__format_seektable_is_legal, .Ltmp47-FLAC__format_seektable_is_legal
.Lfunc_end3:
	.cfi_endproc

	.globl	FLAC__format_seektable_sort
	.align	4
	.type	FLAC__format_seektable_sort,@function
	.cc_top FLAC__format_seektable_sort.function,FLAC__format_seektable_sort
FLAC__format_seektable_sort:
.Lfunc_begin4:
	.loc	1 282 0
	.cfi_startproc
	.issue_mode dual
	{
		nop
		dualentsp 10
	}
.Ltmp48:
	.cfi_def_cfa_offset 40
.Ltmp49:
	.cfi_offset 15, 0
	std r5, r4, sp[1]
.Ltmp50:
	.cfi_offset 4, -32
.Ltmp51:
	.cfi_offset 5, -28
	std r7, r6, sp[2]
.Ltmp52:
	.cfi_offset 6, -24
.Ltmp53:
	.cfi_offset 7, -20
	std r9, r8, sp[3]
.Ltmp54:
	.cfi_offset 8, -16
.Ltmp55:
	.cfi_offset 9, -12
.Ltmp56:
	.cfi_offset 10, -8
.Ltmp57:
	{
		mov r7, r0
		stw r10, sp[8]
	}
.Ltmp58:
	{
		nop
		ldw r1, r7[0]
	}
	.loc	1 288 6 prologue_end
.Ltmp59:
	bf r1, .LBB4_1
.Ltmp60:
	{
		nop
		ldw r0, r7[1]
	}
	.loc	1 292 2
	ldap r11, seekpoint_compare_
	{
		ldc r2, 24
		mov r3, r11
	}
	bl qsort
.Ltmp61:
	.loc	1 296 2
	{
		ldc r6, 0
		ldw r0, r7[0]
	}
	bf r0, .LBB4_2
.Ltmp62:
	{
		mkmsk r3, 1
		mov r10, r6
	}
	{
		mov r9, r6
		nop
	}
.Ltmp63:
.LBB4_5:
	.loc	1 297 6
	{
		mov r4, r7
		ldw r11, r7[1]
	}
.Ltmp64:
	{
		add r1, r11, r6
		nop
	}
	.loc	1 297 6
	ldd r8, r2, r1[0]
	.loc	1 297 6
	{
		and r7, r2, r8
		mkmsk r5, 32
	}
	{
		eq r7, r7, r5
		nop
	}
	bt r7, .LBB4_13
.Ltmp65:
	{
		zext r3, 1
		nop
	}
	bt r3, .LBB4_13
.Ltmp66:
	{
		ldc r3, 24
		nop
	}
	.loc	1 299 8
.Ltmp67:
	mul r3, r10, r3
	.loc	1 299 8
	{
		add r3, r3, r11
		nop
	}
	ldaw r3, r3[-6]
	.loc	1 299 8
	ldd r7, r3, r3[0]
	.loc	1 299 8
	xor r7, r8, r7
	xor r3, r2, r3
	{
		or r3, r3, r7
		nop
	}
	bt r3, .LBB4_13
.Ltmp68:
	{
		mov r5, r10
		mov r7, r4
	}
.Ltmp69:
	bu .LBB4_14
.LBB4_13:
.Ltmp70:
	.loc	1 304 3
	{
		add r5, r10, 1
		ldc r2, 24
	}
.Ltmp71:
	.loc	1 304 3
	mul r0, r10, r2
	{
		add r0, r11, r0
		nop
	}
	.loc	1 304 3
	bl __memcpy_4
	{
		mov r7, r4
		nop
	}
.Ltmp72:
	{
		nop
		ldw r0, r7[0]
	}
.Ltmp73:
.LBB4_14:
	.loc	1 296 45
	{
		add r9, r9, 1
		nop
	}
.Ltmp74:
	.loc	1 296 2
	ldaw r6, r6[6]
	.loc	1 296 2
	{
		lsu r1, r9, r0
		ldc r3, 0
	}
	{
		mov r10, r5
		nop
	}
	bt r1, .LBB4_5
.Ltmp75:
	.loc	1 307 2
	{
		lsu r1, r5, r0
		nop
	}
	bf r1, .LBB4_12
.Ltmp76:
	.loc	1 308 3
	{
		ldc r2, 24
		ldw r1, r7[1]
	}
	mul r2, r5, r2
	{
		add r1, r1, r2
		ldc r2, 0
	}
	{
		mov r3, r5
		mkmsk r4, 32
	}
.Ltmp77:
.LBB4_11:
	.loc	1 308 3
	std r4, r4, r1[0]
	{
		add r11, r1, 8
		nop
	}
	.loc	1 309 3
	std r2, r2, r11[0]
.Ltmp78:
	.loc	1 310 3
	{
		add r3, r3, 1
		stw r2, r1[4]
	}
.Ltmp79:
	.loc	1 307 2
	ldaw r1, r1[6]
	.loc	1 307 2
	{
		lsu r11, r3, r0
		nop
	}
	bt r11, .LBB4_11
.Ltmp80:
.LBB4_12:
	{
		mov r6, r5
		nop
	}
	bu .LBB4_2
.LBB4_1:
	{
		ldc r6, 0
		nop
	}
.LBB4_2:
	.loc	1 314 1
	{
		mov r0, r6
		ldw r10, sp[8]
	}
	ldd r9, r8, sp[3]
	ldd r7, r6, sp[2]
	ldd r5, r4, sp[1]
	{
		nop
		retsp 10
	}
	# RETURN_REG_HOLDER
.Ltmp81:
	.cc_bottom FLAC__format_seektable_sort.function
	.set	FLAC__format_seektable_sort.nstackwords,((qsort.nstackwords $M __memcpy_4.nstackwords) + 10)
	.globl	FLAC__format_seektable_sort.nstackwords
	.set	FLAC__format_seektable_sort.maxcores,qsort.maxcores $M 1
	.globl	FLAC__format_seektable_sort.maxcores
	.set	FLAC__format_seektable_sort.maxtimers,qsort.maxtimers $M 0
	.globl	FLAC__format_seektable_sort.maxtimers
	.set	FLAC__format_seektable_sort.maxchanends,qsort.maxchanends $M 0
	.globl	FLAC__format_seektable_sort.maxchanends
.Ltmp82:
	.size	FLAC__format_seektable_sort, .Ltmp82-FLAC__format_seektable_sort
.Lfunc_end4:
	.cfi_endproc

	.align	4
	.type	seekpoint_compare_,@function
	.cc_top seekpoint_compare_.function,seekpoint_compare_
seekpoint_compare_:
.Lfunc_begin5:
	.loc	1 270 0
	.cfi_startproc
	.issue_mode dual
	{
		nop
		dualentsp 0
	}
	{
		extsp 2
		nop
	}
.Ltmp83:
	.cfi_def_cfa_offset 8
	{
		nop
		stw r4, sp[0]
	}
.Ltmp84:
	.cfi_offset 4, -8
	.loc	1 272 5 prologue_end
.Ltmp85:
	ldd r2, r0, r0[0]
.Ltmp86:
	.loc	1 272 5
	ldd r3, r1, r1[0]
.Ltmp87:
	.loc	1 272 5
	xor r11, r2, r3
	xor r4, r0, r1
	{
		or r11, r4, r11
		nop
	}
	.loc	1 272 5
	bt r11, .LBB5_2
	{
		ldc r0, 0
		nop
	}
	bu .LBB5_8
.LBB5_2:
	.loc	1 274 10
.Ltmp88:
	{
		eq r11, r2, r3
		nop
	}
	bt r11, .LBB5_3
	{
		lsu r0, r2, r3
		nop
	}
	bu .LBB5_5
.LBB5_3:
	{
		lsu r0, r0, r1
		nop
	}
.LBB5_5:
	.loc	1 275 3
	bt r0, .LBB5_6
.Ltmp89:
	{
		mkmsk r0, 1
		nop
	}
	bu .LBB5_8
.LBB5_6:
	{
		mkmsk r0, 32
		nop
	}
.LBB5_8:
	.loc	1 278 1
	{
		ldaw sp, sp[2]
		ldw r4, sp[0]
	}
	{
		nop
		retsp 0
	}
	# RETURN_REG_HOLDER
.Ltmp90:
	.cc_bottom seekpoint_compare_.function
	.set	seekpoint_compare_.nstackwords,2
	.set	seekpoint_compare_.maxcores,1
	.set	seekpoint_compare_.maxtimers,0
	.set	seekpoint_compare_.maxchanends,0
.Ltmp91:
	.size	seekpoint_compare_, .Ltmp91-seekpoint_compare_
.Lfunc_end5:
	.cfi_endproc

	.globl	FLAC__format_vorbiscomment_entry_name_is_legal
	.align	4
	.type	FLAC__format_vorbiscomment_entry_name_is_legal,@function
	.cc_top FLAC__format_vorbiscomment_entry_name_is_legal.function,FLAC__format_vorbiscomment_entry_name_is_legal
FLAC__format_vorbiscomment_entry_name_is_legal:
.Lfunc_begin6:
	.loc	1 364 0
	.cfi_startproc
	.issue_mode dual
	{
		nop
		dualentsp 0
	}
	{
		extsp 4
		nop
	}
.Ltmp92:
	.cfi_def_cfa_offset 16
	std r5, r4, sp[0]
.Ltmp93:
	.cfi_offset 4, -16
.Ltmp94:
	.cfi_offset 5, -12
.Ltmp95:
	.cfi_offset 6, -8
.Ltmp96:
	{
		mov r1, r0
		stw r6, sp[2]
	}
.Ltmp97:
	.loc	1 366 6 prologue_end
	{
		ldc r2, 0
		nop
	}
	{
		mkmsk r0, 1
		ld8u r3, r1[r2]
	}
	bf r3, .LBB6_7
.Ltmp98:
	{
		add r1, r1, 1
		nop
	}
.Ltmp99:
	ldc r11, 224
	{
		ldc r4, 61
		nop
	}
	ldc r5, 126
.LBB6_3:
	.loc	1 367 6
.Ltmp100:
	{
		and r6, r3, r11
		nop
	}
	{
		shr r6, r6, 5
		nop
	}
	bf r6, .LBB6_6
.Ltmp101:
	{
		zext r3, 8
		nop
	}
	{
		eq r6, r3, r4
		nop
	}
	bt r6, .LBB6_6
	{
		lsu r3, r3, r5
		nop
	}
	bf r3, .LBB6_6
	.loc	1 366 6
	{
		add r1, r1, 1
		ld8u r3, r1[r2]
	}
	bt r3, .LBB6_3
	bu .LBB6_7
.Ltmp102:
.LBB6_6:
	{
		mov r0, r2
		nop
	}
.LBB6_7:
	{
		nop
		ldw r6, sp[2]
	}
	.loc	1 370 1
	ldd r5, r4, sp[0]
	{
		ldaw sp, sp[4]
		nop
	}
	{
		nop
		retsp 0
	}
	# RETURN_REG_HOLDER
.Ltmp103:
	.cc_bottom FLAC__format_vorbiscomment_entry_name_is_legal.function
	.set	FLAC__format_vorbiscomment_entry_name_is_legal.nstackwords,4
	.globl	FLAC__format_vorbiscomment_entry_name_is_legal.nstackwords
	.set	FLAC__format_vorbiscomment_entry_name_is_legal.maxcores,1
	.globl	FLAC__format_vorbiscomment_entry_name_is_legal.maxcores
	.set	FLAC__format_vorbiscomment_entry_name_is_legal.maxtimers,0
	.globl	FLAC__format_vorbiscomment_entry_name_is_legal.maxtimers
	.set	FLAC__format_vorbiscomment_entry_name_is_legal.maxchanends,0
	.globl	FLAC__format_vorbiscomment_entry_name_is_legal.maxchanends
.Ltmp104:
	.size	FLAC__format_vorbiscomment_entry_name_is_legal, .Ltmp104-FLAC__format_vorbiscomment_entry_name_is_legal
.Lfunc_end6:
	.cfi_endproc

	.globl	FLAC__format_vorbiscomment_entry_value_is_legal
	.align	4
	.type	FLAC__format_vorbiscomment_entry_value_is_legal,@function
	.cc_top FLAC__format_vorbiscomment_entry_value_is_legal.function,FLAC__format_vorbiscomment_entry_value_is_legal
FLAC__format_vorbiscomment_entry_value_is_legal:
.Lfunc_begin7:
	.loc	1 373 0
	.cfi_startproc
	.issue_mode dual
	{
		nop
		dualentsp 6
	}
.Ltmp105:
	.cfi_def_cfa_offset 24
.Ltmp106:
	.cfi_offset 15, 0
	std r5, r4, sp[1]
.Ltmp107:
	.cfi_offset 4, -16
.Ltmp108:
	.cfi_offset 5, -12
.Ltmp109:
	.cfi_offset 6, -8
.Ltmp110:
	{
		mov r4, r0
		stw r6, sp[4]
	}
.Ltmp111:
	{
		mkmsk r0, 32
		nop
	}
	.loc	1 374 5 prologue_end
.Ltmp112:
	{
		eq r0, r1, r0
		nop
	}
	bt r0, .LBB7_1
.Ltmp113:
	.loc	1 383 3
	{
		add r6, r4, r1
		mkmsk r0, 1
	}
.Ltmp114:
	.loc	1 384 3
	{
		lss r0, r1, r0
		nop
	}
	bt r0, .LBB7_9
.Ltmp115:
	{
		ldc r5, 0
		nop
	}
.Ltmp116:
.LBB7_7:
	.loc	1 385 17
	{
		mov r0, r4
		nop
	}
	bl utf8len_
.Ltmp117:
	bf r0, .LBB7_11
.Ltmp118:
	.loc	1 388 4
	{
		add r4, r4, r0
		nop
	}
.Ltmp119:
	.loc	1 384 3
	{
		lsu r0, r4, r6
		nop
	}
.Ltmp120:
	bt r0, .LBB7_7
.LBB7_9:
.Ltmp121:
	.loc	1 390 6
	{
		eq r0, r4, r6
		nop
	}
	bt r0, .LBB7_4
.Ltmp122:
	{
		ldc r5, 0
		nop
	}
	bu .LBB7_11
.LBB7_1:
.Ltmp123:
	.loc	1 375 3
	{
		ldc r5, 0
		nop
	}
	{
		nop
		ld8u r0, r4[r5]
	}
	bf r0, .LBB7_4
.Ltmp124:
.LBB7_2:
	.loc	1 376 17
	{
		mov r0, r4
		nop
	}
	bl utf8len_
.Ltmp125:
	bf r0, .LBB7_11
.Ltmp126:
	.loc	1 379 4
	{
		add r1, r4, r0
		ld8u r0, r4[r0]
	}
.Ltmp127:
	{
		mov r4, r1
		nop
	}
.Ltmp128:
	bt r0, .LBB7_2
.Ltmp129:
.LBB7_4:
	{
		mkmsk r5, 1
		nop
	}
.LBB7_11:
	.loc	1 394 1
	{
		mov r0, r5
		ldw r6, sp[4]
	}
	ldd r5, r4, sp[1]
	{
		nop
		retsp 6
	}
	# RETURN_REG_HOLDER
.Ltmp130:
	.cc_bottom FLAC__format_vorbiscomment_entry_value_is_legal.function
	.set	FLAC__format_vorbiscomment_entry_value_is_legal.nstackwords,(utf8len_.nstackwords + 6)
	.globl	FLAC__format_vorbiscomment_entry_value_is_legal.nstackwords
	.set	FLAC__format_vorbiscomment_entry_value_is_legal.maxcores,utf8len_.maxcores $M 1
	.globl	FLAC__format_vorbiscomment_entry_value_is_legal.maxcores
	.set	FLAC__format_vorbiscomment_entry_value_is_legal.maxtimers,utf8len_.maxtimers $M 0
	.globl	FLAC__format_vorbiscomment_entry_value_is_legal.maxtimers
	.set	FLAC__format_vorbiscomment_entry_value_is_legal.maxchanends,utf8len_.maxchanends $M 0
	.globl	FLAC__format_vorbiscomment_entry_value_is_legal.maxchanends
.Ltmp131:
	.size	FLAC__format_vorbiscomment_entry_value_is_legal, .Ltmp131-FLAC__format_vorbiscomment_entry_value_is_legal
.Lfunc_end7:
	.cfi_endproc

	.align	4
	.type	utf8len_,@function
	.cc_top utf8len_.function,utf8len_
utf8len_:
.Lfunc_begin8:
	.loc	1 323 0
	.cfi_startproc
	.issue_mode dual
	{
		nop
		dualentsp 0
	}
	{
		extsp 4
		nop
	}
.Ltmp132:
	.cfi_def_cfa_offset 16
	std r5, r4, sp[0]
.Ltmp133:
	.cfi_offset 4, -16
.Ltmp134:
	.cfi_offset 5, -12
	std r7, r6, sp[1]
.Ltmp135:
	.cfi_offset 6, -8
.Ltmp136:
	.cfi_offset 7, -4
.Ltmp137:
	{
		mov r1, r0
		ldc r0, 0
	}
.Ltmp138:
	{
		nop
		ld8u r2, r1[r0]
	}
	ldc r3, 128
	.loc	1 325 6 prologue_end
.Ltmp139:
	{
		and r11, r2, r3
		nop
	}
	.loc	1 325 6
	bf r11, .LBB8_1
.Ltmp140:
	ldc r5, 224
	.loc	1 328 11
.Ltmp141:
	{
		and r4, r2, r5
		nop
	}
	ldc r11, 192
	.loc	1 328 11
	{
		eq r4, r4, r11
		nop
	}
	bf r4, .LBB8_7
.Ltmp142:
	{
		mkmsk r4, 1
		nop
	}
	{
		nop
		ld8u r4, r1[r4]
	}
	.loc	1 328 11
	{
		shr r4, r4, 6
		nop
	}
	{
		eq r4, r4, 2
		nop
	}
	bf r4, .LBB8_7
.Ltmp143:
	ldc r0, 254
	.loc	1 329 7
.Ltmp144:
	{
		and r0, r2, r0
		nop
	}
	.loc	1 329 7
	{
		eq r0, r0, r11
		nop
	}
	.loc	1 330 4
	bt r0, .LBB8_5
.Ltmp145:
	{
		ldc r0, 2
		nop
	}
	bu .LBB8_17
.LBB8_7:
.Ltmp146:
	.loc	1 333 11
	{
		shr r4, r2, 4
		ldc r6, 14
	}
	{
		eq r4, r4, r6
		nop
	}
	bf r4, .LBB8_18
.Ltmp147:
	{
		mkmsk r4, 1
		nop
	}
	{
		nop
		ld8u r4, r1[r4]
	}
	.loc	1 333 11
	{
		and r6, r4, r11
		nop
	}
	.loc	1 333 11
	{
		eq r6, r6, r3
		nop
	}
	bf r6, .LBB8_18
.Ltmp148:
	{
		ldc r6, 2
		nop
	}
	{
		nop
		ld8u r6, r1[r6]
	}
	.loc	1 333 11
	{
		shr r7, r6, 6
		nop
	}
	{
		eq r7, r7, 2
		nop
	}
	bf r7, .LBB8_18
.Ltmp149:
	{
		and r1, r4, r5
		eq r11, r2, r5
	}
	bf r11, .LBB8_12
	{
		eq r3, r1, r3
		nop
	}
	bt r3, .LBB8_17
.LBB8_12:
	ldc r3, 237
	.loc	1 337 7
.Ltmp150:
	{
		eq r3, r2, r3
		nop
	}
	bf r3, .LBB8_14
.Ltmp151:
	ldc r3, 160
	{
		eq r1, r1, r3
		nop
	}
	bt r1, .LBB8_17
.LBB8_14:
	ldc r0, 239
	.loc	1 339 7
.Ltmp152:
	{
		eq r0, r2, r0
		nop
	}
	ldc r1, 191
	.loc	1 339 7
	{
		eq r1, r4, r1
		nop
	}
	.loc	1 339 7
	{
		and r0, r0, r1
		shr r1, r6, 1
	}
	ldc r2, 95
	.loc	1 339 7
	{
		eq r1, r1, r2
		nop
	}
	.loc	1 339 7
	{
		and r0, r0, r1
		nop
	}
	.loc	1 339 7
	bt r0, .LBB8_15
.Ltmp153:
	{
		mkmsk r0, 2
		nop
	}
	bu .LBB8_17
.LBB8_18:
.Ltmp154:
	.loc	1 343 11
	{
		shr r4, r2, 3
		ldc r5, 30
	}
	{
		eq r4, r4, r5
		nop
	}
	bf r4, .LBB8_25
.Ltmp155:
	{
		mkmsk r4, 1
		nop
	}
	{
		nop
		ld8u r4, r1[r4]
	}
	.loc	1 343 11
	{
		and r5, r4, r11
		nop
	}
	.loc	1 343 11
	{
		eq r5, r5, r3
		nop
	}
	bf r5, .LBB8_25
.Ltmp156:
	{
		ldc r5, 2
		nop
	}
	{
		nop
		ld8u r5, r1[r5]
	}
	.loc	1 343 11
	{
		shr r5, r5, 6
		nop
	}
	{
		eq r5, r5, 2
		nop
	}
	bf r5, .LBB8_25
.Ltmp157:
	{
		mkmsk r5, 2
		nop
	}
	{
		nop
		ld8u r5, r1[r5]
	}
	.loc	1 343 11
	{
		shr r5, r5, 6
		nop
	}
	{
		eq r5, r5, 2
		nop
	}
	bf r5, .LBB8_25
.Ltmp158:
	ldc r0, 240
	.loc	1 344 7
.Ltmp159:
	{
		eq r1, r2, r0
		and r0, r4, r0
	}
	.loc	1 344 7
	{
		eq r0, r0, r3
		nop
	}
	.loc	1 344 7
	{
		and r0, r1, r0
		nop
	}
	.loc	1 344 7
	bt r0, .LBB8_23
.Ltmp160:
	{
		ldc r0, 4
		nop
	}
	bu .LBB8_17
.LBB8_25:
.Ltmp161:
	.loc	1 348 11
	{
		shr r4, r2, 2
		ldc r5, 62
	}
	{
		eq r4, r4, r5
		nop
	}
	bf r4, .LBB8_33
.Ltmp162:
	{
		mkmsk r4, 1
		nop
	}
	{
		nop
		ld8u r4, r1[r4]
	}
	.loc	1 348 11
	{
		and r5, r4, r11
		nop
	}
	.loc	1 348 11
	{
		eq r5, r5, r3
		nop
	}
	bf r5, .LBB8_33
.Ltmp163:
	{
		ldc r5, 2
		nop
	}
	{
		nop
		ld8u r5, r1[r5]
	}
	.loc	1 348 11
	{
		shr r5, r5, 6
		nop
	}
	{
		eq r5, r5, 2
		nop
	}
	bf r5, .LBB8_33
.Ltmp164:
	{
		mkmsk r5, 2
		nop
	}
	{
		nop
		ld8u r5, r1[r5]
	}
	.loc	1 348 11
	{
		shr r5, r5, 6
		nop
	}
	{
		eq r5, r5, 2
		nop
	}
	bf r5, .LBB8_33
.Ltmp165:
	{
		ldc r5, 4
		nop
	}
	{
		nop
		ld8u r5, r1[r5]
	}
	.loc	1 348 11
	{
		shr r5, r5, 6
		nop
	}
	{
		eq r5, r5, 2
		nop
	}
	bf r5, .LBB8_33
.Ltmp166:
	ldc r0, 248
	.loc	1 349 7
.Ltmp167:
	{
		eq r1, r2, r0
		and r0, r4, r0
	}
	.loc	1 349 7
	{
		eq r0, r0, r3
		nop
	}
	.loc	1 349 7
	{
		and r0, r1, r0
		nop
	}
	.loc	1 349 7
	bt r0, .LBB8_31
.Ltmp168:
	{
		ldc r0, 5
		nop
	}
	bu .LBB8_17
.LBB8_1:
	{
		mkmsk r0, 1
		nop
	}
	bu .LBB8_17
.LBB8_33:
.Ltmp169:
	.loc	1 353 11
	{
		shr r4, r2, 1
		nop
	}
	ldc r5, 126
	{
		eq r4, r4, r5
		nop
	}
	bf r4, .LBB8_17
.Ltmp170:
	{
		mkmsk r4, 1
		nop
	}
	{
		nop
		ld8u r4, r1[r4]
	}
	.loc	1 353 11
	{
		and r11, r4, r11
		nop
	}
	.loc	1 353 11
	{
		eq r11, r11, r3
		nop
	}
	bf r11, .LBB8_17
.Ltmp171:
	{
		ldc r11, 2
		nop
	}
	{
		nop
		ld8u r11, r1[r11]
	}
	.loc	1 353 11
	{
		shr r11, r11, 6
		nop
	}
	{
		eq r11, r11, 2
		nop
	}
	bf r11, .LBB8_17
.Ltmp172:
	{
		mkmsk r11, 2
		nop
	}
	{
		nop
		ld8u r11, r1[r11]
	}
	.loc	1 353 11
	{
		shr r11, r11, 6
		nop
	}
	{
		eq r11, r11, 2
		nop
	}
	bf r11, .LBB8_17
.Ltmp173:
	{
		ldc r11, 4
		nop
	}
	{
		nop
		ld8u r11, r1[r11]
	}
	.loc	1 353 11
	{
		shr r11, r11, 6
		nop
	}
	{
		eq r11, r11, 2
		nop
	}
	bf r11, .LBB8_17
.Ltmp174:
	{
		ldc r11, 5
		nop
	}
	{
		nop
		ld8u r1, r1[r11]
	}
.Ltmp175:
	.loc	1 353 11
	{
		shr r1, r1, 6
		nop
	}
	{
		eq r1, r1, 2
		nop
	}
	bf r1, .LBB8_17
	ldc r0, 252
	.loc	1 354 7
.Ltmp176:
	{
		eq r1, r2, r0
		and r0, r4, r0
	}
	.loc	1 354 7
	{
		eq r0, r0, r3
		nop
	}
	.loc	1 354 7
	{
		and r0, r1, r0
		nop
	}
	.loc	1 354 7
	bt r0, .LBB8_40
.Ltmp177:
	{
		ldc r0, 6
		nop
	}
	bu .LBB8_17
.LBB8_5:
	{
		ldc r0, 0
		nop
	}
.LBB8_17:
	.loc	1 339 7
.Ltmp178:
	ldd r7, r6, sp[1]
	ldd r5, r4, sp[0]
	{
		ldaw sp, sp[4]
		nop
	}
	{
		nop
		retsp 0
	}
	# RETURN_REG_HOLDER
.Ltmp179:
.LBB8_23:
	{
		ldc r0, 0
		nop
	}
	bu .LBB8_17
.LBB8_15:
	{
		ldc r0, 0
		nop
	}
	bu .LBB8_17
.LBB8_31:
	{
		ldc r0, 0
		nop
	}
	bu .LBB8_17
.LBB8_40:
	{
		ldc r0, 0
		nop
	}
	bu .LBB8_17
	.cc_bottom utf8len_.function
	.set	utf8len_.nstackwords,4
	.set	utf8len_.maxcores,1
	.set	utf8len_.maxtimers,0
	.set	utf8len_.maxchanends,0
.Ltmp180:
	.size	utf8len_, .Ltmp180-utf8len_
.Lfunc_end8:
	.cfi_endproc

	.globl	FLAC__format_vorbiscomment_entry_is_legal
	.align	4
	.type	FLAC__format_vorbiscomment_entry_is_legal,@function
	.cc_top FLAC__format_vorbiscomment_entry_is_legal.function,FLAC__format_vorbiscomment_entry_is_legal
FLAC__format_vorbiscomment_entry_is_legal:
.Lfunc_begin9:
	.loc	1 397 0
	.cfi_startproc
	.issue_mode dual
	{
		nop
		dualentsp 6
	}
.Ltmp181:
	.cfi_def_cfa_offset 24
.Ltmp182:
	.cfi_offset 15, 0
	std r5, r4, sp[1]
.Ltmp183:
	.cfi_offset 4, -16
.Ltmp184:
	.cfi_offset 5, -12
.Ltmp185:
	.cfi_offset 6, -8
.Ltmp186:
	{
		add r6, r0, r1
		stw r6, sp[4]
	}
.Ltmp187:
	{
		ldc r4, 0
		nop
	}
	.loc	1 400 2 prologue_end
.Ltmp188:
	{
		lss r1, r4, r1
		nop
	}
.Ltmp189:
	bf r1, .LBB9_5
.Ltmp190:
	{
		ldc r1, 61
		nop
	}
	ldc r2, 93
.Ltmp191:
.LBB9_3:
	{
		nop
		ld8u r3, r0[r4]
	}
	.loc	1 400 2
	{
		eq r11, r3, r1
		nop
	}
	bt r11, .LBB9_5
.Ltmp192:
	.loc	1 401 6
	ldaw r3, r3[-8]
	{
		zext r3, 8
		nop
	}
	.loc	1 401 6
	{
		lsu r3, r2, r3
		nop
	}
	bt r3, .LBB9_11
.Ltmp193:
	.loc	1 400 57
	{
		add r0, r0, 1
		nop
	}
.Ltmp194:
	.loc	1 400 2
	{
		lsu r3, r0, r6
		nop
	}
	bt r3, .LBB9_3
.Ltmp195:
.LBB9_5:
	.loc	1 404 5
	{
		eq r1, r0, r6
		nop
	}
	bt r1, .LBB9_11
.Ltmp196:
	.loc	1 407 2
	{
		add r5, r0, 1
		nop
	}
	bu .LBB9_7
.Ltmp197:
.LBB9_9:
	.loc	1 413 3
	{
		add r5, r5, r0
		nop
	}
.Ltmp198:
.LBB9_7:
	.loc	1 409 2
	{
		lsu r0, r5, r6
		nop
	}
	bf r0, .LBB9_10
.Ltmp199:
	.loc	1 410 16
	{
		mov r0, r5
		nop
	}
	bl utf8len_
.Ltmp200:
	bt r0, .LBB9_9
	bu .LBB9_11
.Ltmp201:
.LBB9_10:
	.loc	1 415 5
	{
		eq r4, r5, r6
		nop
	}
.Ltmp202:
.LBB9_11:
	.loc	1 419 1
	{
		mov r0, r4
		ldw r6, sp[4]
	}
	ldd r5, r4, sp[1]
	{
		nop
		retsp 6
	}
	# RETURN_REG_HOLDER
.Ltmp203:
	.cc_bottom FLAC__format_vorbiscomment_entry_is_legal.function
	.set	FLAC__format_vorbiscomment_entry_is_legal.nstackwords,(utf8len_.nstackwords + 6)
	.globl	FLAC__format_vorbiscomment_entry_is_legal.nstackwords
	.set	FLAC__format_vorbiscomment_entry_is_legal.maxcores,utf8len_.maxcores $M 1
	.globl	FLAC__format_vorbiscomment_entry_is_legal.maxcores
	.set	FLAC__format_vorbiscomment_entry_is_legal.maxtimers,utf8len_.maxtimers $M 0
	.globl	FLAC__format_vorbiscomment_entry_is_legal.maxtimers
	.set	FLAC__format_vorbiscomment_entry_is_legal.maxchanends,utf8len_.maxchanends $M 0
	.globl	FLAC__format_vorbiscomment_entry_is_legal.maxchanends
.Ltmp204:
	.size	FLAC__format_vorbiscomment_entry_is_legal, .Ltmp204-FLAC__format_vorbiscomment_entry_is_legal
.Lfunc_end9:
	.cfi_endproc

	.section	.cp.rodata.cst4,"aMc",@progbits,4
	.cc_top .LCPI10_0.data,.LCPI10_0
	.align	4
	.type	.LCPI10_0,@object
	.size	.LCPI10_0, 4
.LCPI10_0:
	.long	88199
	.cc_bottom .LCPI10_0.data
	.cc_top .LCPI10_1.data,.LCPI10_1
	.align	4
	.type	.LCPI10_1,@object
	.size	.LCPI10_1, 4
.LCPI10_1:
	.long	4294967272
	.cc_bottom .LCPI10_1.data
	.cc_top .LCPI10_2.data,.LCPI10_2
	.align	4
	.type	.LCPI10_2,@object
	.size	.LCPI10_2, 4
.LCPI10_2:
	.long	4294967280
	.cc_bottom .LCPI10_2.data
	.cc_top .LCPI10_3.data,.LCPI10_3
	.align	4
	.type	.LCPI10_3,@object
	.size	.LCPI10_3, 4
.LCPI10_3:
	.long	4294967288
	.cc_bottom .LCPI10_3.data
	.text
	.globl	FLAC__format_cuesheet_is_legal
	.align	4
	.type	FLAC__format_cuesheet_is_legal,@function
	.cc_top FLAC__format_cuesheet_is_legal.function,FLAC__format_cuesheet_is_legal
FLAC__format_cuesheet_is_legal:
.Lfunc_begin10:
	.loc	1 423 0
	.cfi_startproc
	.issue_mode dual
	{
		nop
		dualentsp 14
	}
.Ltmp205:
	.cfi_def_cfa_offset 56
.Ltmp206:
	.cfi_offset 15, 0
	std r5, r4, sp[3]
.Ltmp207:
	.cfi_offset 4, -32
.Ltmp208:
	.cfi_offset 5, -28
	std r7, r6, sp[4]
.Ltmp209:
	.cfi_offset 6, -24
.Ltmp210:
	.cfi_offset 7, -20
	std r9, r8, sp[5]
.Ltmp211:
	.cfi_offset 8, -16
.Ltmp212:
	.cfi_offset 9, -12
.Ltmp213:
	.cfi_offset 10, -8
.Ltmp214:
	{
		mov r5, r2
		stw r10, sp[12]
	}
.Ltmp215:
	{
		mov r10, r1
		mov r7, r0
	}
.Ltmp216:
	bf r10, .LBB10_10
.Ltmp217:
	ldc r0, 136
	.loc	1 427 6 prologue_end
.Ltmp218:
	{
		add r0, r7, r0
		nop
	}
	.loc	1 427 6
	ldd r1, r0, r0[0]
	.loc	1 427 6
	bt r1, .LBB10_2
.Ltmp219:
	ldw r2, cp[.LCPI10_0]
	{
		lsu r2, r2, r0
		nop
	}
	bu .LBB10_4
.Ltmp220:
.LBB10_2:
	{
		eq r2, r1, 0
		nop
	}
	{
		eq r2, r2, 0
		nop
	}
.Ltmp221:
.LBB10_4:
	bt r2, .LBB10_7
.Ltmp222:
	{
		ldc r4, 0
		nop
	}
	bf r5, .LBB10_53
.Ltmp223:
	.loc	1 428 18
	ldaw r11, cp[.L.str42]
	{
		nop
		stw r11, r5[0]
	}
	bu .LBB10_53
.Ltmp224:
.LBB10_7:
	ldc r2, 588
	{
		ldc r4, 0
		nop
	}
	.loc	1 431 6
.Ltmp225:
	{
		mov r3, r4
		nop
	}
	bl __umoddi3
	.loc	1 431 6
	{
		or r0, r0, r1
		nop
	}
	bf r0, .LBB10_10
.Ltmp226:
	bf r5, .LBB10_53
.Ltmp227:
	.loc	1 432 18
	ldaw r11, cp[.L.str43]
	{
		nop
		stw r11, r5[0]
	}
	bu .LBB10_53
.Ltmp228:
.LBB10_10:
	ldc r0, 148
	.loc	1 437 5
.Ltmp229:
	{
		add r0, r7, r0
		nop
	}
	{
		nop
		ldw r8, r0[0]
	}
	{
		nop
		stw r8, sp[4]
	}
	.loc	1 437 5
	bf r8, .LBB10_11
.Ltmp230:
	bf r10, .LBB10_14
.Ltmp231:
	.loc	1 442 5
	{
		shl r0, r8, 5
		nop
	}
	ldc r1, 152
	.loc	1 442 5
	{
		add r1, r7, r1
		nop
	}
	{
		nop
		ldw r1, r1[0]
	}
	.loc	1 442 5
	{
		add r0, r0, r1
		nop
	}
	ldw r1, cp[.LCPI10_1]
	{
		nop
		ld8u r0, r0[r1]
	}
	ldc r1, 170
	.loc	1 442 5
	{
		eq r0, r0, r1
		nop
	}
	bf r0, .LBB10_19
.Ltmp232:
.LBB10_14:
	{
		nop
		stw r5, sp[2]
	}
.Ltmp233:
	ldc r0, 152
	.loc	1 448 6
.Ltmp234:
	{
		add r0, r7, r0
		nop
	}
	{
		nop
		ldw r1, r0[0]
	}
	{
		ldc r0, 0
		stw r1, sp[3]
	}
	{
		ldc r9, 8
		mov r7, r0
	}
.Ltmp235:
	{
		mov r6, r0
		nop
	}
.Ltmp236:
.LBB10_15:
	.loc	1 448 6
	{
		shl r0, r7, 5
		nop
	}
	{
		add r4, r1, r0
		nop
	}
	{
		nop
		ld8u r0, r4[r9]
	}
	bf r0, .LBB10_16
.Ltmp237:
	bf r10, .LBB10_31
.Ltmp238:
	ldc r1, 100
	.loc	1 454 7
.Ltmp239:
	{
		lsu r1, r0, r1
		nop
	}
	bt r1, .LBB10_26
.Ltmp240:
	ldc r1, 170
	{
		eq r0, r0, r1
		nop
	}
	bf r0, .LBB10_24
.Ltmp241:
.LBB10_26:
	.loc	1 460 6
	ldd r1, r0, r4[0]
	ldc r2, 588
	.loc	1 460 6
	{
		mov r3, r6
		nop
	}
	bl __umoddi3
	.loc	1 460 6
	{
		or r0, r0, r1
		nop
	}
	bt r0, .LBB10_27
.Ltmp242:
.LBB10_31:
	.loc	1 470 6
	{
		sub r0, r8, 1
		nop
	}
	.loc	1 470 6
	{
		lsu r0, r7, r0
		ldc r1, 23
	}
	{
		nop
		ld8u r8, r4[r1]
	}
	.loc	1 470 6
	bf r0, .LBB10_32
.Ltmp243:
	.loc	1 471 7
	bf r8, .LBB10_39
.Ltmp244:
	{
		nop
		stw r10, sp[5]
	}
.Ltmp245:
	{
		nop
		ldw r0, r4[6]
	}
	.loc	1 476 7
.Ltmp246:
	{
		ldc r1, 2
		ld8u r0, r0[r9]
	}
	.loc	1 476 7
	{
		lsu r0, r0, r1
		nop
	}
	bt r0, .LBB10_33
	bu .LBB10_42
.Ltmp247:
.LBB10_32:
	{
		nop
		stw r10, sp[5]
	}
.Ltmp248:
	bf r8, .LBB10_51
.Ltmp249:
.LBB10_33:
	{
		mov r10, r6
		mov r5, r6
	}
	{
		mov r0, r9
		mov r1, r6
	}
	{
		nop
		ldw r2, sp[5]
	}
	bf r2, .LBB10_46
.Ltmp250:
.LBB10_34:
	{
		nop
		ldw r0, r4[6]
	}
	{
		add r0, r0, r10
		nop
	}
	.loc	1 483 7
.Ltmp251:
	ldd r1, r0, r0[0]
	ldc r2, 588
	.loc	1 483 7
	{
		mov r3, r6
		nop
	}
	bl __umoddi3
	.loc	1 483 7
	{
		or r0, r0, r1
		nop
	}
	bt r0, .LBB10_44
.Ltmp252:
	bf r10, .LBB10_37
.Ltmp253:
	{
		nop
		ldw r0, r4[6]
	}
	{
		add r0, r0, r10
		nop
	}
	{
		nop
		ld8u r1, r0[r9]
	}
	ldw r2, cp[.LCPI10_3]
	{
		nop
		ld8u r0, r0[r2]
	}
	.loc	1 489 8
.Ltmp254:
	{
		add r0, r0, 1
		nop
	}
	.loc	1 489 8
	{
		eq r0, r1, r0
		nop
	}
	bf r0, .LBB10_48
.Ltmp255:
.LBB10_37:
	.loc	1 482 52
	{
		add r5, r5, 1
		nop
	}
.Ltmp256:
	.loc	1 482 3
	ldaw r10, r10[4]
	.loc	1 482 3
	{
		lsu r0, r5, r8
		nop
	}
	bt r0, .LBB10_34
	bu .LBB10_51
.Ltmp257:
.LBB10_46:
	bf r1, .LBB10_50
.Ltmp258:
	{
		nop
		ldw r2, r4[6]
	}
	{
		add r3, r2, r0
		ld8u r2, r2[r0]
	}
	ldw r11, cp[.LCPI10_2]
	{
		nop
		ld8u r3, r3[r11]
	}
	.loc	1 489 8
.Ltmp259:
	{
		add r3, r3, 1
		nop
	}
	.loc	1 489 8
	{
		eq r2, r2, r3
		nop
	}
	bf r2, .LBB10_48
.Ltmp260:
.LBB10_50:
	.loc	1 482 52
	{
		add r1, r1, 1
		ldc r2, 23
	}
.Ltmp261:
	{
		nop
		ld8u r2, r4[r2]
	}
	.loc	1 482 3
	ldaw r0, r0[4]
	.loc	1 482 3
	{
		lsu r2, r1, r2
		nop
	}
	bt r2, .LBB10_46
.Ltmp262:
.LBB10_51:
	.loc	1 447 40
	{
		add r7, r7, 1
		ldw r8, sp[4]
	}
.Ltmp263:
	.loc	1 447 2
	{
		lsu r0, r7, r8
		ldw r1, sp[3]
	}
	{
		nop
		ldw r10, sp[5]
	}
.Ltmp264:
	bt r0, .LBB10_15
.Ltmp265:
	{
		mkmsk r4, 1
		nop
	}
	bu .LBB10_53
.LBB10_11:
.Ltmp266:
	{
		ldc r4, 0
		nop
	}
	bf r5, .LBB10_53
.Ltmp267:
	.loc	1 438 17
	ldaw r11, cp[.L.str44]
	{
		nop
		stw r11, r5[0]
	}
	bu .LBB10_53
.Ltmp268:
.LBB10_19:
	{
		ldc r4, 0
		nop
	}
	bf r5, .LBB10_53
.Ltmp269:
	.loc	1 443 17
	ldaw r11, cp[.L.str45]
	{
		nop
		stw r11, r5[0]
	}
	bu .LBB10_53
.Ltmp270:
.LBB10_48:
	{
		ldc r4, 0
		ldw r0, sp[2]
	}
.Ltmp271:
	bf r0, .LBB10_53
.Ltmp272:
	.loc	1 490 20
	ldaw r11, cp[.L.str53]
	{
		nop
		stw r11, r0[0]
	}
	bu .LBB10_53
.Ltmp273:
.LBB10_44:
	{
		ldc r4, 0
		ldw r0, sp[2]
	}
.Ltmp274:
	bf r0, .LBB10_53
.Ltmp275:
	.loc	1 484 19
	ldaw r11, cp[.L.str52]
	{
		nop
		stw r11, r0[0]
	}
.Ltmp276:
.LBB10_53:
	.loc	1 498 1
	{
		mov r0, r4
		ldw r10, sp[12]
	}
	ldd r9, r8, sp[5]
	ldd r7, r6, sp[4]
	ldd r5, r4, sp[3]
	{
		nop
		retsp 14
	}
	# RETURN_REG_HOLDER
.LBB10_16:
.Ltmp277:
	{
		ldc r4, 0
		ldw r0, sp[2]
	}
.Ltmp278:
	bf r0, .LBB10_53
.Ltmp279:
	.loc	1 449 18
	ldaw r11, cp[.L.str46]
	{
		nop
		stw r11, r0[0]
	}
	bu .LBB10_53
.Ltmp280:
.LBB10_24:
	{
		ldc r4, 0
		ldw r0, sp[2]
	}
.Ltmp281:
	bf r0, .LBB10_53
.Ltmp282:
	.loc	1 455 19
	ldaw r11, cp[.L.str47]
	{
		nop
		stw r11, r0[0]
	}
	bu .LBB10_53
.Ltmp283:
.LBB10_27:
	{
		ldc r4, 0
		ldw r1, sp[2]
	}
.Ltmp284:
	bf r1, .LBB10_53
.Ltmp285:
	.loc	1 462 8
	{
		sub r0, r8, 1
		nop
	}
	.loc	1 462 8
	{
		eq r0, r7, r0
		nop
	}
	bf r0, .LBB10_30
.Ltmp286:
	.loc	1 463 6
	ldaw r11, cp[.L.str48]
	{
		nop
		stw r11, r1[0]
	}
	bu .LBB10_53
.Ltmp287:
.LBB10_39:
	{
		ldc r4, 0
		ldw r0, sp[2]
	}
.Ltmp288:
	bf r0, .LBB10_53
.Ltmp289:
	.loc	1 472 19
	ldaw r11, cp[.L.str50]
	{
		nop
		stw r11, r0[0]
	}
	bu .LBB10_53
.Ltmp290:
.LBB10_42:
	{
		ldc r4, 0
		ldw r0, sp[2]
	}
.Ltmp291:
	bf r0, .LBB10_53
.Ltmp292:
	.loc	1 477 19
	ldaw r11, cp[.L.str51]
	{
		nop
		stw r11, r0[0]
	}
	bu .LBB10_53
.Ltmp293:
.LBB10_30:
	.loc	1 465 6
	ldaw r11, cp[.L.str49]
	{
		nop
		stw r11, r1[0]
	}
	bu .LBB10_53
.Ltmp294:
	.cc_bottom FLAC__format_cuesheet_is_legal.function
	.set	FLAC__format_cuesheet_is_legal.nstackwords,(__umoddi3.nstackwords + 14)
	.globl	FLAC__format_cuesheet_is_legal.nstackwords
	.set	FLAC__format_cuesheet_is_legal.maxcores,1
	.globl	FLAC__format_cuesheet_is_legal.maxcores
	.set	FLAC__format_cuesheet_is_legal.maxtimers,0
	.globl	FLAC__format_cuesheet_is_legal.maxtimers
	.set	FLAC__format_cuesheet_is_legal.maxchanends,0
	.globl	FLAC__format_cuesheet_is_legal.maxchanends
.Ltmp295:
	.size	FLAC__format_cuesheet_is_legal, .Ltmp295-FLAC__format_cuesheet_is_legal
.Lfunc_end10:
	.cfi_endproc

	.globl	FLAC__format_picture_is_legal
	.align	4
	.type	FLAC__format_picture_is_legal,@function
	.cc_top FLAC__format_picture_is_legal.function,FLAC__format_picture_is_legal
FLAC__format_picture_is_legal:
.Lfunc_begin11:
	.loc	1 502 0
	.cfi_startproc
	.issue_mode dual
	{
		nop
		dualentsp 6
	}
.Ltmp296:
	.cfi_def_cfa_offset 24
.Ltmp297:
	.cfi_offset 15, 0
	std r5, r4, sp[1]
.Ltmp298:
	.cfi_offset 4, -16
.Ltmp299:
	.cfi_offset 5, -12
	std r7, r6, sp[2]
.Ltmp300:
	.cfi_offset 6, -8
.Ltmp301:
	.cfi_offset 7, -4
.Ltmp302:
	{
		mov r5, r1
		ldw r1, r0[1]
	}
.Ltmp303:
	.loc	1 506 2 prologue_end
	{
		ldc r4, 0
		nop
	}
	{
		nop
		ld8u r3, r1[r4]
	}
	bf r3, .LBB11_6
.Ltmp304:
	{
		add r1, r1, 1
		nop
	}
.Ltmp305:
	ldc r2, 95
.Ltmp306:
.LBB11_3:
	.loc	1 507 6
	ldaw r3, r3[-8]
	{
		zext r3, 8
		nop
	}
	.loc	1 507 6
	{
		lsu r3, r3, r2
		nop
	}
	bf r3, .LBB11_4
.Ltmp307:
	.loc	1 506 2
	{
		add r1, r1, 1
		ld8u r3, r1[r4]
	}
	bt r3, .LBB11_3
.Ltmp308:
.LBB11_6:
	.loc	1 513 6
	{
		ldc r4, 0
		ldw r6, r0[2]
	}
.Ltmp309:
	.loc	1 513 2
	{
		mkmsk r7, 1
		ld8u r0, r6[r4]
	}
.Ltmp310:
	bf r0, .LBB11_11
.Ltmp311:
.LBB11_7:
	.loc	1 514 16
	{
		mov r0, r6
		nop
	}
	bl utf8len_
.Ltmp312:
	.loc	1 515 6
	bf r0, .LBB11_8
.Ltmp313:
	.loc	1 519 3
	{
		add r1, r6, r0
		ld8u r0, r6[r0]
	}
.Ltmp314:
	{
		mov r6, r1
		nop
	}
.Ltmp315:
	bt r0, .LBB11_7
.Ltmp316:
.LBB11_11:
	{
		mov r4, r7
		nop
	}
	bu .LBB11_12
.LBB11_4:
.Ltmp317:
	bf r5, .LBB11_12
.Ltmp318:
	.loc	1 508 18
	ldaw r11, cp[.L.str54]
	{
		nop
		stw r11, r5[0]
	}
	bu .LBB11_12
.Ltmp319:
.LBB11_8:
	bf r5, .LBB11_12
.Ltmp320:
	.loc	1 516 18
	ldaw r11, cp[.L.str55]
	{
		nop
		stw r11, r5[0]
	}
.Ltmp321:
.LBB11_12:
	.loc	1 523 1
	{
		mov r0, r4
		nop
	}
	ldd r7, r6, sp[2]
	ldd r5, r4, sp[1]
	{
		nop
		retsp 6
	}
	# RETURN_REG_HOLDER
.Ltmp322:
	.cc_bottom FLAC__format_picture_is_legal.function
	.set	FLAC__format_picture_is_legal.nstackwords,(utf8len_.nstackwords + 6)
	.globl	FLAC__format_picture_is_legal.nstackwords
	.set	FLAC__format_picture_is_legal.maxcores,utf8len_.maxcores $M 1
	.globl	FLAC__format_picture_is_legal.maxcores
	.set	FLAC__format_picture_is_legal.maxtimers,utf8len_.maxtimers $M 0
	.globl	FLAC__format_picture_is_legal.maxtimers
	.set	FLAC__format_picture_is_legal.maxchanends,utf8len_.maxchanends $M 0
	.globl	FLAC__format_picture_is_legal.maxchanends
.Ltmp323:
	.size	FLAC__format_picture_is_legal, .Ltmp323-FLAC__format_picture_is_legal
.Lfunc_end11:
	.cfi_endproc

	.globl	FLAC__format_get_max_rice_partition_order_from_blocksize
	.align	4
	.type	FLAC__format_get_max_rice_partition_order_from_blocksize,@function
	.cc_top FLAC__format_get_max_rice_partition_order_from_blocksize.function,FLAC__format_get_max_rice_partition_order_from_blocksize
FLAC__format_get_max_rice_partition_order_from_blocksize:
.Lfunc_begin12:
	.loc	1 541 0
	.cfi_startproc
	.issue_mode dual
	{
		mov r1, r0
		dualentsp 0
	}
.Ltmp324:
	.loc	1 543 2 prologue_end
	{
		mov r2, r1
		nop
	}
	{
		zext r2, 1
		ldc r0, 0
	}
	bt r2, .LBB12_2
.LBB12_1:
.Ltmp325:
	.loc	1 544 3
	{
		add r0, r0, 1
		shr r1, r1, 1
	}
.Ltmp326:
	.loc	1 543 2
	{
		mov r2, r1
		nop
	}
	{
		zext r2, 1
		nop
	}
	bf r2, .LBB12_1
.LBB12_2:
	{
		mkmsk r1, 4
		nop
	}
	.loc	1 547 2
	{
		lsu r2, r0, r1
		nop
	}
	bt r2, .LBB12_4
	.loc	1 547 2
	{
		mov r0, r1
		nop
	}
.LBB12_4:
	{
		nop
		retsp 0
	}
	.loc	1 547 2
	# RETURN_REG_HOLDER
.Ltmp327:
	.cc_bottom FLAC__format_get_max_rice_partition_order_from_blocksize.function
	.set	FLAC__format_get_max_rice_partition_order_from_blocksize.nstackwords,0
	.globl	FLAC__format_get_max_rice_partition_order_from_blocksize.nstackwords
	.set	FLAC__format_get_max_rice_partition_order_from_blocksize.maxcores,1
	.globl	FLAC__format_get_max_rice_partition_order_from_blocksize.maxcores
	.set	FLAC__format_get_max_rice_partition_order_from_blocksize.maxtimers,0
	.globl	FLAC__format_get_max_rice_partition_order_from_blocksize.maxtimers
	.set	FLAC__format_get_max_rice_partition_order_from_blocksize.maxchanends,0
	.globl	FLAC__format_get_max_rice_partition_order_from_blocksize.maxchanends
.Ltmp328:
	.size	FLAC__format_get_max_rice_partition_order_from_blocksize, .Ltmp328-FLAC__format_get_max_rice_partition_order_from_blocksize
.Lfunc_end12:
	.cfi_endproc

	.globl	FLAC__format_get_max_rice_partition_order_from_blocksize_limited_max_and_predictor_order
	.align	4
	.type	FLAC__format_get_max_rice_partition_order_from_blocksize_limited_max_and_predictor_order,@function
	.cc_top FLAC__format_get_max_rice_partition_order_from_blocksize_limited_max_and_predictor_order.function,FLAC__format_get_max_rice_partition_order_from_blocksize_limited_max_and_predictor_order
FLAC__format_get_max_rice_partition_order_from_blocksize_limited_max_and_predictor_order:
.Lfunc_begin13:
	.loc	1 551 0
	.cfi_startproc
	.issue_mode dual
	{
		nop
		dualentsp 0
	}
.Ltmp329:
.LBB13_1:
	.loc	1 554 2 prologue_end
	{
		mov r3, r0
		nop
	}
	bf r0, .LBB13_3
.Ltmp330:
	{
		shr r11, r1, r0
		sub r0, r0, 1
	}
.Ltmp331:
	{
		lsu r11, r2, r11
		nop
	}
	bf r11, .LBB13_1
.LBB13_3:
	.loc	1 562 2
	{
		mov r0, r3
		retsp 0
	}
	# RETURN_REG_HOLDER
.Ltmp332:
	.cc_bottom FLAC__format_get_max_rice_partition_order_from_blocksize_limited_max_and_predictor_order.function
	.set	FLAC__format_get_max_rice_partition_order_from_blocksize_limited_max_and_predictor_order.nstackwords,0
	.globl	FLAC__format_get_max_rice_partition_order_from_blocksize_limited_max_and_predictor_order.nstackwords
	.set	FLAC__format_get_max_rice_partition_order_from_blocksize_limited_max_and_predictor_order.maxcores,1
	.globl	FLAC__format_get_max_rice_partition_order_from_blocksize_limited_max_and_predictor_order.maxcores
	.set	FLAC__format_get_max_rice_partition_order_from_blocksize_limited_max_and_predictor_order.maxtimers,0
	.globl	FLAC__format_get_max_rice_partition_order_from_blocksize_limited_max_and_predictor_order.maxtimers
	.set	FLAC__format_get_max_rice_partition_order_from_blocksize_limited_max_and_predictor_order.maxchanends,0
	.globl	FLAC__format_get_max_rice_partition_order_from_blocksize_limited_max_and_predictor_order.maxchanends
.Ltmp333:
	.size	FLAC__format_get_max_rice_partition_order_from_blocksize_limited_max_and_predictor_order, .Ltmp333-FLAC__format_get_max_rice_partition_order_from_blocksize_limited_max_and_predictor_order
.Lfunc_end13:
	.cfi_endproc

	.globl	FLAC__format_entropy_coding_method_partitioned_rice_contents_init
	.align	4
	.type	FLAC__format_entropy_coding_method_partitioned_rice_contents_init,@function
	.cc_top FLAC__format_entropy_coding_method_partitioned_rice_contents_init.function,FLAC__format_entropy_coding_method_partitioned_rice_contents_init
FLAC__format_entropy_coding_method_partitioned_rice_contents_init:
.Lfunc_begin14:
	.loc	1 566 0
	.cfi_startproc
	.issue_mode dual
	{
		ldc r1, 0
		dualentsp 0
	}
	{
		nop
		stw r1, r0[0]
	}
	{
		nop
		stw r1, r0[1]
	}
	{
		nop
		stw r1, r0[2]
	}
	{
		nop
		retsp 0
	}
	.loc	1 572 1 prologue_end
.Ltmp334:
	# RETURN_REG_HOLDER
.Ltmp335:
	.cc_bottom FLAC__format_entropy_coding_method_partitioned_rice_contents_init.function
	.set	FLAC__format_entropy_coding_method_partitioned_rice_contents_init.nstackwords,0
	.globl	FLAC__format_entropy_coding_method_partitioned_rice_contents_init.nstackwords
	.set	FLAC__format_entropy_coding_method_partitioned_rice_contents_init.maxcores,1
	.globl	FLAC__format_entropy_coding_method_partitioned_rice_contents_init.maxcores
	.set	FLAC__format_entropy_coding_method_partitioned_rice_contents_init.maxtimers,0
	.globl	FLAC__format_entropy_coding_method_partitioned_rice_contents_init.maxtimers
	.set	FLAC__format_entropy_coding_method_partitioned_rice_contents_init.maxchanends,0
	.globl	FLAC__format_entropy_coding_method_partitioned_rice_contents_init.maxchanends
.Ltmp336:
	.size	FLAC__format_entropy_coding_method_partitioned_rice_contents_init, .Ltmp336-FLAC__format_entropy_coding_method_partitioned_rice_contents_init
.Lfunc_end14:
	.cfi_endproc

	.globl	FLAC__format_entropy_coding_method_partitioned_rice_contents_clear
	.align	4
	.type	FLAC__format_entropy_coding_method_partitioned_rice_contents_clear,@function
	.cc_top FLAC__format_entropy_coding_method_partitioned_rice_contents_clear.function,FLAC__format_entropy_coding_method_partitioned_rice_contents_clear
FLAC__format_entropy_coding_method_partitioned_rice_contents_clear:
.Lfunc_begin15:
	.loc	1 575 0
	.cfi_startproc
	.issue_mode dual
	{
		nop
		dualentsp 4
	}
.Ltmp337:
	.cfi_def_cfa_offset 16
.Ltmp338:
	.cfi_offset 15, 0
.Ltmp339:
	.cfi_offset 4, -8
.Ltmp340:
	{
		mov r4, r0
		stw r4, sp[2]
	}
.Ltmp341:
	{
		nop
		ldw r0, r4[0]
	}
	bf r0, .LBB15_2
.Ltmp342:
	.loc	1 579 3 prologue_end
	bl free
.Ltmp343:
.LBB15_2:
	{
		nop
		ldw r0, r4[1]
	}
	bf r0, .LBB15_4
.Ltmp344:
	.loc	1 581 3
	bl free
.Ltmp345:
.LBB15_4:
	{
		ldc r0, 0
		nop
	}
	{
		nop
		stw r0, r4[0]
	}
	{
		nop
		stw r0, r4[1]
	}
	{
		nop
		stw r0, r4[2]
	}
	{
		nop
		ldw r4, sp[2]
	}
.Ltmp346:
	{
		nop
		retsp 4
	}
	.loc	1 583 1
	# RETURN_REG_HOLDER
.Ltmp347:
	.cc_bottom FLAC__format_entropy_coding_method_partitioned_rice_contents_clear.function
	.set	FLAC__format_entropy_coding_method_partitioned_rice_contents_clear.nstackwords,(free.nstackwords + 4)
	.globl	FLAC__format_entropy_coding_method_partitioned_rice_contents_clear.nstackwords
	.set	FLAC__format_entropy_coding_method_partitioned_rice_contents_clear.maxcores,free.maxcores $M 1
	.globl	FLAC__format_entropy_coding_method_partitioned_rice_contents_clear.maxcores
	.set	FLAC__format_entropy_coding_method_partitioned_rice_contents_clear.maxtimers,free.maxtimers $M 0
	.globl	FLAC__format_entropy_coding_method_partitioned_rice_contents_clear.maxtimers
	.set	FLAC__format_entropy_coding_method_partitioned_rice_contents_clear.maxchanends,free.maxchanends $M 0
	.globl	FLAC__format_entropy_coding_method_partitioned_rice_contents_clear.maxchanends
.Ltmp348:
	.size	FLAC__format_entropy_coding_method_partitioned_rice_contents_clear, .Ltmp348-FLAC__format_entropy_coding_method_partitioned_rice_contents_clear
.Lfunc_end15:
	.cfi_endproc

	.globl	FLAC__format_entropy_coding_method_partitioned_rice_contents_ensure_size
	.align	4
	.type	FLAC__format_entropy_coding_method_partitioned_rice_contents_ensure_size,@function
	.cc_top FLAC__format_entropy_coding_method_partitioned_rice_contents_ensure_size.function,FLAC__format_entropy_coding_method_partitioned_rice_contents_ensure_size
FLAC__format_entropy_coding_method_partitioned_rice_contents_ensure_size:
.Lfunc_begin16:
	.loc	1 591 0
	.cfi_startproc
	.issue_mode dual
	{
		nop
		dualentsp 8
	}
.Ltmp349:
	.cfi_def_cfa_offset 32
.Ltmp350:
	.cfi_offset 15, 0
	std r5, r4, sp[1]
.Ltmp351:
	.cfi_offset 4, -24
.Ltmp352:
	.cfi_offset 5, -20
	std r7, r6, sp[2]
.Ltmp353:
	.cfi_offset 6, -16
.Ltmp354:
	.cfi_offset 7, -12
	std r9, r8, sp[3]
.Ltmp355:
	.cfi_offset 8, -8
.Ltmp356:
	.cfi_offset 9, -4
.Ltmp357:
	{
		mov r4, r1
		mov r5, r0
	}
.Ltmp358:
	{
		nop
		ldw r0, r5[2]
	}
	.loc	1 594 5 prologue_end
.Ltmp359:
	{
		lsu r0, r0, r4
		ldw r7, r5[0]
	}
	bt r0, .LBB16_4
.Ltmp360:
	.loc	1 594 5
	bf r7, .LBB16_2
.Ltmp361:
	{
		nop
		ldw r0, r5[1]
	}
	bt r0, .LBB16_13
	bu .LBB16_4
.Ltmp362:
.LBB16_2:
	{
		ldc r7, 0
		nop
	}
.Ltmp363:
.LBB16_4:
	{
		ldc r0, 4
		nop
	}
.Ltmp364:
	.loc	1 595 33
	{
		shl r6, r0, r4
		mov r0, r7
	}
.Ltmp365:
	.file	5 "C:/Users/takaaki/git/sw_xSSDAC/module_libFLAC/source/share\\alloc.h"
	.loc	5 206 17
	{
		mov r1, r6
		nop
	}
	bl realloc
	{
		mov r8, r0
		nop
	}
.Ltmp366:
	bf r6, .LBB16_7
.Ltmp367:
	bt r8, .LBB16_7
.Ltmp368:
	.loc	5 208 3
	{
		mov r0, r7
		nop
	}
	bl free
.Ltmp369:
.LBB16_7:
	.loc	1 595 33
	{
		ldc r7, 0
		stw r8, r5[0]
	}
	bf r8, .LBB16_14
.Ltmp370:
	{
		nop
		ldw r9, r5[1]
	}
.Ltmp371:
	.loc	5 206 17
	{
		mov r0, r9
		mov r1, r6
	}
	bl realloc
	{
		mov r8, r0
		nop
	}
.Ltmp372:
	bf r6, .LBB16_11
.Ltmp373:
	bt r8, .LBB16_11
.Ltmp374:
	.loc	5 208 3
	{
		mov r0, r9
		nop
	}
	bl free
.Ltmp375:
.LBB16_11:
	{
		nop
		stw r8, r5[1]
	}
	bf r8, .LBB16_14
.Ltmp376:
	{
		ldc r1, 0
		mov r0, r8
	}
	.loc	1 599 3
	{
		mov r2, r6
		nop
	}
	bl memset
	{
		nop
		stw r4, r5[2]
	}
.Ltmp377:
.LBB16_13:
	{
		mkmsk r7, 1
		nop
	}
.LBB16_14:
	.loc	1 604 1
	{
		mov r0, r7
		nop
	}
	ldd r9, r8, sp[3]
	ldd r7, r6, sp[2]
	ldd r5, r4, sp[1]
	{
		nop
		retsp 8
	}
	# RETURN_REG_HOLDER
.Ltmp378:
	.cc_bottom FLAC__format_entropy_coding_method_partitioned_rice_contents_ensure_size.function
	.set	FLAC__format_entropy_coding_method_partitioned_rice_contents_ensure_size.nstackwords,((realloc.nstackwords $M free.nstackwords $M memset.nstackwords) + 8)
	.globl	FLAC__format_entropy_coding_method_partitioned_rice_contents_ensure_size.nstackwords
	.set	FLAC__format_entropy_coding_method_partitioned_rice_contents_ensure_size.maxcores,free.maxcores $M realloc.maxcores $M 1
	.globl	FLAC__format_entropy_coding_method_partitioned_rice_contents_ensure_size.maxcores
	.set	FLAC__format_entropy_coding_method_partitioned_rice_contents_ensure_size.maxtimers,free.maxtimers $M realloc.maxtimers $M 0
	.globl	FLAC__format_entropy_coding_method_partitioned_rice_contents_ensure_size.maxtimers
	.set	FLAC__format_entropy_coding_method_partitioned_rice_contents_ensure_size.maxchanends,free.maxchanends $M realloc.maxchanends $M 0
	.globl	FLAC__format_entropy_coding_method_partitioned_rice_contents_ensure_size.maxchanends
.Ltmp379:
	.size	FLAC__format_entropy_coding_method_partitioned_rice_contents_ensure_size, .Ltmp379-FLAC__format_entropy_coding_method_partitioned_rice_contents_ensure_size
.Lfunc_end16:
	.file	6 "C:\\Program Files (x86)\\XMOS\\xTIMEcomposer\\Community_14.4.1\\target/include/clang\\stddef.h"
	.cfi_endproc

	.section	.cp.rodata.string,"aMSc",@progbits
	.cc_top .L.str.data,.L.str
	.align	4
	.type	.L.str,@object
	.size	.L.str, 7
.L.str:
.asciiz"012345"
	.cc_bottom .L.str.data
	.section	.dp.data.4,"awd",@progbits
	.cc_top FLAC__VERSION_STRING.data,FLAC__VERSION_STRING
	.globl	FLAC__VERSION_STRING
	.align	4
	.type	FLAC__VERSION_STRING,@object
	.size	FLAC__VERSION_STRING, 4
FLAC__VERSION_STRING:
	.long	.L.str
	.cc_bottom FLAC__VERSION_STRING.data
	.section	.cp.rodata.string,"aMSc",@progbits
	.cc_top .L.str1.data,.L.str1
	.align	4
	.type	.L.str1,@object
	.size	.L.str1, 34
.L.str1:
.asciiz"reference libFLAC 012345 20221022"
	.cc_bottom .L.str1.data
	.section	.dp.data.4,"awd",@progbits
	.cc_top FLAC__VENDOR_STRING.data,FLAC__VENDOR_STRING
	.globl	FLAC__VENDOR_STRING
	.align	4
	.type	FLAC__VENDOR_STRING,@object
	.size	FLAC__VENDOR_STRING, 4
FLAC__VENDOR_STRING:
	.long	.L.str1
	.cc_bottom FLAC__VENDOR_STRING.data
	.section	.cp.rodata,"ac",@progbits
	.cc_top FLAC__STREAM_SYNC_STRING.data,FLAC__STREAM_SYNC_STRING
	.globl	FLAC__STREAM_SYNC_STRING.globound
FLAC__STREAM_SYNC_STRING.globound = 4
	.globl	FLAC__STREAM_SYNC_STRING
	.align	8
	.type	FLAC__STREAM_SYNC_STRING,@object
	.size	FLAC__STREAM_SYNC_STRING, 4
FLAC__STREAM_SYNC_STRING:
	.ascii	"fLaC"
	.cc_bottom FLAC__STREAM_SYNC_STRING.data
	.section	.cp.rodata.4,"ac",@progbits
	.cc_top FLAC__STREAM_SYNC.data,FLAC__STREAM_SYNC
	.globl	FLAC__STREAM_SYNC
	.align	4
	.type	FLAC__STREAM_SYNC,@object
	.size	FLAC__STREAM_SYNC, 4
FLAC__STREAM_SYNC:
	.long	1716281667
	.cc_bottom FLAC__STREAM_SYNC.data
	.cc_top FLAC__STREAM_SYNC_LEN.data,FLAC__STREAM_SYNC_LEN
	.globl	FLAC__STREAM_SYNC_LEN
	.align	4
	.type	FLAC__STREAM_SYNC_LEN,@object
	.size	FLAC__STREAM_SYNC_LEN, 4
FLAC__STREAM_SYNC_LEN:
	.long	32
	.cc_bottom FLAC__STREAM_SYNC_LEN.data
	.cc_top FLAC__STREAM_METADATA_STREAMINFO_MIN_BLOCK_SIZE_LEN.data,FLAC__STREAM_METADATA_STREAMINFO_MIN_BLOCK_SIZE_LEN
	.globl	FLAC__STREAM_METADATA_STREAMINFO_MIN_BLOCK_SIZE_LEN
	.align	4
	.type	FLAC__STREAM_METADATA_STREAMINFO_MIN_BLOCK_SIZE_LEN,@object
	.size	FLAC__STREAM_METADATA_STREAMINFO_MIN_BLOCK_SIZE_LEN, 4
FLAC__STREAM_METADATA_STREAMINFO_MIN_BLOCK_SIZE_LEN:
	.long	16
	.cc_bottom FLAC__STREAM_METADATA_STREAMINFO_MIN_BLOCK_SIZE_LEN.data
	.cc_top FLAC__STREAM_METADATA_STREAMINFO_MAX_BLOCK_SIZE_LEN.data,FLAC__STREAM_METADATA_STREAMINFO_MAX_BLOCK_SIZE_LEN
	.globl	FLAC__STREAM_METADATA_STREAMINFO_MAX_BLOCK_SIZE_LEN
	.align	4
	.type	FLAC__STREAM_METADATA_STREAMINFO_MAX_BLOCK_SIZE_LEN,@object
	.size	FLAC__STREAM_METADATA_STREAMINFO_MAX_BLOCK_SIZE_LEN, 4
FLAC__STREAM_METADATA_STREAMINFO_MAX_BLOCK_SIZE_LEN:
	.long	16
	.cc_bottom FLAC__STREAM_METADATA_STREAMINFO_MAX_BLOCK_SIZE_LEN.data
	.cc_top FLAC__STREAM_METADATA_STREAMINFO_MIN_FRAME_SIZE_LEN.data,FLAC__STREAM_METADATA_STREAMINFO_MIN_FRAME_SIZE_LEN
	.globl	FLAC__STREAM_METADATA_STREAMINFO_MIN_FRAME_SIZE_LEN
	.align	4
	.type	FLAC__STREAM_METADATA_STREAMINFO_MIN_FRAME_SIZE_LEN,@object
	.size	FLAC__STREAM_METADATA_STREAMINFO_MIN_FRAME_SIZE_LEN, 4
FLAC__STREAM_METADATA_STREAMINFO_MIN_FRAME_SIZE_LEN:
	.long	24
	.cc_bottom FLAC__STREAM_METADATA_STREAMINFO_MIN_FRAME_SIZE_LEN.data
	.cc_top FLAC__STREAM_METADATA_STREAMINFO_MAX_FRAME_SIZE_LEN.data,FLAC__STREAM_METADATA_STREAMINFO_MAX_FRAME_SIZE_LEN
	.globl	FLAC__STREAM_METADATA_STREAMINFO_MAX_FRAME_SIZE_LEN
	.align	4
	.type	FLAC__STREAM_METADATA_STREAMINFO_MAX_FRAME_SIZE_LEN,@object
	.size	FLAC__STREAM_METADATA_STREAMINFO_MAX_FRAME_SIZE_LEN, 4
FLAC__STREAM_METADATA_STREAMINFO_MAX_FRAME_SIZE_LEN:
	.long	24
	.cc_bottom FLAC__STREAM_METADATA_STREAMINFO_MAX_FRAME_SIZE_LEN.data
	.cc_top FLAC__STREAM_METADATA_STREAMINFO_SAMPLE_RATE_LEN.data,FLAC__STREAM_METADATA_STREAMINFO_SAMPLE_RATE_LEN
	.globl	FLAC__STREAM_METADATA_STREAMINFO_SAMPLE_RATE_LEN
	.align	4
	.type	FLAC__STREAM_METADATA_STREAMINFO_SAMPLE_RATE_LEN,@object
	.size	FLAC__STREAM_METADATA_STREAMINFO_SAMPLE_RATE_LEN, 4
FLAC__STREAM_METADATA_STREAMINFO_SAMPLE_RATE_LEN:
	.long	20
	.cc_bottom FLAC__STREAM_METADATA_STREAMINFO_SAMPLE_RATE_LEN.data
	.cc_top FLAC__STREAM_METADATA_STREAMINFO_CHANNELS_LEN.data,FLAC__STREAM_METADATA_STREAMINFO_CHANNELS_LEN
	.globl	FLAC__STREAM_METADATA_STREAMINFO_CHANNELS_LEN
	.align	4
	.type	FLAC__STREAM_METADATA_STREAMINFO_CHANNELS_LEN,@object
	.size	FLAC__STREAM_METADATA_STREAMINFO_CHANNELS_LEN, 4
FLAC__STREAM_METADATA_STREAMINFO_CHANNELS_LEN:
	.long	3
	.cc_bottom FLAC__STREAM_METADATA_STREAMINFO_CHANNELS_LEN.data
	.cc_top FLAC__STREAM_METADATA_STREAMINFO_BITS_PER_SAMPLE_LEN.data,FLAC__STREAM_METADATA_STREAMINFO_BITS_PER_SAMPLE_LEN
	.globl	FLAC__STREAM_METADATA_STREAMINFO_BITS_PER_SAMPLE_LEN
	.align	4
	.type	FLAC__STREAM_METADATA_STREAMINFO_BITS_PER_SAMPLE_LEN,@object
	.size	FLAC__STREAM_METADATA_STREAMINFO_BITS_PER_SAMPLE_LEN, 4
FLAC__STREAM_METADATA_STREAMINFO_BITS_PER_SAMPLE_LEN:
	.long	5
	.cc_bottom FLAC__STREAM_METADATA_STREAMINFO_BITS_PER_SAMPLE_LEN.data
	.cc_top FLAC__STREAM_METADATA_STREAMINFO_TOTAL_SAMPLES_LEN.data,FLAC__STREAM_METADATA_STREAMINFO_TOTAL_SAMPLES_LEN
	.globl	FLAC__STREAM_METADATA_STREAMINFO_TOTAL_SAMPLES_LEN
	.align	4
	.type	FLAC__STREAM_METADATA_STREAMINFO_TOTAL_SAMPLES_LEN,@object
	.size	FLAC__STREAM_METADATA_STREAMINFO_TOTAL_SAMPLES_LEN, 4
FLAC__STREAM_METADATA_STREAMINFO_TOTAL_SAMPLES_LEN:
	.long	36
	.cc_bottom FLAC__STREAM_METADATA_STREAMINFO_TOTAL_SAMPLES_LEN.data
	.cc_top FLAC__STREAM_METADATA_STREAMINFO_MD5SUM_LEN.data,FLAC__STREAM_METADATA_STREAMINFO_MD5SUM_LEN
	.globl	FLAC__STREAM_METADATA_STREAMINFO_MD5SUM_LEN
	.align	4
	.type	FLAC__STREAM_METADATA_STREAMINFO_MD5SUM_LEN,@object
	.size	FLAC__STREAM_METADATA_STREAMINFO_MD5SUM_LEN, 4
FLAC__STREAM_METADATA_STREAMINFO_MD5SUM_LEN:
	.long	128
	.cc_bottom FLAC__STREAM_METADATA_STREAMINFO_MD5SUM_LEN.data
	.cc_top FLAC__STREAM_METADATA_APPLICATION_ID_LEN.data,FLAC__STREAM_METADATA_APPLICATION_ID_LEN
	.globl	FLAC__STREAM_METADATA_APPLICATION_ID_LEN
	.align	4
	.type	FLAC__STREAM_METADATA_APPLICATION_ID_LEN,@object
	.size	FLAC__STREAM_METADATA_APPLICATION_ID_LEN, 4
FLAC__STREAM_METADATA_APPLICATION_ID_LEN:
	.long	32
	.cc_bottom FLAC__STREAM_METADATA_APPLICATION_ID_LEN.data
	.cc_top FLAC__STREAM_METADATA_SEEKPOINT_SAMPLE_NUMBER_LEN.data,FLAC__STREAM_METADATA_SEEKPOINT_SAMPLE_NUMBER_LEN
	.globl	FLAC__STREAM_METADATA_SEEKPOINT_SAMPLE_NUMBER_LEN
	.align	4
	.type	FLAC__STREAM_METADATA_SEEKPOINT_SAMPLE_NUMBER_LEN,@object
	.size	FLAC__STREAM_METADATA_SEEKPOINT_SAMPLE_NUMBER_LEN, 4
FLAC__STREAM_METADATA_SEEKPOINT_SAMPLE_NUMBER_LEN:
	.long	64
	.cc_bottom FLAC__STREAM_METADATA_SEEKPOINT_SAMPLE_NUMBER_LEN.data
	.cc_top FLAC__STREAM_METADATA_SEEKPOINT_STREAM_OFFSET_LEN.data,FLAC__STREAM_METADATA_SEEKPOINT_STREAM_OFFSET_LEN
	.globl	FLAC__STREAM_METADATA_SEEKPOINT_STREAM_OFFSET_LEN
	.align	4
	.type	FLAC__STREAM_METADATA_SEEKPOINT_STREAM_OFFSET_LEN,@object
	.size	FLAC__STREAM_METADATA_SEEKPOINT_STREAM_OFFSET_LEN, 4
FLAC__STREAM_METADATA_SEEKPOINT_STREAM_OFFSET_LEN:
	.long	64
	.cc_bottom FLAC__STREAM_METADATA_SEEKPOINT_STREAM_OFFSET_LEN.data
	.cc_top FLAC__STREAM_METADATA_SEEKPOINT_FRAME_SAMPLES_LEN.data,FLAC__STREAM_METADATA_SEEKPOINT_FRAME_SAMPLES_LEN
	.globl	FLAC__STREAM_METADATA_SEEKPOINT_FRAME_SAMPLES_LEN
	.align	4
	.type	FLAC__STREAM_METADATA_SEEKPOINT_FRAME_SAMPLES_LEN,@object
	.size	FLAC__STREAM_METADATA_SEEKPOINT_FRAME_SAMPLES_LEN, 4
FLAC__STREAM_METADATA_SEEKPOINT_FRAME_SAMPLES_LEN:
	.long	16
	.cc_bottom FLAC__STREAM_METADATA_SEEKPOINT_FRAME_SAMPLES_LEN.data
	.section	.cp.rodata,"ac",@progbits
	.cc_top FLAC__STREAM_METADATA_SEEKPOINT_PLACEHOLDER.data,FLAC__STREAM_METADATA_SEEKPOINT_PLACEHOLDER
	.globl	FLAC__STREAM_METADATA_SEEKPOINT_PLACEHOLDER
	.align	8
	.type	FLAC__STREAM_METADATA_SEEKPOINT_PLACEHOLDER,@object
	.size	FLAC__STREAM_METADATA_SEEKPOINT_PLACEHOLDER, 8
FLAC__STREAM_METADATA_SEEKPOINT_PLACEHOLDER:
	.long	4294967295
	.long	4294967295
	.cc_bottom FLAC__STREAM_METADATA_SEEKPOINT_PLACEHOLDER.data
	.section	.cp.rodata.4,"ac",@progbits
	.cc_top FLAC__STREAM_METADATA_VORBIS_COMMENT_ENTRY_LENGTH_LEN.data,FLAC__STREAM_METADATA_VORBIS_COMMENT_ENTRY_LENGTH_LEN
	.globl	FLAC__STREAM_METADATA_VORBIS_COMMENT_ENTRY_LENGTH_LEN
	.align	4
	.type	FLAC__STREAM_METADATA_VORBIS_COMMENT_ENTRY_LENGTH_LEN,@object
	.size	FLAC__STREAM_METADATA_VORBIS_COMMENT_ENTRY_LENGTH_LEN, 4
FLAC__STREAM_METADATA_VORBIS_COMMENT_ENTRY_LENGTH_LEN:
	.long	32
	.cc_bottom FLAC__STREAM_METADATA_VORBIS_COMMENT_ENTRY_LENGTH_LEN.data
	.cc_top FLAC__STREAM_METADATA_VORBIS_COMMENT_NUM_COMMENTS_LEN.data,FLAC__STREAM_METADATA_VORBIS_COMMENT_NUM_COMMENTS_LEN
	.globl	FLAC__STREAM_METADATA_VORBIS_COMMENT_NUM_COMMENTS_LEN
	.align	4
	.type	FLAC__STREAM_METADATA_VORBIS_COMMENT_NUM_COMMENTS_LEN,@object
	.size	FLAC__STREAM_METADATA_VORBIS_COMMENT_NUM_COMMENTS_LEN, 4
FLAC__STREAM_METADATA_VORBIS_COMMENT_NUM_COMMENTS_LEN:
	.long	32
	.cc_bottom FLAC__STREAM_METADATA_VORBIS_COMMENT_NUM_COMMENTS_LEN.data
	.cc_top FLAC__STREAM_METADATA_CUESHEET_INDEX_OFFSET_LEN.data,FLAC__STREAM_METADATA_CUESHEET_INDEX_OFFSET_LEN
	.globl	FLAC__STREAM_METADATA_CUESHEET_INDEX_OFFSET_LEN
	.align	4
	.type	FLAC__STREAM_METADATA_CUESHEET_INDEX_OFFSET_LEN,@object
	.size	FLAC__STREAM_METADATA_CUESHEET_INDEX_OFFSET_LEN, 4
FLAC__STREAM_METADATA_CUESHEET_INDEX_OFFSET_LEN:
	.long	64
	.cc_bottom FLAC__STREAM_METADATA_CUESHEET_INDEX_OFFSET_LEN.data
	.cc_top FLAC__STREAM_METADATA_CUESHEET_INDEX_NUMBER_LEN.data,FLAC__STREAM_METADATA_CUESHEET_INDEX_NUMBER_LEN
	.globl	FLAC__STREAM_METADATA_CUESHEET_INDEX_NUMBER_LEN
	.align	4
	.type	FLAC__STREAM_METADATA_CUESHEET_INDEX_NUMBER_LEN,@object
	.size	FLAC__STREAM_METADATA_CUESHEET_INDEX_NUMBER_LEN, 4
FLAC__STREAM_METADATA_CUESHEET_INDEX_NUMBER_LEN:
	.long	8
	.cc_bottom FLAC__STREAM_METADATA_CUESHEET_INDEX_NUMBER_LEN.data
	.cc_top FLAC__STREAM_METADATA_CUESHEET_INDEX_RESERVED_LEN.data,FLAC__STREAM_METADATA_CUESHEET_INDEX_RESERVED_LEN
	.globl	FLAC__STREAM_METADATA_CUESHEET_INDEX_RESERVED_LEN
	.align	4
	.type	FLAC__STREAM_METADATA_CUESHEET_INDEX_RESERVED_LEN,@object
	.size	FLAC__STREAM_METADATA_CUESHEET_INDEX_RESERVED_LEN, 4
FLAC__STREAM_METADATA_CUESHEET_INDEX_RESERVED_LEN:
	.long	24
	.cc_bottom FLAC__STREAM_METADATA_CUESHEET_INDEX_RESERVED_LEN.data
	.cc_top FLAC__STREAM_METADATA_CUESHEET_TRACK_OFFSET_LEN.data,FLAC__STREAM_METADATA_CUESHEET_TRACK_OFFSET_LEN
	.globl	FLAC__STREAM_METADATA_CUESHEET_TRACK_OFFSET_LEN
	.align	4
	.type	FLAC__STREAM_METADATA_CUESHEET_TRACK_OFFSET_LEN,@object
	.size	FLAC__STREAM_METADATA_CUESHEET_TRACK_OFFSET_LEN, 4
FLAC__STREAM_METADATA_CUESHEET_TRACK_OFFSET_LEN:
	.long	64
	.cc_bottom FLAC__STREAM_METADATA_CUESHEET_TRACK_OFFSET_LEN.data
	.cc_top FLAC__STREAM_METADATA_CUESHEET_TRACK_NUMBER_LEN.data,FLAC__STREAM_METADATA_CUESHEET_TRACK_NUMBER_LEN
	.globl	FLAC__STREAM_METADATA_CUESHEET_TRACK_NUMBER_LEN
	.align	4
	.type	FLAC__STREAM_METADATA_CUESHEET_TRACK_NUMBER_LEN,@object
	.size	FLAC__STREAM_METADATA_CUESHEET_TRACK_NUMBER_LEN, 4
FLAC__STREAM_METADATA_CUESHEET_TRACK_NUMBER_LEN:
	.long	8
	.cc_bottom FLAC__STREAM_METADATA_CUESHEET_TRACK_NUMBER_LEN.data
	.cc_top FLAC__STREAM_METADATA_CUESHEET_TRACK_ISRC_LEN.data,FLAC__STREAM_METADATA_CUESHEET_TRACK_ISRC_LEN
	.globl	FLAC__STREAM_METADATA_CUESHEET_TRACK_ISRC_LEN
	.align	4
	.type	FLAC__STREAM_METADATA_CUESHEET_TRACK_ISRC_LEN,@object
	.size	FLAC__STREAM_METADATA_CUESHEET_TRACK_ISRC_LEN, 4
FLAC__STREAM_METADATA_CUESHEET_TRACK_ISRC_LEN:
	.long	96
	.cc_bottom FLAC__STREAM_METADATA_CUESHEET_TRACK_ISRC_LEN.data
	.cc_top FLAC__STREAM_METADATA_CUESHEET_TRACK_TYPE_LEN.data,FLAC__STREAM_METADATA_CUESHEET_TRACK_TYPE_LEN
	.globl	FLAC__STREAM_METADATA_CUESHEET_TRACK_TYPE_LEN
	.align	4
	.type	FLAC__STREAM_METADATA_CUESHEET_TRACK_TYPE_LEN,@object
	.size	FLAC__STREAM_METADATA_CUESHEET_TRACK_TYPE_LEN, 4
FLAC__STREAM_METADATA_CUESHEET_TRACK_TYPE_LEN:
	.long	1
	.cc_bottom FLAC__STREAM_METADATA_CUESHEET_TRACK_TYPE_LEN.data
	.cc_top FLAC__STREAM_METADATA_CUESHEET_TRACK_PRE_EMPHASIS_LEN.data,FLAC__STREAM_METADATA_CUESHEET_TRACK_PRE_EMPHASIS_LEN
	.globl	FLAC__STREAM_METADATA_CUESHEET_TRACK_PRE_EMPHASIS_LEN
	.align	4
	.type	FLAC__STREAM_METADATA_CUESHEET_TRACK_PRE_EMPHASIS_LEN,@object
	.size	FLAC__STREAM_METADATA_CUESHEET_TRACK_PRE_EMPHASIS_LEN, 4
FLAC__STREAM_METADATA_CUESHEET_TRACK_PRE_EMPHASIS_LEN:
	.long	1
	.cc_bottom FLAC__STREAM_METADATA_CUESHEET_TRACK_PRE_EMPHASIS_LEN.data
	.cc_top FLAC__STREAM_METADATA_CUESHEET_TRACK_RESERVED_LEN.data,FLAC__STREAM_METADATA_CUESHEET_TRACK_RESERVED_LEN
	.globl	FLAC__STREAM_METADATA_CUESHEET_TRACK_RESERVED_LEN
	.align	4
	.type	FLAC__STREAM_METADATA_CUESHEET_TRACK_RESERVED_LEN,@object
	.size	FLAC__STREAM_METADATA_CUESHEET_TRACK_RESERVED_LEN, 4
FLAC__STREAM_METADATA_CUESHEET_TRACK_RESERVED_LEN:
	.long	110
	.cc_bottom FLAC__STREAM_METADATA_CUESHEET_TRACK_RESERVED_LEN.data
	.cc_top FLAC__STREAM_METADATA_CUESHEET_TRACK_NUM_INDICES_LEN.data,FLAC__STREAM_METADATA_CUESHEET_TRACK_NUM_INDICES_LEN
	.globl	FLAC__STREAM_METADATA_CUESHEET_TRACK_NUM_INDICES_LEN
	.align	4
	.type	FLAC__STREAM_METADATA_CUESHEET_TRACK_NUM_INDICES_LEN,@object
	.size	FLAC__STREAM_METADATA_CUESHEET_TRACK_NUM_INDICES_LEN, 4
FLAC__STREAM_METADATA_CUESHEET_TRACK_NUM_INDICES_LEN:
	.long	8
	.cc_bottom FLAC__STREAM_METADATA_CUESHEET_TRACK_NUM_INDICES_LEN.data
	.cc_top FLAC__STREAM_METADATA_CUESHEET_MEDIA_CATALOG_NUMBER_LEN.data,FLAC__STREAM_METADATA_CUESHEET_MEDIA_CATALOG_NUMBER_LEN
	.globl	FLAC__STREAM_METADATA_CUESHEET_MEDIA_CATALOG_NUMBER_LEN
	.align	4
	.type	FLAC__STREAM_METADATA_CUESHEET_MEDIA_CATALOG_NUMBER_LEN,@object
	.size	FLAC__STREAM_METADATA_CUESHEET_MEDIA_CATALOG_NUMBER_LEN, 4
FLAC__STREAM_METADATA_CUESHEET_MEDIA_CATALOG_NUMBER_LEN:
	.long	1024
	.cc_bottom FLAC__STREAM_METADATA_CUESHEET_MEDIA_CATALOG_NUMBER_LEN.data
	.cc_top FLAC__STREAM_METADATA_CUESHEET_LEAD_IN_LEN.data,FLAC__STREAM_METADATA_CUESHEET_LEAD_IN_LEN
	.globl	FLAC__STREAM_METADATA_CUESHEET_LEAD_IN_LEN
	.align	4
	.type	FLAC__STREAM_METADATA_CUESHEET_LEAD_IN_LEN,@object
	.size	FLAC__STREAM_METADATA_CUESHEET_LEAD_IN_LEN, 4
FLAC__STREAM_METADATA_CUESHEET_LEAD_IN_LEN:
	.long	64
	.cc_bottom FLAC__STREAM_METADATA_CUESHEET_LEAD_IN_LEN.data
	.cc_top FLAC__STREAM_METADATA_CUESHEET_IS_CD_LEN.data,FLAC__STREAM_METADATA_CUESHEET_IS_CD_LEN
	.globl	FLAC__STREAM_METADATA_CUESHEET_IS_CD_LEN
	.align	4
	.type	FLAC__STREAM_METADATA_CUESHEET_IS_CD_LEN,@object
	.size	FLAC__STREAM_METADATA_CUESHEET_IS_CD_LEN, 4
FLAC__STREAM_METADATA_CUESHEET_IS_CD_LEN:
	.long	1
	.cc_bottom FLAC__STREAM_METADATA_CUESHEET_IS_CD_LEN.data
	.cc_top FLAC__STREAM_METADATA_CUESHEET_RESERVED_LEN.data,FLAC__STREAM_METADATA_CUESHEET_RESERVED_LEN
	.globl	FLAC__STREAM_METADATA_CUESHEET_RESERVED_LEN
	.align	4
	.type	FLAC__STREAM_METADATA_CUESHEET_RESERVED_LEN,@object
	.size	FLAC__STREAM_METADATA_CUESHEET_RESERVED_LEN, 4
FLAC__STREAM_METADATA_CUESHEET_RESERVED_LEN:
	.long	2071
	.cc_bottom FLAC__STREAM_METADATA_CUESHEET_RESERVED_LEN.data
	.cc_top FLAC__STREAM_METADATA_CUESHEET_NUM_TRACKS_LEN.data,FLAC__STREAM_METADATA_CUESHEET_NUM_TRACKS_LEN
	.globl	FLAC__STREAM_METADATA_CUESHEET_NUM_TRACKS_LEN
	.align	4
	.type	FLAC__STREAM_METADATA_CUESHEET_NUM_TRACKS_LEN,@object
	.size	FLAC__STREAM_METADATA_CUESHEET_NUM_TRACKS_LEN, 4
FLAC__STREAM_METADATA_CUESHEET_NUM_TRACKS_LEN:
	.long	8
	.cc_bottom FLAC__STREAM_METADATA_CUESHEET_NUM_TRACKS_LEN.data
	.cc_top FLAC__STREAM_METADATA_PICTURE_TYPE_LEN.data,FLAC__STREAM_METADATA_PICTURE_TYPE_LEN
	.globl	FLAC__STREAM_METADATA_PICTURE_TYPE_LEN
	.align	4
	.type	FLAC__STREAM_METADATA_PICTURE_TYPE_LEN,@object
	.size	FLAC__STREAM_METADATA_PICTURE_TYPE_LEN, 4
FLAC__STREAM_METADATA_PICTURE_TYPE_LEN:
	.long	32
	.cc_bottom FLAC__STREAM_METADATA_PICTURE_TYPE_LEN.data
	.cc_top FLAC__STREAM_METADATA_PICTURE_MIME_TYPE_LENGTH_LEN.data,FLAC__STREAM_METADATA_PICTURE_MIME_TYPE_LENGTH_LEN
	.globl	FLAC__STREAM_METADATA_PICTURE_MIME_TYPE_LENGTH_LEN
	.align	4
	.type	FLAC__STREAM_METADATA_PICTURE_MIME_TYPE_LENGTH_LEN,@object
	.size	FLAC__STREAM_METADATA_PICTURE_MIME_TYPE_LENGTH_LEN, 4
FLAC__STREAM_METADATA_PICTURE_MIME_TYPE_LENGTH_LEN:
	.long	32
	.cc_bottom FLAC__STREAM_METADATA_PICTURE_MIME_TYPE_LENGTH_LEN.data
	.cc_top FLAC__STREAM_METADATA_PICTURE_DESCRIPTION_LENGTH_LEN.data,FLAC__STREAM_METADATA_PICTURE_DESCRIPTION_LENGTH_LEN
	.globl	FLAC__STREAM_METADATA_PICTURE_DESCRIPTION_LENGTH_LEN
	.align	4
	.type	FLAC__STREAM_METADATA_PICTURE_DESCRIPTION_LENGTH_LEN,@object
	.size	FLAC__STREAM_METADATA_PICTURE_DESCRIPTION_LENGTH_LEN, 4
FLAC__STREAM_METADATA_PICTURE_DESCRIPTION_LENGTH_LEN:
	.long	32
	.cc_bottom FLAC__STREAM_METADATA_PICTURE_DESCRIPTION_LENGTH_LEN.data
	.cc_top FLAC__STREAM_METADATA_PICTURE_WIDTH_LEN.data,FLAC__STREAM_METADATA_PICTURE_WIDTH_LEN
	.globl	FLAC__STREAM_METADATA_PICTURE_WIDTH_LEN
	.align	4
	.type	FLAC__STREAM_METADATA_PICTURE_WIDTH_LEN,@object
	.size	FLAC__STREAM_METADATA_PICTURE_WIDTH_LEN, 4
FLAC__STREAM_METADATA_PICTURE_WIDTH_LEN:
	.long	32
	.cc_bottom FLAC__STREAM_METADATA_PICTURE_WIDTH_LEN.data
	.cc_top FLAC__STREAM_METADATA_PICTURE_HEIGHT_LEN.data,FLAC__STREAM_METADATA_PICTURE_HEIGHT_LEN
	.globl	FLAC__STREAM_METADATA_PICTURE_HEIGHT_LEN
	.align	4
	.type	FLAC__STREAM_METADATA_PICTURE_HEIGHT_LEN,@object
	.size	FLAC__STREAM_METADATA_PICTURE_HEIGHT_LEN, 4
FLAC__STREAM_METADATA_PICTURE_HEIGHT_LEN:
	.long	32
	.cc_bottom FLAC__STREAM_METADATA_PICTURE_HEIGHT_LEN.data
	.cc_top FLAC__STREAM_METADATA_PICTURE_DEPTH_LEN.data,FLAC__STREAM_METADATA_PICTURE_DEPTH_LEN
	.globl	FLAC__STREAM_METADATA_PICTURE_DEPTH_LEN
	.align	4
	.type	FLAC__STREAM_METADATA_PICTURE_DEPTH_LEN,@object
	.size	FLAC__STREAM_METADATA_PICTURE_DEPTH_LEN, 4
FLAC__STREAM_METADATA_PICTURE_DEPTH_LEN:
	.long	32
	.cc_bottom FLAC__STREAM_METADATA_PICTURE_DEPTH_LEN.data
	.cc_top FLAC__STREAM_METADATA_PICTURE_COLORS_LEN.data,FLAC__STREAM_METADATA_PICTURE_COLORS_LEN
	.globl	FLAC__STREAM_METADATA_PICTURE_COLORS_LEN
	.align	4
	.type	FLAC__STREAM_METADATA_PICTURE_COLORS_LEN,@object
	.size	FLAC__STREAM_METADATA_PICTURE_COLORS_LEN, 4
FLAC__STREAM_METADATA_PICTURE_COLORS_LEN:
	.long	32
	.cc_bottom FLAC__STREAM_METADATA_PICTURE_COLORS_LEN.data
	.cc_top FLAC__STREAM_METADATA_PICTURE_DATA_LENGTH_LEN.data,FLAC__STREAM_METADATA_PICTURE_DATA_LENGTH_LEN
	.globl	FLAC__STREAM_METADATA_PICTURE_DATA_LENGTH_LEN
	.align	4
	.type	FLAC__STREAM_METADATA_PICTURE_DATA_LENGTH_LEN,@object
	.size	FLAC__STREAM_METADATA_PICTURE_DATA_LENGTH_LEN, 4
FLAC__STREAM_METADATA_PICTURE_DATA_LENGTH_LEN:
	.long	32
	.cc_bottom FLAC__STREAM_METADATA_PICTURE_DATA_LENGTH_LEN.data
	.cc_top FLAC__STREAM_METADATA_IS_LAST_LEN.data,FLAC__STREAM_METADATA_IS_LAST_LEN
	.globl	FLAC__STREAM_METADATA_IS_LAST_LEN
	.align	4
	.type	FLAC__STREAM_METADATA_IS_LAST_LEN,@object
	.size	FLAC__STREAM_METADATA_IS_LAST_LEN, 4
FLAC__STREAM_METADATA_IS_LAST_LEN:
	.long	1
	.cc_bottom FLAC__STREAM_METADATA_IS_LAST_LEN.data
	.cc_top FLAC__STREAM_METADATA_TYPE_LEN.data,FLAC__STREAM_METADATA_TYPE_LEN
	.globl	FLAC__STREAM_METADATA_TYPE_LEN
	.align	4
	.type	FLAC__STREAM_METADATA_TYPE_LEN,@object
	.size	FLAC__STREAM_METADATA_TYPE_LEN, 4
FLAC__STREAM_METADATA_TYPE_LEN:
	.long	7
	.cc_bottom FLAC__STREAM_METADATA_TYPE_LEN.data
	.cc_top FLAC__STREAM_METADATA_LENGTH_LEN.data,FLAC__STREAM_METADATA_LENGTH_LEN
	.globl	FLAC__STREAM_METADATA_LENGTH_LEN
	.align	4
	.type	FLAC__STREAM_METADATA_LENGTH_LEN,@object
	.size	FLAC__STREAM_METADATA_LENGTH_LEN, 4
FLAC__STREAM_METADATA_LENGTH_LEN:
	.long	24
	.cc_bottom FLAC__STREAM_METADATA_LENGTH_LEN.data
	.cc_top FLAC__FRAME_HEADER_SYNC.data,FLAC__FRAME_HEADER_SYNC
	.globl	FLAC__FRAME_HEADER_SYNC
	.align	4
	.type	FLAC__FRAME_HEADER_SYNC,@object
	.size	FLAC__FRAME_HEADER_SYNC, 4
FLAC__FRAME_HEADER_SYNC:
	.long	16382
	.cc_bottom FLAC__FRAME_HEADER_SYNC.data
	.cc_top FLAC__FRAME_HEADER_SYNC_LEN.data,FLAC__FRAME_HEADER_SYNC_LEN
	.globl	FLAC__FRAME_HEADER_SYNC_LEN
	.align	4
	.type	FLAC__FRAME_HEADER_SYNC_LEN,@object
	.size	FLAC__FRAME_HEADER_SYNC_LEN, 4
FLAC__FRAME_HEADER_SYNC_LEN:
	.long	14
	.cc_bottom FLAC__FRAME_HEADER_SYNC_LEN.data
	.cc_top FLAC__FRAME_HEADER_RESERVED_LEN.data,FLAC__FRAME_HEADER_RESERVED_LEN
	.globl	FLAC__FRAME_HEADER_RESERVED_LEN
	.align	4
	.type	FLAC__FRAME_HEADER_RESERVED_LEN,@object
	.size	FLAC__FRAME_HEADER_RESERVED_LEN, 4
FLAC__FRAME_HEADER_RESERVED_LEN:
	.long	1
	.cc_bottom FLAC__FRAME_HEADER_RESERVED_LEN.data
	.cc_top FLAC__FRAME_HEADER_BLOCKING_STRATEGY_LEN.data,FLAC__FRAME_HEADER_BLOCKING_STRATEGY_LEN
	.globl	FLAC__FRAME_HEADER_BLOCKING_STRATEGY_LEN
	.align	4
	.type	FLAC__FRAME_HEADER_BLOCKING_STRATEGY_LEN,@object
	.size	FLAC__FRAME_HEADER_BLOCKING_STRATEGY_LEN, 4
FLAC__FRAME_HEADER_BLOCKING_STRATEGY_LEN:
	.long	1
	.cc_bottom FLAC__FRAME_HEADER_BLOCKING_STRATEGY_LEN.data
	.cc_top FLAC__FRAME_HEADER_BLOCK_SIZE_LEN.data,FLAC__FRAME_HEADER_BLOCK_SIZE_LEN
	.globl	FLAC__FRAME_HEADER_BLOCK_SIZE_LEN
	.align	4
	.type	FLAC__FRAME_HEADER_BLOCK_SIZE_LEN,@object
	.size	FLAC__FRAME_HEADER_BLOCK_SIZE_LEN, 4
FLAC__FRAME_HEADER_BLOCK_SIZE_LEN:
	.long	4
	.cc_bottom FLAC__FRAME_HEADER_BLOCK_SIZE_LEN.data
	.cc_top FLAC__FRAME_HEADER_SAMPLE_RATE_LEN.data,FLAC__FRAME_HEADER_SAMPLE_RATE_LEN
	.globl	FLAC__FRAME_HEADER_SAMPLE_RATE_LEN
	.align	4
	.type	FLAC__FRAME_HEADER_SAMPLE_RATE_LEN,@object
	.size	FLAC__FRAME_HEADER_SAMPLE_RATE_LEN, 4
FLAC__FRAME_HEADER_SAMPLE_RATE_LEN:
	.long	4
	.cc_bottom FLAC__FRAME_HEADER_SAMPLE_RATE_LEN.data
	.cc_top FLAC__FRAME_HEADER_CHANNEL_ASSIGNMENT_LEN.data,FLAC__FRAME_HEADER_CHANNEL_ASSIGNMENT_LEN
	.globl	FLAC__FRAME_HEADER_CHANNEL_ASSIGNMENT_LEN
	.align	4
	.type	FLAC__FRAME_HEADER_CHANNEL_ASSIGNMENT_LEN,@object
	.size	FLAC__FRAME_HEADER_CHANNEL_ASSIGNMENT_LEN, 4
FLAC__FRAME_HEADER_CHANNEL_ASSIGNMENT_LEN:
	.long	4
	.cc_bottom FLAC__FRAME_HEADER_CHANNEL_ASSIGNMENT_LEN.data
	.cc_top FLAC__FRAME_HEADER_BITS_PER_SAMPLE_LEN.data,FLAC__FRAME_HEADER_BITS_PER_SAMPLE_LEN
	.globl	FLAC__FRAME_HEADER_BITS_PER_SAMPLE_LEN
	.align	4
	.type	FLAC__FRAME_HEADER_BITS_PER_SAMPLE_LEN,@object
	.size	FLAC__FRAME_HEADER_BITS_PER_SAMPLE_LEN, 4
FLAC__FRAME_HEADER_BITS_PER_SAMPLE_LEN:
	.long	3
	.cc_bottom FLAC__FRAME_HEADER_BITS_PER_SAMPLE_LEN.data
	.cc_top FLAC__FRAME_HEADER_ZERO_PAD_LEN.data,FLAC__FRAME_HEADER_ZERO_PAD_LEN
	.globl	FLAC__FRAME_HEADER_ZERO_PAD_LEN
	.align	4
	.type	FLAC__FRAME_HEADER_ZERO_PAD_LEN,@object
	.size	FLAC__FRAME_HEADER_ZERO_PAD_LEN, 4
FLAC__FRAME_HEADER_ZERO_PAD_LEN:
	.long	1
	.cc_bottom FLAC__FRAME_HEADER_ZERO_PAD_LEN.data
	.cc_top FLAC__FRAME_HEADER_CRC_LEN.data,FLAC__FRAME_HEADER_CRC_LEN
	.globl	FLAC__FRAME_HEADER_CRC_LEN
	.align	4
	.type	FLAC__FRAME_HEADER_CRC_LEN,@object
	.size	FLAC__FRAME_HEADER_CRC_LEN, 4
FLAC__FRAME_HEADER_CRC_LEN:
	.long	8
	.cc_bottom FLAC__FRAME_HEADER_CRC_LEN.data
	.cc_top FLAC__FRAME_FOOTER_CRC_LEN.data,FLAC__FRAME_FOOTER_CRC_LEN
	.globl	FLAC__FRAME_FOOTER_CRC_LEN
	.align	4
	.type	FLAC__FRAME_FOOTER_CRC_LEN,@object
	.size	FLAC__FRAME_FOOTER_CRC_LEN, 4
FLAC__FRAME_FOOTER_CRC_LEN:
	.long	16
	.cc_bottom FLAC__FRAME_FOOTER_CRC_LEN.data
	.cc_top FLAC__ENTROPY_CODING_METHOD_TYPE_LEN.data,FLAC__ENTROPY_CODING_METHOD_TYPE_LEN
	.globl	FLAC__ENTROPY_CODING_METHOD_TYPE_LEN
	.align	4
	.type	FLAC__ENTROPY_CODING_METHOD_TYPE_LEN,@object
	.size	FLAC__ENTROPY_CODING_METHOD_TYPE_LEN, 4
FLAC__ENTROPY_CODING_METHOD_TYPE_LEN:
	.long	2
	.cc_bottom FLAC__ENTROPY_CODING_METHOD_TYPE_LEN.data
	.cc_top FLAC__ENTROPY_CODING_METHOD_PARTITIONED_RICE_ORDER_LEN.data,FLAC__ENTROPY_CODING_METHOD_PARTITIONED_RICE_ORDER_LEN
	.globl	FLAC__ENTROPY_CODING_METHOD_PARTITIONED_RICE_ORDER_LEN
	.align	4
	.type	FLAC__ENTROPY_CODING_METHOD_PARTITIONED_RICE_ORDER_LEN,@object
	.size	FLAC__ENTROPY_CODING_METHOD_PARTITIONED_RICE_ORDER_LEN, 4
FLAC__ENTROPY_CODING_METHOD_PARTITIONED_RICE_ORDER_LEN:
	.long	4
	.cc_bottom FLAC__ENTROPY_CODING_METHOD_PARTITIONED_RICE_ORDER_LEN.data
	.cc_top FLAC__ENTROPY_CODING_METHOD_PARTITIONED_RICE_PARAMETER_LEN.data,FLAC__ENTROPY_CODING_METHOD_PARTITIONED_RICE_PARAMETER_LEN
	.globl	FLAC__ENTROPY_CODING_METHOD_PARTITIONED_RICE_PARAMETER_LEN
	.align	4
	.type	FLAC__ENTROPY_CODING_METHOD_PARTITIONED_RICE_PARAMETER_LEN,@object
	.size	FLAC__ENTROPY_CODING_METHOD_PARTITIONED_RICE_PARAMETER_LEN, 4
FLAC__ENTROPY_CODING_METHOD_PARTITIONED_RICE_PARAMETER_LEN:
	.long	4
	.cc_bottom FLAC__ENTROPY_CODING_METHOD_PARTITIONED_RICE_PARAMETER_LEN.data
	.cc_top FLAC__ENTROPY_CODING_METHOD_PARTITIONED_RICE2_PARAMETER_LEN.data,FLAC__ENTROPY_CODING_METHOD_PARTITIONED_RICE2_PARAMETER_LEN
	.globl	FLAC__ENTROPY_CODING_METHOD_PARTITIONED_RICE2_PARAMETER_LEN
	.align	4
	.type	FLAC__ENTROPY_CODING_METHOD_PARTITIONED_RICE2_PARAMETER_LEN,@object
	.size	FLAC__ENTROPY_CODING_METHOD_PARTITIONED_RICE2_PARAMETER_LEN, 4
FLAC__ENTROPY_CODING_METHOD_PARTITIONED_RICE2_PARAMETER_LEN:
	.long	5
	.cc_bottom FLAC__ENTROPY_CODING_METHOD_PARTITIONED_RICE2_PARAMETER_LEN.data
	.cc_top FLAC__ENTROPY_CODING_METHOD_PARTITIONED_RICE_RAW_LEN.data,FLAC__ENTROPY_CODING_METHOD_PARTITIONED_RICE_RAW_LEN
	.globl	FLAC__ENTROPY_CODING_METHOD_PARTITIONED_RICE_RAW_LEN
	.align	4
	.type	FLAC__ENTROPY_CODING_METHOD_PARTITIONED_RICE_RAW_LEN,@object
	.size	FLAC__ENTROPY_CODING_METHOD_PARTITIONED_RICE_RAW_LEN, 4
FLAC__ENTROPY_CODING_METHOD_PARTITIONED_RICE_RAW_LEN:
	.long	5
	.cc_bottom FLAC__ENTROPY_CODING_METHOD_PARTITIONED_RICE_RAW_LEN.data
	.cc_top FLAC__ENTROPY_CODING_METHOD_PARTITIONED_RICE_ESCAPE_PARAMETER.data,FLAC__ENTROPY_CODING_METHOD_PARTITIONED_RICE_ESCAPE_PARAMETER
	.globl	FLAC__ENTROPY_CODING_METHOD_PARTITIONED_RICE_ESCAPE_PARAMETER
	.align	4
	.type	FLAC__ENTROPY_CODING_METHOD_PARTITIONED_RICE_ESCAPE_PARAMETER,@object
	.size	FLAC__ENTROPY_CODING_METHOD_PARTITIONED_RICE_ESCAPE_PARAMETER, 4
FLAC__ENTROPY_CODING_METHOD_PARTITIONED_RICE_ESCAPE_PARAMETER:
	.long	15
	.cc_bottom FLAC__ENTROPY_CODING_METHOD_PARTITIONED_RICE_ESCAPE_PARAMETER.data
	.cc_top FLAC__ENTROPY_CODING_METHOD_PARTITIONED_RICE2_ESCAPE_PARAMETER.data,FLAC__ENTROPY_CODING_METHOD_PARTITIONED_RICE2_ESCAPE_PARAMETER
	.globl	FLAC__ENTROPY_CODING_METHOD_PARTITIONED_RICE2_ESCAPE_PARAMETER
	.align	4
	.type	FLAC__ENTROPY_CODING_METHOD_PARTITIONED_RICE2_ESCAPE_PARAMETER,@object
	.size	FLAC__ENTROPY_CODING_METHOD_PARTITIONED_RICE2_ESCAPE_PARAMETER, 4
FLAC__ENTROPY_CODING_METHOD_PARTITIONED_RICE2_ESCAPE_PARAMETER:
	.long	31
	.cc_bottom FLAC__ENTROPY_CODING_METHOD_PARTITIONED_RICE2_ESCAPE_PARAMETER.data
	.section	.cp.rodata.string,"aMSc",@progbits
	.cc_top .L.str2.data,.L.str2
	.align	4
	.type	.L.str2,@object
	.size	.L.str2, 17
.L.str2:
.asciiz"PARTITIONED_RICE"
	.cc_bottom .L.str2.data
	.cc_top .L.str3.data,.L.str3
	.align	4
	.type	.L.str3,@object
	.size	.L.str3, 18
.L.str3:
.asciiz"PARTITIONED_RICE2"
	.cc_bottom .L.str3.data
	.section	.cp.rodata,"ac",@progbits
	.cc_top FLAC__EntropyCodingMethodTypeString.data,FLAC__EntropyCodingMethodTypeString
	.globl	FLAC__EntropyCodingMethodTypeString.globound
FLAC__EntropyCodingMethodTypeString.globound = 2
	.globl	FLAC__EntropyCodingMethodTypeString
	.align	8
	.type	FLAC__EntropyCodingMethodTypeString,@object
	.size	FLAC__EntropyCodingMethodTypeString, 8
FLAC__EntropyCodingMethodTypeString:
	.long	.L.str2
	.long	.L.str3
	.cc_bottom FLAC__EntropyCodingMethodTypeString.data
	.section	.cp.rodata.4,"ac",@progbits
	.cc_top FLAC__SUBFRAME_LPC_QLP_COEFF_PRECISION_LEN.data,FLAC__SUBFRAME_LPC_QLP_COEFF_PRECISION_LEN
	.globl	FLAC__SUBFRAME_LPC_QLP_COEFF_PRECISION_LEN
	.align	4
	.type	FLAC__SUBFRAME_LPC_QLP_COEFF_PRECISION_LEN,@object
	.size	FLAC__SUBFRAME_LPC_QLP_COEFF_PRECISION_LEN, 4
FLAC__SUBFRAME_LPC_QLP_COEFF_PRECISION_LEN:
	.long	4
	.cc_bottom FLAC__SUBFRAME_LPC_QLP_COEFF_PRECISION_LEN.data
	.cc_top FLAC__SUBFRAME_LPC_QLP_SHIFT_LEN.data,FLAC__SUBFRAME_LPC_QLP_SHIFT_LEN
	.globl	FLAC__SUBFRAME_LPC_QLP_SHIFT_LEN
	.align	4
	.type	FLAC__SUBFRAME_LPC_QLP_SHIFT_LEN,@object
	.size	FLAC__SUBFRAME_LPC_QLP_SHIFT_LEN, 4
FLAC__SUBFRAME_LPC_QLP_SHIFT_LEN:
	.long	5
	.cc_bottom FLAC__SUBFRAME_LPC_QLP_SHIFT_LEN.data
	.cc_top FLAC__SUBFRAME_ZERO_PAD_LEN.data,FLAC__SUBFRAME_ZERO_PAD_LEN
	.globl	FLAC__SUBFRAME_ZERO_PAD_LEN
	.align	4
	.type	FLAC__SUBFRAME_ZERO_PAD_LEN,@object
	.size	FLAC__SUBFRAME_ZERO_PAD_LEN, 4
FLAC__SUBFRAME_ZERO_PAD_LEN:
	.long	1
	.cc_bottom FLAC__SUBFRAME_ZERO_PAD_LEN.data
	.cc_top FLAC__SUBFRAME_TYPE_LEN.data,FLAC__SUBFRAME_TYPE_LEN
	.globl	FLAC__SUBFRAME_TYPE_LEN
	.align	4
	.type	FLAC__SUBFRAME_TYPE_LEN,@object
	.size	FLAC__SUBFRAME_TYPE_LEN, 4
FLAC__SUBFRAME_TYPE_LEN:
	.long	6
	.cc_bottom FLAC__SUBFRAME_TYPE_LEN.data
	.cc_top FLAC__SUBFRAME_WASTED_BITS_FLAG_LEN.data,FLAC__SUBFRAME_WASTED_BITS_FLAG_LEN
	.globl	FLAC__SUBFRAME_WASTED_BITS_FLAG_LEN
	.align	4
	.type	FLAC__SUBFRAME_WASTED_BITS_FLAG_LEN,@object
	.size	FLAC__SUBFRAME_WASTED_BITS_FLAG_LEN, 4
FLAC__SUBFRAME_WASTED_BITS_FLAG_LEN:
	.long	1
	.cc_bottom FLAC__SUBFRAME_WASTED_BITS_FLAG_LEN.data
	.cc_top FLAC__SUBFRAME_TYPE_CONSTANT_BYTE_ALIGNED_MASK.data,FLAC__SUBFRAME_TYPE_CONSTANT_BYTE_ALIGNED_MASK
	.globl	FLAC__SUBFRAME_TYPE_CONSTANT_BYTE_ALIGNED_MASK
	.align	4
	.type	FLAC__SUBFRAME_TYPE_CONSTANT_BYTE_ALIGNED_MASK,@object
	.size	FLAC__SUBFRAME_TYPE_CONSTANT_BYTE_ALIGNED_MASK, 4
FLAC__SUBFRAME_TYPE_CONSTANT_BYTE_ALIGNED_MASK:
	.long	0
	.cc_bottom FLAC__SUBFRAME_TYPE_CONSTANT_BYTE_ALIGNED_MASK.data
	.cc_top FLAC__SUBFRAME_TYPE_VERBATIM_BYTE_ALIGNED_MASK.data,FLAC__SUBFRAME_TYPE_VERBATIM_BYTE_ALIGNED_MASK
	.globl	FLAC__SUBFRAME_TYPE_VERBATIM_BYTE_ALIGNED_MASK
	.align	4
	.type	FLAC__SUBFRAME_TYPE_VERBATIM_BYTE_ALIGNED_MASK,@object
	.size	FLAC__SUBFRAME_TYPE_VERBATIM_BYTE_ALIGNED_MASK, 4
FLAC__SUBFRAME_TYPE_VERBATIM_BYTE_ALIGNED_MASK:
	.long	2
	.cc_bottom FLAC__SUBFRAME_TYPE_VERBATIM_BYTE_ALIGNED_MASK.data
	.cc_top FLAC__SUBFRAME_TYPE_FIXED_BYTE_ALIGNED_MASK.data,FLAC__SUBFRAME_TYPE_FIXED_BYTE_ALIGNED_MASK
	.globl	FLAC__SUBFRAME_TYPE_FIXED_BYTE_ALIGNED_MASK
	.align	4
	.type	FLAC__SUBFRAME_TYPE_FIXED_BYTE_ALIGNED_MASK,@object
	.size	FLAC__SUBFRAME_TYPE_FIXED_BYTE_ALIGNED_MASK, 4
FLAC__SUBFRAME_TYPE_FIXED_BYTE_ALIGNED_MASK:
	.long	16
	.cc_bottom FLAC__SUBFRAME_TYPE_FIXED_BYTE_ALIGNED_MASK.data
	.cc_top FLAC__SUBFRAME_TYPE_LPC_BYTE_ALIGNED_MASK.data,FLAC__SUBFRAME_TYPE_LPC_BYTE_ALIGNED_MASK
	.globl	FLAC__SUBFRAME_TYPE_LPC_BYTE_ALIGNED_MASK
	.align	4
	.type	FLAC__SUBFRAME_TYPE_LPC_BYTE_ALIGNED_MASK,@object
	.size	FLAC__SUBFRAME_TYPE_LPC_BYTE_ALIGNED_MASK, 4
FLAC__SUBFRAME_TYPE_LPC_BYTE_ALIGNED_MASK:
	.long	64
	.cc_bottom FLAC__SUBFRAME_TYPE_LPC_BYTE_ALIGNED_MASK.data
	.section	.cp.rodata.string,"aMSc",@progbits
	.cc_top .L.str4.data,.L.str4
	.align	4
	.type	.L.str4,@object
	.size	.L.str4, 9
.L.str4:
.asciiz"CONSTANT"
	.cc_bottom .L.str4.data
	.cc_top .L.str5.data,.L.str5
	.align	4
	.type	.L.str5,@object
	.size	.L.str5, 9
.L.str5:
.asciiz"VERBATIM"
	.cc_bottom .L.str5.data
	.cc_top .L.str6.data,.L.str6
	.align	4
	.type	.L.str6,@object
	.size	.L.str6, 6
.L.str6:
.asciiz"FIXED"
	.cc_bottom .L.str6.data
	.cc_top .L.str7.data,.L.str7
	.align	4
	.type	.L.str7,@object
	.size	.L.str7, 4
.L.str7:
.asciiz"LPC"
	.cc_bottom .L.str7.data
	.section	.cp.rodata,"ac",@progbits
	.cc_top FLAC__SubframeTypeString.data,FLAC__SubframeTypeString
	.globl	FLAC__SubframeTypeString.globound
FLAC__SubframeTypeString.globound = 4
	.globl	FLAC__SubframeTypeString
	.align	8
	.type	FLAC__SubframeTypeString,@object
	.size	FLAC__SubframeTypeString, 16
FLAC__SubframeTypeString:
	.long	.L.str4
	.long	.L.str5
	.long	.L.str6
	.long	.L.str7
	.cc_bottom FLAC__SubframeTypeString.data
	.section	.cp.rodata.string,"aMSc",@progbits
	.cc_top .L.str8.data,.L.str8
	.align	4
	.type	.L.str8,@object
	.size	.L.str8, 12
.L.str8:
.asciiz"INDEPENDENT"
	.cc_bottom .L.str8.data
	.cc_top .L.str9.data,.L.str9
	.align	4
	.type	.L.str9,@object
	.size	.L.str9, 10
.L.str9:
.asciiz"LEFT_SIDE"
	.cc_bottom .L.str9.data
	.cc_top .L.str10.data,.L.str10
	.align	4
	.type	.L.str10,@object
	.size	.L.str10, 11
.L.str10:
.asciiz"RIGHT_SIDE"
	.cc_bottom .L.str10.data
	.cc_top .L.str11.data,.L.str11
	.align	4
	.type	.L.str11,@object
	.size	.L.str11, 9
.L.str11:
.asciiz"MID_SIDE"
	.cc_bottom .L.str11.data
	.section	.cp.rodata,"ac",@progbits
	.cc_top FLAC__ChannelAssignmentString.data,FLAC__ChannelAssignmentString
	.globl	FLAC__ChannelAssignmentString.globound
FLAC__ChannelAssignmentString.globound = 4
	.globl	FLAC__ChannelAssignmentString
	.align	8
	.type	FLAC__ChannelAssignmentString,@object
	.size	FLAC__ChannelAssignmentString, 16
FLAC__ChannelAssignmentString:
	.long	.L.str8
	.long	.L.str9
	.long	.L.str10
	.long	.L.str11
	.cc_bottom FLAC__ChannelAssignmentString.data
	.section	.cp.rodata.string,"aMSc",@progbits
	.cc_top .L.str12.data,.L.str12
	.align	4
	.type	.L.str12,@object
	.size	.L.str12, 31
.L.str12:
.asciiz"FRAME_NUMBER_TYPE_FRAME_NUMBER"
	.cc_bottom .L.str12.data
	.cc_top .L.str13.data,.L.str13
	.align	4
	.type	.L.str13,@object
	.size	.L.str13, 32
.L.str13:
.asciiz"FRAME_NUMBER_TYPE_SAMPLE_NUMBER"
	.cc_bottom .L.str13.data
	.section	.cp.rodata,"ac",@progbits
	.cc_top FLAC__FrameNumberTypeString.data,FLAC__FrameNumberTypeString
	.globl	FLAC__FrameNumberTypeString.globound
FLAC__FrameNumberTypeString.globound = 2
	.globl	FLAC__FrameNumberTypeString
	.align	8
	.type	FLAC__FrameNumberTypeString,@object
	.size	FLAC__FrameNumberTypeString, 8
FLAC__FrameNumberTypeString:
	.long	.L.str12
	.long	.L.str13
	.cc_bottom FLAC__FrameNumberTypeString.data
	.section	.cp.rodata.string,"aMSc",@progbits
	.cc_top .L.str14.data,.L.str14
	.align	4
	.type	.L.str14,@object
	.size	.L.str14, 11
.L.str14:
.asciiz"STREAMINFO"
	.cc_bottom .L.str14.data
	.cc_top .L.str15.data,.L.str15
	.align	4
	.type	.L.str15,@object
	.size	.L.str15, 8
.L.str15:
.asciiz"PADDING"
	.cc_bottom .L.str15.data
	.cc_top .L.str16.data,.L.str16
	.align	4
	.type	.L.str16,@object
	.size	.L.str16, 12
.L.str16:
.asciiz"APPLICATION"
	.cc_bottom .L.str16.data
	.cc_top .L.str17.data,.L.str17
	.align	4
	.type	.L.str17,@object
	.size	.L.str17, 10
.L.str17:
.asciiz"SEEKTABLE"
	.cc_bottom .L.str17.data
	.cc_top .L.str18.data,.L.str18
	.align	4
	.type	.L.str18,@object
	.size	.L.str18, 15
.L.str18:
.asciiz"VORBIS_COMMENT"
	.cc_bottom .L.str18.data
	.cc_top .L.str19.data,.L.str19
	.align	4
	.type	.L.str19,@object
	.size	.L.str19, 9
.L.str19:
.asciiz"CUESHEET"
	.cc_bottom .L.str19.data
	.cc_top .L.str20.data,.L.str20
	.align	4
	.type	.L.str20,@object
	.size	.L.str20, 8
.L.str20:
.asciiz"PICTURE"
	.cc_bottom .L.str20.data
	.section	.cp.rodata,"ac",@progbits
	.cc_top FLAC__MetadataTypeString.data,FLAC__MetadataTypeString
	.globl	FLAC__MetadataTypeString.globound
FLAC__MetadataTypeString.globound = 7
	.globl	FLAC__MetadataTypeString
	.align	8
	.type	FLAC__MetadataTypeString,@object
	.size	FLAC__MetadataTypeString, 28
FLAC__MetadataTypeString:
	.long	.L.str14
	.long	.L.str15
	.long	.L.str16
	.long	.L.str17
	.long	.L.str18
	.long	.L.str19
	.long	.L.str20
	.cc_bottom FLAC__MetadataTypeString.data
	.section	.cp.rodata.string,"aMSc",@progbits
	.cc_top .L.str21.data,.L.str21
	.align	4
	.type	.L.str21,@object
	.size	.L.str21, 6
.L.str21:
.asciiz"Other"
	.cc_bottom .L.str21.data
	.cc_top .L.str22.data,.L.str22
	.align	4
	.type	.L.str22,@object
	.size	.L.str22, 36
.L.str22:
.asciiz"32x32 pixels 'file icon' (PNG only)"
	.cc_bottom .L.str22.data
	.cc_top .L.str23.data,.L.str23
	.align	4
	.type	.L.str23,@object
	.size	.L.str23, 16
.L.str23:
.asciiz"Other file icon"
	.cc_bottom .L.str23.data
	.cc_top .L.str24.data,.L.str24
	.align	4
	.type	.L.str24,@object
	.size	.L.str24, 14
.L.str24:
.asciiz"Cover (front)"
	.cc_bottom .L.str24.data
	.cc_top .L.str25.data,.L.str25
	.align	4
	.type	.L.str25,@object
	.size	.L.str25, 13
.L.str25:
.asciiz"Cover (back)"
	.cc_bottom .L.str25.data
	.cc_top .L.str26.data,.L.str26
	.align	4
	.type	.L.str26,@object
	.size	.L.str26, 13
.L.str26:
.asciiz"Leaflet page"
	.cc_bottom .L.str26.data
	.cc_top .L.str27.data,.L.str27
	.align	4
	.type	.L.str27,@object
	.size	.L.str27, 30
.L.str27:
.asciiz"Media (e.g. label side of CD)"
	.cc_bottom .L.str27.data
	.cc_top .L.str28.data,.L.str28
	.align	4
	.type	.L.str28,@object
	.size	.L.str28, 35
.L.str28:
.asciiz"Lead artist/lead performer/soloist"
	.cc_bottom .L.str28.data
	.cc_top .L.str29.data,.L.str29
	.align	4
	.type	.L.str29,@object
	.size	.L.str29, 17
.L.str29:
.asciiz"Artist/performer"
	.cc_bottom .L.str29.data
	.cc_top .L.str30.data,.L.str30
	.align	4
	.type	.L.str30,@object
	.size	.L.str30, 10
.L.str30:
.asciiz"Conductor"
	.cc_bottom .L.str30.data
	.cc_top .L.str31.data,.L.str31
	.align	4
	.type	.L.str31,@object
	.size	.L.str31, 15
.L.str31:
.asciiz"Band/Orchestra"
	.cc_bottom .L.str31.data
	.cc_top .L.str32.data,.L.str32
	.align	4
	.type	.L.str32,@object
	.size	.L.str32, 9
.L.str32:
.asciiz"Composer"
	.cc_bottom .L.str32.data
	.cc_top .L.str33.data,.L.str33
	.align	4
	.type	.L.str33,@object
	.size	.L.str33, 21
.L.str33:
.asciiz"Lyricist/text writer"
	.cc_bottom .L.str33.data
	.cc_top .L.str34.data,.L.str34
	.align	4
	.type	.L.str34,@object
	.size	.L.str34, 19
.L.str34:
.asciiz"Recording Location"
	.cc_bottom .L.str34.data
	.cc_top .L.str35.data,.L.str35
	.align	4
	.type	.L.str35,@object
	.size	.L.str35, 17
.L.str35:
.asciiz"During recording"
	.cc_bottom .L.str35.data
	.cc_top .L.str36.data,.L.str36
	.align	4
	.type	.L.str36,@object
	.size	.L.str36, 19
.L.str36:
.asciiz"During performance"
	.cc_bottom .L.str36.data
	.cc_top .L.str37.data,.L.str37
	.align	4
	.type	.L.str37,@object
	.size	.L.str37, 27
.L.str37:
.asciiz"Movie/video screen capture"
	.cc_bottom .L.str37.data
	.cc_top .L.str38.data,.L.str38
	.align	4
	.type	.L.str38,@object
	.size	.L.str38, 23
.L.str38:
.asciiz"A bright coloured fish"
	.cc_bottom .L.str38.data
	.cc_top .L.str39.data,.L.str39
	.align	4
	.type	.L.str39,@object
	.size	.L.str39, 13
.L.str39:
.asciiz"Illustration"
	.cc_bottom .L.str39.data
	.cc_top .L.str40.data,.L.str40
	.align	4
	.type	.L.str40,@object
	.size	.L.str40, 21
.L.str40:
.asciiz"Band/artist logotype"
	.cc_bottom .L.str40.data
	.cc_top .L.str41.data,.L.str41
	.align	4
	.type	.L.str41,@object
	.size	.L.str41, 26
.L.str41:
.asciiz"Publisher/Studio logotype"
	.cc_bottom .L.str41.data
	.section	.cp.rodata,"ac",@progbits
	.cc_top FLAC__StreamMetadata_Picture_TypeString.data,FLAC__StreamMetadata_Picture_TypeString
	.globl	FLAC__StreamMetadata_Picture_TypeString.globound
FLAC__StreamMetadata_Picture_TypeString.globound = 21
	.globl	FLAC__StreamMetadata_Picture_TypeString
	.align	8
	.type	FLAC__StreamMetadata_Picture_TypeString,@object
	.size	FLAC__StreamMetadata_Picture_TypeString, 84
FLAC__StreamMetadata_Picture_TypeString:
	.long	.L.str21
	.long	.L.str22
	.long	.L.str23
	.long	.L.str24
	.long	.L.str25
	.long	.L.str26
	.long	.L.str27
	.long	.L.str28
	.long	.L.str29
	.long	.L.str30
	.long	.L.str31
	.long	.L.str32
	.long	.L.str33
	.long	.L.str34
	.long	.L.str35
	.long	.L.str36
	.long	.L.str37
	.long	.L.str38
	.long	.L.str39
	.long	.L.str40
	.long	.L.str41
	.cc_bottom FLAC__StreamMetadata_Picture_TypeString.data
	.section	.cp.rodata.string,"aMSc",@progbits
	.cc_top .L.str42.data,.L.str42
	.align	4
	.type	.L.str42,@object
	.size	.L.str42, 65
.L.str42:
.asciiz"CD-DA cue sheet must have a lead-in length of at least 2 seconds"
	.cc_bottom .L.str42.data
	.cc_top .L.str43.data,.L.str43
	.align	4
	.type	.L.str43,@object
	.size	.L.str43, 71
.L.str43:
.asciiz"CD-DA cue sheet lead-in length must be evenly divisible by 588 samples"
	.cc_bottom .L.str43.data
	.cc_top .L.str44.data,.L.str44
	.align	4
	.type	.L.str44,@object
	.size	.L.str44, 54
.L.str44:
.asciiz"cue sheet must have at least one track (the lead-out)"
	.cc_bottom .L.str44.data
	.cc_top .L.str45.data,.L.str45
	.align	4
	.type	.L.str45,@object
	.size	.L.str45, 61
.L.str45:
.asciiz"CD-DA cue sheet must have a lead-out track number 170 (0xAA)"
	.cc_bottom .L.str45.data
	.cc_top .L.str46.data,.L.str46
	.align	4
	.type	.L.str46,@object
	.size	.L.str46, 40
.L.str46:
.asciiz"cue sheet may not have a track number 0"
	.cc_bottom .L.str46.data
	.cc_top .L.str47.data,.L.str47
	.align	4
	.type	.L.str47,@object
	.size	.L.str47, 49
.L.str47:
.asciiz"CD-DA cue sheet track number must be 1-99 or 170"
	.cc_bottom .L.str47.data
	.cc_top .L.str48.data,.L.str48
	.align	4
	.type	.L.str48,@object
	.size	.L.str48, 72
.L.str48:
.asciiz"CD-DA cue sheet lead-out offset must be evenly divisible by 588 samples"
	.cc_bottom .L.str48.data
	.cc_top .L.str49.data,.L.str49
	.align	4
	.type	.L.str49,@object
	.size	.L.str49, 69
.L.str49:
.asciiz"CD-DA cue sheet track offset must be evenly divisible by 588 samples"
	.cc_bottom .L.str49.data
	.cc_top .L.str50.data,.L.str50
	.align	4
	.type	.L.str50,@object
	.size	.L.str50, 51
.L.str50:
.asciiz"cue sheet track must have at least one index point"
	.cc_bottom .L.str50.data
	.cc_top .L.str51.data,.L.str51
	.align	4
	.type	.L.str51,@object
	.size	.L.str51, 52
.L.str51:
.asciiz"cue sheet track's first index number must be 0 or 1"
	.cc_bottom .L.str51.data
	.cc_top .L.str52.data,.L.str52
	.align	4
	.type	.L.str52,@object
	.size	.L.str52, 75
.L.str52:
.asciiz"CD-DA cue sheet track index offset must be evenly divisible by 588 samples"
	.cc_bottom .L.str52.data
	.cc_top .L.str53.data,.L.str53
	.align	4
	.type	.L.str53,@object
	.size	.L.str53, 49
.L.str53:
.asciiz"cue sheet track index numbers must increase by 1"
	.cc_bottom .L.str53.data
	.cc_top .L.str54.data,.L.str54
	.align	4
	.type	.L.str54,@object
	.size	.L.str54, 74
.L.str54:
.asciiz"MIME type string must contain only printable ASCII characters (0x20-0x7e)"
	.cc_bottom .L.str54.data
	.cc_top .L.str55.data,.L.str55
	.align	4
	.type	.L.str55,@object
	.size	.L.str55, 39
.L.str55:
.asciiz"description string must be valid UTF-8"
	.cc_bottom .L.str55.data
	.section	.cp.rodata.4,"ac",@progbits
.Ldebug_end0:
	.section	.cp.rodata,"ac",@progbits
.Ldebug_end1:
	.section	.dp.data.4,"awd",@progbits
.Ldebug_end2:
	.text
.Ldebug_end3:
	.section	.trap_info,"",@progbits
.Ltrap_info_entries_start0:
	.long	.Ltrap_info_entries_end0-.Ltrap_info_entries_start0
	.long	1
.Ltrap_info_entries_end0: