	.text
	.file	"Function.c"
	.section	.cp.rodata.cst4,"aMc",@progbits,4
	.cc_top .LCPI0_0.data,.LCPI0_0
	.align	4
	.type	.LCPI0_0,@object
	.size	.LCPI0_0, 4
.LCPI0_0:
	.long	1413754136
	.cc_bottom .LCPI0_0.data
	.cc_top .LCPI0_1.data,.LCPI0_1
	.align	4
	.type	.LCPI0_1,@object
	.size	.LCPI0_1, 4
.LCPI0_1:
	.long	1075388923
	.cc_bottom .LCPI0_1.data
	.text
	.globl	InitFG
	.align	4
	.type	InitFG,@function
	.cc_top InitFG.function,InitFG
InitFG:
.Lfunc_begin0:
	.loc	1 14 0
	.cfi_startproc
	.issue_mode dual
	{
		nop
		dualentsp 6
	}
.Ltmp0:
	.cfi_def_cfa_offset 24
.Ltmp1:
	.cfi_offset 15, 0
	std r5, r4, sp[1]
.Ltmp2:
	.cfi_offset 4, -16
.Ltmp3:
	.cfi_offset 5, -12
.Ltmp4:
	.cfi_offset 6, -8
.Ltmp5:
	{
		mov r5, r1
		stw r6, sp[4]
	}
.Ltmp6:
	{
		mov r4, r0
		nop
	}
.Ltmp7:
	.loc	1 15 5 prologue_end
	ldaw r11, cp[.L.str]
	{
		mov r0, r11
		mov r1, r4
	}
	{
		mov r2, r5
		nop
	}
	bl iprintf
	.loc	1 16 5
	{
		mov r0, r5
		nop
	}
	bl __floatunsidf
	ldw r2, cp[.LCPI0_0]
	ldw r3, cp[.LCPI0_1]
	.loc	1 16 5
	bl __muldf3
	{
		mov r5, r0
		mov r6, r1
	}
	.loc	1 16 5
	{
		mov r0, r4
		nop
	}
	bl __floatunsidf
	{
		mov r2, r0
		mov r3, r1
	}
	.loc	1 16 5
	{
		mov r0, r5
		mov r1, r6
	}
	bl __divdf3
	.loc	1 16 5
	bl __truncdfsf2
	.loc	1 16 5
	stw r0, dp[dphase]
	.loc	1 17 5
	bl __extendsfdf2
	{
		mov r2, r0
		mov r3, r1
	}
	.loc	1 17 5
	ldaw r11, cp[.L.str1]
	{
		mov r0, r11
		mov r1, r2
	}
	{
		mov r2, r3
		nop
	}
	bl printf
	.loc	1 18 12
	bl __getstdout
	.loc	1 18 5
	bl fflush
	{
		nop
		ldw r6, sp[4]
	}
	.loc	1 19 1
	ldd r5, r4, sp[1]
.Ltmp8:
	{
		nop
		retsp 6
	}
	# RETURN_REG_HOLDER
.Ltmp9:
	.cc_bottom InitFG.function
	.set	InitFG.nstackwords,((iprintf.nstackwords $M __muldf3.nstackwords $M __floatunsidf.nstackwords $M __divdf3.nstackwords $M __truncdfsf2.nstackwords $M __extendsfdf2.nstackwords $M printf.nstackwords $M __getstdout.nstackwords $M fflush.nstackwords) + 6)
	.globl	InitFG.nstackwords
	.set	InitFG.maxcores,__getstdout.maxcores $M fflush.maxcores $M iprintf.maxcores $M printf.maxcores $M 1
	.globl	InitFG.maxcores
	.set	InitFG.maxtimers,__getstdout.maxtimers $M fflush.maxtimers $M iprintf.maxtimers $M printf.maxtimers $M 0
	.globl	InitFG.maxtimers
	.set	InitFG.maxchanends,__getstdout.maxchanends $M fflush.maxchanends $M iprintf.maxchanends $M printf.maxchanends $M 0
	.globl	InitFG.maxchanends
.Ltmp10:
	.size	InitFG, .Ltmp10-InitFG
.Lfunc_end0:
	.cfi_endproc

	.section	.cp.rodata.cst4,"aMc",@progbits,4
	.cc_top .LCPI1_0.data,.LCPI1_0
	.align	4
	.type	.LCPI1_0,@object
	.size	.LCPI1_0, 4
.LCPI1_0:
	.long	1056964608
	.cc_bottom .LCPI1_0.data
	.cc_top .LCPI1_1.data,.LCPI1_1
	.align	4
	.type	.LCPI1_1,@object
	.size	.LCPI1_1, 4
.LCPI1_1:
	.long	1413754136
	.cc_bottom .LCPI1_1.data
	.cc_top .LCPI1_2.data,.LCPI1_2
	.align	4
	.type	.LCPI1_2,@object
	.size	.LCPI1_2, 4
.LCPI1_2:
	.long	1074340347
	.cc_bottom .LCPI1_2.data
	.cc_top .LCPI1_3.data,.LCPI1_3
	.align	4
	.type	.LCPI1_3,@object
	.size	.LCPI1_3, 4
.LCPI1_3:
	.long	3219128320
	.cc_bottom .LCPI1_3.data
	.cc_top .LCPI1_4.data,.LCPI1_4
	.align	4
	.type	.LCPI1_4,@object
	.size	.LCPI1_4, 4
.LCPI1_4:
	.long	1075388923
	.cc_bottom .LCPI1_4.data
	.cc_top .LCPI1_5.data,.LCPI1_5
	.align	4
	.type	.LCPI1_5,@object
	.size	.LCPI1_5, 4
.LCPI1_5:
	.long	3222872571
	.cc_bottom .LCPI1_5.data
	.cc_top .LCPI1_6.data,.LCPI1_6
	.align	4
	.type	.LCPI1_6,@object
	.size	.LCPI1_6, 4
.LCPI1_6:
	.long	1317011456
	.cc_bottom .LCPI1_6.data
	.text
	.globl	NextSample
	.align	4
	.type	NextSample,@function
	.cc_top NextSample.function,NextSample
NextSample:
.Lfunc_begin1:
	.loc	1 21 0
	.cfi_startproc
	.issue_mode dual
	{
		nop
		dualentsp 10
	}
.Ltmp11:
	.cfi_def_cfa_offset 40
.Ltmp12:
	.cfi_offset 15, 0
	.loc	1 22 5 prologue_end
.Ltmp13:
	std r5, r4, sp[1]
.Ltmp14:
	.cfi_offset 4, -32
.Ltmp15:
	.cfi_offset 5, -28
	std r7, r6, sp[2]
.Ltmp16:
	.cfi_offset 6, -24
.Ltmp17:
	.cfi_offset 7, -20
	std r9, r8, sp[3]
.Ltmp18:
	.cfi_offset 8, -16
.Ltmp19:
	.cfi_offset 9, -12
	{
		nop
		stw r10, sp[8]
	}
.Ltmp20:
	.cfi_offset 10, -8
	ldw r0, dp[dphase]
	.loc	1 22 5
	ldw r1, dp[phase]
	.loc	1 22 5
	bl __addsf3
	{
		mov r4, r0
		nop
	}
	ldw r1, cp[.LCPI1_0]
	.loc	1 31 5
	bl __mulsf3
	.loc	1 31 5
	bl __extendsfdf2
	ldw r6, cp[.LCPI1_1]
	ldw r3, cp[.LCPI1_2]
	.loc	1 31 5
	{
		mov r2, r6
		nop
	}
	bl __divdf3
	{
		ldc r2, 0
		nop
	}
	ldw r3, cp[.LCPI1_3]
	.loc	1 31 5
	bl __adddf3
	.loc	1 31 5
	bl __truncdfsf2
	{
		mov r5, r0
		mov r0, r4
	}
	.loc	1 33 9
.Ltmp21:
	bl __extendsfdf2
	{
		mov r7, r0
		mov r8, r1
	}
	ldw r9, cp[.LCPI1_4]
	.loc	1 33 9
	{
		mov r2, r6
		mov r3, r9
	}
	bl __ledf2
	{
		mkmsk r1, 1
		nop
	}
	{
		lss r10, r0, r1
		mov r0, r7
	}
	{
		mov r1, r8
		mov r2, r6
	}
	{
		mov r3, r9
		nop
	}
	bl __unorddf2
	{
		eq r0, r0, 0
		nop
	}
	{
		eq r0, r0, 0
		nop
	}
	{
		or r0, r0, r10
		nop
	}
	bt r0, .LBB1_2
	ldw r2, cp[.LCPI1_1]
	ldw r3, cp[.LCPI1_5]
	.loc	1 33 32
	{
		mov r0, r7
		mov r1, r8
	}
	bl __adddf3
	.loc	1 33 32
	bl __truncdfsf2
	{
		mov r4, r0
		nop
	}
.Ltmp22:
.LBB1_2:
	.loc	1 22 5
	stw r4, dp[phase]
	ldw r1, cp[.LCPI1_6]
	.loc	1 35 5
	{
		mov r0, r5
		nop
	}
	bl __mulsf3
	.loc	1 35 5
	bl __fixsfsi
	{
		nop
		ldw r10, sp[8]
	}
	.loc	1 37 5
	ldd r9, r8, sp[3]
	ldd r7, r6, sp[2]
	ldd r5, r4, sp[1]
	{
		nop
		retsp 10
	}
	# RETURN_REG_HOLDER
.Ltmp23:
	.cc_bottom NextSample.function
	.set	NextSample.nstackwords,((__addsf3.nstackwords $M __divdf3.nstackwords $M __extendsfdf2.nstackwords $M __ledf2.nstackwords $M __unorddf2.nstackwords $M __adddf3.nstackwords $M __truncdfsf2.nstackwords $M __mulsf3.nstackwords $M __fixsfsi.nstackwords) + 10)
	.globl	NextSample.nstackwords
	.set	NextSample.maxcores,1
	.globl	NextSample.maxcores
	.set	NextSample.maxtimers,0
	.globl	NextSample.maxtimers
	.set	NextSample.maxchanends,0
	.globl	NextSample.maxchanends
.Ltmp24:
	.size	NextSample, .Ltmp24-NextSample
.Lfunc_end1:
	.cfi_endproc

	.section	.dp.bss.4,"awd",@nobits
	.cc_top phase.data,phase
	.globl	phase
	.align	4
	.type	phase,@object
	.size	phase, 4
phase:
	.long	0
	.cc_bottom phase.data
	.section	.cp.rodata.string,"aMSc",@progbits
	.cc_top .L.str.data,.L.str
	.align	4
	.type	.L.str,@object
	.size	.L.str, 22
.L.str:
.asciiz"\nfsample= %d freq= %d"
	.cc_bottom .L.str.data
	.section	.dp.bss.4,"awd",@nobits
	.cc_top dphase.data,dphase
	.globl	dphase
	.align	4
	.type	dphase,@object
	.size	dphase, 4
dphase:
	.long	0
	.cc_bottom dphase.data
	.section	.cp.rodata.string,"aMSc",@progbits
	.cc_top .L.str1.data,.L.str1
	.align	4
	.type	.L.str1,@object
	.size	.L.str1, 12
.L.str1:
.asciiz"\ndphase= %f"
	.cc_bottom .L.str1.data
	.section	.dp.bss.4,"awd",@nobits
.Ldebug_end0:
	.text
.Ldebug_end1:
	.section	.trap_info,"",@progbits
.Ltrap_info_entries_start0:
	.long	.Ltrap_info_entries_end0-.Ltrap_info_entries_start0
	.long	1
.Ltrap_info_entries_end0: