	.text
	.file	"metadata_object.c"
	.text
	.globl	FLAC__metadata_object_new
	.align	4
	.type	FLAC__metadata_object_new,@function
	.cc_top FLAC__metadata_object_new.function,FLAC__metadata_object_new
FLAC__metadata_object_new:
.Lfunc_begin0:
	.file	4 "C:/Users/takaaki/git/sw_xSSDAC/module_libFLAC/source\\metadata_object.c"
	.loc	4 432 0
	.cfi_startproc
	.issue_mode dual
	{
		nop
		dualentsp 8
	}
.Ltmp0:
	.cfi_def_cfa_offset 32
.Ltmp1:
	.cfi_offset 15, 0
	std r5, r4, sp[1]
.Ltmp2:
	.cfi_offset 4, -24
.Ltmp3:
	.cfi_offset 5, -20
	std r7, r6, sp[2]
.Ltmp4:
	.cfi_offset 6, -16
.Ltmp5:
	.cfi_offset 7, -12
.Ltmp6:
	.cfi_offset 8, -8
.Ltmp7:
	{
		mov r5, r0
		stw r8, sp[6]
	}
.Ltmp8:
	ldc r0, 126
	.loc	4 435 6 prologue_end
.Ltmp9:
	{
		lsu r0, r0, r5
		nop
	}
	.loc	4 435 6
	bf r0, .LBB0_2
.Ltmp10:
	{
		ldc r4, 0
		nop
	}
	bu .LBB0_19
.LBB0_2:
.Ltmp11:
	{
		mkmsk r0, 1
		nop
	}
	ldc r1, 176
	.loc	4 438 11
	bl calloc
	{
		mov r4, r0
		nop
	}
.Ltmp12:
	bf r4, .LBB0_19
.Ltmp13:
	{
		ldc r6, 0
		nop
	}
	{
		nop
		stw r6, r4[1]
	}
	.loc	4 441 3
.Ltmp14:
	{
		ldc r0, 6
		stw r5, r4[0]
	}
	.loc	4 442 3
	{
		lsu r0, r0, r5
		nop
	}
	bt r0, .LBB0_19
.Ltmp15:

	.xtabranch .Ljumptable0+4,.Ljumptable0+8,.Ljumptable0+12,.Ljumptable0+16,.Ljumptable0+20,.Ljumptable0+24,.Ljumptable0+28
.Ljumptable0:
		
	{
		nop
		bru r5
	}
	.jmptable32 .LBB0_5,.LBB0_19,.LBB0_6,.LBB0_19,.LBB0_8,.LBB0_13,.LBB0_14
.Ltmp16:
.LBB0_5:
	{
		ldc r0, 34
		nop
	}
	{
		nop
		stw r0, r4[2]
	}
	bu .LBB0_19
.Ltmp17:
.LBB0_6:
	.loc	4 452 5
	ldw r0, cp[FLAC__STREAM_METADATA_APPLICATION_ID_LEN]
	bu .LBB0_7
.Ltmp18:
.LBB0_8:
	.loc	4 465 66
	ldw r6, dp[FLAC__VENDOR_STRING]
.Ltmp19:
	.loc	4 465 66
	{
		mov r0, r6
		nop
	}
	bl strlen
	{
		mov r5, r0
		nop
	}
.Ltmp20:
	.loc	4 465 66
	{
		add r8, r5, 1
		stw r5, r4[4]
	}
.Ltmp21:
	{
		ldc r7, 0
		nop
	}
	bf r8, .LBB0_12
.Ltmp22:
	bf r6, .LBB0_12
.Ltmp23:
	.file	5 "C:/Users/takaaki/git/sw_xSSDAC/module_libFLAC/source/share\\alloc.h"
	.loc	5 95 9
	{
		mov r0, r8
		nop
	}
	bl malloc
	{
		mov r7, r0
		nop
	}
.Ltmp24:
	.loc	4 70 12
	bf r7, .LBB0_20
.Ltmp25:
	.loc	4 72 3
	{
		mov r0, r7
		mov r1, r6
	}
	{
		mov r2, r8
		nop
	}
	bl memcpy
.Ltmp26:
.LBB0_12:
	{
		nop
		stw r7, r4[5]
	}
	.loc	4 199 2
.Ltmp27:
	ldw r0, cp[FLAC__STREAM_METADATA_VORBIS_COMMENT_ENTRY_LENGTH_LEN]
	.loc	4 199 2
	{
		shr r0, r0, 3
		nop
	}
	.loc	4 200 2
	{
		add r0, r0, r5
		nop
	}
	.loc	4 201 2
	ldw r1, cp[FLAC__STREAM_METADATA_VORBIS_COMMENT_NUM_COMMENTS_LEN]
	.loc	4 201 2
	{
		shr r1, r1, 3
		nop
	}
	.loc	4 201 2
	{
		add r0, r0, r1
		nop
	}
.Ltmp28:
	{
		nop
		stw r0, r4[2]
	}
	bu .LBB0_19
.Ltmp29:
.LBB0_13:
	.loc	4 317 2
	ldw r0, cp[FLAC__STREAM_METADATA_CUESHEET_MEDIA_CATALOG_NUMBER_LEN]
	.loc	4 317 2
	ldw r1, cp[FLAC__STREAM_METADATA_CUESHEET_LEAD_IN_LEN]
	.loc	4 317 2
	{
		add r0, r1, r0
		nop
	}
	.loc	4 317 2
	ldw r1, cp[FLAC__STREAM_METADATA_CUESHEET_IS_CD_LEN]
	.loc	4 317 2
	{
		add r0, r0, r1
		nop
	}
	.loc	4 317 2
	ldw r1, cp[FLAC__STREAM_METADATA_CUESHEET_RESERVED_LEN]
	.loc	4 317 2
	{
		add r0, r0, r1
		nop
	}
	.loc	4 317 2
	ldw r1, cp[FLAC__STREAM_METADATA_CUESHEET_NUM_TRACKS_LEN]
	.loc	4 317 2
	{
		add r0, r0, r1
		nop
	}
.Ltmp30:
.LBB0_7:
	.loc	4 452 5
	{
		shr r0, r0, 3
		nop
	}
	{
		nop
		stw r0, r4[2]
	}
	bu .LBB0_19
.LBB0_14:
.Ltmp31:
	.loc	4 476 5
	ldw r0, cp[FLAC__STREAM_METADATA_PICTURE_TYPE_LEN]
	.loc	4 476 5
	ldw r1, cp[FLAC__STREAM_METADATA_PICTURE_MIME_TYPE_LENGTH_LEN]
	.loc	4 476 5
	{
		add r0, r1, r0
		nop
	}
	.loc	4 476 5
	ldw r1, cp[FLAC__STREAM_METADATA_PICTURE_DESCRIPTION_LENGTH_LEN]
	.loc	4 476 5
	{
		add r0, r0, r1
		nop
	}
	.loc	4 476 5
	ldw r1, cp[FLAC__STREAM_METADATA_PICTURE_WIDTH_LEN]
	.loc	4 476 5
	{
		add r0, r0, r1
		nop
	}
	.loc	4 476 5
	ldw r1, cp[FLAC__STREAM_METADATA_PICTURE_HEIGHT_LEN]
	.loc	4 476 5
	{
		add r0, r0, r1
		nop
	}
	.loc	4 476 5
	ldw r1, cp[FLAC__STREAM_METADATA_PICTURE_DEPTH_LEN]
	.loc	4 476 5
	{
		add r0, r0, r1
		nop
	}
	.loc	4 476 5
	ldw r1, cp[FLAC__STREAM_METADATA_PICTURE_COLORS_LEN]
	.loc	4 476 5
	{
		add r0, r0, r1
		nop
	}
	.loc	4 476 5
	ldw r1, cp[FLAC__STREAM_METADATA_PICTURE_DATA_LENGTH_LEN]
	.loc	4 476 5
	{
		add r0, r0, r1
		nop
	}
	.loc	4 476 5
	{
		shr r0, r0, 3
		nop
	}
	{
		nop
		stw r0, r4[2]
	}
	{
		nop
		stw r6, r4[4]
	}
	{
		nop
		stw r6, r4[5]
	}
	{
		nop
		stw r6, r4[6]
	}
	.loc	4 117 15
.Ltmp32:
	ldaw r11, cp[.L.str]
.Ltmp33:
	{
		mov r0, r11
		nop
	}
	bl strdup
.Ltmp34:
	{
		mov r5, r0
		nop
	}
.Ltmp35:
	bf r5, .LBB0_18
.Ltmp36:
	{
		nop
		ldw r0, r4[5]
	}
	.loc	4 120 3
.Ltmp37:
	bl free
	{
		nop
		stw r5, r4[5]
	}
.Ltmp38:
	.loc	4 117 15
	ldaw r11, cp[.L.str]
.Ltmp39:
	{
		mov r0, r11
		nop
	}
	bl strdup
.Ltmp40:
	{
		mov r5, r0
		nop
	}
.Ltmp41:
	.loc	4 119 6
	bf r5, .LBB0_17
.Ltmp42:
	{
		nop
		ldw r0, r4[6]
	}
	.loc	4 120 3
.Ltmp43:
	bl free
	{
		nop
		stw r5, r4[6]
	}
	bu .LBB0_19
.Ltmp44:
.LBB0_17:
	{
		nop
		ldw r0, r4[5]
	}
	.loc	4 504 6
.Ltmp45:
	bl free
.Ltmp46:
.LBB0_18:
	.loc	4 505 6
	{
		mov r0, r4
		nop
	}
	bl free
	{
		mov r4, r6
		nop
	}
	bu .LBB0_19
.Ltmp47:
.LBB0_20:
	.loc	4 467 6
	{
		mov r0, r4
		nop
	}
	bl free
	{
		ldc r4, 0
		nop
	}
.Ltmp48:
.LBB0_19:
	.loc	4 519 1
	{
		mov r0, r4
		ldw r8, sp[6]
	}
	ldd r7, r6, sp[2]
	ldd r5, r4, sp[1]
	{
		nop
		retsp 8
	}
	# RETURN_REG_HOLDER
.Ltmp49:
	.cc_bottom FLAC__metadata_object_new.function
	.set	FLAC__metadata_object_new.nstackwords,((calloc.nstackwords $M strlen.nstackwords $M malloc.nstackwords $M memcpy.nstackwords $M strdup.nstackwords $M free.nstackwords) + 8)
	.globl	FLAC__metadata_object_new.nstackwords
	.set	FLAC__metadata_object_new.maxcores,calloc.maxcores $M free.maxcores $M malloc.maxcores $M strdup.maxcores $M strlen.maxcores $M 1
	.globl	FLAC__metadata_object_new.maxcores
	.set	FLAC__metadata_object_new.maxtimers,calloc.maxtimers $M free.maxtimers $M malloc.maxtimers $M strdup.maxtimers $M strlen.maxtimers $M 0
	.globl	FLAC__metadata_object_new.maxtimers
	.set	FLAC__metadata_object_new.maxchanends,calloc.maxchanends $M free.maxchanends $M malloc.maxchanends $M strdup.maxchanends $M strlen.maxchanends $M 0
	.globl	FLAC__metadata_object_new.maxchanends
.Ltmp50:
	.size	FLAC__metadata_object_new, .Ltmp50-FLAC__metadata_object_new
.Lfunc_end0:
	.file	6 "C:\\Program Files (x86)\\XMOS\\xTIMEcomposer\\Community_14.4.1\\target/include/clang\\stddef.h"
	.cfi_endproc

	.section	.cp.rodata.cst4,"aMc",@progbits,4
	.cc_top .LCPI1_0.data,.LCPI1_0
	.align	4
	.type	.LCPI1_0,@object
	.size	.LCPI1_0, 4
.LCPI1_0:
	.long	178956971
	.cc_bottom .LCPI1_0.data
	.text
	.globl	FLAC__metadata_object_clone
	.align	4
	.type	FLAC__metadata_object_clone,@function
	.cc_top FLAC__metadata_object_clone.function,FLAC__metadata_object_clone
FLAC__metadata_object_clone:
.Lfunc_begin1:
	.loc	4 522 0
	.cfi_startproc
	.issue_mode dual
	{
		nop
		dualentsp 12
	}
.Ltmp51:
	.cfi_def_cfa_offset 48
.Ltmp52:
	.cfi_offset 15, 0
	std r5, r4, sp[2]
.Ltmp53:
	.cfi_offset 4, -32
.Ltmp54:
	.cfi_offset 5, -28
	std r7, r6, sp[3]
.Ltmp55:
	.cfi_offset 6, -24
.Ltmp56:
	.cfi_offset 7, -20
	std r9, r8, sp[4]
.Ltmp57:
	.cfi_offset 8, -16
.Ltmp58:
	.cfi_offset 9, -12
.Ltmp59:
	.cfi_offset 10, -8
.Ltmp60:
	{
		mov r5, r0
		stw r10, sp[10]
	}
.Ltmp61:
	{
		nop
		ldw r0, r5[0]
	}
	.loc	4 527 12 prologue_end
.Ltmp62:
	bl FLAC__metadata_object_new
.Ltmp63:
	{
		mov r4, r0
		ldc r7, 0
	}
.Ltmp64:
	.loc	4 527 12
	bf r4, .LBB1_1
.Ltmp65:
	{
		nop
		ldw r0, r5[1]
	}
	{
		nop
		stw r0, r4[1]
	}
	{
		nop
		ldw r0, r5[0]
	}
	{
		nop
		stw r0, r4[0]
	}
	{
		nop
		ldw r6, r5[2]
	}
.Ltmp66:
	.loc	4 530 3
	{
		ldc r1, 6
		stw r6, r4[2]
	}
	.loc	4 531 3
	{
		lsu r1, r1, r0
		nop
	}
	bf r1, .LBB1_3
.Ltmp67:
	{
		ldc r7, 0
		nop
	}
	bf r6, .LBB1_67
.Ltmp68:
	{
		nop
		ldw r5, r5[4]
	}
.Ltmp69:
	bf r5, .LBB1_67
.Ltmp70:
	.loc	5 95 9
	{
		mov r0, r6
		nop
	}
	bl malloc
	{
		mov r7, r0
		nop
	}
.Ltmp71:
	bf r7, .LBB1_68
.Ltmp72:
	.loc	4 72 3
	{
		mov r0, r7
		mov r1, r5
	}
	{
		mov r2, r6
		nop
	}
	bl memcpy
.Ltmp73:
.LBB1_67:
	{
		nop
		stw r7, r4[4]
	}
	bu .LBB1_69
.Ltmp74:
.LBB1_1:
	{
		mov r4, r7
		nop
	}
	bu .LBB1_69
.LBB1_3:
.Ltmp75:

	.xtabranch .Ljumptable1+4,.Ljumptable1+8,.Ljumptable1+12,.Ljumptable1+16,.Ljumptable1+20,.Ljumptable1+24,.Ljumptable1+28
.Ljumptable1:
		
	{
		nop
		bru r0
	}
	.jmptable32 .LBB1_4,.LBB1_69,.LBB1_5,.LBB1_12,.LBB1_18,.LBB1_42,.LBB1_56
.Ltmp76:
.LBB1_4:
	.loc	4 533 5
	ldaw r0, r4[4]
	.loc	4 533 5
	ldaw r1, r5[4]
	{
		ldc r2, 56
		nop
	}
	.loc	4 533 5
	bl __memcpy_4
	bu .LBB1_69
.Ltmp77:
.LBB1_5:
	.loc	4 538 9
	ldw r0, cp[FLAC__STREAM_METADATA_APPLICATION_ID_LEN]
	.loc	4 538 9
	{
		shr r8, r0, 3
		nop
	}
	.loc	4 538 9
	{
		lsu r0, r6, r8
		nop
	}
	bt r0, .LBB1_6
.Ltmp78:
	.loc	4 542 5
	ldaw r0, r4[4]
	.loc	4 542 5
	ldaw r1, r5[4]
	.loc	4 542 5
	{
		mov r2, r8
		nop
	}
	bl memcpy
	{
		ldc r7, 0
		eq r0, r6, r8
	}
	bt r0, .LBB1_11
.Ltmp79:
	{
		nop
		ldw r5, r5[5]
	}
.Ltmp80:
	bf r5, .LBB1_11
.Ltmp81:
	.loc	4 543 10
	{
		sub r6, r6, r8
		nop
	}
.Ltmp82:
	.loc	5 95 9
	{
		mov r0, r6
		nop
	}
	bl malloc
	{
		mov r7, r0
		nop
	}
.Ltmp83:
	bf r7, .LBB1_68
.Ltmp84:
	.loc	4 72 3
	{
		mov r0, r7
		mov r1, r5
	}
	{
		mov r2, r6
		nop
	}
	bl memcpy
.Ltmp85:
.LBB1_11:
	{
		nop
		stw r7, r4[5]
	}
	bu .LBB1_69
.Ltmp86:
.LBB1_12:
	{
		nop
		ldw r0, r5[4]
	}
	{
		nop
		stw r0, r4[4]
	}
	ldw r1, cp[.LCPI1_0]
	.loc	4 550 9
.Ltmp87:
	{
		lsu r1, r0, r1
		nop
	}
	bf r1, .LBB1_6
.Ltmp88:
	{
		ldc r1, 24
		nop
	}
	.loc	4 554 10
.Ltmp89:
	mul r7, r0, r1
.Ltmp90:
	{
		ldc r6, 0
		nop
	}
	bf r7, .LBB1_17
.Ltmp91:
	{
		nop
		ldw r5, r5[5]
	}
.Ltmp92:
	bf r5, .LBB1_17
.Ltmp93:
	.loc	5 95 9
	{
		mov r0, r7
		nop
	}
	bl malloc
	{
		mov r6, r0
		nop
	}
.Ltmp94:
	bf r6, .LBB1_68
.Ltmp95:
	.loc	4 72 3
	{
		mov r0, r6
		mov r1, r5
	}
	{
		mov r2, r7
		nop
	}
	bl memcpy
.Ltmp96:
.LBB1_17:
	{
		nop
		stw r6, r4[5]
	}
	bu .LBB1_69
.Ltmp97:
.LBB1_18:
	{
		nop
		ldw r0, r4[5]
	}
	bf r0, .LBB1_20
.Ltmp98:
	.loc	4 561 6
	bl free
	{
		ldc r0, 0
		nop
	}
	{
		nop
		stw r0, r4[5]
	}
.Ltmp99:
.LBB1_20:
	{
		nop
		ldw r6, r5[4]
	}
	{
		nop
		stw r6, r4[4]
	}
	{
		nop
		ldw r9, r5[5]
	}
	.loc	4 131 6
.Ltmp100:
	bf r9, .LBB1_21
.Ltmp101:
	.loc	5 128 2
	{
		add r0, r6, 1
		nop
	}
	{
		lsu r1, r0, r6
		nop
	}
	bt r1, .LBB1_6
.Ltmp102:
	.loc	5 93 5
	{
		eq r1, r0, 0
		nop
	}
	.loc	5 93 5
	{
		add r0, r1, r0
		nop
	}
.Ltmp103:
	.loc	5 95 9
	bl malloc
	{
		mov r8, r0
		nop
	}
.Ltmp104:
	bf r8, .LBB1_6
.Ltmp105:
	.loc	4 141 3
	{
		mov r0, r8
		mov r1, r9
	}
	{
		mov r2, r6
		nop
	}
	bl memcpy
	{
		ldc r0, 0
		nop
	}
	.loc	4 142 3
	st8 r0, r8[r6]
	{
		nop
		stw r8, r4[5]
	}
	bu .LBB1_26
.Ltmp106:
.LBB1_42:
	.loc	4 582 5
	ldaw r0, r4[4]
	.loc	4 582 5
	ldaw r1, r5[4]
	ldc r2, 160
	.loc	4 582 5
	bl __memcpy_4
	ldc r0, 164
	.loc	4 583 9
.Ltmp107:
	{
		add r0, r5, r0
		nop
	}
	{
		nop
		ldw r6, r0[0]
	}
.Ltmp108:
	bf r6, .LBB1_69
.Ltmp109:
	ldc r8, 168
	.loc	4 588 34
.Ltmp110:
	{
		add r0, r5, r8
		nop
	}
.Ltmp111:
	.loc	4 588 34
	{
		ldc r1, 32
		ldw r5, r0[0]
	}
.Ltmp112:
	.loc	5 121 9
	{
		mov r0, r6
		nop
	}
	bl calloc
.Ltmp113:
	.loc	4 383 6
	bf r0, .LBB1_55
.Ltmp114:
	ldaw r8, r5[6]
	{
		ldc r1, 0
		stw r0, sp[3]
	}
	{
		mov r9, r0
		mov r5, r1
	}
	{
		mov r7, r1
		nop
	}
.Ltmp115:
.LBB1_45:
	ldaw r1, r8[-6]
	.loc	4 150 2
.Ltmp116:
	{
		mov r0, r9
		ldc r2, 32
	}
	bl __memcpy_4
	{
		nop
		ldw r0, r8[0]
	}
	bf r0, .LBB1_53
.Ltmp117:
	{
		mkmsk r0, 32
		nop
	}
	.loc	4 157 12
.Ltmp118:
	{
		ldc r1, 16
		ld8u r0, r8[r0]
	}
	.loc	4 157 12
	bl safe_malloc_mul_2op_p
	{
		mov r10, r0
		nop
	}
	.loc	4 157 12
	bf r10, .LBB1_47
.Ltmp119:
	{
		sub r0, r8, 1
		ldw r1, r8[0]
	}
	{
		nop
		ld8u r0, r0[r7]
	}
	.loc	4 159 3
	{
		shl r2, r0, 4
		mov r0, r10
	}
	.loc	4 159 3
	bl __memcpy_4
	{
		nop
		stw r10, r9[6]
	}
.Ltmp120:
.LBB1_53:
	.loc	4 386 31
	{
		add r5, r5, 1
		nop
	}
.Ltmp121:
	.loc	4 386 3
	ldaw r9, r9[8]
	.loc	4 386 3
	ldaw r8, r8[8]
	.loc	4 386 3
	{
		lsu r0, r5, r6
		nop
	}
	bt r0, .LBB1_45
.Ltmp122:
	ldc r0, 168
	.loc	4 588 34
	{
		add r0, r4, r0
		ldw r1, sp[3]
	}
	{
		nop
		stw r1, r0[0]
	}
	bu .LBB1_69
.Ltmp123:
.LBB1_56:
	{
		nop
		ldw r0, r5[4]
	}
	{
		nop
		stw r0, r4[4]
	}
	{
		nop
		ldw r0, r5[5]
	}
.Ltmp124:
	.loc	4 117 15
	bl strdup
.Ltmp125:
	{
		mov r6, r0
		nop
	}
.Ltmp126:
	bf r6, .LBB1_6
.Ltmp127:
	{
		nop
		ldw r0, r4[5]
	}
	.loc	4 120 3
.Ltmp128:
	bl free
	{
		nop
		stw r6, r4[5]
	}
	{
		nop
		ldw r0, r5[6]
	}
.Ltmp129:
	.loc	4 117 15
	bl strdup
.Ltmp130:
	{
		mov r6, r0
		nop
	}
.Ltmp131:
	bf r6, .LBB1_6
.Ltmp132:
	{
		nop
		ldw r0, r4[6]
	}
	.loc	4 120 3
.Ltmp133:
	bl free
	{
		nop
		stw r6, r4[6]
	}
	{
		nop
		ldw r0, r5[7]
	}
	{
		nop
		stw r0, r4[7]
	}
	{
		nop
		ldw r0, r5[8]
	}
	{
		nop
		stw r0, r4[8]
	}
	{
		nop
		ldw r0, r5[9]
	}
	{
		nop
		stw r0, r4[9]
	}
	{
		nop
		ldw r0, r5[10]
	}
	{
		nop
		stw r0, r4[10]
	}
	{
		nop
		ldw r7, r5[11]
	}
.Ltmp134:
	.loc	4 609 5
	{
		ldc r8, 48
		stw r7, r4[11]
	}
	{
		ldc r6, 0
		nop
	}
.Ltmp135:
	bf r7, .LBB1_62
.Ltmp136:
	.loc	4 610 10
	{
		add r0, r5, r8
		nop
	}
	{
		nop
		ldw r5, r0[0]
	}
.Ltmp137:
	bf r5, .LBB1_62
.Ltmp138:
	.loc	5 95 9
	{
		mov r0, r7
		nop
	}
	bl malloc
	{
		mov r6, r0
		nop
	}
.Ltmp139:
	bf r6, .LBB1_68
.Ltmp140:
	.loc	4 72 3
	{
		mov r0, r6
		mov r1, r5
	}
	{
		mov r2, r7
		nop
	}
	bl memcpy
.Ltmp141:
.LBB1_62:
	.loc	4 610 10
	{
		add r0, r4, r8
		nop
	}
	{
		nop
		stw r6, r0[0]
	}
	bu .LBB1_69
.Ltmp142:
.LBB1_68:
	.loc	4 691 2
	{
		mov r0, r4
		nop
	}
	bl FLAC__metadata_object_delete_data
	.loc	4 692 2
	{
		mov r0, r4
		nop
	}
	bl free
	{
		ldc r4, 0
		nop
	}
.Ltmp143:
	bu .LBB1_69
.Ltmp144:
.LBB1_21:
	{
		mkmsk r0, 1
		nop
	}
	.loc	5 95 9
.Ltmp145:
	bl malloc
	{
		nop
		stw r0, r4[5]
	}
	bf r0, .LBB1_6
.Ltmp146:
	.loc	4 135 3
	{
		ldc r1, 0
		nop
	}
	st8 r1, r0[r1]
.Ltmp147:
.LBB1_26:
	{
		nop
		ldw r6, r5[6]
	}
.Ltmp148:
	.loc	4 568 9
	bf r6, .LBB1_27
.Ltmp149:
	{
		nop
		ldw r0, r5[7]
	}
.Ltmp150:
	.loc	5 121 9
	{
		ldc r1, 8
		stw r0, sp[2]
	}
	{
		mov r0, r6
		nop
	}
	bl calloc
	{
		nop
		stw r0, sp[1]
	}
	bf r0, .LBB1_38
.Ltmp151:
	{
		ldc r7, 0
		nop
	}
	.loc	4 572 41
	{
		mov r5, r7
		nop
	}
.Ltmp152:
.LBB1_30:
	{
		nop
		ldw r1, sp[2]
	}
	{
		add r1, r1, r7
		nop
	}
	.loc	4 130 2
.Ltmp153:
	{
		add r10, r0, r7
		ldw r8, r1[0]
	}
	{
		nop
		stw r8, r10[0]
	}
	{
		nop
		ldw r9, r1[1]
	}
	.loc	4 131 6
.Ltmp154:
	bf r9, .LBB1_31
.Ltmp155:
	{
		add r0, r8, 1
		stw r10, sp[3]
	}
	.loc	5 128 2
.Ltmp156:
	{
		lsu r1, r0, r8
		nop
	}
	bt r1, .LBB1_35
.Ltmp157:
	.loc	5 93 5
	{
		eq r1, r0, 0
		nop
	}
	.loc	5 93 5
	{
		add r0, r1, r0
		nop
	}
.Ltmp158:
	.loc	5 95 9
	bl malloc
	{
		mov r10, r0
		nop
	}
.Ltmp159:
	bf r10, .LBB1_35
.Ltmp160:
	.loc	4 141 3
	{
		mov r0, r10
		mov r1, r9
	}
	{
		mov r2, r8
		nop
	}
	bl memcpy
.Ltmp161:
	.loc	4 135 3
	{
		ldc r0, 0
		nop
	}
.Ltmp162:
	.loc	4 142 3
	st8 r0, r10[r8]
	{
		nop
		ldw r0, sp[3]
	}
	{
		nop
		stw r10, r0[1]
	}
	bu .LBB1_40
.Ltmp163:
.LBB1_31:
	{
		mkmsk r0, 1
		nop
	}
	.loc	5 95 9
.Ltmp164:
	bl malloc
	{
		nop
		stw r0, r10[1]
	}
	bf r0, .LBB1_35
.Ltmp165:
	.loc	4 135 3
	{
		ldc r1, 0
		nop
	}
	st8 r1, r0[r1]
.Ltmp166:
.LBB1_40:
	.loc	4 239 33
	{
		add r5, r5, 1
		add r7, r7, 8
	}
.Ltmp167:
	.loc	4 239 3
	{
		lsu r1, r5, r6
		ldw r0, sp[1]
	}
	bt r1, .LBB1_30
	bu .LBB1_41
.Ltmp168:
.LBB1_55:
	.loc	4 588 34
	{
		add r1, r4, r8
		nop
	}
	{
		nop
		stw r0, r1[0]
	}
	bu .LBB1_6
.Ltmp169:
.LBB1_27:
	{
		ldc r0, 0
		nop
	}
.Ltmp170:
.LBB1_41:
	{
		nop
		stw r0, r4[7]
	}
	{
		nop
		stw r6, r4[6]
	}
	bu .LBB1_69
.Ltmp171:
.LBB1_47:
	{
		nop
		ldw r9, sp[3]
	}
	ldaw r5, r9[6]
	ldc r8, 168
	{
		ldc r7, 0
		nop
	}
.Ltmp172:
.LBB1_48:
	{
		nop
		ldw r0, r5[0]
	}
	bf r0, .LBB1_50
.Ltmp173:
	.loc	4 367 4
	bl free
.Ltmp174:
.LBB1_50:
	.loc	4 364 2
	{
		sub r6, r6, 1
		nop
	}
	.loc	4 364 2
	ldaw r5, r5[8]
	bt r6, .LBB1_48
.Ltmp175:
	.loc	4 371 2
	{
		mov r0, r9
		nop
	}
	bl free
.Ltmp176:
	.loc	4 588 34
	{
		add r0, r4, r8
		ldc r1, 0
	}
	{
		nop
		stw r1, r0[0]
	}
.Ltmp177:
.LBB1_6:
	.loc	4 691 2
	{
		mov r0, r4
		nop
	}
	bl FLAC__metadata_object_delete_data
	.loc	4 692 2
	{
		mov r0, r4
		nop
	}
	bl free
	{
		mov r4, r7
		nop
	}
.Ltmp178:
.LBB1_69:
	.loc	4 625 1
	{
		mov r0, r4
		ldw r10, sp[10]
	}
	ldd r9, r8, sp[4]
	ldd r7, r6, sp[3]
	ldd r5, r4, sp[2]
	{
		nop
		retsp 12
	}
	# RETURN_REG_HOLDER
.LBB1_35:
.Ltmp179:
	{
		nop
		ldw r7, sp[1]
	}
	{
		add r5, r7, 4
		nop
	}
.Ltmp180:
.LBB1_36:
	{
		nop
		ldw r0, r5[0]
	}
	.loc	4 222 3
.Ltmp181:
	bl free
	.loc	4 221 2
	{
		sub r6, r6, 1
		add r5, r5, 8
	}
	.loc	4 221 2
	bt r6, .LBB1_36
.Ltmp182:
	.loc	4 224 2
	{
		mov r0, r7
		nop
	}
	bl free
.Ltmp183:
	.loc	4 135 3
	{
		ldc r0, 0
		nop
	}
.Ltmp184:
.LBB1_38:
	.loc	4 572 41
	{
		ldc r5, 0
		stw r0, r4[7]
	}
	.loc	4 574 7
.Ltmp185:
	{
		mov r0, r4
		stw r5, r4[6]
	}
	.loc	4 691 2
.Ltmp186:
	bl FLAC__metadata_object_delete_data
	.loc	4 692 2
	{
		mov r0, r4
		nop
	}
	bl free
	{
		mov r4, r5
		nop
	}
.Ltmp187:
	bu .LBB1_69
.Ltmp188:
	.cc_bottom FLAC__metadata_object_clone.function
	.set	FLAC__metadata_object_clone.nstackwords,((FLAC__metadata_object_new.nstackwords $M FLAC__metadata_object_delete_data.nstackwords $M calloc.nstackwords $M safe_malloc_mul_2op_p.nstackwords $M __memcpy_4.nstackwords $M strdup.nstackwords $M free.nstackwords $M malloc.nstackwords $M memcpy.nstackwords) + 12)
	.globl	FLAC__metadata_object_clone.nstackwords
	.set	FLAC__metadata_object_clone.maxcores,FLAC__metadata_object_delete_data.maxcores $M FLAC__metadata_object_new.maxcores $M calloc.maxcores $M free.maxcores $M malloc.maxcores $M safe_malloc_mul_2op_p.maxcores $M strdup.maxcores $M 1
	.globl	FLAC__metadata_object_clone.maxcores
	.set	FLAC__metadata_object_clone.maxtimers,FLAC__metadata_object_delete_data.maxtimers $M FLAC__metadata_object_new.maxtimers $M calloc.maxtimers $M free.maxtimers $M malloc.maxtimers $M safe_malloc_mul_2op_p.maxtimers $M strdup.maxtimers $M 0
	.globl	FLAC__metadata_object_clone.maxtimers
	.set	FLAC__metadata_object_clone.maxchanends,FLAC__metadata_object_delete_data.maxchanends $M FLAC__metadata_object_new.maxchanends $M calloc.maxchanends $M free.maxchanends $M malloc.maxchanends $M safe_malloc_mul_2op_p.maxchanends $M strdup.maxchanends $M 0
	.globl	FLAC__metadata_object_clone.maxchanends
.Ltmp189:
	.size	FLAC__metadata_object_clone, .Ltmp189-FLAC__metadata_object_clone
.Lfunc_end1:
	.cfi_endproc

	.globl	FLAC__metadata_object_delete
	.align	4
	.type	FLAC__metadata_object_delete,@function
	.cc_top FLAC__metadata_object_delete.function,FLAC__metadata_object_delete
FLAC__metadata_object_delete:
.Lfunc_begin2:
	.loc	4 690 0
	.cfi_startproc
	.issue_mode dual
	{
		nop
		dualentsp 4
	}
.Ltmp190:
	.cfi_def_cfa_offset 16
.Ltmp191:
	.cfi_offset 15, 0
.Ltmp192:
	.cfi_offset 4, -8
.Ltmp193:
	{
		mov r4, r0
		stw r4, sp[2]
	}
.Ltmp194:
	.loc	4 691 2 prologue_end
	bl FLAC__metadata_object_delete_data
	.loc	4 692 2
	{
		mov r0, r4
		nop
	}
	bl free
	{
		nop
		ldw r4, sp[2]
	}
	{
		nop
		retsp 4
	}
	.loc	4 693 1
	# RETURN_REG_HOLDER
.Ltmp195:
	.cc_bottom FLAC__metadata_object_delete.function
	.set	FLAC__metadata_object_delete.nstackwords,((FLAC__metadata_object_delete_data.nstackwords $M free.nstackwords) + 4)
	.globl	FLAC__metadata_object_delete.nstackwords
	.set	FLAC__metadata_object_delete.maxcores,FLAC__metadata_object_delete_data.maxcores $M free.maxcores $M 1
	.globl	FLAC__metadata_object_delete.maxcores
	.set	FLAC__metadata_object_delete.maxtimers,FLAC__metadata_object_delete_data.maxtimers $M free.maxtimers $M 0
	.globl	FLAC__metadata_object_delete.maxtimers
	.set	FLAC__metadata_object_delete.maxchanends,FLAC__metadata_object_delete_data.maxchanends $M free.maxchanends $M 0
	.globl	FLAC__metadata_object_delete.maxchanends
.Ltmp196:
	.size	FLAC__metadata_object_delete, .Ltmp196-FLAC__metadata_object_delete
.Lfunc_end2:
	.cfi_endproc

	.globl	FLAC__metadata_object_delete_data
	.align	4
	.type	FLAC__metadata_object_delete_data,@function
	.cc_top FLAC__metadata_object_delete_data.function,FLAC__metadata_object_delete_data
FLAC__metadata_object_delete_data:
.Lfunc_begin3:
	.loc	4 628 0
	.cfi_startproc
	.issue_mode dual
	{
		nop
		dualentsp 8
	}
.Ltmp197:
	.cfi_def_cfa_offset 32
.Ltmp198:
	.cfi_offset 15, 0
	std r5, r4, sp[1]
.Ltmp199:
	.cfi_offset 4, -24
.Ltmp200:
	.cfi_offset 5, -20
	std r7, r6, sp[2]
.Ltmp201:
	.cfi_offset 6, -16
.Ltmp202:
	.cfi_offset 7, -12
.Ltmp203:
	.cfi_offset 8, -8
.Ltmp204:
	{
		mov r4, r0
		stw r8, sp[6]
	}
.Ltmp205:
	.loc	4 631 2 prologue_end
	{
		ldc r1, 6
		ldw r0, r4[0]
	}
	.loc	4 631 2
	{
		lsu r1, r1, r0
		nop
	}
	bf r1, .LBB3_1
.Ltmp206:
	{
		nop
		ldw r0, r4[4]
	}
	bf r0, .LBB3_26
.Ltmp207:
	.loc	4 682 5
	bl free
	{
		ldc r0, 0
		nop
	}
	{
		nop
		stw r0, r4[4]
	}
	bu .LBB3_26
.Ltmp208:
.LBB3_1:

	.xtabranch .Ljumptable2+4,.Ljumptable2+8,.Ljumptable2+12,.Ljumptable2+16,.Ljumptable2+20,.Ljumptable2+24,.Ljumptable2+28
.Ljumptable2:
		
	{
		nop
		bru r0
	}
	.jmptable32 .LBB3_26,.LBB3_26,.LBB3_2,.LBB3_2,.LBB3_4,.LBB3_11,.LBB3_18
.Ltmp209:
.LBB3_2:
	{
		nop
		ldw r0, r4[5]
	}
	bf r0, .LBB3_26
.Ltmp210:
	.loc	4 637 5
	bl free
	{
		ldc r0, 0
		nop
	}
	{
		nop
		stw r0, r4[5]
	}
	bu .LBB3_26
.Ltmp211:
.LBB3_4:
	{
		nop
		ldw r0, r4[5]
	}
	bf r0, .LBB3_6
.Ltmp212:
	.loc	4 649 5
	bl free
	{
		ldc r0, 0
		nop
	}
	{
		nop
		stw r0, r4[5]
	}
.Ltmp213:
.LBB3_6:
	{
		nop
		ldw r5, r4[7]
	}
.Ltmp214:
	bf r5, .LBB3_26
.Ltmp215:
	{
		nop
		ldw r6, r4[6]
	}
.Ltmp216:
	bf r6, .LBB3_10
.Ltmp217:
	{
		add r7, r5, 4
		nop
	}
.Ltmp218:
.LBB3_9:
	{
		nop
		ldw r0, r7[0]
	}
	.loc	4 222 3
.Ltmp219:
	bl free
	.loc	4 221 2
	{
		sub r6, r6, 1
		add r7, r7, 8
	}
	bt r6, .LBB3_9
.Ltmp220:
.LBB3_10:
	.loc	4 224 2
	{
		mov r0, r5
		nop
	}
	bl free
	{
		ldc r0, 0
		nop
	}
	{
		nop
		stw r0, r4[7]
	}
	{
		nop
		stw r0, r4[6]
	}
	bu .LBB3_26
.Ltmp221:
.LBB3_11:
	ldc r0, 168
	.loc	4 659 8
.Ltmp222:
	{
		add r6, r4, r0
		nop
	}
	{
		nop
		ldw r5, r6[0]
	}
.Ltmp223:
	bf r5, .LBB3_26
.Ltmp224:
	ldc r0, 164
	.loc	4 661 5
.Ltmp225:
	{
		add r4, r4, r0
		nop
	}
.Ltmp226:
	{
		nop
		ldw r7, r4[0]
	}
.Ltmp227:
	bf r7, .LBB3_17
.Ltmp228:
	ldaw r8, r5[6]
.LBB3_14:
	{
		nop
		ldw r0, r8[0]
	}
	bf r0, .LBB3_16
	.loc	4 367 4
.Ltmp229:
	bl free
.Ltmp230:
.LBB3_16:
	.loc	4 364 2
	{
		sub r7, r7, 1
		nop
	}
	.loc	4 364 2
	ldaw r8, r8[8]
	bt r7, .LBB3_14
.Ltmp231:
.LBB3_17:
	.loc	4 371 2
	{
		mov r0, r5
		nop
	}
	bl free
	{
		ldc r0, 0
		nop
	}
	{
		nop
		stw r0, r6[0]
	}
	{
		nop
		stw r0, r4[0]
	}
	bu .LBB3_26
.Ltmp232:
.LBB3_18:
	{
		nop
		ldw r0, r4[5]
	}
	bf r0, .LBB3_20
.Ltmp233:
	.loc	4 668 5
	bl free
	{
		ldc r0, 0
		nop
	}
	{
		nop
		stw r0, r4[5]
	}
.Ltmp234:
.LBB3_20:
	{
		nop
		ldw r0, r4[6]
	}
	bf r0, .LBB3_22
.Ltmp235:
	.loc	4 672 5
	bl free
	{
		ldc r0, 0
		nop
	}
	{
		nop
		stw r0, r4[6]
	}
.Ltmp236:
.LBB3_22:
	{
		ldc r0, 48
		nop
	}
	.loc	4 675 8
.Ltmp237:
	{
		add r4, r4, r0
		nop
	}
.Ltmp238:
	{
		nop
		ldw r0, r4[0]
	}
	bf r0, .LBB3_26
	.loc	4 676 5
.Ltmp239:
	bl free
	{
		ldc r0, 0
		nop
	}
	{
		nop
		stw r0, r4[0]
	}
.Ltmp240:
.LBB3_26:
	{
		nop
		ldw r8, sp[6]
	}
	.loc	4 687 1
	ldd r7, r6, sp[2]
	ldd r5, r4, sp[1]
	{
		nop
		retsp 8
	}
	# RETURN_REG_HOLDER
.Ltmp241:
	.cc_bottom FLAC__metadata_object_delete_data.function
	.set	FLAC__metadata_object_delete_data.nstackwords,(free.nstackwords + 8)
	.globl	FLAC__metadata_object_delete_data.nstackwords
	.set	FLAC__metadata_object_delete_data.maxcores,free.maxcores $M 1
	.globl	FLAC__metadata_object_delete_data.maxcores
	.set	FLAC__metadata_object_delete_data.maxtimers,free.maxtimers $M 0
	.globl	FLAC__metadata_object_delete_data.maxtimers
	.set	FLAC__metadata_object_delete_data.maxchanends,free.maxchanends $M 0
	.globl	FLAC__metadata_object_delete_data.maxchanends
.Ltmp242:
	.size	FLAC__metadata_object_delete_data, .Ltmp242-FLAC__metadata_object_delete_data
.Lfunc_end3:
	.cfi_endproc

	.globl	FLAC__metadata_object_is_equal
	.align	4
	.type	FLAC__metadata_object_is_equal,@function
	.cc_top FLAC__metadata_object_is_equal.function,FLAC__metadata_object_is_equal
FLAC__metadata_object_is_equal:
.Lfunc_begin4:
	.loc	4 869 0
	.cfi_startproc
	.issue_mode dual
	{
		nop
		dualentsp 14
	}
.Ltmp243:
	.cfi_def_cfa_offset 56
.Ltmp244:
	.cfi_offset 15, 0
	std r5, r4, sp[3]
.Ltmp245:
	.cfi_offset 4, -32
.Ltmp246:
	.cfi_offset 5, -28
	std r7, r6, sp[4]
.Ltmp247:
	.cfi_offset 6, -24
.Ltmp248:
	.cfi_offset 7, -20
	std r9, r8, sp[5]
.Ltmp249:
	.cfi_offset 8, -16
.Ltmp250:
	.cfi_offset 9, -12
.Ltmp251:
	.cfi_offset 10, -8
.Ltmp252:
	{
		mov r5, r1
		stw r10, sp[12]
	}
.Ltmp253:
	{
		mov r6, r0
		nop
	}
.Ltmp254:
	{
		nop
		ldw r0, r6[0]
	}
	.loc	4 873 6 prologue_end
.Ltmp255:
	{
		ldc r9, 0
		ldw r1, r5[0]
	}
	.loc	4 873 6
	{
		eq r1, r0, r1
		nop
	}
	bf r1, .LBB4_1
.Ltmp256:
	{
		nop
		ldw r1, r6[1]
	}
	{
		nop
		ldw r2, r5[1]
	}
	.loc	4 876 6
.Ltmp257:
	{
		eq r1, r1, r2
		nop
	}
	bf r1, .LBB4_3
.Ltmp258:
	{
		nop
		ldw r7, r6[2]
	}
.Ltmp259:
	{
		nop
		ldw r1, r5[2]
	}
	.loc	4 879 6
.Ltmp260:
	{
		eq r1, r7, r1
		nop
	}
	bf r1, .LBB4_5
.Ltmp261:
	{
		ldc r1, 6
		nop
	}
	.loc	4 882 2
	{
		lsu r1, r1, r0
		nop
	}
	bf r1, .LBB4_7
.Ltmp262:
	{
		nop
		ldw r0, r6[4]
	}
	{
		nop
		ldw r1, r5[4]
	}
	bf r0, .LBB4_130
.Ltmp263:
	.loc	4 862 6
	bf r1, .LBB4_129
	.loc	4 863 10
	{
		mov r2, r7
		nop
	}
.Ltmp264:
.LBB4_30:
	.loc	4 727 10
	bl memcmp
	.loc	4 727 10
	{
		eq r4, r0, 0
		nop
	}
	bu .LBB4_131
.Ltmp265:
.LBB4_1:
	{
		mov r4, r9
		nop
	}
	bu .LBB4_131
.LBB4_3:
	{
		mov r4, r9
		nop
	}
	bu .LBB4_131
.LBB4_5:
	{
		mov r4, r9
		nop
	}
	bu .LBB4_131
.LBB4_7:
.Ltmp266:
	{
		mkmsk r8, 1
		nop
	}
	{
		mov r4, r8
		nop
	}

	.xtabranch .Ljumptable3+4,.Ljumptable3+8,.Ljumptable3+12,.Ljumptable3+16,.Ljumptable3+20,.Ljumptable3+24,.Ljumptable3+28
.Ljumptable3:
		
	{
		nop
		bru r0
	}
	.jmptable32 .LBB4_8,.LBB4_131,.LBB4_24,.LBB4_31,.LBB4_44,.LBB4_64,.LBB4_94
.Ltmp267:
.LBB4_8:
	{
		nop
		ldw r0, r6[4]
	}
	{
		nop
		ldw r1, r5[4]
	}
	.loc	4 697 6
.Ltmp268:
	{
		eq r0, r0, r1
		nop
	}
	bf r0, .LBB4_9
.Ltmp269:
	{
		nop
		ldw r0, r6[5]
	}
	{
		nop
		ldw r1, r5[5]
	}
	.loc	4 699 6
.Ltmp270:
	{
		eq r0, r0, r1
		nop
	}
	bf r0, .LBB4_11
.Ltmp271:
	{
		nop
		ldw r0, r6[6]
	}
	{
		nop
		ldw r1, r5[6]
	}
	.loc	4 701 6
.Ltmp272:
	{
		eq r0, r0, r1
		nop
	}
	bf r0, .LBB4_13
.Ltmp273:
	{
		nop
		ldw r0, r6[7]
	}
	{
		nop
		ldw r1, r5[7]
	}
	.loc	4 703 6
.Ltmp274:
	{
		eq r0, r0, r1
		nop
	}
	bf r0, .LBB4_15
.Ltmp275:
	{
		nop
		ldw r0, r6[8]
	}
	{
		nop
		ldw r1, r5[8]
	}
	.loc	4 705 6
.Ltmp276:
	{
		eq r0, r0, r1
		nop
	}
	bf r0, .LBB4_17
.Ltmp277:
	{
		nop
		ldw r0, r6[9]
	}
	{
		nop
		ldw r1, r5[9]
	}
	.loc	4 707 6
.Ltmp278:
	{
		eq r0, r0, r1
		nop
	}
	bf r0, .LBB4_19
.Ltmp279:
	{
		nop
		ldw r0, r6[10]
	}
	{
		nop
		ldw r1, r5[10]
	}
	.loc	4 709 6
.Ltmp280:
	{
		eq r0, r0, r1
		nop
	}
	bf r0, .LBB4_21
.Ltmp281:
	{
		ldc r0, 48
		nop
	}
	.loc	4 711 6
.Ltmp282:
	{
		add r1, r6, r0
		nop
	}
	.loc	4 711 6
	ldd r2, r1, r1[0]
	.loc	4 711 6
	{
		add r0, r5, r0
		nop
	}
	.loc	4 711 6
	ldd r3, r0, r0[0]
	.loc	4 711 6
	xor r2, r2, r3
	xor r0, r1, r0
	{
		or r0, r0, r2
		mov r4, r9
	}
	bt r0, .LBB4_131
.Ltmp283:
	{
		ldc r1, 56
		nop
	}
	.loc	4 713 6
.Ltmp284:
	{
		add r0, r6, r1
		add r1, r5, r1
	}
	{
		ldc r2, 16
		nop
	}
	bu .LBB4_30
.Ltmp285:
.LBB4_129:
	{
		ldc r1, 0
		nop
	}
.LBB4_130:
	.loc	4 865 3
.Ltmp286:
	{
		eq r4, r1, r0
		nop
	}
.Ltmp287:
.LBB4_131:
	.loc	4 900 1
	{
		mov r0, r4
		ldw r10, sp[12]
	}
	ldd r9, r8, sp[5]
	ldd r7, r6, sp[4]
	ldd r5, r4, sp[3]
	{
		nop
		retsp 14
	}
	# RETURN_REG_HOLDER
.LBB4_24:
.Ltmp288:
	.loc	4 724 6
	ldaw r4, r6[4]
	.loc	4 724 6
	ldaw r0, r5[4]
	.loc	4 724 6
	bl __misaligned_load
	{
		mov r8, r0
		mov r0, r4
	}
	bl __misaligned_load
	.loc	4 724 6
	{
		eq r0, r0, r8
		mov r4, r9
	}
	bf r0, .LBB4_131
.Ltmp289:
	{
		nop
		ldw r0, r6[5]
	}
	{
		nop
		ldw r1, r5[5]
	}
	bf r0, .LBB4_28
.Ltmp290:
	.loc	4 726 6
	bf r1, .LBB4_27
	.loc	4 727 10
	{
		sub r2, r7, 4
		nop
	}
	bu .LBB4_30
.Ltmp291:
.LBB4_31:
	{
		nop
		ldw r1, r6[4]
	}
	{
		nop
		ldw r0, r5[4]
	}
	.loc	4 739 6
.Ltmp292:
	{
		eq r0, r1, r0
		mov r4, r9
	}
	bf r0, .LBB4_131
.Ltmp293:
	{
		nop
		ldw r0, r6[5]
	}
	{
		nop
		ldw r2, r5[5]
	}
	bf r0, .LBB4_35
.Ltmp294:
	.loc	4 742 6
	bf r2, .LBB4_34
	.loc	4 743 3
.Ltmp295:
	bf r1, .LBB4_37
	{
		ldc r3, 0
		ldc r4, 0
	}
.LBB4_41:
	.loc	4 744 8
.Ltmp296:
	ldd r5, r11, r0[0]
	.loc	4 744 8
	ldd r7, r6, r2[0]
	.loc	4 744 8
	xor r5, r5, r7
	xor r11, r11, r6
	{
		or r11, r11, r5
		nop
	}
	bt r11, .LBB4_131
.Ltmp297:
	{
		add r11, r0, 8
		nop
	}
	.loc	4 746 8
.Ltmp298:
	ldd r5, r11, r11[0]
	{
		add r6, r2, 8
		nop
	}
	.loc	4 746 8
	ldd r7, r6, r6[0]
	.loc	4 746 8
	xor r5, r5, r7
	xor r11, r11, r6
	{
		or r11, r11, r5
		nop
	}
	bt r11, .LBB4_131
.Ltmp299:
	{
		nop
		ldw r11, r0[4]
	}
	{
		nop
		ldw r5, r2[4]
	}
	.loc	4 748 8
.Ltmp300:
	{
		eq r11, r11, r5
		nop
	}
	bf r11, .LBB4_131
.Ltmp301:
	.loc	4 743 39
	{
		add r3, r3, 1
		nop
	}
.Ltmp302:
	.loc	4 743 3
	ldaw r2, r2[6]
	.loc	4 743 3
	ldaw r0, r0[6]
	.loc	4 743 3
	{
		lsu r11, r3, r1
		nop
	}
	bt r11, .LBB4_41
.Ltmp303:
	{
		mov r4, r8
		nop
	}
	bu .LBB4_131
.LBB4_44:
.Ltmp304:
	{
		nop
		ldw r2, r6[4]
	}
	{
		nop
		ldw r0, r5[4]
	}
	.loc	4 761 6
.Ltmp305:
	{
		eq r0, r2, r0
		nop
	}
	bf r0, .LBB4_45
.Ltmp306:
	{
		nop
		ldw r0, r6[5]
	}
	{
		nop
		ldw r1, r5[5]
	}
	bf r0, .LBB4_49
.Ltmp307:
	.loc	4 764 6
	bf r1, .LBB4_48
.Ltmp308:
	.loc	4 765 7
	bl memcmp
	bf r0, .LBB4_53
.Ltmp309:
	{
		ldc r4, 0
		nop
	}
	bu .LBB4_131
.LBB4_64:
.Ltmp310:
	.loc	4 789 6
	ldaw r0, r6[4]
	.loc	4 789 6
	ldaw r1, r5[4]
	.loc	4 789 6
	bl strcmp
	.loc	4 789 6
	bf r0, .LBB4_66
.Ltmp311:
	{
		mov r4, r9
		nop
	}
	bu .LBB4_131
.LBB4_94:
.Ltmp312:
	{
		nop
		ldw r0, r6[4]
	}
	{
		nop
		ldw r1, r5[4]
	}
	.loc	4 836 6
.Ltmp313:
	{
		eq r0, r0, r1
		nop
	}
	bf r0, .LBB4_95
.Ltmp314:
	{
		nop
		ldw r0, r6[5]
	}
	{
		nop
		ldw r1, r5[5]
	}
	.loc	4 838 6
.Ltmp315:
	{
		eq r2, r0, r1
		nop
	}
	bt r2, .LBB4_103
.Ltmp316:
	.loc	4 838 6
	bf r0, .LBB4_98
.Ltmp317:
	bf r1, .LBB4_100
.Ltmp318:
	.loc	4 838 101
	bl strcmp
	bf r0, .LBB4_103
.Ltmp319:
	{
		mov r4, r9
		nop
	}
	bu .LBB4_131
.LBB4_9:
	{
		mov r4, r9
		nop
	}
	bu .LBB4_131
.LBB4_45:
	{
		mov r4, r9
		nop
	}
	bu .LBB4_131
.LBB4_95:
	{
		mov r4, r9
		nop
	}
	bu .LBB4_131
.LBB4_66:
.Ltmp320:
	ldc r0, 152
	.loc	4 792 6
.Ltmp321:
	{
		add r1, r6, r0
		nop
	}
	.loc	4 792 6
	ldd r2, r1, r1[0]
	.loc	4 792 6
	{
		add r0, r5, r0
		nop
	}
	.loc	4 792 6
	ldd r3, r0, r0[0]
	.loc	4 792 6
	xor r2, r2, r3
	xor r0, r1, r0
	{
		or r0, r0, r2
		nop
	}
	bt r0, .LBB4_67
.Ltmp322:
	ldc r0, 160
	.loc	4 795 6
.Ltmp323:
	{
		add r1, r6, r0
		nop
	}
	.loc	4 795 6
	{
		add r0, r5, r0
		ldw r1, r1[0]
	}
	{
		nop
		ldw r0, r0[0]
	}
	.loc	4 795 6
	{
		eq r0, r1, r0
		nop
	}
	bf r0, .LBB4_69
.Ltmp324:
	ldc r0, 164
	.loc	4 798 6
.Ltmp325:
	{
		add r1, r6, r0
		nop
	}
	.loc	4 798 6
	{
		add r0, r5, r0
		ldw r2, r1[0]
	}
	{
		nop
		ldw r0, r0[0]
	}
	.loc	4 798 6
	{
		eq r0, r2, r0
		nop
	}
	bf r0, .LBB4_71
.Ltmp326:
	ldc r0, 168
	.loc	4 801 6
.Ltmp327:
	{
		add r1, r6, r0
		nop
	}
	.loc	4 801 6
	{
		add r0, r5, r0
		ldw r6, r1[0]
	}
.Ltmp328:
	{
		nop
		ldw r11, r0[0]
	}
	bf r6, .LBB4_75
.Ltmp329:
	.loc	4 801 6
	bf r11, .LBB4_74
	{
		nop
		stw r2, sp[3]
	}
	bf r2, .LBB4_87
	{
		ldc r9, 0
		ldc r4, 0
	}
	{
		ldc r7, 8
		nop
	}
.LBB4_78:
	.loc	4 804 8
.Ltmp330:
	{
		shl r0, r9, 5
		nop
	}
	{
		add r5, r6, r0
		nop
	}
	.loc	4 804 8
	ldd r2, r1, r5[0]
	.loc	4 804 8
	{
		add r10, r11, r0
		nop
	}
	.loc	4 804 8
	ldd r3, r0, r10[0]
	.loc	4 804 8
	xor r2, r2, r3
	xor r0, r1, r0
	{
		or r0, r0, r2
		nop
	}
	bt r0, .LBB4_131
.Ltmp331:
	{
		nop
		stw r11, sp[5]
	}
	{
		nop
		ld8u r0, r5[r7]
	}
	{
		nop
		ld8u r1, r10[r7]
	}
	.loc	4 806 8
.Ltmp332:
	{
		eq r0, r0, r1
		nop
	}
	bf r0, .LBB4_131
.Ltmp333:
	.loc	4 808 8
	{
		add r0, r5, 9
		add r1, r10, 9
	}
	{
		ldc r2, 13
		nop
	}
	.loc	4 808 8
	bl memcmp
	bt r0, .LBB4_131
.Ltmp334:
	{
		ldc r0, 22
		nop
	}
	{
		mov r1, r0
		nop
	}
	{
		nop
		ld8u r0, r5[r1]
	}
	{
		nop
		ld8u r1, r10[r1]
	}
	.loc	4 810 8
.Ltmp335:
	xor r0, r1, r0
	.loc	4 810 8
	{
		zext r0, 2
		nop
	}
	bt r0, .LBB4_131
.Ltmp336:
	{
		ldc r0, 23
		nop
	}
	{
		nop
		ld8u r1, r5[r0]
	}
	{
		nop
		ld8u r0, r10[r0]
	}
	.loc	4 814 8
.Ltmp337:
	{
		eq r0, r1, r0
		nop
	}
	bf r0, .LBB4_131
.Ltmp338:
	{
		nop
		stw r6, sp[4]
	}
	{
		nop
		ldw r0, r5[6]
	}
	{
		nop
		ldw r2, r10[6]
	}
	.loc	4 816 8
.Ltmp339:
	bf r0, .LBB4_84
.Ltmp340:
	{
		mov r3, r4
		nop
	}
	bf r2, .LBB4_85
	bf r1, .LBB4_86
	.loc	4 894 11
	{
		mov r3, r4
		nop
	}
.LBB4_92:
	.loc	4 819 10
.Ltmp341:
	ldd r5, r11, r0[0]
	.loc	4 819 10
	ldd r6, r10, r2[0]
	.loc	4 819 10
	xor r5, r5, r6
	xor r11, r11, r10
	{
		or r11, r11, r5
		nop
	}
	bt r11, .LBB4_131
.Ltmp342:
	{
		nop
		ld8u r11, r0[r7]
	}
	{
		nop
		ld8u r5, r2[r7]
	}
	.loc	4 821 10
.Ltmp343:
	{
		eq r11, r11, r5
		nop
	}
	bf r11, .LBB4_131
.Ltmp344:
	.loc	4 818 52
	{
		add r3, r3, 1
		nop
	}
.Ltmp345:
	.loc	4 818 5
	ldaw r2, r2[4]
	.loc	4 818 5
	ldaw r0, r0[4]
	.loc	4 818 5
	{
		lsu r11, r3, r1
		nop
	}
	bt r11, .LBB4_92
	bu .LBB4_86
.Ltmp346:
.LBB4_84:
	{
		mov r3, r2
		nop
	}
.LBB4_85:
	.loc	4 825 13
.Ltmp347:
	{
		eq r0, r0, r3
		nop
	}
	bf r0, .LBB4_131
.Ltmp348:
.LBB4_86:
	.loc	4 803 39
	{
		add r9, r9, 1
		ldw r0, sp[3]
	}
.Ltmp349:
	.loc	4 803 3
	{
		lsu r0, r9, r0
		ldw r6, sp[4]
	}
	{
		nop
		ldw r11, sp[5]
	}
	bt r0, .LBB4_78
	bu .LBB4_87
.Ltmp350:
.LBB4_11:
	{
		mov r4, r9
		nop
	}
	bu .LBB4_131
.LBB4_103:
.Ltmp351:
	{
		nop
		ldw r0, r6[6]
	}
	{
		nop
		ldw r1, r5[6]
	}
	.loc	4 840 6
.Ltmp352:
	{
		eq r2, r0, r1
		nop
	}
	bt r2, .LBB4_110
.Ltmp353:
	.loc	4 840 6
	bf r0, .LBB4_105
.Ltmp354:
	bf r1, .LBB4_107
.Ltmp355:
	.loc	4 840 109
	bl strcmp
	bf r0, .LBB4_110
.Ltmp356:
	{
		mov r4, r9
		nop
	}
	bu .LBB4_131
.LBB4_67:
	{
		mov r4, r9
		nop
	}
	bu .LBB4_131
.LBB4_13:
	{
		mov r4, r9
		nop
	}
	bu .LBB4_131
.LBB4_110:
.Ltmp357:
	{
		nop
		ldw r0, r6[7]
	}
	{
		nop
		ldw r1, r5[7]
	}
	.loc	4 842 6
.Ltmp358:
	{
		eq r0, r0, r1
		nop
	}
	bf r0, .LBB4_111
.Ltmp359:
	{
		nop
		ldw r0, r6[8]
	}
	{
		nop
		ldw r1, r5[8]
	}
	.loc	4 844 6
.Ltmp360:
	{
		eq r0, r0, r1
		nop
	}
	bf r0, .LBB4_113
.Ltmp361:
	{
		nop
		ldw r0, r6[9]
	}
	{
		nop
		ldw r1, r5[9]
	}
	.loc	4 846 6
.Ltmp362:
	{
		eq r0, r0, r1
		nop
	}
	bf r0, .LBB4_115
.Ltmp363:
	{
		nop
		ldw r0, r6[10]
	}
	{
		nop
		ldw r1, r5[10]
	}
	.loc	4 848 6
.Ltmp364:
	{
		eq r0, r0, r1
		nop
	}
	bf r0, .LBB4_117
.Ltmp365:
	{
		nop
		ldw r2, r6[11]
	}
	{
		nop
		ldw r0, r5[11]
	}
	.loc	4 850 6
.Ltmp366:
	{
		eq r0, r2, r0
		nop
	}
	bf r0, .LBB4_119
.Ltmp367:
	{
		ldc r1, 48
		nop
	}
	.loc	4 852 6
.Ltmp368:
	{
		add r0, r6, r1
		nop
	}
	.loc	4 852 6
	{
		add r1, r5, r1
		ldw r0, r0[0]
	}
	{
		nop
		ldw r1, r1[0]
	}
	.loc	4 852 6
	{
		eq r3, r0, r1
		nop
	}
	bt r3, .LBB4_126
.Ltmp369:
	.loc	4 852 6
	bf r0, .LBB4_122
	bf r1, .LBB4_124
	.loc	4 852 87
	bl memcmp
	{
		mov r4, r9
		nop
	}
	bt r0, .LBB4_131
.Ltmp370:
.LBB4_126:
	{
		mov r4, r8
		nop
	}
	bu .LBB4_131
.LBB4_34:
	{
		ldc r2, 0
		nop
	}
.LBB4_35:
	.loc	4 754 3
.Ltmp371:
	{
		eq r4, r0, r2
		nop
	}
	bu .LBB4_131
.Ltmp372:
.LBB4_48:
	{
		ldc r1, 0
		nop
	}
.Ltmp373:
.LBB4_49:
	.loc	4 768 11
	{
		eq r0, r0, r1
		nop
	}
	bt r0, .LBB4_53
.Ltmp374:
	{
		mov r4, r9
		nop
	}
	bu .LBB4_131
.LBB4_53:
.Ltmp375:
	{
		nop
		ldw r7, r6[6]
	}
	{
		nop
		ldw r0, r5[6]
	}
	.loc	4 771 6
.Ltmp376:
	{
		eq r0, r7, r0
		mov r4, r9
	}
	bf r0, .LBB4_131
.Ltmp377:
	.loc	4 774 2
	bf r7, .LBB4_55
.Ltmp378:
	{
		nop
		ldw r6, r6[7]
	}
.Ltmp379:
	{
		nop
		ldw r0, r5[7]
	}
	{
		add r5, r0, 4
		ldc r4, 0
	}
.Ltmp380:
	.loc	4 892 11
	{
		mov r9, r4
		nop
	}
.LBB4_57:
	{
		nop
		ldw r0, r6[1]
	}
	{
		nop
		ldw r1, r5[0]
	}
	.loc	4 775 7
.Ltmp381:
	bf r0, .LBB4_58
.Ltmp382:
	.loc	4 892 11
	{
		mov r2, r4
		nop
	}
	bf r1, .LBB4_59
	{
		nop
		ldw r2, r6[0]
	}
	.loc	4 776 8
.Ltmp383:
	bl memcmp
	bf r0, .LBB4_62
	bu .LBB4_131
.Ltmp384:
.LBB4_58:
	.loc	4 892 11
	{
		mov r2, r1
		nop
	}
.LBB4_59:
	.loc	4 779 12
.Ltmp385:
	{
		eq r0, r0, r2
		nop
	}
	bf r0, .LBB4_131
.Ltmp386:
.LBB4_62:
	.loc	4 774 40
	{
		add r9, r9, 1
		add r6, r6, 8
	}
.Ltmp387:
	.loc	4 774 2
	{
		add r5, r5, 8
		lsu r0, r9, r7
	}
	bt r0, .LBB4_57
.Ltmp388:
	{
		mov r4, r8
		nop
	}
	bu .LBB4_131
.LBB4_69:
	{
		mov r4, r9
		nop
	}
	bu .LBB4_131
.LBB4_27:
	{
		ldc r1, 0
		nop
	}
.LBB4_28:
	.loc	4 729 3
.Ltmp389:
	{
		eq r4, r0, r1
		nop
	}
	bu .LBB4_131
.Ltmp390:
.LBB4_98:
	{
		mov r4, r9
		nop
	}
	bu .LBB4_131
.LBB4_100:
	{
		mov r4, r9
		nop
	}
	bu .LBB4_131
.LBB4_37:
	{
		mov r4, r8
		nop
	}
	bu .LBB4_131
.LBB4_15:
	{
		mov r4, r9
		nop
	}
	bu .LBB4_131
.LBB4_111:
	{
		mov r4, r9
		nop
	}
	bu .LBB4_131
.LBB4_71:
	{
		mov r4, r9
		nop
	}
	bu .LBB4_131
.LBB4_105:
	{
		mov r4, r9
		nop
	}
	bu .LBB4_131
.LBB4_107:
	{
		mov r4, r9
		nop
	}
	bu .LBB4_131
.LBB4_55:
	{
		mov r4, r8
		nop
	}
	bu .LBB4_131
.LBB4_17:
	{
		mov r4, r9
		nop
	}
	bu .LBB4_131
.LBB4_113:
	{
		mov r4, r9
		nop
	}
	bu .LBB4_131
.LBB4_19:
	{
		mov r4, r9
		nop
	}
	bu .LBB4_131
.LBB4_115:
	{
		mov r4, r9
		nop
	}
	bu .LBB4_131
.LBB4_74:
	{
		ldc r11, 0
		nop
	}
.LBB4_75:
	.loc	4 829 11
.Ltmp391:
	{
		eq r0, r6, r11
		mov r4, r9
	}
	bf r0, .LBB4_131
.Ltmp392:
.LBB4_87:
	{
		mov r4, r8
		nop
	}
	bu .LBB4_131
.LBB4_21:
	{
		mov r4, r9
		nop
	}
	bu .LBB4_131
.LBB4_117:
	{
		mov r4, r9
		nop
	}
	bu .LBB4_131
.LBB4_119:
	{
		mov r4, r9
		nop
	}
	bu .LBB4_131
.LBB4_122:
	{
		mov r4, r9
		nop
	}
	bu .LBB4_131
.LBB4_124:
	{
		mov r4, r9
		nop
	}
	bu .LBB4_131
	.cc_bottom FLAC__metadata_object_is_equal.function
	.set	FLAC__metadata_object_is_equal.nstackwords,((__misaligned_load.nstackwords $M memcmp.nstackwords $M strcmp.nstackwords) + 14)
	.globl	FLAC__metadata_object_is_equal.nstackwords
	.set	FLAC__metadata_object_is_equal.maxcores,memcmp.maxcores $M strcmp.maxcores $M 1
	.globl	FLAC__metadata_object_is_equal.maxcores
	.set	FLAC__metadata_object_is_equal.maxtimers,memcmp.maxtimers $M strcmp.maxtimers $M 0
	.globl	FLAC__metadata_object_is_equal.maxtimers
	.set	FLAC__metadata_object_is_equal.maxchanends,memcmp.maxchanends $M strcmp.maxchanends $M 0
	.globl	FLAC__metadata_object_is_equal.maxchanends
.Ltmp393:
	.size	FLAC__metadata_object_is_equal, .Ltmp393-FLAC__metadata_object_is_equal
.Lfunc_end4:
	.cfi_endproc

	.globl	FLAC__metadata_object_application_set_data
	.align	4
	.type	FLAC__metadata_object_application_set_data,@function
	.cc_top FLAC__metadata_object_application_set_data.function,FLAC__metadata_object_application_set_data
FLAC__metadata_object_application_set_data:
.Lfunc_begin5:
	.loc	4 903 0
	.cfi_startproc
	.issue_mode dual
	{
		nop
		dualentsp 8
	}
.Ltmp394:
	.cfi_def_cfa_offset 32
.Ltmp395:
	.cfi_offset 15, 0
	std r5, r4, sp[1]
.Ltmp396:
	.cfi_offset 4, -24
.Ltmp397:
	.cfi_offset 5, -20
	std r7, r6, sp[2]
.Ltmp398:
	.cfi_offset 6, -16
.Ltmp399:
	.cfi_offset 7, -12
.Ltmp400:
	.cfi_offset 8, -8
.Ltmp401:
	{
		mov r4, r2
		stw r8, sp[6]
	}
.Ltmp402:
	{
		mov r8, r1
		mov r5, r0
	}
.Ltmp403:
	{
		nop
		ldw r6, r5[5]
	}
.Ltmp404:
	.loc	4 913 6 prologue_end
	bf r3, .LBB5_1
.Ltmp405:
	{
		ldc r7, 0
		nop
	}
	bf r4, .LBB5_7
.Ltmp406:
	bf r8, .LBB5_7
.Ltmp407:
	.loc	5 95 9
	{
		mov r0, r4
		nop
	}
	bl malloc
	{
		mov r7, r0
		nop
	}
.Ltmp408:
	.loc	4 70 12
	bf r7, .LBB5_5
.Ltmp409:
	.loc	4 72 3
	{
		mov r0, r7
		mov r1, r8
	}
	{
		mov r2, r4
		nop
	}
	bl memcpy
	bu .LBB5_7
.Ltmp410:
.LBB5_1:
	{
		mov r7, r8
		nop
	}
.Ltmp411:
.LBB5_7:
	.loc	4 918 3
	{
		mov r0, r6
		stw r7, r5[5]
	}
.Ltmp412:
	.loc	4 921 2
	bl free
	.loc	4 923 2
	ldw r0, cp[FLAC__STREAM_METADATA_APPLICATION_ID_LEN]
	.loc	4 923 2
	{
		shr r0, r0, 3
		nop
	}
	.loc	4 923 2
	{
		add r0, r0, r4
		nop
	}
	.loc	4 923 2
	{
		mkmsk r0, 1
		stw r0, r5[2]
	}
.Ltmp413:
.LBB5_8:
	{
		nop
		ldw r8, sp[6]
	}
	.loc	4 925 1
	ldd r7, r6, sp[2]
	ldd r5, r4, sp[1]
	{
		nop
		retsp 8
	}
	# RETURN_REG_HOLDER
.Ltmp414:
.LBB5_5:
	{
		ldc r0, 0
		nop
	}
	bu .LBB5_8
	.cc_bottom FLAC__metadata_object_application_set_data.function
	.set	FLAC__metadata_object_application_set_data.nstackwords,((free.nstackwords $M malloc.nstackwords $M memcpy.nstackwords) + 8)
	.globl	FLAC__metadata_object_application_set_data.nstackwords
	.set	FLAC__metadata_object_application_set_data.maxcores,free.maxcores $M malloc.maxcores $M 1
	.globl	FLAC__metadata_object_application_set_data.maxcores
	.set	FLAC__metadata_object_application_set_data.maxtimers,free.maxtimers $M malloc.maxtimers $M 0
	.globl	FLAC__metadata_object_application_set_data.maxtimers
	.set	FLAC__metadata_object_application_set_data.maxchanends,free.maxchanends $M malloc.maxchanends $M 0
	.globl	FLAC__metadata_object_application_set_data.maxchanends
.Ltmp415:
	.size	FLAC__metadata_object_application_set_data, .Ltmp415-FLAC__metadata_object_application_set_data
.Lfunc_end5:
	.cfi_endproc

	.section	.cp.rodata.cst4,"aMc",@progbits,4
	.cc_top .LCPI6_0.data,.LCPI6_0
	.align	4
	.type	.LCPI6_0,@object
	.size	.LCPI6_0, 4
.LCPI6_0:
	.long	178956970
	.cc_bottom .LCPI6_0.data
	.text
	.globl	FLAC__metadata_object_seektable_resize_points
	.align	4
	.type	FLAC__metadata_object_seektable_resize_points,@function
	.cc_top FLAC__metadata_object_seektable_resize_points.function,FLAC__metadata_object_seektable_resize_points
FLAC__metadata_object_seektable_resize_points:
.Lfunc_begin6:
	.loc	4 928 0
	.cfi_startproc
	.issue_mode dual
	{
		nop
		dualentsp 8
	}
.Ltmp416:
	.cfi_def_cfa_offset 32
.Ltmp417:
	.cfi_offset 15, 0
	std r5, r4, sp[1]
.Ltmp418:
	.cfi_offset 4, -24
.Ltmp419:
	.cfi_offset 5, -20
	std r7, r6, sp[2]
.Ltmp420:
	.cfi_offset 6, -16
.Ltmp421:
	.cfi_offset 7, -12
	std r9, r8, sp[3]
.Ltmp422:
	.cfi_offset 8, -8
.Ltmp423:
	.cfi_offset 9, -4
.Ltmp424:
	{
		mov r5, r1
		mov r4, r0
	}
.Ltmp425:
	{
		nop
		ldw r0, r4[5]
	}
	.loc	4 932 6 prologue_end
.Ltmp426:
	bf r0, .LBB6_1
.Ltmp427:
	ldw r1, cp[.LCPI6_0]
	.loc	4 944 7
.Ltmp428:
	{
		lsu r1, r1, r5
		ldc r6, 0
	}
	bt r1, .LBB6_17
.Ltmp429:
	.loc	4 940 3
	{
		ldc r8, 24
		ldw r1, r4[4]
	}
	.loc	4 940 3
	mul r9, r1, r8
.Ltmp430:
	.loc	4 941 3
	mul r7, r5, r8
.Ltmp431:
	.loc	4 949 7
	bf r7, .LBB6_9
.Ltmp432:
	.loc	4 956 18
	{
		mov r1, r7
		nop
	}
	bl realloc
	bt r0, .LBB6_11
	bu .LBB6_17
.Ltmp433:
.LBB6_1:
	bf r5, .LBB6_16
.Ltmp434:
	{
		ldc r1, 24
		mov r0, r5
	}
	.loc	4 179 17
.Ltmp435:
	bl safe_malloc_mul_2op_p
	.loc	4 181 6
.Ltmp436:
	bf r0, .LBB6_6
.Ltmp437:
	.loc	4 184 4
	ldaw r11, cp[FLAC__STREAM_METADATA_SEEKPOINT_PLACEHOLDER]
	ldd r2, r1, r11[0]
	{
		ldc r3, 0
		mov r11, r0
	}
	{
		mov r6, r5
		nop
	}
.Ltmp438:
.LBB6_4:
	.loc	4 184 4
	std r2, r1, r11[0]
	{
		add r7, r11, 8
		nop
	}
	.loc	4 185 4
	std r3, r3, r7[0]
	.loc	4 186 4
	{
		sub r6, r6, 1
		stw r3, r11[4]
	}
.Ltmp439:
	.loc	4 183 3
	ldaw r11, r11[6]
	.loc	4 183 3
	bt r6, .LBB6_4
.Ltmp440:
	{
		nop
		stw r0, r4[5]
	}
	bu .LBB6_15
.Ltmp441:
.LBB6_9:
	.loc	4 950 4
	bl free
	{
		ldc r0, 0
		nop
	}
.Ltmp442:
.LBB6_11:
	.loc	4 951 4
	{
		lsu r1, r9, r7
		stw r0, r4[5]
	}
	bf r1, .LBB6_15
.Ltmp443:
	{
		nop
		ldw r6, r4[4]
	}
.Ltmp444:
	.loc	4 964 4
	{
		lsu r1, r6, r5
		nop
	}
	bf r1, .LBB6_15
.Ltmp445:
	.loc	4 965 5
	ldaw r11, cp[FLAC__STREAM_METADATA_SEEKPOINT_PLACEHOLDER]
	ldd r2, r1, r11[0]
.Ltmp446:
	.loc	4 964 4
	{
		sub r3, r5, r6
		nop
	}
	mul r11, r6, r8
	{
		add r0, r0, r11
		ldc r11, 0
	}
.Ltmp447:
.LBB6_14:
	.loc	4 965 5
	std r2, r1, r0[0]
	{
		add r6, r0, 8
		nop
	}
	.loc	4 966 5
	std r11, r11, r6[0]
	.loc	4 967 5
	{
		sub r3, r3, 1
		stw r11, r0[4]
	}
.Ltmp448:
	.loc	4 964 4
	ldaw r0, r0[6]
	bt r3, .LBB6_14
.Ltmp449:
.LBB6_15:
	.loc	4 972 2
	{
		ldc r0, 18
		stw r5, r4[4]
	}
	.loc	4 170 2
.Ltmp450:
	mul r0, r5, r0
	{
		nop
		stw r0, r4[2]
	}
.Ltmp451:
.LBB6_16:
	{
		mkmsk r6, 1
		nop
	}
.LBB6_17:
	.loc	4 976 1
	{
		mov r0, r6
		nop
	}
	ldd r9, r8, sp[3]
	ldd r7, r6, sp[2]
	ldd r5, r4, sp[1]
	{
		nop
		retsp 8
	}
	# RETURN_REG_HOLDER
.LBB6_6:
.Ltmp452:
	.loc	4 936 46
	{
		ldc r6, 0
		stw r0, r4[5]
	}
	bu .LBB6_17
.Ltmp453:
	.cc_bottom FLAC__metadata_object_seektable_resize_points.function
	.set	FLAC__metadata_object_seektable_resize_points.nstackwords,((safe_malloc_mul_2op_p.nstackwords $M free.nstackwords $M realloc.nstackwords) + 8)
	.globl	FLAC__metadata_object_seektable_resize_points.nstackwords
	.set	FLAC__metadata_object_seektable_resize_points.maxcores,free.maxcores $M realloc.maxcores $M safe_malloc_mul_2op_p.maxcores $M 1
	.globl	FLAC__metadata_object_seektable_resize_points.maxcores
	.set	FLAC__metadata_object_seektable_resize_points.maxtimers,free.maxtimers $M realloc.maxtimers $M safe_malloc_mul_2op_p.maxtimers $M 0
	.globl	FLAC__metadata_object_seektable_resize_points.maxtimers
	.set	FLAC__metadata_object_seektable_resize_points.maxchanends,free.maxchanends $M realloc.maxchanends $M safe_malloc_mul_2op_p.maxchanends $M 0
	.globl	FLAC__metadata_object_seektable_resize_points.maxchanends
.Ltmp454:
	.size	FLAC__metadata_object_seektable_resize_points, .Ltmp454-FLAC__metadata_object_seektable_resize_points
.Lfunc_end6:
	.cfi_endproc

	.globl	FLAC__metadata_object_seektable_set_point
	.align	4
	.type	FLAC__metadata_object_seektable_set_point,@function
	.cc_top FLAC__metadata_object_seektable_set_point.function,FLAC__metadata_object_seektable_set_point
FLAC__metadata_object_seektable_set_point:
.Lfunc_begin7:
	.loc	4 979 0
	.cfi_startproc
	.issue_mode dual
	{
		nop
		dualentsp 12
	}
.Ltmp455:
	.cfi_def_cfa_offset 48
.Ltmp456:
	.cfi_offset 15, 0
	std r5, r4, sp[4]
.Ltmp457:
	.cfi_offset 4, -16
.Ltmp458:
	.cfi_offset 5, -12
	std r7, r6, sp[5]
.Ltmp459:
	.cfi_offset 6, -8
.Ltmp460:
	.cfi_offset 7, -4
.Ltmp461:
	{
		mov r4, r1
		mov r5, r0
	}
.Ltmp462:
	{
		ldaw r6, sp[2]
		ldc r7, 24
	}
	{
		mov r0, r6
		mov r1, r2
	}
	{
		mov r2, r7
		nop
	}
	bl __memcpy_4
	{
		nop
		ldw r0, r5[5]
	}
	.loc	4 984 2 prologue_end
.Ltmp463:
	mul r1, r4, r7
	{
		add r0, r0, r1
		mov r1, r6
	}
	.loc	4 984 2
	{
		mov r2, r7
		nop
	}
	bl __memcpy_4
	.loc	4 985 1
	ldd r7, r6, sp[5]
	ldd r5, r4, sp[4]
	{
		nop
		retsp 12
	}
.Ltmp464:
	# RETURN_REG_HOLDER
.Ltmp465:
	.cc_bottom FLAC__metadata_object_seektable_set_point.function
	.set	FLAC__metadata_object_seektable_set_point.nstackwords,(__memcpy_4.nstackwords + 12)
	.globl	FLAC__metadata_object_seektable_set_point.nstackwords
	.set	FLAC__metadata_object_seektable_set_point.maxcores,1
	.globl	FLAC__metadata_object_seektable_set_point.maxcores
	.set	FLAC__metadata_object_seektable_set_point.maxtimers,0
	.globl	FLAC__metadata_object_seektable_set_point.maxtimers
	.set	FLAC__metadata_object_seektable_set_point.maxchanends,0
	.globl	FLAC__metadata_object_seektable_set_point.maxchanends
.Ltmp466:
	.size	FLAC__metadata_object_seektable_set_point, .Ltmp466-FLAC__metadata_object_seektable_set_point
.Lfunc_end7:
	.cfi_endproc

	.section	.cp.rodata.cst4,"aMc",@progbits,4
	.cc_top .LCPI8_0.data,.LCPI8_0
	.align	4
	.type	.LCPI8_0,@object
	.size	.LCPI8_0, 4
.LCPI8_0:
	.long	4294967248
	.cc_bottom .LCPI8_0.data
	.text
	.globl	FLAC__metadata_object_seektable_insert_point
	.align	4
	.type	FLAC__metadata_object_seektable_insert_point,@function
	.cc_top FLAC__metadata_object_seektable_insert_point.function,FLAC__metadata_object_seektable_insert_point
FLAC__metadata_object_seektable_insert_point:
.Lfunc_begin8:
	.loc	4 988 0
	.cfi_startproc
	.issue_mode dual
	{
		nop
		dualentsp 14
	}
.Ltmp467:
	.cfi_def_cfa_offset 56
.Ltmp468:
	.cfi_offset 15, 0
	std r5, r4, sp[4]
.Ltmp469:
	.cfi_offset 4, -24
.Ltmp470:
	.cfi_offset 5, -20
	std r7, r6, sp[5]
.Ltmp471:
	.cfi_offset 6, -16
.Ltmp472:
	.cfi_offset 7, -12
	std r9, r8, sp[6]
.Ltmp473:
	.cfi_offset 8, -8
.Ltmp474:
	.cfi_offset 9, -4
.Ltmp475:
	{
		mov r7, r1
		mov r4, r0
	}
.Ltmp476:
	{
		ldaw r5, sp[2]
		ldc r6, 24
	}
	{
		mov r0, r5
		mov r1, r2
	}
	{
		mov r2, r6
		nop
	}
	bl __memcpy_4
	{
		nop
		ldw r0, r4[4]
	}
	.loc	4 995 7 prologue_end
.Ltmp477:
	{
		add r1, r0, 1
		mov r0, r4
	}
	.loc	4 995 7
	bl FLAC__metadata_object_seektable_resize_points
	.loc	4 995 7
	bf r0, .LBB8_1
.Ltmp478:
	{
		nop
		ldw r0, r4[4]
	}
	.loc	4 999 7
.Ltmp479:
	{
		sub r8, r0, 1
		nop
	}
	.loc	4 999 2
.Ltmp480:
	{
		lss r1, r7, r8
		nop
	}
	bf r1, .LBB8_5
.Ltmp481:
	.loc	4 1000 3
	mul r0, r0, r6
	ldw r1, cp[.LCPI8_0]
	.loc	4 1000 3
	{
		add r9, r0, r1
		nop
	}
.Ltmp482:
.LBB8_4:
	{
		nop
		ldw r0, r4[5]
	}
	{
		add r1, r0, r9
		nop
	}
	ldaw r0, r1[6]
	.loc	4 1000 3
	{
		mov r2, r6
		nop
	}
	bl __memcpy_4
.Ltmp483:
	.loc	4 999 7
	{
		sub r8, r8, 1
		nop
	}
	.loc	4 999 2
.Ltmp484:
	ldaw r9, r9[-6]
	.loc	4 999 2
	{
		lss r0, r7, r8
		nop
	}
	bt r0, .LBB8_4
.Ltmp485:
.LBB8_5:
	{
		nop
		ldw r0, r4[5]
	}
	.loc	4 984 2
.Ltmp486:
	mul r1, r7, r6
	{
		add r0, r0, r1
		mov r1, r5
	}
	.loc	4 984 2
	{
		mov r2, r6
		nop
	}
	bl memcpy
.Ltmp487:
	.loc	4 170 2
	{
		ldc r1, 18
		ldw r0, r4[4]
	}
	.loc	4 170 2
	mul r0, r0, r1
	.loc	4 170 2
	{
		mkmsk r0, 1
		stw r0, r4[2]
	}
	bu .LBB8_6
.Ltmp488:
.LBB8_1:
	{
		ldc r0, 0
		nop
	}
.Ltmp489:
.LBB8_6:
	.loc	4 1005 1
	ldd r9, r8, sp[6]
	ldd r7, r6, sp[5]
	ldd r5, r4, sp[4]
	{
		nop
		retsp 14
	}
.Ltmp490:
	# RETURN_REG_HOLDER
.Ltmp491:
	.cc_bottom FLAC__metadata_object_seektable_insert_point.function
	.set	FLAC__metadata_object_seektable_insert_point.nstackwords,((FLAC__metadata_object_seektable_resize_points.nstackwords $M __memcpy_4.nstackwords $M memcpy.nstackwords) + 14)
	.globl	FLAC__metadata_object_seektable_insert_point.nstackwords
	.set	FLAC__metadata_object_seektable_insert_point.maxcores,FLAC__metadata_object_seektable_resize_points.maxcores $M 1
	.globl	FLAC__metadata_object_seektable_insert_point.maxcores
	.set	FLAC__metadata_object_seektable_insert_point.maxtimers,FLAC__metadata_object_seektable_resize_points.maxtimers $M 0
	.globl	FLAC__metadata_object_seektable_insert_point.maxtimers
	.set	FLAC__metadata_object_seektable_insert_point.maxchanends,FLAC__metadata_object_seektable_resize_points.maxchanends $M 0
	.globl	FLAC__metadata_object_seektable_insert_point.maxchanends
.Ltmp492:
	.size	FLAC__metadata_object_seektable_insert_point, .Ltmp492-FLAC__metadata_object_seektable_insert_point
.Lfunc_end8:
	.cfi_endproc

	.globl	FLAC__metadata_object_seektable_delete_point
	.align	4
	.type	FLAC__metadata_object_seektable_delete_point,@function
	.cc_top FLAC__metadata_object_seektable_delete_point.function,FLAC__metadata_object_seektable_delete_point
FLAC__metadata_object_seektable_delete_point:
.Lfunc_begin9:
	.loc	4 1008 0
	.cfi_startproc
	.issue_mode dual
	{
		nop
		dualentsp 6
	}
.Ltmp493:
	.cfi_def_cfa_offset 24
.Ltmp494:
	.cfi_offset 15, 0
	std r5, r4, sp[1]
.Ltmp495:
	.cfi_offset 4, -16
.Ltmp496:
	.cfi_offset 5, -12
	std r7, r6, sp[2]
.Ltmp497:
	.cfi_offset 6, -8
.Ltmp498:
	.cfi_offset 7, -4
.Ltmp499:
	{
		mov r5, r1
		mov r4, r0
	}
.Ltmp500:
	{
		nop
		ldw r0, r4[4]
	}
	.loc	4 1016 2 prologue_end
.Ltmp501:
	{
		sub r1, r0, 1
		nop
	}
	.loc	4 1016 2
	{
		lsu r0, r5, r1
		nop
	}
	bf r0, .LBB9_3
.Ltmp502:
	{
		ldc r6, 24
		nop
	}
	.loc	4 1016 2
	mul r7, r5, r6
.Ltmp503:
.LBB9_2:
	.loc	4 1017 3
	{
		add r5, r5, 1
		ldw r0, r4[5]
	}
.Ltmp504:
	{
		add r0, r0, r7
		nop
	}
	ldaw r1, r0[6]
	.loc	4 1017 3
	{
		mov r2, r6
		nop
	}
	bl __memcpy_4
	{
		nop
		ldw r0, r4[4]
	}
	.loc	4 1016 2
	{
		sub r1, r0, 1
		nop
	}
	.loc	4 1016 2
	ldaw r7, r7[6]
	.loc	4 1016 2
	{
		lsu r0, r5, r1
		nop
	}
	bt r0, .LBB9_2
.Ltmp505:
.LBB9_3:
	.loc	4 1019 9
	{
		mov r0, r4
		nop
	}
	bl FLAC__metadata_object_seektable_resize_points
	.loc	4 1019 9
	ldd r7, r6, sp[2]
	ldd r5, r4, sp[1]
.Ltmp506:
	{
		nop
		retsp 6
	}
	# RETURN_REG_HOLDER
.Ltmp507:
	.cc_bottom FLAC__metadata_object_seektable_delete_point.function
	.set	FLAC__metadata_object_seektable_delete_point.nstackwords,((__memcpy_4.nstackwords $M FLAC__metadata_object_seektable_resize_points.nstackwords) + 6)
	.globl	FLAC__metadata_object_seektable_delete_point.nstackwords
	.set	FLAC__metadata_object_seektable_delete_point.maxcores,FLAC__metadata_object_seektable_resize_points.maxcores $M 1
	.globl	FLAC__metadata_object_seektable_delete_point.maxcores
	.set	FLAC__metadata_object_seektable_delete_point.maxtimers,FLAC__metadata_object_seektable_resize_points.maxtimers $M 0
	.globl	FLAC__metadata_object_seektable_delete_point.maxtimers
	.set	FLAC__metadata_object_seektable_delete_point.maxchanends,FLAC__metadata_object_seektable_resize_points.maxchanends $M 0
	.globl	FLAC__metadata_object_seektable_delete_point.maxchanends
.Ltmp508:
	.size	FLAC__metadata_object_seektable_delete_point, .Ltmp508-FLAC__metadata_object_seektable_delete_point
.Lfunc_end9:
	.cfi_endproc

	.globl	FLAC__metadata_object_seektable_is_legal
	.align	4
	.type	FLAC__metadata_object_seektable_is_legal,@function
	.cc_top FLAC__metadata_object_seektable_is_legal.function,FLAC__metadata_object_seektable_is_legal
FLAC__metadata_object_seektable_is_legal:
.Lfunc_begin10:
	.loc	4 1023 0
	.cfi_startproc
	.issue_mode dual
	{
		nop
		dualentsp 2
	}
.Ltmp509:
	.cfi_def_cfa_offset 8
.Ltmp510:
	.cfi_offset 15, 0
	.loc	4 1027 9 prologue_end
.Ltmp511:
	ldaw r0, r0[4]
.Ltmp512:
	.loc	4 1027 9
	bl FLAC__format_seektable_is_legal
	{
		nop
		retsp 2
	}
	.loc	4 1027 9
	# RETURN_REG_HOLDER
.Ltmp513:
	.cc_bottom FLAC__metadata_object_seektable_is_legal.function
	.set	FLAC__metadata_object_seektable_is_legal.nstackwords,(FLAC__format_seektable_is_legal.nstackwords + 2)
	.globl	FLAC__metadata_object_seektable_is_legal.nstackwords
	.set	FLAC__metadata_object_seektable_is_legal.maxcores,FLAC__format_seektable_is_legal.maxcores $M 1
	.globl	FLAC__metadata_object_seektable_is_legal.maxcores
	.set	FLAC__metadata_object_seektable_is_legal.maxtimers,FLAC__format_seektable_is_legal.maxtimers $M 0
	.globl	FLAC__metadata_object_seektable_is_legal.maxtimers
	.set	FLAC__metadata_object_seektable_is_legal.maxchanends,FLAC__format_seektable_is_legal.maxchanends $M 0
	.globl	FLAC__metadata_object_seektable_is_legal.maxchanends
.Ltmp514:
	.size	FLAC__metadata_object_seektable_is_legal, .Ltmp514-FLAC__metadata_object_seektable_is_legal
.Lfunc_end10:
	.cfi_endproc

	.globl	FLAC__metadata_object_seektable_template_append_placeholders
	.align	4
	.type	FLAC__metadata_object_seektable_template_append_placeholders,@function
	.cc_top FLAC__metadata_object_seektable_template_append_placeholders.function,FLAC__metadata_object_seektable_template_append_placeholders
FLAC__metadata_object_seektable_template_append_placeholders:
.Lfunc_begin11:
	.loc	4 1031 0
	.cfi_startproc
	.issue_mode dual
	{
		nop
		dualentsp 2
	}
.Ltmp515:
	.cfi_def_cfa_offset 8
.Ltmp516:
	.cfi_offset 15, 0
	.loc	4 1035 6 prologue_end
.Ltmp517:
	bf r1, .LBB11_1
.Ltmp518:
	{
		nop
		ldw r2, r0[4]
	}
	.loc	4 1037 10
	{
		add r1, r2, r1
		nop
	}
.Ltmp519:
	.loc	4 1037 10
	bl FLAC__metadata_object_seektable_resize_points
.Ltmp520:
	{
		nop
		retsp 2
	}
.Ltmp521:
	.loc	4 1040 1
	# RETURN_REG_HOLDER
.LBB11_1:
	{
		mkmsk r0, 1
		retsp 2
	}
	# RETURN_REG_HOLDER
.Ltmp522:
	.cc_bottom FLAC__metadata_object_seektable_template_append_placeholders.function
	.set	FLAC__metadata_object_seektable_template_append_placeholders.nstackwords,(FLAC__metadata_object_seektable_resize_points.nstackwords + 2)
	.globl	FLAC__metadata_object_seektable_template_append_placeholders.nstackwords
	.set	FLAC__metadata_object_seektable_template_append_placeholders.maxcores,FLAC__metadata_object_seektable_resize_points.maxcores $M 1
	.globl	FLAC__metadata_object_seektable_template_append_placeholders.maxcores
	.set	FLAC__metadata_object_seektable_template_append_placeholders.maxtimers,FLAC__metadata_object_seektable_resize_points.maxtimers $M 0
	.globl	FLAC__metadata_object_seektable_template_append_placeholders.maxtimers
	.set	FLAC__metadata_object_seektable_template_append_placeholders.maxchanends,FLAC__metadata_object_seektable_resize_points.maxchanends $M 0
	.globl	FLAC__metadata_object_seektable_template_append_placeholders.maxchanends
.Ltmp523:
	.size	FLAC__metadata_object_seektable_template_append_placeholders, .Ltmp523-FLAC__metadata_object_seektable_template_append_placeholders
.Lfunc_end11:
	.cfi_endproc

	.globl	FLAC__metadata_object_seektable_template_append_point
	.align	4
	.type	FLAC__metadata_object_seektable_template_append_point,@function
	.cc_top FLAC__metadata_object_seektable_template_append_point.function,FLAC__metadata_object_seektable_template_append_point
FLAC__metadata_object_seektable_template_append_point:
.Lfunc_begin12:
	.loc	4 1043 0
	.cfi_startproc
	.issue_mode dual
	{
		nop
		dualentsp 6
	}
.Ltmp524:
	.cfi_def_cfa_offset 24
.Ltmp525:
	.cfi_offset 15, 0
	std r5, r4, sp[1]
.Ltmp526:
	.cfi_offset 4, -16
.Ltmp527:
	.cfi_offset 5, -12
.Ltmp528:
	.cfi_offset 6, -8
	{
		mov r4, r2
		stw r6, sp[4]
	}
.Ltmp529:
	{
		mov r5, r1
		mov r6, r0
	}
.Ltmp530:
	{
		nop
		ldw r0, r6[4]
	}
	.loc	4 1051 7 prologue_end
.Ltmp531:
	{
		add r1, r0, 1
		mov r0, r6
	}
	.loc	4 1051 7
	bl FLAC__metadata_object_seektable_resize_points
	.loc	4 1051 7
	bf r0, .LBB12_1
.Ltmp532:
	.loc	4 1054 2
	{
		ldc r1, 24
		ldw r0, r6[4]
	}
	.loc	4 1054 2
	mul r0, r0, r1
	{
		nop
		ldw r1, r6[5]
	}
	.loc	4 1054 2
	{
		add r0, r0, r1
		nop
	}
	.loc	4 1054 2
	ldaw r1, r0[-6]
	.loc	4 1054 2
	std r4, r5, r1[0]
	.loc	4 1055 2
	ldaw r1, r0[-4]
	{
		ldc r2, 0
		nop
	}
	.loc	4 1055 2
	std r2, r2, r1[0]
	.loc	4 1056 2
	{
		sub r0, r0, 8
		nop
	}
	.loc	4 1056 2
	{
		mkmsk r0, 1
		stw r2, r0[0]
	}
	bu .LBB12_3
.Ltmp533:
.LBB12_1:
	{
		ldc r0, 0
		nop
	}
.LBB12_3:
	{
		nop
		ldw r6, sp[4]
	}
	.loc	4 1059 1
	ldd r5, r4, sp[1]
	{
		nop
		retsp 6
	}
	# RETURN_REG_HOLDER
.Ltmp534:
	.cc_bottom FLAC__metadata_object_seektable_template_append_point.function
	.set	FLAC__metadata_object_seektable_template_append_point.nstackwords,(FLAC__metadata_object_seektable_resize_points.nstackwords + 6)
	.globl	FLAC__metadata_object_seektable_template_append_point.nstackwords
	.set	FLAC__metadata_object_seektable_template_append_point.maxcores,FLAC__metadata_object_seektable_resize_points.maxcores $M 1
	.globl	FLAC__metadata_object_seektable_template_append_point.maxcores
	.set	FLAC__metadata_object_seektable_template_append_point.maxtimers,FLAC__metadata_object_seektable_resize_points.maxtimers $M 0
	.globl	FLAC__metadata_object_seektable_template_append_point.maxtimers
	.set	FLAC__metadata_object_seektable_template_append_point.maxchanends,FLAC__metadata_object_seektable_resize_points.maxchanends $M 0
	.globl	FLAC__metadata_object_seektable_template_append_point.maxchanends
.Ltmp535:
	.size	FLAC__metadata_object_seektable_template_append_point, .Ltmp535-FLAC__metadata_object_seektable_template_append_point
.Lfunc_end12:
	.cfi_endproc

	.globl	FLAC__metadata_object_seektable_template_append_points
	.align	4
	.type	FLAC__metadata_object_seektable_template_append_points,@function
	.cc_top FLAC__metadata_object_seektable_template_append_points.function,FLAC__metadata_object_seektable_template_append_points
FLAC__metadata_object_seektable_template_append_points:
.Lfunc_begin13:
	.loc	4 1062 0
	.cfi_startproc
	.issue_mode dual
	{
		nop
		dualentsp 8
	}
.Ltmp536:
	.cfi_def_cfa_offset 32
.Ltmp537:
	.cfi_offset 15, 0
	std r5, r4, sp[1]
.Ltmp538:
	.cfi_offset 4, -24
.Ltmp539:
	.cfi_offset 5, -20
	std r7, r6, sp[2]
.Ltmp540:
	.cfi_offset 6, -16
.Ltmp541:
	.cfi_offset 7, -12
.Ltmp542:
	.cfi_offset 8, -8
.Ltmp543:
	{
		mov r5, r2
		stw r8, sp[6]
	}
.Ltmp544:
	{
		mov r6, r1
		mov r7, r0
	}
.Ltmp545:
	{
		mkmsk r4, 1
		nop
	}
	bf r5, .LBB13_5
.Ltmp546:
	{
		nop
		ldw r8, r7[4]
	}
.Ltmp547:
	.loc	4 1073 8 prologue_end
	{
		add r1, r8, r5
		mov r0, r7
	}
	.loc	4 1073 8
	bl FLAC__metadata_object_seektable_resize_points
	.loc	4 1073 8
	bf r0, .LBB13_2
.Ltmp548:
	.loc	4 1077 4
	{
		ldc r1, 24
		ldw r0, r7[5]
	}
	mul r1, r8, r1
	{
		add r0, r0, r1
		ldc r1, 0
	}
.Ltmp549:
.LBB13_4:
	.loc	4 1077 4
	ldd r3, r2, r6[0]
	.loc	4 1077 4
	std r3, r2, r0[0]
	{
		add r2, r0, 8
		nop
	}
	.loc	4 1078 4
	std r1, r1, r2[0]
	.loc	4 1079 4
	{
		add r6, r6, 8
		stw r1, r0[4]
	}
.Ltmp550:
	.loc	4 1076 3
	{
		sub r5, r5, 1
		nop
	}
	.loc	4 1076 3
	ldaw r0, r0[6]
	.loc	4 1076 3
	bt r5, .LBB13_4
	bu .LBB13_5
.Ltmp551:
.LBB13_2:
	{
		ldc r4, 0
		nop
	}
.LBB13_5:
	.loc	4 1084 1
	{
		mov r0, r4
		ldw r8, sp[6]
	}
	ldd r7, r6, sp[2]
	ldd r5, r4, sp[1]
	{
		nop
		retsp 8
	}
	# RETURN_REG_HOLDER
.Ltmp552:
	.cc_bottom FLAC__metadata_object_seektable_template_append_points.function
	.set	FLAC__metadata_object_seektable_template_append_points.nstackwords,(FLAC__metadata_object_seektable_resize_points.nstackwords + 8)
	.globl	FLAC__metadata_object_seektable_template_append_points.nstackwords
	.set	FLAC__metadata_object_seektable_template_append_points.maxcores,FLAC__metadata_object_seektable_resize_points.maxcores $M 1
	.globl	FLAC__metadata_object_seektable_template_append_points.maxcores
	.set	FLAC__metadata_object_seektable_template_append_points.maxtimers,FLAC__metadata_object_seektable_resize_points.maxtimers $M 0
	.globl	FLAC__metadata_object_seektable_template_append_points.maxtimers
	.set	FLAC__metadata_object_seektable_template_append_points.maxchanends,FLAC__metadata_object_seektable_resize_points.maxchanends $M 0
	.globl	FLAC__metadata_object_seektable_template_append_points.maxchanends
.Ltmp553:
	.size	FLAC__metadata_object_seektable_template_append_points, .Ltmp553-FLAC__metadata_object_seektable_template_append_points
.Lfunc_end13:
	.cfi_endproc

	.globl	FLAC__metadata_object_seektable_template_append_spaced_points
	.align	4
	.type	FLAC__metadata_object_seektable_template_append_spaced_points,@function
	.cc_top FLAC__metadata_object_seektable_template_append_spaced_points.function,FLAC__metadata_object_seektable_template_append_spaced_points
FLAC__metadata_object_seektable_template_append_spaced_points:
.Lfunc_begin14:
	.loc	4 1087 0
	.cfi_startproc
	.issue_mode dual
	{
		nop
		dualentsp 10
	}
.Ltmp554:
	.cfi_def_cfa_offset 40
.Ltmp555:
	.cfi_offset 15, 0
	std r5, r4, sp[1]
.Ltmp556:
	.cfi_offset 4, -32
.Ltmp557:
	.cfi_offset 5, -28
	std r7, r6, sp[2]
.Ltmp558:
	.cfi_offset 6, -24
.Ltmp559:
	.cfi_offset 7, -20
	std r9, r8, sp[3]
.Ltmp560:
	.cfi_offset 8, -16
.Ltmp561:
	.cfi_offset 9, -12
.Ltmp562:
	.cfi_offset 10, -8
	{
		mov r5, r3
		stw r10, sp[8]
	}
.Ltmp563:
	{
		mov r6, r2
		mov r7, r1
	}
.Ltmp564:
	{
		mov r8, r0
		mkmsk r4, 1
	}
.Ltmp565:
	bf r7, .LBB14_6
.Ltmp566:
	{
		or r0, r6, r5
		nop
	}
	bf r0, .LBB14_6
.Ltmp567:
	{
		nop
		ldw r9, r8[4]
	}
.Ltmp568:
	.loc	4 1097 8 prologue_end
	{
		add r1, r9, r7
		mov r0, r8
	}
	.loc	4 1097 8
	bl FLAC__metadata_object_seektable_resize_points
	.loc	4 1097 8
	bf r0, .LBB14_3
.Ltmp569:
	.loc	4 1101 4
	{
		ldc r1, 24
		ldw r0, r8[5]
	}
	mul r1, r9, r1
	{
		add r9, r0, r1
		ldc r8, 0
	}
.Ltmp570:
	{
		mov r10, r8
		nop
	}
.Ltmp571:
.LBB14_5:
	.loc	4 1101 4
	lmul r1, r0, r10, r6, r8, r8
	mul r2, r10, r5
	{
		add r1, r1, r2
		mov r2, r7
	}
	.loc	4 1101 4
	{
		mov r3, r8
		nop
	}
	bl __udivdi3
	.loc	4 1101 4
	std r1, r0, r9[0]
	{
		add r0, r9, 8
		nop
	}
	.loc	4 1102 4
	std r8, r8, r0[0]
.Ltmp572:
	.loc	4 1103 4
	{
		add r10, r10, 1
		stw r8, r9[4]
	}
.Ltmp573:
	.loc	4 1100 3
	ldaw r9, r9[6]
	.loc	4 1100 3
	{
		eq r0, r7, r10
		nop
	}
	bf r0, .LBB14_5
	bu .LBB14_6
.Ltmp574:
.LBB14_3:
	{
		ldc r4, 0
		nop
	}
.LBB14_6:
	.loc	4 1108 1
	{
		mov r0, r4
		ldw r10, sp[8]
	}
	ldd r9, r8, sp[3]
	ldd r7, r6, sp[2]
	ldd r5, r4, sp[1]
	{
		nop
		retsp 10
	}
	# RETURN_REG_HOLDER
.Ltmp575:
	.cc_bottom FLAC__metadata_object_seektable_template_append_spaced_points.function
	.set	FLAC__metadata_object_seektable_template_append_spaced_points.nstackwords,((FLAC__metadata_object_seektable_resize_points.nstackwords $M __udivdi3.nstackwords) + 10)
	.globl	FLAC__metadata_object_seektable_template_append_spaced_points.nstackwords
	.set	FLAC__metadata_object_seektable_template_append_spaced_points.maxcores,FLAC__metadata_object_seektable_resize_points.maxcores $M 1
	.globl	FLAC__metadata_object_seektable_template_append_spaced_points.maxcores
	.set	FLAC__metadata_object_seektable_template_append_spaced_points.maxtimers,FLAC__metadata_object_seektable_resize_points.maxtimers $M 0
	.globl	FLAC__metadata_object_seektable_template_append_spaced_points.maxtimers
	.set	FLAC__metadata_object_seektable_template_append_spaced_points.maxchanends,FLAC__metadata_object_seektable_resize_points.maxchanends $M 0
	.globl	FLAC__metadata_object_seektable_template_append_spaced_points.maxchanends
.Ltmp576:
	.size	FLAC__metadata_object_seektable_template_append_spaced_points, .Ltmp576-FLAC__metadata_object_seektable_template_append_spaced_points
.Lfunc_end14:
	.cfi_endproc

	.globl	FLAC__metadata_object_seektable_template_append_spaced_points_by_samples
	.align	4
	.type	FLAC__metadata_object_seektable_template_append_spaced_points_by_samples,@function
	.cc_top FLAC__metadata_object_seektable_template_append_spaced_points_by_samples.function,FLAC__metadata_object_seektable_template_append_spaced_points_by_samples
FLAC__metadata_object_seektable_template_append_spaced_points_by_samples:
.Lfunc_begin15:
	.loc	4 1111 0
	.cfi_startproc
	.issue_mode dual
	{
		nop
		dualentsp 10
	}
.Ltmp577:
	.cfi_def_cfa_offset 40
.Ltmp578:
	.cfi_offset 15, 0
	std r5, r4, sp[1]
.Ltmp579:
	.cfi_offset 4, -32
.Ltmp580:
	.cfi_offset 5, -28
	std r7, r6, sp[2]
.Ltmp581:
	.cfi_offset 6, -24
.Ltmp582:
	.cfi_offset 7, -20
	std r9, r8, sp[3]
.Ltmp583:
	.cfi_offset 8, -16
.Ltmp584:
	.cfi_offset 9, -12
.Ltmp585:
	.cfi_offset 10, -8
	{
		mov r7, r3
		stw r10, sp[8]
	}
.Ltmp586:
	{
		mov r8, r2
		mov r5, r1
	}
.Ltmp587:
	{
		mov r6, r0
		mkmsk r0, 1
	}
.Ltmp588:
	bf r5, .LBB15_14
.Ltmp589:
	{
		or r1, r8, r7
		nop
	}
	bf r1, .LBB15_14
.Ltmp590:
	{
		ldc r9, 0
		mov r0, r8
	}
	.loc	4 1120 3 prologue_end
.Ltmp591:
	{
		mov r1, r7
		mov r2, r5
	}
	{
		mov r3, r9
		nop
	}
	bl __udivdi3
	{
		mov r10, r0
		mov r4, r1
	}
	.loc	4 1122 7
.Ltmp592:
	{
		mov r0, r8
		mov r1, r7
	}
	{
		mov r2, r5
		mov r3, r9
	}
	bl __umoddi3
	.loc	4 1122 7
	{
		or r0, r0, r1
		nop
	}
	{
		eq r0, r0, 0
		nop
	}
	{
		eq r0, r0, 0
		nop
	}
	.loc	4 1122 7
	ladd r0, r10, r0, r10, r9
	{
		add r4, r4, r0
		nop
	}
	bt r4, .LBB15_4
.Ltmp593:
	ldc r0, 32769
	.loc	4 1126 7
.Ltmp594:
	{
		lsu r9, r10, r0
		nop
	}
.Ltmp595:
.LBB15_4:
	bt r9, .LBB15_6
.Ltmp596:
	{
		mkmsk r0, 4
		nop
	}
	.loc	4 1129 4
.Ltmp597:
	{
		shr r0, r8, r0
		ldc r1, 17
	}
	{
		shl r1, r7, r1
		nop
	}
	{
		or r5, r0, r1
		ldc r4, 0
	}
	ldc r10, 32768
.Ltmp598:
.LBB15_6:
	{
		nop
		ldw r7, r6[4]
	}
.Ltmp599:
	.loc	4 1134 8
	{
		add r1, r7, r10
		mov r0, r6
	}
	.loc	4 1134 8
	bl FLAC__metadata_object_seektable_resize_points
	.loc	4 1134 8
	bf r0, .LBB15_7
.Ltmp600:
	.loc	4 1138 3
	{
		or r1, r10, r4
		mkmsk r0, 1
	}
	bf r1, .LBB15_14
.Ltmp601:
	.loc	4 1139 4
	{
		ldc r1, 24
		ldw r0, r6[5]
	}
	mul r1, r7, r1
	{
		add r8, r0, r1
		ldc r1, 0
	}
	{
		mkmsk r0, 1
		nop
	}
	{
		mov r2, r0
		mov r3, r1
	}
	{
		mov r11, r1
		nop
	}
.Ltmp602:
.LBB15_10:
	.loc	4 1139 4
	std r11, r3, r8[0]
	{
		add r6, r8, 8
		nop
	}
	.loc	4 1140 4
	std r1, r1, r6[0]
	{
		nop
		stw r1, r8[4]
	}
.Ltmp603:
	.loc	4 1138 24
	ladd r7, r3, r3, r5, r1
	.loc	4 1138 3
	bt r4, .LBB15_11
	{
		lsu r6, r2, r10
		nop
	}
	bu .LBB15_13
.LBB15_11:
	{
		eq r6, r4, 0
		nop
	}
	{
		eq r6, r6, 0
		nop
	}
.LBB15_13:
	.loc	4 1138 24
	{
		add r11, r11, r7
		add r2, r2, 1
	}
	.loc	4 1138 3
	ldaw r8, r8[6]
	bt r6, .LBB15_10
	bu .LBB15_14
.Ltmp604:
.LBB15_7:
	{
		ldc r0, 0
		nop
	}
.LBB15_14:
	{
		nop
		ldw r10, sp[8]
	}
	.loc	4 1146 1
	ldd r9, r8, sp[3]
	ldd r7, r6, sp[2]
	ldd r5, r4, sp[1]
	{
		nop
		retsp 10
	}
	# RETURN_REG_HOLDER
.Ltmp605:
	.cc_bottom FLAC__metadata_object_seektable_template_append_spaced_points_by_samples.function
	.set	FLAC__metadata_object_seektable_template_append_spaced_points_by_samples.nstackwords,((__udivdi3.nstackwords $M __umoddi3.nstackwords $M FLAC__metadata_object_seektable_resize_points.nstackwords) + 10)
	.globl	FLAC__metadata_object_seektable_template_append_spaced_points_by_samples.nstackwords
	.set	FLAC__metadata_object_seektable_template_append_spaced_points_by_samples.maxcores,FLAC__metadata_object_seektable_resize_points.maxcores $M 1
	.globl	FLAC__metadata_object_seektable_template_append_spaced_points_by_samples.maxcores
	.set	FLAC__metadata_object_seektable_template_append_spaced_points_by_samples.maxtimers,FLAC__metadata_object_seektable_resize_points.maxtimers $M 0
	.globl	FLAC__metadata_object_seektable_template_append_spaced_points_by_samples.maxtimers
	.set	FLAC__metadata_object_seektable_template_append_spaced_points_by_samples.maxchanends,FLAC__metadata_object_seektable_resize_points.maxchanends $M 0
	.globl	FLAC__metadata_object_seektable_template_append_spaced_points_by_samples.maxchanends
.Ltmp606:
	.size	FLAC__metadata_object_seektable_template_append_spaced_points_by_samples, .Ltmp606-FLAC__metadata_object_seektable_template_append_spaced_points_by_samples
.Lfunc_end15:
	.cfi_endproc

	.globl	FLAC__metadata_object_seektable_template_sort
	.align	4
	.type	FLAC__metadata_object_seektable_template_sort,@function
	.cc_top FLAC__metadata_object_seektable_template_sort.function,FLAC__metadata_object_seektable_template_sort
FLAC__metadata_object_seektable_template_sort:
.Lfunc_begin16:
	.loc	4 1149 0
	.cfi_startproc
	.issue_mode dual
	{
		nop
		dualentsp 4
	}
.Ltmp607:
	.cfi_def_cfa_offset 16
.Ltmp608:
	.cfi_offset 15, 0
	std r5, r4, sp[1]
.Ltmp609:
	.cfi_offset 4, -8
.Ltmp610:
	.cfi_offset 5, -4
.Ltmp611:
	{
		mov r5, r1
		mov r4, r0
	}
.Ltmp612:
	.loc	4 1155 11 prologue_end
	ldaw r0, r4[4]
	.loc	4 1155 11
	bl FLAC__format_seektable_sort
	{
		mov r1, r0
		nop
	}
.Ltmp613:
	.loc	4 1157 2
	bf r5, .LBB16_1
.Ltmp614:
	.loc	4 1157 21
	{
		mov r0, r4
		nop
	}
	bl FLAC__metadata_object_seektable_resize_points
.Ltmp615:
	.loc	4 1157 21
	{
		eq r0, r0, 0
		nop
	}
	{
		eq r0, r0, 0
		nop
	}
	bu .LBB16_3
.Ltmp616:
.LBB16_1:
	{
		mkmsk r0, 1
		nop
	}
.LBB16_3:
	.loc	4 1157 21
	ldd r5, r4, sp[1]
	{
		nop
		retsp 4
	}
	# RETURN_REG_HOLDER
.Ltmp617:
	.cc_bottom FLAC__metadata_object_seektable_template_sort.function
	.set	FLAC__metadata_object_seektable_template_sort.nstackwords,((FLAC__format_seektable_sort.nstackwords $M FLAC__metadata_object_seektable_resize_points.nstackwords) + 4)
	.globl	FLAC__metadata_object_seektable_template_sort.nstackwords
	.set	FLAC__metadata_object_seektable_template_sort.maxcores,FLAC__format_seektable_sort.maxcores $M FLAC__metadata_object_seektable_resize_points.maxcores $M 1
	.globl	FLAC__metadata_object_seektable_template_sort.maxcores
	.set	FLAC__metadata_object_seektable_template_sort.maxtimers,FLAC__format_seektable_sort.maxtimers $M FLAC__metadata_object_seektable_resize_points.maxtimers $M 0
	.globl	FLAC__metadata_object_seektable_template_sort.maxtimers
	.set	FLAC__metadata_object_seektable_template_sort.maxchanends,FLAC__format_seektable_sort.maxchanends $M FLAC__metadata_object_seektable_resize_points.maxchanends $M 0
	.globl	FLAC__metadata_object_seektable_template_sort.maxchanends
.Ltmp618:
	.size	FLAC__metadata_object_seektable_template_sort, .Ltmp618-FLAC__metadata_object_seektable_template_sort
.Lfunc_end16:
	.cfi_endproc

	.globl	FLAC__metadata_object_vorbiscomment_set_vendor_string
	.align	4
	.type	FLAC__metadata_object_vorbiscomment_set_vendor_string,@function
	.cc_top FLAC__metadata_object_vorbiscomment_set_vendor_string.function,FLAC__metadata_object_vorbiscomment_set_vendor_string
FLAC__metadata_object_vorbiscomment_set_vendor_string:
.Lfunc_begin17:
	.loc	4 1161 0
	.cfi_startproc
	.issue_mode dual
	{
		nop
		dualentsp 6
	}
.Ltmp619:
	.cfi_def_cfa_offset 24
.Ltmp620:
	.cfi_offset 15, 0
	std r5, r4, sp[2]
.Ltmp621:
	.cfi_offset 4, -8
.Ltmp622:
	.cfi_offset 5, -4
.Ltmp623:
	{
		mov r4, r2
		mov r5, r0
	}
.Ltmp624:
	{
		nop
		ldw r0, r1[1]
	}
	{
		nop
		stw r0, sp[3]
	}
	{
		nop
		ldw r0, r1[0]
	}
	{
		nop
		stw r0, sp[2]
	}
	{
		nop
		ldw r0, sp[3]
	}
	{
		nop
		ldw r1, sp[2]
	}
	.loc	4 1162 7 prologue_end
.Ltmp625:
	bl FLAC__format_vorbiscomment_entry_value_is_legal
	.loc	4 1162 7
	bf r0, .LBB17_1
.Ltmp626:
	{
		ldaw r2, sp[2]
		nop
	}
	.loc	4 1164 9
	ldaw r1, r5[4]
	.loc	4 1164 9
	{
		mov r0, r5
		mov r3, r4
	}
	bl vorbiscomment_set_entry_
	bu .LBB17_3
.Ltmp627:
.LBB17_1:
	{
		ldc r0, 0
		nop
	}
.Ltmp628:
.LBB17_3:
	.loc	4 1165 1
	ldd r5, r4, sp[2]
	{
		nop
		retsp 6
	}
.Ltmp629:
	# RETURN_REG_HOLDER
.Ltmp630:
	.cc_bottom FLAC__metadata_object_vorbiscomment_set_vendor_string.function
	.set	FLAC__metadata_object_vorbiscomment_set_vendor_string.nstackwords,((FLAC__format_vorbiscomment_entry_value_is_legal.nstackwords $M vorbiscomment_set_entry_.nstackwords) + 6)
	.globl	FLAC__metadata_object_vorbiscomment_set_vendor_string.nstackwords
	.set	FLAC__metadata_object_vorbiscomment_set_vendor_string.maxcores,FLAC__format_vorbiscomment_entry_value_is_legal.maxcores $M vorbiscomment_set_entry_.maxcores $M 1
	.globl	FLAC__metadata_object_vorbiscomment_set_vendor_string.maxcores
	.set	FLAC__metadata_object_vorbiscomment_set_vendor_string.maxtimers,FLAC__format_vorbiscomment_entry_value_is_legal.maxtimers $M vorbiscomment_set_entry_.maxtimers $M 0
	.globl	FLAC__metadata_object_vorbiscomment_set_vendor_string.maxtimers
	.set	FLAC__metadata_object_vorbiscomment_set_vendor_string.maxchanends,FLAC__format_vorbiscomment_entry_value_is_legal.maxchanends $M vorbiscomment_set_entry_.maxchanends $M 0
	.globl	FLAC__metadata_object_vorbiscomment_set_vendor_string.maxchanends
.Ltmp631:
	.size	FLAC__metadata_object_vorbiscomment_set_vendor_string, .Ltmp631-FLAC__metadata_object_vorbiscomment_set_vendor_string
.Lfunc_end17:
	.cfi_endproc

	.align	4
	.type	vorbiscomment_set_entry_,@function
	.cc_top vorbiscomment_set_entry_.function,vorbiscomment_set_entry_
vorbiscomment_set_entry_:
.Lfunc_begin18:
	.loc	4 251 0
	.cfi_startproc
	.issue_mode dual
	{
		nop
		dualentsp 10
	}
.Ltmp632:
	.cfi_def_cfa_offset 40
.Ltmp633:
	.cfi_offset 15, 0
	std r5, r4, sp[1]
.Ltmp634:
	.cfi_offset 4, -32
.Ltmp635:
	.cfi_offset 5, -28
	std r7, r6, sp[2]
.Ltmp636:
	.cfi_offset 6, -24
.Ltmp637:
	.cfi_offset 7, -20
	std r9, r8, sp[3]
.Ltmp638:
	.cfi_offset 8, -16
.Ltmp639:
	.cfi_offset 9, -12
.Ltmp640:
	.cfi_offset 10, -8
.Ltmp641:
	{
		mov r9, r2
		stw r10, sp[8]
	}
.Ltmp642:
	{
		mov r6, r1
		mov r4, r0
	}
.Ltmp643:
	{
		nop
		ldw r5, r6[1]
	}
.Ltmp644:
	{
		nop
		ldw r8, r9[1]
	}
	.loc	4 262 6 prologue_end
.Ltmp645:
	bf r8, .LBB18_8
.Ltmp646:
	{
		nop
		ldw r10, r9[0]
	}
.Ltmp647:
	.loc	4 263 7
	bf r3, .LBB18_5
.Ltmp648:
	{
		nop
		stw r10, r6[0]
	}
	{
		nop
		ldw r9, r9[0]
	}
.Ltmp649:
	.loc	5 128 2
	{
		add r0, r9, 1
		nop
	}
	{
		lsu r1, r0, r9
		ldc r7, 0
	}
	bt r1, .LBB18_13
.Ltmp650:
	.loc	5 93 5
	{
		eq r1, r0, 0
		nop
	}
	.loc	5 93 5
	{
		add r0, r1, r0
		nop
	}
.Ltmp651:
	.loc	5 95 9
	bl malloc
	{
		mov r10, r0
		nop
	}
.Ltmp652:
	bf r10, .LBB18_13
.Ltmp653:
	.loc	4 141 3
	{
		mov r0, r10
		mov r1, r8
	}
	{
		mov r2, r9
		nop
	}
	bl memcpy
	{
		ldc r0, 0
		nop
	}
	.loc	4 142 3
	st8 r0, r10[r9]
	{
		nop
		stw r10, r6[1]
	}
	bu .LBB18_9
.Ltmp654:
.LBB18_8:
	{
		nop
		ldw r0, r9[0]
	}
	{
		nop
		ldw r1, r9[1]
	}
	{
		nop
		stw r1, r6[1]
	}
	{
		nop
		stw r0, r6[0]
	}
	bu .LBB18_9
.Ltmp655:
.LBB18_5:
	.loc	5 227 2
	{
		add r1, r10, 1
		nop
	}
	{
		lsu r0, r1, r10
		ldc r7, 0
	}
	bt r0, .LBB18_13
.Ltmp656:
	.loc	5 230 9
	{
		mov r0, r8
		nop
	}
	bl realloc
.Ltmp657:
	bf r0, .LBB18_13
.Ltmp658:
	{
		ldc r1, 0
		nop
	}
	.loc	4 103 3
.Ltmp659:
	st8 r1, r0[r10]
	{
		nop
		stw r0, r9[1]
	}
	{
		nop
		ldw r1, r9[0]
	}
	{
		nop
		stw r0, r6[1]
	}
	{
		nop
		stw r1, r6[0]
	}
.Ltmp660:
.LBB18_9:
	.loc	4 289 2
	{
		mov r0, r5
		nop
	}
	bl free
.Ltmp661:
	.loc	4 199 2
	ldw r0, cp[FLAC__STREAM_METADATA_VORBIS_COMMENT_ENTRY_LENGTH_LEN]
	.loc	4 199 2
	{
		shr r0, r0, 3
		ldw r1, r4[4]
	}
	.loc	4 200 2
	{
		add r1, r0, r1
		nop
	}
	.loc	4 201 2
	ldw r2, cp[FLAC__STREAM_METADATA_VORBIS_COMMENT_NUM_COMMENTS_LEN]
	.loc	4 201 2
	{
		shr r2, r2, 3
		nop
	}
	.loc	4 201 2
	{
		add r1, r1, r2
		nop
	}
	{
		nop
		stw r1, r4[2]
	}
.Ltmp662:
	.loc	4 202 2
	{
		mkmsk r7, 1
		ldw r2, r4[6]
	}
	bf r2, .LBB18_13
.Ltmp663:
	{
		nop
		ldw r3, r4[7]
	}
.Ltmp664:
.LBB18_11:
	.loc	4 203 3
	{
		add r1, r1, r0
		ldw r11, r3[0]
	}
	.loc	4 204 3
	{
		add r1, r1, r11
		sub r2, r2, 1
	}
.Ltmp665:
	.loc	4 202 2
	{
		add r3, r3, 8
		nop
	}
	.loc	4 202 2
	bt r2, .LBB18_11
.Ltmp666:
	{
		nop
		stw r1, r4[2]
	}
.Ltmp667:
.LBB18_13:
	.loc	4 293 1
	{
		mov r0, r7
		ldw r10, sp[8]
	}
	ldd r9, r8, sp[3]
	ldd r7, r6, sp[2]
	ldd r5, r4, sp[1]
	{
		nop
		retsp 10
	}
	# RETURN_REG_HOLDER
.Ltmp668:
	.cc_bottom vorbiscomment_set_entry_.function
	.set	vorbiscomment_set_entry_.nstackwords,((free.nstackwords $M realloc.nstackwords $M malloc.nstackwords $M memcpy.nstackwords) + 10)
	.set	vorbiscomment_set_entry_.maxcores,free.maxcores $M malloc.maxcores $M realloc.maxcores $M 1
	.set	vorbiscomment_set_entry_.maxtimers,free.maxtimers $M malloc.maxtimers $M realloc.maxtimers $M 0
	.set	vorbiscomment_set_entry_.maxchanends,free.maxchanends $M malloc.maxchanends $M realloc.maxchanends $M 0
.Ltmp669:
	.size	vorbiscomment_set_entry_, .Ltmp669-vorbiscomment_set_entry_
.Lfunc_end18:
	.cfi_endproc

	.globl	FLAC__metadata_object_vorbiscomment_resize_comments
	.align	4
	.type	FLAC__metadata_object_vorbiscomment_resize_comments,@function
	.cc_top FLAC__metadata_object_vorbiscomment_resize_comments.function,FLAC__metadata_object_vorbiscomment_resize_comments
FLAC__metadata_object_vorbiscomment_resize_comments:
.Lfunc_begin19:
	.loc	4 1168 0
	.cfi_startproc
	.issue_mode dual
	{
		nop
		dualentsp 10
	}
.Ltmp670:
	.cfi_def_cfa_offset 40
.Ltmp671:
	.cfi_offset 15, 0
	std r5, r4, sp[1]
.Ltmp672:
	.cfi_offset 4, -32
.Ltmp673:
	.cfi_offset 5, -28
	std r7, r6, sp[2]
.Ltmp674:
	.cfi_offset 6, -24
.Ltmp675:
	.cfi_offset 7, -20
	std r9, r8, sp[3]
.Ltmp676:
	.cfi_offset 8, -16
.Ltmp677:
	.cfi_offset 9, -12
.Ltmp678:
	.cfi_offset 10, -8
.Ltmp679:
	{
		mov r5, r1
		stw r10, sp[8]
	}
.Ltmp680:
	{
		mov r4, r0
		nop
	}
.Ltmp681:
	{
		nop
		ldw r0, r4[7]
	}
	.loc	4 1172 6 prologue_end
.Ltmp682:
	bf r0, .LBB19_1
.Ltmp683:
	{
		ldc r1, 29
		nop
	}
	.loc	4 1195 7
.Ltmp684:
	{
		shr r1, r5, r1
		ldc r6, 0
	}
	bt r1, .LBB19_26
.Ltmp685:
	.loc	4 1191 3
	{
		shl r8, r5, 3
		ldw r7, r4[6]
	}
.Ltmp686:
	.loc	4 1201 7
	{
		lsu r1, r5, r7
		nop
	}
	bf r1, .LBB19_14
.Ltmp687:
	{
		ldc r1, 4
		nop
	}
	.loc	4 1204 9
.Ltmp688:
	{
		or r9, r8, r1
		mov r1, r7
	}
	{
		mov r10, r5
		nop
	}
.Ltmp689:
.LBB19_11:
	{
		add r0, r0, r9
		nop
	}
	{
		nop
		ldw r0, r0[0]
	}
	bf r0, .LBB19_13
.Ltmp690:
	.loc	4 1205 6
	bl free
	{
		nop
		ldw r1, r4[6]
	}
.Ltmp691:
.LBB19_13:
	.loc	4 1203 77
	{
		add r10, r10, 1
		ldw r0, r4[7]
	}
.Ltmp692:
	.loc	4 1203 4
	{
		add r9, r9, 8
		lsu r2, r10, r1
	}
	bt r2, .LBB19_11
.Ltmp693:
.LBB19_14:
	.loc	4 1191 3
	{
		shl r9, r7, 3
		nop
	}
.Ltmp694:
	.loc	4 1208 7
	bf r8, .LBB19_15
.Ltmp695:
	.loc	4 1215 18
	{
		mov r1, r8
		nop
	}
	bl realloc
	{
		mov r7, r0
		nop
	}
	bt r7, .LBB19_17
	bu .LBB19_26
.Ltmp696:
.LBB19_1:
	.loc	4 1174 7
	bf r5, .LBB19_2
.Ltmp697:
	{
		ldc r1, 8
		mov r0, r5
	}
	.loc	5 121 9
.Ltmp698:
	bl calloc
	{
		mov r7, r0
		nop
	}
.Ltmp699:
	.loc	4 1178 48
	{
		ldc r9, 0
		stw r7, r4[7]
	}
	.loc	4 1178 48
	bf r7, .LBB19_4
.Ltmp700:
	{
		ldc r6, 0
		mkmsk r8, 1
	}
	{
		mov r10, r7
		nop
	}
.Ltmp701:
.LBB19_6:
	.loc	4 1181 5
	{
		mov r0, r8
		stw r6, r10[0]
	}
	.loc	5 95 9
.Ltmp702:
	bl malloc
	{
		nop
		stw r0, r10[1]
	}
.Ltmp703:
	.loc	4 1182 58
	bf r0, .LBB19_7
.Ltmp704:
	.loc	4 1186 5
	st8 r6, r0[r6]
.Ltmp705:
	.loc	4 1180 38
	{
		add r9, r9, 1
		add r10, r10, 8
	}
.Ltmp706:
	.loc	4 1180 4
	{
		lsu r0, r9, r5
		nop
	}
	bt r0, .LBB19_6
	bu .LBB19_23
.Ltmp707:
.LBB19_2:
	{
		mkmsk r6, 1
		nop
	}
	bu .LBB19_26
.LBB19_15:
.Ltmp708:
	.loc	4 1209 4
	bl free
	{
		ldc r7, 0
		nop
	}
.Ltmp709:
.LBB19_17:
	.loc	4 1210 4
	{
		lsu r0, r9, r8
		stw r7, r4[7]
	}
	bf r0, .LBB19_23
.Ltmp710:
	{
		nop
		ldw r9, r4[6]
	}
.Ltmp711:
	.loc	4 1223 4
	{
		lsu r0, r9, r5
		nop
	}
	bf r0, .LBB19_23
.Ltmp712:
	{
		shl r0, r9, 3
		nop
	}
	{
		add r10, r7, r0
		ldc r6, 0
	}
	{
		mkmsk r8, 1
		nop
	}
.Ltmp713:
.LBB19_20:
	.loc	4 1224 5
	{
		mov r0, r8
		stw r6, r10[0]
	}
	.loc	5 95 9
.Ltmp714:
	bl malloc
	{
		nop
		stw r0, r10[1]
	}
	bf r0, .LBB19_7
.Ltmp715:
	.loc	4 1229 5
	st8 r6, r0[r6]
.Ltmp716:
	.loc	4 1223 77
	{
		add r9, r9, 1
		add r10, r10, 8
	}
.Ltmp717:
	.loc	4 1223 4
	{
		lsu r0, r9, r5
		nop
	}
	bt r0, .LBB19_20
.Ltmp718:
.LBB19_23:
	{
		nop
		stw r5, r4[6]
	}
	.loc	4 199 2
.Ltmp719:
	ldw r0, cp[FLAC__STREAM_METADATA_VORBIS_COMMENT_ENTRY_LENGTH_LEN]
	.loc	4 199 2
	{
		shr r0, r0, 3
		ldw r1, r4[4]
	}
	.loc	4 200 2
	{
		add r1, r0, r1
		nop
	}
	.loc	4 201 2
	ldw r2, cp[FLAC__STREAM_METADATA_VORBIS_COMMENT_NUM_COMMENTS_LEN]
	.loc	4 201 2
	{
		shr r2, r2, 3
		nop
	}
	.loc	4 201 2
	{
		add r1, r1, r2
		nop
	}
.Ltmp720:
	.loc	4 201 2
	{
		mkmsk r6, 1
		stw r1, r4[2]
	}
	bf r5, .LBB19_26
.Ltmp721:
.LBB19_24:
	.loc	4 203 3
	{
		add r1, r1, r0
		ldw r2, r7[0]
	}
	.loc	4 204 3
	{
		add r1, r1, r2
		sub r5, r5, 1
	}
.Ltmp722:
	.loc	4 202 2
	{
		add r7, r7, 8
		nop
	}
	.loc	4 202 2
	bt r5, .LBB19_24
.Ltmp723:
	{
		nop
		stw r1, r4[2]
	}
	bu .LBB19_26
.Ltmp724:
.LBB19_7:
	.loc	4 1183 6
	{
		add r0, r9, 1
		nop
	}
	{
		nop
		stw r0, r4[6]
	}
	bu .LBB19_26
.Ltmp725:
.LBB19_4:
	{
		mov r6, r9
		nop
	}
.LBB19_26:
	.loc	4 1238 1
	{
		mov r0, r6
		ldw r10, sp[8]
	}
	ldd r9, r8, sp[3]
	ldd r7, r6, sp[2]
	ldd r5, r4, sp[1]
	{
		nop
		retsp 10
	}
	# RETURN_REG_HOLDER
.Ltmp726:
	.cc_bottom FLAC__metadata_object_vorbiscomment_resize_comments.function
	.set	FLAC__metadata_object_vorbiscomment_resize_comments.nstackwords,((calloc.nstackwords $M malloc.nstackwords $M realloc.nstackwords $M free.nstackwords) + 10)
	.globl	FLAC__metadata_object_vorbiscomment_resize_comments.nstackwords
	.set	FLAC__metadata_object_vorbiscomment_resize_comments.maxcores,calloc.maxcores $M free.maxcores $M malloc.maxcores $M realloc.maxcores $M 1
	.globl	FLAC__metadata_object_vorbiscomment_resize_comments.maxcores
	.set	FLAC__metadata_object_vorbiscomment_resize_comments.maxtimers,calloc.maxtimers $M free.maxtimers $M malloc.maxtimers $M realloc.maxtimers $M 0
	.globl	FLAC__metadata_object_vorbiscomment_resize_comments.maxtimers
	.set	FLAC__metadata_object_vorbiscomment_resize_comments.maxchanends,calloc.maxchanends $M free.maxchanends $M malloc.maxchanends $M realloc.maxchanends $M 0
	.globl	FLAC__metadata_object_vorbiscomment_resize_comments.maxchanends
.Ltmp727:
	.size	FLAC__metadata_object_vorbiscomment_resize_comments, .Ltmp727-FLAC__metadata_object_vorbiscomment_resize_comments
.Lfunc_end19:
	.cfi_endproc

	.globl	FLAC__metadata_object_vorbiscomment_set_comment
	.align	4
	.type	FLAC__metadata_object_vorbiscomment_set_comment,@function
	.cc_top FLAC__metadata_object_vorbiscomment_set_comment.function,FLAC__metadata_object_vorbiscomment_set_comment
FLAC__metadata_object_vorbiscomment_set_comment:
.Lfunc_begin20:
	.loc	4 1241 0
	.cfi_startproc
	.issue_mode dual
	{
		nop
		dualentsp 8
	}
.Ltmp728:
	.cfi_def_cfa_offset 32
.Ltmp729:
	.cfi_offset 15, 0
	std r5, r4, sp[2]
.Ltmp730:
	.cfi_offset 4, -16
.Ltmp731:
	.cfi_offset 5, -12
.Ltmp732:
	.cfi_offset 6, -8
.Ltmp733:
	{
		mov r4, r3
		stw r6, sp[6]
	}
.Ltmp734:
	{
		mov r6, r1
		mov r5, r0
	}
.Ltmp735:
	{
		nop
		ldw r0, r2[1]
	}
	{
		nop
		stw r0, sp[3]
	}
	{
		nop
		ldw r0, r2[0]
	}
	{
		nop
		stw r0, sp[2]
	}
	{
		nop
		ldw r0, sp[3]
	}
	{
		nop
		ldw r1, sp[2]
	}
	.loc	4 1245 7 prologue_end
.Ltmp736:
	bl FLAC__format_vorbiscomment_entry_is_legal
	.loc	4 1245 7
	bf r0, .LBB20_1
.Ltmp737:
	{
		ldaw r2, sp[2]
		ldw r0, r5[7]
	}
	.loc	4 1247 9
	{
		shl r1, r6, 3
		nop
	}
	{
		add r1, r0, r1
		mov r0, r5
	}
	.loc	4 1247 9
	{
		mov r3, r4
		nop
	}
	bl vorbiscomment_set_entry_
	bu .LBB20_3
.Ltmp738:
.LBB20_1:
	{
		ldc r0, 0
		nop
	}
.Ltmp739:
.LBB20_3:
	{
		nop
		ldw r6, sp[6]
	}
	.loc	4 1248 1
	ldd r5, r4, sp[2]
	{
		nop
		retsp 8
	}
.Ltmp740:
	# RETURN_REG_HOLDER
.Ltmp741:
	.cc_bottom FLAC__metadata_object_vorbiscomment_set_comment.function
	.set	FLAC__metadata_object_vorbiscomment_set_comment.nstackwords,((FLAC__format_vorbiscomment_entry_is_legal.nstackwords $M vorbiscomment_set_entry_.nstackwords) + 8)
	.globl	FLAC__metadata_object_vorbiscomment_set_comment.nstackwords
	.set	FLAC__metadata_object_vorbiscomment_set_comment.maxcores,FLAC__format_vorbiscomment_entry_is_legal.maxcores $M vorbiscomment_set_entry_.maxcores $M 1
	.globl	FLAC__metadata_object_vorbiscomment_set_comment.maxcores
	.set	FLAC__metadata_object_vorbiscomment_set_comment.maxtimers,FLAC__format_vorbiscomment_entry_is_legal.maxtimers $M vorbiscomment_set_entry_.maxtimers $M 0
	.globl	FLAC__metadata_object_vorbiscomment_set_comment.maxtimers
	.set	FLAC__metadata_object_vorbiscomment_set_comment.maxchanends,FLAC__format_vorbiscomment_entry_is_legal.maxchanends $M vorbiscomment_set_entry_.maxchanends $M 0
	.globl	FLAC__metadata_object_vorbiscomment_set_comment.maxchanends
.Ltmp742:
	.size	FLAC__metadata_object_vorbiscomment_set_comment, .Ltmp742-FLAC__metadata_object_vorbiscomment_set_comment
.Lfunc_end20:
	.cfi_endproc

	.section	.cp.rodata.cst4,"aMc",@progbits,4
	.cc_top .LCPI21_0.data,.LCPI21_0
	.align	4
	.type	.LCPI21_0,@object
	.size	.LCPI21_0, 4
.LCPI21_0:
	.long	536870911
	.cc_bottom .LCPI21_0.data
	.text
	.globl	FLAC__metadata_object_vorbiscomment_insert_comment
	.align	4
	.type	FLAC__metadata_object_vorbiscomment_insert_comment,@function
	.cc_top FLAC__metadata_object_vorbiscomment_insert_comment.function,FLAC__metadata_object_vorbiscomment_insert_comment
FLAC__metadata_object_vorbiscomment_insert_comment:
.Lfunc_begin21:
	.loc	4 1251 0
	.cfi_startproc
	.issue_mode dual
	{
		nop
		dualentsp 14
	}
.Ltmp743:
	.cfi_def_cfa_offset 56
.Ltmp744:
	.cfi_offset 15, 0
	std r5, r4, sp[3]
.Ltmp745:
	.cfi_offset 4, -32
.Ltmp746:
	.cfi_offset 5, -28
	std r7, r6, sp[4]
.Ltmp747:
	.cfi_offset 6, -24
.Ltmp748:
	.cfi_offset 7, -20
	std r9, r8, sp[5]
.Ltmp749:
	.cfi_offset 8, -16
.Ltmp750:
	.cfi_offset 9, -12
.Ltmp751:
	.cfi_offset 10, -8
.Ltmp752:
	{
		mov r4, r3
		stw r10, sp[12]
	}
.Ltmp753:
	{
		mov r6, r1
		mov r5, r0
	}
.Ltmp754:
	{
		nop
		ldw r0, r2[1]
	}
	{
		nop
		stw r0, sp[3]
	}
	{
		nop
		ldw r0, r2[0]
	}
	{
		nop
		stw r0, sp[2]
	}
	{
		nop
		ldw r0, sp[3]
	}
	{
		nop
		ldw r1, sp[2]
	}
	.loc	4 1259 7 prologue_end
.Ltmp755:
	bl FLAC__format_vorbiscomment_entry_is_legal
	{
		ldc r7, 0
		nop
	}
	bf r0, .LBB21_5
.Ltmp756:
	{
		nop
		ldw r0, r5[6]
	}
	.loc	4 1264 7
.Ltmp757:
	{
		add r1, r0, 1
		mov r0, r5
	}
	.loc	4 1264 7
	bl FLAC__metadata_object_vorbiscomment_resize_comments
	bf r0, .LBB21_5
.Ltmp758:
	{
		ldaw r7, sp[2]
		ldw r2, r5[6]
	}
	.loc	4 1269 2
	{
		shl r0, r2, 3
		ldw r1, r5[7]
	}
	.loc	4 1269 2
	{
		add r0, r0, r1
		nop
	}
	.loc	4 1269 2
	{
		sub r3, r0, 8
		nop
	}
	.loc	4 1269 2
	{
		sub r0, r0, 4
		ldw r9, r3[0]
	}
	{
		shl r8, r6, 3
		ldw r10, r0[0]
	}
	.loc	4 1270 2
	{
		add r1, r1, r8
		nop
	}
	.loc	4 1270 2
	{
		add r0, r1, 8
		nop
	}
	ldw r3, cp[.LCPI21_0]
	.loc	4 1270 2
	{
		sub r3, r3, r6
		nop
	}
	.loc	4 1270 2
	{
		add r2, r3, r2
		nop
	}
	.loc	4 1270 2
	{
		shl r2, r2, 3
		nop
	}
	.loc	4 1270 2
	bl memmove
	{
		nop
		ldw r0, r5[7]
	}
	.loc	4 1271 2
	{
		add r0, r0, r8
		nop
	}
	{
		nop
		stw r10, r0[1]
	}
	.loc	4 1271 2
	{
		add r0, r7, 4
		stw r9, r0[0]
	}
	.loc	4 1240 91
.Ltmp759:
	bl __misaligned_load
	{
		mov r6, r0
		mov r0, r7
	}
.Ltmp760:
	bl __misaligned_load
	{
		mov r1, r0
		nop
	}
	.loc	4 1240 91
	std r6, r1, sp[2]
.Ltmp761:
	.loc	4 1245 7
	{
		mov r0, r6
		nop
	}
	bl FLAC__format_vorbiscomment_entry_is_legal
	.loc	4 1245 7
	bf r0, .LBB21_3
.Ltmp762:
	{
		nop
		ldw r0, r5[7]
	}
.Ltmp763:
	.loc	4 1247 9
	{
		add r1, r0, r8
		ldaw r2, sp[4]
	}
	.loc	4 1247 9
	{
		mov r0, r5
		mov r3, r4
	}
	bl vorbiscomment_set_entry_
	{
		mov r7, r0
		nop
	}
	bu .LBB21_5
.Ltmp764:
.LBB21_3:
	{
		ldc r7, 0
		nop
	}
.Ltmp765:
.LBB21_5:
	.loc	4 1274 1
	{
		mov r0, r7
		ldw r10, sp[12]
	}
	ldd r9, r8, sp[5]
	ldd r7, r6, sp[4]
	ldd r5, r4, sp[3]
	{
		nop
		retsp 14
	}
.Ltmp766:
	# RETURN_REG_HOLDER
.Ltmp767:
	.cc_bottom FLAC__metadata_object_vorbiscomment_insert_comment.function
	.set	FLAC__metadata_object_vorbiscomment_insert_comment.nstackwords,((FLAC__metadata_object_vorbiscomment_resize_comments.nstackwords $M memmove.nstackwords $M __misaligned_load.nstackwords $M FLAC__format_vorbiscomment_entry_is_legal.nstackwords $M vorbiscomment_set_entry_.nstackwords) + 14)
	.globl	FLAC__metadata_object_vorbiscomment_insert_comment.nstackwords
	.set	FLAC__metadata_object_vorbiscomment_insert_comment.maxcores,FLAC__format_vorbiscomment_entry_is_legal.maxcores $M FLAC__metadata_object_vorbiscomment_resize_comments.maxcores $M vorbiscomment_set_entry_.maxcores $M 1
	.globl	FLAC__metadata_object_vorbiscomment_insert_comment.maxcores
	.set	FLAC__metadata_object_vorbiscomment_insert_comment.maxtimers,FLAC__format_vorbiscomment_entry_is_legal.maxtimers $M FLAC__metadata_object_vorbiscomment_resize_comments.maxtimers $M vorbiscomment_set_entry_.maxtimers $M 0
	.globl	FLAC__metadata_object_vorbiscomment_insert_comment.maxtimers
	.set	FLAC__metadata_object_vorbiscomment_insert_comment.maxchanends,FLAC__format_vorbiscomment_entry_is_legal.maxchanends $M FLAC__metadata_object_vorbiscomment_resize_comments.maxchanends $M vorbiscomment_set_entry_.maxchanends $M 0
	.globl	FLAC__metadata_object_vorbiscomment_insert_comment.maxchanends
.Ltmp768:
	.size	FLAC__metadata_object_vorbiscomment_insert_comment, .Ltmp768-FLAC__metadata_object_vorbiscomment_insert_comment
.Lfunc_end21:
	.cfi_endproc

	.globl	FLAC__metadata_object_vorbiscomment_append_comment
	.align	4
	.type	FLAC__metadata_object_vorbiscomment_append_comment,@function
	.cc_top FLAC__metadata_object_vorbiscomment_append_comment.function,FLAC__metadata_object_vorbiscomment_append_comment
FLAC__metadata_object_vorbiscomment_append_comment:
.Lfunc_begin22:
	.loc	4 1277 0
	.cfi_startproc
	.issue_mode dual
.Ltmp769:
	.cfi_def_cfa_offset 16
.Ltmp770:
	.cfi_offset 15, 0
.Ltmp771:
	{
		mov r3, r2
		dualentsp 4
	}
.Ltmp772:
	{
		nop
		ldw r2, r1[1]
	}
	{
		nop
		stw r2, sp[3]
	}
	{
		nop
		ldw r1, r1[0]
	}
	{
		nop
		stw r1, sp[2]
	}
	.loc	4 1280 9 prologue_end
.Ltmp773:
	{
		ldaw r2, sp[2]
		ldw r1, r0[6]
	}
	.loc	4 1280 9
	bl FLAC__metadata_object_vorbiscomment_insert_comment
.Ltmp774:
	{
		nop
		retsp 4
	}
	.loc	4 1280 9
	# RETURN_REG_HOLDER
.Ltmp775:
	.cc_bottom FLAC__metadata_object_vorbiscomment_append_comment.function
	.set	FLAC__metadata_object_vorbiscomment_append_comment.nstackwords,(FLAC__metadata_object_vorbiscomment_insert_comment.nstackwords + 4)
	.globl	FLAC__metadata_object_vorbiscomment_append_comment.nstackwords
	.set	FLAC__metadata_object_vorbiscomment_append_comment.maxcores,FLAC__metadata_object_vorbiscomment_insert_comment.maxcores $M 1
	.globl	FLAC__metadata_object_vorbiscomment_append_comment.maxcores
	.set	FLAC__metadata_object_vorbiscomment_append_comment.maxtimers,FLAC__metadata_object_vorbiscomment_insert_comment.maxtimers $M 0
	.globl	FLAC__metadata_object_vorbiscomment_append_comment.maxtimers
	.set	FLAC__metadata_object_vorbiscomment_append_comment.maxchanends,FLAC__metadata_object_vorbiscomment_insert_comment.maxchanends $M 0
	.globl	FLAC__metadata_object_vorbiscomment_append_comment.maxchanends
.Ltmp776:
	.size	FLAC__metadata_object_vorbiscomment_append_comment, .Ltmp776-FLAC__metadata_object_vorbiscomment_append_comment
.Lfunc_end22:
	.cfi_endproc

	.globl	FLAC__metadata_object_vorbiscomment_replace_comment
	.align	4
	.type	FLAC__metadata_object_vorbiscomment_replace_comment,@function
	.cc_top FLAC__metadata_object_vorbiscomment_replace_comment.function,FLAC__metadata_object_vorbiscomment_replace_comment
FLAC__metadata_object_vorbiscomment_replace_comment:
.Lfunc_begin23:
	.loc	4 1284 0
	.cfi_startproc
	.issue_mode dual
	{
		nop
		dualentsp 16
	}
.Ltmp777:
	.cfi_def_cfa_offset 64
.Ltmp778:
	.cfi_offset 15, 0
	std r5, r4, sp[4]
.Ltmp779:
	.cfi_offset 4, -32
.Ltmp780:
	.cfi_offset 5, -28
	std r7, r6, sp[5]
.Ltmp781:
	.cfi_offset 6, -24
.Ltmp782:
	.cfi_offset 7, -20
	std r9, r8, sp[6]
.Ltmp783:
	.cfi_offset 8, -16
.Ltmp784:
	.cfi_offset 9, -12
.Ltmp785:
	.cfi_offset 10, -8
.Ltmp786:
	{
		mov r7, r3
		stw r10, sp[14]
	}
.Ltmp787:
	{
		mov r8, r2
		mov r5, r0
	}
.Ltmp788:
	{
		nop
		ldw r0, r1[1]
	}
	{
		nop
		stw r0, sp[5]
	}
	{
		nop
		ldw r0, r1[0]
	}
	{
		nop
		stw r0, sp[4]
	}
	{
		nop
		ldw r9, sp[5]
	}
.Ltmp789:
	.loc	4 1287 7 prologue_end
	{
		mov r0, r9
		ldw r4, sp[4]
	}
	.loc	4 1287 7
	{
		mov r1, r4
		nop
	}
	bl FLAC__format_vorbiscomment_entry_is_legal
	{
		ldc r6, 0
		nop
	}
	bf r0, .LBB23_33
.Ltmp790:
	{
		ldc r1, 61
		mov r0, r9
	}
	.loc	4 1293 39
.Ltmp791:
	{
		mov r2, r4
		nop
	}
	bl memchr
.Ltmp792:
	bf r0, .LBB23_33
.Ltmp793:
	{
		nop
		stw r8, sp[1]
	}
.Ltmp794:
	{
		nop
		stw r7, sp[2]
	}
.Ltmp795:
	{
		nop
		ldw r10, r5[6]
	}
	{
		nop
		stw r5, sp[3]
	}
.Ltmp796:
	bf r10, .LBB23_8
.Ltmp797:
	.loc	4 1298 3
	{
		sub r5, r0, r9
		ldw r0, sp[3]
	}
.Ltmp798:
	.loc	4 304 7
	{
		ldc r8, 0
		ldw r7, r0[7]
	}
	{
		ldc r6, 61
		nop
	}
.Ltmp799:
.LBB23_4:
	{
		nop
		ldw r4, r7[1]
	}
	.loc	4 1408 39
.Ltmp800:
	{
		mov r0, r4
		ldw r2, r7[0]
	}
	.loc	4 1408 39
	{
		mov r1, r6
		nop
	}
	bl memchr
.Ltmp801:
	bf r0, .LBB23_7
.Ltmp802:
	.loc	4 1409 3
	{
		sub r0, r0, r4
		nop
	}
.Ltmp803:
	.loc	4 1409 3
	{
		eq r0, r0, r5
		nop
	}
	bf r0, .LBB23_7
.Ltmp804:
	.loc	4 1409 76
	{
		mov r0, r9
		mov r1, r4
	}
	{
		mov r2, r5
		nop
	}
	bl strncasecmp
	bf r0, .LBB23_9
.Ltmp805:
.LBB23_7:
	.loc	4 303 65
	{
		add r8, r8, 1
		add r7, r7, 8
	}
.Ltmp806:
	.loc	4 303 2
	{
		lsu r0, r8, r10
		nop
	}
	bt r0, .LBB23_4
	bu .LBB23_8
.Ltmp807:
.LBB23_9:
	.loc	4 1301 7
	ashr r0, r8, 32
	bt r0, .LBB23_8
.Ltmp808:
	{
		ldaw r6, sp[4]
		nop
	}
	.loc	4 1240 91
.Ltmp809:
	{
		add r0, r6, 4
		nop
	}
	bl __misaligned_load
	{
		mov r4, r0
		mov r0, r6
	}
	bl __misaligned_load
	{
		mov r1, r0
		nop
	}
	.loc	4 1240 91
	std r4, r1, sp[3]
	.loc	4 1245 7
.Ltmp810:
	{
		mov r0, r4
		nop
	}
	bl FLAC__format_vorbiscomment_entry_is_legal
	.loc	4 1245 7
	bf r0, .LBB23_11
.Ltmp811:
	{
		nop
		ldw r7, sp[3]
	}
.Ltmp812:
	.loc	4 1247 9
	{
		shl r4, r8, 3
		ldw r0, r7[7]
	}
.Ltmp813:
	.loc	4 1247 9
	{
		add r1, r0, r4
		ldaw r2, sp[6]
	}
	.loc	4 1247 9
	{
		mov r0, r7
		ldw r3, sp[2]
	}
	bl vorbiscomment_set_entry_
.Ltmp814:
	.loc	4 1303 9
	bf r0, .LBB23_13
.Ltmp815:
	{
		nop
		ldw r2, r7[7]
	}
	.loc	4 1305 4
	{
		add r0, r2, r4
		nop
	}
	{
		nop
		ldw r1, r0[0]
	}
	{
		nop
		ldw r0, r0[1]
	}
	{
		nop
		stw r0, sp[2]
	}
	{
		nop
		stw r0, r6[1]
	}
	.loc	4 1305 4
	{
		mkmsk r6, 1
		stw r1, r6[0]
	}
	{
		nop
		ldw r0, sp[1]
	}
	bf r0, .LBB23_33
.Ltmp816:
	.loc	4 1306 4
	{
		add r9, r8, 1
		ldw r10, r7[6]
	}
.Ltmp817:
	.loc	4 1307 8
	{
		lsu r0, r9, r10
		nop
	}
	bf r0, .LBB23_33
.Ltmp818:
	{
		add r0, r4, r2
		stw r2, sp[1]
	}
	{
		add r7, r0, 8
		ldc r8, 61
	}
.Ltmp819:
.LBB23_17:
	{
		nop
		ldw r4, r7[1]
	}
	.loc	4 1408 39
.Ltmp820:
	{
		mov r0, r4
		ldw r2, r7[0]
	}
	.loc	4 1408 39
	{
		mov r1, r8
		nop
	}
	bl memchr
.Ltmp821:
	bf r0, .LBB23_20
.Ltmp822:
	.loc	4 1409 3
	{
		sub r0, r0, r4
		nop
	}
.Ltmp823:
	.loc	4 1409 3
	{
		eq r0, r0, r5
		nop
	}
	bf r0, .LBB23_20
.Ltmp824:
	.loc	4 1409 76
	{
		mov r1, r4
		ldw r0, sp[2]
	}
	{
		mov r2, r5
		nop
	}
	bl strncasecmp
	bf r0, .LBB23_21
.Ltmp825:
.LBB23_20:
	.loc	4 303 65
	{
		add r9, r9, 1
		add r7, r7, 8
	}
.Ltmp826:
	.loc	4 303 2
	{
		lsu r0, r9, r10
		nop
	}
	bt r0, .LBB23_17
	bu .LBB23_33
.Ltmp827:
.LBB23_8:
	{
		ldaw r5, sp[4]
		nop
	}
	.loc	4 1276 94
.Ltmp828:
	{
		add r0, r5, 4
		nop
	}
	bl __misaligned_load
	{
		mov r4, r0
		mov r0, r5
	}
	bl __misaligned_load
	.loc	4 1276 94
	std r4, r0, sp[3]
.Ltmp829:
	{
		ldaw r2, sp[6]
		ldw r0, sp[3]
	}
	.loc	4 1280 9
	{
		mov r1, r10
		ldw r3, sp[2]
	}
	bl FLAC__metadata_object_vorbiscomment_insert_comment
	{
		mov r6, r0
		nop
	}
.Ltmp830:
.LBB23_33:
	.loc	4 1324 1
	{
		mov r0, r6
		ldw r10, sp[14]
	}
	ldd r9, r8, sp[6]
	ldd r7, r6, sp[5]
	ldd r5, r4, sp[4]
	{
		nop
		retsp 16
	}
.Ltmp831:
	# RETURN_REG_HOLDER
.LBB23_11:
.Ltmp832:
	{
		ldc r6, 0
		nop
	}
	bu .LBB23_33
.Ltmp833:
.LBB23_13:
	{
		ldc r6, 0
		nop
	}
	bu .LBB23_33
.Ltmp834:
.LBB23_21:
	.loc	4 1309 5
	ashr r0, r9, 32
	{
		nop
		ldw r1, sp[1]
	}
	bt r0, .LBB23_33
.Ltmp835:
	{
		ldc r10, 0
		ldc r8, 61
	}
	{
		nop
		ldw r7, sp[3]
	}
.Ltmp836:
	bu .LBB23_23
.Ltmp837:
.LBB23_31:
	{
		nop
		ldw r7, sp[3]
	}
.Ltmp838:
	.loc	4 1337 2
	{
		ldc r10, 0
		ldw r1, r7[7]
	}
.Ltmp839:
.LBB23_23:
	.loc	4 1337 2
	{
		shl r4, r9, 3
		nop
	}
	{
		add r0, r1, r4
		nop
	}
	{
		nop
		ldw r0, r0[1]
	}
	.loc	4 1337 2
	bl free
	{
		nop
		ldw r0, r7[7]
	}
	.loc	4 1340 2
	{
		add r0, r0, r4
		nop
	}
	.loc	4 1340 2
	{
		add r1, r0, 8
		ldw r2, r7[6]
	}
	.loc	4 1340 2
	{
		sub r2, r2, r9
		nop
	}
	.loc	4 1340 2
	{
		shl r2, r2, 3
		nop
	}
	.loc	4 1340 2
	{
		sub r2, r2, 8
		nop
	}
	.loc	4 1340 2
	bl memmove
	{
		nop
		ldw r0, r7[6]
	}
	.loc	4 1341 2
	{
		sub r1, r0, 1
		ldw r0, r7[7]
	}
	.loc	4 1341 2
	{
		shl r2, r1, 3
		nop
	}
	{
		add r0, r0, r2
		nop
	}
	{
		nop
		stw r10, r0[0]
	}
	.loc	4 1342 2
	{
		mov r0, r7
		stw r10, r0[1]
	}
	.loc	4 1344 9
	bl FLAC__metadata_object_vorbiscomment_resize_comments
.Ltmp840:
	.loc	4 1311 11
	bf r0, .LBB23_24
.Ltmp841:
	{
		nop
		ldw r10, r7[6]
	}
	.loc	4 1313 10
.Ltmp842:
	{
		lsu r0, r9, r10
		nop
	}
	bf r0, .LBB23_33
.Ltmp843:
	{
		nop
		ldw r0, r7[7]
	}
.Ltmp844:
	{
		add r7, r0, r4
		nop
	}
.Ltmp845:
.LBB23_27:
	{
		nop
		ldw r4, r7[1]
	}
	.loc	4 1408 39
.Ltmp846:
	{
		mov r0, r4
		ldw r2, r7[0]
	}
	.loc	4 1408 39
	{
		mov r1, r8
		nop
	}
	bl memchr
.Ltmp847:
	bf r0, .LBB23_32
.Ltmp848:
	.loc	4 1409 3
	{
		sub r0, r0, r4
		nop
	}
.Ltmp849:
	.loc	4 1409 3
	{
		eq r0, r0, r5
		nop
	}
	bf r0, .LBB23_32
.Ltmp850:
	.loc	4 1409 76
	{
		mov r1, r4
		ldw r0, sp[2]
	}
	{
		mov r2, r5
		nop
	}
	bl strncasecmp
	bf r0, .LBB23_30
.Ltmp851:
.LBB23_32:
	.loc	4 303 65
	{
		add r9, r9, 1
		add r7, r7, 8
	}
.Ltmp852:
	.loc	4 303 2
	{
		lsu r0, r9, r10
		nop
	}
	bt r0, .LBB23_27
	bu .LBB23_33
.Ltmp853:
.LBB23_30:
	.loc	4 1309 5
	ashr r0, r9, 32
	bf r0, .LBB23_31
	bu .LBB23_33
.Ltmp854:
.LBB23_24:
	{
		ldc r6, 0
		nop
	}
	bu .LBB23_33
	.cc_bottom FLAC__metadata_object_vorbiscomment_replace_comment.function
	.set	FLAC__metadata_object_vorbiscomment_replace_comment.nstackwords,((FLAC__metadata_object_vorbiscomment_insert_comment.nstackwords $M __misaligned_load.nstackwords $M FLAC__format_vorbiscomment_entry_is_legal.nstackwords $M vorbiscomment_set_entry_.nstackwords $M free.nstackwords $M memmove.nstackwords $M FLAC__metadata_object_vorbiscomment_resize_comments.nstackwords $M memchr.nstackwords $M strncasecmp.nstackwords) + 16)
	.globl	FLAC__metadata_object_vorbiscomment_replace_comment.nstackwords
	.set	FLAC__metadata_object_vorbiscomment_replace_comment.maxcores,FLAC__format_vorbiscomment_entry_is_legal.maxcores $M FLAC__metadata_object_vorbiscomment_insert_comment.maxcores $M FLAC__metadata_object_vorbiscomment_resize_comments.maxcores $M free.maxcores $M memchr.maxcores $M strncasecmp.maxcores $M vorbiscomment_set_entry_.maxcores $M 1
	.globl	FLAC__metadata_object_vorbiscomment_replace_comment.maxcores
	.set	FLAC__metadata_object_vorbiscomment_replace_comment.maxtimers,FLAC__format_vorbiscomment_entry_is_legal.maxtimers $M FLAC__metadata_object_vorbiscomment_insert_comment.maxtimers $M FLAC__metadata_object_vorbiscomment_resize_comments.maxtimers $M free.maxtimers $M memchr.maxtimers $M strncasecmp.maxtimers $M vorbiscomment_set_entry_.maxtimers $M 0
	.globl	FLAC__metadata_object_vorbiscomment_replace_comment.maxtimers
	.set	FLAC__metadata_object_vorbiscomment_replace_comment.maxchanends,FLAC__format_vorbiscomment_entry_is_legal.maxchanends $M FLAC__metadata_object_vorbiscomment_insert_comment.maxchanends $M FLAC__metadata_object_vorbiscomment_resize_comments.maxchanends $M free.maxchanends $M memchr.maxchanends $M strncasecmp.maxchanends $M vorbiscomment_set_entry_.maxchanends $M 0
	.globl	FLAC__metadata_object_vorbiscomment_replace_comment.maxchanends
.Ltmp855:
	.size	FLAC__metadata_object_vorbiscomment_replace_comment, .Ltmp855-FLAC__metadata_object_vorbiscomment_replace_comment
.Lfunc_end23:
	.cfi_endproc

	.globl	FLAC__metadata_object_vorbiscomment_delete_comment
	.align	4
	.type	FLAC__metadata_object_vorbiscomment_delete_comment,@function
	.cc_top FLAC__metadata_object_vorbiscomment_delete_comment.function,FLAC__metadata_object_vorbiscomment_delete_comment
FLAC__metadata_object_vorbiscomment_delete_comment:
.Lfunc_begin24:
	.loc	4 1327 0
	.cfi_startproc
	.issue_mode dual
	{
		nop
		dualentsp 6
	}
.Ltmp856:
	.cfi_def_cfa_offset 24
.Ltmp857:
	.cfi_offset 15, 0
	std r5, r4, sp[1]
.Ltmp858:
	.cfi_offset 4, -16
.Ltmp859:
	.cfi_offset 5, -12
.Ltmp860:
	.cfi_offset 6, -8
.Ltmp861:
	{
		mov r5, r1
		stw r6, sp[4]
	}
.Ltmp862:
	{
		mov r4, r0
		nop
	}
.Ltmp863:
	.loc	4 1337 2 prologue_end
	{
		shl r6, r5, 3
		ldw r0, r4[7]
	}
	.loc	4 1337 2
	{
		add r0, r0, r6
		nop
	}
	{
		nop
		ldw r0, r0[1]
	}
	.loc	4 1337 2
	bl free
	{
		nop
		ldw r0, r4[7]
	}
	.loc	4 1340 2
	{
		add r0, r0, r6
		nop
	}
	.loc	4 1340 2
	{
		add r1, r0, 8
		ldw r2, r4[6]
	}
	.loc	4 1340 2
	{
		sub r2, r2, r5
		nop
	}
	.loc	4 1340 2
	{
		shl r2, r2, 3
		nop
	}
	.loc	4 1340 2
	{
		sub r2, r2, 8
		nop
	}
	.loc	4 1340 2
	bl memmove
	{
		nop
		ldw r0, r4[6]
	}
	.loc	4 1341 2
	{
		sub r1, r0, 1
		ldw r0, r4[7]
	}
	.loc	4 1341 2
	{
		shl r2, r1, 3
		nop
	}
	{
		add r0, r0, r2
		ldc r2, 0
	}
	{
		nop
		stw r2, r0[0]
	}
	.loc	4 1342 2
	{
		mov r0, r4
		stw r2, r0[1]
	}
	.loc	4 1344 9
	bl FLAC__metadata_object_vorbiscomment_resize_comments
	{
		nop
		ldw r6, sp[4]
	}
	.loc	4 1344 9
	ldd r5, r4, sp[1]
.Ltmp864:
	{
		nop
		retsp 6
	}
	# RETURN_REG_HOLDER
.Ltmp865:
	.cc_bottom FLAC__metadata_object_vorbiscomment_delete_comment.function
	.set	FLAC__metadata_object_vorbiscomment_delete_comment.nstackwords,((free.nstackwords $M memmove.nstackwords $M FLAC__metadata_object_vorbiscomment_resize_comments.nstackwords) + 6)
	.globl	FLAC__metadata_object_vorbiscomment_delete_comment.nstackwords
	.set	FLAC__metadata_object_vorbiscomment_delete_comment.maxcores,FLAC__metadata_object_vorbiscomment_resize_comments.maxcores $M free.maxcores $M 1
	.globl	FLAC__metadata_object_vorbiscomment_delete_comment.maxcores
	.set	FLAC__metadata_object_vorbiscomment_delete_comment.maxtimers,FLAC__metadata_object_vorbiscomment_resize_comments.maxtimers $M free.maxtimers $M 0
	.globl	FLAC__metadata_object_vorbiscomment_delete_comment.maxtimers
	.set	FLAC__metadata_object_vorbiscomment_delete_comment.maxchanends,FLAC__metadata_object_vorbiscomment_resize_comments.maxchanends $M free.maxchanends $M 0
	.globl	FLAC__metadata_object_vorbiscomment_delete_comment.maxchanends
.Ltmp866:
	.size	FLAC__metadata_object_vorbiscomment_delete_comment, .Ltmp866-FLAC__metadata_object_vorbiscomment_delete_comment
.Lfunc_end24:
	.cfi_endproc

	.globl	FLAC__metadata_object_vorbiscomment_entry_from_name_value_pair
	.align	4
	.type	FLAC__metadata_object_vorbiscomment_entry_from_name_value_pair,@function
	.cc_top FLAC__metadata_object_vorbiscomment_entry_from_name_value_pair.function,FLAC__metadata_object_vorbiscomment_entry_from_name_value_pair
FLAC__metadata_object_vorbiscomment_entry_from_name_value_pair:
.Lfunc_begin25:
	.loc	4 1348 0
	.cfi_startproc
	.issue_mode dual
	{
		nop
		dualentsp 12
	}
.Ltmp867:
	.cfi_def_cfa_offset 48
.Ltmp868:
	.cfi_offset 15, 0
	std r5, r4, sp[2]
.Ltmp869:
	.cfi_offset 4, -32
.Ltmp870:
	.cfi_offset 5, -28
	std r7, r6, sp[3]
.Ltmp871:
	.cfi_offset 6, -24
.Ltmp872:
	.cfi_offset 7, -20
	std r9, r8, sp[4]
.Ltmp873:
	.cfi_offset 8, -16
.Ltmp874:
	.cfi_offset 9, -12
.Ltmp875:
	.cfi_offset 10, -8
.Ltmp876:
	{
		mov r4, r2
		stw r10, sp[10]
	}
.Ltmp877:
	{
		mov r6, r1
		mov r7, r0
	}
.Ltmp878:
	.loc	4 1353 7 prologue_end
	{
		mov r0, r6
		nop
	}
	bl FLAC__format_vorbiscomment_entry_name_is_legal
	{
		ldc r5, 0
		nop
	}
	bf r0, .LBB25_8
.Ltmp879:
	{
		mkmsk r10, 32
		mov r0, r4
	}
	.loc	4 1355 7
.Ltmp880:
	{
		mov r1, r10
		nop
	}
	bl FLAC__format_vorbiscomment_entry_value_is_legal
	bf r0, .LBB25_8
.Ltmp881:
	.loc	4 1359 21
	{
		mov r0, r6
		nop
	}
	bl strlen
.Ltmp882:
	{
		mov r8, r0
		mov r0, r4
	}
.Ltmp883:
	.loc	4 1360 21
	bl strlen
.Ltmp884:
	.loc	4 1361 3
	{
		add r3, r8, 1
		nop
	}
	.loc	4 1361 3
	{
		add r9, r3, r0
		nop
	}
.Ltmp885:
	.loc	4 1361 3
	{
		eq r1, r8, r10
		stw r9, r7[0]
	}
	bt r1, .LBB25_5
.Ltmp886:
	.loc	5 150 2
	{
		lsu r1, r9, r3
		nop
	}
	bt r1, .LBB25_5
.Ltmp887:
	.loc	5 153 2
	{
		add r2, r9, 1
		nop
	}
	.loc	5 154 5
.Ltmp888:
	{
		lsu r1, r2, r9
		nop
	}
	bf r1, .LBB25_6
.Ltmp889:
.LBB25_5:
	{
		ldc r5, 0
		nop
	}
	{
		nop
		stw r5, r7[1]
	}
.Ltmp890:
.LBB25_8:
	.loc	4 1371 1
	{
		mov r0, r5
		ldw r10, sp[10]
	}
	ldd r9, r8, sp[4]
	ldd r7, r6, sp[3]
	ldd r5, r4, sp[2]
	{
		nop
		retsp 12
	}
	# RETURN_REG_HOLDER
.LBB25_6:
.Ltmp891:
	{
		nop
		stw r3, sp[2]
	}
.Ltmp892:
	{
		eq r1, r2, 0
		stw r0, sp[3]
	}
	.loc	5 93 5
.Ltmp893:
	{
		add r0, r1, r2
		nop
	}
.Ltmp894:
	.loc	5 95 9
	bl malloc
	{
		mov r10, r0
		nop
	}
	{
		nop
		stw r10, r7[1]
	}
	bf r10, .LBB25_8
.Ltmp895:
	.loc	4 1364 3
	{
		mov r0, r10
		mov r1, r6
	}
	{
		mov r2, r8
		nop
	}
	bl memcpy
	{
		ldc r0, 61
		nop
	}
	.loc	4 1365 3
	st8 r0, r10[r8]
	{
		nop
		ldw r0, sp[2]
	}
	.loc	4 1366 3
	{
		add r0, r10, r0
		mov r1, r4
	}
	{
		nop
		ldw r2, sp[3]
	}
	.loc	4 1366 3
	bl memcpy
	{
		ldc r0, 0
		nop
	}
	.loc	4 1367 3
	st8 r0, r10[r9]
	{
		mkmsk r5, 1
		nop
	}
	bu .LBB25_8
.Ltmp896:
	.cc_bottom FLAC__metadata_object_vorbiscomment_entry_from_name_value_pair.function
	.set	FLAC__metadata_object_vorbiscomment_entry_from_name_value_pair.nstackwords,((FLAC__format_vorbiscomment_entry_name_is_legal.nstackwords $M FLAC__format_vorbiscomment_entry_value_is_legal.nstackwords $M strlen.nstackwords $M malloc.nstackwords $M memcpy.nstackwords) + 12)
	.globl	FLAC__metadata_object_vorbiscomment_entry_from_name_value_pair.nstackwords
	.set	FLAC__metadata_object_vorbiscomment_entry_from_name_value_pair.maxcores,FLAC__format_vorbiscomment_entry_name_is_legal.maxcores $M FLAC__format_vorbiscomment_entry_value_is_legal.maxcores $M malloc.maxcores $M strlen.maxcores $M 1
	.globl	FLAC__metadata_object_vorbiscomment_entry_from_name_value_pair.maxcores
	.set	FLAC__metadata_object_vorbiscomment_entry_from_name_value_pair.maxtimers,FLAC__format_vorbiscomment_entry_name_is_legal.maxtimers $M FLAC__format_vorbiscomment_entry_value_is_legal.maxtimers $M malloc.maxtimers $M strlen.maxtimers $M 0
	.globl	FLAC__metadata_object_vorbiscomment_entry_from_name_value_pair.maxtimers
	.set	FLAC__metadata_object_vorbiscomment_entry_from_name_value_pair.maxchanends,FLAC__format_vorbiscomment_entry_name_is_legal.maxchanends $M FLAC__format_vorbiscomment_entry_value_is_legal.maxchanends $M malloc.maxchanends $M strlen.maxchanends $M 0
	.globl	FLAC__metadata_object_vorbiscomment_entry_from_name_value_pair.maxchanends
.Ltmp897:
	.size	FLAC__metadata_object_vorbiscomment_entry_from_name_value_pair, .Ltmp897-FLAC__metadata_object_vorbiscomment_entry_from_name_value_pair
.Lfunc_end25:
	.cfi_endproc

	.globl	FLAC__metadata_object_vorbiscomment_entry_to_name_value_pair
	.align	4
	.type	FLAC__metadata_object_vorbiscomment_entry_to_name_value_pair,@function
	.cc_top FLAC__metadata_object_vorbiscomment_entry_to_name_value_pair.function,FLAC__metadata_object_vorbiscomment_entry_to_name_value_pair
FLAC__metadata_object_vorbiscomment_entry_to_name_value_pair:
.Lfunc_begin26:
	.loc	4 1374 0
	.cfi_startproc
	.issue_mode dual
	{
		nop
		dualentsp 10
	}
.Ltmp898:
	.cfi_def_cfa_offset 40
.Ltmp899:
	.cfi_offset 15, 0
	std r5, r4, sp[2]
.Ltmp900:
	.cfi_offset 4, -24
.Ltmp901:
	.cfi_offset 5, -20
	std r7, r6, sp[3]
.Ltmp902:
	.cfi_offset 6, -16
.Ltmp903:
	.cfi_offset 7, -12
	std r9, r8, sp[4]
.Ltmp904:
	.cfi_offset 8, -8
.Ltmp905:
	.cfi_offset 9, -4
.Ltmp906:
	{
		mov r4, r2
		mov r5, r1
	}
.Ltmp907:
	{
		nop
		ldw r1, r0[1]
	}
	{
		nop
		stw r1, sp[3]
	}
	{
		nop
		ldw r0, r0[0]
	}
	{
		nop
		stw r0, sp[2]
	}
	{
		nop
		ldw r7, sp[3]
	}
	.loc	4 1379 7 prologue_end
.Ltmp908:
	{
		mov r0, r7
		ldw r9, sp[2]
	}
	.loc	4 1379 7
	{
		mov r1, r9
		nop
	}
	bl FLAC__format_vorbiscomment_entry_is_legal
	{
		ldc r6, 0
		nop
	}
	bf r0, .LBB26_10
.Ltmp909:
	{
		ldc r1, 61
		mov r0, r7
	}
	.loc	4 1383 39
.Ltmp910:
	{
		mov r2, r9
		nop
	}
	bl memchr
.Ltmp911:
	bf r0, .LBB26_10
.Ltmp912:
	.loc	4 1384 3
	{
		sub r8, r0, r7
		nop
	}
.Ltmp913:
	.loc	5 128 2
	{
		add r0, r8, 1
		nop
	}
.Ltmp914:
	.loc	5 129 5
	{
		lsu r1, r0, r8
		nop
	}
	bf r1, .LBB26_4
.Ltmp915:
	{
		ldc r6, 0
		nop
	}
	{
		nop
		stw r6, r5[0]
	}
	bu .LBB26_10
.Ltmp916:
.LBB26_4:
	.loc	5 93 5
	{
		eq r1, r0, 0
		nop
	}
	.loc	5 93 5
	{
		add r0, r1, r0
		nop
	}
.Ltmp917:
	.loc	5 95 9
	bl malloc
	{
		nop
		stw r0, r5[0]
	}
	bf r0, .LBB26_10
.Ltmp918:
	.loc	4 1385 3
	{
		sub r0, r9, r8
		nop
	}
	.loc	4 1385 3
	{
		sub r9, r0, 1
		nop
	}
.Ltmp919:
	.loc	5 128 2
	{
		add r0, r9, 1
		nop
	}
	.loc	5 129 5
.Ltmp920:
	{
		lsu r1, r0, r9
		nop
	}
	bf r1, .LBB26_7
.Ltmp921:
	{
		ldc r0, 0
		nop
	}
	{
		nop
		stw r0, r4[0]
	}
	{
		nop
		ldw r0, r5[0]
	}
	.loc	4 1392 4
.Ltmp922:
	bl free
	bu .LBB26_10
.Ltmp923:
.LBB26_7:
	.loc	5 93 5
	{
		eq r1, r0, 0
		nop
	}
	.loc	5 93 5
	{
		add r0, r1, r0
		nop
	}
.Ltmp924:
	.loc	5 95 9
	bl malloc
	{
		mov r1, r0
		nop
	}
	{
		nop
		stw r1, r4[0]
	}
	{
		nop
		ldw r0, r5[0]
	}
.Ltmp925:
	.loc	4 1391 23
	bf r1, .LBB26_8
.Ltmp926:
	.loc	4 1395 3
	{
		mov r1, r7
		mov r2, r8
	}
	bl memcpy
	{
		add r1, r8, r7
		ldw r0, r4[0]
	}
	.loc	4 1396 3
	{
		add r1, r1, 1
		mov r2, r9
	}
	.loc	4 1396 3
	bl memcpy
	.loc	4 1397 3
	{
		ldc r1, 0
		ldw r0, r5[0]
	}
	.loc	4 1397 3
	st8 r1, r0[r8]
	{
		nop
		ldw r0, r4[0]
	}
	.loc	4 1398 3
	st8 r1, r0[r9]
	{
		mkmsk r6, 1
		nop
	}
	bu .LBB26_10
.Ltmp927:
.LBB26_8:
	.loc	4 1392 4
	bl free
.Ltmp928:
.LBB26_10:
	.loc	4 1402 1
	{
		mov r0, r6
		nop
	}
	ldd r9, r8, sp[4]
	ldd r7, r6, sp[3]
	ldd r5, r4, sp[2]
	{
		nop
		retsp 10
	}
.Ltmp929:
	# RETURN_REG_HOLDER
.Ltmp930:
	.cc_bottom FLAC__metadata_object_vorbiscomment_entry_to_name_value_pair.function
	.set	FLAC__metadata_object_vorbiscomment_entry_to_name_value_pair.nstackwords,((FLAC__format_vorbiscomment_entry_is_legal.nstackwords $M memchr.nstackwords $M malloc.nstackwords $M free.nstackwords $M memcpy.nstackwords) + 10)
	.globl	FLAC__metadata_object_vorbiscomment_entry_to_name_value_pair.nstackwords
	.set	FLAC__metadata_object_vorbiscomment_entry_to_name_value_pair.maxcores,FLAC__format_vorbiscomment_entry_is_legal.maxcores $M free.maxcores $M malloc.maxcores $M memchr.maxcores $M 1
	.globl	FLAC__metadata_object_vorbiscomment_entry_to_name_value_pair.maxcores
	.set	FLAC__metadata_object_vorbiscomment_entry_to_name_value_pair.maxtimers,FLAC__format_vorbiscomment_entry_is_legal.maxtimers $M free.maxtimers $M malloc.maxtimers $M memchr.maxtimers $M 0
	.globl	FLAC__metadata_object_vorbiscomment_entry_to_name_value_pair.maxtimers
	.set	FLAC__metadata_object_vorbiscomment_entry_to_name_value_pair.maxchanends,FLAC__format_vorbiscomment_entry_is_legal.maxchanends $M free.maxchanends $M malloc.maxchanends $M memchr.maxchanends $M 0
	.globl	FLAC__metadata_object_vorbiscomment_entry_to_name_value_pair.maxchanends
.Ltmp931:
	.size	FLAC__metadata_object_vorbiscomment_entry_to_name_value_pair, .Ltmp931-FLAC__metadata_object_vorbiscomment_entry_to_name_value_pair
.Lfunc_end26:
	.cfi_endproc

	.globl	FLAC__metadata_object_vorbiscomment_entry_matches
	.align	4
	.type	FLAC__metadata_object_vorbiscomment_entry_matches,@function
	.cc_top FLAC__metadata_object_vorbiscomment_entry_matches.function,FLAC__metadata_object_vorbiscomment_entry_matches
FLAC__metadata_object_vorbiscomment_entry_matches:
.Lfunc_begin27:
	.loc	4 1405 0
	.cfi_startproc
	.issue_mode dual
	{
		nop
		dualentsp 8
	}
.Ltmp932:
	.cfi_def_cfa_offset 32
.Ltmp933:
	.cfi_offset 15, 0
	std r5, r4, sp[2]
.Ltmp934:
	.cfi_offset 4, -16
.Ltmp935:
	.cfi_offset 5, -12
.Ltmp936:
	.cfi_offset 6, -8
.Ltmp937:
	{
		mov r4, r2
		stw r6, sp[6]
	}
.Ltmp938:
	{
		mov r5, r1
		ldw r1, r0[1]
	}
.Ltmp939:
	{
		nop
		stw r1, sp[3]
	}
	{
		nop
		ldw r0, r0[0]
	}
	{
		nop
		stw r0, sp[2]
	}
	{
		nop
		ldw r6, sp[3]
	}
	.loc	4 1408 39 prologue_end
.Ltmp940:
	{
		ldc r1, 61
		ldw r2, sp[2]
	}
	.loc	4 1408 39
	{
		mov r0, r6
		nop
	}
	bl memchr
.Ltmp941:
	{
		mov r1, r0
		ldc r0, 0
	}
.Ltmp942:
	bf r1, .LBB27_3
.Ltmp943:
	.loc	4 1409 3
	{
		sub r1, r1, r6
		nop
	}
.Ltmp944:
	.loc	4 1409 3
	{
		eq r1, r1, r4
		nop
	}
	bf r1, .LBB27_3
.Ltmp945:
	.loc	4 1409 76
	{
		mov r0, r5
		mov r1, r6
	}
	{
		mov r2, r4
		nop
	}
	bl strncasecmp
	.loc	4 1409 76
	{
		eq r0, r0, 0
		nop
	}
.Ltmp946:
.LBB27_3:
	{
		nop
		ldw r6, sp[6]
	}
	.loc	4 1409 76
	ldd r5, r4, sp[2]
	{
		nop
		retsp 8
	}
.Ltmp947:
	# RETURN_REG_HOLDER
.Ltmp948:
	.cc_bottom FLAC__metadata_object_vorbiscomment_entry_matches.function
	.set	FLAC__metadata_object_vorbiscomment_entry_matches.nstackwords,((memchr.nstackwords $M strncasecmp.nstackwords) + 8)
	.globl	FLAC__metadata_object_vorbiscomment_entry_matches.nstackwords
	.set	FLAC__metadata_object_vorbiscomment_entry_matches.maxcores,memchr.maxcores $M strncasecmp.maxcores $M 1
	.globl	FLAC__metadata_object_vorbiscomment_entry_matches.maxcores
	.set	FLAC__metadata_object_vorbiscomment_entry_matches.maxtimers,memchr.maxtimers $M strncasecmp.maxtimers $M 0
	.globl	FLAC__metadata_object_vorbiscomment_entry_matches.maxtimers
	.set	FLAC__metadata_object_vorbiscomment_entry_matches.maxchanends,memchr.maxchanends $M strncasecmp.maxchanends $M 0
	.globl	FLAC__metadata_object_vorbiscomment_entry_matches.maxchanends
.Ltmp949:
	.size	FLAC__metadata_object_vorbiscomment_entry_matches, .Ltmp949-FLAC__metadata_object_vorbiscomment_entry_matches
.Lfunc_end27:
	.cfi_endproc

	.globl	FLAC__metadata_object_vorbiscomment_find_entry_from
	.align	4
	.type	FLAC__metadata_object_vorbiscomment_find_entry_from,@function
	.cc_top FLAC__metadata_object_vorbiscomment_find_entry_from.function,FLAC__metadata_object_vorbiscomment_find_entry_from
FLAC__metadata_object_vorbiscomment_find_entry_from:
.Lfunc_begin28:
	.loc	4 1414 0
	.cfi_startproc
	.issue_mode dual
	{
		nop
		dualentsp 10
	}
.Ltmp950:
	.cfi_def_cfa_offset 40
.Ltmp951:
	.cfi_offset 15, 0
	std r5, r4, sp[1]
.Ltmp952:
	.cfi_offset 4, -32
.Ltmp953:
	.cfi_offset 5, -28
	std r7, r6, sp[2]
.Ltmp954:
	.cfi_offset 6, -24
.Ltmp955:
	.cfi_offset 7, -20
	std r9, r8, sp[3]
.Ltmp956:
	.cfi_offset 8, -16
.Ltmp957:
	.cfi_offset 9, -12
.Ltmp958:
	.cfi_offset 10, -8
.Ltmp959:
	{
		mov r5, r2
		stw r10, sp[8]
	}
.Ltmp960:
	{
		mov r4, r1
		mov r8, r0
	}
.Ltmp961:
	.loc	4 1417 68 prologue_end
	{
		mov r0, r5
		nop
	}
	bl strlen
.Ltmp962:
	{
		mov r7, r0
		ldw r10, r8[6]
	}
.Ltmp963:
	{
		mkmsk r0, 32
		lsu r1, r4, r10
	}
	bf r1, .LBB28_8
.Ltmp964:
	.loc	4 304 7
	{
		shl r1, r4, 3
		ldw r0, r8[7]
	}
	{
		add r6, r0, r1
		ldc r8, 61
	}
.Ltmp965:
.LBB28_2:
	{
		nop
		ldw r9, r6[1]
	}
	.loc	4 1408 39
.Ltmp966:
	{
		mov r0, r9
		ldw r2, r6[0]
	}
	.loc	4 1408 39
	{
		mov r1, r8
		nop
	}
	bl memchr
.Ltmp967:
	bf r0, .LBB28_6
.Ltmp968:
	.loc	4 1409 3
	{
		sub r0, r0, r9
		nop
	}
.Ltmp969:
	.loc	4 1409 3
	{
		eq r0, r0, r7
		nop
	}
	bf r0, .LBB28_6
.Ltmp970:
	.loc	4 1409 76
	{
		mov r0, r5
		mov r1, r9
	}
	{
		mov r2, r7
		nop
	}
	bl strncasecmp
	bf r0, .LBB28_5
.Ltmp971:
.LBB28_6:
	.loc	4 303 65
	{
		add r4, r4, 1
		add r6, r6, 8
	}
.Ltmp972:
	.loc	4 303 2
	{
		lsu r0, r4, r10
		nop
	}
	bt r0, .LBB28_2
.Ltmp973:
	{
		mkmsk r0, 32
		nop
	}
	bu .LBB28_8
.LBB28_5:
	.loc	4 1417 9
	{
		mov r0, r4
		nop
	}
.LBB28_8:
	{
		nop
		ldw r10, sp[8]
	}
	.loc	4 1417 9
	ldd r9, r8, sp[3]
	ldd r7, r6, sp[2]
	ldd r5, r4, sp[1]
	{
		nop
		retsp 10
	}
	# RETURN_REG_HOLDER
.Ltmp974:
	.cc_bottom FLAC__metadata_object_vorbiscomment_find_entry_from.function
	.set	FLAC__metadata_object_vorbiscomment_find_entry_from.nstackwords,((strlen.nstackwords $M memchr.nstackwords $M strncasecmp.nstackwords) + 10)
	.globl	FLAC__metadata_object_vorbiscomment_find_entry_from.nstackwords
	.set	FLAC__metadata_object_vorbiscomment_find_entry_from.maxcores,memchr.maxcores $M strlen.maxcores $M strncasecmp.maxcores $M 1
	.globl	FLAC__metadata_object_vorbiscomment_find_entry_from.maxcores
	.set	FLAC__metadata_object_vorbiscomment_find_entry_from.maxtimers,memchr.maxtimers $M strlen.maxtimers $M strncasecmp.maxtimers $M 0
	.globl	FLAC__metadata_object_vorbiscomment_find_entry_from.maxtimers
	.set	FLAC__metadata_object_vorbiscomment_find_entry_from.maxchanends,memchr.maxchanends $M strlen.maxchanends $M strncasecmp.maxchanends $M 0
	.globl	FLAC__metadata_object_vorbiscomment_find_entry_from.maxchanends
.Ltmp975:
	.size	FLAC__metadata_object_vorbiscomment_find_entry_from, .Ltmp975-FLAC__metadata_object_vorbiscomment_find_entry_from
.Lfunc_end28:
	.cfi_endproc

	.globl	FLAC__metadata_object_vorbiscomment_remove_entry_matching
	.align	4
	.type	FLAC__metadata_object_vorbiscomment_remove_entry_matching,@function
	.cc_top FLAC__metadata_object_vorbiscomment_remove_entry_matching.function,FLAC__metadata_object_vorbiscomment_remove_entry_matching
FLAC__metadata_object_vorbiscomment_remove_entry_matching:
.Lfunc_begin29:
	.loc	4 1421 0
	.cfi_startproc
	.issue_mode dual
	{
		nop
		dualentsp 10
	}
.Ltmp976:
	.cfi_def_cfa_offset 40
.Ltmp977:
	.cfi_offset 15, 0
	std r5, r4, sp[1]
.Ltmp978:
	.cfi_offset 4, -32
.Ltmp979:
	.cfi_offset 5, -28
	std r7, r6, sp[2]
.Ltmp980:
	.cfi_offset 6, -24
.Ltmp981:
	.cfi_offset 7, -20
	std r9, r8, sp[3]
.Ltmp982:
	.cfi_offset 8, -16
.Ltmp983:
	.cfi_offset 9, -12
.Ltmp984:
	.cfi_offset 10, -8
.Ltmp985:
	{
		mov r6, r1
		stw r10, sp[8]
	}
.Ltmp986:
	{
		mov r5, r0
		mov r0, r6
	}
.Ltmp987:
	.loc	4 1422 37 prologue_end
	bl strlen
.Ltmp988:
	{
		mov r7, r0
		ldw r4, r5[6]
	}
.Ltmp989:
	bf r4, .LBB29_9
.Ltmp990:
	{
		nop
		stw r5, sp[1]
	}
.Ltmp991:
	.loc	4 1429 7
	{
		ldc r10, 0
		ldw r5, r5[7]
	}
	{
		ldc r8, 61
		nop
	}
.Ltmp992:
.LBB29_2:
	{
		nop
		ldw r9, r5[1]
	}
	.loc	4 1408 39
.Ltmp993:
	{
		mov r0, r9
		ldw r2, r5[0]
	}
	.loc	4 1408 39
	{
		mov r1, r8
		nop
	}
	bl memchr
.Ltmp994:
	bf r0, .LBB29_8
.Ltmp995:
	.loc	4 1409 3
	{
		sub r0, r0, r9
		nop
	}
.Ltmp996:
	.loc	4 1409 3
	{
		eq r0, r0, r7
		nop
	}
	bf r0, .LBB29_8
.Ltmp997:
	.loc	4 1409 76
	{
		mov r0, r6
		mov r1, r9
	}
	{
		mov r2, r7
		nop
	}
	bl strncasecmp
	bf r0, .LBB29_5
.Ltmp998:
.LBB29_8:
	.loc	4 1428 60
	{
		add r10, r10, 1
		add r5, r5, 8
	}
.Ltmp999:
	.loc	4 1428 2
	{
		lsu r0, r10, r4
		nop
	}
	bt r0, .LBB29_2
.Ltmp1000:
.LBB29_9:
	{
		ldc r0, 0
		nop
	}
.LBB29_10:
.Ltmp1001:
	{
		nop
		ldw r10, sp[8]
	}
	.loc	4 1438 1
	ldd r9, r8, sp[3]
	ldd r7, r6, sp[2]
	ldd r5, r4, sp[1]
	{
		nop
		retsp 10
	}
	# RETURN_REG_HOLDER
.LBB29_5:
.Ltmp1002:
	.loc	4 1337 2
	{
		mov r0, r9
		nop
	}
	bl free
	{
		nop
		ldw r4, sp[1]
	}
.Ltmp1003:
	.loc	4 1340 2
	{
		shl r1, r10, 3
		ldw r0, r4[7]
	}
	.loc	4 1340 2
	{
		add r0, r0, r1
		nop
	}
	.loc	4 1340 2
	{
		add r1, r0, 8
		ldw r2, r4[6]
	}
	.loc	4 1340 2
	{
		sub r2, r2, r10
		nop
	}
	.loc	4 1340 2
	{
		shl r2, r2, 3
		nop
	}
	.loc	4 1340 2
	{
		sub r2, r2, 8
		nop
	}
	.loc	4 1340 2
	bl memmove
	{
		nop
		ldw r0, r4[6]
	}
	.loc	4 1341 2
	{
		sub r1, r0, 1
		ldw r0, r4[7]
	}
	.loc	4 1341 2
	{
		shl r2, r1, 3
		nop
	}
	{
		add r0, r0, r2
		ldc r2, 0
	}
	{
		nop
		stw r2, r0[0]
	}
	.loc	4 1342 2
	{
		mov r0, r4
		stw r2, r0[1]
	}
	.loc	4 1344 9
	bl FLAC__metadata_object_vorbiscomment_resize_comments
.Ltmp1004:
	.loc	4 1431 5
	bt r0, .LBB29_6
.Ltmp1005:
	{
		mkmsk r0, 32
		nop
	}
	bu .LBB29_10
.LBB29_6:
	{
		mkmsk r0, 1
		nop
	}
	bu .LBB29_10
	.cc_bottom FLAC__metadata_object_vorbiscomment_remove_entry_matching.function
	.set	FLAC__metadata_object_vorbiscomment_remove_entry_matching.nstackwords,((strlen.nstackwords $M memchr.nstackwords $M strncasecmp.nstackwords $M free.nstackwords $M memmove.nstackwords $M FLAC__metadata_object_vorbiscomment_resize_comments.nstackwords) + 10)
	.globl	FLAC__metadata_object_vorbiscomment_remove_entry_matching.nstackwords
	.set	FLAC__metadata_object_vorbiscomment_remove_entry_matching.maxcores,FLAC__metadata_object_vorbiscomment_resize_comments.maxcores $M free.maxcores $M memchr.maxcores $M strlen.maxcores $M strncasecmp.maxcores $M 1
	.globl	FLAC__metadata_object_vorbiscomment_remove_entry_matching.maxcores
	.set	FLAC__metadata_object_vorbiscomment_remove_entry_matching.maxtimers,FLAC__metadata_object_vorbiscomment_resize_comments.maxtimers $M free.maxtimers $M memchr.maxtimers $M strlen.maxtimers $M strncasecmp.maxtimers $M 0
	.globl	FLAC__metadata_object_vorbiscomment_remove_entry_matching.maxtimers
	.set	FLAC__metadata_object_vorbiscomment_remove_entry_matching.maxchanends,FLAC__metadata_object_vorbiscomment_resize_comments.maxchanends $M free.maxchanends $M memchr.maxchanends $M strlen.maxchanends $M strncasecmp.maxchanends $M 0
	.globl	FLAC__metadata_object_vorbiscomment_remove_entry_matching.maxchanends
.Ltmp1006:
	.size	FLAC__metadata_object_vorbiscomment_remove_entry_matching, .Ltmp1006-FLAC__metadata_object_vorbiscomment_remove_entry_matching
.Lfunc_end29:
	.cfi_endproc

	.globl	FLAC__metadata_object_vorbiscomment_remove_entries_matching
	.align	4
	.type	FLAC__metadata_object_vorbiscomment_remove_entries_matching,@function
	.cc_top FLAC__metadata_object_vorbiscomment_remove_entries_matching.function,FLAC__metadata_object_vorbiscomment_remove_entries_matching
FLAC__metadata_object_vorbiscomment_remove_entries_matching:
.Lfunc_begin30:
	.loc	4 1441 0
	.cfi_startproc
	.issue_mode dual
	{
		nop
		dualentsp 14
	}
.Ltmp1007:
	.cfi_def_cfa_offset 56
.Ltmp1008:
	.cfi_offset 15, 0
	std r5, r4, sp[3]
.Ltmp1009:
	.cfi_offset 4, -32
.Ltmp1010:
	.cfi_offset 5, -28
	std r7, r6, sp[4]
.Ltmp1011:
	.cfi_offset 6, -24
.Ltmp1012:
	.cfi_offset 7, -20
	std r9, r8, sp[5]
.Ltmp1013:
	.cfi_offset 8, -16
.Ltmp1014:
	.cfi_offset 9, -12
	{
		nop
		stw r10, sp[12]
	}
.Ltmp1015:
	.cfi_offset 10, -8
.Ltmp1016:
	{
		mov r5, r0
		stw r1, sp[5]
	}
.Ltmp1017:
	.loc	4 1444 37 prologue_end
	{
		mov r0, r1
		stw r5, sp[3]
	}
	bl strlen
.Ltmp1018:
	{
		mov r7, r0
		ldw r4, r5[6]
	}
.Ltmp1019:
	{
		mkmsk r1, 1
		nop
	}
	.loc	4 1451 2
.Ltmp1020:
	{
		lss r0, r4, r1
		nop
	}
	bt r0, .LBB30_1
.Ltmp1021:
	{
		ldc r10, 0
		ldc r8, 61
	}
	{
		nop
		stw r10, sp[4]
	}
.Ltmp1022:
.LBB30_3:
	{
		nop
		stw r1, sp[2]
	}
.Ltmp1023:
	.loc	4 1452 7
	{
		shl r1, r4, 3
		ldw r0, r5[7]
	}
	{
		add r0, r0, r1
		nop
	}
	{
		sub r5, r0, 8
		nop
	}
.Ltmp1024:
.LBB30_4:
	{
		mov r6, r4
		nop
	}
	.loc	4 1451 7
	{
		sub r4, r6, 1
		ldw r9, r5[1]
	}
	.loc	4 1408 39
.Ltmp1025:
	{
		mov r0, r9
		ldw r2, r5[0]
	}
	.loc	4 1408 39
	{
		mov r1, r8
		nop
	}
	bl memchr
.Ltmp1026:
	bf r0, .LBB30_7
.Ltmp1027:
	.loc	4 1409 3
	{
		sub r0, r0, r9
		nop
	}
.Ltmp1028:
	.loc	4 1409 3
	{
		eq r0, r0, r7
		nop
	}
	bf r0, .LBB30_7
.Ltmp1029:
	.loc	4 1409 76
	{
		mov r1, r9
		ldw r0, sp[5]
	}
	{
		mov r2, r7
		nop
	}
	bl strncasecmp
	bf r0, .LBB30_9
.Ltmp1030:
.LBB30_7:
	.loc	4 1451 2
	{
		sub r5, r5, 8
		lss r0, r10, r4
	}
	bt r0, .LBB30_4
	bu .LBB30_8
.Ltmp1031:
.LBB30_9:
	{
		nop
		ldw r0, sp[4]
	}
	.loc	4 1453 4
.Ltmp1032:
	{
		add r0, r0, 1
		nop
	}
	.loc	4 1337 2
.Ltmp1033:
	{
		mov r0, r9
		stw r0, sp[4]
	}
	bl free
	{
		nop
		ldw r5, sp[3]
	}
.Ltmp1034:
	.loc	4 1340 2
	{
		shl r0, r4, 3
		ldw r1, r5[7]
	}
	.loc	4 1340 2
	{
		add r0, r1, r0
		shl r2, r6, 3
	}
	.loc	4 1340 2
	{
		add r1, r1, r2
		ldw r2, r5[6]
	}
	.loc	4 1340 2
	{
		sub r2, r2, r4
		nop
	}
	.loc	4 1340 2
	{
		shl r2, r2, 3
		nop
	}
	.loc	4 1340 2
	{
		sub r2, r2, 8
		nop
	}
	.loc	4 1340 2
	bl memmove
	{
		nop
		ldw r0, r5[6]
	}
	.loc	4 1341 2
	{
		sub r1, r0, 1
		ldw r0, r5[7]
	}
	.loc	4 1341 2
	{
		shl r2, r1, 3
		nop
	}
	{
		add r0, r0, r2
		nop
	}
	{
		nop
		stw r10, r0[0]
	}
	.loc	4 1342 2
	{
		mov r0, r5
		stw r10, r0[1]
	}
	.loc	4 1344 9
	bl FLAC__metadata_object_vorbiscomment_resize_comments
	{
		nop
		ldw r1, sp[2]
	}
.Ltmp1035:
	.loc	4 1454 10
	{
		and r1, r0, r1
		nop
	}
.Ltmp1036:
	bf r1, .LBB30_11
.Ltmp1037:
	{
		lss r0, r10, r4
		nop
	}
	bt r0, .LBB30_3
.Ltmp1038:
.LBB30_11:
	{
		nop
		ldw r0, sp[4]
	}
	bt r1, .LBB30_13
.Ltmp1039:
	{
		mkmsk r0, 32
		nop
	}
	bu .LBB30_13
.LBB30_8:
.Ltmp1040:
	{
		nop
		ldw r0, sp[4]
	}
	bu .LBB30_13
.LBB30_1:
	{
		ldc r0, 0
		nop
	}
.LBB30_13:
	{
		nop
		ldw r10, sp[12]
	}
	.loc	4 1458 2
	ldd r9, r8, sp[5]
	ldd r7, r6, sp[4]
	ldd r5, r4, sp[3]
	{
		nop
		retsp 14
	}
	# RETURN_REG_HOLDER
.Ltmp1041:
	.cc_bottom FLAC__metadata_object_vorbiscomment_remove_entries_matching.function
	.set	FLAC__metadata_object_vorbiscomment_remove_entries_matching.nstackwords,((strlen.nstackwords $M memchr.nstackwords $M strncasecmp.nstackwords $M free.nstackwords $M memmove.nstackwords $M FLAC__metadata_object_vorbiscomment_resize_comments.nstackwords) + 14)
	.globl	FLAC__metadata_object_vorbiscomment_remove_entries_matching.nstackwords
	.set	FLAC__metadata_object_vorbiscomment_remove_entries_matching.maxcores,FLAC__metadata_object_vorbiscomment_resize_comments.maxcores $M free.maxcores $M memchr.maxcores $M strlen.maxcores $M strncasecmp.maxcores $M 1
	.globl	FLAC__metadata_object_vorbiscomment_remove_entries_matching.maxcores
	.set	FLAC__metadata_object_vorbiscomment_remove_entries_matching.maxtimers,FLAC__metadata_object_vorbiscomment_resize_comments.maxtimers $M free.maxtimers $M memchr.maxtimers $M strlen.maxtimers $M strncasecmp.maxtimers $M 0
	.globl	FLAC__metadata_object_vorbiscomment_remove_entries_matching.maxtimers
	.set	FLAC__metadata_object_vorbiscomment_remove_entries_matching.maxchanends,FLAC__metadata_object_vorbiscomment_resize_comments.maxchanends $M free.maxchanends $M memchr.maxchanends $M strlen.maxchanends $M strncasecmp.maxchanends $M 0
	.globl	FLAC__metadata_object_vorbiscomment_remove_entries_matching.maxchanends
.Ltmp1042:
	.size	FLAC__metadata_object_vorbiscomment_remove_entries_matching, .Ltmp1042-FLAC__metadata_object_vorbiscomment_remove_entries_matching
.Lfunc_end30:
	.cfi_endproc

	.globl	FLAC__metadata_object_cuesheet_track_new
	.align	4
	.type	FLAC__metadata_object_cuesheet_track_new,@function
	.cc_top FLAC__metadata_object_cuesheet_track_new.function,FLAC__metadata_object_cuesheet_track_new
FLAC__metadata_object_cuesheet_track_new:
.Lfunc_begin31:
	.loc	4 1462 0
	.cfi_startproc
	.issue_mode dual
.Ltmp1043:
	.cfi_def_cfa_offset 8
.Ltmp1044:
	.cfi_offset 15, 0
	{
		mkmsk r0, 1
		dualentsp 2
	}
	{
		ldc r1, 32
		nop
	}
	.loc	4 1463 9 prologue_end
.Ltmp1045:
	bl calloc
	{
		nop
		retsp 2
	}
	.loc	4 1463 9
	# RETURN_REG_HOLDER
.Ltmp1046:
	.cc_bottom FLAC__metadata_object_cuesheet_track_new.function
	.set	FLAC__metadata_object_cuesheet_track_new.nstackwords,(calloc.nstackwords + 2)
	.globl	FLAC__metadata_object_cuesheet_track_new.nstackwords
	.set	FLAC__metadata_object_cuesheet_track_new.maxcores,calloc.maxcores $M 1
	.globl	FLAC__metadata_object_cuesheet_track_new.maxcores
	.set	FLAC__metadata_object_cuesheet_track_new.maxtimers,calloc.maxtimers $M 0
	.globl	FLAC__metadata_object_cuesheet_track_new.maxtimers
	.set	FLAC__metadata_object_cuesheet_track_new.maxchanends,calloc.maxchanends $M 0
	.globl	FLAC__metadata_object_cuesheet_track_new.maxchanends
.Ltmp1047:
	.size	FLAC__metadata_object_cuesheet_track_new, .Ltmp1047-FLAC__metadata_object_cuesheet_track_new
.Lfunc_end31:
	.cfi_endproc

	.globl	FLAC__metadata_object_cuesheet_track_clone
	.align	4
	.type	FLAC__metadata_object_cuesheet_track_clone,@function
	.cc_top FLAC__metadata_object_cuesheet_track_clone.function,FLAC__metadata_object_cuesheet_track_clone
FLAC__metadata_object_cuesheet_track_clone:
.Lfunc_begin32:
	.loc	4 1467 0
	.cfi_startproc
	.issue_mode dual
	{
		nop
		dualentsp 8
	}
.Ltmp1048:
	.cfi_def_cfa_offset 32
.Ltmp1049:
	.cfi_offset 15, 0
	std r5, r4, sp[1]
.Ltmp1050:
	.cfi_offset 4, -24
.Ltmp1051:
	.cfi_offset 5, -20
	std r7, r6, sp[2]
.Ltmp1052:
	.cfi_offset 6, -16
.Ltmp1053:
	.cfi_offset 7, -12
.Ltmp1054:
	.cfi_offset 8, -8
.Ltmp1055:
	{
		mov r5, r0
		stw r8, sp[6]
	}
.Ltmp1056:
	{
		mkmsk r0, 1
		ldc r1, 32
	}
	.loc	4 1463 9 prologue_end
.Ltmp1057:
	bl calloc
	{
		mov r4, r0
		ldc r7, 0
	}
	bf r4, .LBB32_7
.Ltmp1058:
	{
		ldc r2, 32
		mov r0, r4
	}
	.loc	4 150 2
.Ltmp1059:
	{
		mov r1, r5
		nop
	}
	bl __memcpy_4
	{
		nop
		ldw r0, r5[6]
	}
	bf r0, .LBB32_8
.Ltmp1060:
	{
		ldc r8, 23
		nop
	}
	.loc	4 157 12
.Ltmp1061:
	{
		ldc r1, 16
		ld8u r0, r5[r8]
	}
	.loc	4 157 12
	bl safe_malloc_mul_2op_p
	{
		mov r6, r0
		nop
	}
	.loc	4 157 12
	bf r6, .LBB32_4
.Ltmp1062:
	.loc	4 157 12
	{
		add r0, r5, r8
		ldw r1, r5[6]
	}
.Ltmp1063:
	.loc	4 159 3
	{
		ldc r2, 0
		nop
	}
	{
		nop
		ld8u r0, r0[r2]
	}
	.loc	4 159 3
	{
		shl r2, r0, 4
		mov r0, r6
	}
	.loc	4 159 3
	bl __memcpy_4
	{
		nop
		stw r6, r4[6]
	}
	bu .LBB32_8
.Ltmp1064:
.LBB32_4:
	{
		nop
		ldw r0, r4[6]
	}
	bf r0, .LBB32_6
	.loc	4 1488 3
.Ltmp1065:
	bl free
.Ltmp1066:
.LBB32_6:
	.loc	4 1495 2
	{
		mov r0, r4
		nop
	}
	bl free
.Ltmp1067:
.LBB32_7:
	{
		mov r4, r7
		nop
	}
.LBB32_8:
	.loc	4 1480 1
	{
		mov r0, r4
		ldw r8, sp[6]
	}
	ldd r7, r6, sp[2]
	ldd r5, r4, sp[1]
	{
		nop
		retsp 8
	}
	# RETURN_REG_HOLDER
.Ltmp1068:
	.cc_bottom FLAC__metadata_object_cuesheet_track_clone.function
	.set	FLAC__metadata_object_cuesheet_track_clone.nstackwords,((calloc.nstackwords $M safe_malloc_mul_2op_p.nstackwords $M free.nstackwords $M __memcpy_4.nstackwords) + 8)
	.globl	FLAC__metadata_object_cuesheet_track_clone.nstackwords
	.set	FLAC__metadata_object_cuesheet_track_clone.maxcores,calloc.maxcores $M free.maxcores $M safe_malloc_mul_2op_p.maxcores $M 1
	.globl	FLAC__metadata_object_cuesheet_track_clone.maxcores
	.set	FLAC__metadata_object_cuesheet_track_clone.maxtimers,calloc.maxtimers $M free.maxtimers $M safe_malloc_mul_2op_p.maxtimers $M 0
	.globl	FLAC__metadata_object_cuesheet_track_clone.maxtimers
	.set	FLAC__metadata_object_cuesheet_track_clone.maxchanends,calloc.maxchanends $M free.maxchanends $M safe_malloc_mul_2op_p.maxchanends $M 0
	.globl	FLAC__metadata_object_cuesheet_track_clone.maxchanends
.Ltmp1069:
	.size	FLAC__metadata_object_cuesheet_track_clone, .Ltmp1069-FLAC__metadata_object_cuesheet_track_clone
.Lfunc_end32:
	.cfi_endproc

	.globl	FLAC__metadata_object_cuesheet_track_delete
	.align	4
	.type	FLAC__metadata_object_cuesheet_track_delete,@function
	.cc_top FLAC__metadata_object_cuesheet_track_delete.function,FLAC__metadata_object_cuesheet_track_delete
FLAC__metadata_object_cuesheet_track_delete:
.Lfunc_begin33:
	.loc	4 1493 0
	.cfi_startproc
	.issue_mode dual
	{
		nop
		dualentsp 4
	}
.Ltmp1070:
	.cfi_def_cfa_offset 16
.Ltmp1071:
	.cfi_offset 15, 0
.Ltmp1072:
	.cfi_offset 4, -8
.Ltmp1073:
	{
		mov r4, r0
		stw r4, sp[2]
	}
.Ltmp1074:
	{
		nop
		ldw r0, r4[6]
	}
	bf r0, .LBB33_2
.Ltmp1075:
	.loc	4 1488 3 prologue_end
	bl free
.Ltmp1076:
.LBB33_2:
	.loc	4 1495 2
	{
		mov r0, r4
		nop
	}
	bl free
	{
		nop
		ldw r4, sp[2]
	}
.Ltmp1077:
	{
		nop
		retsp 4
	}
	.loc	4 1496 1
	# RETURN_REG_HOLDER
.Ltmp1078:
	.cc_bottom FLAC__metadata_object_cuesheet_track_delete.function
	.set	FLAC__metadata_object_cuesheet_track_delete.nstackwords,(free.nstackwords + 4)
	.globl	FLAC__metadata_object_cuesheet_track_delete.nstackwords
	.set	FLAC__metadata_object_cuesheet_track_delete.maxcores,free.maxcores $M 1
	.globl	FLAC__metadata_object_cuesheet_track_delete.maxcores
	.set	FLAC__metadata_object_cuesheet_track_delete.maxtimers,free.maxtimers $M 0
	.globl	FLAC__metadata_object_cuesheet_track_delete.maxtimers
	.set	FLAC__metadata_object_cuesheet_track_delete.maxchanends,free.maxchanends $M 0
	.globl	FLAC__metadata_object_cuesheet_track_delete.maxchanends
.Ltmp1079:
	.size	FLAC__metadata_object_cuesheet_track_delete, .Ltmp1079-FLAC__metadata_object_cuesheet_track_delete
.Lfunc_end33:
	.cfi_endproc

	.globl	FLAC__metadata_object_cuesheet_track_delete_data
	.align	4
	.type	FLAC__metadata_object_cuesheet_track_delete_data,@function
	.cc_top FLAC__metadata_object_cuesheet_track_delete_data.function,FLAC__metadata_object_cuesheet_track_delete_data
FLAC__metadata_object_cuesheet_track_delete_data:
.Lfunc_begin34:
	.loc	4 1483 0
	.cfi_startproc
	.issue_mode dual
	{
		nop
		dualentsp 2
	}
.Ltmp1080:
	.cfi_def_cfa_offset 8
.Ltmp1081:
	.cfi_offset 15, 0
	{
		nop
		ldw r0, r0[6]
	}
.Ltmp1082:
	bf r0, .LBB34_2
	.loc	4 1488 3 prologue_end
.Ltmp1083:
	bl free
.Ltmp1084:
.LBB34_2:
	{
		nop
		retsp 2
	}
	.loc	4 1490 1
	# RETURN_REG_HOLDER
.Ltmp1085:
	.cc_bottom FLAC__metadata_object_cuesheet_track_delete_data.function
	.set	FLAC__metadata_object_cuesheet_track_delete_data.nstackwords,(free.nstackwords + 2)
	.globl	FLAC__metadata_object_cuesheet_track_delete_data.nstackwords
	.set	FLAC__metadata_object_cuesheet_track_delete_data.maxcores,free.maxcores $M 1
	.globl	FLAC__metadata_object_cuesheet_track_delete_data.maxcores
	.set	FLAC__metadata_object_cuesheet_track_delete_data.maxtimers,free.maxtimers $M 0
	.globl	FLAC__metadata_object_cuesheet_track_delete_data.maxtimers
	.set	FLAC__metadata_object_cuesheet_track_delete_data.maxchanends,free.maxchanends $M 0
	.globl	FLAC__metadata_object_cuesheet_track_delete_data.maxchanends
.Ltmp1086:
	.size	FLAC__metadata_object_cuesheet_track_delete_data, .Ltmp1086-FLAC__metadata_object_cuesheet_track_delete_data
.Lfunc_end34:
	.cfi_endproc

	.globl	FLAC__metadata_object_cuesheet_track_resize_indices
	.align	4
	.type	FLAC__metadata_object_cuesheet_track_resize_indices,@function
	.cc_top FLAC__metadata_object_cuesheet_track_resize_indices.function,FLAC__metadata_object_cuesheet_track_resize_indices
FLAC__metadata_object_cuesheet_track_resize_indices:
.Lfunc_begin35:
	.loc	4 1499 0
	.cfi_startproc
	.issue_mode dual
	{
		nop
		dualentsp 10
	}
.Ltmp1087:
	.cfi_def_cfa_offset 40
.Ltmp1088:
	.cfi_offset 15, 0
	std r5, r4, sp[1]
.Ltmp1089:
	.cfi_offset 4, -32
.Ltmp1090:
	.cfi_offset 5, -28
	std r7, r6, sp[2]
.Ltmp1091:
	.cfi_offset 6, -24
.Ltmp1092:
	.cfi_offset 7, -20
	std r9, r8, sp[3]
.Ltmp1093:
	.cfi_offset 8, -16
.Ltmp1094:
	.cfi_offset 9, -12
.Ltmp1095:
	.cfi_offset 10, -8
.Ltmp1096:
	{
		mov r5, r2
		stw r10, sp[8]
	}
.Ltmp1097:
	{
		mov r4, r0
		nop
	}
.Ltmp1098:
	ldc r0, 168
	.loc	4 1505 2 prologue_end
.Ltmp1099:
	{
		add r8, r4, r0
		nop
	}
	.loc	4 1505 2
	{
		shl r1, r1, 5
		ldw r0, r8[0]
	}
.Ltmp1100:
	.loc	4 1507 6
	{
		add r7, r0, r1
		nop
	}
	ldaw r10, r7[6]
	{
		nop
		ldw r0, r7[6]
	}
	.loc	4 1507 6
	bf r0, .LBB35_1
.Ltmp1101:
	{
		ldc r1, 28
		nop
	}
	.loc	4 1519 7
.Ltmp1102:
	{
		shr r1, r5, r1
		ldc r6, 0
	}
	bt r1, .LBB35_17
.Ltmp1103:
	{
		ldc r1, 23
		nop
	}
	.loc	4 1515 3
	{
		add r9, r7, r1
		ld8u r1, r7[r1]
	}
.Ltmp1104:
	.loc	4 1515 3
	{
		shl r1, r1, 4
		shl r7, r5, 4
	}
.Ltmp1105:
	.loc	4 1524 7
	bf r7, .LBB35_8
.Ltmp1106:
	{
		mov r1, r7
		stw r1, sp[1]
	}
	.loc	4 1531 18
.Ltmp1107:
	bl realloc
	bf r0, .LBB35_17
.Ltmp1108:
	{
		nop
		ldw r3, sp[1]
	}
	bu .LBB35_11
.Ltmp1109:
.LBB35_1:
	.loc	4 1509 7
	bf r5, .LBB35_2
.Ltmp1110:
	{
		ldc r1, 16
		mov r0, r5
	}
	.loc	5 121 9
.Ltmp1111:
	bl calloc
	{
		nop
		stw r0, r10[0]
	}
.Ltmp1112:
	.loc	4 1511 30
	bf r0, .LBB35_4
.Ltmp1113:
	{
		ldc r0, 23
		nop
	}
	.loc	4 1541 2
	{
		add r9, r7, r0
		nop
	}
	bu .LBB35_13
.Ltmp1114:
.LBB35_2:
	{
		mkmsk r6, 1
		nop
	}
	bu .LBB35_17
.LBB35_8:
.Ltmp1115:
	{
		mov r6, r1
		nop
	}
.Ltmp1116:
	.loc	4 1525 4
	bl free
.Ltmp1117:
	{
		mov r3, r6
		ldc r0, 0
	}
.Ltmp1118:
.LBB35_11:
	.loc	4 1526 4
	{
		lsu r1, r3, r7
		stw r0, r10[0]
	}
	bf r1, .LBB35_13
.Ltmp1119:
	.loc	4 1538 4
	{
		ldc r1, 0
		nop
	}
	{
		nop
		ld8u r2, r9[r1]
	}
	.loc	4 1538 4
	{
		shl r2, r2, 4
		nop
	}
	{
		add r0, r0, r2
		sub r2, r7, r3
	}
	.loc	4 1538 4
	bl memset
.Ltmp1120:
.LBB35_13:
	.loc	4 1541 2
	{
		ldc r0, 0
		nop
	}
	st8 r5, r9[r0]
.Ltmp1121:
	.loc	4 317 2
	ldw r1, cp[FLAC__STREAM_METADATA_CUESHEET_MEDIA_CATALOG_NUMBER_LEN]
	.loc	4 317 2
	ldw r2, cp[FLAC__STREAM_METADATA_CUESHEET_LEAD_IN_LEN]
	.loc	4 317 2
	{
		add r1, r2, r1
		nop
	}
	.loc	4 317 2
	ldw r2, cp[FLAC__STREAM_METADATA_CUESHEET_IS_CD_LEN]
	.loc	4 317 2
	{
		add r1, r1, r2
		nop
	}
	.loc	4 317 2
	ldw r2, cp[FLAC__STREAM_METADATA_CUESHEET_RESERVED_LEN]
	.loc	4 317 2
	{
		add r1, r1, r2
		nop
	}
	.loc	4 317 2
	ldw r2, cp[FLAC__STREAM_METADATA_CUESHEET_NUM_TRACKS_LEN]
	.loc	4 317 2
	{
		add r1, r1, r2
		nop
	}
	.loc	4 317 2
	{
		shr r2, r1, 3
		nop
	}
	ldc r1, 164
	.loc	4 325 2
	{
		add r1, r4, r1
		nop
	}
	{
		nop
		ldw r1, r1[0]
	}
	.loc	4 325 2
	ldw r3, cp[FLAC__STREAM_METADATA_CUESHEET_TRACK_OFFSET_LEN]
	.loc	4 325 2
	ldw r11, cp[FLAC__STREAM_METADATA_CUESHEET_TRACK_NUMBER_LEN]
	.loc	4 325 2
	{
		add r3, r11, r3
		nop
	}
	.loc	4 325 2
	ldw r11, cp[FLAC__STREAM_METADATA_CUESHEET_TRACK_ISRC_LEN]
	.loc	4 325 2
	{
		add r3, r3, r11
		nop
	}
	.loc	4 325 2
	ldw r11, cp[FLAC__STREAM_METADATA_CUESHEET_TRACK_TYPE_LEN]
	.loc	4 325 2
	{
		add r3, r3, r11
		nop
	}
	.loc	4 325 2
	ldw r11, cp[FLAC__STREAM_METADATA_CUESHEET_TRACK_PRE_EMPHASIS_LEN]
	.loc	4 325 2
	{
		add r3, r3, r11
		nop
	}
	.loc	4 325 2
	ldw r11, cp[FLAC__STREAM_METADATA_CUESHEET_TRACK_RESERVED_LEN]
	.loc	4 325 2
	{
		add r3, r3, r11
		nop
	}
	.loc	4 325 2
	ldw r11, cp[FLAC__STREAM_METADATA_CUESHEET_TRACK_NUM_INDICES_LEN]
	.loc	4 325 2
	{
		add r3, r3, r11
		nop
	}
	.loc	4 325 2
	mul r3, r3, r1
	.loc	4 325 2
	{
		shr r3, r3, 3
		nop
	}
	.loc	4 325 2
	{
		add r2, r3, r2
		nop
	}
.Ltmp1122:
	.loc	4 325 2
	{
		mkmsk r6, 1
		stw r2, r4[2]
	}
	bf r1, .LBB35_17
.Ltmp1123:
	{
		nop
		ldw r11, r8[0]
	}
	.loc	4 336 3
.Ltmp1124:
	ldw r3, cp[FLAC__STREAM_METADATA_CUESHEET_INDEX_OFFSET_LEN]
	.loc	4 336 3
	ldw r5, cp[FLAC__STREAM_METADATA_CUESHEET_INDEX_NUMBER_LEN]
	.loc	4 336 3
	{
		add r3, r5, r3
		nop
	}
	.loc	4 336 3
	ldw r5, cp[FLAC__STREAM_METADATA_CUESHEET_INDEX_RESERVED_LEN]
	.loc	4 336 3
	{
		add r3, r3, r5
		ldc r5, 23
	}
	{
		add r11, r11, r5
		nop
	}
.Ltmp1125:
.LBB35_15:
	{
		nop
		ld8u r5, r11[r0]
	}
	.loc	4 336 3
	mul r5, r5, r3
	.loc	4 336 3
	{
		shr r5, r5, 3
		nop
	}
	.loc	4 336 3
	{
		add r2, r5, r2
		sub r1, r1, 1
	}
.Ltmp1126:
	.loc	4 335 2
	ldaw r11, r11[8]
	.loc	4 335 2
	bt r1, .LBB35_15
.Ltmp1127:
	{
		nop
		stw r2, r4[2]
	}
	bu .LBB35_17
.Ltmp1128:
.LBB35_4:
	{
		ldc r6, 0
		nop
	}
.LBB35_17:
	.loc	4 1545 1
	{
		mov r0, r6
		ldw r10, sp[8]
	}
	ldd r9, r8, sp[3]
	ldd r7, r6, sp[2]
	ldd r5, r4, sp[1]
	{
		nop
		retsp 10
	}
	# RETURN_REG_HOLDER
.Ltmp1129:
	.cc_bottom FLAC__metadata_object_cuesheet_track_resize_indices.function
	.set	FLAC__metadata_object_cuesheet_track_resize_indices.nstackwords,((calloc.nstackwords $M free.nstackwords $M memset.nstackwords $M realloc.nstackwords) + 10)
	.globl	FLAC__metadata_object_cuesheet_track_resize_indices.nstackwords
	.set	FLAC__metadata_object_cuesheet_track_resize_indices.maxcores,calloc.maxcores $M free.maxcores $M realloc.maxcores $M 1
	.globl	FLAC__metadata_object_cuesheet_track_resize_indices.maxcores
	.set	FLAC__metadata_object_cuesheet_track_resize_indices.maxtimers,calloc.maxtimers $M free.maxtimers $M realloc.maxtimers $M 0
	.globl	FLAC__metadata_object_cuesheet_track_resize_indices.maxtimers
	.set	FLAC__metadata_object_cuesheet_track_resize_indices.maxchanends,calloc.maxchanends $M free.maxchanends $M realloc.maxchanends $M 0
	.globl	FLAC__metadata_object_cuesheet_track_resize_indices.maxchanends
.Ltmp1130:
	.size	FLAC__metadata_object_cuesheet_track_resize_indices, .Ltmp1130-FLAC__metadata_object_cuesheet_track_resize_indices
.Lfunc_end35:
	.cfi_endproc

	.section	.cp.rodata.cst4,"aMc",@progbits,4
	.cc_top .LCPI36_0.data,.LCPI36_0
	.align	4
	.type	.LCPI36_0,@object
	.size	.LCPI36_0, 4
.LCPI36_0:
	.long	268435455
	.cc_bottom .LCPI36_0.data
	.text
	.globl	FLAC__metadata_object_cuesheet_track_insert_index
	.align	4
	.type	FLAC__metadata_object_cuesheet_track_insert_index,@function
	.cc_top FLAC__metadata_object_cuesheet_track_insert_index.function,FLAC__metadata_object_cuesheet_track_insert_index
FLAC__metadata_object_cuesheet_track_insert_index:
.Lfunc_begin36:
	.loc	4 1548 0
	.cfi_startproc
	.issue_mode dual
	{
		nop
		dualentsp 14
	}
.Ltmp1131:
	.cfi_def_cfa_offset 56
.Ltmp1132:
	.cfi_offset 15, 0
	std r5, r4, sp[3]
.Ltmp1133:
	.cfi_offset 4, -32
.Ltmp1134:
	.cfi_offset 5, -28
	std r7, r6, sp[4]
.Ltmp1135:
	.cfi_offset 6, -24
.Ltmp1136:
	.cfi_offset 7, -20
	std r9, r8, sp[5]
.Ltmp1137:
	.cfi_offset 8, -16
.Ltmp1138:
	.cfi_offset 9, -12
.Ltmp1139:
	.cfi_offset 10, -8
.Ltmp1140:
	{
		mov r6, r2
		stw r10, sp[12]
	}
.Ltmp1141:
	{
		mov r7, r1
		mov r4, r0
	}
.Ltmp1142:
	{
		ldaw r5, sp[2]
		ldc r2, 16
	}
	{
		mov r0, r5
		mov r1, r3
	}
	bl __memcpy_4
	ldc r0, 168
	.loc	4 1556 2 prologue_end
.Ltmp1143:
	{
		add r9, r4, r0
		nop
	}
	.loc	4 1556 2
	{
		shl r1, r7, 5
		ldw r0, r9[0]
	}
	.loc	4 1558 7
.Ltmp1144:
	{
		add r10, r0, r1
		ldc r8, 23
	}
	{
		nop
		ld8u r0, r10[r8]
	}
	.loc	4 1558 7
	{
		add r2, r0, 1
		mov r0, r4
	}
	.loc	4 1558 7
	{
		mov r1, r7
		nop
	}
	bl FLAC__metadata_object_cuesheet_track_resize_indices
	.loc	4 1558 7
	bf r0, .LBB36_1
.Ltmp1145:
	.loc	4 1558 7
	{
		add r2, r10, r8
		ldw r0, r10[6]
	}
.Ltmp1146:
	.loc	4 1562 2
	{
		shl r8, r6, 4
		nop
	}
	{
		add r1, r0, r8
		nop
	}
	.loc	4 1562 2
	ldaw r0, r1[4]
	.loc	4 1562 2
	{
		ldc r7, 0
		nop
	}
	{
		nop
		ld8u r2, r2[r7]
	}
	ldw r3, cp[.LCPI36_0]
	.loc	4 1562 2
	{
		sub r3, r3, r6
		nop
	}
	.loc	4 1562 2
	{
		add r2, r3, r2
		nop
	}
	.loc	4 1562 2
	{
		shl r2, r2, 4
		nop
	}
	.loc	4 1562 2
	bl memmove
	{
		nop
		ldw r0, r10[6]
	}
	.loc	4 1564 2
	{
		add r0, r0, r8
		ldc r2, 16
	}
	.loc	4 1564 2
	{
		mov r1, r5
		nop
	}
	bl __memcpy_4
.Ltmp1147:
	.loc	4 317 2
	ldw r0, cp[FLAC__STREAM_METADATA_CUESHEET_MEDIA_CATALOG_NUMBER_LEN]
	.loc	4 317 2
	ldw r1, cp[FLAC__STREAM_METADATA_CUESHEET_LEAD_IN_LEN]
	.loc	4 317 2
	{
		add r0, r1, r0
		nop
	}
	.loc	4 317 2
	ldw r1, cp[FLAC__STREAM_METADATA_CUESHEET_IS_CD_LEN]
	.loc	4 317 2
	{
		add r0, r0, r1
		nop
	}
	.loc	4 317 2
	ldw r1, cp[FLAC__STREAM_METADATA_CUESHEET_RESERVED_LEN]
	.loc	4 317 2
	{
		add r0, r0, r1
		nop
	}
	.loc	4 317 2
	ldw r1, cp[FLAC__STREAM_METADATA_CUESHEET_NUM_TRACKS_LEN]
	.loc	4 317 2
	{
		add r0, r0, r1
		nop
	}
	.loc	4 317 2
	{
		shr r0, r0, 3
		nop
	}
	ldc r1, 164
	.loc	4 325 2
	{
		add r1, r4, r1
		nop
	}
	{
		nop
		ldw r1, r1[0]
	}
	.loc	4 325 2
	ldw r2, cp[FLAC__STREAM_METADATA_CUESHEET_TRACK_OFFSET_LEN]
	.loc	4 325 2
	ldw r3, cp[FLAC__STREAM_METADATA_CUESHEET_TRACK_NUMBER_LEN]
	.loc	4 325 2
	{
		add r2, r3, r2
		nop
	}
	.loc	4 325 2
	ldw r3, cp[FLAC__STREAM_METADATA_CUESHEET_TRACK_ISRC_LEN]
	.loc	4 325 2
	{
		add r2, r2, r3
		nop
	}
	.loc	4 325 2
	ldw r3, cp[FLAC__STREAM_METADATA_CUESHEET_TRACK_TYPE_LEN]
	.loc	4 325 2
	{
		add r2, r2, r3
		nop
	}
	.loc	4 325 2
	ldw r3, cp[FLAC__STREAM_METADATA_CUESHEET_TRACK_PRE_EMPHASIS_LEN]
	.loc	4 325 2
	{
		add r2, r2, r3
		nop
	}
	.loc	4 325 2
	ldw r3, cp[FLAC__STREAM_METADATA_CUESHEET_TRACK_RESERVED_LEN]
	.loc	4 325 2
	{
		add r2, r2, r3
		nop
	}
	.loc	4 325 2
	ldw r3, cp[FLAC__STREAM_METADATA_CUESHEET_TRACK_NUM_INDICES_LEN]
	.loc	4 325 2
	{
		add r2, r2, r3
		nop
	}
	.loc	4 325 2
	mul r2, r2, r1
	.loc	4 325 2
	{
		shr r2, r2, 3
		nop
	}
	.loc	4 325 2
	{
		add r2, r2, r0
		nop
	}
.Ltmp1148:
	.loc	4 325 2
	{
		mkmsk r0, 1
		stw r2, r4[2]
	}
	bf r1, .LBB36_6
.Ltmp1149:
	{
		nop
		ldw r11, r9[0]
	}
	.loc	4 336 3
.Ltmp1150:
	ldw r3, cp[FLAC__STREAM_METADATA_CUESHEET_INDEX_OFFSET_LEN]
	.loc	4 336 3
	ldw r5, cp[FLAC__STREAM_METADATA_CUESHEET_INDEX_NUMBER_LEN]
	.loc	4 336 3
	{
		add r3, r5, r3
		nop
	}
	.loc	4 336 3
	ldw r5, cp[FLAC__STREAM_METADATA_CUESHEET_INDEX_RESERVED_LEN]
	.loc	4 336 3
	{
		add r3, r3, r5
		ldc r5, 23
	}
	{
		add r11, r11, r5
		nop
	}
.Ltmp1151:
.LBB36_4:
	{
		nop
		ld8u r5, r11[r7]
	}
	.loc	4 336 3
	mul r5, r5, r3
	.loc	4 336 3
	{
		shr r5, r5, 3
		nop
	}
	.loc	4 336 3
	{
		add r2, r5, r2
		sub r1, r1, 1
	}
.Ltmp1152:
	.loc	4 335 2
	ldaw r11, r11[8]
	.loc	4 335 2
	bt r1, .LBB36_4
.Ltmp1153:
	{
		nop
		stw r2, r4[2]
	}
	bu .LBB36_6
.Ltmp1154:
.LBB36_1:
	{
		ldc r0, 0
		nop
	}
.Ltmp1155:
.LBB36_6:
	{
		nop
		ldw r10, sp[12]
	}
	.loc	4 1567 1
	ldd r9, r8, sp[5]
	ldd r7, r6, sp[4]
	ldd r5, r4, sp[3]
	{
		nop
		retsp 14
	}
.Ltmp1156:
	# RETURN_REG_HOLDER
.Ltmp1157:
	.cc_bottom FLAC__metadata_object_cuesheet_track_insert_index.function
	.set	FLAC__metadata_object_cuesheet_track_insert_index.nstackwords,((FLAC__metadata_object_cuesheet_track_resize_indices.nstackwords $M memmove.nstackwords $M __memcpy_4.nstackwords) + 14)
	.globl	FLAC__metadata_object_cuesheet_track_insert_index.nstackwords
	.set	FLAC__metadata_object_cuesheet_track_insert_index.maxcores,FLAC__metadata_object_cuesheet_track_resize_indices.maxcores $M 1
	.globl	FLAC__metadata_object_cuesheet_track_insert_index.maxcores
	.set	FLAC__metadata_object_cuesheet_track_insert_index.maxtimers,FLAC__metadata_object_cuesheet_track_resize_indices.maxtimers $M 0
	.globl	FLAC__metadata_object_cuesheet_track_insert_index.maxtimers
	.set	FLAC__metadata_object_cuesheet_track_insert_index.maxchanends,FLAC__metadata_object_cuesheet_track_resize_indices.maxchanends $M 0
	.globl	FLAC__metadata_object_cuesheet_track_insert_index.maxchanends
.Ltmp1158:
	.size	FLAC__metadata_object_cuesheet_track_insert_index, .Ltmp1158-FLAC__metadata_object_cuesheet_track_insert_index
.Lfunc_end36:
	.cfi_endproc

	.globl	FLAC__metadata_object_cuesheet_track_insert_blank_index
	.align	4
	.type	FLAC__metadata_object_cuesheet_track_insert_blank_index,@function
	.cc_top FLAC__metadata_object_cuesheet_track_insert_blank_index.function,FLAC__metadata_object_cuesheet_track_insert_blank_index
FLAC__metadata_object_cuesheet_track_insert_blank_index:
.Lfunc_begin37:
	.loc	4 1570 0
	.cfi_startproc
	.issue_mode dual
	{
		nop
		dualentsp 8
	}
.Ltmp1159:
	.cfi_def_cfa_offset 32
.Ltmp1160:
	.cfi_offset 15, 0
.Ltmp1161:
	.cfi_offset 4, -8
	{
		ldc r11, 4
		stw r4, sp[6]
	}
	{
		ldaw r3, sp[2]
		nop
	}
.Ltmp1162:
	.loc	4 1572 2 prologue_end
	{
		or r11, r3, r11
		ldc r4, 0
	}
	{
		nop
		stw r4, r11[0]
	}
	{
		nop
		stw r4, sp[5]
	}
	{
		nop
		stw r4, sp[4]
	}
	{
		nop
		stw r4, sp[2]
	}
	.loc	4 1573 9
	bl FLAC__metadata_object_cuesheet_track_insert_index
.Ltmp1163:
	{
		nop
		ldw r4, sp[6]
	}
	{
		nop
		retsp 8
	}
	.loc	4 1573 9
	# RETURN_REG_HOLDER
.Ltmp1164:
	.cc_bottom FLAC__metadata_object_cuesheet_track_insert_blank_index.function
	.set	FLAC__metadata_object_cuesheet_track_insert_blank_index.nstackwords,(FLAC__metadata_object_cuesheet_track_insert_index.nstackwords + 8)
	.globl	FLAC__metadata_object_cuesheet_track_insert_blank_index.nstackwords
	.set	FLAC__metadata_object_cuesheet_track_insert_blank_index.maxcores,FLAC__metadata_object_cuesheet_track_insert_index.maxcores $M 1
	.globl	FLAC__metadata_object_cuesheet_track_insert_blank_index.maxcores
	.set	FLAC__metadata_object_cuesheet_track_insert_blank_index.maxtimers,FLAC__metadata_object_cuesheet_track_insert_index.maxtimers $M 0
	.globl	FLAC__metadata_object_cuesheet_track_insert_blank_index.maxtimers
	.set	FLAC__metadata_object_cuesheet_track_insert_blank_index.maxchanends,FLAC__metadata_object_cuesheet_track_insert_index.maxchanends $M 0
	.globl	FLAC__metadata_object_cuesheet_track_insert_blank_index.maxchanends
.Ltmp1165:
	.size	FLAC__metadata_object_cuesheet_track_insert_blank_index, .Ltmp1165-FLAC__metadata_object_cuesheet_track_insert_blank_index
.Lfunc_end37:
	.cfi_endproc

	.globl	FLAC__metadata_object_cuesheet_track_delete_index
	.align	4
	.type	FLAC__metadata_object_cuesheet_track_delete_index,@function
	.cc_top FLAC__metadata_object_cuesheet_track_delete_index.function,FLAC__metadata_object_cuesheet_track_delete_index
FLAC__metadata_object_cuesheet_track_delete_index:
.Lfunc_begin38:
	.loc	4 1577 0
	.cfi_startproc
	.issue_mode dual
	{
		nop
		dualentsp 8
	}
.Ltmp1166:
	.cfi_def_cfa_offset 32
.Ltmp1167:
	.cfi_offset 15, 0
	std r5, r4, sp[1]
.Ltmp1168:
	.cfi_offset 4, -24
.Ltmp1169:
	.cfi_offset 5, -20
	std r7, r6, sp[2]
.Ltmp1170:
	.cfi_offset 6, -16
.Ltmp1171:
	.cfi_offset 7, -12
.Ltmp1172:
	.cfi_offset 8, -8
.Ltmp1173:
	{
		mov r5, r1
		stw r8, sp[6]
	}
.Ltmp1174:
	{
		mov r4, r0
		nop
	}
.Ltmp1175:
	ldc r0, 168
	.loc	4 1585 2 prologue_end
.Ltmp1176:
	{
		add r6, r4, r0
		nop
	}
	.loc	4 1585 2
	{
		shl r1, r5, 5
		ldw r0, r6[0]
	}
	.loc	4 1588 2
	{
		add r8, r0, r1
		nop
	}
	.loc	4 1588 2
	{
		shl r1, r2, 4
		ldw r0, r8[6]
	}
	.loc	4 1588 2
	{
		add r0, r0, r1
		nop
	}
	.loc	4 1588 2
	ldaw r1, r0[4]
	{
		ldc r7, 23
		nop
	}
	{
		nop
		ld8u r3, r8[r7]
	}
	.loc	4 1588 2
	{
		sub r2, r3, r2
		nop
	}
.Ltmp1177:
	.loc	4 1588 2
	{
		shl r2, r2, 4
		nop
	}
	.loc	4 1588 2
	ldaw r2, r2[-4]
	.loc	4 1588 2
	bl memmove
	{
		nop
		ld8u r0, r8[r7]
	}
	.loc	4 1590 2
	{
		sub r2, r0, 1
		mov r0, r4
	}
	.loc	4 1590 2
	{
		mov r1, r5
		nop
	}
	bl FLAC__metadata_object_cuesheet_track_resize_indices
	.loc	4 317 2
.Ltmp1178:
	ldw r0, cp[FLAC__STREAM_METADATA_CUESHEET_MEDIA_CATALOG_NUMBER_LEN]
	.loc	4 317 2
	ldw r1, cp[FLAC__STREAM_METADATA_CUESHEET_LEAD_IN_LEN]
	.loc	4 317 2
	{
		add r0, r1, r0
		nop
	}
	.loc	4 317 2
	ldw r1, cp[FLAC__STREAM_METADATA_CUESHEET_IS_CD_LEN]
	.loc	4 317 2
	{
		add r0, r0, r1
		nop
	}
	.loc	4 317 2
	ldw r1, cp[FLAC__STREAM_METADATA_CUESHEET_RESERVED_LEN]
	.loc	4 317 2
	{
		add r0, r0, r1
		nop
	}
	.loc	4 317 2
	ldw r1, cp[FLAC__STREAM_METADATA_CUESHEET_NUM_TRACKS_LEN]
	.loc	4 317 2
	{
		add r0, r0, r1
		nop
	}
	.loc	4 317 2
	{
		shr r1, r0, 3
		nop
	}
	ldc r0, 164
	.loc	4 325 2
	{
		add r0, r4, r0
		nop
	}
	{
		nop
		ldw r0, r0[0]
	}
	.loc	4 325 2
	ldw r2, cp[FLAC__STREAM_METADATA_CUESHEET_TRACK_OFFSET_LEN]
	.loc	4 325 2
	ldw r3, cp[FLAC__STREAM_METADATA_CUESHEET_TRACK_NUMBER_LEN]
	.loc	4 325 2
	{
		add r2, r3, r2
		nop
	}
	.loc	4 325 2
	ldw r3, cp[FLAC__STREAM_METADATA_CUESHEET_TRACK_ISRC_LEN]
	.loc	4 325 2
	{
		add r2, r2, r3
		nop
	}
	.loc	4 325 2
	ldw r3, cp[FLAC__STREAM_METADATA_CUESHEET_TRACK_TYPE_LEN]
	.loc	4 325 2
	{
		add r2, r2, r3
		nop
	}
	.loc	4 325 2
	ldw r3, cp[FLAC__STREAM_METADATA_CUESHEET_TRACK_PRE_EMPHASIS_LEN]
	.loc	4 325 2
	{
		add r2, r2, r3
		nop
	}
	.loc	4 325 2
	ldw r3, cp[FLAC__STREAM_METADATA_CUESHEET_TRACK_RESERVED_LEN]
	.loc	4 325 2
	{
		add r2, r2, r3
		nop
	}
	.loc	4 325 2
	ldw r3, cp[FLAC__STREAM_METADATA_CUESHEET_TRACK_NUM_INDICES_LEN]
	.loc	4 325 2
	{
		add r2, r2, r3
		nop
	}
	.loc	4 325 2
	mul r2, r2, r0
	.loc	4 325 2
	{
		shr r2, r2, 3
		nop
	}
	.loc	4 325 2
	{
		add r1, r2, r1
		nop
	}
.Ltmp1179:
	{
		nop
		stw r1, r4[2]
	}
	bf r0, .LBB38_4
.Ltmp1180:
	{
		nop
		ldw r3, r6[0]
	}
	.loc	4 336 3
.Ltmp1181:
	ldw r2, cp[FLAC__STREAM_METADATA_CUESHEET_INDEX_OFFSET_LEN]
	.loc	4 336 3
	ldw r11, cp[FLAC__STREAM_METADATA_CUESHEET_INDEX_NUMBER_LEN]
	.loc	4 336 3
	{
		add r2, r11, r2
		nop
	}
	.loc	4 336 3
	ldw r11, cp[FLAC__STREAM_METADATA_CUESHEET_INDEX_RESERVED_LEN]
	.loc	4 336 3
	{
		add r2, r2, r11
		add r3, r3, r7
	}
	.loc	4 336 3
	{
		ldc r11, 0
		nop
	}
.Ltmp1182:
.LBB38_2:
	{
		nop
		ld8u r5, r3[r11]
	}
	.loc	4 336 3
	mul r5, r5, r2
	.loc	4 336 3
	{
		shr r5, r5, 3
		nop
	}
	.loc	4 336 3
	{
		add r1, r5, r1
		sub r0, r0, 1
	}
.Ltmp1183:
	.loc	4 335 2
	ldaw r3, r3[8]
	.loc	4 335 2
	bt r0, .LBB38_2
.Ltmp1184:
	{
		nop
		stw r1, r4[2]
	}
.Ltmp1185:
.LBB38_4:
	{
		mkmsk r0, 1
		ldw r8, sp[6]
	}
	.loc	4 1592 2
	ldd r7, r6, sp[2]
	ldd r5, r4, sp[1]
	{
		nop
		retsp 8
	}
	# RETURN_REG_HOLDER
.Ltmp1186:
	.cc_bottom FLAC__metadata_object_cuesheet_track_delete_index.function
	.set	FLAC__metadata_object_cuesheet_track_delete_index.nstackwords,((memmove.nstackwords $M FLAC__metadata_object_cuesheet_track_resize_indices.nstackwords) + 8)
	.globl	FLAC__metadata_object_cuesheet_track_delete_index.nstackwords
	.set	FLAC__metadata_object_cuesheet_track_delete_index.maxcores,FLAC__metadata_object_cuesheet_track_resize_indices.maxcores $M 1
	.globl	FLAC__metadata_object_cuesheet_track_delete_index.maxcores
	.set	FLAC__metadata_object_cuesheet_track_delete_index.maxtimers,FLAC__metadata_object_cuesheet_track_resize_indices.maxtimers $M 0
	.globl	FLAC__metadata_object_cuesheet_track_delete_index.maxtimers
	.set	FLAC__metadata_object_cuesheet_track_delete_index.maxchanends,FLAC__metadata_object_cuesheet_track_resize_indices.maxchanends $M 0
	.globl	FLAC__metadata_object_cuesheet_track_delete_index.maxchanends
.Ltmp1187:
	.size	FLAC__metadata_object_cuesheet_track_delete_index, .Ltmp1187-FLAC__metadata_object_cuesheet_track_delete_index
.Lfunc_end38:
	.cfi_endproc

	.globl	FLAC__metadata_object_cuesheet_resize_tracks
	.align	4
	.type	FLAC__metadata_object_cuesheet_resize_tracks,@function
	.cc_top FLAC__metadata_object_cuesheet_resize_tracks.function,FLAC__metadata_object_cuesheet_resize_tracks
FLAC__metadata_object_cuesheet_resize_tracks:
.Lfunc_begin39:
	.loc	4 1596 0
	.cfi_startproc
	.issue_mode dual
	{
		nop
		dualentsp 12
	}
.Ltmp1188:
	.cfi_def_cfa_offset 48
.Ltmp1189:
	.cfi_offset 15, 0
	std r5, r4, sp[2]
.Ltmp1190:
	.cfi_offset 4, -32
.Ltmp1191:
	.cfi_offset 5, -28
	std r7, r6, sp[3]
.Ltmp1192:
	.cfi_offset 6, -24
.Ltmp1193:
	.cfi_offset 7, -20
	std r9, r8, sp[4]
.Ltmp1194:
	.cfi_offset 8, -16
.Ltmp1195:
	.cfi_offset 9, -12
.Ltmp1196:
	.cfi_offset 10, -8
.Ltmp1197:
	{
		mov r4, r1
		stw r10, sp[10]
	}
.Ltmp1198:
	{
		mov r5, r0
		nop
	}
.Ltmp1199:
	ldc r0, 168
	.loc	4 1600 6 prologue_end
.Ltmp1200:
	{
		add r10, r5, r0
		nop
	}
	{
		nop
		ldw r0, r10[0]
	}
	.loc	4 1600 6
	bf r0, .LBB39_1
.Ltmp1201:
	{
		ldc r1, 27
		nop
	}
	.loc	4 1612 7
.Ltmp1202:
	{
		shr r1, r4, r1
		ldc r6, 0
	}
	bt r1, .LBB39_20
.Ltmp1203:
	ldc r1, 164
.Ltmp1204:
	.loc	4 1608 3
	{
		add r9, r5, r1
		stw r5, sp[2]
	}
.Ltmp1205:
	.loc	4 1608 3
	{
		shl r2, r4, 5
		ldw r7, r9[0]
	}
.Ltmp1206:
	.loc	4 1618 7
	{
		lsu r1, r4, r7
		nop
	}
	bf r1, .LBB39_8
.Ltmp1207:
	{
		ldc r1, 24
		stw r2, sp[3]
	}
.Ltmp1208:
	.loc	4 1621 5
	{
		or r8, r2, r1
		mov r5, r4
	}
.Ltmp1209:
.LBB39_10:
	{
		add r0, r0, r8
		nop
	}
	{
		nop
		ldw r0, r0[0]
	}
	.loc	4 1621 5
	bl free
.Ltmp1210:
	.loc	4 1620 68
	{
		add r5, r5, 1
		ldw r1, r9[0]
	}
.Ltmp1211:
	{
		nop
		ldw r0, r10[0]
	}
	.loc	4 1620 4
	ldaw r8, r8[8]
	.loc	4 1620 4
	{
		lsu r1, r5, r1
		nop
	}
	bt r1, .LBB39_10
	bu .LBB39_11
.Ltmp1212:
.LBB39_1:
	.loc	4 1602 7
	bf r4, .LBB39_2
.Ltmp1213:
	{
		ldc r1, 32
		mov r0, r4
	}
	.loc	5 121 9
.Ltmp1214:
	bl calloc
	{
		mov r7, r0
		nop
	}
	{
		nop
		stw r7, r10[0]
	}
.Ltmp1215:
	.loc	4 1604 45
	bf r7, .LBB39_4
.Ltmp1216:
	ldc r0, 164
	.loc	4 1641 2
	{
		add r9, r5, r0
		nop
	}
	bu .LBB39_16
.Ltmp1217:
.LBB39_8:
	{
		nop
		stw r2, sp[3]
	}
.Ltmp1218:
.LBB39_11:
	.loc	4 1608 3
	{
		shl r5, r7, 5
		ldw r8, sp[3]
	}
.Ltmp1219:
	.loc	4 1624 7
	bf r8, .LBB39_12
.Ltmp1220:
	.loc	4 1631 18
	{
		mov r1, r8
		nop
	}
	bl realloc
	{
		mov r7, r0
		nop
	}
	bt r7, .LBB39_14
	bu .LBB39_20
.Ltmp1221:
.LBB39_2:
	{
		mkmsk r6, 1
		nop
	}
	bu .LBB39_20
.LBB39_12:
.Ltmp1222:
	.loc	4 1625 4
	bl free
	{
		ldc r7, 0
		nop
	}
.Ltmp1223:
.LBB39_14:
	.loc	4 1626 4
	{
		lsu r0, r5, r8
		stw r7, r10[0]
	}
.Ltmp1224:
	{
		mov r1, r5
		ldw r5, sp[2]
	}
.Ltmp1225:
	bf r0, .LBB39_16
.Ltmp1226:
	{
		nop
		ldw r0, r9[0]
	}
	.loc	4 1638 4
.Ltmp1227:
	{
		shl r0, r0, 5
		nop
	}
	{
		add r0, r7, r0
		sub r2, r8, r1
	}
	{
		ldc r1, 0
		nop
	}
.Ltmp1228:
	.loc	4 1638 4
	bl memset
.Ltmp1229:
.LBB39_16:
	{
		nop
		stw r4, r9[0]
	}
	.loc	4 317 2
.Ltmp1230:
	ldw r0, cp[FLAC__STREAM_METADATA_CUESHEET_MEDIA_CATALOG_NUMBER_LEN]
	.loc	4 317 2
	ldw r1, cp[FLAC__STREAM_METADATA_CUESHEET_LEAD_IN_LEN]
	.loc	4 317 2
	{
		add r0, r1, r0
		nop
	}
	.loc	4 317 2
	ldw r1, cp[FLAC__STREAM_METADATA_CUESHEET_IS_CD_LEN]
	.loc	4 317 2
	{
		add r0, r0, r1
		nop
	}
	.loc	4 317 2
	ldw r1, cp[FLAC__STREAM_METADATA_CUESHEET_RESERVED_LEN]
	.loc	4 317 2
	{
		add r0, r0, r1
		nop
	}
	.loc	4 317 2
	ldw r1, cp[FLAC__STREAM_METADATA_CUESHEET_NUM_TRACKS_LEN]
	.loc	4 317 2
	{
		add r0, r0, r1
		nop
	}
	.loc	4 317 2
	{
		shr r0, r0, 3
		nop
	}
	.loc	4 325 2
	ldw r1, cp[FLAC__STREAM_METADATA_CUESHEET_TRACK_OFFSET_LEN]
	.loc	4 325 2
	ldw r2, cp[FLAC__STREAM_METADATA_CUESHEET_TRACK_NUMBER_LEN]
	.loc	4 325 2
	{
		add r1, r2, r1
		nop
	}
	.loc	4 325 2
	ldw r2, cp[FLAC__STREAM_METADATA_CUESHEET_TRACK_ISRC_LEN]
	.loc	4 325 2
	{
		add r1, r1, r2
		nop
	}
	.loc	4 325 2
	ldw r2, cp[FLAC__STREAM_METADATA_CUESHEET_TRACK_TYPE_LEN]
	.loc	4 325 2
	{
		add r1, r1, r2
		nop
	}
	.loc	4 325 2
	ldw r2, cp[FLAC__STREAM_METADATA_CUESHEET_TRACK_PRE_EMPHASIS_LEN]
	.loc	4 325 2
	{
		add r1, r1, r2
		nop
	}
	.loc	4 325 2
	ldw r2, cp[FLAC__STREAM_METADATA_CUESHEET_TRACK_RESERVED_LEN]
	.loc	4 325 2
	{
		add r1, r1, r2
		nop
	}
	.loc	4 325 2
	ldw r2, cp[FLAC__STREAM_METADATA_CUESHEET_TRACK_NUM_INDICES_LEN]
	.loc	4 325 2
	{
		add r1, r1, r2
		nop
	}
	.loc	4 325 2
	mul r1, r1, r4
	.loc	4 325 2
	{
		shr r1, r1, 3
		nop
	}
	.loc	4 325 2
	{
		add r0, r1, r0
		nop
	}
.Ltmp1231:
	.loc	4 325 2
	{
		mkmsk r6, 1
		stw r0, r5[2]
	}
	bf r4, .LBB39_20
.Ltmp1232:
	.loc	4 336 3
	ldw r1, cp[FLAC__STREAM_METADATA_CUESHEET_INDEX_OFFSET_LEN]
	.loc	4 336 3
	ldw r2, cp[FLAC__STREAM_METADATA_CUESHEET_INDEX_NUMBER_LEN]
	.loc	4 336 3
	{
		add r1, r2, r1
		nop
	}
	.loc	4 336 3
	ldw r2, cp[FLAC__STREAM_METADATA_CUESHEET_INDEX_RESERVED_LEN]
	.loc	4 336 3
	{
		add r1, r1, r2
		ldc r2, 23
	}
	{
		add r2, r7, r2
		ldc r3, 0
	}
.Ltmp1233:
.LBB39_18:
	{
		nop
		ld8u r11, r2[r3]
	}
	.loc	4 336 3
	mul r11, r11, r1
	.loc	4 336 3
	{
		shr r11, r11, 3
		nop
	}
	.loc	4 336 3
	{
		add r0, r11, r0
		sub r4, r4, 1
	}
.Ltmp1234:
	.loc	4 335 2
	ldaw r2, r2[8]
	.loc	4 335 2
	bt r4, .LBB39_18
.Ltmp1235:
	{
		nop
		stw r0, r5[2]
	}
	bu .LBB39_20
.Ltmp1236:
.LBB39_4:
	{
		ldc r6, 0
		nop
	}
.LBB39_20:
	.loc	4 1645 1
	{
		mov r0, r6
		ldw r10, sp[10]
	}
	ldd r9, r8, sp[4]
	ldd r7, r6, sp[3]
	ldd r5, r4, sp[2]
	{
		nop
		retsp 12
	}
	# RETURN_REG_HOLDER
.Ltmp1237:
	.cc_bottom FLAC__metadata_object_cuesheet_resize_tracks.function
	.set	FLAC__metadata_object_cuesheet_resize_tracks.nstackwords,((calloc.nstackwords $M free.nstackwords $M memset.nstackwords $M realloc.nstackwords) + 12)
	.globl	FLAC__metadata_object_cuesheet_resize_tracks.nstackwords
	.set	FLAC__metadata_object_cuesheet_resize_tracks.maxcores,calloc.maxcores $M free.maxcores $M realloc.maxcores $M 1
	.globl	FLAC__metadata_object_cuesheet_resize_tracks.maxcores
	.set	FLAC__metadata_object_cuesheet_resize_tracks.maxtimers,calloc.maxtimers $M free.maxtimers $M realloc.maxtimers $M 0
	.globl	FLAC__metadata_object_cuesheet_resize_tracks.maxtimers
	.set	FLAC__metadata_object_cuesheet_resize_tracks.maxchanends,calloc.maxchanends $M free.maxchanends $M realloc.maxchanends $M 0
	.globl	FLAC__metadata_object_cuesheet_resize_tracks.maxchanends
.Ltmp1238:
	.size	FLAC__metadata_object_cuesheet_resize_tracks, .Ltmp1238-FLAC__metadata_object_cuesheet_resize_tracks
.Lfunc_end39:
	.cfi_endproc

	.globl	FLAC__metadata_object_cuesheet_set_track
	.align	4
	.type	FLAC__metadata_object_cuesheet_set_track,@function
	.cc_top FLAC__metadata_object_cuesheet_set_track.function,FLAC__metadata_object_cuesheet_set_track
FLAC__metadata_object_cuesheet_set_track:
.Lfunc_begin40:
	.loc	4 1648 0
	.cfi_startproc
	.issue_mode dual
	{
		nop
		dualentsp 10
	}
.Ltmp1239:
	.cfi_def_cfa_offset 40
.Ltmp1240:
	.cfi_offset 15, 0
	std r5, r4, sp[1]
.Ltmp1241:
	.cfi_offset 4, -32
.Ltmp1242:
	.cfi_offset 5, -28
	std r7, r6, sp[2]
.Ltmp1243:
	.cfi_offset 6, -24
.Ltmp1244:
	.cfi_offset 7, -20
	std r9, r8, sp[3]
.Ltmp1245:
	.cfi_offset 8, -16
.Ltmp1246:
	.cfi_offset 9, -12
.Ltmp1247:
	.cfi_offset 10, -8
.Ltmp1248:
	{
		mov r8, r3
		stw r10, sp[8]
	}
.Ltmp1249:
	{
		mov r6, r2
		mov r4, r0
	}
.Ltmp1250:
	ldc r0, 168
	.loc	4 1652 9 prologue_end
.Ltmp1251:
	{
		add r9, r4, r0
		nop
	}
	.loc	4 1652 9
	{
		shl r1, r1, 5
		ldw r0, r9[0]
	}
.Ltmp1252:
	.loc	4 1652 9
	{
		add r7, r0, r1
		nop
	}
.Ltmp1253:
	.loc	4 407 2
	{
		ldc r2, 32
		ldw r5, r7[6]
	}
.Ltmp1254:
	.loc	4 415 3
	{
		mov r0, r7
		mov r1, r6
	}
	bl __memcpy_4
	bf r8, .LBB40_5
.Ltmp1255:
	{
		nop
		ldw r0, r6[6]
	}
	bf r0, .LBB40_5
.Ltmp1256:
	{
		ldc r10, 23
		nop
	}
	.loc	4 157 12
.Ltmp1257:
	{
		ldc r1, 16
		ld8u r0, r6[r10]
	}
	.loc	4 157 12
	bl safe_malloc_mul_2op_p
	{
		mov r8, r0
		nop
	}
	.loc	4 157 12
	bf r8, .LBB40_3
.Ltmp1258:
	.loc	4 407 2
	ldaw r7, r7[6]
.Ltmp1259:
	.loc	4 157 12
	{
		add r0, r6, r10
		ldw r1, r6[6]
	}
.Ltmp1260:
	.loc	4 159 3
	{
		ldc r2, 0
		nop
	}
	{
		nop
		ld8u r0, r0[r2]
	}
	.loc	4 159 3
	{
		shl r2, r0, 4
		mov r0, r8
	}
	.loc	4 159 3
	bl __memcpy_4
	{
		nop
		stw r8, r7[0]
	}
.Ltmp1261:
.LBB40_5:
	.loc	4 418 2
	{
		mov r0, r5
		nop
	}
	bl free
.Ltmp1262:
	.loc	4 317 2
	ldw r0, cp[FLAC__STREAM_METADATA_CUESHEET_MEDIA_CATALOG_NUMBER_LEN]
	.loc	4 317 2
	ldw r1, cp[FLAC__STREAM_METADATA_CUESHEET_LEAD_IN_LEN]
	.loc	4 317 2
	{
		add r0, r1, r0
		nop
	}
	.loc	4 317 2
	ldw r1, cp[FLAC__STREAM_METADATA_CUESHEET_IS_CD_LEN]
	.loc	4 317 2
	{
		add r0, r0, r1
		nop
	}
	.loc	4 317 2
	ldw r1, cp[FLAC__STREAM_METADATA_CUESHEET_RESERVED_LEN]
	.loc	4 317 2
	{
		add r0, r0, r1
		nop
	}
	.loc	4 317 2
	ldw r1, cp[FLAC__STREAM_METADATA_CUESHEET_NUM_TRACKS_LEN]
	.loc	4 317 2
	{
		add r0, r0, r1
		nop
	}
	.loc	4 317 2
	{
		shr r0, r0, 3
		nop
	}
	ldc r1, 164
	.loc	4 325 2
	{
		add r1, r4, r1
		nop
	}
	{
		nop
		ldw r1, r1[0]
	}
	.loc	4 325 2
	ldw r2, cp[FLAC__STREAM_METADATA_CUESHEET_TRACK_OFFSET_LEN]
	.loc	4 325 2
	ldw r3, cp[FLAC__STREAM_METADATA_CUESHEET_TRACK_NUMBER_LEN]
	.loc	4 325 2
	{
		add r2, r3, r2
		nop
	}
	.loc	4 325 2
	ldw r3, cp[FLAC__STREAM_METADATA_CUESHEET_TRACK_ISRC_LEN]
	.loc	4 325 2
	{
		add r2, r2, r3
		nop
	}
	.loc	4 325 2
	ldw r3, cp[FLAC__STREAM_METADATA_CUESHEET_TRACK_TYPE_LEN]
	.loc	4 325 2
	{
		add r2, r2, r3
		nop
	}
	.loc	4 325 2
	ldw r3, cp[FLAC__STREAM_METADATA_CUESHEET_TRACK_PRE_EMPHASIS_LEN]
	.loc	4 325 2
	{
		add r2, r2, r3
		nop
	}
	.loc	4 325 2
	ldw r3, cp[FLAC__STREAM_METADATA_CUESHEET_TRACK_RESERVED_LEN]
	.loc	4 325 2
	{
		add r2, r2, r3
		nop
	}
	.loc	4 325 2
	ldw r3, cp[FLAC__STREAM_METADATA_CUESHEET_TRACK_NUM_INDICES_LEN]
	.loc	4 325 2
	{
		add r2, r2, r3
		nop
	}
	.loc	4 325 2
	mul r2, r2, r1
	.loc	4 325 2
	{
		shr r2, r2, 3
		nop
	}
	.loc	4 325 2
	{
		add r2, r2, r0
		nop
	}
.Ltmp1263:
	.loc	4 325 2
	{
		mkmsk r0, 1
		stw r2, r4[2]
	}
	bf r1, .LBB40_9
.Ltmp1264:
	{
		nop
		ldw r11, r9[0]
	}
	.loc	4 336 3
.Ltmp1265:
	ldw r3, cp[FLAC__STREAM_METADATA_CUESHEET_INDEX_OFFSET_LEN]
	.loc	4 336 3
	ldw r5, cp[FLAC__STREAM_METADATA_CUESHEET_INDEX_NUMBER_LEN]
	.loc	4 336 3
	{
		add r3, r5, r3
		nop
	}
	.loc	4 336 3
	ldw r5, cp[FLAC__STREAM_METADATA_CUESHEET_INDEX_RESERVED_LEN]
	.loc	4 336 3
	{
		add r3, r3, r5
		ldc r5, 23
	}
	{
		add r11, r11, r5
		ldc r5, 0
	}
.Ltmp1266:
.LBB40_7:
	{
		nop
		ld8u r6, r11[r5]
	}
	.loc	4 336 3
	mul r6, r6, r3
	.loc	4 336 3
	{
		shr r6, r6, 3
		nop
	}
	.loc	4 336 3
	{
		add r2, r6, r2
		sub r1, r1, 1
	}
.Ltmp1267:
	.loc	4 335 2
	ldaw r11, r11[8]
	.loc	4 335 2
	bt r1, .LBB40_7
.Ltmp1268:
	{
		nop
		stw r2, r4[2]
	}
	bu .LBB40_9
.Ltmp1269:
.LBB40_3:
	{
		ldc r0, 0
		nop
	}
.LBB40_9:
	{
		nop
		ldw r10, sp[8]
	}
	.loc	4 1652 9
	ldd r9, r8, sp[3]
	ldd r7, r6, sp[2]
	ldd r5, r4, sp[1]
	{
		nop
		retsp 10
	}
	# RETURN_REG_HOLDER
.Ltmp1270:
	.cc_bottom FLAC__metadata_object_cuesheet_set_track.function
	.set	FLAC__metadata_object_cuesheet_set_track.nstackwords,((free.nstackwords $M safe_malloc_mul_2op_p.nstackwords $M __memcpy_4.nstackwords) + 10)
	.globl	FLAC__metadata_object_cuesheet_set_track.nstackwords
	.set	FLAC__metadata_object_cuesheet_set_track.maxcores,free.maxcores $M safe_malloc_mul_2op_p.maxcores $M 1
	.globl	FLAC__metadata_object_cuesheet_set_track.maxcores
	.set	FLAC__metadata_object_cuesheet_set_track.maxtimers,free.maxtimers $M safe_malloc_mul_2op_p.maxtimers $M 0
	.globl	FLAC__metadata_object_cuesheet_set_track.maxtimers
	.set	FLAC__metadata_object_cuesheet_set_track.maxchanends,free.maxchanends $M safe_malloc_mul_2op_p.maxchanends $M 0
	.globl	FLAC__metadata_object_cuesheet_set_track.maxchanends
.Ltmp1271:
	.size	FLAC__metadata_object_cuesheet_set_track, .Ltmp1271-FLAC__metadata_object_cuesheet_set_track
.Lfunc_end40:
	.cfi_endproc

	.section	.cp.rodata.cst4,"aMc",@progbits,4
	.cc_top .LCPI41_0.data,.LCPI41_0
	.align	4
	.type	.LCPI41_0,@object
	.size	.LCPI41_0, 4
.LCPI41_0:
	.long	134217727
	.cc_bottom .LCPI41_0.data
	.text
	.globl	FLAC__metadata_object_cuesheet_insert_track
	.align	4
	.type	FLAC__metadata_object_cuesheet_insert_track,@function
	.cc_top FLAC__metadata_object_cuesheet_insert_track.function,FLAC__metadata_object_cuesheet_insert_track
FLAC__metadata_object_cuesheet_insert_track:
.Lfunc_begin41:
	.loc	4 1656 0
	.cfi_startproc
	.issue_mode dual
	{
		nop
		dualentsp 10
	}
.Ltmp1272:
	.cfi_def_cfa_offset 40
.Ltmp1273:
	.cfi_offset 15, 0
	std r5, r4, sp[1]
.Ltmp1274:
	.cfi_offset 4, -32
.Ltmp1275:
	.cfi_offset 5, -28
	std r7, r6, sp[2]
.Ltmp1276:
	.cfi_offset 6, -24
.Ltmp1277:
	.cfi_offset 7, -20
	std r9, r8, sp[3]
.Ltmp1278:
	.cfi_offset 8, -16
.Ltmp1279:
	.cfi_offset 9, -12
.Ltmp1280:
	.cfi_offset 10, -8
.Ltmp1281:
	{
		mov r4, r3
		stw r10, sp[8]
	}
.Ltmp1282:
	{
		mov r5, r2
		mov r6, r1
	}
.Ltmp1283:
	{
		mov r7, r0
		nop
	}
.Ltmp1284:
	ldc r0, 164
	.loc	4 1665 7 prologue_end
.Ltmp1285:
	{
		add r8, r7, r0
		nop
	}
	{
		nop
		ldw r0, r8[0]
	}
	.loc	4 1665 7
	{
		add r1, r0, 1
		mov r0, r7
	}
	.loc	4 1665 7
	bl FLAC__metadata_object_cuesheet_resize_tracks
	.loc	4 1665 7
	bf r0, .LBB41_1
.Ltmp1286:
	ldc r0, 168
	.loc	4 1669 2
	{
		add r9, r7, r0
		nop
	}
	.loc	4 1669 2
	{
		shl r10, r6, 5
		ldw r0, r9[0]
	}
	.loc	4 1669 2
	{
		add r1, r0, r10
		nop
	}
	.loc	4 1669 2
	ldaw r0, r1[8]
	{
		nop
		ldw r2, r8[0]
	}
	ldw r3, cp[.LCPI41_0]
	.loc	4 1669 2
	{
		sub r3, r3, r6
		nop
	}
	.loc	4 1669 2
	{
		add r2, r3, r2
		nop
	}
	.loc	4 1669 2
	{
		shl r2, r2, 5
		nop
	}
	.loc	4 1669 2
	bl memmove
	{
		nop
		ldw r0, r9[0]
	}
	.loc	4 1670 2
	{
		add r0, r0, r10
		ldc r1, 23
	}
	{
		ldc r2, 0
		nop
	}
	.loc	4 1670 2
	st8 r2, r0[r1]
	.loc	4 1671 2
	{
		mov r0, r7
		stw r2, r0[6]
	}
	.loc	4 1673 9
	{
		mov r1, r6
		mov r2, r5
	}
	{
		mov r3, r4
		nop
	}
	bl FLAC__metadata_object_cuesheet_set_track
	bu .LBB41_3
.Ltmp1287:
.LBB41_1:
	{
		ldc r0, 0
		nop
	}
.LBB41_3:
	{
		nop
		ldw r10, sp[8]
	}
	.loc	4 1674 1
	ldd r9, r8, sp[3]
	ldd r7, r6, sp[2]
	ldd r5, r4, sp[1]
	{
		nop
		retsp 10
	}
	# RETURN_REG_HOLDER
.Ltmp1288:
	.cc_bottom FLAC__metadata_object_cuesheet_insert_track.function
	.set	FLAC__metadata_object_cuesheet_insert_track.nstackwords,((FLAC__metadata_object_cuesheet_resize_tracks.nstackwords $M memmove.nstackwords $M FLAC__metadata_object_cuesheet_set_track.nstackwords) + 10)
	.globl	FLAC__metadata_object_cuesheet_insert_track.nstackwords
	.set	FLAC__metadata_object_cuesheet_insert_track.maxcores,FLAC__metadata_object_cuesheet_resize_tracks.maxcores $M FLAC__metadata_object_cuesheet_set_track.maxcores $M 1
	.globl	FLAC__metadata_object_cuesheet_insert_track.maxcores
	.set	FLAC__metadata_object_cuesheet_insert_track.maxtimers,FLAC__metadata_object_cuesheet_resize_tracks.maxtimers $M FLAC__metadata_object_cuesheet_set_track.maxtimers $M 0
	.globl	FLAC__metadata_object_cuesheet_insert_track.maxtimers
	.set	FLAC__metadata_object_cuesheet_insert_track.maxchanends,FLAC__metadata_object_cuesheet_resize_tracks.maxchanends $M FLAC__metadata_object_cuesheet_set_track.maxchanends $M 0
	.globl	FLAC__metadata_object_cuesheet_insert_track.maxchanends
.Ltmp1289:
	.size	FLAC__metadata_object_cuesheet_insert_track, .Ltmp1289-FLAC__metadata_object_cuesheet_insert_track
.Lfunc_end41:
	.cfi_endproc

	.section	.cp.rodata.cst4,"aMc",@progbits,4
	.cc_top .LCPI42_0.data,.LCPI42_0
	.align	4
	.type	.LCPI42_0,@object
	.size	.LCPI42_0, 4
.LCPI42_0:
	.long	134217727
	.cc_bottom .LCPI42_0.data
	.text
	.globl	FLAC__metadata_object_cuesheet_insert_blank_track
	.align	4
	.type	FLAC__metadata_object_cuesheet_insert_blank_track,@function
	.cc_top FLAC__metadata_object_cuesheet_insert_blank_track.function,FLAC__metadata_object_cuesheet_insert_blank_track
FLAC__metadata_object_cuesheet_insert_blank_track:
.Lfunc_begin42:
	.loc	4 1677 0
	.cfi_startproc
	.issue_mode dual
	{
		nop
		dualentsp 16
	}
.Ltmp1290:
	.cfi_def_cfa_offset 64
.Ltmp1291:
	.cfi_offset 15, 0
	std r5, r4, sp[5]
.Ltmp1292:
	.cfi_offset 4, -24
.Ltmp1293:
	.cfi_offset 5, -20
	std r7, r6, sp[6]
.Ltmp1294:
	.cfi_offset 6, -16
.Ltmp1295:
	.cfi_offset 7, -12
	std r9, r8, sp[7]
.Ltmp1296:
	.cfi_offset 8, -8
.Ltmp1297:
	.cfi_offset 9, -4
.Ltmp1298:
	{
		mov r6, r1
		mov r4, r0
	}
.Ltmp1299:
	{
		ldaw r0, sp[2]
		ldc r5, 0
	}
.Ltmp1300:
	{
		ldc r2, 32
		mov r1, r5
	}
	.loc	4 1679 2 prologue_end
.Ltmp1301:
	bl memset
	ldc r0, 164
.Ltmp1302:
	.loc	4 1665 7
	{
		add r8, r4, r0
		nop
	}
	{
		nop
		ldw r0, r8[0]
	}
	.loc	4 1665 7
	{
		add r1, r0, 1
		mov r0, r4
	}
	.loc	4 1665 7
	bl FLAC__metadata_object_cuesheet_resize_tracks
	bf r0, .LBB42_5
.Ltmp1303:
	ldc r0, 168
	.loc	4 1669 2
	{
		add r7, r4, r0
		nop
	}
	.loc	4 1669 2
	{
		shl r5, r6, 5
		ldw r0, r7[0]
	}
	.loc	4 1669 2
	{
		add r1, r0, r5
		nop
	}
	.loc	4 1669 2
	ldaw r0, r1[8]
	{
		nop
		ldw r2, r8[0]
	}
	ldw r3, cp[.LCPI42_0]
	.loc	4 1669 2
	{
		sub r3, r3, r6
		nop
	}
	.loc	4 1669 2
	{
		add r2, r3, r2
		nop
	}
	.loc	4 1669 2
	{
		shl r2, r2, 5
		nop
	}
	.loc	4 1669 2
	bl memmove
	{
		nop
		ldw r0, r7[0]
	}
	.loc	4 1670 2
	{
		add r0, r0, r5
		ldc r9, 23
	}
	{
		ldc r6, 0
		nop
	}
.Ltmp1304:
	.loc	4 1670 2
	st8 r6, r0[r9]
.Ltmp1305:
	.loc	4 1671 2
	{
		ldaw r1, sp[2]
		stw r6, r0[6]
	}
.Ltmp1306:
	{
		ldc r2, 32
		nop
	}
	.loc	4 415 3
.Ltmp1307:
	bl __memcpy_4
.Ltmp1308:
	.loc	4 317 2
	ldw r0, cp[FLAC__STREAM_METADATA_CUESHEET_MEDIA_CATALOG_NUMBER_LEN]
	.loc	4 317 2
	ldw r1, cp[FLAC__STREAM_METADATA_CUESHEET_LEAD_IN_LEN]
	.loc	4 317 2
	{
		add r0, r1, r0
		nop
	}
	.loc	4 317 2
	ldw r1, cp[FLAC__STREAM_METADATA_CUESHEET_IS_CD_LEN]
	.loc	4 317 2
	{
		add r0, r0, r1
		nop
	}
	.loc	4 317 2
	ldw r1, cp[FLAC__STREAM_METADATA_CUESHEET_RESERVED_LEN]
	.loc	4 317 2
	{
		add r0, r0, r1
		nop
	}
	.loc	4 317 2
	ldw r1, cp[FLAC__STREAM_METADATA_CUESHEET_NUM_TRACKS_LEN]
	.loc	4 317 2
	{
		add r0, r0, r1
		nop
	}
	.loc	4 317 2
	{
		shr r1, r0, 3
		ldw r0, r8[0]
	}
	.loc	4 325 2
	ldw r2, cp[FLAC__STREAM_METADATA_CUESHEET_TRACK_OFFSET_LEN]
	.loc	4 325 2
	ldw r3, cp[FLAC__STREAM_METADATA_CUESHEET_TRACK_NUMBER_LEN]
	.loc	4 325 2
	{
		add r2, r3, r2
		nop
	}
	.loc	4 325 2
	ldw r3, cp[FLAC__STREAM_METADATA_CUESHEET_TRACK_ISRC_LEN]
	.loc	4 325 2
	{
		add r2, r2, r3
		nop
	}
	.loc	4 325 2
	ldw r3, cp[FLAC__STREAM_METADATA_CUESHEET_TRACK_TYPE_LEN]
	.loc	4 325 2
	{
		add r2, r2, r3
		nop
	}
	.loc	4 325 2
	ldw r3, cp[FLAC__STREAM_METADATA_CUESHEET_TRACK_PRE_EMPHASIS_LEN]
	.loc	4 325 2
	{
		add r2, r2, r3
		nop
	}
	.loc	4 325 2
	ldw r3, cp[FLAC__STREAM_METADATA_CUESHEET_TRACK_RESERVED_LEN]
	.loc	4 325 2
	{
		add r2, r2, r3
		nop
	}
	.loc	4 325 2
	ldw r3, cp[FLAC__STREAM_METADATA_CUESHEET_TRACK_NUM_INDICES_LEN]
	.loc	4 325 2
	{
		add r2, r2, r3
		nop
	}
	.loc	4 325 2
	mul r2, r2, r0
	.loc	4 325 2
	{
		shr r2, r2, 3
		nop
	}
	.loc	4 325 2
	{
		add r1, r2, r1
		nop
	}
.Ltmp1309:
	.loc	4 325 2
	{
		mkmsk r5, 1
		stw r1, r4[2]
	}
	bf r0, .LBB42_5
.Ltmp1310:
	{
		nop
		ldw r3, r7[0]
	}
	.loc	4 336 3
.Ltmp1311:
	ldw r2, cp[FLAC__STREAM_METADATA_CUESHEET_INDEX_OFFSET_LEN]
	.loc	4 336 3
	ldw r11, cp[FLAC__STREAM_METADATA_CUESHEET_INDEX_NUMBER_LEN]
	.loc	4 336 3
	{
		add r2, r11, r2
		nop
	}
	.loc	4 336 3
	ldw r11, cp[FLAC__STREAM_METADATA_CUESHEET_INDEX_RESERVED_LEN]
	.loc	4 336 3
	{
		add r2, r2, r11
		add r3, r3, r9
	}
.Ltmp1312:
.LBB42_3:
	{
		nop
		ld8u r11, r3[r6]
	}
	.loc	4 336 3
	mul r11, r11, r2
	.loc	4 336 3
	{
		shr r11, r11, 3
		nop
	}
	.loc	4 336 3
	{
		add r1, r11, r1
		sub r0, r0, 1
	}
.Ltmp1313:
	.loc	4 335 2
	ldaw r3, r3[8]
	.loc	4 335 2
	bt r0, .LBB42_3
.Ltmp1314:
	{
		nop
		stw r1, r4[2]
	}
.Ltmp1315:
.LBB42_5:
	.loc	4 1680 9
	{
		mov r0, r5
		nop
	}
	ldd r9, r8, sp[7]
	ldd r7, r6, sp[6]
	ldd r5, r4, sp[5]
	{
		nop
		retsp 16
	}
	# RETURN_REG_HOLDER
.Ltmp1316:
	.cc_bottom FLAC__metadata_object_cuesheet_insert_blank_track.function
	.set	FLAC__metadata_object_cuesheet_insert_blank_track.nstackwords,((memset.nstackwords $M FLAC__metadata_object_cuesheet_resize_tracks.nstackwords $M memmove.nstackwords $M __memcpy_4.nstackwords) + 16)
	.globl	FLAC__metadata_object_cuesheet_insert_blank_track.nstackwords
	.set	FLAC__metadata_object_cuesheet_insert_blank_track.maxcores,FLAC__metadata_object_cuesheet_resize_tracks.maxcores $M 1
	.globl	FLAC__metadata_object_cuesheet_insert_blank_track.maxcores
	.set	FLAC__metadata_object_cuesheet_insert_blank_track.maxtimers,FLAC__metadata_object_cuesheet_resize_tracks.maxtimers $M 0
	.globl	FLAC__metadata_object_cuesheet_insert_blank_track.maxtimers
	.set	FLAC__metadata_object_cuesheet_insert_blank_track.maxchanends,FLAC__metadata_object_cuesheet_resize_tracks.maxchanends $M 0
	.globl	FLAC__metadata_object_cuesheet_insert_blank_track.maxchanends
.Ltmp1317:
	.size	FLAC__metadata_object_cuesheet_insert_blank_track, .Ltmp1317-FLAC__metadata_object_cuesheet_insert_blank_track
.Lfunc_end42:
	.cfi_endproc

	.globl	FLAC__metadata_object_cuesheet_delete_track
	.align	4
	.type	FLAC__metadata_object_cuesheet_delete_track,@function
	.cc_top FLAC__metadata_object_cuesheet_delete_track.function,FLAC__metadata_object_cuesheet_delete_track
FLAC__metadata_object_cuesheet_delete_track:
.Lfunc_begin43:
	.loc	4 1684 0
	.cfi_startproc
	.issue_mode dual
	{
		nop
		dualentsp 6
	}
.Ltmp1318:
	.cfi_def_cfa_offset 24
.Ltmp1319:
	.cfi_offset 15, 0
	std r5, r4, sp[1]
.Ltmp1320:
	.cfi_offset 4, -16
.Ltmp1321:
	.cfi_offset 5, -12
	std r7, r6, sp[2]
.Ltmp1322:
	.cfi_offset 6, -8
.Ltmp1323:
	.cfi_offset 7, -4
.Ltmp1324:
	{
		mov r5, r1
		mov r4, r0
	}
.Ltmp1325:
	ldc r0, 168
	.loc	4 1694 2 prologue_end
.Ltmp1326:
	{
		add r6, r4, r0
		nop
	}
	.loc	4 1694 2
	{
		shl r7, r5, 5
		ldw r0, r6[0]
	}
	.loc	4 1694 2
	{
		add r0, r0, r7
		nop
	}
	{
		nop
		ldw r0, r0[6]
	}
	.loc	4 1694 2
	bl free
	{
		nop
		ldw r0, r6[0]
	}
	.loc	4 1697 2
	{
		add r0, r0, r7
		nop
	}
	.loc	4 1697 2
	ldaw r1, r0[8]
	ldc r2, 164
	.loc	4 1697 2
	{
		add r7, r4, r2
		nop
	}
	{
		nop
		ldw r2, r7[0]
	}
	.loc	4 1697 2
	{
		sub r2, r2, r5
		nop
	}
	.loc	4 1697 2
	{
		shl r2, r2, 5
		nop
	}
	.loc	4 1697 2
	ldaw r2, r2[-8]
	.loc	4 1697 2
	bl memmove
	{
		nop
		ldw r0, r7[0]
	}
	.loc	4 1698 2
	{
		sub r1, r0, 1
		ldw r0, r6[0]
	}
	.loc	4 1698 2
	{
		shl r2, r1, 5
		nop
	}
	{
		add r0, r0, r2
		ldc r2, 23
	}
	{
		ldc r3, 0
		nop
	}
	.loc	4 1698 2
	st8 r3, r0[r2]
	.loc	4 1699 2
	{
		mov r0, r4
		stw r3, r0[6]
	}
	.loc	4 1701 9
	bl FLAC__metadata_object_cuesheet_resize_tracks
	.loc	4 1701 9
	ldd r7, r6, sp[2]
	ldd r5, r4, sp[1]
	{
		nop
		retsp 6
	}
	# RETURN_REG_HOLDER
.Ltmp1327:
	.cc_bottom FLAC__metadata_object_cuesheet_delete_track.function
	.set	FLAC__metadata_object_cuesheet_delete_track.nstackwords,((free.nstackwords $M memmove.nstackwords $M FLAC__metadata_object_cuesheet_resize_tracks.nstackwords) + 6)
	.globl	FLAC__metadata_object_cuesheet_delete_track.nstackwords
	.set	FLAC__metadata_object_cuesheet_delete_track.maxcores,FLAC__metadata_object_cuesheet_resize_tracks.maxcores $M free.maxcores $M 1
	.globl	FLAC__metadata_object_cuesheet_delete_track.maxcores
	.set	FLAC__metadata_object_cuesheet_delete_track.maxtimers,FLAC__metadata_object_cuesheet_resize_tracks.maxtimers $M free.maxtimers $M 0
	.globl	FLAC__metadata_object_cuesheet_delete_track.maxtimers
	.set	FLAC__metadata_object_cuesheet_delete_track.maxchanends,FLAC__metadata_object_cuesheet_resize_tracks.maxchanends $M free.maxchanends $M 0
	.globl	FLAC__metadata_object_cuesheet_delete_track.maxchanends
.Ltmp1328:
	.size	FLAC__metadata_object_cuesheet_delete_track, .Ltmp1328-FLAC__metadata_object_cuesheet_delete_track
.Lfunc_end43:
	.cfi_endproc

	.globl	FLAC__metadata_object_cuesheet_is_legal
	.align	4
	.type	FLAC__metadata_object_cuesheet_is_legal,@function
	.cc_top FLAC__metadata_object_cuesheet_is_legal.function,FLAC__metadata_object_cuesheet_is_legal
FLAC__metadata_object_cuesheet_is_legal:
.Lfunc_begin44:
	.loc	4 1705 0
	.cfi_startproc
	.issue_mode dual
	{
		nop
		dualentsp 2
	}
.Ltmp1329:
	.cfi_def_cfa_offset 8
.Ltmp1330:
	.cfi_offset 15, 0
	.loc	4 1709 9 prologue_end
.Ltmp1331:
	ldaw r0, r0[4]
.Ltmp1332:
	.loc	4 1709 9
	bl FLAC__format_cuesheet_is_legal
.Ltmp1333:
	{
		nop
		retsp 2
	}
	.loc	4 1709 9
	# RETURN_REG_HOLDER
.Ltmp1334:
	.cc_bottom FLAC__metadata_object_cuesheet_is_legal.function
	.set	FLAC__metadata_object_cuesheet_is_legal.nstackwords,(FLAC__format_cuesheet_is_legal.nstackwords + 2)
	.globl	FLAC__metadata_object_cuesheet_is_legal.nstackwords
	.set	FLAC__metadata_object_cuesheet_is_legal.maxcores,FLAC__format_cuesheet_is_legal.maxcores $M 1
	.globl	FLAC__metadata_object_cuesheet_is_legal.maxcores
	.set	FLAC__metadata_object_cuesheet_is_legal.maxtimers,FLAC__format_cuesheet_is_legal.maxtimers $M 0
	.globl	FLAC__metadata_object_cuesheet_is_legal.maxtimers
	.set	FLAC__metadata_object_cuesheet_is_legal.maxchanends,FLAC__format_cuesheet_is_legal.maxchanends $M 0
	.globl	FLAC__metadata_object_cuesheet_is_legal.maxchanends
.Ltmp1335:
	.size	FLAC__metadata_object_cuesheet_is_legal, .Ltmp1335-FLAC__metadata_object_cuesheet_is_legal
.Lfunc_end44:
	.cfi_endproc

	.section	.cp.rodata.cst4,"aMc",@progbits,4
	.cc_top .LCPI45_0.data,.LCPI45_0
	.align	4
	.type	.LCPI45_0,@object
	.size	.LCPI45_0, 4
.LCPI45_0:
	.long	3435973837
	.cc_bottom .LCPI45_0.data
	.cc_top .LCPI45_1.data,.LCPI45_1
	.align	4
	.type	.LCPI45_1,@object
	.size	.LCPI45_1, 4
.LCPI45_1:
	.long	2155905153
	.cc_bottom .LCPI45_1.data
	.text
	.globl	FLAC__metadata_object_cuesheet_calculate_cddb_id
	.align	4
	.type	FLAC__metadata_object_cuesheet_calculate_cddb_id,@function
	.cc_top FLAC__metadata_object_cuesheet_calculate_cddb_id.function,FLAC__metadata_object_cuesheet_calculate_cddb_id
FLAC__metadata_object_cuesheet_calculate_cddb_id:
.Lfunc_begin45:
	.loc	4 1738 0
	.cfi_startproc
	.issue_mode dual
	{
		nop
		dualentsp 12
	}
.Ltmp1336:
	.cfi_def_cfa_offset 48
.Ltmp1337:
	.cfi_offset 15, 0
	std r5, r4, sp[2]
.Ltmp1338:
	.cfi_offset 4, -32
.Ltmp1339:
	.cfi_offset 5, -28
	std r7, r6, sp[3]
.Ltmp1340:
	.cfi_offset 6, -24
.Ltmp1341:
	.cfi_offset 7, -20
	std r9, r8, sp[4]
.Ltmp1342:
	.cfi_offset 8, -16
.Ltmp1343:
	.cfi_offset 9, -12
	{
		nop
		stw r10, sp[10]
	}
.Ltmp1344:
	.cfi_offset 10, -8
	ldc r1, 164
	.loc	4 1746 6 prologue_end
.Ltmp1345:
	{
		add r1, r0, r1
		nop
	}
	.loc	4 1746 6
	{
		ldc r1, 2
		ldw r2, r1[0]
	}
	.loc	4 1746 6
	{
		lsu r1, r2, r1
		nop
	}
	.loc	4 1746 6
	bf r1, .LBB45_2
.Ltmp1346:
	{
		ldc r0, 0
		nop
	}
	bu .LBB45_24
.LBB45_2:
.Ltmp1347:
	.loc	4 1751 3
	{
		sub r7, r2, 1
		stw r2, sp[1]
	}
	ldc r1, 168
.Ltmp1348:
	.loc	4 1753 3
	{
		add r1, r0, r1
		nop
	}
	{
		nop
		stw r1, sp[3]
	}
	ldc r1, 152
	.loc	4 1753 3
	{
		add r0, r0, r1
		nop
	}
.Ltmp1349:
	{
		ldc r10, 0
		stw r0, sp[2]
	}
	{
		mov r0, r10
		mov r4, r10
	}
	bf r7, .LBB45_16
	{
		ldc r5, 0
		mov r0, r10
	}
	ldw r10, cp[.LCPI45_0]
	{
		ldc r9, 10
		ldc r8, 9
	}
	{
		mov r4, r0
		mov r6, r0
	}
.LBB45_4:
.Ltmp1350:
	.loc	4 1714 6
	{
		lsu r2, r6, r7
		mov r0, r5
	}
.Ltmp1351:
	.loc	4 1752 43
	{
		mov r1, r5
		nop
	}
	bf r2, .LBB45_12
.Ltmp1352:
	{
		nop
		ldw r0, sp[3]
	}
	.loc	4 1714 6
.Ltmp1353:
	{
		shl r1, r6, 5
		ldw r0, r0[0]
	}
	.loc	4 1714 6
	{
		add r2, r0, r1
		ldc r0, 23
	}
	.loc	4 1714 6
	{
		mov r0, r5
		ld8u r11, r2[r0]
	}
.Ltmp1354:
	.loc	4 1752 43
	{
		mov r1, r5
		nop
	}
	bf r11, .LBB45_12
.Ltmp1355:
	.loc	4 1716 11
	{
		ldc r0, 8
		ldw r3, r2[6]
	}
	{
		nop
		ld8u r0, r3[r0]
	}
	.loc	4 1716 11
	{
		eq r0, r0, 1
		nop
	}
	bf r0, .LBB45_8
.Ltmp1356:
	.loc	4 1717 3
	ldd r1, r0, r3[0]
	bu .LBB45_11
.Ltmp1357:
.LBB45_8:
	{
		ldc r0, 2
		nop
	}
	.loc	4 1718 11
.Ltmp1358:
	{
		lsu r11, r11, r0
		mov r0, r5
	}
.Ltmp1359:
	.loc	4 1752 43
	{
		mov r1, r5
		nop
	}
	bt r11, .LBB45_12
.Ltmp1360:
	{
		ldc r0, 24
		nop
	}
	{
		nop
		ld8u r0, r3[r0]
	}
	.loc	4 1720 11
.Ltmp1361:
	{
		eq r11, r0, 1
		mov r0, r5
	}
.Ltmp1362:
	.loc	4 1752 43
	{
		mov r1, r5
		nop
	}
	bf r11, .LBB45_12
.Ltmp1363:
	.loc	4 1721 3
	ldaw r0, r3[4]
	.loc	4 1721 3
	ldd r1, r0, r0[0]
.Ltmp1364:
.LBB45_11:
	.loc	4 1721 3
	ldd r3, r2, r2[0]
	.loc	4 1721 3
	ladd r2, r0, r2, r0, r5
	ladd r2, r1, r3, r1, r2
	{
		nop
		ldw r2, sp[2]
	}
	.loc	4 1721 3
	ldd r3, r2, r2[0]
	.loc	4 1721 3
	ladd r2, r0, r0, r2, r5
	ladd r2, r1, r1, r3, r2
.Ltmp1365:
.LBB45_12:
	ldc r2, 44100
	.loc	4 1752 43
	{
		mov r3, r5
		nop
	}
	bl __udivdi3
.Ltmp1366:
	.loc	4 1752 11
	{
		mov r1, r5
		nop
	}
	bf r0, .LBB45_14
.LBB45_13:
	.loc	4 1731 3
.Ltmp1367:
	lmul r2, r3, r0, r10, r5, r5
	{
		shr r2, r2, 3
		nop
	}
.Ltmp1368:
	.loc	4 1730 3
	mul r3, r2, r9
	{
		sub r3, r0, r3
		nop
	}
	.loc	4 1730 3
	{
		add r1, r3, r1
		lsu r3, r8, r0
	}
.Ltmp1369:
	.loc	4 1752 11
	{
		mov r0, r2
		nop
	}
.Ltmp1370:
	bt r3, .LBB45_13
.Ltmp1371:
.LBB45_14:
	.loc	4 1752 11
	{
		add r4, r1, r4
		add r6, r6, 1
	}
.Ltmp1372:
	.loc	4 1751 3
	{
		lsu r0, r6, r7
		nop
	}
	bt r0, .LBB45_4
.Ltmp1373:
	{
		ldc r0, 0
		nop
	}
	ldw r1, cp[.LCPI45_1]
	.loc	4 1751 3
	lmul r0, r1, r4, r1, r0, r0
	{
		shr r0, r0, 7
		mkmsk r1, 8
	}
	mul r0, r0, r1
	{
		sub r0, r4, r0
		nop
	}
	.loc	4 1751 3
	{
		shl r4, r0, 24
		mov r0, r7
	}
.Ltmp1374:
	{
		ldc r10, 0
		nop
	}
.Ltmp1375:
.LBB45_16:
	{
		nop
		ldw r1, sp[3]
	}
	.loc	4 1753 3
	{
		shl r0, r0, 5
		ldw r9, r1[0]
	}
	.loc	4 1753 3
	{
		add r0, r9, r0
		nop
	}
	.loc	4 1753 3
	ldd r1, r0, r0[0]
	{
		nop
		ldw r2, sp[2]
	}
	.loc	4 1753 3
	ldd r6, r8, r2[0]
	.loc	4 1753 3
	ladd r2, r0, r8, r0, r10
	ladd r2, r1, r6, r1, r2
	ldc r2, 44100
	.loc	4 1753 3
	{
		mov r3, r10
		nop
	}
	bl __udivdi3
.Ltmp1376:
	{
		mov r5, r0
		ldw r0, sp[1]
	}
	.loc	4 1714 6
.Ltmp1377:
	{
		eq r0, r0, 1
		mov r1, r10
	}
	bt r0, .LBB45_23
	{
		ldc r0, 23
		nop
	}
	.loc	4 1714 6
	{
		ldc r10, 0
		ld8u r2, r9[r0]
	}
.Ltmp1378:
	.loc	4 1753 103
	{
		mov r1, r10
		nop
	}
	bf r2, .LBB45_23
	.loc	4 1716 11
.Ltmp1379:
	{
		ldc r1, 8
		ldw r0, r9[6]
	}
	{
		nop
		ld8u r1, r0[r1]
	}
	.loc	4 1716 11
	{
		eq r1, r1, 1
		nop
	}
	bt r1, .LBB45_22
	{
		ldc r1, 2
		nop
	}
	.loc	4 1718 11
.Ltmp1380:
	{
		lsu r2, r2, r1
		ldc r10, 0
	}
.Ltmp1381:
	.loc	4 1753 103
	{
		mov r1, r10
		nop
	}
	bt r2, .LBB45_23
	{
		ldc r1, 24
		nop
	}
	.loc	4 1720 11
.Ltmp1382:
	{
		ldc r10, 0
		ld8u r1, r0[r1]
	}
	.loc	4 1720 11
	{
		eq r2, r1, 1
		mov r1, r10
	}
	bf r2, .LBB45_23
	.loc	4 1721 3
	ldaw r0, r0[4]
.LBB45_22:
	.loc	4 1721 3
	ldd r1, r0, r0[0]
	.loc	4 1721 3
	ldd r3, r2, r9[0]
	{
		ldc r11, 0
		nop
	}
	.loc	4 1721 3
	ladd r2, r0, r2, r0, r11
	ladd r2, r1, r3, r1, r2
	.loc	4 1721 3
	ladd r0, r10, r0, r8, r11
	ladd r0, r1, r1, r6, r0
.Ltmp1383:
.LBB45_23:
	ldc r2, 44100
	{
		ldc r3, 0
		mov r0, r10
	}
	.loc	4 1753 103
	bl __udivdi3
	.loc	4 1753 103
	{
		sub r0, r5, r0
		nop
	}
.Ltmp1384:
	.loc	4 1755 3
	{
		shl r0, r0, 8
		nop
	}
.Ltmp1385:
	.loc	4 1755 3
	{
		or r0, r0, r4
		nop
	}
	.loc	4 1755 3
	{
		or r0, r0, r7
		nop
	}
.Ltmp1386:
.LBB45_24:
	{
		nop
		ldw r10, sp[10]
	}
	.loc	4 1757 1
	ldd r9, r8, sp[4]
	ldd r7, r6, sp[3]
	ldd r5, r4, sp[2]
	{
		nop
		retsp 12
	}
	# RETURN_REG_HOLDER
.Ltmp1387:
	.cc_bottom FLAC__metadata_object_cuesheet_calculate_cddb_id.function
	.set	FLAC__metadata_object_cuesheet_calculate_cddb_id.nstackwords,(__udivdi3.nstackwords + 12)
	.globl	FLAC__metadata_object_cuesheet_calculate_cddb_id.nstackwords
	.set	FLAC__metadata_object_cuesheet_calculate_cddb_id.maxcores,1
	.globl	FLAC__metadata_object_cuesheet_calculate_cddb_id.maxcores
	.set	FLAC__metadata_object_cuesheet_calculate_cddb_id.maxtimers,0
	.globl	FLAC__metadata_object_cuesheet_calculate_cddb_id.maxtimers
	.set	FLAC__metadata_object_cuesheet_calculate_cddb_id.maxchanends,0
	.globl	FLAC__metadata_object_cuesheet_calculate_cddb_id.maxchanends
.Ltmp1388:
	.size	FLAC__metadata_object_cuesheet_calculate_cddb_id, .Ltmp1388-FLAC__metadata_object_cuesheet_calculate_cddb_id
.Lfunc_end45:
	.cfi_endproc

	.globl	FLAC__metadata_object_picture_set_mime_type
	.align	4
	.type	FLAC__metadata_object_picture_set_mime_type,@function
	.cc_top FLAC__metadata_object_picture_set_mime_type.function,FLAC__metadata_object_picture_set_mime_type
FLAC__metadata_object_picture_set_mime_type:
.Lfunc_begin46:
	.loc	4 1760 0
	.cfi_startproc
	.issue_mode dual
	{
		nop
		dualentsp 10
	}
.Ltmp1389:
	.cfi_def_cfa_offset 40
.Ltmp1390:
	.cfi_offset 15, 0
	std r5, r4, sp[1]
.Ltmp1391:
	.cfi_offset 4, -32
.Ltmp1392:
	.cfi_offset 5, -28
	std r7, r6, sp[2]
.Ltmp1393:
	.cfi_offset 6, -24
.Ltmp1394:
	.cfi_offset 7, -20
	std r9, r8, sp[3]
.Ltmp1395:
	.cfi_offset 8, -16
.Ltmp1396:
	.cfi_offset 9, -12
.Ltmp1397:
	.cfi_offset 10, -8
.Ltmp1398:
	{
		mov r9, r2
		stw r10, sp[8]
	}
.Ltmp1399:
	{
		mov r7, r1
		mov r4, r0
	}
.Ltmp1400:
	{
		nop
		ldw r5, r4[5]
	}
.Ltmp1401:
	.loc	4 1769 2 prologue_end
	bf r5, .LBB46_1
.Ltmp1402:
	.loc	4 1769 20
	{
		mov r0, r5
		nop
	}
	bl strlen
	{
		mov r6, r0
		nop
	}
	bu .LBB46_3
.Ltmp1403:
.LBB46_1:
	{
		ldc r6, 0
		nop
	}
.Ltmp1404:
.LBB46_3:
	.loc	4 1770 15
	{
		mov r0, r7
		nop
	}
	bl strlen
	{
		mov r8, r0
		nop
	}
.Ltmp1405:
	.loc	4 1773 6
	bf r9, .LBB46_4
.Ltmp1406:
	{
		mkmsk r0, 32
		nop
	}
	.loc	4 1774 7
.Ltmp1407:
	{
		eq r0, r8, r0
		nop
	}
	.loc	4 1774 7
	bt r0, .LBB46_6
.Ltmp1408:
	.loc	4 1776 8
	{
		add r10, r8, 1
		ldc r9, 0
	}
.Ltmp1409:
	bf r10, .LBB46_12
.Ltmp1410:
	bf r7, .LBB46_12
.Ltmp1411:
	.loc	5 95 9
	{
		mov r0, r10
		nop
	}
	bl malloc
	{
		mov r9, r0
		nop
	}
.Ltmp1412:
	.loc	4 70 12
	bf r9, .LBB46_10
.Ltmp1413:
	.loc	4 72 3
	{
		mov r0, r9
		mov r1, r7
	}
	{
		mov r2, r10
		nop
	}
	bl memcpy
	bu .LBB46_12
.Ltmp1414:
.LBB46_4:
	{
		mov r9, r7
		nop
	}
.Ltmp1415:
.LBB46_12:
	.loc	4 1780 3
	{
		mov r0, r5
		stw r9, r4[5]
	}
.Ltmp1416:
	.loc	4 1783 2
	bl free
	.loc	4 1785 2
	{
		sub r1, r8, r6
		ldw r0, r4[2]
	}
	.loc	4 1786 2
	{
		add r0, r1, r0
		nop
	}
	.loc	4 1786 2
	{
		mkmsk r0, 1
		stw r0, r4[2]
	}
	bu .LBB46_13
.Ltmp1417:
.LBB46_6:
	{
		ldc r0, 0
		nop
	}
	bu .LBB46_13
.LBB46_10:
	{
		ldc r0, 0
		nop
	}
.LBB46_13:
	{
		nop
		ldw r10, sp[8]
	}
	.loc	4 1788 1
	ldd r9, r8, sp[3]
	ldd r7, r6, sp[2]
	ldd r5, r4, sp[1]
	{
		nop
		retsp 10
	}
	# RETURN_REG_HOLDER
.Ltmp1418:
	.cc_bottom FLAC__metadata_object_picture_set_mime_type.function
	.set	FLAC__metadata_object_picture_set_mime_type.nstackwords,((free.nstackwords $M malloc.nstackwords $M memcpy.nstackwords $M strlen.nstackwords) + 10)
	.globl	FLAC__metadata_object_picture_set_mime_type.nstackwords
	.set	FLAC__metadata_object_picture_set_mime_type.maxcores,free.maxcores $M malloc.maxcores $M strlen.maxcores $M 1
	.globl	FLAC__metadata_object_picture_set_mime_type.maxcores
	.set	FLAC__metadata_object_picture_set_mime_type.maxtimers,free.maxtimers $M malloc.maxtimers $M strlen.maxtimers $M 0
	.globl	FLAC__metadata_object_picture_set_mime_type.maxtimers
	.set	FLAC__metadata_object_picture_set_mime_type.maxchanends,free.maxchanends $M malloc.maxchanends $M strlen.maxchanends $M 0
	.globl	FLAC__metadata_object_picture_set_mime_type.maxchanends
.Ltmp1419:
	.size	FLAC__metadata_object_picture_set_mime_type, .Ltmp1419-FLAC__metadata_object_picture_set_mime_type
.Lfunc_end46:
	.cfi_endproc

	.globl	FLAC__metadata_object_picture_set_description
	.align	4
	.type	FLAC__metadata_object_picture_set_description,@function
	.cc_top FLAC__metadata_object_picture_set_description.function,FLAC__metadata_object_picture_set_description
FLAC__metadata_object_picture_set_description:
.Lfunc_begin47:
	.loc	4 1791 0
	.cfi_startproc
	.issue_mode dual
	{
		nop
		dualentsp 10
	}
.Ltmp1420:
	.cfi_def_cfa_offset 40
.Ltmp1421:
	.cfi_offset 15, 0
	std r5, r4, sp[1]
.Ltmp1422:
	.cfi_offset 4, -32
.Ltmp1423:
	.cfi_offset 5, -28
	std r7, r6, sp[2]
.Ltmp1424:
	.cfi_offset 6, -24
.Ltmp1425:
	.cfi_offset 7, -20
	std r9, r8, sp[3]
.Ltmp1426:
	.cfi_offset 8, -16
.Ltmp1427:
	.cfi_offset 9, -12
.Ltmp1428:
	.cfi_offset 10, -8
.Ltmp1429:
	{
		mov r9, r2
		stw r10, sp[8]
	}
.Ltmp1430:
	{
		mov r7, r1
		mov r4, r0
	}
.Ltmp1431:
	{
		nop
		ldw r5, r4[6]
	}
.Ltmp1432:
	.loc	4 1800 2 prologue_end
	bf r5, .LBB47_1
.Ltmp1433:
	.loc	4 1800 20
	{
		mov r0, r5
		nop
	}
	bl strlen
	{
		mov r6, r0
		nop
	}
	bu .LBB47_3
.Ltmp1434:
.LBB47_1:
	{
		ldc r6, 0
		nop
	}
.Ltmp1435:
.LBB47_3:
	.loc	4 1801 15
	{
		mov r0, r7
		nop
	}
	bl strlen
	{
		mov r8, r0
		nop
	}
.Ltmp1436:
	.loc	4 1804 6
	bf r9, .LBB47_4
.Ltmp1437:
	{
		mkmsk r0, 32
		nop
	}
	.loc	4 1805 7
.Ltmp1438:
	{
		eq r0, r8, r0
		nop
	}
	.loc	4 1805 7
	bt r0, .LBB47_6
.Ltmp1439:
	.loc	4 1807 8
	{
		add r10, r8, 1
		ldc r9, 0
	}
.Ltmp1440:
	bf r10, .LBB47_12
.Ltmp1441:
	bf r7, .LBB47_12
.Ltmp1442:
	.loc	5 95 9
	{
		mov r0, r10
		nop
	}
	bl malloc
	{
		mov r9, r0
		nop
	}
.Ltmp1443:
	.loc	4 70 12
	bf r9, .LBB47_10
.Ltmp1444:
	.loc	4 72 3
	{
		mov r0, r9
		mov r1, r7
	}
	{
		mov r2, r10
		nop
	}
	bl memcpy
	bu .LBB47_12
.Ltmp1445:
.LBB47_4:
	{
		mov r9, r7
		nop
	}
.Ltmp1446:
.LBB47_12:
	.loc	4 1811 3
	{
		mov r0, r5
		stw r9, r4[6]
	}
.Ltmp1447:
	.loc	4 1814 2
	bl free
	.loc	4 1816 2
	{
		sub r1, r8, r6
		ldw r0, r4[2]
	}
	.loc	4 1817 2
	{
		add r0, r1, r0
		nop
	}
	.loc	4 1817 2
	{
		mkmsk r0, 1
		stw r0, r4[2]
	}
	bu .LBB47_13
.Ltmp1448:
.LBB47_6:
	{
		ldc r0, 0
		nop
	}
	bu .LBB47_13
.LBB47_10:
	{
		ldc r0, 0
		nop
	}
.LBB47_13:
	{
		nop
		ldw r10, sp[8]
	}
	.loc	4 1819 1
	ldd r9, r8, sp[3]
	ldd r7, r6, sp[2]
	ldd r5, r4, sp[1]
	{
		nop
		retsp 10
	}
	# RETURN_REG_HOLDER
.Ltmp1449:
	.cc_bottom FLAC__metadata_object_picture_set_description.function
	.set	FLAC__metadata_object_picture_set_description.nstackwords,((free.nstackwords $M malloc.nstackwords $M memcpy.nstackwords $M strlen.nstackwords) + 10)
	.globl	FLAC__metadata_object_picture_set_description.nstackwords
	.set	FLAC__metadata_object_picture_set_description.maxcores,free.maxcores $M malloc.maxcores $M strlen.maxcores $M 1
	.globl	FLAC__metadata_object_picture_set_description.maxcores
	.set	FLAC__metadata_object_picture_set_description.maxtimers,free.maxtimers $M malloc.maxtimers $M strlen.maxtimers $M 0
	.globl	FLAC__metadata_object_picture_set_description.maxtimers
	.set	FLAC__metadata_object_picture_set_description.maxchanends,free.maxchanends $M malloc.maxchanends $M strlen.maxchanends $M 0
	.globl	FLAC__metadata_object_picture_set_description.maxchanends
.Ltmp1450:
	.size	FLAC__metadata_object_picture_set_description, .Ltmp1450-FLAC__metadata_object_picture_set_description
.Lfunc_end47:
	.cfi_endproc

	.globl	FLAC__metadata_object_picture_set_data
	.align	4
	.type	FLAC__metadata_object_picture_set_data,@function
	.cc_top FLAC__metadata_object_picture_set_data.function,FLAC__metadata_object_picture_set_data
FLAC__metadata_object_picture_set_data:
.Lfunc_begin48:
	.loc	4 1822 0
	.cfi_startproc
	.issue_mode dual
	{
		nop
		dualentsp 8
	}
.Ltmp1451:
	.cfi_def_cfa_offset 32
.Ltmp1452:
	.cfi_offset 15, 0
	std r5, r4, sp[1]
.Ltmp1453:
	.cfi_offset 4, -24
.Ltmp1454:
	.cfi_offset 5, -20
	std r7, r6, sp[2]
.Ltmp1455:
	.cfi_offset 6, -16
.Ltmp1456:
	.cfi_offset 7, -12
	std r9, r8, sp[3]
.Ltmp1457:
	.cfi_offset 8, -8
.Ltmp1458:
	.cfi_offset 9, -4
.Ltmp1459:
	{
		mov r4, r2
		mov r7, r1
	}
.Ltmp1460:
	{
		mov r5, r0
		ldc r0, 48
	}
.Ltmp1461:
	.loc	4 1829 2 prologue_end
	{
		add r9, r5, r0
		nop
	}
	{
		nop
		ldw r6, r9[0]
	}
.Ltmp1462:
	.loc	4 1832 6
	bf r3, .LBB48_1
.Ltmp1463:
	{
		ldc r8, 0
		nop
	}
	bf r4, .LBB48_7
.Ltmp1464:
	bf r7, .LBB48_7
.Ltmp1465:
	.loc	5 95 9
	{
		mov r0, r4
		nop
	}
	bl malloc
	{
		mov r8, r0
		nop
	}
.Ltmp1466:
	.loc	4 70 12
	bf r8, .LBB48_5
.Ltmp1467:
	.loc	4 72 3
	{
		mov r0, r8
		mov r1, r7
	}
	{
		mov r2, r4
		nop
	}
	bl memcpy
	bu .LBB48_7
.Ltmp1468:
.LBB48_1:
	{
		mov r8, r7
		nop
	}
.Ltmp1469:
.LBB48_7:
	.loc	4 1837 3
	{
		mov r0, r6
		stw r8, r9[0]
	}
.Ltmp1470:
	.loc	4 1840 2
	bl free
	{
		nop
		ldw r0, r5[11]
	}
	{
		nop
		ldw r1, r5[2]
	}
	.loc	4 1842 2
	{
		sub r0, r1, r0
		stw r4, r5[11]
	}
	.loc	4 1844 2
	{
		add r0, r0, r4
		nop
	}
	.loc	4 1844 2
	{
		mkmsk r0, 1
		stw r0, r5[2]
	}
.Ltmp1471:
.LBB48_8:
	.loc	4 1846 1
	ldd r9, r8, sp[3]
	ldd r7, r6, sp[2]
	ldd r5, r4, sp[1]
	{
		nop
		retsp 8
	}
	# RETURN_REG_HOLDER
.Ltmp1472:
.LBB48_5:
	{
		ldc r0, 0
		nop
	}
	bu .LBB48_8
	.cc_bottom FLAC__metadata_object_picture_set_data.function
	.set	FLAC__metadata_object_picture_set_data.nstackwords,((free.nstackwords $M malloc.nstackwords $M memcpy.nstackwords) + 8)
	.globl	FLAC__metadata_object_picture_set_data.nstackwords
	.set	FLAC__metadata_object_picture_set_data.maxcores,free.maxcores $M malloc.maxcores $M 1
	.globl	FLAC__metadata_object_picture_set_data.maxcores
	.set	FLAC__metadata_object_picture_set_data.maxtimers,free.maxtimers $M malloc.maxtimers $M 0
	.globl	FLAC__metadata_object_picture_set_data.maxtimers
	.set	FLAC__metadata_object_picture_set_data.maxchanends,free.maxchanends $M malloc.maxchanends $M 0
	.globl	FLAC__metadata_object_picture_set_data.maxchanends
.Ltmp1473:
	.size	FLAC__metadata_object_picture_set_data, .Ltmp1473-FLAC__metadata_object_picture_set_data
.Lfunc_end48:
	.cfi_endproc

	.globl	FLAC__metadata_object_picture_is_legal
	.align	4
	.type	FLAC__metadata_object_picture_is_legal,@function
	.cc_top FLAC__metadata_object_picture_is_legal.function,FLAC__metadata_object_picture_is_legal
FLAC__metadata_object_picture_is_legal:
.Lfunc_begin49:
	.loc	4 1849 0
	.cfi_startproc
	.issue_mode dual
	{
		nop
		dualentsp 2
	}
.Ltmp1474:
	.cfi_def_cfa_offset 8
.Ltmp1475:
	.cfi_offset 15, 0
	.loc	4 1853 9 prologue_end
.Ltmp1476:
	ldaw r0, r0[4]
.Ltmp1477:
	.loc	4 1853 9
	bl FLAC__format_picture_is_legal
.Ltmp1478:
	{
		nop
		retsp 2
	}
	.loc	4 1853 9
	# RETURN_REG_HOLDER
.Ltmp1479:
	.cc_bottom FLAC__metadata_object_picture_is_legal.function
	.set	FLAC__metadata_object_picture_is_legal.nstackwords,(FLAC__format_picture_is_legal.nstackwords + 2)
	.globl	FLAC__metadata_object_picture_is_legal.nstackwords
	.set	FLAC__metadata_object_picture_is_legal.maxcores,FLAC__format_picture_is_legal.maxcores $M 1
	.globl	FLAC__metadata_object_picture_is_legal.maxcores
	.set	FLAC__metadata_object_picture_is_legal.maxtimers,FLAC__format_picture_is_legal.maxtimers $M 0
	.globl	FLAC__metadata_object_picture_is_legal.maxtimers
	.set	FLAC__metadata_object_picture_is_legal.maxchanends,FLAC__format_picture_is_legal.maxchanends $M 0
	.globl	FLAC__metadata_object_picture_is_legal.maxchanends
.Ltmp1480:
	.size	FLAC__metadata_object_picture_is_legal, .Ltmp1480-FLAC__metadata_object_picture_is_legal
.Lfunc_end49:
	.cfi_endproc

	.section	.cp.rodata.string,"aMSc",@progbits
	.cc_top .L.str.data,.L.str
	.align	4
	.type	.L.str,@object
	.size	.L.str, 1
.L.str:
	.space	1
	.space	3
	.cc_bottom .L.str.data
	.text
.Ldebug_end0:
	.section	.trap_info,"",@progbits
.Ltrap_info_entries_start0:
	.long	.Ltrap_info_entries_end0-.Ltrap_info_entries_start0
	.long	1
.Ltrap_info_entries_end0: