	.text
	.file	"play_flac.c"
	.section	.cp.rodata.cst4,"aMc",@progbits,4
	.cc_top .LCPI0_0.data,.LCPI0_0
	.align	4
	.type	.LCPI0_0,@object
	.size	.LCPI0_0, 4
.LCPI0_0:
	.long	2290649225
	.cc_bottom .LCPI0_0.data
	.cc_top .LCPI0_1.data,.LCPI0_1
	.align	4
	.type	.LCPI0_1,@object
	.size	.LCPI0_1, 4
.LCPI0_1:
	.long	1148846080
	.cc_bottom .LCPI0_1.data
	.text
	.globl	metadata_callback
	.align	4
	.type	metadata_callback,@function
	.cc_top metadata_callback.function,metadata_callback
metadata_callback:
.Lfunc_begin0:
	.loc	2 222 0
	.cfi_startproc
	.issue_mode dual
	{
		nop
		dualentsp 6
	}
.Ltmp0:
	.cfi_def_cfa_offset 24
.Ltmp1:
	.cfi_offset 15, 0
	std r5, r4, sp[2]
.Ltmp2:
	.cfi_offset 4, -8
.Ltmp3:
	.cfi_offset 5, -4
	{
		nop
		ldw r0, r1[0]
	}
.Ltmp4:
	bt r0, .LBB0_2
.Ltmp5:
	{
		ldc r0, 48
		nop
	}
.Ltmp6:
	.loc	2 227 9 prologue_end
	{
		add r0, r1, r0
		nop
	}
	.loc	2 227 9
	ldd r3, r0, r0[0]
	.loc	2 227 9
	ldaw r2, dp[total_samples]
.Ltmp7:
	std r3, r0, r2[0]
	{
		nop
		ldw r2, r1[8]
	}
	.loc	2 228 9
	stw r2, dp[sample_rate]
	{
		nop
		ldw r11, r1[9]
	}
	.loc	2 229 9
	stw r11, dp[channels]
	{
		nop
		ldw r1, r1[10]
	}
.Ltmp8:
	.loc	2 230 9
	stw r1, dp[bits_per_sample]
	{
		ldc r4, 0
		mov r1, r3
	}
	.loc	2 232 9
	{
		mov r3, r4
		nop
	}
	bl __udivdi3
	ldw r1, cp[.LCPI0_0]
	.loc	2 233 9
	lmul r1, r2, r0, r1, r4, r4
	{
		shr r2, r1, 5
		ldc r1, 60
	}
	.loc	2 234 9
	mul r1, r2, r1
	{
		sub r3, r0, r1
		nop
	}
.Ltmp9:
	.loc	2 235 9
	ldaw r4, dp[TotalTimeString]
	ldaw r11, cp[.L.str]
	{
		mov r0, r4
		mov r1, r11
	}
	bl siprintf
.Ltmp10:
	.loc	2 237 9
	ldw r5, dp[channels]
	.loc	2 237 9
	ldw r0, dp[sample_rate]
	.loc	2 237 9
	bl __floatunsisf
	ldw r1, cp[.LCPI0_1]
	.loc	2 237 9
	bl __divsf3
	.loc	2 237 9
	bl __extendsfdf2
	{
		mov r3, r0
		nop
	}
	.loc	2 237 9
	ldw r0, dp[bits_per_sample]
	.loc	2 237 9
	std r4, r0, sp[1]
	{
		nop
		stw r1, sp[1]
	}
	ldaw r4, dp[information_string]
	ldaw r11, cp[.L.str1]
	{
		mov r0, r4
		mov r1, r11
	}
	{
		mov r2, r5
		nop
	}
	bl sprintf
	{
		ldc r0, 8
		nop
	}
	.loc	2 243 9
	bl set_display_control_flag
	.loc	2 244 9
	ldaw r11, cp[.L.str2]
	{
		mov r0, r11
		mov r1, r4
	}
	bl debug_printf
.Ltmp11:
.LBB0_2:
	.loc	2 253 1
	ldd r5, r4, sp[2]
	{
		nop
		retsp 6
	}
	# RETURN_REG_HOLDER
.Ltmp12:
	.cc_bottom metadata_callback.function
	.set	metadata_callback.nstackwords,((__udivdi3.nstackwords $M siprintf.nstackwords $M __floatunsisf.nstackwords $M __divsf3.nstackwords $M __extendsfdf2.nstackwords $M sprintf.nstackwords $M set_display_control_flag.nstackwords $M debug_printf.nstackwords) + 6)
	.globl	metadata_callback.nstackwords
	.set	metadata_callback.maxcores,debug_printf.maxcores $M set_display_control_flag.maxcores $M siprintf.maxcores $M sprintf.maxcores $M 1
	.globl	metadata_callback.maxcores
	.set	metadata_callback.maxtimers,debug_printf.maxtimers $M set_display_control_flag.maxtimers $M siprintf.maxtimers $M sprintf.maxtimers $M 0
	.globl	metadata_callback.maxtimers
	.set	metadata_callback.maxchanends,debug_printf.maxchanends $M set_display_control_flag.maxchanends $M siprintf.maxchanends $M sprintf.maxchanends $M 0
	.globl	metadata_callback.maxchanends
.Ltmp13:
	.size	metadata_callback, .Ltmp13-metadata_callback
.Lfunc_end0:
	.cfi_endproc

	.globl	error_callback
	.align	4
	.type	error_callback,@function
	.cc_top error_callback.function,error_callback
error_callback:
.Lfunc_begin1:
	.loc	2 259 0
	.cfi_startproc
	.issue_mode dual
	{
		nop
		dualentsp 2
	}
.Ltmp14:
	.cfi_def_cfa_offset 8
.Ltmp15:
	.cfi_offset 15, 0
	.loc	2 261 5 prologue_end
.Ltmp16:
	ldaw r11, cp[FLAC__StreamDecoderErrorStatusString]
	{
		nop
		ldw r1, r11[r1]
	}
.Ltmp17:
	.loc	2 261 5
	ldaw r11, cp[.L.str3]
	{
		mov r0, r11
		nop
	}
.Ltmp18:
	bl debug_printf
.Ltmp19:
	{
		nop
		retsp 2
	}
	.loc	2 262 1
	# RETURN_REG_HOLDER
.Ltmp20:
	.cc_bottom error_callback.function
	.set	error_callback.nstackwords,(debug_printf.nstackwords + 2)
	.globl	error_callback.nstackwords
	.set	error_callback.maxcores,debug_printf.maxcores $M 1
	.globl	error_callback.maxcores
	.set	error_callback.maxtimers,debug_printf.maxtimers $M 0
	.globl	error_callback.maxtimers
	.set	error_callback.maxchanends,debug_printf.maxchanends $M 0
	.globl	error_callback.maxchanends
.Ltmp21:
	.size	error_callback, .Ltmp21-error_callback
.Lfunc_end1:
	.cfi_endproc

	.globl	PlayFLAC
	.align	4
	.type	PlayFLAC,@function
	.cc_top PlayFLAC.function,PlayFLAC
PlayFLAC:
.Lfunc_begin2:
	.loc	2 291 0
	.cfi_startproc
	.issue_mode dual
	{
		nop
		dualentsp 12
	}
.Ltmp22:
	.cfi_def_cfa_offset 48
.Ltmp23:
	.cfi_offset 15, 0
	std r5, r4, sp[4]
.Ltmp24:
	.cfi_offset 4, -16
.Ltmp25:
	.cfi_offset 5, -12
	std r7, r6, sp[5]
.Ltmp26:
	.cfi_offset 6, -8
.Ltmp27:
	.cfi_offset 7, -4
.Ltmp28:
	{
		mov r4, r2
		mov r6, r1
	}
.Ltmp29:
	.loc	2 292 5 prologue_end
	stw r0, dp[ptr_file]
	{
		ldc r5, 0
		nop
	}
	.loc	2 293 5
	{
		mov r1, r5
		nop
	}
	bl f_lseek
.Ltmp30:
	.loc	2 294 5
	ldaw r11, cp[.L.str4]
	{
		mov r0, r11
		nop
	}
	bl debug_printf
	.loc	2 295 5
	stw r6, dp[chan_handshake]
	.loc	2 296 5
	ldaw r11, cp[.L.str5]
	{
		mov r0, r11
		nop
	}
	bl debug_printf
	.loc	2 299 15
	bl FLAC__stream_decoder_new
	.loc	2 299 15
	stw r0, dp[decoder]
	.loc	2 300 8
.Ltmp31:
	bf r0, .LBB2_1
.Ltmp32:
	.loc	2 305 5
	{
		mov r1, r5
		nop
	}
	bl FLAC__stream_decoder_set_md5_checking
	.loc	2 307 5
	ldw r0, dp[decoder]
	.loc	2 307 5
	ldap r11, error_callback
	{
		mov r1, r11
		nop
	}
	ldap r11, metadata_callback
	std r1, r11, sp[2]
	ldap r11, write_callback
	{
		mov r1, r11
		nop
	}
	ldap r11, eof_callback
	std r1, r11, sp[1]
	{
		nop
		stw r5, sp[6]
	}
	ldap r11, length_callback
	{
		nop
		stw r11, sp[1]
	}
	ldap r11, read_callback
	{
		mov r1, r11
		nop
	}
	ldap r11, seek_callback
	{
		mov r2, r11
		nop
	}
	ldap r11, tell_callback
	{
		mov r3, r11
		nop
	}
	bl FLAC__stream_decoder_init_stream
.Ltmp33:
	.loc	2 320 9
	bf r0, .LBB2_4
.Ltmp34:
	.loc	2 321 9
	ldaw r11, cp[FLAC__StreamDecoderInitStatusString]
	{
		nop
		ldw r1, r11[r0]
	}
	.loc	2 321 9
	ldaw r11, cp[.L.str7]
	{
		mov r0, r11
		nop
	}
.Ltmp35:
	bl debug_printf
	{
		ldc r6, 6
		nop
	}
	bu .LBB2_11
.Ltmp36:
.LBB2_1:
	.loc	2 301 9
	ldaw r11, cp[.L.str6]
	{
		mov r0, r11
		nop
	}
	bl debug_printf
	{
		ldc r6, 6
		nop
	}
	bu .LBB2_11
.Ltmp37:
.LBB2_4:
	.loc	2 327 5
	ldaw r11, cp[.L.str8]
	{
		mov r0, r11
		nop
	}
	bl debug_printf
	{
		mkmsk r6, 1
		nop
	}
	.loc	2 330 5
	stw r6, dp[new_track]
	.loc	2 331 5
	ldaw r0, dp[CurrentPosition]
	std r5, r5, r0[0]
	.loc	2 332 5
	stw r5, dp[SecElapsed]
	{
		ldaw r5, sp[7]
		nop
	}
.Ltmp38:
.LBB2_5:
	.loc	2 338 13
	ldap r11, Skip
.Ltmp39:
	{
		mov r0, r4
		mov r1, r5
	}
	{
		mov r2, r11
		nop
	}
	bl TestUserControl
	{
		mov r1, r0
		nop
	}
	.loc	2 339 13
.Ltmp40:
	ldw r0, dp[decoder]
.Ltmp41:
	.loc	2 338 13
	{
		eq r1, r1, 1
		nop
	}
	bt r1, .LBB2_6
.Ltmp42:
	.loc	2 343 30
	bl FLAC__stream_decoder_process_single
	{
		mov r7, r0
		nop
	}
.Ltmp43:
	.loc	2 344 50
	ldw r0, dp[decoder]
	.loc	2 344 50
	bl FLAC__stream_decoder_get_state
	.loc	2 345 13
.Ltmp44:
	bf r7, .LBB2_8
.Ltmp45:
	.loc	2 351 9
	{
		eq r0, r0, 4
		nop
	}
	bf r0, .LBB2_5
.Ltmp46:
	.loc	2 353 17
	ldaw r11, cp[.L.str10]
	{
		mov r0, r11
		nop
	}
	bl debug_printf
	.loc	2 354 17
	ldw r0, dp[decoder]
	.loc	2 354 17
	bl FLAC__stream_decoder_delete
	bu .LBB2_11
.Ltmp47:
.LBB2_6:
	.loc	2 339 13
	bl FLAC__stream_decoder_delete
	{
		nop
		ldw r6, sp[7]
	}
	bu .LBB2_11
.Ltmp48:
.LBB2_8:
	.loc	2 347 13
	ldaw r11, cp[FLAC__StreamDecoderStateString]
	{
		nop
		ldw r1, r11[r0]
	}
	.loc	2 347 13
	ldaw r11, cp[.L.str9]
	{
		mov r0, r11
		nop
	}
	bl debug_printf
	.loc	2 348 13
	ldw r0, dp[decoder]
	.loc	2 348 13
	bl FLAC__stream_decoder_delete
	{
		ldc r6, 6
		nop
	}
.Ltmp49:
.LBB2_11:
	.loc	2 361 1
	{
		mov r0, r6
		nop
	}
	ldd r7, r6, sp[5]
	ldd r5, r4, sp[4]
	{
		nop
		retsp 12
	}
	# RETURN_REG_HOLDER
.Ltmp50:
	.cc_bottom PlayFLAC.function
	.set	PlayFLAC.nstackwords,((f_lseek.nstackwords $M FLAC__stream_decoder_new.nstackwords $M FLAC__stream_decoder_set_md5_checking.nstackwords $M FLAC__stream_decoder_init_stream.nstackwords $M TestUserControl.nstackwords $M FLAC__stream_decoder_process_single.nstackwords $M FLAC__stream_decoder_get_state.nstackwords $M FLAC__stream_decoder_delete.nstackwords $M debug_printf.nstackwords) + 12)
	.globl	PlayFLAC.nstackwords
	.set	PlayFLAC.maxcores,FLAC__stream_decoder_delete.maxcores $M FLAC__stream_decoder_get_state.maxcores $M FLAC__stream_decoder_init_stream.maxcores $M FLAC__stream_decoder_new.maxcores $M FLAC__stream_decoder_process_single.maxcores $M FLAC__stream_decoder_set_md5_checking.maxcores $M TestUserControl.maxcores $M debug_printf.maxcores $M f_lseek.maxcores $M 1
	.globl	PlayFLAC.maxcores
	.set	PlayFLAC.maxtimers,FLAC__stream_decoder_delete.maxtimers $M FLAC__stream_decoder_get_state.maxtimers $M FLAC__stream_decoder_init_stream.maxtimers $M FLAC__stream_decoder_new.maxtimers $M FLAC__stream_decoder_process_single.maxtimers $M FLAC__stream_decoder_set_md5_checking.maxtimers $M TestUserControl.maxtimers $M debug_printf.maxtimers $M f_lseek.maxtimers $M 0
	.globl	PlayFLAC.maxtimers
	.set	PlayFLAC.maxchanends,FLAC__stream_decoder_delete.maxchanends $M FLAC__stream_decoder_get_state.maxchanends $M FLAC__stream_decoder_init_stream.maxchanends $M FLAC__stream_decoder_new.maxchanends $M FLAC__stream_decoder_process_single.maxchanends $M FLAC__stream_decoder_set_md5_checking.maxchanends $M TestUserControl.maxchanends $M debug_printf.maxchanends $M f_lseek.maxchanends $M 0
	.globl	PlayFLAC.maxchanends
.Ltmp51:
	.size	PlayFLAC, .Ltmp51-PlayFLAC
.Lfunc_end2:
	.cfi_endproc

	.align	4
	.type	read_callback,@function
	.cc_top read_callback.function,read_callback
read_callback:
.Lfunc_begin3:
	.loc	2 81 0
	.cfi_startproc
	.issue_mode dual
	{
		nop
		dualentsp 4
	}
.Ltmp52:
	.cfi_def_cfa_offset 16
.Ltmp53:
	.cfi_offset 15, 0
	std r5, r4, sp[1]
.Ltmp54:
	.cfi_offset 4, -8
.Ltmp55:
	.cfi_offset 5, -4
	{
		mov r5, r2
		nop
	}
.Ltmp56:
	.loc	2 89 9 prologue_end
	{
		ldc r4, 2
		ldw r2, r5[0]
	}
	bf r2, .LBB3_3
.Ltmp57:
	.loc	2 91 11
	ldw r0, dp[ptr_file]
.Ltmp58:
	.loc	2 91 11
	{
		mov r3, r5
		nop
	}
.Ltmp59:
	bl f_read
.Ltmp60:
	bt r0, .LBB3_3
.Ltmp61:
	{
		nop
		ldw r0, r5[0]
	}
.Ltmp62:
	.loc	2 100 13
	{
		eq r4, r0, 0
		nop
	}
.Ltmp63:
.LBB3_3:
	.loc	2 104 1
	{
		mov r0, r4
		nop
	}
.Ltmp64:
	ldd r5, r4, sp[1]
	{
		nop
		retsp 4
	}
	# RETURN_REG_HOLDER
.Ltmp65:
	.cc_bottom read_callback.function
	.set	read_callback.nstackwords,(f_read.nstackwords + 4)
	.set	read_callback.maxcores,f_read.maxcores $M 1
	.set	read_callback.maxtimers,f_read.maxtimers $M 0
	.set	read_callback.maxchanends,f_read.maxchanends $M 0
.Ltmp66:
	.size	read_callback, .Ltmp66-read_callback
.Lfunc_end3:
	.cfi_endproc

	.align	4
	.type	seek_callback,@function
	.cc_top seek_callback.function,seek_callback
seek_callback:
.Lfunc_begin4:
	.loc	2 110 0
	.cfi_startproc
	.issue_mode dual
	{
		nop
		dualentsp 4
	}
.Ltmp67:
	.cfi_def_cfa_offset 16
.Ltmp68:
	.cfi_offset 15, 0
.Ltmp69:
	.cfi_offset 4, -8
	{
		mov r4, r1
		stw r4, sp[2]
	}
	.loc	2 111 5 prologue_end
.Ltmp70:
	ldaw r11, cp[.L.str14]
	{
		mov r0, r11
		nop
	}
.Ltmp71:
	bl debug_printf
.Ltmp72:
	.loc	2 112 19
	ldw r0, dp[ptr_file]
	.loc	2 112 19
	{
		mov r1, r4
		nop
	}
	bl f_lseek
.Ltmp73:
	.loc	2 113 10
	bf r0, .LBB4_1
.Ltmp74:
	.loc	2 120 9
	ldaw r11, cp[.L.str16]
	{
		mov r0, r11
		nop
	}
.Ltmp75:
	bl debug_printf
.Ltmp76:
	{
		mkmsk r0, 1
		nop
	}
	bu .LBB4_3
.Ltmp77:
.LBB4_1:
	.loc	2 115 9
	ldaw r11, cp[.L.str15]
	{
		mov r0, r11
		nop
	}
.Ltmp78:
	bl debug_printf
.Ltmp79:
	{
		ldc r0, 0
		nop
	}
.Ltmp80:
.LBB4_3:
	{
		nop
		ldw r4, sp[2]
	}
	{
		nop
		retsp 4
	}
	.loc	2 123 1
	# RETURN_REG_HOLDER
.Ltmp81:
	.cc_bottom seek_callback.function
	.set	seek_callback.nstackwords,((f_lseek.nstackwords $M debug_printf.nstackwords) + 4)
	.set	seek_callback.maxcores,debug_printf.maxcores $M f_lseek.maxcores $M 1
	.set	seek_callback.maxtimers,debug_printf.maxtimers $M f_lseek.maxtimers $M 0
	.set	seek_callback.maxchanends,debug_printf.maxchanends $M f_lseek.maxchanends $M 0
.Ltmp82:
	.size	seek_callback, .Ltmp82-seek_callback
.Lfunc_end4:
	.cfi_endproc

	.align	4
	.type	tell_callback,@function
	.cc_top tell_callback.function,tell_callback
tell_callback:
.Lfunc_begin5:
	.loc	2 129 0
	.cfi_startproc
	.issue_mode dual
	{
		nop
		dualentsp 0
	}
	.loc	2 130 5 prologue_end
.Ltmp83:
	ldw r0, dp[ptr_file]
.Ltmp84:
	.loc	2 130 5
	{
		ldc r0, 0
		ldw r2, r0[2]
	}
.Ltmp85:
	.loc	2 130 5
	std r0, r2, r1[0]
	{
		nop
		retsp 0
	}
	.loc	2 131 5
	# RETURN_REG_HOLDER
.Ltmp86:
	.cc_bottom tell_callback.function
	.set	tell_callback.nstackwords,0
	.set	tell_callback.maxcores,1
	.set	tell_callback.maxtimers,0
	.set	tell_callback.maxchanends,0
.Ltmp87:
	.size	tell_callback, .Ltmp87-tell_callback
.Lfunc_end5:
	.cfi_endproc

	.align	4
	.type	length_callback,@function
	.cc_top length_callback.function,length_callback
length_callback:
.Lfunc_begin6:
	.loc	2 138 0
	.cfi_startproc
	.issue_mode dual
	{
		nop
		dualentsp 4
	}
.Ltmp88:
	.cfi_def_cfa_offset 16
.Ltmp89:
	.cfi_offset 15, 0
	std r5, r4, sp[1]
.Ltmp90:
	.cfi_offset 4, -8
.Ltmp91:
	.cfi_offset 5, -4
	{
		mov r4, r1
		nop
	}
.Ltmp92:
	.loc	2 139 5 prologue_end
	ldaw r11, cp[.L.str12]
	{
		mov r0, r11
		nop
	}
.Ltmp93:
	bl debug_printf
.Ltmp94:
	.loc	2 140 5
	ldw r0, dp[ptr_file]
	.loc	2 140 5
	{
		ldc r5, 0
		ldw r1, r0[3]
	}
	.loc	2 140 5
	std r5, r1, r4[0]
	.loc	2 141 5
	ldaw r11, cp[.L.str13]
	{
		mov r0, r11
		mov r2, r5
	}
	bl debug_printf
	.loc	2 142 5
	{
		mov r0, r5
		nop
	}
	ldd r5, r4, sp[1]
.Ltmp95:
	{
		nop
		retsp 4
	}
	# RETURN_REG_HOLDER
.Ltmp96:
	.cc_bottom length_callback.function
	.set	length_callback.nstackwords,(debug_printf.nstackwords + 4)
	.set	length_callback.maxcores,debug_printf.maxcores $M 1
	.set	length_callback.maxtimers,debug_printf.maxtimers $M 0
	.set	length_callback.maxchanends,debug_printf.maxchanends $M 0
.Ltmp97:
	.size	length_callback, .Ltmp97-length_callback
.Lfunc_end6:
	.cfi_endproc

	.align	4
	.type	eof_callback,@function
	.cc_top eof_callback.function,eof_callback
eof_callback:
.Lfunc_begin7:
	.loc	2 148 0
	.cfi_startproc
	.issue_mode dual
	{
		nop
		dualentsp 0
	}
	.loc	2 149 5 prologue_end
.Ltmp98:
	ldw r0, dp[ptr_file]
.Ltmp99:
	{
		nop
		ldw r1, r0[2]
	}
.Ltmp100:
	{
		nop
		ldw r0, r0[3]
	}
	.loc	2 149 5
	{
		eq r0, r1, r0
		retsp 0
	}
	.loc	2 150 5
	# RETURN_REG_HOLDER
.Ltmp101:
	.cc_bottom eof_callback.function
	.set	eof_callback.nstackwords,0
	.set	eof_callback.maxcores,1
	.set	eof_callback.maxtimers,0
	.set	eof_callback.maxchanends,0
.Ltmp102:
	.size	eof_callback, .Ltmp102-eof_callback
.Lfunc_end7:
	.cfi_endproc

	.align	4
	.type	write_callback,@function
	.cc_top write_callback.function,write_callback
write_callback:
.Lfunc_begin8:
	.loc	2 159 0
	.cfi_startproc
	.issue_mode dual
	{
		nop
		dualentsp 14
	}
.Ltmp103:
	.cfi_def_cfa_offset 56
.Ltmp104:
	.cfi_offset 15, 0
	std r5, r4, sp[3]
.Ltmp105:
	.cfi_offset 4, -32
.Ltmp106:
	.cfi_offset 5, -28
	std r7, r6, sp[4]
.Ltmp107:
	.cfi_offset 6, -24
.Ltmp108:
	.cfi_offset 7, -20
	std r9, r8, sp[5]
.Ltmp109:
	.cfi_offset 8, -16
.Ltmp110:
	.cfi_offset 9, -12
.Ltmp111:
	.cfi_offset 10, -8
.Ltmp112:
	{
		mov r0, r2
		stw r10, sp[12]
	}
.Ltmp113:
	{
		nop
		ldw r5, r1[0]
	}
.Ltmp114:
	{
		nop
		stw r5, sp[5]
	}
	{
		nop
		ldw r2, r1[1]
	}
.Ltmp115:
	{
		nop
		stw r2, sp[2]
	}
	{
		nop
		ldw r9, r1[2]
	}
.Ltmp116:
	{
		nop
		stw r9, sp[4]
	}
	{
		nop
		ldw r1, r1[4]
	}
.Ltmp117:
	.loc	2 170 5 prologue_end
	{
		shr r1, r1, 3
		nop
	}
.Ltmp118:
	.loc	2 193 13
	ldw r2, dp[chan_handshake]
.Ltmp119:
	{
		nop
		stw r2, sp[1]
	}
.Ltmp120:
	.loc	2 175 5
	mul r2, r9, r1
	.loc	2 175 5
	{
		sub r6, r9, 1
		stw r2, sp[3]
	}
	{
		ldc r3, 0
		nop
	}
.Ltmp121:
	{
		mov r2, r3
		mov r7, r3
	}
.Ltmp122:
.LBB8_1:
	bf r9, .LBB8_9
.Ltmp123:
	{
		mov r11, r9
		nop
	}
.Ltmp124:
	bf r1, .LBB8_7
.Ltmp125:
	.loc	2 179 17
	ldw r11, dp[buff_id]
	{
		ldc r4, 11
		nop
	}
.Ltmp126:
	.loc	2 177 17
	{
		shl r11, r11, r4
		nop
	}
	ldaw r4, dp[audio_buffer]
	{
		add r8, r4, r11
		mov r11, r3
	}
	{
		mov r10, r2
		nop
	}
.Ltmp127:
.LBB8_6:
	{
		mov r5, r11
		nop
	}
	{
		nop
		ldw r11, r0[r5]
	}
.Ltmp128:
	.loc	2 177 13
	{
		mov r9, r3
		ldw r11, r11[r7]
	}
.Ltmp129:
.LBB8_4:
	{
		add r4, r8, r9
		nop
	}
	.loc	2 179 17
.Ltmp130:
	st8 r11, r4[r10]
	.loc	2 180 17
	ashr r11, r11, 8
.Ltmp131:
	.loc	2 178 65
	{
		add r9, r9, 1
		nop
	}
.Ltmp132:
	.loc	2 178 13
	{
		lsu r4, r9, r1
		nop
	}
	.loc	2 178 13
	bt r4, .LBB8_4
.Ltmp133:
	.loc	2 182 13
	{
		add r10, r10, r1
		add r11, r5, 1
	}
.Ltmp134:
	.loc	2 176 9
	{
		eq r5, r5, r6
		nop
	}
	bf r5, .LBB8_6
	bu .LBB8_8
.Ltmp135:
.LBB8_7:
	.loc	2 176 9
	{
		sub r11, r11, 1
		nop
	}
	bt r11, .LBB8_7
.Ltmp136:
.LBB8_8:
	{
		nop
		ldw r11, sp[3]
	}
.Ltmp137:
	.loc	2 176 9
	{
		add r2, r11, r2
		ldw r5, sp[5]
	}
.Ltmp138:
	{
		nop
		ldw r9, sp[4]
	}
.Ltmp139:
.LBB8_9:
	.loc	2 184 9
	{
		add r7, r7, 1
		nop
	}
	ldc r11, 2047
	.loc	2 186 13
.Ltmp140:
	{
		lss r11, r11, r2
		nop
	}
	bt r11, .LBB8_11
.Ltmp141:
	{
		lsu r11, r7, r5
		nop
	}
	bt r11, .LBB8_16
.Ltmp142:
.LBB8_11:
	.loc	2 187 13
	ldw r8, dp[buff_id]
.Ltmp143:
	{
		nop
		ldw r11, sp[2]
	}
	.loc	2 187 13
	ldaw r4, dp[sm_sample_rate]
	.loc	2 187 13
	stw r11, r4[r8]
	.loc	2 188 13
	ldaw r11, dp[sm_ch_count]
	.loc	2 188 13
	stw r9, r11[r8]
	.loc	2 189 13
	ldaw r11, dp[sm_byte_per_sample]
	.loc	2 189 13
	stw r1, r11[r8]
	.loc	2 190 13
	ldaw r11, dp[sm_byte_count]
	.loc	2 190 13
	stw r2, r11[r8]
	.loc	2 191 13
	ldw r2, dp[new_track]
	.loc	2 191 13
	ldaw r11, dp[sm_new_track]
	.loc	2 191 13
	stw r2, r11[r8]
	.loc	2 192 17
.Ltmp144:
	{
		eq r2, r2, 1
		nop
	}
	bf r2, .LBB8_13
.Ltmp145:
	.loc	2 192 31
	stw r3, dp[new_track]
.Ltmp146:
.LBB8_13:
	{
		nop
		ldw r2, sp[1]
	}
	.file	13 "C:/Users/takaaki/git/lib_xcore_c/lib_xcore_c/src\\xcore_c_chan_impl.h"
	.loc	13 96 3
.Ltmp147:
	#APP
	outct res[r2], 0x1
	#NO_APP
.Ltmp148:
	.loc	13 106 3
	#APP
	chkct res[r2], 0x1
	#NO_APP
.Ltmp149:
	.loc	13 67 3
	#APP
	out res[r2], r8
	#NO_APP
.Ltmp150:
	.loc	13 96 3
	#APP
	outct res[r2], 0x1
	#NO_APP
.Ltmp151:
	.loc	13 106 3
	#APP
	chkct res[r2], 0x1
	#NO_APP
.Ltmp152:
	.loc	2 194 13
	{
		add r2, r8, 1
		mkmsk r11, 3
	}
	.loc	2 195 17
.Ltmp153:
	{
		lsu r4, r11, r2
		mov r11, r3
	}
	bt r4, .LBB8_15
.Ltmp154:
	.loc	2 195 17
	{
		mov r11, r2
		nop
	}
.Ltmp155:
.LBB8_15:
	.loc	2 195 37
	stw r11, dp[buff_id]
	{
		mov r2, r3
		nop
	}
.Ltmp156:
.LBB8_16:
	.loc	2 186 13
	{
		lsu r11, r7, r5
		nop
	}
	bt r11, .LBB8_1
.Ltmp157:
	{
		mkmsk r0, 1
		nop
	}
.Ltmp158:
	{
		lsu r2, r0, r5
		ldc r3, 0
	}
.Ltmp159:
	.loc	2 204 13
	bt r2, .LBB8_18
.Ltmp160:
	{
		mov r1, r3
		nop
	}
	bu .LBB8_20
.Ltmp161:
.LBB8_18:
	.loc	2 204 13
	ashr r1, r5, 32
.Ltmp162:
.LBB8_20:
	bt r2, .LBB8_22
.Ltmp163:
	.loc	2 204 13
	{
		mov r5, r0
		nop
	}
.Ltmp164:
.LBB8_22:
	.loc	2 204 13
	ldaw r2, dp[CurrentPosition]
	ldd r11, r0, r2[0]
.Ltmp165:
	.loc	2 204 13
	ladd r4, r0, r0, r5, r3
	ladd r11, r1, r11, r1, r4
	.loc	2 204 13
	std r1, r0, r2[0]
	{
		nop
		ldw r2, sp[2]
	}
	.loc	2 205 13
	bl __udivdi3
.Ltmp166:
	.loc	2 206 17
	ldw r1, dp[SecElapsed]
	.loc	2 206 17
	{
		eq r1, r0, r1
		nop
	}
	bt r1, .LBB8_24
.Ltmp167:
	.loc	2 207 17
	stw r0, dp[SecElapsed]
	{
		ldc r0, 4
		nop
	}
.Ltmp168:
	.loc	2 208 17
	bl set_display_control_flag
.Ltmp169:
.LBB8_24:
	{
		ldc r0, 0
		ldw r10, sp[12]
	}
.Ltmp170:
	.loc	2 211 13
	ldd r9, r8, sp[5]
	ldd r7, r6, sp[4]
	ldd r5, r4, sp[3]
	{
		nop
		retsp 14
	}
	# RETURN_REG_HOLDER
.Ltmp171:
	.cc_bottom write_callback.function
	.set	write_callback.nstackwords,((__udivdi3.nstackwords $M set_display_control_flag.nstackwords) + 14)
	.set	write_callback.maxcores,set_display_control_flag.maxcores $M 1
	.set	write_callback.maxtimers,set_display_control_flag.maxtimers $M 0
	.set	write_callback.maxchanends,set_display_control_flag.maxchanends $M 0
.Ltmp172:
	.size	write_callback, .Ltmp172-write_callback
.Lfunc_end8:
	.file	14 "C:/Users/takaaki/git/lib_xcore_c/lib_xcore_c/api\\xcore_c_channel.h"
	.cfi_endproc

	.align	4
	.type	Skip,@function
	.cc_top Skip.function,Skip
Skip:
.Lfunc_begin9:
	.loc	2 264 0
	.cfi_startproc
	.issue_mode dual
	{
		nop
		dualentsp 10
	}
.Ltmp173:
	.cfi_def_cfa_offset 40
.Ltmp174:
	.cfi_offset 15, 0
	std r5, r4, sp[2]
.Ltmp175:
	.cfi_offset 4, -24
.Ltmp176:
	.cfi_offset 5, -20
	std r7, r6, sp[3]
.Ltmp177:
	.cfi_offset 6, -16
.Ltmp178:
	.cfi_offset 7, -12
	std r9, r8, sp[4]
.Ltmp179:
	.cfi_offset 8, -8
.Ltmp180:
	.cfi_offset 9, -4
	.loc	2 266 5 prologue_end
.Ltmp181:
	ldw r1, dp[sample_rate]
	.loc	2 266 5
	mul r4, r1, r0
.Ltmp182:
	.loc	2 267 33
	ldw r0, dp[decoder]
.Ltmp183:
	.loc	2 267 33
	bl FLAC__stream_decoder_get_total_samples
	{
		mov r7, r0
		mov r8, r1
	}
	.loc	2 269 5
	ldaw r9, dp[CurrentPosition]
	ldd r3, r2, r9[0]
	{
		nop
		stw r8, sp[2]
	}
	{
		nop
		stw r7, sp[1]
	}
	.loc	2 269 5
	ldaw r11, cp[.L.str11]
	{
		mov r0, r11
		mov r1, r4
	}
	bl debug_printf
	.loc	2 276 9
.Ltmp184:
	ashr r1, r4, 32
	bt r1, .LBB9_1
.Ltmp185:
	.loc	2 282 9
	ldd r3, r2, r9[0]
	{
		ldc r0, 0
		nop
	}
	.loc	2 282 9
	ladd r2, r5, r2, r4, r0
	ladd r1, r6, r3, r1, r2
	.loc	2 283 14
.Ltmp186:
	{
		eq r1, r6, r8
		nop
	}
	bt r1, .LBB9_7
.Ltmp187:
	{
		lsu r1, r8, r6
		nop
	}
	bu .LBB9_9
.Ltmp188:
.LBB9_1:
	.loc	2 277 14
	{
		neg r3, r4
		nop
	}
	.loc	2 277 14
	ashr r11, r3, 32
	.loc	2 277 14
	ldd r0, r2, r9[0]
	.loc	2 277 14
	{
		eq r5, r11, r0
		nop
	}
	bt r5, .LBB9_2
.Ltmp189:
	{
		lsu r3, r0, r11
		nop
	}
	bu .LBB9_4
.Ltmp190:
.LBB9_7:
	.loc	2 283 14
	{
		lsu r1, r7, r5
		nop
	}
.Ltmp191:
.LBB9_9:
	bt r1, .LBB9_11
	bu .LBB9_10
.LBB9_2:
.Ltmp192:
	.loc	2 277 14
	{
		lsu r3, r2, r3
		nop
	}
.Ltmp193:
.LBB9_4:
	{
		ldc r5, 0
		nop
	}
	{
		mov r6, r5
		nop
	}
	bt r3, .LBB9_10
.Ltmp194:
	{
		ldc r3, 0
		nop
	}
	.loc	2 278 14
	ladd r2, r5, r2, r4, r3
	ladd r0, r6, r0, r1, r2
.Ltmp195:
.LBB9_10:
	.loc	2 285 22
	ldw r0, dp[decoder]
	.loc	2 285 22
	{
		mov r1, r5
		mov r2, r6
	}
	bl FLAC__stream_decoder_seek_absolute
	.loc	2 286 5
	std r6, r5, r9[0]
	{
		mkmsk r0, 1
		nop
	}
.LBB9_11:
	.loc	2 288 1
	ldd r9, r8, sp[4]
	ldd r7, r6, sp[3]
	ldd r5, r4, sp[2]
	{
		nop
		retsp 10
	}
	# RETURN_REG_HOLDER
.Ltmp196:
	.cc_bottom Skip.function
	.set	Skip.nstackwords,((FLAC__stream_decoder_get_total_samples.nstackwords $M debug_printf.nstackwords $M FLAC__stream_decoder_seek_absolute.nstackwords) + 10)
	.set	Skip.maxcores,FLAC__stream_decoder_get_total_samples.maxcores $M FLAC__stream_decoder_seek_absolute.maxcores $M debug_printf.maxcores $M 1
	.set	Skip.maxtimers,FLAC__stream_decoder_get_total_samples.maxtimers $M FLAC__stream_decoder_seek_absolute.maxtimers $M debug_printf.maxtimers $M 0
	.set	Skip.maxchanends,FLAC__stream_decoder_get_total_samples.maxchanends $M FLAC__stream_decoder_seek_absolute.maxchanends $M debug_printf.maxchanends $M 0
.Ltmp197:
	.size	Skip, .Ltmp197-Skip
.Lfunc_end9:
	.cfi_endproc

	.section	.dp.bss,"awd",@nobits
	.cc_top total_samples.data,total_samples
	.globl	total_samples
	.align	8
	.type	total_samples,@object
	.size	total_samples, 8
total_samples:
	.long	0
	.long	0
	.cc_bottom total_samples.data
	.section	.dp.bss.4,"awd",@nobits
	.cc_top sample_rate.data,sample_rate
	.globl	sample_rate
	.align	4
	.type	sample_rate,@object
	.size	sample_rate, 4
sample_rate:
	.long	0
	.cc_bottom sample_rate.data
	.cc_top channels.data,channels
	.globl	channels
	.align	4
	.type	channels,@object
	.size	channels, 4
channels:
	.long	0
	.cc_bottom channels.data
	.cc_top bits_per_sample.data,bits_per_sample
	.globl	bits_per_sample
	.align	4
	.type	bits_per_sample,@object
	.size	bits_per_sample, 4
bits_per_sample:
	.long	0
	.cc_bottom bits_per_sample.data
	.section	.cp.rodata.string,"aMSc",@progbits
	.cc_top .L.str.data,.L.str
	.align	4
	.type	.L.str,@object
	.size	.L.str, 10
.L.str:
.asciiz"%02d:%02d"
	.cc_bottom .L.str.data
	.cc_top .L.str1.data,.L.str1
	.align	4
	.type	.L.str1,@object
	.size	.L.str1, 31
.L.str1:
.asciiz"FLAC %1dch %4.1fksps %2dbit %s"
	.cc_bottom .L.str1.data
	.cc_top .L.str2.data,.L.str2
	.align	4
	.type	.L.str2,@object
	.size	.L.str2, 4
.L.str2:
.asciiz"\n%s"
	.cc_bottom .L.str2.data
	.cc_top .L.str3.data,.L.str3
	.align	4
	.type	.L.str3,@object
	.size	.L.str3, 24
.L.str3:
.asciiz"Got error callback: %s\n"
	.cc_bottom .L.str3.data
	.section	.dp.bss.4,"awd",@nobits
	.cc_top ptr_file.data,ptr_file
	.globl	ptr_file
	.align	4
	.type	ptr_file,@object
	.size	ptr_file, 4
ptr_file:
	.long	0
	.cc_bottom ptr_file.data
	.section	.cp.rodata.string,"aMSc",@progbits
	.cc_top .L.str4.data,.L.str4
	.align	4
	.type	.L.str4,@object
	.size	.L.str4, 27
.L.str4:
.asciiz"\nEntered PlayFLAC function"
	.cc_bottom .L.str4.data
	.section	.dp.bss.4,"awd",@nobits
	.cc_top chan_handshake.data,chan_handshake
	.globl	chan_handshake
	.align	4
	.type	chan_handshake,@object
	.size	chan_handshake, 4
chan_handshake:
	.long	0
	.cc_bottom chan_handshake.data
	.section	.cp.rodata.string,"aMSc",@progbits
	.cc_top .L.str5.data,.L.str5
	.align	4
	.type	.L.str5,@object
	.size	.L.str5, 18
.L.str5:
.asciiz"\nhasdshake copied"
	.cc_bottom .L.str5.data
	.section	.dp.bss.4,"awd",@nobits
	.cc_top decoder.data,decoder
	.align	4
	.type	decoder,@object
	.size	decoder, 4
decoder:
	.long	0
	.cc_bottom decoder.data
	.section	.cp.rodata.string,"aMSc",@progbits
	.cc_top .L.str6.data,.L.str6
	.align	4
	.type	.L.str6,@object
	.size	.L.str6, 26
.L.str6:
.asciiz"\nFailed to create decoder"
	.cc_bottom .L.str6.data
	.cc_top .L.str7.data,.L.str7
	.align	4
	.type	.L.str7,@object
	.size	.L.str7, 35
.L.str7:
.asciiz"\nFailed to initialize decoder: %s\n"
	.cc_bottom .L.str7.data
	.cc_top .L.str8.data,.L.str8
	.align	4
	.type	.L.str8,@object
	.size	.L.str8, 21
.L.str8:
.asciiz"\nDecoder initialized"
	.cc_bottom .L.str8.data
	.section	.dp.bss.4,"awd",@nobits
	.cc_top new_track.data,new_track
	.globl	new_track
	.align	4
	.type	new_track,@object
	.size	new_track, 4
new_track:
	.long	0
	.cc_bottom new_track.data
	.section	.dp.bss,"awd",@nobits
	.cc_top CurrentPosition.data,CurrentPosition
	.globl	CurrentPosition
	.align	8
	.type	CurrentPosition,@object
	.size	CurrentPosition, 8
CurrentPosition:
	.long	0
	.long	0
	.cc_bottom CurrentPosition.data
	.section	.cp.rodata.string,"aMSc",@progbits
	.cc_top .L.str9.data,.L.str9
	.align	4
	.type	.L.str9,@object
	.size	.L.str9, 21
.L.str9:
.asciiz"\nDecoder failed: %s\n"
	.cc_bottom .L.str9.data
	.cc_top .L.str10.data,.L.str10
	.align	4
	.type	.L.str10,@object
	.size	.L.str10, 16
.L.str10:
.asciiz"\nEnd of Stream\n"
	.cc_bottom .L.str10.data
	.section	.dp.bss.4,"awd",@nobits
	.cc_top min_blocksize.data,min_blocksize
	.globl	min_blocksize
	.align	4
	.type	min_blocksize,@object
	.size	min_blocksize, 4
min_blocksize:
	.long	0
	.cc_bottom min_blocksize.data
	.cc_top max_blocksize.data,max_blocksize
	.globl	max_blocksize
	.align	4
	.type	max_blocksize,@object
	.size	max_blocksize, 4
max_blocksize:
	.long	0
	.cc_bottom max_blocksize.data
	.cc_top min_framesize.data,min_framesize
	.globl	min_framesize
	.align	4
	.type	min_framesize,@object
	.size	min_framesize, 4
min_framesize:
	.long	0
	.cc_bottom min_framesize.data
	.cc_top max_framesize.data,max_framesize
	.globl	max_framesize
	.align	4
	.type	max_framesize,@object
	.size	max_framesize, 4
max_framesize:
	.long	0
	.cc_bottom max_framesize.data
	.section	.dp.bss,"awd",@nobits
	.cc_top md5sum.data,md5sum
	.globl	md5sum.globound
md5sum.globound = 16
	.globl	md5sum
	.align	8
	.type	md5sum,@object
	.size	md5sum, 16
md5sum:
	.space	16
	.cc_bottom md5sum.data
	.section	.cp.rodata.string,"aMSc",@progbits
	.cc_top .L.str11.data,.L.str11
	.align	4
	.type	.L.str11,@object
	.size	.L.str11, 48
.L.str11:
.asciiz"\nSkipping %d samples, current = %d,  total = %d"
	.cc_bottom .L.str11.data
	.cc_top .L.str12.data,.L.str12
	.align	4
	.type	.L.str12,@object
	.size	.L.str12, 21
.L.str12:
.asciiz"\nGot length_callback"
	.cc_bottom .L.str12.data
	.cc_top .L.str13.data,.L.str13
	.align	4
	.type	.L.str13,@object
	.size	.L.str13, 9
.L.str13:
.asciiz", %d, OK"
	.cc_bottom .L.str13.data
	.cc_top .L.str14.data,.L.str14
	.align	4
	.type	.L.str14,@object
	.size	.L.str14, 24
.L.str14:
.asciiz"\nGot seek_callback (%d)"
	.cc_bottom .L.str14.data
	.cc_top .L.str15.data,.L.str15
	.align	4
	.type	.L.str15,@object
	.size	.L.str15, 5
.L.str15:
.asciiz", OK"
	.cc_bottom .L.str15.data
	.cc_top .L.str16.data,.L.str16
	.align	4
	.type	.L.str16,@object
	.size	.L.str16, 8
.L.str16:
.asciiz", ERROR"
	.cc_bottom .L.str16.data
	.section	.dp.bss.4,"awd",@nobits
.Ldebug_end0:
	.section	.dp.bss,"awd",@nobits
.Ldebug_end1:
	.text
.Ldebug_end2:
	.file	15 "C:\\Program Files (x86)\\XMOS\\xTIMEcomposer\\Community_14.4.1\\target/include/clang\\stddef.h"
	.section	.trap_info,"",@progbits
.Ltrap_info_entries_start0:
	.long	.Ltrap_info_entries_end0-.Ltrap_info_entries_start0
	.long	1
.Ltrap_info_entries_end0: