	.text
	.file	"sdcard_play.c"
	.text
	.globl	GetDirItemAt
	.align	4
	.type	GetDirItemAt,@function
	.cc_top GetDirItemAt.function,GetDirItemAt
GetDirItemAt:
.Lfunc_begin0:
	.loc	1 44 0
	.cfi_startproc
	.issue_mode dual
	{
		nop
		dualentsp 24
	}
.Ltmp0:
	.cfi_def_cfa_offset 96
.Ltmp1:
	.cfi_offset 15, 0
	std r5, r4, sp[9]
.Ltmp2:
	.cfi_offset 4, -24
.Ltmp3:
	.cfi_offset 5, -20
	std r7, r6, sp[10]
.Ltmp4:
	.cfi_offset 6, -16
.Ltmp5:
	.cfi_offset 7, -12
.Ltmp6:
	.cfi_offset 8, -8
.Ltmp7:
	{
		mov r5, r2
		stw r8, sp[22]
	}
.Ltmp8:
	{
		mov r4, r1
		mov r6, r0
	}
.Ltmp9:
	.loc	1 47 18 prologue_end
	ldaw r11, cp[.L.str1]
.Ltmp10:
	{
		ldaw r0, sp[9]
		mov r1, r11
	}
.Ltmp11:
	bl f_opendir
	{
		mov r7, r0
		nop
	}
.Ltmp12:
	.loc	1 48 5
	ldaw r11, cp[.L.str2]
	{
		mov r0, r11
		mov r1, r7
	}
	bl debug_printf
	bt r7, .LBB0_8
.Ltmp13:
	.loc	1 54 5
	ldaw r0, dp[GetDirItemAt.lfn]
	{
		nop
		stw r0, sp[7]
	}
	ldc r1, 256
.Ltmp14:
	{
		nop
		stw r1, sp[8]
	}
	.loc	1 58 5
.Ltmp15:
	ashr r2, r6, 32
	bt r2, .LBB0_5
.Ltmp16:
	.loc	1 46 9
	{
		add r8, r6, 1
		ldaw r7, sp[9]
	}
	{
		ldaw r6, sp[1]
		nop
	}
.Ltmp17:
.LBB0_3:
	.loc	1 59 9
	{
		mov r0, r7
		mov r1, r6
	}
	bl f_readdir
.Ltmp18:
	.loc	1 58 5
	{
		sub r8, r8, 1
		nop
	}
	.loc	1 58 5
	bt r8, .LBB0_3
.Ltmp19:
	.loc	1 63 5
	{
		ldc r1, 8
		ldw r0, sp[7]
	}
	{
		nop
		ld8u r1, r6[r1]
	}
.Ltmp20:
.LBB0_5:
	.loc	1 67 5
	{
		ldc r7, 0
		nop
	}
	{
		nop
		ld8u r2, r0[r7]
	}
	bt r2, .LBB0_7
.Ltmp21:
	{
		ldaw r0, sp[1]
		nop
	}
	.loc	1 63 5
	{
		add r0, r0, 9
		nop
	}
.Ltmp22:
.LBB0_7:
	{
		nop
		stw r0, r5[0]
	}
	.loc	1 67 5
	st8 r1, r4[r7]
.Ltmp23:
.LBB0_8:
	.loc	1 69 1
	{
		mov r0, r7
		ldw r8, sp[22]
	}
	ldd r7, r6, sp[10]
	ldd r5, r4, sp[9]
	{
		nop
		retsp 24
	}
	# RETURN_REG_HOLDER
.Ltmp24:
	.cc_bottom GetDirItemAt.function
	.set	GetDirItemAt.nstackwords,((f_opendir.nstackwords $M debug_printf.nstackwords $M f_readdir.nstackwords) + 24)
	.globl	GetDirItemAt.nstackwords
	.set	GetDirItemAt.maxcores,debug_printf.maxcores $M f_opendir.maxcores $M f_readdir.maxcores $M 1
	.globl	GetDirItemAt.maxcores
	.set	GetDirItemAt.maxtimers,debug_printf.maxtimers $M f_opendir.maxtimers $M f_readdir.maxtimers $M 0
	.globl	GetDirItemAt.maxtimers
	.set	GetDirItemAt.maxchanends,debug_printf.maxchanends $M f_opendir.maxchanends $M f_readdir.maxchanends $M 0
	.globl	GetDirItemAt.maxchanends
.Ltmp25:
	.size	GetDirItemAt, .Ltmp25-GetDirItemAt
.Lfunc_end0:
	.cfi_endproc

	.globl	GetDirIndexOf
	.align	4
	.type	GetDirIndexOf,@function
	.cc_top GetDirIndexOf.function,GetDirIndexOf
GetDirIndexOf:
.Lfunc_begin1:
	.loc	1 71 0
	.cfi_startproc
	.issue_mode dual
	{
		nop
		dualentsp 28
	}
.Ltmp26:
	.cfi_def_cfa_offset 112
.Ltmp27:
	.cfi_offset 15, 0
	std r5, r4, sp[10]
.Ltmp28:
	.cfi_offset 4, -32
.Ltmp29:
	.cfi_offset 5, -28
	std r7, r6, sp[11]
.Ltmp30:
	.cfi_offset 6, -24
.Ltmp31:
	.cfi_offset 7, -20
	{
		nop
		stw r8, sp[24]
	}
	{
		nop
		stw r9, sp[25]
	}
.Ltmp32:
	.cfi_offset 8, -16
.Ltmp33:
	.cfi_offset 9, -12
.Ltmp34:
	.cfi_offset 10, -8
.Ltmp35:
	{
		mov r5, r1
		stw r10, sp[26]
	}
.Ltmp36:
	{
		mov r4, r0
		nop
	}
.Ltmp37:
	.loc	1 73 18 prologue_end
	ldaw r11, cp[.L.str1]
.Ltmp38:
	{
		ldaw r0, sp[11]
		mov r1, r11
	}
.Ltmp39:
	bl f_opendir
.Ltmp40:
	bt r0, .LBB1_8
.Ltmp41:
	{
		nop
		stw r4, sp[2]
	}
.Ltmp42:
	.loc	1 78 5
	ldaw r0, dp[GetDirIndexOf.lfn]
	{
		nop
		stw r0, sp[9]
	}
	ldc r0, 256
.Ltmp43:
	.loc	1 79 5
	{
		ldaw r7, sp[3]
		stw r0, sp[10]
	}
	.loc	1 87 9
.Ltmp44:
	{
		add r10, r7, 9
		ldc r6, 0
	}
	{
		ldaw r8, sp[11]
		mov r4, r6
	}
.Ltmp45:
.LBB1_2:
	.loc	1 84 9
	{
		mov r0, r8
		mov r1, r7
	}
	bl f_readdir
	{
		nop
		ldw r9, sp[9]
	}
	{
		nop
		ld8u r0, r9[r6]
	}
	bt r0, .LBB1_4
.Ltmp46:
	.loc	1 87 9
	{
		mov r9, r10
		nop
	}
.Ltmp47:
.LBB1_4:
	.loc	1 92 13
	{
		mov r0, r5
		mov r1, r9
	}
	bl strcmp
	.loc	1 92 13
	bf r0, .LBB1_5
.Ltmp48:
	.loc	1 96 9
	{
		add r4, r4, 1
		ld8u r0, r9[r6]
	}
.Ltmp49:
	bt r0, .LBB1_2
.Ltmp50:
	{
		ldc r0, 4
		nop
	}
	bu .LBB1_8
.LBB1_5:
.Ltmp51:
	{
		nop
		ldw r0, sp[2]
	}
	.loc	1 93 13
.Ltmp52:
	{
		ldc r0, 0
		stw r4, r0[0]
	}
.Ltmp53:
.LBB1_8:
	{
		nop
		ldw r10, sp[26]
	}
	{
		nop
		ldw r8, sp[24]
	}
	{
		nop
		ldw r9, sp[25]
	}
	.loc	1 99 1
	ldd r7, r6, sp[11]
	ldd r5, r4, sp[10]
	{
		nop
		retsp 28
	}
	# RETURN_REG_HOLDER
.Ltmp54:
	.cc_bottom GetDirIndexOf.function
	.set	GetDirIndexOf.nstackwords,((f_opendir.nstackwords $M f_readdir.nstackwords $M strcmp.nstackwords) + 28)
	.globl	GetDirIndexOf.nstackwords
	.set	GetDirIndexOf.maxcores,f_opendir.maxcores $M f_readdir.maxcores $M strcmp.maxcores $M 1
	.globl	GetDirIndexOf.maxcores
	.set	GetDirIndexOf.maxtimers,f_opendir.maxtimers $M f_readdir.maxtimers $M strcmp.maxtimers $M 0
	.globl	GetDirIndexOf.maxtimers
	.set	GetDirIndexOf.maxchanends,f_opendir.maxchanends $M f_readdir.maxchanends $M strcmp.maxchanends $M 0
	.globl	GetDirIndexOf.maxchanends
.Ltmp55:
	.size	GetDirIndexOf, .Ltmp55-GetDirIndexOf
.Lfunc_end1:
	.cfi_endproc

	.globl	GoFolder
	.align	4
	.type	GoFolder,@function
	.cc_top GoFolder.function,GoFolder
GoFolder:
.Lfunc_begin2:
	.loc	1 103 0
	.cfi_startproc
	.issue_mode dual
	{
		nop
		dualentsp 2
	}
.Ltmp56:
	.cfi_def_cfa_offset 8
.Ltmp57:
	.cfi_offset 15, 0
	.loc	1 104 5 prologue_end
.Ltmp58:
	bl f_chdir
.Ltmp59:
	.loc	1 105 5
	ldaw r0, dp[folder_string]
	ldc r1, 256
	bl f_getcwd
	{
		ldc r0, 2
		nop
	}
	.loc	1 106 5
	bl set_display_control_flag
	{
		ldc r0, 0
		retsp 2
	}
	.loc	1 107 5
	# RETURN_REG_HOLDER
.Ltmp60:
	.cc_bottom GoFolder.function
	.set	GoFolder.nstackwords,((f_chdir.nstackwords $M f_getcwd.nstackwords $M set_display_control_flag.nstackwords) + 2)
	.globl	GoFolder.nstackwords
	.set	GoFolder.maxcores,f_chdir.maxcores $M f_getcwd.maxcores $M set_display_control_flag.maxcores $M 1
	.globl	GoFolder.maxcores
	.set	GoFolder.maxtimers,f_chdir.maxtimers $M f_getcwd.maxtimers $M set_display_control_flag.maxtimers $M 0
	.globl	GoFolder.maxtimers
	.set	GoFolder.maxchanends,f_chdir.maxchanends $M f_getcwd.maxchanends $M set_display_control_flag.maxchanends $M 0
	.globl	GoFolder.maxchanends
.Ltmp61:
	.size	GoFolder, .Ltmp61-GoFolder
.Lfunc_end2:
	.cfi_endproc

	.globl	ClimbUp
	.align	4
	.type	ClimbUp,@function
	.cc_top ClimbUp.function,ClimbUp
ClimbUp:
.Lfunc_begin3:
	.loc	1 111 0
	.cfi_startproc
	.issue_mode dual
	DUALENTSP_lu6 90
.Ltmp62:
	.cfi_def_cfa_offset 360
.Ltmp63:
	.cfi_offset 15, 0
	stw r4, sp[82]
	stw r5, sp[83]
.Ltmp64:
	.cfi_offset 4, -32
.Ltmp65:
	.cfi_offset 5, -28
	stw r6, sp[84]
	stw r7, sp[85]
.Ltmp66:
	.cfi_offset 6, -24
.Ltmp67:
	.cfi_offset 7, -20
	stw r8, sp[86]
	stw r9, sp[87]
.Ltmp68:
	.cfi_offset 8, -16
.Ltmp69:
	.cfi_offset 9, -12
	stw r10, sp[88]
.Ltmp70:
	.cfi_offset 10, -8
	{
		ldaw r4, sp[1]
		nop
	}
.Ltmp71:
	ldc r5, 256
	.loc	1 113 5 prologue_end
.Ltmp72:
	{
		mov r0, r4
		mov r1, r5
	}
	bl f_getcwd
	.loc	1 114 5
	ldaw r11, cp[.L.str3]
	{
		mov r0, r11
		mov r1, r4
	}
	bl debug_printf
	{
		ldc r1, 47
		mov r0, r4
	}
	.loc	1 116 16
	bl strrchr
	{
		mov r6, r0
		nop
	}
	.loc	1 117 5
	ldaw r11, cp[.L.str4]
	{
		mov r0, r11
		nop
	}
	bl f_chdir
	.loc	1 73 18
.Ltmp73:
	ldaw r11, cp[.L.str1]
	ldaw r0, sp[73]
.Ltmp74:
	{
		mov r1, r11
		nop
	}
	bl f_opendir
.Ltmp75:
.Ltmp76:
	bt r0, .LBB3_6
.Ltmp77:
	.loc	1 116 16
	{
		add r6, r6, 1
		nop
	}
.Ltmp78:
	.loc	1 78 5
	ldaw r0, dp[GetDirIndexOf.lfn]
	stw r0, sp[71]
	.loc	1 79 5
	stw r5, sp[72]
	ldaw r5, sp[65]
.Ltmp79:
	.loc	1 87 9
	{
		add r9, r5, 9
		ldc r10, 0
	}
	ldaw r7, sp[73]
.Ltmp80:
	.loc	1 119 5
	{
		mov r0, r10
		nop
	}
.Ltmp81:
.LBB3_2:
	{
		mov r4, r0
		mov r0, r7
	}
	.loc	1 84 9
.Ltmp82:
	{
		mov r1, r5
		nop
	}
	bl f_readdir
	.loc	1 87 9
	ldw r8, sp[71]
	{
		nop
		ld8u r0, r8[r10]
	}
	bt r0, .LBB3_4
.Ltmp83:
	.loc	1 87 9
	{
		mov r8, r9
		nop
	}
.Ltmp84:
.LBB3_4:
	.loc	1 92 13
	{
		mov r0, r6
		mov r1, r8
	}
	bl strcmp
	bf r0, .LBB3_6
.Ltmp85:
	.loc	1 96 9
	{
		add r0, r4, 1
		ld8u r1, r8[r10]
	}
.Ltmp86:
	bt r1, .LBB3_2
.Ltmp87:
.LBB3_6:
	.loc	1 120 5
	ldaw r11, cp[.L.str5]
	{
		mov r0, r11
		mov r1, r4
	}
	bl debug_printf
	.loc	1 122 5
	ldaw r0, dp[folder_string]
	ldc r1, 256
	bl f_getcwd
	{
		ldc r0, 2
		nop
	}
	.loc	1 123 5
	bl set_display_control_flag
	.loc	1 125 1
	{
		mov r0, r4
		nop
	}
	ldw r10, sp[88]
	ldw r8, sp[86]
	ldw r9, sp[87]
	ldw r6, sp[84]
	ldw r7, sp[85]
	ldw r4, sp[82]
	ldw r5, sp[83]
	retsp 90
	# RETURN_REG_HOLDER
.Ltmp88:
	.cc_bottom ClimbUp.function
	.set	ClimbUp.nstackwords,((strrchr.nstackwords $M f_chdir.nstackwords $M f_opendir.nstackwords $M f_readdir.nstackwords $M strcmp.nstackwords $M debug_printf.nstackwords $M f_getcwd.nstackwords $M set_display_control_flag.nstackwords) + 90)
	.globl	ClimbUp.nstackwords
	.set	ClimbUp.maxcores,debug_printf.maxcores $M f_chdir.maxcores $M f_getcwd.maxcores $M f_opendir.maxcores $M f_readdir.maxcores $M set_display_control_flag.maxcores $M strcmp.maxcores $M strrchr.maxcores $M 1
	.globl	ClimbUp.maxcores
	.set	ClimbUp.maxtimers,debug_printf.maxtimers $M f_chdir.maxtimers $M f_getcwd.maxtimers $M f_opendir.maxtimers $M f_readdir.maxtimers $M set_display_control_flag.maxtimers $M strcmp.maxtimers $M strrchr.maxtimers $M 0
	.globl	ClimbUp.maxtimers
	.set	ClimbUp.maxchanends,debug_printf.maxchanends $M f_chdir.maxchanends $M f_getcwd.maxchanends $M f_opendir.maxchanends $M f_readdir.maxchanends $M set_display_control_flag.maxchanends $M strcmp.maxchanends $M strrchr.maxchanends $M 0
	.globl	ClimbUp.maxchanends
.Ltmp89:
	.size	ClimbUp, .Ltmp89-ClimbUp
.Lfunc_end3:
	.file	6 "C:/Users/takaaki/git/sw_xSSDAC/module_FatFs/src\\integer.h"
	.cfi_endproc

	.globl	GoPreviousFolder
	.align	4
	.type	GoPreviousFolder,@function
	.cc_top GoPreviousFolder.function,GoPreviousFolder
GoPreviousFolder:
.Lfunc_begin4:
	.loc	1 128 0
	.cfi_startproc
	.issue_mode dual
	{
		nop
		dualentsp 6
	}
.Ltmp90:
	.cfi_def_cfa_offset 24
.Ltmp91:
	.cfi_offset 15, 0
	.loc	1 134 9 prologue_end
.Ltmp92:
	std r5, r4, sp[1]
.Ltmp93:
	.cfi_offset 4, -16
.Ltmp94:
	.cfi_offset 5, -12
	std r7, r6, sp[2]
.Ltmp95:
	.cfi_offset 6, -8
.Ltmp96:
	.cfi_offset 7, -4
	ldaw r4, dp[folder_string]
	ldc r5, 256
	{
		ldc r7, 4
		nop
	}
.LBB4_1:
	.loc	1 132 17
	bl ClimbUp
	{
		mov r6, r0
		mov r0, r4
	}
	.loc	1 134 9
	{
		mov r1, r5
		nop
	}
	bl f_getcwd
.Ltmp97:
	.loc	1 135 15
	ldaw r11, cp[.L.str6]
	{
		mov r0, r4
		mov r1, r11
	}
	bl strcmp
	bf r0, .LBB4_3
	{
		lss r0, r6, r7
		nop
	}
	bt r0, .LBB4_1
.LBB4_3:
.Ltmp98:
	.loc	1 132 17
	{
		sub r4, r6, 1
		ldc r0, 2
	}
.Ltmp99:
	.loc	1 137 5
	bl set_display_control_flag
	.loc	1 138 5
	{
		mov r0, r4
		nop
	}
	ldd r7, r6, sp[2]
	ldd r5, r4, sp[1]
	{
		nop
		retsp 6
	}
	# RETURN_REG_HOLDER
.Ltmp100:
	.cc_bottom GoPreviousFolder.function
	.set	GoPreviousFolder.nstackwords,((ClimbUp.nstackwords $M f_getcwd.nstackwords $M strcmp.nstackwords $M set_display_control_flag.nstackwords) + 6)
	.globl	GoPreviousFolder.nstackwords
	.set	GoPreviousFolder.maxcores,ClimbUp.maxcores $M f_getcwd.maxcores $M set_display_control_flag.maxcores $M strcmp.maxcores $M 1
	.globl	GoPreviousFolder.maxcores
	.set	GoPreviousFolder.maxtimers,ClimbUp.maxtimers $M f_getcwd.maxtimers $M set_display_control_flag.maxtimers $M strcmp.maxtimers $M 0
	.globl	GoPreviousFolder.maxtimers
	.set	GoPreviousFolder.maxchanends,ClimbUp.maxchanends $M f_getcwd.maxchanends $M set_display_control_flag.maxchanends $M strcmp.maxchanends $M 0
	.globl	GoPreviousFolder.maxchanends
.Ltmp101:
	.size	GoPreviousFolder, .Ltmp101-GoPreviousFolder
.Lfunc_end4:
	.cfi_endproc

	.globl	PlayTrack
	.align	4
	.type	PlayTrack,@function
	.cc_top PlayTrack.function,PlayTrack
PlayTrack:
.Lfunc_begin5:
	.loc	1 141 0
	.cfi_startproc
	.issue_mode dual
	{
		nop
		dualentsp 22
	}
.Ltmp102:
	.cfi_def_cfa_offset 88
.Ltmp103:
	.cfi_offset 15, 0
	std r5, r4, sp[8]
.Ltmp104:
	.cfi_offset 4, -24
.Ltmp105:
	.cfi_offset 5, -20
	std r7, r6, sp[9]
.Ltmp106:
	.cfi_offset 6, -16
.Ltmp107:
	.cfi_offset 7, -12
	std r9, r8, sp[10]
.Ltmp108:
	.cfi_offset 8, -8
.Ltmp109:
	.cfi_offset 9, -4
.Ltmp110:
	{
		mov r5, r2
		mov r6, r1
	}
.Ltmp111:
	{
		mov r7, r0
		nop
	}
.Ltmp112:
	.loc	1 144 5 prologue_end
	ldaw r11, cp[.L.str7]
	{
		mov r0, r11
		mov r1, r7
	}
	bl debug_printf
	.loc	1 149 9
.Ltmp113:
	{
		ldc r9, 0
		nop
	}
	{
		ldc r4, 6
		ld8u r0, r7[r9]
	}
	bf r0, .LBB5_13
.Ltmp114:
	{
		ldaw r0, sp[7]
		mkmsk r2, 1
	}
.Ltmp115:
	.loc	1 151 11
	{
		mov r1, r7
		nop
	}
	bl f_open
	{
		mov r1, r0
		nop
	}
.Ltmp116:
	.loc	1 152 9
	bf r1, .LBB5_3
.Ltmp117:
	.loc	1 153 9
	ldaw r11, cp[.L.str8]
	{
		mov r0, r11
		nop
	}
	bl debug_printf
.Ltmp118:
	bu .LBB5_13
.Ltmp119:
.LBB5_3:
	.loc	1 157 5
	{
		ldaw r0, sp[7]
		stw r9, sp[6]
	}
.Ltmp120:
	{
		ldaw r8, sp[4]
		ldc r7, 4
	}
.Ltmp121:
	{
		ldaw r3, sp[6]
		mov r1, r8
	}
.Ltmp122:
	.loc	1 161 11
	{
		mov r2, r7
		nop
	}
	bl f_read
	{
		mov r1, r0
		nop
	}
.Ltmp123:
	.loc	1 162 9
	bf r1, .LBB5_5
.Ltmp124:
	.loc	1 163 9
	ldaw r11, cp[.L.str9]
	{
		mov r0, r11
		nop
	}
	bl debug_printf
.Ltmp125:
	bu .LBB5_11
.Ltmp126:
.LBB5_5:
	.loc	1 167 5
	st8 r9, r8[r7]
	{
		nop
		ldw r0, sp[4]
	}
	.loc	1 169 5
	{
		mov r2, r0
		nop
	}
	{
		zext r2, 8
		shr r3, r0, 8
	}
	{
		zext r3, 8
		shr r1, r0, 16
	}
	.loc	1 169 5
	{
		zext r1, 8
		shr r0, r0, 24
	}
	{
		nop
		stw r0, sp[2]
	}
	{
		nop
		stw r1, sp[1]
	}
	.loc	1 169 5
	ldaw r11, cp[.L.str10]
	{
		mov r0, r11
		mov r1, r8
	}
	bl debug_printf
	.loc	1 178 9
.Ltmp127:
	ldaw r11, cp[.L.str11]
	{
		mov r0, r8
		mov r1, r11
	}
	{
		mov r2, r7
		nop
	}
	bl strncmp
	.loc	1 178 9
	bf r0, .LBB5_6
.Ltmp128:
	.loc	1 185 9
	ldaw r11, cp[.L.str12]
	{
		ldaw r0, sp[4]
		ldc r2, 4
	}
	{
		mov r1, r11
		nop
	}
	bl strncmp
	.loc	1 185 9
	bf r0, .LBB5_9
.Ltmp129:
	.loc	1 191 5
	ldaw r11, cp[.L.str13]
	{
		mov r0, r11
		nop
	}
	bl debug_printf
.Ltmp130:
.LBB5_11:
	{
		ldaw r0, sp[7]
		nop
	}
	bu .LBB5_12
.LBB5_6:
.Ltmp131:
	{
		ldaw r7, sp[7]
		nop
	}
.Ltmp132:
	.loc	1 179 14
	{
		mov r0, r7
		mov r1, r6
	}
	{
		mov r2, r5
		nop
	}
	bl PlayRIFF
	bu .LBB5_7
.Ltmp133:
.LBB5_9:
	{
		ldaw r7, sp[7]
		nop
	}
.Ltmp134:
	.loc	1 186 14
	{
		mov r0, r7
		mov r1, r6
	}
	{
		mov r2, r5
		nop
	}
	bl PlayFLAC
.Ltmp135:
.LBB5_7:
	.loc	1 179 14
	{
		mov r4, r0
		mov r0, r7
	}
.Ltmp136:
.LBB5_12:
	.loc	1 192 11
	bl f_close
.Ltmp137:
.LBB5_13:
	.loc	1 194 1
	{
		mov r0, r4
		nop
	}
	ldd r9, r8, sp[10]
	ldd r7, r6, sp[9]
	ldd r5, r4, sp[8]
	{
		nop
		retsp 22
	}
	# RETURN_REG_HOLDER
.Ltmp138:
	.cc_bottom PlayTrack.function
	.set	PlayTrack.nstackwords,((f_open.nstackwords $M f_read.nstackwords $M PlayRIFF.nstackwords $M f_close.nstackwords $M strncmp.nstackwords $M PlayFLAC.nstackwords $M debug_printf.nstackwords) + 22)
	.globl	PlayTrack.nstackwords
	.set	PlayTrack.maxcores,PlayFLAC.maxcores $M PlayRIFF.maxcores $M debug_printf.maxcores $M f_close.maxcores $M f_open.maxcores $M f_read.maxcores $M strncmp.maxcores $M 1
	.globl	PlayTrack.maxcores
	.set	PlayTrack.maxtimers,PlayFLAC.maxtimers $M PlayRIFF.maxtimers $M debug_printf.maxtimers $M f_close.maxtimers $M f_open.maxtimers $M f_read.maxtimers $M strncmp.maxtimers $M 0
	.globl	PlayTrack.maxtimers
	.set	PlayTrack.maxchanends,PlayFLAC.maxchanends $M PlayRIFF.maxchanends $M debug_printf.maxchanends $M f_close.maxchanends $M f_open.maxchanends $M f_read.maxchanends $M strncmp.maxchanends $M 0
	.globl	PlayTrack.maxchanends
.Ltmp139:
	.size	PlayTrack, .Ltmp139-PlayTrack
.Lfunc_end5:
	.cfi_endproc

	.globl	sdcard_play
	.align	4
	.type	sdcard_play,@function
	.cc_top sdcard_play.function,sdcard_play
sdcard_play:
.Lfunc_begin6:
	.loc	1 210 0
	.cfi_startproc
	.issue_mode dual
	DUALENTSP_lu6 232
.Ltmp140:
	.cfi_def_cfa_offset 928
.Ltmp141:
	.cfi_offset 15, 0
	stw r4, sp[224]
	stw r5, sp[225]
.Ltmp142:
	.cfi_offset 4, -32
.Ltmp143:
	.cfi_offset 5, -28
	stw r6, sp[226]
	stw r7, sp[227]
.Ltmp144:
	.cfi_offset 6, -24
.Ltmp145:
	.cfi_offset 7, -20
	stw r8, sp[228]
	stw r9, sp[229]
.Ltmp146:
	.cfi_offset 8, -16
.Ltmp147:
	.cfi_offset 9, -12
	stw r10, sp[230]
.Ltmp148:
	.cfi_offset 10, -8
.Ltmp149:
	{
		mov r6, r2
		mov r4, r1
	}
.Ltmp150:
	{
		nop
		stw r4, sp[8]
	}
	{
		nop
		stw r0, sp[6]
	}
.Ltmp151:
	.loc	1 211 5 prologue_end
	ldaw r1, dp[folder_string]
	ldaw r2, dp[track_string]
	ldaw r11, cp[.L.str14]
	{
		mov r0, r11
		nop
	}
	bl debug_printf
.Ltmp152:
	{
		ldc r5, 0
		nop
	}
	ldaw r1, sp[75]
.Ltmp153:
	.loc	1 217 5
	{
		mov r0, r5
		nop
	}
	bl f_mount
.Ltmp154:
	.loc	1 218 5
	ldaw r11, cp[.L.str15]
	{
		mov r0, r11
		nop
	}
	bl debug_printf
.Ltmp155:
	{
		ldc r1, 2
		mov r0, r4
	}
	.loc	1 223 12
.Ltmp156:
	bl QueryChannel
	.loc	1 223 12
	{
		zext r0, 1
		nop
	}
	.loc	1 223 12
	bf r0, .LBB6_2
.Ltmp157:
	.loc	1 225 9
	ldaw r11, cp[.L.str16]
	{
		mov r0, r11
		nop
	}
	bl debug_printf
	.loc	1 227 9
	ldaw r3, dp[folder_string]
	{
		ldc r1, 4
		nop
	}
	ldc r4, 256
	{
		mov r0, r6
		mov r2, r4
	}
	bl qspi_if_read
	{
		mov r7, r5
		mkmsk r5, 2
	}
	ldaw r0, dp[folder_string+252]
	.loc	1 228 9
	st8 r7, r0[r5]
	.loc	1 229 9
	ldaw r3, dp[track_string]
	ldc r1, 260
.Ltmp158:
	{
		mov r0, r6
		stw r6, sp[7]
	}
	{
		mov r2, r4
		nop
	}
	bl qspi_if_read
	ldaw r0, dp[track_string+252]
	.loc	1 230 9
	st8 r7, r0[r5]
	{
		mov r5, r7
		nop
	}
	.loc	1 231 9
	ldaw r11, cp[.L.str17]
	bu .LBB6_3
.Ltmp159:
.LBB6_2:
	{
		nop
		stw r6, sp[7]
	}
.Ltmp160:
	.loc	1 233 10
	ldaw r11, cp[.L.str18]
.Ltmp161:
.LBB6_3:
	{
		mov r0, r11
		nop
	}
	bl debug_printf
.Ltmp162:
	.loc	1 104 5
	ldaw r4, dp[folder_string]
.Ltmp163:
	{
		mov r0, r4
		nop
	}
	bl f_chdir
	ldc r1, 256
	.loc	1 105 5
	{
		mov r0, r4
		nop
	}
	bl f_getcwd
	{
		ldc r6, 2
		nop
	}
	.loc	1 106 5
	{
		mov r0, r6
		nop
	}
	bl set_display_control_flag
.Ltmp164:
	.loc	1 239 5
	ldaw r11, cp[.L.str19]
	{
		mov r0, r11
		mov r1, r4
	}
	bl debug_printf
	.loc	1 240 5
	ldaw r1, dp[track_string]
.Ltmp165:
	ldaw r11, cp[.L.str20]
	{
		mov r0, r11
		nop
	}
	bl debug_printf
.Ltmp166:
	.loc	1 73 18
	ldaw r11, cp[.L.str1]
.Ltmp167:
	{
		ldaw r0, sp[11]
		mov r1, r11
	}
.Ltmp168:
	bl f_opendir
.Ltmp169:
	{
		mov r4, r5
		mov r7, r5
	}
.Ltmp170:
	bt r0, .LBB6_11
.Ltmp171:
	.loc	1 78 5
	ldaw r0, dp[GetDirIndexOf.lfn]
	stw r0, sp[222]
	ldc r0, 256
	.loc	1 79 5
	stw r0, sp[223]
	ldaw r5, sp[216]
.Ltmp172:
	.loc	1 87 9
	{
		add r8, r5, 9
		ldc r6, 0
	}
	.loc	1 92 13
.Ltmp173:
	ldaw r9, dp[track_string]
.Ltmp174:
	.loc	1 242 5
	{
		mov r4, r6
		nop
	}
.Ltmp175:
.LBB6_5:
	{
		ldaw r0, sp[11]
		mov r1, r5
	}
	.loc	1 84 9
.Ltmp176:
	bl f_readdir
	.loc	1 87 9
	ldw r10, sp[222]
	{
		nop
		ld8u r0, r10[r6]
	}
	bt r0, .LBB6_7
.Ltmp177:
	.loc	1 87 9
	{
		mov r10, r8
		nop
	}
.Ltmp178:
.LBB6_7:
	.loc	1 92 13
	{
		mov r0, r9
		mov r1, r10
	}
	bl strcmp
	bf r0, .LBB6_10
.Ltmp179:
	.loc	1 96 9
	{
		add r4, r4, 1
		ld8u r0, r10[r6]
	}
.Ltmp180:
	bt r0, .LBB6_5
.Ltmp181:
	{
		mov r4, r6
		nop
	}
.Ltmp182:
.LBB6_10:
	{
		ldc r6, 2
		nop
	}
.LBB6_11:
.Ltmp183:
	.loc	1 243 5
	ldaw r11, cp[.L.str21]
	{
		mov r0, r11
		mov r1, r4
	}
	bl debug_printf
	{
		mkmsk r5, 1
		nop
	}
	.loc	1 245 5
	{
		mov r0, r5
		nop
	}
	bl set_console_mode
	{
		ldc r0, 16
		nop
	}
	.loc	1 246 5
	bl set_display_control_flag
	.loc	1 247 5
	{
		mov r0, r6
		nop
	}
	bl set_display_control_flag
	.loc	1 248 5
	{
		mov r0, r5
		nop
	}
	bl set_display_control_flag
	ldaw r0, sp[216]
	.loc	1 63 5
.Ltmp184:
	{
		add r0, r0, 9
		nop
	}
	{
		mkmsk r5, 2
		stw r0, sp[5]
	}
	{
		ldaw r9, sp[11]
		nop
	}
.Ltmp185:
	.loc	1 324 13
	ldaw r6, dp[track_string]
	{
		nop
		stw r0, sp[10]
	}
	{
		nop
		stw r0, sp[9]
	}
	bu .LBB6_12
.Ltmp186:
.LBB6_40:
	{
		mov r5, r8
		nop
	}
.Ltmp187:
.LBB6_12:
	{
		mov r8, r5
		nop
	}
	.loc	1 252 9
	ldw r0, dp[state]
	.loc	1 252 9
	bf r0, .LBB6_13
.Ltmp188:
	.loc	1 293 9
	ldaw r11, cp[.L.str28]
	{
		mov r0, r11
		mov r1, r4
	}
	bl debug_printf
	.loc	1 47 18
.Ltmp189:
	ldaw r11, cp[.L.str1]
.Ltmp190:
	{
		mov r0, r9
		mov r1, r11
	}
	bl f_opendir
	{
		mov r5, r0
		nop
	}
.Ltmp191:
	.loc	1 48 5
	ldaw r11, cp[.L.str2]
	{
		mov r0, r11
		mov r1, r5
	}
	bl debug_printf
	ashr r0, r4, 32
	bt r0, .LBB6_15
.Ltmp192:
	ldaw r10, sp[216]
	bt r5, .LBB6_37
.Ltmp193:
	.loc	1 54 5
	ldaw r0, dp[GetDirItemAt.lfn]
	.loc	1 54 5
	stw r0, sp[222]
.Ltmp194:
	ldc r0, 256
	.loc	1 55 5
	stw r0, sp[223]
	.loc	1 46 9
	{
		add r5, r4, 1
		nop
	}
.Ltmp195:
.LBB6_34:
	.loc	1 59 9
	{
		mov r0, r9
		mov r1, r10
	}
	bl f_readdir
.Ltmp196:
	.loc	1 58 5
	{
		sub r5, r5, 1
		nop
	}
	.loc	1 58 5
	bt r5, .LBB6_34
.Ltmp197:
	.loc	1 63 5
	ldw r1, sp[222]
	{
		ldc r0, 8
		stw r1, sp[10]
	}
	{
		nop
		ld8u r0, r10[r0]
	}
	{
		nop
		stw r0, sp[9]
	}
	{
		nop
		ld8u r0, r1[r7]
	}
	bt r0, .LBB6_37
.Ltmp198:
	{
		nop
		ldw r0, sp[5]
	}
	{
		nop
		stw r0, sp[10]
	}
.Ltmp199:
.LBB6_37:
	{
		nop
		ldw r5, sp[9]
	}
	.loc	1 296 9
	{
		mov r3, r5
		nop
	}
	{
		zext r3, 8
		nop
	}
	.loc	1 296 9
	ldaw r11, cp[.L.str29]
	{
		mov r0, r11
		mov r1, r4
	}
	{
		nop
		ldw r10, sp[10]
	}
	{
		mov r2, r10
		nop
	}
	bl debug_printf
	{
		nop
		ld8u r0, r10[r7]
	}
	.loc	1 297 12
.Ltmp200:
	bf r0, .LBB6_38
.Ltmp201:
	{
		ldc r1, 16
		nop
	}
	.loc	1 309 18
.Ltmp202:
	{
		and r1, r5, r1
		nop
	}
	.loc	1 309 18
	bt r1, .LBB6_42
.Ltmp203:
	.loc	1 324 13
	{
		mov r0, r6
		ldw r1, sp[10]
	}
	ldc r10, 256
	{
		mov r2, r10
		nop
	}
	bl strncpy
	.loc	1 326 13
	ldaw r11, cp[.L.str32]
	{
		mov r0, r11
		mov r1, r6
	}
	bl debug_printf
	{
		nop
		ldw r5, sp[7]
	}
.Ltmp204:
	.loc	1 329 13
	{
		mov r0, r5
		ldc r1, 4
	}
	{
		mov r2, r10
		nop
	}
	.loc	1 329 13
	ldaw r3, dp[folder_string]
	.loc	1 329 13
	bl qspi_if_write
	.loc	1 330 13
	{
		mov r0, r5
		nop
	}
	ldc r1, 260
.Ltmp205:
	{
		mov r2, r10
		mov r3, r6
	}
	bl qspi_if_write
	{
		mkmsk r0, 1
		nop
	}
	.loc	1 333 13
	bl set_display_control_flag
	.loc	1 336 18
	{
		mov r0, r6
		ldw r1, sp[6]
	}
	{
		nop
		ldw r2, sp[8]
	}
	bl PlayTrack
	{
		mov r5, r0
		nop
	}
	.loc	1 337 13
	{
		sub r0, r5, 1
		ldc r1, 5
	}
	{
		lsu r1, r1, r0
		nop
	}
	bt r1, .LBB6_12
.Ltmp206:

	.xtabranch .Ljumptable0+4,.Ljumptable0+8,.Ljumptable0+12,.Ljumptable0+16,.Ljumptable0+20,.Ljumptable0+24
.Ljumptable0:
		
	{
		nop
		bru r0
	}
	.jmptable32 .LBB6_47,.LBB6_48,.LBB6_22,.LBB6_49,.LBB6_50,.LBB6_54
.Ltmp207:
.LBB6_13:
	{
		mov r5, r8
		nop
	}
.Ltmp208:
.LBB6_24:
	.loc	1 253 13
	ldaw r11, cp[.L.str22]
	{
		mov r0, r11
		nop
	}
	bl debug_printf
	.loc	1 263 34
	{
		mkmsk r1, 1
		ldw r0, sp[8]
	}
	bl QueryChannel
.Ltmp209:
	.loc	1 264 13
	{
		sub r0, r0, 1
		mkmsk r1, 3
	}
.Ltmp210:
	{
		lsu r1, r1, r0
		nop
	}
	bt r1, .LBB6_12
.Ltmp211:

	.xtabranch .Ljumptable1+4,.Ljumptable1+8,.Ljumptable1+12,.Ljumptable1+16,.Ljumptable1+20,.Ljumptable1+24,.Ljumptable1+28,.Ljumptable1+32
.Ljumptable1:
		
	{
		nop
		bru r0
	}
	.jmptable32 .LBB6_28,.LBB6_31,.LBB6_26,.LBB6_30,.LBB6_12,.LBB6_12,.LBB6_12,.LBB6_29
.Ltmp212:
.LBB6_28:
	.loc	1 270 25
	bl ClimbUp
	.loc	1 270 25
	{
		sub r4, r0, 1
		nop
	}
.Ltmp213:
	.loc	1 272 17
	ldaw r11, cp[.L.str24]
	bu .LBB6_27
.Ltmp214:
.LBB6_15:
	{
		nop
		ldw r10, sp[9]
	}
	bt r5, .LBB6_18
.Ltmp215:
	.loc	1 54 5
	ldaw r0, dp[GetDirItemAt.lfn]
	{
		mov r1, r0
		nop
	}
	stw r1, sp[222]
	ldc r0, 256
	.loc	1 55 5
	stw r0, sp[223]
	{
		nop
		ld8u r0, r1[r7]
	}
	{
		nop
		stw r1, sp[10]
	}
	bt r0, .LBB6_18
.Ltmp216:
	{
		nop
		ldw r0, sp[5]
	}
	{
		nop
		stw r0, sp[10]
	}
.Ltmp217:
.LBB6_18:
	.loc	1 296 9
	{
		mov r3, r10
		nop
	}
	{
		zext r3, 8
		nop
	}
	.loc	1 296 9
	ldaw r11, cp[.L.str29]
	{
		mov r0, r11
		mov r1, r4
	}
	{
		nop
		ldw r5, sp[10]
	}
	{
		mov r2, r5
		nop
	}
	bl debug_printf
	{
		nop
		ld8u r0, r5[r7]
	}
	bf r0, .LBB6_38
.Ltmp218:
	{
		ldc r1, 16
		nop
	}
	.loc	1 309 18
.Ltmp219:
	{
		and r1, r10, r1
		nop
	}
	bf r1, .LBB6_20
.Ltmp220:
.LBB6_42:
	{
		ldc r1, 46
		nop
	}
	.loc	1 311 16
.Ltmp221:
	{
		eq r0, r0, r1
		nop
	}
	bf r0, .LBB6_44
.Ltmp222:
	.loc	1 312 16
	ldaw r11, cp[.L.str30]
	{
		mov r0, r11
		mov r1, r4
	}
	{
		nop
		ldw r2, sp[10]
	}
	bl debug_printf
.Ltmp223:
	.loc	1 313 16
	{
		add r4, r4, 1
		mov r5, r8
	}
.Ltmp224:
	bu .LBB6_12
.Ltmp225:
.LBB6_38:
	.loc	1 299 13
	{
		mov r0, r9
		nop
	}
	ldc r1, 256
	bl f_getcwd
	.loc	1 300 17
.Ltmp226:
	ldaw r11, cp[.L.str6]
	{
		mov r0, r9
		mov r1, r11
	}
	bl strcmp
	{
		mov r4, r7
		nop
	}
	bf r0, .LBB6_40
.Ltmp227:
	.loc	1 305 25
	bl ClimbUp
	.loc	1 305 25
	{
		add r4, r0, 1
		nop
	}
.Ltmp228:
	bu .LBB6_40
.Ltmp229:
.LBB6_44:
	.loc	1 316 16
	ldaw r11, cp[.L.str31]
	{
		mov r0, r11
		mov r1, r4
	}
	{
		nop
		ldw r4, sp[10]
	}
	{
		mov r2, r4
		nop
	}
	bl debug_printf
	.loc	1 104 5
.Ltmp230:
	{
		mov r0, r4
		nop
	}
	bl f_chdir
.Ltmp231:
	.loc	1 329 13
	ldaw r0, dp[folder_string]
	ldc r1, 256
.Ltmp232:
	.loc	1 105 5
	bl f_getcwd
	{
		ldc r0, 2
		nop
	}
	.loc	1 106 5
	bl set_display_control_flag
.Ltmp233:
	{
		mov r4, r7
		mov r5, r8
	}
	bu .LBB6_12
.Ltmp234:
.LBB6_20:
	.loc	1 324 13
	{
		mov r0, r6
		ldw r1, sp[10]
	}
	ldc r10, 256
	{
		mov r2, r10
		nop
	}
	bl strncpy
	.loc	1 326 13
	ldaw r11, cp[.L.str32]
	{
		mov r0, r11
		mov r1, r6
	}
	bl debug_printf
	{
		nop
		ldw r5, sp[7]
	}
.Ltmp235:
	.loc	1 329 13
	{
		mov r0, r5
		ldc r1, 4
	}
	{
		mov r2, r10
		nop
	}
	ldaw r3, dp[folder_string]
	bl qspi_if_write
	.loc	1 330 13
	{
		mov r0, r5
		nop
	}
	ldc r1, 260
.Ltmp236:
	{
		mov r2, r10
		mov r3, r6
	}
	bl qspi_if_write
	{
		mkmsk r0, 1
		nop
	}
	.loc	1 333 13
	bl set_display_control_flag
	.loc	1 336 18
	{
		mov r0, r6
		ldw r1, sp[6]
	}
	{
		nop
		ldw r2, sp[8]
	}
	bl PlayTrack
	{
		mov r5, r0
		nop
	}
	.loc	1 337 13
	{
		sub r0, r5, 1
		ldc r1, 5
	}
	{
		lsu r1, r1, r0
		nop
	}
	bt r1, .LBB6_12
.Ltmp237:

	.xtabranch .Ljumptable2+4,.Ljumptable2+8,.Ljumptable2+12,.Ljumptable2+16,.Ljumptable2+20,.Ljumptable2+24
.Ljumptable2:
		
	{
		nop
		bru r0
	}
	.jmptable32 .LBB6_47,.LBB6_48,.LBB6_22,.LBB6_49,.LBB6_50,.LBB6_54
.Ltmp238:
.LBB6_47:
	.loc	1 340 17
	{
		add r4, r4, 1
		nop
	}
.Ltmp239:
	.loc	1 341 17
	ldaw r11, cp[.L.str33]
	{
		mov r0, r11
		nop
	}
	bl debug_printf
	{
		mkmsk r5, 1
		nop
	}
	bu .LBB6_12
.Ltmp240:
.LBB6_31:
	.loc	1 283 25
	bl ClimbUp
	.loc	1 283 25
	{
		add r4, r0, 1
		nop
	}
.Ltmp241:
	.loc	1 285 17
	ldaw r11, cp[.L.str27]
	bu .LBB6_27
.Ltmp242:
.LBB6_26:
	.loc	1 266 17
	{
		sub r4, r4, 1
		nop
	}
.Ltmp243:
	.loc	1 267 17
	ldaw r11, cp[.L.str23]
	bu .LBB6_27
.Ltmp244:
.LBB6_30:
	.loc	1 279 17
	{
		add r4, r4, 1
		nop
	}
.Ltmp245:
	.loc	1 280 17
	ldaw r11, cp[.L.str26]
	bu .LBB6_27
.Ltmp246:
.LBB6_29:
	{
		mkmsk r0, 1
		nop
	}
	.loc	1 275 17
	stw r0, dp[state]
	.loc	1 276 17
	ldaw r11, cp[.L.str25]
.Ltmp247:
.LBB6_27:
	.loc	1 267 17
	{
		mov r0, r11
		nop
	}
	bl debug_printf
	bu .LBB6_12
.Ltmp248:
.LBB6_48:
	.loc	1 345 17
	{
		sub r4, r4, 1
		nop
	}
.Ltmp249:
	.loc	1 346 17
	ldaw r11, cp[.L.str34]
	{
		mov r0, r11
		nop
	}
	bl debug_printf
	{
		ldc r5, 2
		nop
	}
	bu .LBB6_12
.Ltmp250:
.LBB6_22:
	.loc	1 350 17
	ldaw r11, cp[.L.str22]
	{
		mov r0, r11
		nop
	}
	bl debug_printf
	{
		mkmsk r5, 2
		nop
	}
	bu .LBB6_23
.Ltmp251:
.LBB6_49:
	.loc	1 355 17
	ldaw r11, cp[.L.str35]
	{
		mov r0, r11
		nop
	}
	bl debug_printf
	.loc	1 356 25
	bl ClimbUp
.Ltmp252:
	.loc	1 356 25
	{
		add r4, r0, 1
		ldc r5, 4
	}
.Ltmp253:
	bu .LBB6_12
.Ltmp254:
.LBB6_50:
	.loc	1 361 17
	ldaw r11, cp[.L.str36]
	{
		mov r0, r11
		nop
	}
	bl debug_printf
.Ltmp255:
.LBB6_51:
	.loc	1 132 17
	bl ClimbUp
	{
		mov r4, r0
		nop
	}
.Ltmp256:
	.loc	1 329 13
	ldaw r5, dp[folder_string]
	.loc	1 134 9
.Ltmp257:
	{
		mov r0, r5
		nop
	}
	ldc r1, 256
	bl f_getcwd
.Ltmp258:
	.loc	1 135 15
	ldaw r11, cp[.L.str6]
	{
		mov r0, r5
		mov r1, r11
	}
	bl strcmp
	bf r0, .LBB6_53
.Ltmp259:
	{
		ldc r0, 4
		nop
	}
	{
		lss r0, r4, r0
		nop
	}
	bt r0, .LBB6_51
.Ltmp260:
.LBB6_53:
	.loc	1 132 17
	{
		sub r4, r4, 1
		ldc r0, 2
	}
.Ltmp261:
	.loc	1 137 5
	bl set_display_control_flag
	{
		ldc r5, 5
		nop
	}
	bu .LBB6_12
.Ltmp262:
.LBB6_54:
	.loc	1 367 17
	ldaw r11, cp[.L.str37]
	{
		mov r0, r11
		nop
	}
	bl debug_printf
	.loc	1 368 21
.Ltmp263:
	{
		eq r0, r8, 2
		ldc r5, 6
	}
	bf r0, .LBB6_55
.Ltmp264:
.LBB6_23:
	.loc	1 351 17
	stw r7, dp[state]
	bu .LBB6_24
.Ltmp265:
.LBB6_55:
	.loc	1 374 21
	{
		add r4, r4, 1
		ldc r5, 6
	}
.Ltmp266:
	bu .LBB6_12
.Ltmp267:
	.cc_bottom sdcard_play.function
	.set	sdcard_play.nstackwords,((f_mount.nstackwords $M set_console_mode.nstackwords $M QueryChannel.nstackwords $M f_opendir.nstackwords $M ClimbUp.nstackwords $M strcmp.nstackwords $M f_chdir.nstackwords $M f_getcwd.nstackwords $M f_readdir.nstackwords $M strncpy.nstackwords $M qspi_if_write.nstackwords $M set_display_control_flag.nstackwords $M PlayTrack.nstackwords $M debug_printf.nstackwords $M qspi_if_read.nstackwords) + 232)
	.globl	sdcard_play.nstackwords
	.set	sdcard_play.maxcores,ClimbUp.maxcores $M PlayTrack.maxcores $M QueryChannel.maxcores $M debug_printf.maxcores $M f_chdir.maxcores $M f_getcwd.maxcores $M f_mount.maxcores $M f_opendir.maxcores $M f_readdir.maxcores $M qspi_if_read.maxcores $M qspi_if_write.maxcores $M set_console_mode.maxcores $M set_display_control_flag.maxcores $M strcmp.maxcores $M strncpy.maxcores $M 1
	.globl	sdcard_play.maxcores
	.set	sdcard_play.maxtimers,ClimbUp.maxtimers $M PlayTrack.maxtimers $M QueryChannel.maxtimers $M debug_printf.maxtimers $M f_chdir.maxtimers $M f_getcwd.maxtimers $M f_mount.maxtimers $M f_opendir.maxtimers $M f_readdir.maxtimers $M qspi_if_read.maxtimers $M qspi_if_write.maxtimers $M set_console_mode.maxtimers $M set_display_control_flag.maxtimers $M strcmp.maxtimers $M strncpy.maxtimers $M 0
	.globl	sdcard_play.maxtimers
	.set	sdcard_play.maxchanends,ClimbUp.maxchanends $M PlayTrack.maxchanends $M QueryChannel.maxchanends $M debug_printf.maxchanends $M f_chdir.maxchanends $M f_getcwd.maxchanends $M f_mount.maxchanends $M f_opendir.maxchanends $M f_readdir.maxchanends $M qspi_if_read.maxchanends $M qspi_if_write.maxchanends $M set_console_mode.maxchanends $M set_display_control_flag.maxchanends $M strcmp.maxchanends $M strncpy.maxchanends $M 0
	.globl	sdcard_play.maxchanends
.Ltmp268:
	.size	sdcard_play, .Ltmp268-sdcard_play
.Lfunc_end6:
	.cfi_endproc

	.section	.cp.rodata.string,"aMSc",@progbits
	.cc_top .L.str.data,.L.str
	.align	4
	.type	.L.str,@object
	.size	.L.str, 19
.L.str:
.asciiz"0:/CONTEXTSAVE.TXT"
	.cc_bottom .L.str.data
	.section	.dp.data.4,"awd",@progbits
	.cc_top setting_file_name.data,setting_file_name
	.globl	setting_file_name
	.align	4
	.type	setting_file_name,@object
	.size	setting_file_name, 4
setting_file_name:
	.long	.L.str
	.cc_bottom setting_file_name.data
	.section	.cp.rodata.string,"aMSc",@progbits
	.cc_top .L.str1.data,.L.str1
	.align	4
	.type	.L.str1,@object
	.size	.L.str1, 2
.L.str1:
.asciiz"."
	.space	2
	.cc_bottom .L.str1.data
	.cc_top .L.str2.data,.L.str2
	.align	4
	.type	.L.str2,@object
	.size	.L.str2, 18
.L.str2:
.asciiz"\nf_opendir rc= %d"
	.cc_bottom .L.str2.data
	.section	.dp.bss.4,"awd",@nobits
	.cc_top GetDirItemAt.lfn.data,GetDirItemAt.lfn
	.align	4
	.type	GetDirItemAt.lfn,@object
	.size	GetDirItemAt.lfn, 256
GetDirItemAt.lfn:
	.space	256
	.cc_bottom GetDirItemAt.lfn.data
	.cc_top GetDirIndexOf.lfn.data,GetDirIndexOf.lfn
	.align	4
	.type	GetDirIndexOf.lfn,@object
	.size	GetDirIndexOf.lfn, 256
GetDirIndexOf.lfn:
	.space	256
	.cc_bottom GetDirIndexOf.lfn.data
	.section	.cp.rodata.string,"aMSc",@progbits
	.cc_top .L.str3.data,.L.str3
	.align	4
	.type	.L.str3,@object
	.size	.L.str3, 18
.L.str3:
.asciiz"\ngoing up from %s"
	.cc_bottom .L.str3.data
	.cc_top .L.str4.data,.L.str4
	.align	4
	.type	.L.str4,@object
	.size	.L.str4, 3
.L.str4:
.asciiz".."
	.space	1
	.cc_bottom .L.str4.data
	.cc_top .L.str5.data,.L.str5
	.align	4
	.type	.L.str5,@object
	.size	.L.str5, 18
.L.str5:
.asciiz"\ncurrent index %d"
	.cc_bottom .L.str5.data
	.cc_top .L.str6.data,.L.str6
	.align	4
	.type	.L.str6,@object
	.size	.L.str6, 4
.L.str6:
.asciiz"0:/"
	.cc_bottom .L.str6.data
	.cc_top .L.str7.data,.L.str7
	.align	4
	.type	.L.str7,@object
	.size	.L.str7, 16
.L.str7:
.asciiz"\nPlay Track: %s"
	.cc_bottom .L.str7.data
	.cc_top .L.str8.data,.L.str8
	.align	4
	.type	.L.str8,@object
	.size	.L.str8, 29
.L.str8:
.asciiz" - open file failed RC = %2d"
	.cc_bottom .L.str8.data
	.cc_top .L.str9.data,.L.str9
	.align	4
	.type	.L.str9,@object
	.size	.L.str9, 36
.L.str9:
.asciiz" - read RIFF header failed RC = %2d"
	.cc_bottom .L.str9.data
	.cc_top .L.str10.data,.L.str10
	.align	4
	.type	.L.str10,@object
	.size	.L.str10, 42
.L.str10:
.asciiz"\nFile Format ID = %s (0x%02x%02x%02x%02x)"
	.cc_bottom .L.str10.data
	.cc_top .L.str11.data,.L.str11
	.align	4
	.type	.L.str11,@object
	.size	.L.str11, 5
.L.str11:
.asciiz"RIFF"
	.cc_bottom .L.str11.data
	.cc_top .L.str12.data,.L.str12
	.align	4
	.type	.L.str12,@object
	.size	.L.str12, 5
.L.str12:
.asciiz"fLaC"
	.cc_bottom .L.str12.data
	.cc_top .L.str13.data,.L.str13
	.align	4
	.type	.L.str13,@object
	.size	.L.str13, 18
.L.str13:
.asciiz" - Unknown format"
	.cc_bottom .L.str13.data
	.section	.dp.data.4,"awd",@progbits
	.cc_top state.data,state
	.globl	state
	.align	4
	.type	state,@object
	.size	state, 4
state:
	.long	1
	.cc_bottom state.data
	.section	.cp.rodata.string,"aMSc",@progbits
	.cc_top .L.str14.data,.L.str14
	.align	4
	.type	.L.str14,@object
	.size	.L.str14, 43
.L.str14:
.asciiz"\nsdcard_play started, folder[%s] track[%s]"
	.cc_bottom .L.str14.data
	.cc_top .L.str15.data,.L.str15
	.align	4
	.type	.L.str15,@object
	.size	.L.str15, 14
.L.str15:
.asciiz"\nf_mount done"
	.cc_bottom .L.str15.data
	.cc_top .L.str16.data,.L.str16
	.align	4
	.type	.L.str16,@object
	.size	.L.str16, 14
.L.str16:
.asciiz"\nreading qspi"
	.cc_bottom .L.str16.data
	.cc_top .L.str17.data,.L.str17
	.align	4
	.type	.L.str17,@object
	.size	.L.str17, 16
.L.str17:
.asciiz"qspi read done."
	.cc_bottom .L.str17.data
	.cc_top .L.str18.data,.L.str18
	.align	4
	.type	.L.str18,@object
	.size	.L.str18, 25
.L.str18:
.asciiz"\nreading context skipped"
	.cc_bottom .L.str18.data
	.cc_top .L.str19.data,.L.str19
	.align	4
	.type	.L.str19,@object
	.size	.L.str19, 18
.L.str19:
.asciiz"\ncurrent dir >%s<"
	.cc_bottom .L.str19.data
	.cc_top .L.str20.data,.L.str20
	.align	4
	.type	.L.str20,@object
	.size	.L.str20, 24
.L.str20:
.asciiz"\nfinding index for >%s<"
	.cc_bottom .L.str20.data
	.cc_top .L.str21.data,.L.str21
	.align	4
	.type	.L.str21,@object
	.size	.L.str21, 19
.L.str21:
.asciiz"\ncurrent index: %d"
	.cc_bottom .L.str21.data
	.cc_top .L.str22.data,.L.str22
	.align	4
	.type	.L.str22,@object
	.size	.L.str22, 6
.L.str22:
.asciiz"\nIDLE"
	.cc_bottom .L.str22.data
	.cc_top .L.str23.data,.L.str23
	.align	4
	.type	.L.str23,@object
	.size	.L.str23, 8
.L.str23:
.asciiz"\nTRACK-"
	.cc_bottom .L.str23.data
	.cc_top .L.str24.data,.L.str24
	.align	4
	.type	.L.str24,@object
	.size	.L.str24, 9
.L.str24:
.asciiz"\nFOLDER-"
	.cc_bottom .L.str24.data
	.cc_top .L.str25.data,.L.str25
	.align	4
	.type	.L.str25,@object
	.size	.L.str25, 6
.L.str25:
.asciiz"\nPLAY"
	.cc_bottom .L.str25.data
	.cc_top .L.str26.data,.L.str26
	.align	4
	.type	.L.str26,@object
	.size	.L.str26, 8
.L.str26:
.asciiz"\nTRACK+"
	.cc_bottom .L.str26.data
	.cc_top .L.str27.data,.L.str27
	.align	4
	.type	.L.str27,@object
	.size	.L.str27, 9
.L.str27:
.asciiz"\nFOLDER+"
	.cc_bottom .L.str27.data
	.cc_top .L.str28.data,.L.str28
	.align	4
	.type	.L.str28,@object
	.size	.L.str28, 28
.L.str28:
.asciiz"\nTry to get dir item at: %d"
	.cc_bottom .L.str28.data
	.cc_top .L.str29.data,.L.str29
	.align	4
	.type	.L.str29,@object
	.size	.L.str29, 25
.L.str29:
.asciiz"\nDirItem(%d): %s, Att:%d"
	.cc_bottom .L.str29.data
	.cc_top .L.str30.data,.L.str30
	.align	4
	.type	.L.str30,@object
	.size	.L.str30, 25
.L.str30:
.asciiz"\ntrack = %d, skipping %s"
	.cc_bottom .L.str30.data
	.cc_top .L.str31.data,.L.str31
	.align	4
	.type	.L.str31,@object
	.size	.L.str31, 36
.L.str31:
.asciiz"\ntrack = %d, going down to <dir> %s"
	.cc_bottom .L.str31.data
	.cc_top .L.str32.data,.L.str32
	.align	4
	.type	.L.str32,@object
	.size	.L.str32, 12
.L.str32:
.asciiz"\nplaying %s"
	.cc_bottom .L.str32.data
	.cc_top .L.str33.data,.L.str33
	.align	4
	.type	.L.str33,@object
	.size	.L.str33, 12
.L.str33:
.asciiz"\nNEXT_TRACK"
	.cc_bottom .L.str33.data
	.cc_top .L.str34.data,.L.str34
	.align	4
	.type	.L.str34,@object
	.size	.L.str34, 16
.L.str34:
.asciiz"\nPREVIOUS_TRACK"
	.cc_bottom .L.str34.data
	.cc_top .L.str35.data,.L.str35
	.align	4
	.type	.L.str35,@object
	.size	.L.str35, 13
.L.str35:
.asciiz"\nNEXT_FOLDER"
	.cc_bottom .L.str35.data
	.cc_top .L.str36.data,.L.str36
	.align	4
	.type	.L.str36,@object
	.size	.L.str36, 17
.L.str36:
.asciiz"\nPREVIOUS_FOLDER"
	.cc_bottom .L.str36.data
	.cc_top .L.str37.data,.L.str37
	.align	4
	.type	.L.str37,@object
	.size	.L.str37, 7
.L.str37:
.asciiz"\nERROR"
	.cc_bottom .L.str37.data
	.section	.dp.bss,"awd",@nobits
	.cc_top scratch.data,scratch
	.globl	scratch.globound
scratch.globound = 256
	.globl	scratch
	.align	8
	.type	scratch,@object
	.size	scratch, 256
scratch:
	.space	256
	.cc_bottom scratch.data
	.section	.dp.bss.4,"awd",@nobits
.Ldebug_end0:
	.section	.dp.bss,"awd",@nobits
.Ldebug_end1:
	.section	.dp.data.4,"awd",@progbits
.Ldebug_end2:
	.text
.Ldebug_end3:
	.file	7 "C:\\Program Files (x86)\\XMOS\\xTIMEcomposer\\Community_14.4.1\\target/include\\xccompat.h"
	.file	8 "C:\\Program Files (x86)\\XMOS\\xTIMEcomposer\\Community_14.4.1\\target/include\\sys\\types.h"
	.section	.trap_info,"",@progbits
.Ltrap_info_entries_start0:
	.long	.Ltrap_info_entries_end0-.Ltrap_info_entries_start0
	.long	1
.Ltrap_info_entries_end0: