	.text
	.file	"stream_decoder.c"
	.section	.cp.rodata.cst4,"aMc",@progbits,4
	.cc_top .LCPI0_0.data,.LCPI0_0
	.align	4
	.type	.LCPI0_0,@object
	.size	.LCPI0_0, 4
.LCPI0_0:
	.long	4294967280
	.cc_bottom .LCPI0_0.data
	.cc_top .LCPI0_1.data,.LCPI0_1
	.align	4
	.type	.LCPI0_1,@object
	.size	.LCPI0_1, 4
.LCPI0_1:
	.long	4294967264
	.cc_bottom .LCPI0_1.data
	.text
	.globl	FLAC__stream_decoder_new
	.align	4
	.type	FLAC__stream_decoder_new,@function
	.cc_top FLAC__stream_decoder_new.function,FLAC__stream_decoder_new
FLAC__stream_decoder_new:
.Lfunc_begin0:
	.loc	1 241 0
	.cfi_startproc
	.issue_mode dual
	{
		nop
		dualentsp 8
	}
.Ltmp0:
	.cfi_def_cfa_offset 32
.Ltmp1:
	.cfi_offset 15, 0
	std r5, r4, sp[1]
.Ltmp2:
	.cfi_offset 4, -24
.Ltmp3:
	.cfi_offset 5, -20
	std r7, r6, sp[2]
.Ltmp4:
	.cfi_offset 6, -16
.Ltmp5:
	.cfi_offset 7, -12
	std r9, r8, sp[3]
.Ltmp6:
	.cfi_offset 8, -8
.Ltmp7:
	.cfi_offset 9, -4
	{
		mkmsk r0, 1
		ldc r1, 8
	}
	.loc	1 247 12 prologue_end
.Ltmp8:
	bl calloc
	{
		mov r4, r0
		ldc r8, 0
	}
	bf r4, .LBB0_11
	{
		mkmsk r0, 1
		ldc r1, 32
	}
	.loc	1 252 24
	bl calloc
	{
		mov r5, r0
		nop
	}
	{
		nop
		stw r5, r4[0]
	}
	.loc	1 253 5
.Ltmp9:
	bf r5, .LBB0_2
.Ltmp10:
	{
		mkmsk r7, 1
		nop
	}
	ldc r1, 8344
	.loc	1 258 22
	{
		mov r0, r7
		nop
	}
	bl calloc
	{
		mov r6, r0
		nop
	}
	{
		nop
		stw r6, r4[1]
	}
	.loc	1 259 5
.Ltmp11:
	bf r6, .LBB0_4
.Ltmp12:
	.loc	1 265 29
	bl FLAC__bitreader_new
	{
		mov r9, r0
		nop
	}
	{
		nop
		stw r9, r6[11]
	}
	.loc	1 266 5
.Ltmp13:
	bf r9, .LBB0_6
.Ltmp14:
	ldc r0, 1120
	.loc	1 273 2
	{
		add r0, r6, r0
		ldc r1, 16
	}
	{
		nop
		stw r1, r0[0]
	}
	.loc	1 274 52
.Ltmp15:
	ldw r0, cp[FLAC__STREAM_METADATA_APPLICATION_ID_LEN]
	.loc	1 274 52
	{
		shl r0, r0, 1
		nop
	}
	ldw r1, cp[.LCPI0_0]
	.loc	1 274 52
	{
		and r0, r0, r1
		nop
	}
	.loc	1 274 52
	bl malloc
	ldc r1, 1112
	.loc	1 274 52
	{
		add r1, r6, r1
		nop
	}
	{
		nop
		stw r0, r1[0]
	}
	.loc	1 274 52
	bf r0, .LBB0_12
.Ltmp16:
	{
		ldc r0, 48
		nop
	}
	{
		add r0, r6, r0
		nop
	}
	ldc r1, 80
	{
		add r1, r6, r1
		nop
	}
	ldc r2, 4640
	{
		add r2, r6, r2
		nop
	}
	ldw r3, cp[.LCPI0_1]
	{
		ldc r8, 0
		nop
	}
.LBB0_9:
	{
		add r11, r0, r3
		nop
	}
	{
		nop
		stw r8, r11[8]
	}
	.loc	1 284 3
.Ltmp17:
	{
		add r11, r2, r3
		stw r8, r1[0]
	}
	.loc	1 284 3
	{
		add r3, r3, 4
		stw r8, r11[8]
	}
.Ltmp18:
	.loc	1 282 2
	{
		add r1, r1, 4
		nop
	}
.xtaloop 8
	# LOOPMARKER 0
	.loc	1 282 2
	bt r3, .LBB0_9
.Ltmp19:
	ldc r0, 112
	.loc	1 287 2
	{
		add r0, r6, r0
		nop
	}
	{
		nop
		stw r8, r0[0]
	}
	ldc r0, 216
	.loc	1 289 2
	{
		add r0, r6, r0
		nop
	}
	{
		nop
		stw r8, r0[0]
	}
	ldc r0, 220
	.loc	1 290 2
	{
		add r0, r6, r0
		nop
	}
	{
		nop
		stw r8, r0[0]
	}
	ldc r0, 244
	.loc	1 291 2
	{
		add r0, r6, r0
		nop
	}
	{
		nop
		stw r8, r0[0]
	}
	ldc r0, 120
.Ltmp20:
	.loc	1 294 3
	{
		add r0, r6, r0
		nop
	}
	.loc	1 294 3
	bl FLAC__format_entropy_coding_method_partitioned_rice_contents_init
	ldc r0, 132
.Ltmp21:
	.loc	1 294 3
	{
		add r0, r6, r0
		nop
	}
	.loc	1 294 3
	bl FLAC__format_entropy_coding_method_partitioned_rice_contents_init
	ldc r0, 144
	.loc	1 294 3
	{
		add r0, r6, r0
		nop
	}
	.loc	1 294 3
	bl FLAC__format_entropy_coding_method_partitioned_rice_contents_init
	ldc r0, 156
	.loc	1 294 3
	{
		add r0, r6, r0
		nop
	}
	.loc	1 294 3
	bl FLAC__format_entropy_coding_method_partitioned_rice_contents_init
	ldc r0, 168
	.loc	1 294 3
	{
		add r0, r6, r0
		nop
	}
	.loc	1 294 3
	bl FLAC__format_entropy_coding_method_partitioned_rice_contents_init
	ldc r0, 180
	.loc	1 294 3
	{
		add r0, r6, r0
		nop
	}
	.loc	1 294 3
	bl FLAC__format_entropy_coding_method_partitioned_rice_contents_init
	ldc r0, 192
	.loc	1 294 3
	{
		add r0, r6, r0
		nop
	}
	.loc	1 294 3
	bl FLAC__format_entropy_coding_method_partitioned_rice_contents_init
	ldc r0, 204
	.loc	1 294 3
	{
		add r0, r6, r0
		nop
	}
	.loc	1 294 3
	bl FLAC__format_entropy_coding_method_partitioned_rice_contents_init
	ldc r0, 600
.Ltmp22:
	.loc	1 1207 2
	{
		add r9, r6, r0
		nop
	}
	ldc r2, 512
	.loc	1 1207 2
	{
		mov r0, r9
		mov r1, r8
	}
	bl memset
	{
		ldc r2, 44
		mov r0, r6
	}
	.loc	1 1197 2
	{
		mov r1, r8
		nop
	}
	bl memset
	{
		nop
		stw r7, r9[0]
	}
	ldc r0, 1116
	.loc	1 1209 2
	{
		add r0, r6, r0
		nop
	}
	{
		nop
		stw r8, r0[0]
	}
	.loc	1 1211 2
	{
		ldc r0, 9
		stw r8, r5[7]
	}
.Ltmp23:
	.loc	1 300 2
	{
		mov r8, r4
		stw r0, r5[0]
	}
	bu .LBB0_11
.LBB0_12:
	.loc	1 275 3
.Ltmp24:
	{
		mov r0, r9
		nop
	}
	bl FLAC__bitreader_delete
.Ltmp25:
.LBB0_6:
	.loc	1 267 3
	{
		mov r0, r6
		nop
	}
	bl free
.Ltmp26:
.LBB0_4:
	.loc	1 260 3
	{
		mov r0, r5
		nop
	}
	bl free
.Ltmp27:
.LBB0_2:
	.loc	1 254 3
	{
		mov r0, r4
		nop
	}
	bl free
.Ltmp28:
.LBB0_11:
	.loc	1 303 1
	{
		mov r0, r8
		nop
	}
	ldd r9, r8, sp[3]
	ldd r7, r6, sp[2]
	ldd r5, r4, sp[1]
	{
		nop
		retsp 8
	}
	# RETURN_REG_HOLDER
.Ltmp29:
	.cc_bottom FLAC__stream_decoder_new.function
	.set	FLAC__stream_decoder_new.nstackwords,((calloc.nstackwords $M FLAC__bitreader_new.nstackwords $M free.nstackwords $M malloc.nstackwords $M FLAC__bitreader_delete.nstackwords $M FLAC__format_entropy_coding_method_partitioned_rice_contents_init.nstackwords $M memset.nstackwords) + 8)
	.globl	FLAC__stream_decoder_new.nstackwords
	.set	FLAC__stream_decoder_new.maxcores,FLAC__bitreader_delete.maxcores $M FLAC__bitreader_new.maxcores $M FLAC__format_entropy_coding_method_partitioned_rice_contents_init.maxcores $M calloc.maxcores $M free.maxcores $M malloc.maxcores $M 1
	.globl	FLAC__stream_decoder_new.maxcores
	.set	FLAC__stream_decoder_new.maxtimers,FLAC__bitreader_delete.maxtimers $M FLAC__bitreader_new.maxtimers $M FLAC__format_entropy_coding_method_partitioned_rice_contents_init.maxtimers $M calloc.maxtimers $M free.maxtimers $M malloc.maxtimers $M 0
	.globl	FLAC__stream_decoder_new.maxtimers
	.set	FLAC__stream_decoder_new.maxchanends,FLAC__bitreader_delete.maxchanends $M FLAC__bitreader_new.maxchanends $M FLAC__format_entropy_coding_method_partitioned_rice_contents_init.maxchanends $M calloc.maxchanends $M free.maxchanends $M malloc.maxchanends $M 0
	.globl	FLAC__stream_decoder_new.maxchanends
.Ltmp30:
	.size	FLAC__stream_decoder_new, .Ltmp30-FLAC__stream_decoder_new
.Lfunc_end0:
	.cfi_endproc

	.globl	FLAC__stream_decoder_delete
	.align	4
	.type	FLAC__stream_decoder_delete,@function
	.cc_top FLAC__stream_decoder_delete.function,FLAC__stream_decoder_delete
FLAC__stream_decoder_delete:
.Lfunc_begin1:
	.loc	1 306 0
	.cfi_startproc
	.issue_mode dual
	{
		nop
		dualentsp 4
	}
.Ltmp31:
	.cfi_def_cfa_offset 16
.Ltmp32:
	.cfi_offset 15, 0
.Ltmp33:
	.cfi_offset 4, -8
.Ltmp34:
	{
		mov r4, r0
		stw r4, sp[2]
	}
.Ltmp35:
	bf r4, .LBB1_4
.Ltmp36:
	.loc	1 316 8 prologue_end
	{
		mov r0, r4
		nop
	}
	bl FLAC__stream_decoder_finish
	{
		nop
		ldw r1, r4[1]
	}
	ldc r0, 1112
	.loc	1 318 5
.Ltmp37:
	{
		add r0, r1, r0
		nop
	}
	{
		nop
		ldw r0, r0[0]
	}
	bf r0, .LBB1_3
.Ltmp38:
	.loc	1 319 3
	bl free
	{
		nop
		ldw r1, r4[1]
	}
.Ltmp39:
.LBB1_3:
	{
		nop
		ldw r0, r1[11]
	}
	.loc	1 321 2
	bl FLAC__bitreader_delete
.Ltmp40:
	{
		nop
		ldw r0, r4[1]
	}
	ldc r1, 120
	.loc	1 324 3
.Ltmp41:
	{
		add r0, r0, r1
		nop
	}
	.loc	1 324 3
	bl FLAC__format_entropy_coding_method_partitioned_rice_contents_clear
.Ltmp42:
	{
		nop
		ldw r0, r4[1]
	}
	ldc r1, 132
	.loc	1 324 3
	{
		add r0, r0, r1
		nop
	}
	.loc	1 324 3
	bl FLAC__format_entropy_coding_method_partitioned_rice_contents_clear
	{
		nop
		ldw r0, r4[1]
	}
	ldc r1, 144
	.loc	1 324 3
	{
		add r0, r0, r1
		nop
	}
	.loc	1 324 3
	bl FLAC__format_entropy_coding_method_partitioned_rice_contents_clear
	{
		nop
		ldw r0, r4[1]
	}
	ldc r1, 156
	.loc	1 324 3
	{
		add r0, r0, r1
		nop
	}
	.loc	1 324 3
	bl FLAC__format_entropy_coding_method_partitioned_rice_contents_clear
	{
		nop
		ldw r0, r4[1]
	}
	ldc r1, 168
	.loc	1 324 3
	{
		add r0, r0, r1
		nop
	}
	.loc	1 324 3
	bl FLAC__format_entropy_coding_method_partitioned_rice_contents_clear
	{
		nop
		ldw r0, r4[1]
	}
	ldc r1, 180
	.loc	1 324 3
	{
		add r0, r0, r1
		nop
	}
	.loc	1 324 3
	bl FLAC__format_entropy_coding_method_partitioned_rice_contents_clear
	{
		nop
		ldw r0, r4[1]
	}
	ldc r1, 192
	.loc	1 324 3
	{
		add r0, r0, r1
		nop
	}
	.loc	1 324 3
	bl FLAC__format_entropy_coding_method_partitioned_rice_contents_clear
	{
		nop
		ldw r0, r4[1]
	}
	ldc r1, 204
	.loc	1 324 3
	{
		add r0, r0, r1
		nop
	}
	.loc	1 324 3
	bl FLAC__format_entropy_coding_method_partitioned_rice_contents_clear
	{
		nop
		ldw r0, r4[1]
	}
.Ltmp43:
	.loc	1 326 2
	bl free
	{
		nop
		ldw r0, r4[0]
	}
	.loc	1 327 2
	bl free
	.loc	1 328 2
	{
		mov r0, r4
		nop
	}
	bl free
.Ltmp44:
.LBB1_4:
	{
		nop
		ldw r4, sp[2]
	}
	{
		nop
		retsp 4
	}
	.loc	1 329 1
	# RETURN_REG_HOLDER
.Ltmp45:
	.cc_bottom FLAC__stream_decoder_delete.function
	.set	FLAC__stream_decoder_delete.nstackwords,((FLAC__stream_decoder_finish.nstackwords $M FLAC__bitreader_delete.nstackwords $M FLAC__format_entropy_coding_method_partitioned_rice_contents_clear.nstackwords $M free.nstackwords) + 4)
	.globl	FLAC__stream_decoder_delete.nstackwords
	.set	FLAC__stream_decoder_delete.maxcores,FLAC__bitreader_delete.maxcores $M FLAC__format_entropy_coding_method_partitioned_rice_contents_clear.maxcores $M FLAC__stream_decoder_finish.maxcores $M free.maxcores $M 1
	.globl	FLAC__stream_decoder_delete.maxcores
	.set	FLAC__stream_decoder_delete.maxtimers,FLAC__bitreader_delete.maxtimers $M FLAC__format_entropy_coding_method_partitioned_rice_contents_clear.maxtimers $M FLAC__stream_decoder_finish.maxtimers $M free.maxtimers $M 0
	.globl	FLAC__stream_decoder_delete.maxtimers
	.set	FLAC__stream_decoder_delete.maxchanends,FLAC__bitreader_delete.maxchanends $M FLAC__format_entropy_coding_method_partitioned_rice_contents_clear.maxchanends $M FLAC__stream_decoder_finish.maxchanends $M free.maxchanends $M 0
	.globl	FLAC__stream_decoder_delete.maxchanends
.Ltmp46:
	.size	FLAC__stream_decoder_delete, .Ltmp46-FLAC__stream_decoder_delete
.Lfunc_end1:
	.cfi_endproc

	.section	.cp.rodata.cst4,"aMc",@progbits,4
	.cc_top .LCPI2_0.data,.LCPI2_0
	.align	4
	.type	.LCPI2_0,@object
	.size	.LCPI2_0, 4
.LCPI2_0:
	.long	4294967264
	.cc_bottom .LCPI2_0.data
	.text
	.globl	FLAC__stream_decoder_finish
	.align	4
	.type	FLAC__stream_decoder_finish,@function
	.cc_top FLAC__stream_decoder_finish.function,FLAC__stream_decoder_finish
FLAC__stream_decoder_finish:
.Lfunc_begin2:
	.loc	1 588 0
	.cfi_startproc
	.issue_mode dual
	{
		nop
		dualentsp 10
	}
.Ltmp47:
	.cfi_def_cfa_offset 40
.Ltmp48:
	.cfi_offset 15, 0
	std r5, r4, sp[1]
.Ltmp49:
	.cfi_offset 4, -32
.Ltmp50:
	.cfi_offset 5, -28
	std r7, r6, sp[2]
.Ltmp51:
	.cfi_offset 6, -24
.Ltmp52:
	.cfi_offset 7, -20
	std r9, r8, sp[3]
.Ltmp53:
	.cfi_offset 8, -16
.Ltmp54:
	.cfi_offset 9, -12
.Ltmp55:
	.cfi_offset 10, -8
.Ltmp56:
	{
		mov r4, r0
		stw r10, sp[8]
	}
.Ltmp57:
	{
		nop
		ldw r0, r4[0]
	}
	{
		nop
		ldw r0, r0[0]
	}
	.loc	1 596 5 prologue_end
.Ltmp58:
	{
		eq r0, r0, 9
		nop
	}
	.loc	1 596 5
	bf r0, .LBB2_2
.Ltmp59:
	{
		mkmsk r7, 1
		nop
	}
	bu .LBB2_17
.LBB2_2:
.Ltmp60:
	{
		nop
		ldw r1, r4[1]
	}
	ldc r0, 4780
	.loc	1 602 2
	{
		add r0, r1, r0
		nop
	}
	ldc r2, 4684
	.loc	1 602 2
	{
		add r1, r1, r2
		nop
	}
	.loc	1 602 2
	bl FLAC__MD5Final
	{
		nop
		ldw r0, r4[1]
	}
	ldc r5, 444
	.loc	1 604 2
	{
		add r0, r0, r5
		nop
	}
	{
		nop
		ldw r0, r0[0]
	}
	.loc	1 604 2
	bl free
	{
		nop
		ldw r0, r4[1]
	}
	.loc	1 605 2
	{
		add r1, r0, r5
		ldc r5, 0
	}
	{
		nop
		stw r5, r1[0]
	}
	ldc r1, 244
	.loc	1 606 2
	{
		add r1, r0, r1
		nop
	}
	{
		nop
		stw r5, r1[0]
	}
	{
		nop
		ldw r0, r0[11]
	}
	.loc	1 608 2
	bl FLAC__bitreader_free
.Ltmp61:
	{
		nop
		ldw r6, r4[1]
	}
	ldw r10, cp[.LCPI2_0]
	ldc r8, 80
	ldc r7, 4672
	ldc r9, 112
.Ltmp62:
.LBB2_3:
	{
		add r0, r6, r10
		nop
	}
	{
		add r0, r0, r8
		nop
	}
	{
		nop
		ldw r0, r0[0]
	}
	bf r0, .LBB2_5
.Ltmp63:
	.loc	1 617 4
	ldaw r0, r0[-4]
	.loc	1 617 4
	bl free
	{
		nop
		ldw r0, r4[1]
	}
	{
		add r0, r0, r10
		nop
	}
	{
		add r0, r0, r8
		nop
	}
	{
		nop
		stw r5, r0[0]
	}
	{
		nop
		ldw r6, r4[1]
	}
.Ltmp64:
.LBB2_5:
	{
		add r0, r6, r10
		nop
	}
	{
		add r0, r0, r7
		nop
	}
	{
		nop
		ldw r0, r0[0]
	}
	bf r0, .LBB2_7
.Ltmp65:
	.loc	1 621 4
	bl free
	{
		nop
		ldw r0, r4[1]
	}
	{
		add r0, r0, r10
		nop
	}
	{
		add r0, r0, r9
		nop
	}
	{
		nop
		stw r5, r0[0]
	}
	{
		nop
		ldw r0, r4[1]
	}
	{
		add r0, r0, r10
		nop
	}
	{
		add r0, r0, r7
		nop
	}
	{
		nop
		stw r5, r0[0]
	}
	{
		nop
		ldw r6, r4[1]
	}
.Ltmp66:
.LBB2_7:
	.loc	1 609 2
	{
		add r10, r10, 4
		nop
	}
.xtaloop 8
	# LOOPMARKER 0
	bt r10, .LBB2_3
.Ltmp67:
	.loc	1 625 5
	{
		add r0, r6, r9
		nop
	}
	{
		nop
		ldw r0, r0[0]
	}
	bf r0, .LBB2_10
.Ltmp68:
	.loc	1 626 3
	bl free
	{
		nop
		ldw r6, r4[1]
	}
	.loc	1 627 3
	{
		add r0, r6, r9
		nop
	}
	{
		nop
		stw r5, r0[0]
	}
.Ltmp69:
.LBB2_10:
	ldc r0, 216
	.loc	1 629 2
	{
		add r0, r6, r0
		nop
	}
	{
		nop
		stw r5, r0[0]
	}
	ldc r0, 220
	.loc	1 630 2
	{
		add r0, r6, r0
		nop
	}
	{
		nop
		stw r5, r0[0]
	}
	{
		nop
		ldw r8, r6[10]
	}
	bf r8, .LBB2_14
.Ltmp70:
	.loc	1 638 33
	bl __getstdin
	.loc	1 638 33
	{
		eq r0, r8, r0
		nop
	}
	bt r0, .LBB2_13
.Ltmp71:
	{
		nop
		ldw r0, r4[1]
	}
	{
		nop
		ldw r0, r0[10]
	}
	.loc	1 639 4
	bl fclose
.Ltmp72:
.LBB2_13:
	{
		nop
		ldw r6, r4[1]
	}
	{
		nop
		stw r5, r6[10]
	}
.Ltmp73:
.LBB2_14:
	.loc	1 643 5
	{
		add r0, r6, r7
		nop
	}
	.loc	1 643 5
	{
		mkmsk r8, 1
		ldw r0, r0[0]
	}
	{
		mov r7, r8
		nop
	}
	bf r0, .LBB2_16
.Ltmp74:
	ldc r0, 304
	.loc	1 644 6
.Ltmp75:
	{
		add r0, r6, r0
		nop
	}
	ldc r1, 4780
	.loc	1 644 6
	{
		add r1, r6, r1
		ldc r2, 16
	}
	.loc	1 644 6
	bl memcmp
.Ltmp76:
	.loc	1 644 6
	{
		eq r7, r0, 0
		nop
	}
.Ltmp77:
.LBB2_16:
	ldc r0, 4680
	.loc	1 647 2
	{
		add r0, r6, r0
		nop
	}
	{
		nop
		stw r5, r0[0]
	}
	ldc r9, 600
.Ltmp78:
	.loc	1 1207 2
	{
		add r0, r6, r9
		nop
	}
	ldc r2, 512
	.loc	1 1207 2
	{
		mov r1, r5
		nop
	}
	bl memset
	{
		ldc r2, 40
		mov r0, r6
	}
	.loc	1 1197 2
	{
		mov r1, r5
		nop
	}
	bl memset
	{
		nop
		ldw r0, r4[1]
	}
	.loc	1 1208 2
	{
		add r1, r0, r9
		nop
	}
	{
		nop
		stw r8, r1[0]
	}
	ldc r1, 1116
	.loc	1 1209 2
	{
		add r0, r0, r1
		nop
	}
	{
		nop
		stw r5, r0[0]
	}
	{
		nop
		ldw r0, r4[0]
	}
	.loc	1 1211 2
	{
		ldc r1, 9
		stw r5, r0[7]
	}
	{
		nop
		stw r1, r0[0]
	}
.Ltmp79:
.LBB2_17:
	.loc	1 654 1
	{
		mov r0, r7
		ldw r10, sp[8]
	}
	ldd r9, r8, sp[3]
	ldd r7, r6, sp[2]
	ldd r5, r4, sp[1]
	{
		nop
		retsp 10
	}
	# RETURN_REG_HOLDER
.Ltmp80:
	.cc_bottom FLAC__stream_decoder_finish.function
	.set	FLAC__stream_decoder_finish.nstackwords,((FLAC__MD5Final.nstackwords $M FLAC__bitreader_free.nstackwords $M memset.nstackwords $M memcmp.nstackwords $M __getstdin.nstackwords $M fclose.nstackwords $M free.nstackwords) + 10)
	.globl	FLAC__stream_decoder_finish.nstackwords
	.set	FLAC__stream_decoder_finish.maxcores,FLAC__MD5Final.maxcores $M FLAC__bitreader_free.maxcores $M __getstdin.maxcores $M fclose.maxcores $M free.maxcores $M memcmp.maxcores $M 1
	.globl	FLAC__stream_decoder_finish.maxcores
	.set	FLAC__stream_decoder_finish.maxtimers,FLAC__MD5Final.maxtimers $M FLAC__bitreader_free.maxtimers $M __getstdin.maxtimers $M fclose.maxtimers $M free.maxtimers $M memcmp.maxtimers $M 0
	.globl	FLAC__stream_decoder_finish.maxtimers
	.set	FLAC__stream_decoder_finish.maxchanends,FLAC__MD5Final.maxchanends $M FLAC__bitreader_free.maxchanends $M __getstdin.maxchanends $M fclose.maxchanends $M free.maxchanends $M memcmp.maxchanends $M 0
	.globl	FLAC__stream_decoder_finish.maxchanends
.Ltmp81:
	.size	FLAC__stream_decoder_finish, .Ltmp81-FLAC__stream_decoder_finish
.Lfunc_end2:
	.cfi_endproc

	.globl	FLAC__stream_decoder_init_stream
	.align	4
	.type	FLAC__stream_decoder_init_stream,@function
	.cc_top FLAC__stream_decoder_init_stream.function,FLAC__stream_decoder_init_stream
FLAC__stream_decoder_init_stream:
.Lfunc_begin3:
	.loc	1 418 0
	.cfi_startproc
	.issue_mode dual
	{
		nop
		dualentsp 12
	}
.Ltmp82:
	.cfi_def_cfa_offset 48
.Ltmp83:
	.cfi_offset 15, 0
	std r5, r4, sp[2]
.Ltmp84:
	.cfi_offset 4, -32
.Ltmp85:
	.cfi_offset 5, -28
	std r7, r6, sp[3]
.Ltmp86:
	.cfi_offset 6, -24
.Ltmp87:
	.cfi_offset 7, -20
	std r9, r8, sp[4]
.Ltmp88:
	.cfi_offset 8, -16
.Ltmp89:
	.cfi_offset 9, -12
.Ltmp90:
	.cfi_offset 10, -8
.Ltmp91:
	{
		mov r7, r2
		stw r10, sp[10]
	}
.Ltmp92:
	{
		mov r8, r1
		mov r4, r0
	}
.Ltmp93:
	ldd r9, r1, sp[8]
	ldd r10, r2, sp[7]
.Ltmp94:
	{
		nop
		ldw r0, r4[0]
	}
	{
		nop
		ldw r0, r0[0]
	}
	.loc	1 353 5 prologue_end
.Ltmp95:
	{
		eq r0, r0, 9
		nop
	}
	bf r0, .LBB3_1
.Ltmp96:
	{
		ldc r5, 2
		nop
	}
	bf r8, .LBB3_13
.Ltmp97:
	bf r10, .LBB3_13
.Ltmp98:
	bf r9, .LBB3_13
.Ltmp99:
	{
		nop
		stw r2, sp[3]
	}
.Ltmp100:
	{
		nop
		ldw r0, sp[13]
	}
.Ltmp101:
	bf r7, .LBB3_9
.Ltmp102:
	bf r3, .LBB3_13
.Ltmp103:
	bf r0, .LBB3_13
.Ltmp104:
	{
		nop
		ldw r0, sp[3]
	}
.Ltmp105:
	bf r0, .LBB3_13
.Ltmp106:
.LBB3_9:
	{
		mov r5, r3
		stw r1, sp[2]
	}
.Ltmp107:
	{
		nop
		ldw r0, r4[1]
	}
	{
		nop
		ldw r0, r0[11]
	}
	.loc	1 375 6
.Ltmp108:
	ldap r11, read_callback_
	{
		mov r1, r11
		mov r2, r4
	}
	bl FLAC__bitreader_init
	.loc	1 375 6
	bf r0, .LBB3_10
.Ltmp109:
	{
		nop
		ldw r0, sp[18]
	}
.Ltmp110:
	{
		nop
		ldw r6, r4[1]
	}
	{
		nop
		stw r8, r6[1]
	}
	{
		nop
		stw r7, r6[2]
	}
	{
		nop
		stw r5, r6[3]
	}
	{
		nop
		ldw r1, sp[13]
	}
	{
		nop
		stw r1, r6[4]
	}
	{
		nop
		ldw r1, sp[3]
	}
	{
		nop
		stw r1, r6[5]
	}
	{
		nop
		stw r10, r6[6]
	}
	{
		nop
		ldw r1, sp[2]
	}
	{
		nop
		stw r1, r6[7]
	}
	{
		nop
		stw r9, r6[8]
	}
	{
		nop
		stw r0, r6[9]
	}
	ldc r0, 224
.Ltmp111:
	.loc	1 389 2
	{
		add r0, r6, r0
		nop
	}
	ldc r1, 4632
	.loc	1 392 2
	{
		add r1, r6, r1
		ldc r5, 0
	}
.Ltmp112:
	.loc	1 392 2
	{
		ldc r2, 20
		stw r5, r1[0]
	}
	.loc	1 389 2
	{
		mov r1, r5
		nop
	}
	bl memset
	{
		nop
		ldw r0, r4[0]
	}
	{
		nop
		ldw r0, r0[7]
	}
	ldc r1, 4672
	.loc	1 394 2
	{
		add r1, r6, r1
		nop
	}
	{
		nop
		stw r0, r1[0]
	}
	ldc r0, 4680
	.loc	1 395 2
	{
		add r0, r6, r0
		nop
	}
	{
		nop
		stw r5, r0[0]
	}
	ldc r0, 4676
	.loc	1 397 2
	{
		add r0, r6, r0
		mkmsk r1, 1
	}
	.loc	1 397 2
	{
		mov r0, r4
		stw r1, r0[0]
	}
	.loc	1 398 6
.Ltmp113:
	bl FLAC__stream_decoder_reset
	bt r0, .LBB3_13
	bu .LBB3_12
.Ltmp114:
.LBB3_1:
	{
		ldc r5, 5
		nop
	}
	bu .LBB3_13
.LBB3_10:
.Ltmp115:
	.loc	1 376 3
	{
		ldc r1, 8
		ldw r0, r4[0]
	}
	{
		nop
		stw r1, r0[0]
	}
.Ltmp116:
.LBB3_12:
	{
		mkmsk r5, 2
		nop
	}
.LBB3_13:
	.loc	1 419 9
	{
		mov r0, r5
		ldw r10, sp[10]
	}
	ldd r9, r8, sp[4]
	ldd r7, r6, sp[3]
	ldd r5, r4, sp[2]
	{
		nop
		retsp 12
	}
	# RETURN_REG_HOLDER
.Ltmp117:
	.cc_bottom FLAC__stream_decoder_init_stream.function
	.set	FLAC__stream_decoder_init_stream.nstackwords,((FLAC__bitreader_init.nstackwords $M memset.nstackwords $M FLAC__stream_decoder_reset.nstackwords) + 12)
	.globl	FLAC__stream_decoder_init_stream.nstackwords
	.set	FLAC__stream_decoder_init_stream.maxcores,FLAC__bitreader_init.maxcores $M FLAC__stream_decoder_reset.maxcores $M 1
	.globl	FLAC__stream_decoder_init_stream.maxcores
	.set	FLAC__stream_decoder_init_stream.maxtimers,FLAC__bitreader_init.maxtimers $M FLAC__stream_decoder_reset.maxtimers $M 0
	.globl	FLAC__stream_decoder_init_stream.maxtimers
	.set	FLAC__stream_decoder_init_stream.maxchanends,FLAC__bitreader_init.maxchanends $M FLAC__stream_decoder_reset.maxchanends $M 0
	.globl	FLAC__stream_decoder_init_stream.maxchanends
.Ltmp118:
	.size	FLAC__stream_decoder_init_stream, .Ltmp118-FLAC__stream_decoder_init_stream
.Lfunc_end3:
	.cfi_endproc

	.globl	FLAC__stream_decoder_init_ogg_stream
	.align	4
	.type	FLAC__stream_decoder_init_ogg_stream,@function
	.cc_top FLAC__stream_decoder_init_ogg_stream.function,FLAC__stream_decoder_init_ogg_stream
FLAC__stream_decoder_init_ogg_stream:
.Lfunc_begin4:
	.loc	1 446 0
	.cfi_startproc
	.issue_mode dual
	{
		nop
		dualentsp 0
	}
.Ltmp119:
	{
		nop
		ldw r0, r0[0]
	}
.Ltmp120:
	{
		nop
		ldw r0, r0[0]
	}
	.loc	1 353 5 prologue_end
.Ltmp121:
	{
		eq r0, r0, 9
		nop
	}
	.loc	1 353 5
	bt r0, .LBB4_1
.Ltmp122:
	{
		ldc r0, 5
		retsp 0
	}
.Ltmp123:
	.loc	1 447 9
	# RETURN_REG_HOLDER
.LBB4_1:
.Ltmp124:
	{
		mkmsk r0, 1
		retsp 0
	}
.Ltmp125:
	# RETURN_REG_HOLDER
.Ltmp126:
	.cc_bottom FLAC__stream_decoder_init_ogg_stream.function
	.set	FLAC__stream_decoder_init_ogg_stream.nstackwords,0
	.globl	FLAC__stream_decoder_init_ogg_stream.nstackwords
	.set	FLAC__stream_decoder_init_ogg_stream.maxcores,1
	.globl	FLAC__stream_decoder_init_ogg_stream.maxcores
	.set	FLAC__stream_decoder_init_ogg_stream.maxtimers,0
	.globl	FLAC__stream_decoder_init_ogg_stream.maxtimers
	.set	FLAC__stream_decoder_init_ogg_stream.maxchanends,0
	.globl	FLAC__stream_decoder_init_ogg_stream.maxchanends
.Ltmp127:
	.size	FLAC__stream_decoder_init_ogg_stream, .Ltmp127-FLAC__stream_decoder_init_ogg_stream
.Lfunc_end4:
	.cfi_endproc

	.globl	FLAC__stream_decoder_init_FILE
	.align	4
	.type	FLAC__stream_decoder_init_FILE,@function
	.cc_top FLAC__stream_decoder_init_FILE.function,FLAC__stream_decoder_init_FILE
FLAC__stream_decoder_init_FILE:
.Lfunc_begin5:
	.loc	1 514 0
	.cfi_startproc
	.issue_mode dual
	{
		nop
		dualentsp 6
	}
.Ltmp128:
	.cfi_def_cfa_offset 24
.Ltmp129:
	.cfi_offset 15, 0
	std r5, r4, sp[2]
.Ltmp130:
	.cfi_offset 4, -8
.Ltmp131:
	.cfi_offset 5, -4
	{
		nop
		ldw r11, sp[7]
	}
	{
		ldc r5, 0
		ldw r4, sp[8]
	}
	.loc	1 515 9 prologue_end
.Ltmp132:
	std r5, r4, sp[1]
	{
		nop
		stw r11, sp[1]
	}
	bl init_FILE_internal_
.Ltmp133:
	.loc	1 515 9
	ldd r5, r4, sp[2]
	{
		nop
		retsp 6
	}
.Ltmp134:
	# RETURN_REG_HOLDER
.Ltmp135:
	.cc_bottom FLAC__stream_decoder_init_FILE.function
	.set	FLAC__stream_decoder_init_FILE.nstackwords,(init_FILE_internal_.nstackwords + 6)
	.globl	FLAC__stream_decoder_init_FILE.nstackwords
	.set	FLAC__stream_decoder_init_FILE.maxcores,init_FILE_internal_.maxcores $M 1
	.globl	FLAC__stream_decoder_init_FILE.maxcores
	.set	FLAC__stream_decoder_init_FILE.maxtimers,init_FILE_internal_.maxtimers $M 0
	.globl	FLAC__stream_decoder_init_FILE.maxtimers
	.set	FLAC__stream_decoder_init_FILE.maxchanends,init_FILE_internal_.maxchanends $M 0
	.globl	FLAC__stream_decoder_init_FILE.maxchanends
.Ltmp136:
	.size	FLAC__stream_decoder_init_FILE, .Ltmp136-FLAC__stream_decoder_init_FILE
.Lfunc_end5:
	.cfi_endproc

	.align	4
	.type	init_FILE_internal_,@function
	.cc_top init_FILE_internal_.function,init_FILE_internal_
init_FILE_internal_:
.Lfunc_begin6:
	.loc	1 471 0
	.cfi_startproc
	.issue_mode dual
	{
		nop
		dualentsp 14
	}
.Ltmp137:
	.cfi_def_cfa_offset 56
.Ltmp138:
	.cfi_offset 15, 0
	std r5, r4, sp[3]
.Ltmp139:
	.cfi_offset 4, -32
.Ltmp140:
	.cfi_offset 5, -28
	std r7, r6, sp[4]
.Ltmp141:
	.cfi_offset 6, -24
.Ltmp142:
	.cfi_offset 7, -20
	std r9, r8, sp[5]
.Ltmp143:
	.cfi_offset 8, -16
.Ltmp144:
	.cfi_offset 9, -12
.Ltmp145:
	.cfi_offset 10, -8
.Ltmp146:
	{
		mov r6, r2
		stw r10, sp[12]
	}
.Ltmp147:
	{
		mov r7, r1
		mov r4, r0
	}
.Ltmp148:
	ldd r10, r8, sp[8]
	{
		nop
		ldw r0, r4[0]
	}
	{
		nop
		ldw r1, r0[0]
	}
	.loc	1 475 5 prologue_end
.Ltmp149:
	{
		eq r1, r1, 9
		nop
	}
	.loc	1 475 5
	bf r1, .LBB6_1
.Ltmp150:
	bf r6, .LBB6_4
.Ltmp151:
	{
		nop
		ldw r1, sp[15]
	}
	bf r1, .LBB6_4
.Ltmp152:
	{
		nop
		stw r3, sp[4]
	}
.Ltmp153:
	.loc	1 486 13
	bl __getstdin
	.loc	1 486 13
	{
		eq r0, r0, r7
		nop
	}
	bf r0, .LBB6_7
.Ltmp154:
	.loc	1 1233 9
	bl __getstdin
	{
		mov r7, r0
		nop
	}
.Ltmp155:
.LBB6_7:
	{
		nop
		ldw r0, r4[1]
	}
	{
		nop
		stw r7, r0[10]
	}
	.loc	1 494 30
	bl __getstdin
	.loc	1 494 30
	{
		eq r1, r7, r0
		nop
	}
	.loc	1 494 30
	ldap r11, file_seek_callback_
	{
		ldc r7, 0
		nop
	}
	{
		mov r0, r7
		stw r1, sp[5]
	}
	bt r1, .LBB6_9
.Ltmp156:
	{
		mov r0, r11
		nop
	}
.Ltmp157:
.LBB6_9:
	{
		nop
		stw r0, sp[3]
	}
.Ltmp158:
	{
		nop
		ldw r0, r4[1]
	}
	{
		nop
		ldw r9, r0[10]
	}
	.loc	1 495 30
	bl __getstdin
	.loc	1 495 30
	{
		eq r9, r9, r0
		nop
	}
	.loc	1 495 30
	ldap r11, file_tell_callback_
	{
		mov r0, r7
		nop
	}
	bt r9, .LBB6_11
.Ltmp159:
	{
		mov r0, r11
		nop
	}
.Ltmp160:
.LBB6_11:
	{
		nop
		stw r0, sp[2]
	}
.Ltmp161:
	{
		nop
		ldw r0, r4[1]
	}
	{
		nop
		ldw r5, r0[10]
	}
	.loc	1 496 30
	bl __getstdin
	.loc	1 496 30
	{
		eq r0, r5, r0
		nop
	}
	.loc	1 496 30
	ldap r11, file_length_callback_
	bt r0, .LBB6_13
.Ltmp162:
	{
		mov r7, r11
		nop
	}
.Ltmp163:
.LBB6_13:
	{
		nop
		ldw r1, r4[0]
	}
	{
		nop
		ldw r1, r1[0]
	}
	.loc	1 353 5
.Ltmp164:
	{
		eq r1, r1, 9
		nop
	}
	bf r1, .LBB6_14
.Ltmp165:
	.loc	1 356 5
	bf r10, .LBB6_17
.Ltmp166:
	{
		mkmsk r5, 1
		nop
	}
	bu .LBB6_24
.LBB6_1:
	{
		ldc r5, 5
		nop
	}
	{
		nop
		stw r5, r0[1]
	}
	bu .LBB6_24
.LBB6_4:
	{
		ldc r5, 2
		nop
	}
	{
		nop
		stw r5, r0[1]
	}
	bu .LBB6_24
.LBB6_14:
	{
		ldc r5, 5
		nop
	}
.LBB6_24:
	.loc	1 504 1
	{
		mov r0, r5
		ldw r10, sp[12]
	}
	ldd r9, r8, sp[5]
	ldd r7, r6, sp[4]
	ldd r5, r4, sp[3]
	{
		nop
		retsp 14
	}
	# RETURN_REG_HOLDER
.LBB6_17:
.Ltmp167:
	.loc	1 360 3
	{
		or r0, r9, r0
		nop
	}
	.loc	1 360 3
	{
		eq r0, r0, 1
		nop
	}
	bf r0, .LBB6_20
.Ltmp168:
	{
		nop
		ldw r0, sp[5]
	}
	.loc	1 360 3
	{
		eq r0, r0, 0
		nop
	}
	bf r0, .LBB6_20
.Ltmp169:
	{
		ldc r5, 2
		nop
	}
	bu .LBB6_24
.LBB6_20:
.Ltmp170:
	{
		nop
		ldw r0, r4[1]
	}
	{
		nop
		ldw r0, r0[11]
	}
	.loc	1 375 6
.Ltmp171:
	ldap r11, read_callback_
	{
		mov r1, r11
		mov r2, r4
	}
	bl FLAC__bitreader_init
	.loc	1 375 6
	bf r0, .LBB6_21
.Ltmp172:
	{
		nop
		ldw r9, r4[1]
	}
	.loc	1 380 2
	ldap r11, file_read_callback_
	{
		nop
		stw r11, r9[1]
	}
	{
		nop
		ldw r0, sp[3]
	}
	{
		nop
		stw r0, r9[2]
	}
	{
		nop
		ldw r0, sp[2]
	}
	{
		nop
		stw r0, r9[3]
	}
	{
		nop
		stw r7, r9[4]
	}
	.loc	1 384 2
	ldap r11, file_eof_callback_
	{
		nop
		stw r11, r9[5]
	}
	{
		nop
		stw r6, r9[6]
	}
	{
		nop
		ldw r0, sp[4]
	}
	{
		nop
		stw r0, r9[7]
	}
	{
		nop
		ldw r0, sp[15]
	}
	{
		nop
		stw r0, r9[8]
	}
	{
		nop
		stw r8, r9[9]
	}
	ldc r0, 224
	.loc	1 389 2
	{
		add r0, r9, r0
		nop
	}
	ldc r1, 4632
	.loc	1 392 2
	{
		add r1, r9, r1
		ldc r5, 0
	}
.Ltmp173:
	.loc	1 392 2
	{
		ldc r2, 20
		stw r5, r1[0]
	}
	.loc	1 389 2
	{
		mov r1, r5
		nop
	}
	bl memset
	{
		nop
		ldw r0, r4[0]
	}
.Ltmp174:
	{
		nop
		ldw r0, r0[7]
	}
	ldc r1, 4672
	.loc	1 394 2
	{
		add r1, r9, r1
		nop
	}
	{
		nop
		stw r0, r1[0]
	}
	ldc r0, 4680
	.loc	1 395 2
	{
		add r0, r9, r0
		nop
	}
	{
		nop
		stw r5, r0[0]
	}
	ldc r0, 4676
	.loc	1 397 2
	{
		add r0, r9, r0
		mkmsk r1, 1
	}
	.loc	1 397 2
	{
		mov r0, r4
		stw r1, r0[0]
	}
	.loc	1 398 6
.Ltmp175:
	bl FLAC__stream_decoder_reset
	bt r0, .LBB6_24
	bu .LBB6_23
.Ltmp176:
.LBB6_21:
	.loc	1 376 3
	{
		ldc r1, 8
		ldw r0, r4[0]
	}
	{
		nop
		stw r1, r0[0]
	}
.Ltmp177:
.LBB6_23:
	{
		mkmsk r5, 2
		nop
	}
	bu .LBB6_24
	.cc_bottom init_FILE_internal_.function
	.set	init_FILE_internal_.nstackwords,((__getstdin.nstackwords $M FLAC__bitreader_init.nstackwords $M memset.nstackwords $M FLAC__stream_decoder_reset.nstackwords) + 14)
	.set	init_FILE_internal_.maxcores,FLAC__bitreader_init.maxcores $M FLAC__stream_decoder_reset.maxcores $M __getstdin.maxcores $M 1
	.set	init_FILE_internal_.maxtimers,FLAC__bitreader_init.maxtimers $M FLAC__stream_decoder_reset.maxtimers $M __getstdin.maxtimers $M 0
	.set	init_FILE_internal_.maxchanends,FLAC__bitreader_init.maxchanends $M FLAC__stream_decoder_reset.maxchanends $M __getstdin.maxchanends $M 0
.Ltmp178:
	.size	init_FILE_internal_, .Ltmp178-init_FILE_internal_
.Lfunc_end6:
	.cfi_endproc

	.globl	FLAC__stream_decoder_init_ogg_FILE
	.align	4
	.type	FLAC__stream_decoder_init_ogg_FILE,@function
	.cc_top FLAC__stream_decoder_init_ogg_FILE.function,FLAC__stream_decoder_init_ogg_FILE
FLAC__stream_decoder_init_ogg_FILE:
.Lfunc_begin7:
	.loc	1 526 0
	.cfi_startproc
	.issue_mode dual
	{
		nop
		dualentsp 4
	}
.Ltmp179:
	.cfi_def_cfa_offset 16
.Ltmp180:
	.cfi_offset 15, 0
	std r5, r4, sp[1]
.Ltmp181:
	.cfi_offset 4, -8
.Ltmp182:
	.cfi_offset 5, -4
.Ltmp183:
	{
		mov r5, r1
		mov r4, r0
	}
.Ltmp184:
	{
		nop
		ldw r1, r4[0]
	}
	{
		nop
		ldw r0, r1[0]
	}
	.loc	1 475 5 prologue_end
.Ltmp185:
	{
		eq r0, r0, 9
		nop
	}
	.loc	1 475 5
	bf r0, .LBB7_1
.Ltmp186:
	bf r2, .LBB7_4
.Ltmp187:
	{
		nop
		ldw r0, sp[5]
	}
.Ltmp188:
	bf r0, .LBB7_4
.Ltmp189:
	.loc	1 486 13
	bl __getstdin
	.loc	1 486 13
	{
		eq r0, r0, r5
		nop
	}
	bf r0, .LBB7_7
.Ltmp190:
	.loc	1 1233 9
	bl __getstdin
	{
		mov r5, r0
		nop
	}
.Ltmp191:
.LBB7_7:
	{
		nop
		ldw r0, r4[1]
	}
	{
		nop
		stw r5, r0[10]
	}
	.loc	1 494 30
	bl __getstdin
	.loc	1 495 30
	bl __getstdin
	.loc	1 496 30
	bl __getstdin
.Ltmp192:
	{
		nop
		ldw r0, r4[0]
	}
	{
		nop
		ldw r0, r0[0]
	}
	.loc	1 353 5
.Ltmp193:
	{
		eq r0, r0, 9
		nop
	}
	.loc	1 353 5
	bt r0, .LBB7_8
.Ltmp194:
	{
		ldc r0, 5
		nop
	}
	bu .LBB7_10
.Ltmp195:
.LBB7_1:
	{
		ldc r0, 5
		nop
	}
	{
		nop
		stw r0, r1[1]
	}
	bu .LBB7_10
.Ltmp196:
.LBB7_4:
	{
		ldc r0, 2
		nop
	}
	{
		nop
		stw r0, r1[1]
	}
	bu .LBB7_10
.Ltmp197:
.LBB7_8:
	{
		mkmsk r0, 1
		nop
	}
.Ltmp198:
.LBB7_10:
	.loc	1 527 9
	ldd r5, r4, sp[1]
	{
		nop
		retsp 4
	}
.Ltmp199:
	# RETURN_REG_HOLDER
.Ltmp200:
	.cc_bottom FLAC__stream_decoder_init_ogg_FILE.function
	.set	FLAC__stream_decoder_init_ogg_FILE.nstackwords,(__getstdin.nstackwords + 4)
	.globl	FLAC__stream_decoder_init_ogg_FILE.nstackwords
	.set	FLAC__stream_decoder_init_ogg_FILE.maxcores,__getstdin.maxcores $M 1
	.globl	FLAC__stream_decoder_init_ogg_FILE.maxcores
	.set	FLAC__stream_decoder_init_ogg_FILE.maxtimers,__getstdin.maxtimers $M 0
	.globl	FLAC__stream_decoder_init_ogg_FILE.maxtimers
	.set	FLAC__stream_decoder_init_ogg_FILE.maxchanends,__getstdin.maxchanends $M 0
	.globl	FLAC__stream_decoder_init_ogg_FILE.maxchanends
.Ltmp201:
	.size	FLAC__stream_decoder_init_ogg_FILE, .Ltmp201-FLAC__stream_decoder_init_ogg_FILE
.Lfunc_end7:
	.cfi_endproc

	.globl	FLAC__stream_decoder_init_file
	.align	4
	.type	FLAC__stream_decoder_init_file,@function
	.cc_top FLAC__stream_decoder_init_file.function,FLAC__stream_decoder_init_file
FLAC__stream_decoder_init_file:
.Lfunc_begin8:
	.loc	1 571 0
	.cfi_startproc
	.issue_mode dual
	{
		nop
		dualentsp 10
	}
.Ltmp202:
	.cfi_def_cfa_offset 40
.Ltmp203:
	.cfi_offset 15, 0
	std r5, r4, sp[2]
.Ltmp204:
	.cfi_offset 4, -24
.Ltmp205:
	.cfi_offset 5, -20
	std r7, r6, sp[3]
.Ltmp206:
	.cfi_offset 6, -16
.Ltmp207:
	.cfi_offset 7, -12
.Ltmp208:
	.cfi_offset 8, -8
.Ltmp209:
	{
		mov r4, r3
		stw r8, sp[8]
	}
.Ltmp210:
	{
		mov r5, r2
		mov r6, r0
	}
.Ltmp211:
	{
		nop
		ldw r2, r6[0]
	}
	{
		nop
		ldw r0, r2[0]
	}
	.loc	1 549 5 prologue_end
.Ltmp212:
	{
		eq r0, r0, 9
		nop
	}
	.loc	1 549 5
	bf r0, .LBB8_1
.Ltmp213:
	bf r5, .LBB8_4
.Ltmp214:
	{
		nop
		ldw r7, sp[11]
	}
.Ltmp215:
	bf r7, .LBB8_4
.Ltmp216:
	{
		nop
		ldw r8, sp[12]
	}
.Ltmp217:
	.loc	1 555 2
	bf r1, .LBB8_7
.Ltmp218:
	.loc	1 555 19
	ldaw r11, cp[.L.str36]
	{
		mov r0, r1
		mov r1, r11
	}
.Ltmp219:
	bl fopen
	bu .LBB8_8
.Ltmp220:
.LBB8_1:
	{
		ldc r0, 5
		nop
	}
	{
		nop
		stw r0, r2[1]
	}
	bu .LBB8_11
.LBB8_4:
	{
		ldc r0, 2
		nop
	}
	{
		nop
		stw r0, r2[1]
	}
	bu .LBB8_11
.LBB8_7:
.Ltmp221:
	.loc	1 555 48
	bl __getstdin
.Ltmp222:
.LBB8_8:
	{
		mov r1, r0
		nop
	}
.Ltmp223:
	.loc	1 557 5
	bf r1, .LBB8_9
.Ltmp224:
	{
		ldc r0, 0
		nop
	}
	.loc	1 560 9
	std r0, r8, sp[1]
	{
		mov r0, r6
		stw r7, sp[1]
	}
	{
		mov r2, r5
		mov r3, r4
	}
	bl init_FILE_internal_
.Ltmp225:
	bu .LBB8_11
.Ltmp226:
.LBB8_9:
	{
		ldc r0, 4
		nop
	}
.LBB8_11:
	{
		nop
		ldw r8, sp[8]
	}
	.loc	1 572 9
	ldd r7, r6, sp[3]
	ldd r5, r4, sp[2]
	{
		nop
		retsp 10
	}
	# RETURN_REG_HOLDER
.Ltmp227:
	.cc_bottom FLAC__stream_decoder_init_file.function
	.set	FLAC__stream_decoder_init_file.nstackwords,((__getstdin.nstackwords $M init_FILE_internal_.nstackwords $M fopen.nstackwords) + 10)
	.globl	FLAC__stream_decoder_init_file.nstackwords
	.set	FLAC__stream_decoder_init_file.maxcores,__getstdin.maxcores $M fopen.maxcores $M init_FILE_internal_.maxcores $M 1
	.globl	FLAC__stream_decoder_init_file.maxcores
	.set	FLAC__stream_decoder_init_file.maxtimers,__getstdin.maxtimers $M fopen.maxtimers $M init_FILE_internal_.maxtimers $M 0
	.globl	FLAC__stream_decoder_init_file.maxtimers
	.set	FLAC__stream_decoder_init_file.maxchanends,__getstdin.maxchanends $M fopen.maxchanends $M init_FILE_internal_.maxchanends $M 0
	.globl	FLAC__stream_decoder_init_file.maxchanends
.Ltmp228:
	.size	FLAC__stream_decoder_init_file, .Ltmp228-FLAC__stream_decoder_init_file
.Lfunc_end8:
	.cfi_endproc

	.globl	FLAC__stream_decoder_init_ogg_file
	.align	4
	.type	FLAC__stream_decoder_init_ogg_file,@function
	.cc_top FLAC__stream_decoder_init_ogg_file.function,FLAC__stream_decoder_init_ogg_file
FLAC__stream_decoder_init_ogg_file:
.Lfunc_begin9:
	.loc	1 583 0
	.cfi_startproc
	.issue_mode dual
	{
		nop
		dualentsp 4
	}
.Ltmp229:
	.cfi_def_cfa_offset 16
.Ltmp230:
	.cfi_offset 15, 0
	std r5, r4, sp[1]
.Ltmp231:
	.cfi_offset 4, -8
.Ltmp232:
	.cfi_offset 5, -4
	{
		mov r4, r0
		nop
	}
.Ltmp233:
	{
		nop
		ldw r3, r4[0]
	}
	{
		nop
		ldw r0, r3[0]
	}
	.loc	1 549 5 prologue_end
.Ltmp234:
	{
		eq r0, r0, 9
		nop
	}
	.loc	1 549 5
	bf r0, .LBB9_1
.Ltmp235:
	bf r2, .LBB9_4
.Ltmp236:
	{
		nop
		ldw r0, sp[5]
	}
.Ltmp237:
	bf r0, .LBB9_4
.Ltmp238:
	.loc	1 555 2
	bf r1, .LBB9_7
.Ltmp239:
	.loc	1 555 19
	ldaw r11, cp[.L.str36]
	{
		mov r0, r1
		mov r1, r11
	}
.Ltmp240:
	bl fopen
	bu .LBB9_8
.Ltmp241:
.LBB9_1:
	{
		ldc r0, 5
		nop
	}
	{
		nop
		stw r0, r3[1]
	}
	bu .LBB9_17
.Ltmp242:
.LBB9_4:
	{
		ldc r0, 2
		nop
	}
	{
		nop
		stw r0, r3[1]
	}
	bu .LBB9_17
.Ltmp243:
.LBB9_7:
	.loc	1 555 48
	bl __getstdin
.Ltmp244:
.LBB9_8:
	{
		mov r5, r0
		nop
	}
.Ltmp245:
	.loc	1 557 5
	bf r5, .LBB9_9
.Ltmp246:
	{
		nop
		ldw r1, r4[0]
	}
	{
		nop
		ldw r0, r1[0]
	}
	.loc	1 475 5
.Ltmp247:
	{
		eq r0, r0, 9
		nop
	}
	.loc	1 475 5
	bf r0, .LBB9_11
.Ltmp248:
	.loc	1 486 13
	bl __getstdin
	.loc	1 486 13
	{
		eq r0, r0, r5
		nop
	}
	bf r0, .LBB9_14
.Ltmp249:
	.loc	1 1233 9
	bl __getstdin
	{
		mov r5, r0
		nop
	}
.Ltmp250:
.LBB9_14:
	{
		nop
		ldw r0, r4[1]
	}
	{
		nop
		stw r5, r0[10]
	}
	.loc	1 494 30
	bl __getstdin
	.loc	1 495 30
	bl __getstdin
	.loc	1 496 30
	bl __getstdin
.Ltmp251:
	{
		nop
		ldw r0, r4[0]
	}
	{
		nop
		ldw r0, r0[0]
	}
	.loc	1 353 5
.Ltmp252:
	{
		eq r0, r0, 9
		nop
	}
	.loc	1 353 5
	bt r0, .LBB9_15
.Ltmp253:
	{
		ldc r0, 5
		nop
	}
	bu .LBB9_17
.Ltmp254:
.LBB9_9:
	{
		ldc r0, 4
		nop
	}
	bu .LBB9_17
.Ltmp255:
.LBB9_11:
	{
		ldc r0, 5
		nop
	}
	{
		nop
		stw r0, r1[1]
	}
	bu .LBB9_17
.Ltmp256:
.LBB9_15:
	{
		mkmsk r0, 1
		nop
	}
.Ltmp257:
.LBB9_17:
	.loc	1 584 9
	ldd r5, r4, sp[1]
	{
		nop
		retsp 4
	}
.Ltmp258:
	# RETURN_REG_HOLDER
.Ltmp259:
	.cc_bottom FLAC__stream_decoder_init_ogg_file.function
	.set	FLAC__stream_decoder_init_ogg_file.nstackwords,((__getstdin.nstackwords $M fopen.nstackwords) + 4)
	.globl	FLAC__stream_decoder_init_ogg_file.nstackwords
	.set	FLAC__stream_decoder_init_ogg_file.maxcores,__getstdin.maxcores $M fopen.maxcores $M 1
	.globl	FLAC__stream_decoder_init_ogg_file.maxcores
	.set	FLAC__stream_decoder_init_ogg_file.maxtimers,__getstdin.maxtimers $M fopen.maxtimers $M 0
	.globl	FLAC__stream_decoder_init_ogg_file.maxtimers
	.set	FLAC__stream_decoder_init_ogg_file.maxchanends,__getstdin.maxchanends $M fopen.maxchanends $M 0
	.globl	FLAC__stream_decoder_init_ogg_file.maxchanends
.Ltmp260:
	.size	FLAC__stream_decoder_init_ogg_file, .Ltmp260-FLAC__stream_decoder_init_ogg_file
.Lfunc_end9:
	.cfi_endproc

	.globl	FLAC__stream_decoder_set_ogg_serial_number
	.align	4
	.type	FLAC__stream_decoder_set_ogg_serial_number,@function
	.cc_top FLAC__stream_decoder_set_ogg_serial_number.function,FLAC__stream_decoder_set_ogg_serial_number
FLAC__stream_decoder_set_ogg_serial_number:
.Lfunc_begin10:
	.loc	1 657 0
	.cfi_startproc
	.issue_mode dual
	{
		ldc r0, 0
		dualentsp 0
	}
.Ltmp261:
	{
		nop
		retsp 0
	}
	.loc	1 671 1 prologue_end
.Ltmp262:
	# RETURN_REG_HOLDER
.Ltmp263:
	.cc_bottom FLAC__stream_decoder_set_ogg_serial_number.function
	.set	FLAC__stream_decoder_set_ogg_serial_number.nstackwords,0
	.globl	FLAC__stream_decoder_set_ogg_serial_number.nstackwords
	.set	FLAC__stream_decoder_set_ogg_serial_number.maxcores,1
	.globl	FLAC__stream_decoder_set_ogg_serial_number.maxcores
	.set	FLAC__stream_decoder_set_ogg_serial_number.maxtimers,0
	.globl	FLAC__stream_decoder_set_ogg_serial_number.maxtimers
	.set	FLAC__stream_decoder_set_ogg_serial_number.maxchanends,0
	.globl	FLAC__stream_decoder_set_ogg_serial_number.maxchanends
.Ltmp264:
	.size	FLAC__stream_decoder_set_ogg_serial_number, .Ltmp264-FLAC__stream_decoder_set_ogg_serial_number
.Lfunc_end10:
	.cfi_endproc

	.globl	FLAC__stream_decoder_set_md5_checking
	.align	4
	.type	FLAC__stream_decoder_set_md5_checking,@function
	.cc_top FLAC__stream_decoder_set_md5_checking.function,FLAC__stream_decoder_set_md5_checking
FLAC__stream_decoder_set_md5_checking:
.Lfunc_begin11:
	.loc	1 674 0
	.cfi_startproc
	.issue_mode dual
	{
		nop
		dualentsp 0
	}
	{
		nop
		ldw r0, r0[0]
	}
.Ltmp265:
	{
		nop
		ldw r2, r0[0]
	}
	.loc	1 677 5 prologue_end
.Ltmp266:
	{
		eq r2, r2, 9
		nop
	}
	bf r2, .LBB11_1
.Ltmp267:
	.loc	1 679 2
	{
		mkmsk r0, 1
		stw r1, r0[7]
	}
	{
		nop
		retsp 0
	}
	.loc	1 681 1
	# RETURN_REG_HOLDER
.LBB11_1:
	{
		ldc r0, 0
		retsp 0
	}
	# RETURN_REG_HOLDER
.Ltmp268:
	.cc_bottom FLAC__stream_decoder_set_md5_checking.function
	.set	FLAC__stream_decoder_set_md5_checking.nstackwords,0
	.globl	FLAC__stream_decoder_set_md5_checking.nstackwords
	.set	FLAC__stream_decoder_set_md5_checking.maxcores,1
	.globl	FLAC__stream_decoder_set_md5_checking.maxcores
	.set	FLAC__stream_decoder_set_md5_checking.maxtimers,0
	.globl	FLAC__stream_decoder_set_md5_checking.maxtimers
	.set	FLAC__stream_decoder_set_md5_checking.maxchanends,0
	.globl	FLAC__stream_decoder_set_md5_checking.maxchanends
.Ltmp269:
	.size	FLAC__stream_decoder_set_md5_checking, .Ltmp269-FLAC__stream_decoder_set_md5_checking
.Lfunc_end11:
	.cfi_endproc

	.globl	FLAC__stream_decoder_set_metadata_respond
	.align	4
	.type	FLAC__stream_decoder_set_metadata_respond,@function
	.cc_top FLAC__stream_decoder_set_metadata_respond.function,FLAC__stream_decoder_set_metadata_respond
FLAC__stream_decoder_set_metadata_respond:
.Lfunc_begin12:
	.loc	1 684 0
	.cfi_startproc
	.issue_mode dual
	{
		mov r2, r0
		dualentsp 0
	}
.Ltmp270:
	ldc r0, 126
	.loc	1 690 5 prologue_end
.Ltmp271:
	{
		lsu r3, r0, r1
		ldc r0, 0
	}
	bt r3, .LBB12_4
.Ltmp272:
	{
		nop
		ldw r3, r2[0]
	}
	{
		nop
		ldw r3, r3[0]
	}
	.loc	1 692 5
.Ltmp273:
	{
		eq r3, r3, 9
		nop
	}
	bf r3, .LBB12_4
.Ltmp274:
	{
		nop
		ldw r2, r2[1]
	}
.Ltmp275:
	.loc	1 694 2
	ldaw r0, r2[r1]
	ldc r3, 600
	{
		add r3, r0, r3
		mkmsk r0, 1
	}
	.loc	1 694 2
	{
		eq r1, r1, 2
		stw r0, r3[0]
	}
.Ltmp276:
	bf r1, .LBB12_4
	ldc r1, 1116
	.loc	1 696 3
.Ltmp277:
	{
		add r1, r2, r1
		ldc r2, 0
	}
	{
		nop
		stw r2, r1[0]
	}
.Ltmp278:
.LBB12_4:
	{
		nop
		retsp 0
	}
	.loc	1 698 1
	# RETURN_REG_HOLDER
.Ltmp279:
	.cc_bottom FLAC__stream_decoder_set_metadata_respond.function
	.set	FLAC__stream_decoder_set_metadata_respond.nstackwords,0
	.globl	FLAC__stream_decoder_set_metadata_respond.nstackwords
	.set	FLAC__stream_decoder_set_metadata_respond.maxcores,1
	.globl	FLAC__stream_decoder_set_metadata_respond.maxcores
	.set	FLAC__stream_decoder_set_metadata_respond.maxtimers,0
	.globl	FLAC__stream_decoder_set_metadata_respond.maxtimers
	.set	FLAC__stream_decoder_set_metadata_respond.maxchanends,0
	.globl	FLAC__stream_decoder_set_metadata_respond.maxchanends
.Ltmp280:
	.size	FLAC__stream_decoder_set_metadata_respond, .Ltmp280-FLAC__stream_decoder_set_metadata_respond
.Lfunc_end12:
	.cfi_endproc

	.globl	FLAC__stream_decoder_set_metadata_respond_application
	.align	4
	.type	FLAC__stream_decoder_set_metadata_respond_application,@function
	.cc_top FLAC__stream_decoder_set_metadata_respond_application.function,FLAC__stream_decoder_set_metadata_respond_application
FLAC__stream_decoder_set_metadata_respond_application:
.Lfunc_begin13:
	.loc	1 701 0
	.cfi_startproc
	.issue_mode dual
	{
		nop
		dualentsp 10
	}
.Ltmp281:
	.cfi_def_cfa_offset 40
.Ltmp282:
	.cfi_offset 15, 0
	std r5, r4, sp[1]
.Ltmp283:
	.cfi_offset 4, -32
.Ltmp284:
	.cfi_offset 5, -28
	std r7, r6, sp[2]
.Ltmp285:
	.cfi_offset 6, -24
.Ltmp286:
	.cfi_offset 7, -20
	std r9, r8, sp[3]
.Ltmp287:
	.cfi_offset 8, -16
.Ltmp288:
	.cfi_offset 9, -12
.Ltmp289:
	.cfi_offset 10, -8
.Ltmp290:
	{
		mov r6, r1
		stw r10, sp[8]
	}
.Ltmp291:
	{
		mov r4, r0
		nop
	}
.Ltmp292:
	{
		nop
		ldw r0, r4[0]
	}
	.loc	1 706 5 prologue_end
.Ltmp293:
	{
		ldc r5, 0
		ldw r0, r0[0]
	}
	.loc	1 706 5
	{
		eq r0, r0, 9
		nop
	}
	bf r0, .LBB13_16
.Ltmp294:
	{
		nop
		ldw r0, r4[1]
	}
	ldc r1, 608
	.loc	1 709 5
.Ltmp295:
	{
		add r1, r0, r1
		nop
	}
	.loc	1 709 5
	{
		mkmsk r9, 1
		ldw r1, r1[0]
	}
	bt r1, .LBB13_9
.Ltmp296:
	ldc r8, 1116
	.loc	1 714 5
.Ltmp297:
	{
		add r1, r0, r8
		nop
	}
	{
		nop
		ldw r1, r1[0]
	}
	ldc r2, 1120
	.loc	1 714 5
	{
		add r2, r0, r2
		nop
	}
	{
		nop
		ldw r2, r2[0]
	}
.Ltmp298:
	ldc r10, 1112
	.loc	1 715 53
.Ltmp299:
	{
		add r0, r0, r10
		nop
	}
.Ltmp300:
	.loc	1 715 53
	{
		eq r0, r1, r2
		ldw r7, r0[0]
	}
.Ltmp301:
	.loc	1 714 5
	bf r0, .LBB13_3
.Ltmp302:
	.file	15 "C:/Users/takaaki/git/sw_xSSDAC/module_libFLAC/source/share\\alloc.h"
	.loc	15 275 5
	bf r1, .LBB13_5
.Ltmp303:
	.loc	15 277 5
	ashr r0, r1, 32
	bt r0, .LBB13_14
.Ltmp304:
	.loc	15 281 9
	{
		shl r8, r1, 1
		mov r0, r7
	}
.Ltmp305:
	.loc	15 206 17
	{
		mov r1, r8
		nop
	}
	bl realloc
.Ltmp306:
	.loc	15 207 5
	bf r8, .LBB13_12
.Ltmp307:
	ldc r8, 1116
	bt r0, .LBB13_6
.Ltmp308:
.LBB13_14:
	.loc	15 208 3
	{
		mov r0, r7
		nop
	}
	bl free
	{
		nop
		ldw r0, r4[1]
	}
.Ltmp309:
	.loc	1 715 53
	{
		add r0, r0, r10
		ldc r1, 0
	}
	{
		nop
		stw r1, r0[0]
	}
	bu .LBB13_15
.Ltmp310:
.LBB13_3:
	{
		mov r0, r7
		nop
	}
	bu .LBB13_8
.Ltmp311:
.LBB13_5:
	{
		ldc r1, 0
		mov r0, r7
	}
	.loc	15 276 10
.Ltmp312:
	bl realloc
	bu .LBB13_6
.Ltmp313:
.LBB13_12:
	ldc r8, 1116
.Ltmp314:
.LBB13_6:
	{
		nop
		ldw r1, r4[1]
	}
	.loc	1 715 53
	{
		add r2, r1, r10
		nop
	}
	{
		nop
		stw r0, r2[0]
	}
	bf r0, .LBB13_15
.Ltmp315:
	ldc r2, 1120
	.loc	1 719 3
	{
		add r2, r1, r2
		nop
	}
	{
		nop
		ldw r3, r2[0]
	}
	.loc	1 719 3
	{
		shl r3, r3, 1
		nop
	}
	.loc	1 719 3
	{
		add r1, r1, r8
		stw r3, r2[0]
	}
	{
		nop
		ldw r1, r1[0]
	}
.Ltmp316:
.LBB13_8:
	.loc	1 722 2
	ldw r2, cp[FLAC__STREAM_METADATA_APPLICATION_ID_LEN]
	.loc	1 722 2
	{
		shr r2, r2, 3
		nop
	}
	.loc	1 722 2
	mul r1, r2, r1
	.loc	1 722 2
	{
		add r0, r0, r1
		mov r1, r6
	}
	.loc	1 722 2
	bl memcpy
	{
		nop
		ldw r0, r4[1]
	}
	.loc	1 723 2
	{
		add r0, r0, r8
		nop
	}
	{
		nop
		ldw r1, r0[0]
	}
	.loc	1 723 2
	{
		add r1, r1, 1
		nop
	}
	{
		nop
		stw r1, r0[0]
	}
.Ltmp317:
.LBB13_9:
	{
		mov r5, r9
		nop
	}
.LBB13_16:
	.loc	1 726 1
	{
		mov r0, r5
		ldw r10, sp[8]
	}
	ldd r9, r8, sp[3]
	ldd r7, r6, sp[2]
	ldd r5, r4, sp[1]
	{
		nop
		retsp 10
	}
	# RETURN_REG_HOLDER
.LBB13_15:
.Ltmp318:
	.loc	1 716 4
	{
		ldc r1, 8
		ldw r0, r4[0]
	}
	{
		nop
		stw r1, r0[0]
	}
	bu .LBB13_16
.Ltmp319:
	.cc_bottom FLAC__stream_decoder_set_metadata_respond_application.function
	.set	FLAC__stream_decoder_set_metadata_respond_application.nstackwords,((memcpy.nstackwords $M free.nstackwords $M realloc.nstackwords) + 10)
	.globl	FLAC__stream_decoder_set_metadata_respond_application.nstackwords
	.set	FLAC__stream_decoder_set_metadata_respond_application.maxcores,free.maxcores $M realloc.maxcores $M 1
	.globl	FLAC__stream_decoder_set_metadata_respond_application.maxcores
	.set	FLAC__stream_decoder_set_metadata_respond_application.maxtimers,free.maxtimers $M realloc.maxtimers $M 0
	.globl	FLAC__stream_decoder_set_metadata_respond_application.maxtimers
	.set	FLAC__stream_decoder_set_metadata_respond_application.maxchanends,free.maxchanends $M realloc.maxchanends $M 0
	.globl	FLAC__stream_decoder_set_metadata_respond_application.maxchanends
.Ltmp320:
	.size	FLAC__stream_decoder_set_metadata_respond_application, .Ltmp320-FLAC__stream_decoder_set_metadata_respond_application
.Lfunc_end13:
	.cfi_endproc

	.globl	FLAC__stream_decoder_set_metadata_respond_all
	.align	4
	.type	FLAC__stream_decoder_set_metadata_respond_all,@function
	.cc_top FLAC__stream_decoder_set_metadata_respond_all.function,FLAC__stream_decoder_set_metadata_respond_all
FLAC__stream_decoder_set_metadata_respond_all:
.Lfunc_begin14:
	.loc	1 729 0
	.cfi_startproc
	.issue_mode dual
	{
		nop
		dualentsp 0
	}
	{
		nop
		ldw r1, r0[0]
	}
	{
		nop
		ldw r1, r1[0]
	}
	.loc	1 734 5 prologue_end
.Ltmp321:
	{
		eq r1, r1, 9
		nop
	}
	bf r1, .LBB14_1
.Ltmp322:
	{
		nop
		ldw r1, r0[1]
	}
	ldc r0, 600
.Ltmp323:
	{
		add r2, r1, r0
		nop
	}
	ldc r3, 128
	{
		mkmsk r0, 1
		nop
	}
.LBB14_3:
	.loc	1 737 3
.Ltmp324:
	{
		sub r3, r3, 1
		stw r0, r2[0]
	}
	.loc	1 736 2
	{
		add r2, r2, 4
		nop
	}
.xtaloop 128
	# LOOPMARKER 0
	.loc	1 736 2
	bt r3, .LBB14_3
.Ltmp325:
	ldc r2, 1116
	.loc	1 738 2
	{
		add r1, r1, r2
		ldc r2, 0
	}
	{
		nop
		stw r2, r1[0]
	}
	{
		nop
		retsp 0
	}
	.loc	1 740 1
	# RETURN_REG_HOLDER
.LBB14_1:
	{
		ldc r0, 0
		retsp 0
	}
	# RETURN_REG_HOLDER
.Ltmp326:
	.cc_bottom FLAC__stream_decoder_set_metadata_respond_all.function
	.set	FLAC__stream_decoder_set_metadata_respond_all.nstackwords,0
	.globl	FLAC__stream_decoder_set_metadata_respond_all.nstackwords
	.set	FLAC__stream_decoder_set_metadata_respond_all.maxcores,1
	.globl	FLAC__stream_decoder_set_metadata_respond_all.maxcores
	.set	FLAC__stream_decoder_set_metadata_respond_all.maxtimers,0
	.globl	FLAC__stream_decoder_set_metadata_respond_all.maxtimers
	.set	FLAC__stream_decoder_set_metadata_respond_all.maxchanends,0
	.globl	FLAC__stream_decoder_set_metadata_respond_all.maxchanends
.Ltmp327:
	.size	FLAC__stream_decoder_set_metadata_respond_all, .Ltmp327-FLAC__stream_decoder_set_metadata_respond_all
.Lfunc_end14:
	.cfi_endproc

	.globl	FLAC__stream_decoder_set_metadata_ignore
	.align	4
	.type	FLAC__stream_decoder_set_metadata_ignore,@function
	.cc_top FLAC__stream_decoder_set_metadata_ignore.function,FLAC__stream_decoder_set_metadata_ignore
FLAC__stream_decoder_set_metadata_ignore:
.Lfunc_begin15:
	.loc	1 743 0
	.cfi_startproc
	.issue_mode dual
	{
		mov r2, r0
		dualentsp 0
	}
.Ltmp328:
	ldc r0, 126
	.loc	1 749 5 prologue_end
.Ltmp329:
	{
		lsu r3, r0, r1
		ldc r0, 0
	}
	bt r3, .LBB15_4
.Ltmp330:
	{
		nop
		ldw r3, r2[0]
	}
	{
		nop
		ldw r3, r3[0]
	}
	.loc	1 751 5
.Ltmp331:
	{
		eq r3, r3, 9
		nop
	}
	bf r3, .LBB15_4
.Ltmp332:
	{
		nop
		ldw r2, r2[1]
	}
.Ltmp333:
	.loc	1 753 2
	ldaw r0, r2[r1]
	ldc r3, 600
	{
		add r0, r0, r3
		ldc r3, 0
	}
	.loc	1 753 2
	{
		mkmsk r0, 1
		stw r3, r0[0]
	}
	.loc	1 754 5
.Ltmp334:
	{
		eq r1, r1, 2
		nop
	}
.Ltmp335:
	bf r1, .LBB15_4
	ldc r1, 1116
	.loc	1 755 3
	{
		add r1, r2, r1
		nop
	}
	{
		nop
		stw r3, r1[0]
	}
.Ltmp336:
.LBB15_4:
	{
		nop
		retsp 0
	}
	.loc	1 757 1
	# RETURN_REG_HOLDER
.Ltmp337:
	.cc_bottom FLAC__stream_decoder_set_metadata_ignore.function
	.set	FLAC__stream_decoder_set_metadata_ignore.nstackwords,0
	.globl	FLAC__stream_decoder_set_metadata_ignore.nstackwords
	.set	FLAC__stream_decoder_set_metadata_ignore.maxcores,1
	.globl	FLAC__stream_decoder_set_metadata_ignore.maxcores
	.set	FLAC__stream_decoder_set_metadata_ignore.maxtimers,0
	.globl	FLAC__stream_decoder_set_metadata_ignore.maxtimers
	.set	FLAC__stream_decoder_set_metadata_ignore.maxchanends,0
	.globl	FLAC__stream_decoder_set_metadata_ignore.maxchanends
.Ltmp338:
	.size	FLAC__stream_decoder_set_metadata_ignore, .Ltmp338-FLAC__stream_decoder_set_metadata_ignore
.Lfunc_end15:
	.cfi_endproc

	.globl	FLAC__stream_decoder_set_metadata_ignore_application
	.align	4
	.type	FLAC__stream_decoder_set_metadata_ignore_application,@function
	.cc_top FLAC__stream_decoder_set_metadata_ignore_application.function,FLAC__stream_decoder_set_metadata_ignore_application
FLAC__stream_decoder_set_metadata_ignore_application:
.Lfunc_begin16:
	.loc	1 760 0
	.cfi_startproc
	.issue_mode dual
	{
		nop
		dualentsp 10
	}
.Ltmp339:
	.cfi_def_cfa_offset 40
.Ltmp340:
	.cfi_offset 15, 0
	std r5, r4, sp[1]
.Ltmp341:
	.cfi_offset 4, -32
.Ltmp342:
	.cfi_offset 5, -28
	std r7, r6, sp[2]
.Ltmp343:
	.cfi_offset 6, -24
.Ltmp344:
	.cfi_offset 7, -20
	std r9, r8, sp[3]
.Ltmp345:
	.cfi_offset 8, -16
.Ltmp346:
	.cfi_offset 9, -12
.Ltmp347:
	.cfi_offset 10, -8
.Ltmp348:
	{
		mov r6, r1
		stw r10, sp[8]
	}
.Ltmp349:
	{
		mov r4, r0
		nop
	}
.Ltmp350:
	{
		nop
		ldw r0, r4[0]
	}
	.loc	1 765 5 prologue_end
.Ltmp351:
	{
		ldc r5, 0
		ldw r0, r0[0]
	}
	.loc	1 765 5
	{
		eq r0, r0, 9
		nop
	}
	bf r0, .LBB16_16
.Ltmp352:
	{
		nop
		ldw r0, r4[1]
	}
	ldc r1, 608
	.loc	1 768 5
.Ltmp353:
	{
		add r1, r0, r1
		nop
	}
	.loc	1 768 5
	{
		mkmsk r8, 1
		ldw r1, r1[0]
	}
	bf r1, .LBB16_9
.Ltmp354:
	ldc r10, 1116
	.loc	1 773 5
.Ltmp355:
	{
		add r1, r0, r10
		nop
	}
	{
		nop
		ldw r1, r1[0]
	}
	ldc r3, 1120
	.loc	1 773 5
	{
		add r2, r0, r3
		nop
	}
	{
		nop
		ldw r2, r2[0]
	}
.Ltmp356:
	ldc r9, 1112
	.loc	1 774 53
.Ltmp357:
	{
		add r0, r0, r9
		nop
	}
.Ltmp358:
	.loc	1 774 53
	{
		eq r0, r1, r2
		ldw r7, r0[0]
	}
.Ltmp359:
	.loc	1 773 5
	bf r0, .LBB16_3
.Ltmp360:
	.loc	15 275 5
	bf r1, .LBB16_5
.Ltmp361:
	.loc	15 277 5
	ashr r0, r1, 32
	bt r0, .LBB16_14
.Ltmp362:
	.loc	15 281 9
	{
		shl r8, r1, 1
		mov r0, r7
	}
.Ltmp363:
	.loc	15 206 17
	{
		mov r1, r8
		nop
	}
	bl realloc
.Ltmp364:
	.loc	15 207 5
	bf r8, .LBB16_12
.Ltmp365:
	{
		mkmsk r8, 1
		nop
	}
	ldc r3, 1120
	bt r0, .LBB16_6
.Ltmp366:
.LBB16_14:
	.loc	15 208 3
	{
		mov r0, r7
		nop
	}
	bl free
	{
		nop
		ldw r0, r4[1]
	}
.Ltmp367:
	.loc	1 774 53
	{
		add r0, r0, r9
		ldc r1, 0
	}
	{
		nop
		stw r1, r0[0]
	}
	bu .LBB16_15
.Ltmp368:
.LBB16_3:
	{
		mov r0, r7
		nop
	}
	bu .LBB16_8
.Ltmp369:
.LBB16_5:
	{
		ldc r1, 0
		mov r0, r7
	}
	{
		mov r7, r3
		nop
	}
.Ltmp370:
	.loc	15 276 10
	bl realloc
	{
		mov r3, r7
		nop
	}
	bu .LBB16_6
.Ltmp371:
.LBB16_12:
	{
		mkmsk r8, 1
		nop
	}
	ldc r3, 1120
.Ltmp372:
.LBB16_6:
	{
		nop
		ldw r1, r4[1]
	}
	.loc	1 774 53
	{
		add r2, r1, r9
		nop
	}
	{
		nop
		stw r0, r2[0]
	}
	bf r0, .LBB16_15
.Ltmp373:
	.loc	1 778 3
	{
		add r2, r1, r3
		nop
	}
	{
		nop
		ldw r3, r2[0]
	}
	.loc	1 778 3
	{
		shl r3, r3, 1
		nop
	}
	.loc	1 778 3
	{
		add r1, r1, r10
		stw r3, r2[0]
	}
	{
		nop
		ldw r1, r1[0]
	}
.Ltmp374:
.LBB16_8:
	.loc	1 781 2
	ldw r2, cp[FLAC__STREAM_METADATA_APPLICATION_ID_LEN]
	.loc	1 781 2
	{
		shr r2, r2, 3
		nop
	}
	.loc	1 781 2
	mul r1, r2, r1
	.loc	1 781 2
	{
		add r0, r0, r1
		mov r1, r6
	}
	.loc	1 781 2
	bl memcpy
	{
		nop
		ldw r0, r4[1]
	}
	.loc	1 782 2
	{
		add r0, r0, r10
		nop
	}
	{
		nop
		ldw r1, r0[0]
	}
	.loc	1 782 2
	{
		add r1, r1, 1
		nop
	}
	{
		nop
		stw r1, r0[0]
	}
.Ltmp375:
.LBB16_9:
	{
		mov r5, r8
		nop
	}
	bu .LBB16_16
.LBB16_15:
.Ltmp376:
	.loc	1 775 4
	{
		ldc r1, 8
		ldw r0, r4[0]
	}
	{
		nop
		stw r1, r0[0]
	}
.Ltmp377:
.LBB16_16:
	.loc	1 785 1
	{
		mov r0, r5
		ldw r10, sp[8]
	}
	ldd r9, r8, sp[3]
	ldd r7, r6, sp[2]
	ldd r5, r4, sp[1]
	{
		nop
		retsp 10
	}
	# RETURN_REG_HOLDER
.Ltmp378:
	.cc_bottom FLAC__stream_decoder_set_metadata_ignore_application.function
	.set	FLAC__stream_decoder_set_metadata_ignore_application.nstackwords,((memcpy.nstackwords $M free.nstackwords $M realloc.nstackwords) + 10)
	.globl	FLAC__stream_decoder_set_metadata_ignore_application.nstackwords
	.set	FLAC__stream_decoder_set_metadata_ignore_application.maxcores,free.maxcores $M realloc.maxcores $M 1
	.globl	FLAC__stream_decoder_set_metadata_ignore_application.maxcores
	.set	FLAC__stream_decoder_set_metadata_ignore_application.maxtimers,free.maxtimers $M realloc.maxtimers $M 0
	.globl	FLAC__stream_decoder_set_metadata_ignore_application.maxtimers
	.set	FLAC__stream_decoder_set_metadata_ignore_application.maxchanends,free.maxchanends $M realloc.maxchanends $M 0
	.globl	FLAC__stream_decoder_set_metadata_ignore_application.maxchanends
.Ltmp379:
	.size	FLAC__stream_decoder_set_metadata_ignore_application, .Ltmp379-FLAC__stream_decoder_set_metadata_ignore_application
.Lfunc_end16:
	.cfi_endproc

	.globl	FLAC__stream_decoder_set_metadata_ignore_all
	.align	4
	.type	FLAC__stream_decoder_set_metadata_ignore_all,@function
	.cc_top FLAC__stream_decoder_set_metadata_ignore_all.function,FLAC__stream_decoder_set_metadata_ignore_all
FLAC__stream_decoder_set_metadata_ignore_all:
.Lfunc_begin17:
	.loc	1 788 0
	.cfi_startproc
	.issue_mode dual
	{
		nop
		dualentsp 4
	}
.Ltmp380:
	.cfi_def_cfa_offset 16
.Ltmp381:
	.cfi_offset 15, 0
	std r5, r4, sp[1]
.Ltmp382:
	.cfi_offset 4, -8
.Ltmp383:
	.cfi_offset 5, -4
	{
		mov r4, r0
		nop
	}
.Ltmp384:
	{
		nop
		ldw r0, r4[0]
	}
	{
		nop
		ldw r0, r0[0]
	}
	.loc	1 792 5 prologue_end
.Ltmp385:
	{
		eq r0, r0, 9
		nop
	}
	bf r0, .LBB17_1
.Ltmp386:
	{
		nop
		ldw r0, r4[1]
	}
	ldc r1, 600
	.loc	1 794 2
	{
		add r0, r0, r1
		ldc r5, 0
	}
	ldc r2, 512
	.loc	1 794 2
	{
		mov r1, r5
		nop
	}
	bl memset
	{
		nop
		ldw r0, r4[1]
	}
	ldc r1, 1116
	.loc	1 795 2
	{
		add r0, r0, r1
		nop
	}
	.loc	1 795 2
	{
		mkmsk r0, 1
		stw r5, r0[0]
	}
	bu .LBB17_3
.Ltmp387:
.LBB17_1:
	{
		ldc r0, 0
		nop
	}
.LBB17_3:
	.loc	1 797 1
	ldd r5, r4, sp[1]
	{
		nop
		retsp 4
	}
	# RETURN_REG_HOLDER
.Ltmp388:
	.cc_bottom FLAC__stream_decoder_set_metadata_ignore_all.function
	.set	FLAC__stream_decoder_set_metadata_ignore_all.nstackwords,(memset.nstackwords + 4)
	.globl	FLAC__stream_decoder_set_metadata_ignore_all.nstackwords
	.set	FLAC__stream_decoder_set_metadata_ignore_all.maxcores,1
	.globl	FLAC__stream_decoder_set_metadata_ignore_all.maxcores
	.set	FLAC__stream_decoder_set_metadata_ignore_all.maxtimers,0
	.globl	FLAC__stream_decoder_set_metadata_ignore_all.maxtimers
	.set	FLAC__stream_decoder_set_metadata_ignore_all.maxchanends,0
	.globl	FLAC__stream_decoder_set_metadata_ignore_all.maxchanends
.Ltmp389:
	.size	FLAC__stream_decoder_set_metadata_ignore_all, .Ltmp389-FLAC__stream_decoder_set_metadata_ignore_all
.Lfunc_end17:
	.cfi_endproc

	.globl	FLAC__stream_decoder_get_state
	.align	4
	.type	FLAC__stream_decoder_get_state,@function
	.cc_top FLAC__stream_decoder_get_state.function,FLAC__stream_decoder_get_state
FLAC__stream_decoder_get_state:
.Lfunc_begin18:
	.loc	1 800 0
	.cfi_startproc
	.issue_mode dual
	{
		nop
		dualentsp 0
	}
	{
		nop
		ldw r0, r0[0]
	}
.Ltmp390:
	{
		nop
		ldw r0, r0[0]
	}
	{
		nop
		retsp 0
	}
	.loc	1 803 2 prologue_end
.Ltmp391:
	# RETURN_REG_HOLDER
.Ltmp392:
	.cc_bottom FLAC__stream_decoder_get_state.function
	.set	FLAC__stream_decoder_get_state.nstackwords,0
	.globl	FLAC__stream_decoder_get_state.nstackwords
	.set	FLAC__stream_decoder_get_state.maxcores,1
	.globl	FLAC__stream_decoder_get_state.maxcores
	.set	FLAC__stream_decoder_get_state.maxtimers,0
	.globl	FLAC__stream_decoder_get_state.maxtimers
	.set	FLAC__stream_decoder_get_state.maxchanends,0
	.globl	FLAC__stream_decoder_get_state.maxchanends
.Ltmp393:
	.size	FLAC__stream_decoder_get_state, .Ltmp393-FLAC__stream_decoder_get_state
.Lfunc_end18:
	.cfi_endproc

	.globl	FLAC__stream_decoder_get_resolved_state_string
	.align	4
	.type	FLAC__stream_decoder_get_resolved_state_string,@function
	.cc_top FLAC__stream_decoder_get_resolved_state_string.function,FLAC__stream_decoder_get_resolved_state_string
FLAC__stream_decoder_get_resolved_state_string:
.Lfunc_begin19:
	.loc	1 807 0
	.cfi_startproc
	.issue_mode dual
	{
		nop
		dualentsp 0
	}
	{
		nop
		ldw r0, r0[0]
	}
.Ltmp394:
	{
		nop
		ldw r0, r0[0]
	}
	.loc	1 808 2 prologue_end
.Ltmp395:
	ldaw r11, cp[FLAC__StreamDecoderStateString]
	{
		nop
		ldw r0, r11[r0]
	}
	{
		nop
		retsp 0
	}
	.loc	1 808 2
	# RETURN_REG_HOLDER
.Ltmp396:
	.cc_bottom FLAC__stream_decoder_get_resolved_state_string.function
	.set	FLAC__stream_decoder_get_resolved_state_string.nstackwords,0
	.globl	FLAC__stream_decoder_get_resolved_state_string.nstackwords
	.set	FLAC__stream_decoder_get_resolved_state_string.maxcores,1
	.globl	FLAC__stream_decoder_get_resolved_state_string.maxcores
	.set	FLAC__stream_decoder_get_resolved_state_string.maxtimers,0
	.globl	FLAC__stream_decoder_get_resolved_state_string.maxtimers
	.set	FLAC__stream_decoder_get_resolved_state_string.maxchanends,0
	.globl	FLAC__stream_decoder_get_resolved_state_string.maxchanends
.Ltmp397:
	.size	FLAC__stream_decoder_get_resolved_state_string, .Ltmp397-FLAC__stream_decoder_get_resolved_state_string
.Lfunc_end19:
	.cfi_endproc

	.globl	FLAC__stream_decoder_get_md5_checking
	.align	4
	.type	FLAC__stream_decoder_get_md5_checking,@function
	.cc_top FLAC__stream_decoder_get_md5_checking.function,FLAC__stream_decoder_get_md5_checking
FLAC__stream_decoder_get_md5_checking:
.Lfunc_begin20:
	.loc	1 812 0
	.cfi_startproc
	.issue_mode dual
	{
		nop
		dualentsp 0
	}
	{
		nop
		ldw r0, r0[0]
	}
.Ltmp398:
	{
		nop
		ldw r0, r0[7]
	}
	{
		nop
		retsp 0
	}
	.loc	1 815 2 prologue_end
.Ltmp399:
	# RETURN_REG_HOLDER
.Ltmp400:
	.cc_bottom FLAC__stream_decoder_get_md5_checking.function
	.set	FLAC__stream_decoder_get_md5_checking.nstackwords,0
	.globl	FLAC__stream_decoder_get_md5_checking.nstackwords
	.set	FLAC__stream_decoder_get_md5_checking.maxcores,1
	.globl	FLAC__stream_decoder_get_md5_checking.maxcores
	.set	FLAC__stream_decoder_get_md5_checking.maxtimers,0
	.globl	FLAC__stream_decoder_get_md5_checking.maxtimers
	.set	FLAC__stream_decoder_get_md5_checking.maxchanends,0
	.globl	FLAC__stream_decoder_get_md5_checking.maxchanends
.Ltmp401:
	.size	FLAC__stream_decoder_get_md5_checking, .Ltmp401-FLAC__stream_decoder_get_md5_checking
.Lfunc_end20:
	.cfi_endproc

	.globl	FLAC__stream_decoder_get_total_samples
	.align	4
	.type	FLAC__stream_decoder_get_total_samples,@function
	.cc_top FLAC__stream_decoder_get_total_samples.function,FLAC__stream_decoder_get_total_samples
FLAC__stream_decoder_get_total_samples:
.Lfunc_begin21:
	.loc	1 819 0
	.cfi_startproc
	.issue_mode dual
	{
		nop
		dualentsp 0
	}
	{
		nop
		ldw r2, r0[1]
	}
	ldc r0, 240
.Ltmp402:
	.loc	1 822 2 prologue_end
	{
		add r0, r2, r0
		nop
	}
	.loc	1 822 2
	{
		ldc r0, 0
		ldw r3, r0[0]
	}
	.loc	1 822 2
	{
		mov r1, r0
		nop
	}
	bf r3, .LBB21_2
	ldc r0, 296
	.loc	1 822 2
	{
		add r0, r2, r0
		nop
	}
	.loc	1 822 2
	ldd r1, r0, r0[0]
.LBB21_2:
	{
		nop
		retsp 0
	}
	.loc	1 822 2
	# RETURN_REG_HOLDER
.Ltmp403:
	.cc_bottom FLAC__stream_decoder_get_total_samples.function
	.set	FLAC__stream_decoder_get_total_samples.nstackwords,0
	.globl	FLAC__stream_decoder_get_total_samples.nstackwords
	.set	FLAC__stream_decoder_get_total_samples.maxcores,1
	.globl	FLAC__stream_decoder_get_total_samples.maxcores
	.set	FLAC__stream_decoder_get_total_samples.maxtimers,0
	.globl	FLAC__stream_decoder_get_total_samples.maxtimers
	.set	FLAC__stream_decoder_get_total_samples.maxchanends,0
	.globl	FLAC__stream_decoder_get_total_samples.maxchanends
.Ltmp404:
	.size	FLAC__stream_decoder_get_total_samples, .Ltmp404-FLAC__stream_decoder_get_total_samples
.Lfunc_end21:
	.cfi_endproc

	.globl	FLAC__stream_decoder_get_channels
	.align	4
	.type	FLAC__stream_decoder_get_channels,@function
	.cc_top FLAC__stream_decoder_get_channels.function,FLAC__stream_decoder_get_channels
FLAC__stream_decoder_get_channels:
.Lfunc_begin22:
	.loc	1 826 0
	.cfi_startproc
	.issue_mode dual
	{
		nop
		dualentsp 0
	}
	{
		nop
		ldw r0, r0[0]
	}
.Ltmp405:
	{
		nop
		ldw r0, r0[2]
	}
	{
		nop
		retsp 0
	}
	.loc	1 829 2 prologue_end
.Ltmp406:
	# RETURN_REG_HOLDER
.Ltmp407:
	.cc_bottom FLAC__stream_decoder_get_channels.function
	.set	FLAC__stream_decoder_get_channels.nstackwords,0
	.globl	FLAC__stream_decoder_get_channels.nstackwords
	.set	FLAC__stream_decoder_get_channels.maxcores,1
	.globl	FLAC__stream_decoder_get_channels.maxcores
	.set	FLAC__stream_decoder_get_channels.maxtimers,0
	.globl	FLAC__stream_decoder_get_channels.maxtimers
	.set	FLAC__stream_decoder_get_channels.maxchanends,0
	.globl	FLAC__stream_decoder_get_channels.maxchanends
.Ltmp408:
	.size	FLAC__stream_decoder_get_channels, .Ltmp408-FLAC__stream_decoder_get_channels
.Lfunc_end22:
	.cfi_endproc

	.globl	FLAC__stream_decoder_get_channel_assignment
	.align	4
	.type	FLAC__stream_decoder_get_channel_assignment,@function
	.cc_top FLAC__stream_decoder_get_channel_assignment.function,FLAC__stream_decoder_get_channel_assignment
FLAC__stream_decoder_get_channel_assignment:
.Lfunc_begin23:
	.loc	1 833 0
	.cfi_startproc
	.issue_mode dual
	{
		nop
		dualentsp 0
	}
	{
		nop
		ldw r0, r0[0]
	}
.Ltmp409:
	{
		nop
		ldw r0, r0[3]
	}
	{
		nop
		retsp 0
	}
	.loc	1 836 2 prologue_end
.Ltmp410:
	# RETURN_REG_HOLDER
.Ltmp411:
	.cc_bottom FLAC__stream_decoder_get_channel_assignment.function
	.set	FLAC__stream_decoder_get_channel_assignment.nstackwords,0
	.globl	FLAC__stream_decoder_get_channel_assignment.nstackwords
	.set	FLAC__stream_decoder_get_channel_assignment.maxcores,1
	.globl	FLAC__stream_decoder_get_channel_assignment.maxcores
	.set	FLAC__stream_decoder_get_channel_assignment.maxtimers,0
	.globl	FLAC__stream_decoder_get_channel_assignment.maxtimers
	.set	FLAC__stream_decoder_get_channel_assignment.maxchanends,0
	.globl	FLAC__stream_decoder_get_channel_assignment.maxchanends
.Ltmp412:
	.size	FLAC__stream_decoder_get_channel_assignment, .Ltmp412-FLAC__stream_decoder_get_channel_assignment
.Lfunc_end23:
	.cfi_endproc

	.globl	FLAC__stream_decoder_get_bits_per_sample
	.align	4
	.type	FLAC__stream_decoder_get_bits_per_sample,@function
	.cc_top FLAC__stream_decoder_get_bits_per_sample.function,FLAC__stream_decoder_get_bits_per_sample
FLAC__stream_decoder_get_bits_per_sample:
.Lfunc_begin24:
	.loc	1 840 0
	.cfi_startproc
	.issue_mode dual
	{
		nop
		dualentsp 0
	}
	{
		nop
		ldw r0, r0[0]
	}
.Ltmp413:
	{
		nop
		ldw r0, r0[4]
	}
	{
		nop
		retsp 0
	}
	.loc	1 843 2 prologue_end
.Ltmp414:
	# RETURN_REG_HOLDER
.Ltmp415:
	.cc_bottom FLAC__stream_decoder_get_bits_per_sample.function
	.set	FLAC__stream_decoder_get_bits_per_sample.nstackwords,0
	.globl	FLAC__stream_decoder_get_bits_per_sample.nstackwords
	.set	FLAC__stream_decoder_get_bits_per_sample.maxcores,1
	.globl	FLAC__stream_decoder_get_bits_per_sample.maxcores
	.set	FLAC__stream_decoder_get_bits_per_sample.maxtimers,0
	.globl	FLAC__stream_decoder_get_bits_per_sample.maxtimers
	.set	FLAC__stream_decoder_get_bits_per_sample.maxchanends,0
	.globl	FLAC__stream_decoder_get_bits_per_sample.maxchanends
.Ltmp416:
	.size	FLAC__stream_decoder_get_bits_per_sample, .Ltmp416-FLAC__stream_decoder_get_bits_per_sample
.Lfunc_end24:
	.cfi_endproc

	.globl	FLAC__stream_decoder_get_sample_rate
	.align	4
	.type	FLAC__stream_decoder_get_sample_rate,@function
	.cc_top FLAC__stream_decoder_get_sample_rate.function,FLAC__stream_decoder_get_sample_rate
FLAC__stream_decoder_get_sample_rate:
.Lfunc_begin25:
	.loc	1 847 0
	.cfi_startproc
	.issue_mode dual
	{
		nop
		dualentsp 0
	}
	{
		nop
		ldw r0, r0[0]
	}
.Ltmp417:
	{
		nop
		ldw r0, r0[5]
	}
	{
		nop
		retsp 0
	}
	.loc	1 850 2 prologue_end
.Ltmp418:
	# RETURN_REG_HOLDER
.Ltmp419:
	.cc_bottom FLAC__stream_decoder_get_sample_rate.function
	.set	FLAC__stream_decoder_get_sample_rate.nstackwords,0
	.globl	FLAC__stream_decoder_get_sample_rate.nstackwords
	.set	FLAC__stream_decoder_get_sample_rate.maxcores,1
	.globl	FLAC__stream_decoder_get_sample_rate.maxcores
	.set	FLAC__stream_decoder_get_sample_rate.maxtimers,0
	.globl	FLAC__stream_decoder_get_sample_rate.maxtimers
	.set	FLAC__stream_decoder_get_sample_rate.maxchanends,0
	.globl	FLAC__stream_decoder_get_sample_rate.maxchanends
.Ltmp420:
	.size	FLAC__stream_decoder_get_sample_rate, .Ltmp420-FLAC__stream_decoder_get_sample_rate
.Lfunc_end25:
	.cfi_endproc

	.globl	FLAC__stream_decoder_get_blocksize
	.align	4
	.type	FLAC__stream_decoder_get_blocksize,@function
	.cc_top FLAC__stream_decoder_get_blocksize.function,FLAC__stream_decoder_get_blocksize
FLAC__stream_decoder_get_blocksize:
.Lfunc_begin26:
	.loc	1 854 0
	.cfi_startproc
	.issue_mode dual
	{
		nop
		dualentsp 0
	}
	{
		nop
		ldw r0, r0[0]
	}
.Ltmp421:
	{
		nop
		ldw r0, r0[6]
	}
	{
		nop
		retsp 0
	}
	.loc	1 857 2 prologue_end
.Ltmp422:
	# RETURN_REG_HOLDER
.Ltmp423:
	.cc_bottom FLAC__stream_decoder_get_blocksize.function
	.set	FLAC__stream_decoder_get_blocksize.nstackwords,0
	.globl	FLAC__stream_decoder_get_blocksize.nstackwords
	.set	FLAC__stream_decoder_get_blocksize.maxcores,1
	.globl	FLAC__stream_decoder_get_blocksize.maxcores
	.set	FLAC__stream_decoder_get_blocksize.maxtimers,0
	.globl	FLAC__stream_decoder_get_blocksize.maxtimers
	.set	FLAC__stream_decoder_get_blocksize.maxchanends,0
	.globl	FLAC__stream_decoder_get_blocksize.maxchanends
.Ltmp424:
	.size	FLAC__stream_decoder_get_blocksize, .Ltmp424-FLAC__stream_decoder_get_blocksize
.Lfunc_end26:
	.cfi_endproc

	.globl	FLAC__stream_decoder_get_decode_position
	.align	4
	.type	FLAC__stream_decoder_get_decode_position,@function
	.cc_top FLAC__stream_decoder_get_decode_position.function,FLAC__stream_decoder_get_decode_position
FLAC__stream_decoder_get_decode_position:
.Lfunc_begin27:
	.loc	1 861 0
	.cfi_startproc
	.issue_mode dual
	{
		nop
		dualentsp 6
	}
.Ltmp425:
	.cfi_def_cfa_offset 24
.Ltmp426:
	.cfi_offset 15, 0
	std r5, r4, sp[1]
.Ltmp427:
	.cfi_offset 4, -16
.Ltmp428:
	.cfi_offset 5, -12
.Ltmp429:
	.cfi_offset 6, -8
.Ltmp430:
	{
		mov r4, r1
		stw r6, sp[4]
	}
.Ltmp431:
	{
		mov r6, r0
		nop
	}
.Ltmp432:
	{
		nop
		ldw r0, r6[1]
	}
	.loc	1 869 5 prologue_end
.Ltmp433:
	{
		ldc r5, 0
		ldw r3, r0[3]
	}
	bf r3, .LBB27_4
.Ltmp434:
	.loc	1 871 5
	{
		mov r0, r6
		ldw r2, r0[9]
	}
	.loc	1 871 5
	{
		mov r1, r4
		nop
	}
	{
		nop
		bla r3
	}
	bt r0, .LBB27_4
.Ltmp435:
	{
		nop
		ldw r0, r6[1]
	}
	{
		nop
		ldw r0, r0[11]
	}
	.loc	1 874 6
.Ltmp436:
	bl FLAC__bitreader_is_consumed_byte_aligned
	bf r0, .LBB27_4
.Ltmp437:
	{
		nop
		ldw r0, r6[1]
	}
	{
		nop
		ldw r0, r0[11]
	}
	.loc	1 1185 9
.Ltmp438:
	bl FLAC__bitreader_get_input_bits_unconsumed
	.loc	1 1185 9
	{
		shr r0, r0, 3
		nop
	}
.Ltmp439:
	.loc	1 877 15
	ldd r2, r1, r4[0]
	{
		ldc r3, 0
		nop
	}
	.loc	1 877 15
	lsub r1, r0, r1, r0, r3
	{
		sub r1, r2, r1
		nop
	}
	.loc	1 877 15
	std r1, r0, r4[0]
	{
		mkmsk r5, 1
		nop
	}
.Ltmp440:
.LBB27_4:
	.loc	1 879 1
	{
		mov r0, r5
		ldw r6, sp[4]
	}
	ldd r5, r4, sp[1]
	{
		nop
		retsp 6
	}
	# RETURN_REG_HOLDER
.Ltmp441:
	.cc_bottom FLAC__stream_decoder_get_decode_position.function

	.globl	FLAC__stream_decoder_get_decode_position.maxcores

	.globl	FLAC__stream_decoder_get_decode_position.maxtimers

	.globl	FLAC__stream_decoder_get_decode_position.maxchanends
.Ltmp442:
	.size	FLAC__stream_decoder_get_decode_position, .Ltmp442-FLAC__stream_decoder_get_decode_position
.Lfunc_end27:
	.cfi_endproc

	.globl	FLAC__stream_decoder_get_input_bytes_unconsumed
	.align	4
	.type	FLAC__stream_decoder_get_input_bytes_unconsumed,@function
	.cc_top FLAC__stream_decoder_get_input_bytes_unconsumed.function,FLAC__stream_decoder_get_input_bytes_unconsumed
FLAC__stream_decoder_get_input_bytes_unconsumed:
.Lfunc_begin28:
	.loc	1 1181 0
	.cfi_startproc
	.issue_mode dual
	{
		nop
		dualentsp 2
	}
.Ltmp443:
	.cfi_def_cfa_offset 8
.Ltmp444:
	.cfi_offset 15, 0
	{
		nop
		ldw r0, r0[1]
	}
.Ltmp445:
	{
		nop
		ldw r0, r0[11]
	}
	.loc	1 1185 9 prologue_end
.Ltmp446:
	bl FLAC__bitreader_get_input_bits_unconsumed
	.loc	1 1185 9
	{
		shr r0, r0, 3
		retsp 2
	}
	.loc	1 1185 9
	# RETURN_REG_HOLDER
.Ltmp447:
	.cc_bottom FLAC__stream_decoder_get_input_bytes_unconsumed.function
	.set	FLAC__stream_decoder_get_input_bytes_unconsumed.nstackwords,(FLAC__bitreader_get_input_bits_unconsumed.nstackwords + 2)
	.globl	FLAC__stream_decoder_get_input_bytes_unconsumed.nstackwords
	.set	FLAC__stream_decoder_get_input_bytes_unconsumed.maxcores,FLAC__bitreader_get_input_bits_unconsumed.maxcores $M 1
	.globl	FLAC__stream_decoder_get_input_bytes_unconsumed.maxcores
	.set	FLAC__stream_decoder_get_input_bytes_unconsumed.maxtimers,FLAC__bitreader_get_input_bits_unconsumed.maxtimers $M 0
	.globl	FLAC__stream_decoder_get_input_bytes_unconsumed.maxtimers
	.set	FLAC__stream_decoder_get_input_bytes_unconsumed.maxchanends,FLAC__bitreader_get_input_bits_unconsumed.maxchanends $M 0
	.globl	FLAC__stream_decoder_get_input_bytes_unconsumed.maxchanends
.Ltmp448:
	.size	FLAC__stream_decoder_get_input_bytes_unconsumed, .Ltmp448-FLAC__stream_decoder_get_input_bytes_unconsumed
.Lfunc_end28:
	.cfi_endproc

	.globl	FLAC__stream_decoder_get_client_data
	.align	4
	.type	FLAC__stream_decoder_get_client_data,@function
	.cc_top FLAC__stream_decoder_get_client_data.function,FLAC__stream_decoder_get_client_data
FLAC__stream_decoder_get_client_data:
.Lfunc_begin29:
	.loc	1 882 0
	.cfi_startproc
	.issue_mode dual
	{
		nop
		dualentsp 0
	}
	{
		nop
		ldw r0, r0[1]
	}
.Ltmp449:
	{
		nop
		ldw r0, r0[9]
	}
	{
		nop
		retsp 0
	}
	.loc	1 883 2 prologue_end
.Ltmp450:
	# RETURN_REG_HOLDER
.Ltmp451:
	.cc_bottom FLAC__stream_decoder_get_client_data.function
	.set	FLAC__stream_decoder_get_client_data.nstackwords,0
	.globl	FLAC__stream_decoder_get_client_data.nstackwords
	.set	FLAC__stream_decoder_get_client_data.maxcores,1
	.globl	FLAC__stream_decoder_get_client_data.maxcores
	.set	FLAC__stream_decoder_get_client_data.maxtimers,0
	.globl	FLAC__stream_decoder_get_client_data.maxtimers
	.set	FLAC__stream_decoder_get_client_data.maxchanends,0
	.globl	FLAC__stream_decoder_get_client_data.maxchanends
.Ltmp452:
	.size	FLAC__stream_decoder_get_client_data, .Ltmp452-FLAC__stream_decoder_get_client_data
.Lfunc_end29:
	.cfi_endproc

	.globl	FLAC__stream_decoder_flush
	.align	4
	.type	FLAC__stream_decoder_flush,@function
	.cc_top FLAC__stream_decoder_flush.function,FLAC__stream_decoder_flush
FLAC__stream_decoder_flush:
.Lfunc_begin30:
	.loc	1 887 0
	.cfi_startproc
	.issue_mode dual
	{
		nop
		dualentsp 4
	}
.Ltmp453:
	.cfi_def_cfa_offset 16
.Ltmp454:
	.cfi_offset 15, 0
	std r5, r4, sp[1]
.Ltmp455:
	.cfi_offset 4, -8
.Ltmp456:
	.cfi_offset 5, -4
	{
		mov r4, r0
		nop
	}
.Ltmp457:
	{
		nop
		ldw r0, r4[1]
	}
	ldc r1, 4676
	.loc	1 892 5 prologue_end
.Ltmp458:
	{
		add r1, r0, r1
		nop
	}
	{
		nop
		ldw r1, r1[0]
	}
	bt r1, .LBB30_3
.Ltmp459:
	{
		nop
		ldw r1, r4[0]
	}
	{
		nop
		ldw r1, r1[0]
	}
	.loc	1 892 5
	{
		eq r1, r1, 9
		nop
	}
	bf r1, .LBB30_3
.Ltmp460:
	{
		ldc r5, 0
		nop
	}
	bu .LBB30_6
.LBB30_3:
.Ltmp461:
	ldc r1, 232
	.loc	1 895 2
	{
		add r1, r0, r1
		ldc r5, 0
	}
	.loc	1 895 2
	std r5, r5, r1[0]
	ldc r1, 4672
	.loc	1 896 2
	{
		add r1, r0, r1
		nop
	}
	{
		nop
		stw r5, r1[0]
	}
	ldc r1, 8320
	.loc	1 897 2
	{
		add r1, r0, r1
		nop
	}
	.loc	1 897 2
	std r5, r5, r1[0]
	ldc r1, 8304
	.loc	1 898 2
	{
		add r1, r0, r1
		nop
	}
	{
		nop
		stw r5, r1[0]
	}
	{
		nop
		ldw r0, r0[11]
	}
	.loc	1 905 6
.Ltmp462:
	bl FLAC__bitreader_clear
	{
		nop
		ldw r1, r4[0]
	}
	.loc	1 905 6
	bf r0, .LBB30_4
.Ltmp463:
	{
		ldc r0, 2
		nop
	}
	.loc	1 909 2
	{
		mkmsk r5, 1
		stw r0, r1[0]
	}
	bu .LBB30_6
.LBB30_4:
	{
		ldc r0, 8
		nop
	}
	{
		nop
		stw r0, r1[0]
	}
.LBB30_6:
	.loc	1 912 1
	{
		mov r0, r5
		nop
	}
	ldd r5, r4, sp[1]
	{
		nop
		retsp 4
	}
	# RETURN_REG_HOLDER
.Ltmp464:
	.cc_bottom FLAC__stream_decoder_flush.function
	.set	FLAC__stream_decoder_flush.nstackwords,(FLAC__bitreader_clear.nstackwords + 4)
	.globl	FLAC__stream_decoder_flush.nstackwords
	.set	FLAC__stream_decoder_flush.maxcores,FLAC__bitreader_clear.maxcores $M 1
	.globl	FLAC__stream_decoder_flush.maxcores
	.set	FLAC__stream_decoder_flush.maxtimers,FLAC__bitreader_clear.maxtimers $M 0
	.globl	FLAC__stream_decoder_flush.maxtimers
	.set	FLAC__stream_decoder_flush.maxchanends,FLAC__bitreader_clear.maxchanends $M 0
	.globl	FLAC__stream_decoder_flush.maxchanends
.Ltmp465:
	.size	FLAC__stream_decoder_flush, .Ltmp465-FLAC__stream_decoder_flush
.Lfunc_end30:
	.cfi_endproc

	.globl	FLAC__stream_decoder_reset
	.align	4
	.type	FLAC__stream_decoder_reset,@function
	.cc_top FLAC__stream_decoder_reset.function,FLAC__stream_decoder_reset
FLAC__stream_decoder_reset:
.Lfunc_begin31:
	.loc	1 916 0
	.cfi_startproc
	.issue_mode dual
	{
		nop
		dualentsp 10
	}
.Ltmp466:
	.cfi_def_cfa_offset 40
.Ltmp467:
	.cfi_offset 15, 0
	std r5, r4, sp[1]
.Ltmp468:
	.cfi_offset 4, -32
.Ltmp469:
	.cfi_offset 5, -28
	std r7, r6, sp[2]
.Ltmp470:
	.cfi_offset 6, -24
.Ltmp471:
	.cfi_offset 7, -20
	std r9, r8, sp[3]
.Ltmp472:
	.cfi_offset 8, -16
.Ltmp473:
	.cfi_offset 9, -12
.Ltmp474:
	.cfi_offset 10, -8
.Ltmp475:
	{
		mov r4, r0
		stw r10, sp[8]
	}
.Ltmp476:
	{
		nop
		ldw r0, r4[1]
	}
	ldc r9, 4676
	.loc	1 892 5 prologue_end
.Ltmp477:
	{
		add r1, r0, r9
		nop
	}
	{
		nop
		ldw r1, r1[0]
	}
	bt r1, .LBB31_3
.Ltmp478:
	{
		nop
		ldw r1, r4[0]
	}
	{
		nop
		ldw r1, r1[0]
	}
	.loc	1 892 5
	{
		eq r1, r1, 9
		nop
	}
	bf r1, .LBB31_3
.Ltmp479:
	{
		ldc r5, 0
		nop
	}
	bu .LBB31_16
.LBB31_3:
.Ltmp480:
	ldc r1, 232
	.loc	1 895 2
	{
		add r1, r0, r1
		ldc r6, 0
	}
	.loc	1 895 2
	std r6, r6, r1[0]
	ldc r10, 4672
	.loc	1 896 2
	{
		add r1, r0, r10
		nop
	}
	{
		nop
		stw r6, r1[0]
	}
	ldc r7, 8320
	.loc	1 897 2
	{
		add r1, r0, r7
		nop
	}
	.loc	1 897 2
	std r6, r6, r1[0]
	ldc r8, 8304
	.loc	1 898 2
	{
		add r1, r0, r8
		nop
	}
	{
		nop
		stw r6, r1[0]
	}
	{
		nop
		ldw r0, r0[11]
	}
	.loc	1 905 6
.Ltmp481:
	bl FLAC__bitreader_clear
	{
		nop
		ldw r1, r4[0]
	}
	.loc	1 905 6
	bf r0, .LBB31_4
.Ltmp482:
	{
		ldc r0, 2
		nop
	}
	{
		nop
		stw r0, r1[0]
	}
	{
		nop
		ldw r0, r4[1]
	}
	.loc	1 937 5
.Ltmp483:
	{
		add r1, r0, r9
		nop
	}
	{
		nop
		ldw r1, r1[0]
	}
	bt r1, .LBB31_12
.Ltmp484:
	{
		nop
		ldw r5, r0[10]
	}
	.loc	1 938 33
.Ltmp485:
	bl __getstdin
	.loc	1 938 33
	{
		eq r0, r5, r0
		nop
	}
	.loc	1 938 33
	bt r0, .LBB31_7
.Ltmp486:
	{
		nop
		ldw r0, r4[1]
	}
	{
		nop
		ldw r7, r0[2]
	}
	bf r7, .LBB31_11
.Ltmp487:
	.loc	1 940 42
	{
		ldc r5, 0
		ldw r3, r0[9]
	}
	.loc	1 940 42
	{
		mov r0, r4
		mov r1, r5
	}
	{
		mov r2, r5
		nop
	}
	{
		nop
		bla r7
	}
	.loc	1 940 42
	{
		eq r0, r0, 1
		nop
	}
	bt r0, .LBB31_16
.Ltmp488:
	{
		nop
		ldw r0, r4[1]
	}
.Ltmp489:
.LBB31_11:
	ldc r7, 8320
.LBB31_12:
.Ltmp490:
	{
		nop
		ldw r1, r4[0]
	}
	{
		nop
		stw r6, r1[0]
	}
	ldc r1, 240
	.loc	1 946 2
	{
		add r1, r0, r1
		nop
	}
	{
		nop
		stw r6, r1[0]
	}
	ldc r5, 444
	.loc	1 948 2
	{
		add r0, r0, r5
		nop
	}
	{
		nop
		ldw r0, r0[0]
	}
	.loc	1 948 2
	bl free
	{
		nop
		ldw r1, r4[1]
	}
	.loc	1 949 2
	{
		add r0, r1, r5
		nop
	}
	{
		nop
		stw r6, r0[0]
	}
	ldc r0, 244
	.loc	1 950 2
	{
		add r0, r1, r0
		nop
	}
	{
		nop
		stw r6, r0[0]
	}
	{
		nop
		ldw r0, r4[0]
	}
	.loc	1 952 2
	{
		add r2, r1, r10
		ldw r0, r0[7]
	}
	{
		nop
		stw r0, r2[0]
	}
	ldc r0, 228
	.loc	1 957 2
	{
		add r0, r1, r0
		nop
	}
	{
		nop
		stw r6, r0[0]
	}
	ldc r0, 224
	.loc	1 957 2
	{
		add r0, r1, r0
		nop
	}
	.loc	1 957 2
	{
		add r0, r1, r9
		stw r6, r0[0]
	}
	{
		nop
		ldw r2, r0[0]
	}
	.loc	1 965 5
.Ltmp491:
	bf r2, .LBB31_13
.Ltmp492:
	{
		nop
		stw r6, r0[0]
	}
	bu .LBB31_15
.Ltmp493:
.LBB31_4:
	{
		ldc r0, 8
		nop
	}
	.loc	1 906 3
.Ltmp494:
	{
		mov r5, r6
		stw r0, r1[0]
	}
	bu .LBB31_16
.Ltmp495:
.LBB31_13:
	ldc r0, 4780
	.loc	1 968 3
.Ltmp496:
	{
		add r0, r1, r0
		nop
	}
	ldc r2, 4684
	.loc	1 968 3
	{
		add r1, r1, r2
		nop
	}
	.loc	1 968 3
	bl FLAC__MD5Final
	{
		nop
		ldw r1, r4[1]
	}
.Ltmp497:
.LBB31_15:
	ldc r0, 4684
	.loc	1 972 2
	{
		add r0, r1, r0
		nop
	}
	.loc	1 972 2
	bl FLAC__MD5Init
	{
		nop
		ldw r0, r4[1]
	}
	ldc r1, 8312
	.loc	1 974 2
	{
		add r1, r0, r1
		nop
	}
	ldc r2, 8336
	.loc	1 975 2
	{
		add r2, r0, r2
		nop
	}
	.loc	1 975 2
	{
		add r2, r0, r8
		stw r6, r2[0]
	}
	{
		nop
		stw r6, r2[0]
	}
	ldc r2, 8324
	.loc	1 976 2
	{
		add r2, r0, r2
		nop
	}
	{
		add r2, r0, r7
		stw r6, r2[0]
	}
	{
		nop
		stw r6, r2[0]
	}
	ldc r2, 8316
	{
		add r0, r0, r2
		nop
	}
	{
		nop
		stw r6, r0[0]
	}
	{
		mkmsk r5, 1
		stw r6, r1[0]
	}
.Ltmp498:
.LBB31_16:
	.loc	1 980 1
	{
		mov r0, r5
		ldw r10, sp[8]
	}
	ldd r9, r8, sp[3]
	ldd r7, r6, sp[2]
	ldd r5, r4, sp[1]
	{
		nop
		retsp 10
	}
	# RETURN_REG_HOLDER
.Ltmp499:
.LBB31_7:
	{
		mov r5, r6
		nop
	}
	bu .LBB31_16
	.cc_bottom FLAC__stream_decoder_reset.function
	.set	FLAC__stream_decoder_reset.nstackwords.pragma,200
	.globl	FLAC__stream_decoder_reset.nstackwords.pragma
	.set	FLAC__stream_decoder_reset.nstackwords,FLAC__stream_decoder_reset.nstackwords
	.globl	FLAC__stream_decoder_reset.nstackwords

	.globl	FLAC__stream_decoder_reset.maxcores

	.globl	FLAC__stream_decoder_reset.maxtimers

	.globl	FLAC__stream_decoder_reset.maxchanends
.Ltmp500:
	.size	FLAC__stream_decoder_reset, .Ltmp500-FLAC__stream_decoder_reset
.Lfunc_end31:
	.cfi_endproc

	.globl	FLAC__stream_decoder_process_single
	.align	4
	.type	FLAC__stream_decoder_process_single,@function
	.cc_top FLAC__stream_decoder_process_single.function,FLAC__stream_decoder_process_single
FLAC__stream_decoder_process_single:
.Lfunc_begin32:
	.loc	1 983 0
	.cfi_startproc
	.issue_mode dual
	{
		nop
		dualentsp 8
	}
.Ltmp501:
	.cfi_def_cfa_offset 32
.Ltmp502:
	.cfi_offset 15, 0
	std r5, r4, sp[1]
.Ltmp503:
	.cfi_offset 4, -24
.Ltmp504:
	.cfi_offset 5, -20
	std r7, r6, sp[2]
.Ltmp505:
	.cfi_offset 6, -16
.Ltmp506:
	.cfi_offset 7, -12
.Ltmp507:
	.cfi_offset 8, -8
.Ltmp508:
	{
		mov r6, r0
		stw r8, sp[6]
	}
.Ltmp509:
	{
		mkmsk r4, 1
		ldc r5, 0
	}
	{
		mkmsk r8, 3
		ldaw r7, sp[1]
	}
.LBB32_1:
.Ltmp510:
	{
		nop
		ldw r0, r6[0]
	}
	{
		nop
		ldw r0, r0[0]
	}
	.loc	1 989 3 prologue_end
.Ltmp511:
	{
		lsu r1, r8, r0
		nop
	}
	bt r1, .LBB32_11
.Ltmp512:

	.xtabranch .Ljumptable0+4,.Ljumptable0+8,.Ljumptable0+12,.Ljumptable0+16,.Ljumptable0+20,.Ljumptable0+24,.Ljumptable0+28,.Ljumptable0+32
.Ljumptable0:
		
	{
		nop
		bru r0
	}
	.jmptable32 .LBB32_3,.LBB32_5,.LBB32_6,.LBB32_7,.LBB32_10,.LBB32_11,.LBB32_11,.LBB32_10
.Ltmp513:
.LBB32_3:
	.loc	1 991 9
	{
		mov r0, r6
		nop
	}
	bl find_metadata_
	bt r0, .LBB32_1
	bu .LBB32_4
.Ltmp514:
.LBB32_6:
	.loc	1 1000 9
	{
		mov r0, r6
		nop
	}
	bl frame_sync_
	bt r0, .LBB32_1
	bu .LBB32_10
.Ltmp515:
.LBB32_7:
	.loc	1 1004 9
	{
		mov r0, r6
		mov r1, r7
	}
	{
		mov r2, r4
		nop
	}
	bl read_frame_
	.loc	1 1004 9
	bf r0, .LBB32_8
.Ltmp516:
	{
		nop
		ldw r0, sp[1]
	}
	bf r0, .LBB32_1
	bu .LBB32_10
.Ltmp517:
.LBB32_4:
	{
		mov r4, r5
		nop
	}
	bu .LBB32_10
.LBB32_8:
	{
		mov r4, r5
		nop
	}
.LBB32_10:
	{
		mov r5, r4
		nop
	}
.LBB32_11:
	.loc	1 1016 1
	{
		mov r0, r5
		ldw r8, sp[6]
	}
	ldd r7, r6, sp[2]
	ldd r5, r4, sp[1]
	{
		nop
		retsp 8
	}
	# RETURN_REG_HOLDER
.LBB32_5:
.Ltmp518:
	.loc	1 995 9
	{
		mov r0, r6
		nop
	}
	bl read_metadata_
	.loc	1 996 6
	{
		eq r0, r0, 0
		nop
	}
	{
		eq r5, r0, 0
		nop
	}
	bu .LBB32_11
.Ltmp519:
	.cc_bottom FLAC__stream_decoder_process_single.function
	.set	FLAC__stream_decoder_process_single.nstackwords,((find_metadata_.nstackwords $M read_metadata_.nstackwords $M frame_sync_.nstackwords $M read_frame_.nstackwords) + 8)
	.globl	FLAC__stream_decoder_process_single.nstackwords
	.set	FLAC__stream_decoder_process_single.maxcores,find_metadata_.maxcores $M frame_sync_.maxcores $M read_frame_.maxcores $M read_metadata_.maxcores $M 1
	.globl	FLAC__stream_decoder_process_single.maxcores
	.set	FLAC__stream_decoder_process_single.maxtimers,find_metadata_.maxtimers $M frame_sync_.maxtimers $M read_frame_.maxtimers $M read_metadata_.maxtimers $M 0
	.globl	FLAC__stream_decoder_process_single.maxtimers
	.set	FLAC__stream_decoder_process_single.maxchanends,find_metadata_.maxchanends $M frame_sync_.maxchanends $M read_frame_.maxchanends $M read_metadata_.maxchanends $M 0
	.globl	FLAC__stream_decoder_process_single.maxchanends
.Ltmp520:
	.size	FLAC__stream_decoder_process_single, .Ltmp520-FLAC__stream_decoder_process_single
.Lfunc_end32:
	.cfi_endproc

	.align	4
	.type	find_metadata_,@function
	.cc_top find_metadata_.function,find_metadata_
find_metadata_:
.Lfunc_begin33:
	.loc	1 1314 0
	.cfi_startproc
	.issue_mode dual
	{
		nop
		dualentsp 14
	}
.Ltmp521:
	.cfi_def_cfa_offset 56
.Ltmp522:
	.cfi_offset 15, 0
	std r5, r4, sp[3]
.Ltmp523:
	.cfi_offset 4, -32
.Ltmp524:
	.cfi_offset 5, -28
	std r7, r6, sp[4]
.Ltmp525:
	.cfi_offset 6, -24
.Ltmp526:
	.cfi_offset 7, -20
	std r9, r8, sp[5]
.Ltmp527:
	.cfi_offset 8, -16
.Ltmp528:
	.cfi_offset 9, -12
.Ltmp529:
	.cfi_offset 10, -8
.Ltmp530:
	{
		mov r5, r0
		stw r10, sp[12]
	}
.Ltmp531:
	{
		ldc r6, 0
		mkmsk r0, 1
	}
	ldc r9, 4632
	{
		ldaw r7, sp[4]
		ldc r8, 2
	}
	bu .LBB33_1
.LBB33_24:
.Ltmp532:
	{
		nop
		ldw r3, r1[8]
	}
	.loc	1 3242 3 prologue_end
.Ltmp533:
	{
		mov r0, r5
		ldw r2, r1[9]
	}
	.loc	1 3242 3
	{
		mov r1, r6
		nop
	}
	{
		nop
		bla r3
	}
	{
		mov r0, r6
		nop
	}
.Ltmp534:
.LBB33_1:
	{
		mov r10, r6
		nop
	}
.LBB33_2:
.Ltmp535:
	{
		mov r4, r6
		stw r0, sp[3]
	}
.Ltmp536:
.LBB33_3:
	{
		nop
		ldw r0, r5[1]
	}
	.loc	1 1322 6
.Ltmp537:
	{
		add r1, r0, r9
		nop
	}
	{
		nop
		ldw r2, r1[0]
	}
	.loc	1 1322 6
	bf r2, .LBB33_5
.Ltmp538:
	ldc r2, 4638
	{
		nop
		ld8u r0, r0[r2]
	}
	{
		nop
		stw r0, sp[4]
	}
	{
		nop
		stw r6, r1[0]
	}
	bu .LBB33_7
.Ltmp539:
.LBB33_5:
	.loc	1 1327 8
	{
		mov r1, r7
		ldw r0, r0[11]
	}
	{
		ldc r2, 8
		nop
	}
	.loc	1 1327 8
	bl FLAC__bitreader_read_raw_uint32
	bf r0, .LBB33_27
.Ltmp540:
	{
		nop
		ldw r0, sp[4]
	}
.Ltmp541:
.LBB33_7:
	.loc	1 1330 6
	ldaw r11, cp[FLAC__STREAM_SYNC_STRING]
	{
		nop
		ld8u r1, r11[r10]
	}
	.loc	1 1330 6
	{
		eq r1, r0, r1
		nop
	}
	bt r1, .LBB33_8
.Ltmp542:
	.loc	1 1337 6
	{
		lsu r1, r8, r4
		nop
	}
	bt r1, .LBB33_27
.Ltmp543:
	.loc	1 1340 6
	ldaw r11, cp[ID3V2_TAG_]
	{
		nop
		ld8u r1, r11[r4]
	}
	.loc	1 1340 6
	{
		eq r1, r0, r1
		nop
	}
	bf r1, .LBB33_18
.Ltmp544:
	.loc	1 1341 4
	{
		add r4, r4, 1
		nop
	}
.Ltmp545:
	.loc	1 1343 7
	{
		eq r0, r4, 3
		mov r10, r6
	}
	bf r0, .LBB33_3
.Ltmp546:
	{
		mov r8, r7
		mov r7, r9
	}
	{
		mov r9, r6
		ldw r0, r5[1]
	}
.Ltmp547:
	.loc	1 1967 6
	{
		ldaw r1, sp[5]
		ldw r0, r0[11]
	}
	{
		ldc r2, 24
		nop
	}
	.loc	1 1967 6
	bl FLAC__bitreader_read_raw_uint32
	bf r0, .LBB33_28
.Ltmp548:
	{
		nop
		ldw r0, r5[1]
	}
	.loc	1 1972 7
.Ltmp549:
	{
		mov r10, r9
		ldw r0, r0[11]
	}
.Ltmp550:
	.loc	1 1344 9
	{
		mov r6, r9
		nop
	}
.Ltmp551:
.LBB33_15:
	{
		ldaw r1, sp[5]
		ldc r2, 8
	}
	.loc	1 1972 7
.Ltmp552:
	bl FLAC__bitreader_read_raw_uint32
	bf r0, .LBB33_28
.Ltmp553:
	.loc	1 1974 3
	{
		shl r0, r10, 7
		ldw r1, sp[5]
	}
.Ltmp554:
	.loc	1 1975 3
	{
		zext r1, 7
		nop
	}
.Ltmp555:
	.loc	1 1975 3
	{
		or r10, r1, r0
		add r6, r6, 1
	}
.Ltmp556:
	{
		nop
		ldw r0, r5[1]
	}
	.loc	1 1972 7
.Ltmp557:
	{
		ldc r1, 4
		ldw r0, r0[11]
	}
.Ltmp558:
	.loc	1 1971 2
	{
		lsu r1, r6, r1
		nop
	}
	bt r1, .LBB33_15
.Ltmp559:
	.loc	1 1978 6
	{
		mov r1, r10
		nop
	}
	bl FLAC__bitreader_skip_byte_block_aligned_no_crc
	{
		mov r6, r9
		nop
	}
	{
		mov r10, r6
		mov r9, r7
	}
.Ltmp560:
	{
		mov r7, r8
		ldc r8, 2
	}
	bt r0, .LBB33_3
	bu .LBB33_27
.Ltmp561:
.LBB33_8:
	.loc	1 1332 4
	{
		add r10, r10, 1
		ldc r0, 4
	}
.Ltmp562:
	.loc	1 1321 2
	{
		lsu r1, r10, r0
		mkmsk r0, 1
	}
	bt r1, .LBB33_2
	bu .LBB33_9
.Ltmp563:
.LBB33_18:
	{
		mkmsk r4, 8
		nop
	}
	.loc	1 1350 6
.Ltmp564:
	{
		eq r0, r0, r4
		nop
	}
	bf r0, .LBB33_22
.Ltmp565:
	{
		nop
		ldw r0, r5[1]
	}
	ldc r1, 4636
	.loc	1 1351 4
.Ltmp566:
	st8 r4, r0[r1]
	{
		nop
		ldw r0, r5[1]
	}
.Ltmp567:
	.loc	1 1352 8
	{
		mov r1, r7
		ldw r0, r0[11]
	}
	{
		ldc r2, 8
		nop
	}
	.loc	1 1352 8
	bl FLAC__bitreader_read_raw_uint32
	bf r0, .LBB33_27
.Ltmp568:
	{
		nop
		ldw r0, sp[4]
	}
	.loc	1 1357 7
.Ltmp569:
	{
		eq r1, r0, r4
		nop
	}
	bf r1, .LBB33_25
.Ltmp570:
	{
		nop
		ldw r0, r5[1]
	}
	ldc r1, 4638
	.loc	1 1358 5
.Ltmp571:
	st8 r4, r0[r1]
	.loc	1 1359 5
	{
		add r0, r0, r9
		mkmsk r1, 1
	}
	{
		nop
		stw r1, r0[0]
	}
	bu .LBB33_22
.Ltmp572:
.LBB33_25:
	.loc	1 1361 12
	{
		shr r1, r0, 1
		nop
	}
	ldc r2, 124
	{
		eq r1, r1, r2
		nop
	}
	bt r1, .LBB33_26
.Ltmp573:
.LBB33_22:
	{
		mov r0, r6
		mov r10, r6
	}
	{
		nop
		ldw r1, sp[3]
	}
	bf r1, .LBB33_2
.Ltmp574:
	{
		nop
		ldw r1, r5[1]
	}
	ldc r0, 4680
	.loc	1 3241 5
.Ltmp575:
	{
		add r0, r1, r0
		nop
	}
	.loc	1 3241 5
	{
		mov r0, r6
		ldw r2, r0[0]
	}
	{
		mov r10, r6
		nop
	}
	bt r2, .LBB33_2
	bu .LBB33_24
.Ltmp576:
.LBB33_28:
	{
		mov r6, r9
		nop
	}
.LBB33_27:
	.loc	1 1376 1
	{
		mov r0, r6
		ldw r10, sp[12]
	}
	ldd r9, r8, sp[5]
	ldd r7, r6, sp[4]
	ldd r5, r4, sp[3]
	{
		nop
		retsp 14
	}
	# RETURN_REG_HOLDER
.LBB33_9:
.Ltmp577:
	.loc	1 1374 2
	{
		mkmsk r6, 1
		ldw r0, r5[0]
	}
	{
		nop
		stw r6, r0[0]
	}
	bu .LBB33_27
.Ltmp578:
.LBB33_26:
	{
		nop
		ldw r1, r5[1]
	}
	ldc r2, 4637
	.loc	1 1362 5
.Ltmp579:
	st8 r0, r1[r2]
	.loc	1 1363 5
	{
		mkmsk r1, 2
		ldw r0, r5[0]
	}
	.loc	1 1363 5
	{
		mkmsk r6, 1
		stw r1, r0[0]
	}
	bu .LBB33_27
.Ltmp580:
	.cc_bottom find_metadata_.function
	.set	find_metadata_.nstackwords.pragma,400
	.set	find_metadata_.nstackwords,find_metadata_.nstackwords



.Ltmp581:
	.size	find_metadata_, .Ltmp581-find_metadata_
.Lfunc_end33:
	.cfi_endproc

	.section	.cp.rodata.cst4,"aMc",@progbits,4
	.cc_top .LCPI34_0.data,.LCPI34_0
	.align	4
	.type	.LCPI34_0,@object
	.size	.LCPI34_0, 4
.LCPI34_0:
	.long	954437177
	.cc_bottom .LCPI34_0.data
	.cc_top .LCPI34_1.data,.LCPI34_1
	.align	4
	.type	.LCPI34_1,@object
	.size	.LCPI34_1, 4
.LCPI34_1:
	.long	3221225478
	.cc_bottom .LCPI34_1.data
	.cc_top .LCPI34_2.data,.LCPI34_2
	.align	4
	.type	.LCPI34_2,@object
	.size	.LCPI34_2, 4
.LCPI34_2:
	.long	100001
	.cc_bottom .LCPI34_2.data
	.text
	.align	4
	.type	read_metadata_,@function
	.cc_top read_metadata_.function,read_metadata_
read_metadata_:
.Lfunc_begin34:
	.loc	1 1380 0
	.cfi_startproc
	.issue_mode dual
	{
		nop
		dualentsp 62
	}
.Ltmp582:
	.cfi_def_cfa_offset 248
.Ltmp583:
	.cfi_offset 15, 0
	{
		nop
		stw r4, sp[54]
	}
	{
		nop
		stw r5, sp[55]
	}
.Ltmp584:
	.cfi_offset 4, -32
.Ltmp585:
	.cfi_offset 5, -28
	{
		nop
		stw r6, sp[56]
	}
	{
		nop
		stw r7, sp[57]
	}
.Ltmp586:
	.cfi_offset 6, -24
.Ltmp587:
	.cfi_offset 7, -20
	{
		nop
		stw r8, sp[58]
	}
	{
		nop
		stw r9, sp[59]
	}
.Ltmp588:
	.cfi_offset 8, -16
.Ltmp589:
	.cfi_offset 9, -12
.Ltmp590:
	.cfi_offset 10, -8
.Ltmp591:
	{
		mov r4, r0
		stw r10, sp[60]
	}
.Ltmp592:
	{
		nop
		ldw r0, r4[1]
	}
	{
		nop
		ldw r0, r0[11]
	}
	.loc	1 1386 6 prologue_end
.Ltmp593:
	ldw r2, cp[FLAC__STREAM_METADATA_IS_LAST_LEN]
	{
		ldaw r1, sp[52]
		nop
	}
.Ltmp594:
	.loc	1 1386 6
	bl FLAC__bitreader_read_raw_uint32
.Ltmp595:
	{
		ldc r5, 0
		nop
	}
	bf r0, .LBB34_229
.Ltmp596:
	{
		nop
		ldw r7, sp[52]
	}
	{
		nop
		ldw r0, r4[1]
	}
	{
		nop
		ldw r0, r0[11]
	}
	.loc	1 1390 6
.Ltmp597:
	ldw r2, cp[FLAC__STREAM_METADATA_TYPE_LEN]
	{
		ldaw r1, sp[51]
		nop
	}
.Ltmp598:
	.loc	1 1390 6
	bl FLAC__bitreader_read_raw_uint32
.Ltmp599:
	bf r0, .LBB34_229
.Ltmp600:
	{
		nop
		ldw r0, r4[1]
	}
	{
		nop
		ldw r0, r0[11]
	}
	.loc	1 1393 6
.Ltmp601:
	ldw r2, cp[FLAC__STREAM_METADATA_LENGTH_LEN]
	{
		ldaw r1, sp[50]
		nop
	}
.Ltmp602:
	.loc	1 1393 6
	bl FLAC__bitreader_read_raw_uint32
.Ltmp603:
	bf r0, .LBB34_229
.Ltmp604:
	.loc	1 1388 2
	{
		eq r0, r7, 0
		nop
	}
	{
		eq r8, r0, 0
		ldw r9, sp[51]
	}
	.loc	1 1396 5
.Ltmp605:
	{
		eq r0, r9, 3
		nop
	}
	bf r0, .LBB34_4
.Ltmp606:
	{
		nop
		ldw r1, r4[1]
	}
	ldc r0, 244
	.loc	1 1408 3
.Ltmp607:
	{
		add r0, r1, r0
		ldc r5, 0
	}
	{
		nop
		stw r5, r0[0]
	}
	{
		nop
		ldw r0, sp[50]
	}
.Ltmp608:
	ldc r2, 424
.Ltmp609:
	.loc	1 1648 2
	{
		add r2, r1, r2
		mkmsk r3, 2
	}
	{
		nop
		stw r3, r2[0]
	}
	ldc r2, 428
	.loc	1 1649 2
	{
		add r2, r1, r2
		nop
	}
	{
		nop
		stw r8, r2[0]
	}
	ldc r2, 432
	.loc	1 1650 2
	{
		add r2, r1, r2
		nop
	}
	{
		nop
		stw r0, r2[0]
	}
	ldw r2, cp[.LCPI34_0]
	.loc	1 1652 5
.Ltmp610:
	lmul r3, r11, r0, r2, r5, r5
	{
		shr r3, r3, 2
		ldc r11, 18
	}
	mul r3, r3, r11
	{
		sub r3, r0, r3
		nop
	}
	.loc	1 1652 5
	bf r3, .LBB34_24
.Ltmp611:
	{
		nop
		ldw r0, r1[11]
	}
	.loc	1 1653 3
.Ltmp612:
	bl FLAC__bitreader_limit_invalidate
	bu .LBB34_229
.Ltmp613:
.LBB34_4:
	{
		nop
		stw r7, sp[5]
	}
	bt r9, .LBB34_49
.Ltmp614:
	{
		nop
		ldw r9, sp[50]
	}
.Ltmp615:
	{
		nop
		ldw r0, r4[1]
	}
	ldc r10, 248
	.loc	1 1575 2
.Ltmp616:
	{
		add r1, r0, r10
		ldc r5, 0
	}
	{
		nop
		stw r5, r1[0]
	}
	ldc r1, 252
	.loc	1 1576 2
	{
		add r1, r0, r1
		nop
	}
	{
		nop
		stw r8, r1[0]
	}
	ldc r1, 256
	.loc	1 1577 2
	{
		add r1, r0, r1
		nop
	}
	{
		nop
		stw r9, r1[0]
	}
	.loc	1 1579 2
	ldw r6, cp[FLAC__STREAM_METADATA_STREAMINFO_MIN_BLOCK_SIZE_LEN]
.Ltmp617:
	.loc	1 1580 6
	{
		ldaw r1, sp[6]
		ldw r0, r0[11]
	}
.Ltmp618:
	.loc	1 1580 6
	{
		mov r2, r6
		nop
	}
	bl FLAC__bitreader_read_raw_uint32
	bf r0, .LBB34_229
.Ltmp619:
	{
		nop
		ldw r0, sp[6]
	}
	{
		nop
		ldw r1, r4[1]
	}
	ldc r2, 264
	.loc	1 1582 2
	{
		add r2, r1, r2
		nop
	}
	{
		nop
		stw r0, r2[0]
	}
	.loc	1 1585 2
	ldw r7, cp[FLAC__STREAM_METADATA_STREAMINFO_MAX_BLOCK_SIZE_LEN]
.Ltmp620:
	.loc	1 1586 6
	{
		ldaw r1, sp[6]
		ldw r0, r1[11]
	}
.Ltmp621:
	.loc	1 1586 6
	{
		mov r2, r7
		nop
	}
	bl FLAC__bitreader_read_raw_uint32
	bf r0, .LBB34_229
.Ltmp622:
	{
		nop
		ldw r0, sp[6]
	}
	{
		nop
		ldw r1, r4[1]
	}
	ldc r2, 268
	.loc	1 1588 2
	{
		add r2, r1, r2
		nop
	}
	{
		nop
		stw r0, r2[0]
	}
	.loc	1 1591 2
	ldw r8, cp[FLAC__STREAM_METADATA_STREAMINFO_MIN_FRAME_SIZE_LEN]
.Ltmp623:
	.loc	1 1592 6
	{
		ldaw r1, sp[6]
		ldw r0, r1[11]
	}
.Ltmp624:
	.loc	1 1592 6
	{
		mov r2, r8
		nop
	}
	bl FLAC__bitreader_read_raw_uint32
	bf r0, .LBB34_229
.Ltmp625:
	{
		nop
		ldw r0, sp[6]
	}
	{
		nop
		ldw r1, r4[1]
	}
	ldc r2, 272
	.loc	1 1594 2
	{
		add r2, r1, r2
		nop
	}
	{
		nop
		stw r0, r2[0]
	}
	.loc	1 1597 2
	ldw r2, cp[FLAC__STREAM_METADATA_STREAMINFO_MAX_FRAME_SIZE_LEN]
.Ltmp626:
	.loc	1 1598 6
	{
		ldaw r1, sp[6]
		ldw r0, r1[11]
	}
.Ltmp627:
	.loc	1 1598 6
	bl FLAC__bitreader_read_raw_uint32
	bf r0, .LBB34_229
.Ltmp628:
	{
		nop
		ldw r0, sp[6]
	}
	{
		nop
		ldw r1, r4[1]
	}
	ldc r2, 276
	.loc	1 1600 2
	{
		add r2, r1, r2
		nop
	}
	{
		nop
		stw r0, r2[0]
	}
	.loc	1 1603 2
	ldw r2, cp[FLAC__STREAM_METADATA_STREAMINFO_SAMPLE_RATE_LEN]
.Ltmp629:
	.loc	1 1604 6
	{
		ldaw r1, sp[6]
		ldw r0, r1[11]
	}
.Ltmp630:
	.loc	1 1604 6
	bl FLAC__bitreader_read_raw_uint32
	bf r0, .LBB34_229
.Ltmp631:
	{
		nop
		ldw r0, sp[6]
	}
	{
		nop
		ldw r1, r4[1]
	}
	ldc r2, 280
	.loc	1 1606 2
	{
		add r2, r1, r2
		nop
	}
	{
		nop
		stw r0, r2[0]
	}
	.loc	1 1609 2
	ldw r2, cp[FLAC__STREAM_METADATA_STREAMINFO_CHANNELS_LEN]
.Ltmp632:
	.loc	1 1610 6
	{
		ldaw r1, sp[6]
		ldw r0, r1[11]
	}
.Ltmp633:
	.loc	1 1610 6
	bl FLAC__bitreader_read_raw_uint32
	bf r0, .LBB34_229
.Ltmp634:
	{
		nop
		ldw r0, sp[6]
	}
	.loc	1 1612 2
	{
		add r0, r0, 1
		ldw r1, r4[1]
	}
	ldc r2, 284
	.loc	1 1612 2
	{
		add r2, r1, r2
		nop
	}
	{
		nop
		stw r0, r2[0]
	}
	.loc	1 1615 2
	ldw r2, cp[FLAC__STREAM_METADATA_STREAMINFO_BITS_PER_SAMPLE_LEN]
.Ltmp635:
	.loc	1 1616 6
	{
		ldaw r1, sp[6]
		ldw r0, r1[11]
	}
.Ltmp636:
	.loc	1 1616 6
	bl FLAC__bitreader_read_raw_uint32
	bf r0, .LBB34_229
.Ltmp637:
	{
		nop
		ldw r0, sp[6]
	}
	.loc	1 1618 2
	{
		add r0, r0, 1
		ldw r1, r4[1]
	}
	ldc r2, 288
	.loc	1 1618 2
	{
		add r2, r1, r2
		nop
	}
	{
		nop
		stw r0, r2[0]
	}
	.loc	1 1621 2
	ldw r2, cp[FLAC__STREAM_METADATA_STREAMINFO_TOTAL_SAMPLES_LEN]
.Ltmp638:
	{
		nop
		ldw r0, r1[11]
	}
	ldc r3, 296
	.loc	1 1622 6
.Ltmp639:
	{
		add r1, r1, r3
		nop
	}
.Ltmp640:
	.loc	1 1622 6
	bl FLAC__bitreader_read_raw_uint64
	bf r0, .LBB34_229
.Ltmp641:
	{
		nop
		ldw r1, r4[1]
	}
	{
		nop
		ldw r0, r1[11]
	}
	ldc r2, 304
	.loc	1 1626 6
.Ltmp642:
	{
		add r1, r1, r2
		ldc r2, 16
	}
	.loc	1 1626 6
	bl FLAC__bitreader_read_byte_block_aligned_no_crc
	bf r0, .LBB34_229
.Ltmp643:
	.loc	1 1589 2
	{
		add r0, r6, r7
		nop
	}
	.loc	1 1595 2
	{
		add r0, r0, r8
		nop
	}
	.loc	1 1597 2
	ldw r1, cp[FLAC__STREAM_METADATA_STREAMINFO_MAX_FRAME_SIZE_LEN]
	.loc	1 1601 2
	{
		add r0, r0, r1
		nop
	}
	.loc	1 1603 2
	ldw r1, cp[FLAC__STREAM_METADATA_STREAMINFO_SAMPLE_RATE_LEN]
	.loc	1 1607 2
	{
		add r0, r0, r1
		nop
	}
	.loc	1 1609 2
	ldw r1, cp[FLAC__STREAM_METADATA_STREAMINFO_CHANNELS_LEN]
	.loc	1 1613 2
	{
		add r0, r0, r1
		nop
	}
	.loc	1 1615 2
	ldw r1, cp[FLAC__STREAM_METADATA_STREAMINFO_BITS_PER_SAMPLE_LEN]
	.loc	1 1619 2
	{
		add r0, r0, r1
		nop
	}
	.loc	1 1621 2
	ldw r1, cp[FLAC__STREAM_METADATA_STREAMINFO_TOTAL_SAMPLES_LEN]
	.loc	1 1624 2
	{
		add r0, r0, r1
		nop
	}
	ldc r1, 128
	.loc	1 1628 2
	{
		add r0, r0, r1
		nop
	}
.Ltmp644:
	.loc	1 1632 6
	{
		shr r0, r0, 3
		nop
	}
.Ltmp645:
	.loc	1 1632 6
	{
		lsu r1, r9, r0
		nop
	}
	bt r1, .LBB34_229
.Ltmp646:
	.loc	1 1634 2
	{
		sub r1, r9, r0
		ldw r0, r4[1]
	}
.Ltmp647:
	{
		nop
		ldw r0, r0[11]
	}
	.loc	1 1635 6
.Ltmp648:
	bl FLAC__bitreader_skip_byte_block_aligned_no_crc
	{
		nop
		ldw r6, sp[5]
	}
	bf r0, .LBB34_229
.Ltmp649:
	{
		nop
		ldw r5, r4[1]
	}
	ldc r0, 240
	.loc	1 1400 3
	{
		add r0, r5, r0
		mkmsk r1, 1
	}
	{
		nop
		stw r1, r0[0]
	}
	ldc r0, 304
	.loc	1 1401 11
.Ltmp650:
	{
		add r0, r5, r0
		nop
	}
	.loc	1 1401 11
	ldaw r11, cp[.L.str35]
	{
		ldc r2, 16
		mov r1, r11
	}
	bl memcmp
	bt r0, .LBB34_18
.Ltmp651:
	ldc r0, 4672
	.loc	1 1402 4
	{
		add r0, r5, r0
		ldc r1, 0
	}
	{
		nop
		stw r1, r0[0]
	}
.Ltmp652:
.LBB34_18:
	ldc r0, 4680
	.loc	1 1403 6
.Ltmp653:
	{
		add r0, r5, r0
		nop
	}
	{
		nop
		ldw r0, r0[0]
	}
	bt r0, .LBB34_38
.Ltmp654:
	ldc r0, 600
	.loc	1 1403 6
	{
		add r0, r5, r0
		nop
	}
	{
		nop
		ldw r0, r0[0]
	}
	bf r0, .LBB34_38
.Ltmp655:
	{
		nop
		ldw r3, r5[7]
	}
	bf r3, .LBB34_38
.Ltmp656:
	.loc	1 1404 4
	{
		add r1, r5, r10
		ldw r2, r5[9]
	}
	bu .LBB34_37
.Ltmp657:
.LBB34_49:
	{
		nop
		ldw r7, r4[1]
	}
	.loc	1 1418 3
.Ltmp658:
	ldaw r0, r7[r9]
	ldc r1, 600
	{
		add r0, r0, r1
		nop
	}
	{
		nop
		ldw r0, r0[0]
	}
	.loc	1 1418 3
	{
		eq r0, r0, 0
		nop
	}
	{
		nop
		stw r0, sp[4]
	}
.Ltmp659:
	.loc	1 1419 3
	{
		ldaw r5, sp[6]
		ldw r6, sp[50]
	}
.Ltmp660:
	{
		ldc r1, 0
		nop
	}
	ldc r2, 176
	.loc	1 1422 3
	{
		mov r0, r5
		nop
	}
	bl memset
	{
		ldc r10, 4
		nop
	}
	.loc	1 1423 3
	{
		or r0, r5, r10
		nop
	}
	{
		nop
		stw r8, r0[0]
	}
	{
		nop
		stw r9, sp[6]
	}
	.loc	1 1425 3
	{
		eq r0, r9, 2
		stw r6, sp[8]
	}
	.loc	1 1427 6
.Ltmp661:
	bf r0, .LBB34_50
.Ltmp662:
	{
		mov r5, r6
		ldw r0, r7[11]
	}
.Ltmp663:
	.loc	1 1428 8
	{
		ldaw r1, sp[10]
		nop
	}
.Ltmp664:
	.loc	1 1428 8
	ldw r2, cp[FLAC__STREAM_METADATA_APPLICATION_ID_LEN]
.Ltmp665:
	.loc	1 1428 8
	{
		shr r8, r2, 3
		mov r6, r1
	}
.Ltmp666:
	.loc	1 1428 8
	{
		mov r2, r8
		nop
	}
	bl FLAC__bitreader_read_byte_block_aligned_no_crc
	bf r0, .LBB34_226
.Ltmp667:
	.loc	1 1431 7
	{
		lsu r0, r5, r8
		nop
	}
	bf r0, .LBB34_54
.Ltmp668:
	.loc	1 1432 5
	{
		ldc r1, 8
		ldw r0, r4[0]
	}
	.loc	1 1432 5
	{
		ldc r5, 0
		stw r1, r0[0]
	}
	bu .LBB34_229
.Ltmp669:
.LBB34_24:
	{
		ldc r8, 0
		nop
	}
	.loc	1 1657 2
.Ltmp670:
	lmul r2, r3, r0, r2, r8, r8
	{
		shr r2, r2, 2
		nop
	}
.Ltmp671:
	ldc r3, 440
	.loc	1 1657 2
	{
		add r3, r1, r3
		nop
	}
	{
		nop
		stw r2, r3[0]
	}
	ldc r10, 444
	.loc	1 1660 66
.Ltmp672:
	{
		add r1, r1, r10
		nop
	}
.Ltmp673:
	.loc	1 1660 66
	{
		shr r1, r0, 1
		ldw r6, r1[0]
	}
	{
		ldc r9, 8
		nop
	}
	.loc	15 275 5
.Ltmp674:
	{
		lsu r1, r9, r1
		nop
	}
	bt r1, .LBB34_43
.Ltmp675:
	{
		ldc r1, 0
		mov r0, r6
	}
	.loc	15 276 10
	bl realloc
.Ltmp676:
.LBB34_26:
	{
		nop
		ldw r2, r4[1]
	}
	.loc	1 1660 66
	{
		add r1, r2, r10
		nop
	}
	{
		nop
		stw r0, r1[0]
	}
	bf r0, .LBB34_48
.Ltmp677:
	{
		nop
		stw r7, sp[5]
	}
	ldc r0, 440
	.loc	1 1664 2
.Ltmp678:
	{
		add r0, r2, r0
		nop
	}
	{
		nop
		ldw r0, r0[0]
	}
	bf r0, .LBB34_33
.Ltmp679:
	.loc	1 1665 7
	ldw r6, cp[FLAC__STREAM_METADATA_SEEKPOINT_SAMPLE_NUMBER_LEN]
	{
		ldc r7, 16
		ldaw r9, sp[6]
	}
.Ltmp680:
.LBB34_29:
	.loc	1 1665 7
	{
		mov r1, r9
		ldw r0, r2[11]
	}
	.loc	1 1665 7
	{
		mov r2, r6
		nop
	}
	bl FLAC__bitreader_read_raw_uint64
	bf r0, .LBB34_229
.Ltmp681:
	.loc	1 1667 3
	ldd r1, r0, sp[3]
	{
		nop
		ldw r2, r4[1]
	}
	.loc	1 1667 3
	{
		add r3, r2, r10
		nop
	}
	{
		nop
		ldw r3, r3[0]
	}
	{
		add r3, r3, r7
		nop
	}
	ldaw r3, r3[-4]
	.loc	1 1667 3
	std r1, r0, r3[0]
	.loc	1 1669 7
.Ltmp682:
	{
		mov r1, r9
		ldw r0, r2[11]
	}
	.loc	1 1669 7
	ldw r2, cp[FLAC__STREAM_METADATA_SEEKPOINT_STREAM_OFFSET_LEN]
	.loc	1 1669 7
	bl FLAC__bitreader_read_raw_uint64
	bf r0, .LBB34_229
.Ltmp683:
	.loc	1 1671 3
	ldd r1, r0, sp[3]
	{
		nop
		ldw r2, r4[1]
	}
	.loc	1 1671 3
	{
		add r3, r2, r10
		nop
	}
	{
		nop
		ldw r3, r3[0]
	}
	{
		add r3, r3, r7
		nop
	}
	{
		sub r3, r3, 8
		nop
	}
	.loc	1 1671 3
	std r1, r0, r3[0]
.Ltmp684:
	.loc	1 1673 7
	{
		ldaw r1, sp[53]
		ldw r0, r2[11]
	}
	.loc	1 1673 7
	ldw r2, cp[FLAC__STREAM_METADATA_SEEKPOINT_FRAME_SAMPLES_LEN]
	.loc	1 1673 7
	bl FLAC__bitreader_read_raw_uint32
	bf r0, .LBB34_229
.Ltmp685:
	{
		nop
		ldw r0, sp[53]
	}
	{
		nop
		ldw r2, r4[1]
	}
	ldc r1, 440
	.loc	1 1675 3
	{
		add r1, r2, r1
		add r3, r2, r10
	}
	{
		nop
		ldw r3, r3[0]
	}
	{
		add r3, r3, r7
		nop
	}
.Ltmp686:
	.loc	1 1675 3
	{
		add r8, r8, 1
		stw r0, r3[0]
	}
.Ltmp687:
	{
		nop
		ldw r0, r1[0]
	}
.Ltmp688:
	.loc	1 1664 2
	ldaw r7, r7[6]
	.loc	1 1664 2
	{
		lsu r0, r8, r0
		nop
	}
	bt r0, .LBB34_29
.Ltmp689:
.LBB34_33:
	ldc r0, 244
	.loc	1 1413 3
	{
		add r0, r2, r0
		mkmsk r1, 1
	}
	{
		nop
		stw r1, r0[0]
	}
	ldc r0, 4680
	.loc	1 1414 6
.Ltmp690:
	{
		add r0, r2, r0
		nop
	}
	{
		nop
		ldw r0, r0[0]
	}
	{
		nop
		ldw r6, sp[5]
	}
	bt r0, .LBB34_38
.Ltmp691:
	ldc r0, 612
	.loc	1 1414 6
	{
		add r0, r2, r0
		nop
	}
	{
		nop
		ldw r0, r0[0]
	}
	bf r0, .LBB34_38
.Ltmp692:
	{
		nop
		ldw r3, r2[7]
	}
	bf r3, .LBB34_38
.Ltmp693:
	ldc r0, 424
	.loc	1 1415 4
	{
		add r1, r2, r0
		ldw r2, r2[9]
	}
.Ltmp694:
.LBB34_37:
	.loc	1 1415 4
	{
		mov r0, r4
		nop
	}
	{
		nop
		bla r3
	}
	bu .LBB34_38
.Ltmp695:
.LBB34_50:
	{
		nop
		ldw r1, sp[4]
	}
	bu .LBB34_61
.Ltmp696:
.LBB34_43:
	ldw r1, cp[.LCPI34_1]
	.loc	15 277 5
.Ltmp697:
	{
		lsu r0, r0, r1
		nop
	}
.Ltmp698:
	bf r0, .LBB34_47
.Ltmp699:
	{
		ldc r0, 24
		stw r7, sp[5]
	}
	.loc	15 281 9
	mul r7, r2, r0
.Ltmp700:
	.loc	15 206 17
	{
		mov r0, r6
		mov r1, r7
	}
	bl realloc
.Ltmp701:
	.loc	15 207 5
	bf r7, .LBB34_45
.Ltmp702:
	{
		nop
		ldw r7, sp[5]
	}
	bt r0, .LBB34_26
.Ltmp703:
.LBB34_47:
	.loc	15 208 3
	{
		mov r0, r6
		nop
	}
	bl free
.Ltmp704:
	{
		nop
		ldw r0, r4[1]
	}
.Ltmp705:
	.loc	1 1660 66
	{
		add r0, r0, r10
		nop
	}
	{
		nop
		stw r8, r0[0]
	}
.Ltmp706:
.LBB34_48:
	{
		nop
		ldw r0, r4[0]
	}
	{
		nop
		stw r9, r0[0]
	}
	bu .LBB34_229
.Ltmp707:
.LBB34_54:
	.loc	1 1436 4
	{
		sub r5, r5, r8
		nop
	}
.Ltmp708:
	{
		nop
		stw r5, sp[3]
	}
.Ltmp709:
	{
		nop
		ldw r7, r4[1]
	}
	ldc r0, 1116
	.loc	1 1438 7
.Ltmp710:
	{
		add r0, r7, r0
		nop
	}
	{
		nop
		ldw r10, r0[0]
	}
	.loc	1 1438 7
	bf r10, .LBB34_55
.Ltmp711:
	{
		nop
		ldw r0, sp[4]
	}
	.loc	1 1418 3
	{
		eq r0, r0, 0
		nop
	}
.Ltmp712:
	{
		nop
		stw r0, sp[2]
	}
	ldc r0, 1112
	.loc	1 1438 59
.Ltmp713:
	{
		add r0, r7, r0
		nop
	}
	.loc	1 1306 11
.Ltmp714:
	{
		ldc r5, 0
		ldw r9, r0[0]
	}
.Ltmp715:
.LBB34_58:
	.loc	1 1306 11
	{
		mov r0, r9
		mov r1, r6
	}
	{
		mov r2, r8
		nop
	}
	bl memcmp
	.loc	1 1306 11
	bf r0, .LBB34_59
.Ltmp716:
	.loc	1 1305 63
	{
		add r5, r5, 1
		add r9, r9, r8
	}
.Ltmp717:
	.loc	1 1305 2
	{
		lsu r0, r5, r10
		nop
	}
	bt r0, .LBB34_58
.Ltmp718:
.LBB34_55:
	{
		ldc r10, 4
		ldw r1, sp[4]
	}
	bu .LBB34_60
.Ltmp719:
.LBB34_59:
	{
		ldc r10, 4
		ldw r1, sp[2]
	}
.Ltmp720:
.LBB34_60:
	{
		nop
		ldw r6, sp[3]
	}
.LBB34_61:
.Ltmp721:
	{
		nop
		ldw r0, r7[11]
	}
	.loc	1 1442 6
.Ltmp722:
	bf r1, .LBB34_64
.Ltmp723:
	.loc	1 1443 8
	{
		mov r1, r6
		nop
	}
	bl FLAC__bitreader_skip_byte_block_aligned_no_crc
	bt r0, .LBB34_63
	bu .LBB34_226
.Ltmp724:
.LBB34_64:
	.loc	1 1448 4
	{
		shl r1, r6, 3
		nop
	}
	.loc	1 1448 4
	bl FLAC__bitreader_set_limit
	{
		mkmsk r5, 1
		ldw r0, sp[51]
	}
	{
		ldc r1, 6
		nop
	}
	.loc	1 1449 4
	{
		lsu r1, r1, r0
		nop
	}
	bf r1, .LBB34_65
.Ltmp725:
	.loc	1 1485 9
	bf r6, .LBB34_189
.Ltmp726:
	.loc	1 1486 42
	{
		mov r0, r6
		nop
	}
	bl malloc
	{
		mov r1, r0
		nop
	}
	{
		nop
		stw r1, sp[10]
	}
	bt r1, .LBB34_188
	bu .LBB34_70
.Ltmp727:
.LBB34_65:

	.xtabranch .Ljumptable1+4,.Ljumptable1+8,.Ljumptable1+12,.Ljumptable1+16,.Ljumptable1+20,.Ljumptable1+24,.Ljumptable1+28
.Ljumptable1:
		
	{
		nop
		bru r0
	}
	.jmptable32 .LBB34_190,.LBB34_66,.LBB34_68,.LBB34_190,.LBB34_72,.LBB34_120,.LBB34_151
.Ltmp728:
.LBB34_66:
	{
		nop
		ldw r0, r4[1]
	}
	.loc	1 1452 10
.Ltmp729:
	{
		mov r1, r6
		ldw r0, r0[11]
	}
	.loc	1 1452 10
	bl FLAC__bitreader_skip_byte_block_aligned_no_crc
	bu .LBB34_67
.Ltmp730:
.LBB34_45:
	{
		nop
		ldw r7, sp[5]
	}
	bu .LBB34_26
.Ltmp731:
.LBB34_189:
	{
		ldc r0, 0
		nop
	}
	{
		nop
		stw r0, sp[10]
	}
	bu .LBB34_190
.Ltmp732:
.LBB34_68:
	.loc	1 1457 9
	bf r6, .LBB34_71
.Ltmp733:
	.loc	1 1458 46
	{
		mov r0, r6
		nop
	}
	bl malloc
	{
		mov r1, r0
		nop
	}
	{
		nop
		stw r1, sp[11]
	}
	bf r1, .LBB34_70
.Ltmp734:
.LBB34_188:
	{
		nop
		ldw r0, r4[1]
	}
	.loc	1 1462 16
.Ltmp735:
	{
		mov r2, r6
		ldw r0, r0[11]
	}
	.loc	1 1462 16
	bl FLAC__bitreader_read_byte_block_aligned_no_crc
.Ltmp736:
.LBB34_67:
	.loc	1 1452 10
	{
		eq r0, r0, 0
		nop
	}
	{
		eq r5, r0, 0
		nop
	}
	bu .LBB34_190
.Ltmp737:
.LBB34_70:
	.loc	1 1459 8
	{
		ldc r1, 8
		ldw r0, r4[0]
	}
	.loc	1 1459 8
	{
		ldc r5, 0
		stw r1, r0[0]
	}
	bu .LBB34_190
.Ltmp738:
.LBB34_72:
	{
		ldc r7, 8
		nop
	}
	.loc	1 1691 6
.Ltmp739:
	{
		lsu r0, r6, r7
		nop
	}
	bt r0, .LBB34_81
.Ltmp740:
	.loc	1 1469 10
	{
		ldaw r1, sp[10]
		ldw r0, r4[1]
	}
	{
		nop
		ldw r0, r0[11]
	}
	.loc	1 1694 8
.Ltmp741:
	bl FLAC__bitreader_read_uint32_little_endian
	{
		ldc r8, 0
		nop
	}
	.loc	1 1694 8
	bf r0, .LBB34_74
.Ltmp742:
	.loc	1 1692 3
	{
		sub r9, r6, 8
		ldw r6, sp[10]
	}
.Ltmp743:
	.loc	1 1696 7
	bf r6, .LBB34_89
.Ltmp744:
	.loc	1 1697 8
	{
		lsu r0, r9, r6
		nop
	}
	bf r0, .LBB34_82
.Ltmp745:
	{
		ldc r0, 0
		nop
	}
	{
		nop
		stw r0, sp[10]
	}
	{
		nop
		stw r0, sp[11]
	}
.Ltmp746:
.LBB34_78:
	bf r9, .LBB34_190
.Ltmp747:
	{
		nop
		ldw r0, sp[12]
	}
	bt r0, .LBB34_81
.Ltmp748:
	{
		nop
		ldw r0, sp[13]
	}
	.loc	1 1785 4
.Ltmp749:
	bl free
	{
		ldc r0, 0
		nop
	}
	{
		nop
		stw r0, sp[13]
	}
.Ltmp750:
.LBB34_81:
	{
		nop
		ldw r0, r4[1]
	}
	{
		nop
		ldw r0, r0[11]
	}
	.loc	1 1777 3
.Ltmp751:
	bl FLAC__bitreader_limit_invalidate
	{
		ldc r5, 0
		nop
	}
	bu .LBB34_190
.Ltmp752:
.LBB34_120:
	.loc	1 1801 2
	{
		ldaw r6, sp[10]
		ldc r5, 0
	}
	ldc r2, 160
	.loc	1 1801 2
	{
		mov r0, r6
		mov r1, r5
	}
	bl memset
	{
		nop
		ldw r0, r4[1]
	}
	{
		nop
		ldw r0, r0[11]
	}
	.loc	1 1804 6
.Ltmp753:
	ldw r1, cp[FLAC__STREAM_METADATA_CUESHEET_MEDIA_CATALOG_NUMBER_LEN]
	.loc	1 1804 6
	{
		shr r2, r1, 3
		mov r1, r6
	}
	.loc	1 1804 6
	bl FLAC__bitreader_read_byte_block_aligned_no_crc
	bf r0, .LBB34_190
.Ltmp754:
	{
		nop
		ldw r0, r4[1]
	}
	.loc	1 1807 6
.Ltmp755:
	{
		ldaw r1, sp[44]
		ldw r0, r0[11]
	}
	.loc	1 1807 6
	ldw r2, cp[FLAC__STREAM_METADATA_CUESHEET_LEAD_IN_LEN]
	.loc	1 1807 6
	bl FLAC__bitreader_read_raw_uint64
	bf r0, .LBB34_190
.Ltmp756:
	{
		nop
		ldw r0, r4[1]
	}
	{
		nop
		ldw r0, r0[11]
	}
	.loc	1 1810 6
.Ltmp757:
	ldw r2, cp[FLAC__STREAM_METADATA_CUESHEET_IS_CD_LEN]
	{
		ldaw r1, sp[53]
		nop
	}
.Ltmp758:
	.loc	1 1810 6
	bl FLAC__bitreader_read_raw_uint32
.Ltmp759:
	bf r0, .LBB34_190
.Ltmp760:
	{
		nop
		ldw r0, sp[53]
	}
	.loc	1 1812 2
	{
		eq r0, r0, 0
		nop
	}
	{
		eq r0, r0, 0
		nop
	}
	{
		nop
		stw r0, sp[46]
	}
	{
		nop
		ldw r0, r4[1]
	}
	{
		nop
		ldw r0, r0[11]
	}
	.loc	1 1814 6
.Ltmp761:
	ldw r1, cp[FLAC__STREAM_METADATA_CUESHEET_RESERVED_LEN]
	.loc	1 1814 6
	bl FLAC__bitreader_skip_bits_no_crc
	bf r0, .LBB34_190
.Ltmp762:
	{
		nop
		ldw r0, r4[1]
	}
	{
		nop
		ldw r0, r0[11]
	}
	.loc	1 1817 6
.Ltmp763:
	ldw r2, cp[FLAC__STREAM_METADATA_CUESHEET_NUM_TRACKS_LEN]
	{
		ldaw r1, sp[53]
		nop
	}
.Ltmp764:
	.loc	1 1817 6
	bl FLAC__bitreader_read_raw_uint32
.Ltmp765:
	bf r0, .LBB34_190
.Ltmp766:
	{
		nop
		ldw r0, sp[53]
	}
.Ltmp767:
	.loc	1 1819 2
	{
		mkmsk r1, 1
		stw r0, sp[47]
	}
	.loc	1 1821 5
.Ltmp768:
	bf r0, .LBB34_126
.Ltmp769:
	{
		ldc r1, 32
		nop
	}
	.loc	15 121 9
.Ltmp770:
	bl calloc
.Ltmp771:
	{
		mov r9, r0
		nop
	}
	{
		nop
		stw r9, sp[48]
	}
	bf r9, .LBB34_142
.Ltmp772:
	.loc	1 1828 8
	ldw r2, cp[FLAC__STREAM_METADATA_CUESHEET_TRACK_OFFSET_LEN]
	{
		nop
		ldw r0, r4[1]
	}
	.loc	1 1828 8
	{
		mov r1, r9
		ldw r0, r0[11]
	}
	.loc	1 1828 8
	bl FLAC__bitreader_read_raw_uint64
	{
		ldc r1, 0
		nop
	}
	{
		nop
		stw r1, sp[4]
	}
	.loc	1 1828 8
	bf r0, .LBB34_129
.Ltmp773:
	.loc	1 1836 8
	ldw r0, cp[FLAC__STREAM_METADATA_CUESHEET_TRACK_ISRC_LEN]
	.loc	1 1836 8
	{
		shr r0, r0, 3
		nop
	}
.Ltmp774:
	.loc	1 1839 8
	{
		ldc r5, 0
		stw r0, sp[2]
	}
.Ltmp775:
.LBB34_131:
	{
		nop
		ldw r0, r4[1]
	}
	.loc	1 1831 8
.Ltmp776:
	{
		ldaw r1, sp[53]
		ldw r0, r0[11]
	}
	.loc	1 1831 8
	ldw r2, cp[FLAC__STREAM_METADATA_CUESHEET_TRACK_NUMBER_LEN]
	.loc	1 1831 8
	bl FLAC__bitreader_read_raw_uint32
	bf r0, .LBB34_150
.Ltmp777:
	{
		nop
		ldw r0, sp[53]
	}
	{
		nop
		ldw r1, sp[4]
	}
	.loc	1 1833 4
	{
		shl r1, r1, 5
		nop
	}
	{
		add r7, r9, r1
		ldc r1, 8
	}
	.loc	1 1833 4
	st8 r0, r7[r1]
	{
		nop
		ldw r0, r4[1]
	}
	.loc	1 1836 8
.Ltmp778:
	{
		add r1, r7, 9
		ldw r0, r0[11]
	}
	{
		nop
		ldw r2, sp[2]
	}
	.loc	1 1836 8
	bl FLAC__bitreader_read_byte_block_aligned_no_crc
	bf r0, .LBB34_150
.Ltmp779:
	{
		nop
		ldw r0, r4[1]
	}
	.loc	1 1839 8
.Ltmp780:
	{
		ldaw r1, sp[53]
		ldw r0, r0[11]
	}
	.loc	1 1839 8
	ldw r2, cp[FLAC__STREAM_METADATA_CUESHEET_TRACK_TYPE_LEN]
	.loc	1 1839 8
	bl FLAC__bitreader_read_raw_uint32
	bf r0, .LBB34_150
.Ltmp781:
	{
		ldaw r1, sp[53]
		nop
	}
.Ltmp782:
	.loc	1 1841 4
	{
		ldc r2, 22
		ld8u r0, r1[r5]
	}
	{
		mov r3, r2
		nop
	}
	.loc	1 1841 4
	{
		zext r0, 1
		ld8u r2, r7[r3]
	}
	ldc r11, 254
	.loc	1 1841 4
	{
		and r2, r2, r11
		nop
	}
	.loc	1 1841 4
	{
		or r0, r2, r0
		nop
	}
	.loc	1 1841 4
	st8 r0, r7[r3]
	{
		nop
		ldw r0, r4[1]
	}
	{
		nop
		ldw r0, r0[11]
	}
	.loc	1 1843 8
.Ltmp783:
	ldw r2, cp[FLAC__STREAM_METADATA_CUESHEET_TRACK_PRE_EMPHASIS_LEN]
.Ltmp784:
	.loc	1 1843 8
	bl FLAC__bitreader_read_raw_uint32
	bf r0, .LBB34_150
.Ltmp785:
	{
		ldc r0, 22
		nop
	}
	.loc	1 1841 4
	{
		add r0, r7, r0
		ldaw r1, sp[53]
	}
	{
		nop
		ld8u r1, r1[r5]
	}
	.loc	1 1845 4
	{
		shl r1, r1, 1
		ld8u r2, r0[r5]
	}
	{
		ldc r3, 2
		nop
	}
	.loc	1 1845 4
	{
		and r1, r1, r3
		nop
	}
	ldc r3, 253
	.loc	1 1845 4
	{
		and r2, r2, r3
		nop
	}
	.loc	1 1845 4
	{
		or r1, r1, r2
		nop
	}
	.loc	1 1845 4
	st8 r1, r0[r5]
	{
		nop
		ldw r0, r4[1]
	}
	{
		nop
		ldw r0, r0[11]
	}
	.loc	1 1847 8
.Ltmp786:
	ldw r1, cp[FLAC__STREAM_METADATA_CUESHEET_TRACK_RESERVED_LEN]
	.loc	1 1847 8
	bl FLAC__bitreader_skip_bits_no_crc
	bf r0, .LBB34_150
.Ltmp787:
	{
		nop
		ldw r0, r4[1]
	}
	.loc	1 1850 8
.Ltmp788:
	{
		ldaw r1, sp[53]
		ldw r0, r0[11]
	}
	.loc	1 1850 8
	ldw r2, cp[FLAC__STREAM_METADATA_CUESHEET_TRACK_NUM_INDICES_LEN]
	.loc	1 1850 8
	bl FLAC__bitreader_read_raw_uint32
	bf r0, .LBB34_150
.Ltmp789:
	.loc	1 1852 4
	{
		ldc r1, 23
		ldw r0, sp[53]
	}
	.loc	1 1852 4
	st8 r0, r7[r1]
	.loc	1 1854 7
.Ltmp790:
	{
		zext r0, 8
		nop
	}
.Ltmp791:
	bf r0, .LBB34_147
.Ltmp792:
	{
		ldc r1, 16
		nop
	}
	.loc	15 121 9
.Ltmp793:
	bl calloc
.Ltmp794:
	{
		mov r9, r0
		nop
	}
	{
		nop
		stw r9, r7[6]
	}
	bf r9, .LBB34_142
.Ltmp795:
	{
		ldc r0, 23
		nop
	}
	.loc	1 1852 4
	{
		add r10, r7, r0
		nop
	}
	{
		nop
		ld8u r0, r10[r5]
	}
	bf r0, .LBB34_147
.Ltmp796:
	{
		nop
		ldw r0, r4[1]
	}
	.loc	1 1861 10
.Ltmp797:
	{
		mov r1, r9
		ldw r0, r0[11]
	}
	.loc	1 1861 10
	ldw r2, cp[FLAC__STREAM_METADATA_CUESHEET_INDEX_OFFSET_LEN]
	.loc	1 1861 10
	bl FLAC__bitreader_read_raw_uint64
	bf r0, .LBB34_150
.Ltmp798:
	.loc	1 1855 31
	ldaw r0, r7[6]
	{
		ldc r8, 8
		stw r0, sp[3]
	}
	{
		mov r6, r5
		nop
	}
.Ltmp799:
.LBB34_145:
	{
		nop
		ldw r0, r4[1]
	}
	.loc	1 1864 10
.Ltmp800:
	{
		ldaw r1, sp[53]
		ldw r0, r0[11]
	}
	.loc	1 1864 10
	ldw r2, cp[FLAC__STREAM_METADATA_CUESHEET_INDEX_NUMBER_LEN]
	.loc	1 1864 10
	bl FLAC__bitreader_read_raw_uint32
	bf r0, .LBB34_150
.Ltmp801:
	{
		nop
		ldw r0, sp[53]
	}
	.loc	1 1866 6
	st8 r0, r9[r8]
	{
		nop
		ldw r0, r4[1]
	}
	{
		nop
		ldw r0, r0[11]
	}
	.loc	1 1868 10
.Ltmp802:
	ldw r1, cp[FLAC__STREAM_METADATA_CUESHEET_INDEX_RESERVED_LEN]
	.loc	1 1868 10
	bl FLAC__bitreader_skip_bits_no_crc
	bf r0, .LBB34_150
.Ltmp803:
	.loc	1 1859 40
	{
		add r6, r6, 1
		ld8u r0, r10[r5]
	}
.Ltmp804:
	.loc	1 1859 5
	{
		lsu r0, r6, r0
		nop
	}
	bf r0, .LBB34_147
.Ltmp805:
	.loc	1 1859 5
	ldaw r7, r8[4]
	{
		nop
		ldw r0, sp[3]
	}
	{
		nop
		ldw r9, r0[0]
	}
	{
		nop
		ldw r0, r4[1]
	}
	.loc	1 1861 10
.Ltmp806:
	{
		add r1, r9, r8
		ldw r0, r0[11]
	}
	{
		add r1, r1, 8
		nop
	}
	.loc	1 1861 10
	ldw r2, cp[FLAC__STREAM_METADATA_CUESHEET_INDEX_OFFSET_LEN]
	.loc	1 1861 10
	bl FLAC__bitreader_read_raw_uint64
	{
		mov r8, r7
		nop
	}
	bt r0, .LBB34_145
	bu .LBB34_150
.Ltmp807:
.LBB34_147:
	{
		nop
		ldw r1, sp[4]
	}
	.loc	1 1826 35
	{
		add r1, r1, 1
		nop
	}
.Ltmp808:
	.loc	1 1826 3
	{
		ldaw r0, sp[47]
		stw r1, sp[4]
	}
	{
		nop
		ldw r0, r0[0]
	}
	.loc	1 1826 3
	{
		lsu r0, r1, r0
		nop
	}
.Ltmp809:
	bf r0, .LBB34_148
.Ltmp810:
	.loc	1 1822 26
	{
		ldaw r0, sp[48]
		nop
	}
	{
		nop
		ldw r9, r0[0]
	}
	{
		nop
		ldw r0, r4[1]
	}
	{
		nop
		ldw r0, r0[11]
	}
	{
		nop
		ldw r1, sp[4]
	}
.Ltmp811:
	.loc	1 1828 8
	{
		shl r1, r1, 5
		nop
	}
	{
		add r1, r9, r1
		nop
	}
	.loc	1 1828 8
	ldw r2, cp[FLAC__STREAM_METADATA_CUESHEET_TRACK_OFFSET_LEN]
	.loc	1 1828 8
	bl FLAC__bitreader_read_raw_uint64
	bt r0, .LBB34_131
.Ltmp812:
.LBB34_150:
	{
		ldc r10, 4
		nop
	}
	bu .LBB34_190
.Ltmp813:
.LBB34_151:
	{
		nop
		ldw r0, r4[1]
	}
	{
		nop
		ldw r0, r0[11]
	}
	.loc	1 1885 6
.Ltmp814:
	ldw r2, cp[FLAC__STREAM_METADATA_PICTURE_TYPE_LEN]
	{
		ldaw r1, sp[53]
		nop
	}
.Ltmp815:
	.loc	1 1885 6
	bl FLAC__bitreader_read_raw_uint32
.Ltmp816:
	{
		ldc r5, 0
		nop
	}
	bf r0, .LBB34_190
.Ltmp817:
	.loc	1 1887 5
	{
		ldc r1, 21
		ldw r0, sp[53]
	}
	.loc	1 1887 5
	{
		lsu r1, r0, r1
		ldc r5, 0
	}
	bt r1, .LBB34_154
.Ltmp818:
	.loc	1 1888 3
	{
		mov r0, r5
		nop
	}
.Ltmp819:
.LBB34_154:
	{
		nop
		stw r0, sp[10]
	}
	{
		nop
		ldw r0, r4[1]
	}
	{
		nop
		ldw r0, r0[11]
	}
	.loc	1 1893 6
.Ltmp820:
	ldw r2, cp[FLAC__STREAM_METADATA_PICTURE_MIME_TYPE_LENGTH_LEN]
	{
		ldaw r1, sp[53]
		nop
	}
.Ltmp821:
	.loc	1 1893 6
	bl FLAC__bitreader_read_raw_uint32
.Ltmp822:
	bf r0, .LBB34_190
.Ltmp823:
	{
		nop
		ldw r0, r4[1]
	}
	{
		nop
		ldw r0, r0[11]
	}
	.loc	1 1895 5
.Ltmp824:
	bl FLAC__bitreader_limit_remaining
	{
		nop
		ldw r6, sp[53]
	}
	.loc	1 1895 5
	{
		lsu r0, r0, r6
		nop
	}
	bt r0, .LBB34_156
.Ltmp825:
	.loc	15 128 2
	{
		add r0, r6, 1
		nop
	}
	.loc	15 129 5
.Ltmp826:
	{
		lsu r1, r0, r6
		nop
	}
	bf r1, .LBB34_159
.Ltmp827:
	{
		ldc r0, 0
		nop
	}
	{
		nop
		stw r0, sp[11]
	}
	bu .LBB34_160
.Ltmp828:
.LBB34_71:
	{
		ldc r0, 0
		nop
	}
	{
		nop
		stw r0, sp[11]
	}
	bu .LBB34_190
.Ltmp829:
.LBB34_74:
	{
		mov r5, r8
		nop
	}
	bu .LBB34_190
.Ltmp830:
.LBB34_89:
	{
		ldc r0, 0
		nop
	}
	{
		nop
		stw r0, sp[11]
	}
.Ltmp831:
.LBB34_90:
	{
		nop
		ldw r0, r4[1]
	}
	.loc	1 1717 8
.Ltmp832:
	{
		ldaw r1, sp[12]
		ldw r0, r0[11]
	}
	.loc	1 1717 8
	bl FLAC__bitreader_read_uint32_little_endian
	.loc	1 1717 8
	bf r0, .LBB34_91
.Ltmp833:
	{
		nop
		ldw r0, sp[12]
	}
	ldw r1, cp[.LCPI34_2]
	.loc	1 1721 7
.Ltmp834:
	{
		lsu r1, r0, r1
		nop
	}
	bt r1, .LBB34_94
.Ltmp835:
	{
		ldc r5, 0
		nop
	}
	{
		nop
		stw r5, sp[12]
	}
	bu .LBB34_190
.Ltmp836:
.LBB34_82:
	.loc	15 128 2
	{
		add r0, r6, 1
		nop
	}
	.loc	15 129 5
.Ltmp837:
	{
		lsu r1, r0, r6
		nop
	}
	bf r1, .LBB34_84
.Ltmp838:
	{
		ldc r0, 0
		nop
	}
	{
		nop
		stw r0, sp[11]
	}
	bu .LBB34_85
.Ltmp839:
.LBB34_159:
	.loc	15 93 5
	{
		eq r1, r0, 0
		nop
	}
	.loc	15 93 5
	{
		add r0, r1, r0
		nop
	}
.Ltmp840:
	.loc	15 95 9
	bl malloc
	{
		mov r1, r0
		nop
	}
	{
		nop
		stw r1, sp[11]
	}
	bf r1, .LBB34_160
.Ltmp841:
	{
		ldc r5, 0
		nop
	}
	.loc	1 1903 5
.Ltmp842:
	bf r6, .LBB34_162
.Ltmp843:
	{
		nop
		ldw r0, r4[1]
	}
	.loc	1 1904 7
.Ltmp844:
	{
		mov r2, r6
		ldw r0, r0[11]
	}
	.loc	1 1904 7
	bl FLAC__bitreader_read_byte_block_aligned_no_crc
	.loc	1 1904 7
	bf r0, .LBB34_164
.Ltmp845:
	{
		nop
		ldw r0, sp[53]
	}
	{
		nop
		ldw r1, sp[11]
	}
	bu .LBB34_166
.Ltmp846:
.LBB34_91:
	{
		mov r5, r8
		nop
	}
	bu .LBB34_190
.Ltmp847:
.LBB34_84:
	.loc	15 93 5
	{
		eq r1, r0, 0
		nop
	}
	.loc	15 93 5
	{
		add r0, r1, r0
		nop
	}
.Ltmp848:
	.loc	15 95 9
	bl malloc
	{
		mov r1, r0
		nop
	}
	{
		nop
		stw r1, sp[11]
	}
	bf r1, .LBB34_85
.Ltmp849:
	{
		nop
		ldw r0, r4[1]
	}
	.loc	1 1708 9
.Ltmp850:
	{
		mov r2, r6
		ldw r0, r0[11]
	}
	.loc	1 1708 9
	bl FLAC__bitreader_read_byte_block_aligned_no_crc
	.loc	1 1708 9
	bf r0, .LBB34_87
.Ltmp851:
	.loc	1 1703 5
	{
		sub r9, r9, r6
		ldw r0, sp[10]
	}
.Ltmp852:
	.loc	1 1710 4
	{
		ldc r2, 0
		ldw r1, sp[11]
	}
	.loc	1 1710 4
	st8 r2, r1[r0]
	bu .LBB34_90
.Ltmp853:
.LBB34_85:
	{
		nop
		ldw r0, r4[0]
	}
	.loc	1 1705 5
.Ltmp854:
	{
		mov r5, r8
		stw r7, r0[0]
	}
	bu .LBB34_190
.Ltmp855:
.LBB34_94:
	.loc	1 1726 7
	bf r0, .LBB34_95
.Ltmp856:
	{
		ldc r1, 8
		nop
	}
	.loc	1 1727 30
.Ltmp857:
	bl safe_malloc_mul_2op_p
	{
		mov r1, r0
		nop
	}
	{
		nop
		stw r1, sp[13]
	}
	.loc	1 1727 30
	bf r1, .LBB34_230
.Ltmp858:
	{
		nop
		ldw r0, sp[12]
	}
	.loc	1 1732 4
.Ltmp859:
	bf r0, .LBB34_98
.Ltmp860:
	{
		ldc r6, 0
		nop
	}
	{
		nop
		stw r6, r1[0]
	}
	.loc	1 1735 5
.Ltmp861:
	{
		ldc r0, 4
		stw r6, r1[1]
	}
	.loc	1 1738 9
.Ltmp862:
	{
		lsu r0, r9, r0
		nop
	}
	.loc	1 1738 9
	bf r0, .LBB34_102
.Ltmp863:
	{
		mov r7, r6
		nop
	}
.Ltmp864:
.LBB34_101:
	.loc	1 1739 6
	{
		ldc r10, 4
		stw r7, sp[12]
	}
	bu .LBB34_78
.Ltmp865:
.LBB34_126:
	{
		mov r5, r1
		nop
	}
	bu .LBB34_190
.Ltmp866:
.LBB34_142:
	.loc	1 1823 4
	{
		ldc r1, 8
		ldw r0, r4[0]
	}
	.loc	1 1823 4
	{
		ldc r10, 4
		stw r1, r0[0]
	}
	bu .LBB34_190
.Ltmp867:
.LBB34_162:
	.loc	1 1477 10
	{
		mov r0, r5
		nop
	}
.Ltmp868:
.LBB34_166:
	.loc	1 1907 2
	st8 r5, r1[r0]
	{
		nop
		ldw r0, r4[1]
	}
	{
		nop
		ldw r0, r0[11]
	}
	.loc	1 1910 6
.Ltmp869:
	ldw r2, cp[FLAC__STREAM_METADATA_PICTURE_DESCRIPTION_LENGTH_LEN]
	{
		ldaw r1, sp[53]
		nop
	}
.Ltmp870:
	.loc	1 1910 6
	bl FLAC__bitreader_read_raw_uint32
.Ltmp871:
	bf r0, .LBB34_190
.Ltmp872:
	{
		nop
		ldw r0, r4[1]
	}
	{
		nop
		ldw r0, r0[11]
	}
	.loc	1 1912 5
.Ltmp873:
	bl FLAC__bitreader_limit_remaining
	{
		nop
		ldw r6, sp[53]
	}
	.loc	1 1912 5
	{
		lsu r0, r0, r6
		nop
	}
	bt r0, .LBB34_156
.Ltmp874:
	.loc	15 128 2
	{
		add r0, r6, 1
		nop
	}
	.loc	15 129 5
.Ltmp875:
	{
		lsu r1, r0, r6
		nop
	}
	bf r1, .LBB34_170
.Ltmp876:
	{
		ldc r0, 0
		nop
	}
	{
		nop
		stw r0, sp[12]
	}
	bu .LBB34_160
.Ltmp877:
.LBB34_95:
	{
		ldc r10, 4
		nop
	}
	bu .LBB34_78
.Ltmp878:
.LBB34_164:
	{
		ldc r5, 0
		nop
	}
	bu .LBB34_190
.Ltmp879:
.LBB34_129:
	{
		ldc r5, 0
		ldc r10, 4
	}
	bu .LBB34_190
.Ltmp880:
.LBB34_87:
	{
		mov r5, r8
		nop
	}
	bu .LBB34_190
.Ltmp881:
.LBB34_230:
	{
		ldc r5, 0
		nop
	}
	{
		nop
		stw r5, sp[12]
	}
	.loc	1 1729 5
.Ltmp882:
	{
		ldc r1, 8
		ldw r0, r4[0]
	}
	.loc	1 1729 5
	{
		ldc r10, 4
		stw r1, r0[0]
	}
	bu .LBB34_190
.Ltmp883:
.LBB34_170:
	.loc	15 93 5
	{
		eq r1, r0, 0
		nop
	}
	.loc	15 93 5
	{
		add r0, r1, r0
		nop
	}
.Ltmp884:
	.loc	15 95 9
	bl malloc
	{
		mov r1, r0
		nop
	}
	{
		nop
		stw r1, sp[12]
	}
	bf r1, .LBB34_160
.Ltmp885:
	{
		ldc r5, 0
		nop
	}
	.loc	1 1920 5
.Ltmp886:
	bf r6, .LBB34_172
.Ltmp887:
	{
		nop
		ldw r0, r4[1]
	}
	.loc	1 1921 7
.Ltmp888:
	{
		mov r2, r6
		ldw r0, r0[11]
	}
	.loc	1 1921 7
	bl FLAC__bitreader_read_byte_block_aligned_no_crc
	.loc	1 1921 7
	bf r0, .LBB34_174
.Ltmp889:
	{
		nop
		ldw r0, sp[53]
	}
	{
		nop
		ldw r1, sp[12]
	}
	bu .LBB34_176
.Ltmp890:
.LBB34_98:
	{
		ldc r10, 4
		nop
	}
	bu .LBB34_78
.Ltmp891:
.LBB34_102:
	{
		mov r7, r6
		nop
	}
.Ltmp892:
.LBB34_103:
	{
		nop
		ldw r0, r4[1]
	}
	{
		nop
		ldw r0, r0[11]
	}
	.loc	1 1744 10
.Ltmp893:
	bl FLAC__bitreader_read_uint32_little_endian
	.loc	1 1744 10
	bf r0, .LBB34_104
.Ltmp894:
	.loc	1 1743 6
	{
		sub r9, r9, 4
		ldw r0, sp[13]
	}
.Ltmp895:
	{
		add r10, r0, r6
		nop
	}
	{
		nop
		ldw r8, r10[0]
	}
.Ltmp896:
	.loc	1 1748 9
	bf r8, .LBB34_116
.Ltmp897:
	.loc	1 1749 10
	{
		lsu r1, r9, r8
		nop
	}
	bt r1, .LBB34_108
.Ltmp898:
	.loc	15 128 2
	{
		add r1, r8, 1
		nop
	}
	.loc	15 129 5
.Ltmp899:
	{
		lsu r2, r1, r8
		nop
	}
	bt r2, .LBB34_110
.Ltmp900:
	.loc	15 93 5
	{
		eq r0, r1, 0
		nop
	}
	.loc	15 93 5
	{
		add r0, r0, r1
		nop
	}
.Ltmp901:
	.loc	15 95 9
	bl malloc
	{
		nop
		stw r0, r10[1]
	}
	bf r0, .LBB34_112
.Ltmp902:
	.loc	1 1755 7
	{
		sub r9, r9, r8
		ldw r2, r10[0]
	}
.Ltmp903:
	{
		ldc r1, 0
		nop
	}
.Ltmp904:
	.loc	1 1761 6
	bl memset
	{
		nop
		ldw r0, r4[1]
	}
	{
		nop
		ldw r0, r0[11]
	}
	{
		nop
		ldw r1, r10[1]
	}
	{
		nop
		ldw r2, r10[0]
	}
	.loc	1 1762 11
.Ltmp905:
	bl FLAC__bitreader_read_byte_block_aligned_no_crc
	{
		nop
		ldw r1, sp[13]
	}
	.loc	1 1762 11
	bf r0, .LBB34_114
.Ltmp906:
	{
		add r0, r1, r6
		nop
	}
	{
		nop
		ldw r1, r0[0]
	}
	.loc	1 1769 6
	{
		ldc r2, 0
		ldw r0, r0[1]
	}
	.loc	1 1769 6
	st8 r2, r0[r1]
	bu .LBB34_117
.Ltmp907:
.LBB34_116:
	{
		ldc r0, 0
		nop
	}
	{
		nop
		stw r0, r10[1]
	}
.Ltmp908:
.LBB34_117:
	.loc	1 1732 39
	{
		add r7, r7, 1
		ldw r0, sp[12]
	}
	.loc	1 1732 4
	{
		lsu r0, r7, r0
		nop
	}
	bf r0, .LBB34_118
.Ltmp909:
	.loc	1 1734 5
	{
		shl r1, r7, 3
		ldw r0, sp[13]
	}
	.loc	1 1734 5
	{
		add r1, r0, r1
		add r0, r0, r6
	}
	{
		ldc r2, 0
		nop
	}
	{
		nop
		stw r2, r0[2]
	}
	.loc	1 1735 5
	{
		ldc r0, 4
		stw r2, r0[3]
	}
	.loc	1 1738 9
.Ltmp910:
	{
		lsu r0, r9, r0
		add r6, r6, 8
	}
	bf r0, .LBB34_103
	bu .LBB34_101
.Ltmp911:
.LBB34_172:
	.loc	1 1477 10
	{
		mov r0, r5
		nop
	}
.Ltmp912:
.LBB34_176:
	.loc	1 1924 2
	st8 r5, r1[r0]
	{
		nop
		ldw r0, r4[1]
	}
	.loc	1 1927 6
.Ltmp913:
	{
		ldaw r1, sp[13]
		ldw r0, r0[11]
	}
	.loc	1 1927 6
	ldw r2, cp[FLAC__STREAM_METADATA_PICTURE_WIDTH_LEN]
	.loc	1 1927 6
	bl FLAC__bitreader_read_raw_uint32
	bf r0, .LBB34_190
.Ltmp914:
	{
		nop
		ldw r0, r4[1]
	}
	.loc	1 1931 6
.Ltmp915:
	{
		ldaw r1, sp[14]
		ldw r0, r0[11]
	}
	.loc	1 1931 6
	ldw r2, cp[FLAC__STREAM_METADATA_PICTURE_HEIGHT_LEN]
	.loc	1 1931 6
	bl FLAC__bitreader_read_raw_uint32
	bf r0, .LBB34_190
.Ltmp916:
	{
		nop
		ldw r0, r4[1]
	}
	.loc	1 1935 6
.Ltmp917:
	{
		ldaw r1, sp[15]
		ldw r0, r0[11]
	}
	.loc	1 1935 6
	ldw r2, cp[FLAC__STREAM_METADATA_PICTURE_DEPTH_LEN]
	.loc	1 1935 6
	bl FLAC__bitreader_read_raw_uint32
	bf r0, .LBB34_190
.Ltmp918:
	{
		nop
		ldw r0, r4[1]
	}
	.loc	1 1939 6
.Ltmp919:
	{
		ldaw r1, sp[16]
		ldw r0, r0[11]
	}
	.loc	1 1939 6
	ldw r2, cp[FLAC__STREAM_METADATA_PICTURE_COLORS_LEN]
	.loc	1 1939 6
	bl FLAC__bitreader_read_raw_uint32
	bf r0, .LBB34_190
.Ltmp920:
	{
		nop
		ldw r0, r4[1]
	}
	.loc	1 1943 6
.Ltmp921:
	{
		ldaw r1, sp[17]
		ldw r0, r0[11]
	}
	.loc	1 1943 6
	ldw r2, cp[FLAC__STREAM_METADATA_PICTURE_DATA_LENGTH_LEN]
	.loc	1 1943 6
	bl FLAC__bitreader_read_raw_uint32
	bf r0, .LBB34_190
.Ltmp922:
	{
		nop
		ldw r0, r4[1]
	}
	{
		nop
		ldw r0, r0[11]
	}
	.loc	1 1945 5
.Ltmp923:
	bl FLAC__bitreader_limit_remaining
	{
		nop
		ldw r6, sp[17]
	}
.Ltmp924:
	.loc	1 1945 5
	{
		lsu r0, r0, r6
		nop
	}
	bf r0, .LBB34_182
.Ltmp925:
.LBB34_156:
	{
		nop
		ldw r0, r4[1]
	}
	{
		nop
		ldw r0, r0[11]
	}
	.loc	1 1896 3
.Ltmp926:
	bl FLAC__bitreader_limit_invalidate
	bu .LBB34_190
.Ltmp927:
.LBB34_174:
	{
		ldc r5, 0
		nop
	}
	bu .LBB34_190
.Ltmp928:
.LBB34_118:
	{
		ldc r10, 4
		nop
	}
	bu .LBB34_78
.Ltmp929:
.LBB34_148:
	{
		mkmsk r5, 1
		ldc r10, 4
	}
	bu .LBB34_190
.Ltmp930:
.LBB34_108:
	{
		nop
		stw r7, sp[12]
	}
	{
		nop
		ldw r0, r4[1]
	}
	{
		nop
		ldw r0, r0[11]
	}
	.loc	1 1751 7
.Ltmp931:
	bl FLAC__bitreader_limit_invalidate
	bu .LBB34_105
.Ltmp932:
.LBB34_110:
	.loc	1 1756 41
	{
		shl r1, r7, 3
		nop
	}
	{
		add r0, r0, r1
		ldc r1, 0
	}
	{
		nop
		stw r1, r0[1]
	}
.Ltmp933:
.LBB34_112:
	.loc	1 1757 7
	{
		ldc r1, 8
		ldw r0, r4[0]
	}
	{
		nop
		stw r1, r0[0]
	}
.Ltmp934:
.LBB34_104:
	{
		nop
		stw r7, sp[12]
	}
.Ltmp935:
.LBB34_105:
	{
		ldc r5, 0
		ldc r10, 4
	}
	bu .LBB34_190
.LBB34_114:
.Ltmp936:
	.loc	1 1764 7
	{
		shl r6, r7, 3
		nop
	}
	{
		add r0, r1, r6
		nop
	}
	{
		nop
		ldw r0, r0[1]
	}
	.loc	1 1764 7
	bl free
	{
		nop
		ldw r0, sp[13]
	}
	.loc	1 1765 7
	{
		add r0, r0, r6
		ldc r1, 0
	}
	{
		nop
		stw r1, r0[1]
	}
	bu .LBB34_101
.Ltmp937:
.LBB34_182:
	.loc	15 93 5
	{
		eq r0, r6, 0
		nop
	}
	.loc	15 93 5
	{
		add r0, r0, r6
		nop
	}
.Ltmp938:
	.loc	15 95 9
	bl malloc
	{
		mov r1, r0
		nop
	}
	{
		nop
		stw r1, sp[18]
	}
	bf r1, .LBB34_160
.Ltmp939:
	bf r6, .LBB34_185
.Ltmp940:
	{
		nop
		ldw r0, r4[1]
	}
	.loc	1 1954 7
.Ltmp941:
	{
		mov r2, r6
		ldw r0, r0[11]
	}
	.loc	1 1954 7
	bl FLAC__bitreader_read_byte_block_aligned_no_crc
	bf r0, .LBB34_190
.Ltmp942:
.LBB34_185:
	{
		mkmsk r5, 1
		nop
	}
	bu .LBB34_190
.Ltmp943:
.LBB34_160:
	.loc	1 1900 3
	{
		ldc r1, 8
		ldw r0, r4[0]
	}
	{
		nop
		stw r1, r0[0]
	}
.Ltmp944:
.LBB34_190:
	{
		nop
		ldw r0, r4[1]
	}
	{
		nop
		ldw r0, r0[11]
	}
	.loc	1 1497 7
.Ltmp945:
	bl FLAC__bitreader_limit_remaining
	bf r0, .LBB34_195
.Ltmp946:
	{
		nop
		ldw r0, r4[1]
	}
	ldc r1, 4680
	.loc	1 3241 5
.Ltmp947:
	{
		add r1, r0, r1
		nop
	}
	{
		nop
		ldw r1, r1[0]
	}
	bt r1, .LBB34_193
.Ltmp948:
	{
		nop
		ldw r3, r0[8]
	}
	.loc	1 3242 3
	{
		ldc r1, 4
		ldw r2, r0[9]
	}
	.loc	1 3242 3
	{
		mov r0, r4
		nop
	}
	{
		nop
		bla r3
	}
.Ltmp949:
.LBB34_193:
	{
		nop
		ldw r0, r4[0]
	}
	.loc	1 1502 8
.Ltmp950:
	{
		ldc r5, 0
		ldw r1, r0[0]
	}
	.loc	1 1502 8
	{
		eq r1, r1, 1
		nop
	}
	bf r1, .LBB34_195
.Ltmp951:
	{
		ldc r1, 2
		nop
	}
	{
		nop
		stw r1, r0[0]
	}
.Ltmp952:
.LBB34_195:
	{
		nop
		ldw r0, r4[1]
	}
	{
		nop
		ldw r0, r0[11]
	}
	.loc	1 1506 4
	bl FLAC__bitreader_remove_limit
	bf r5, .LBB34_199
.Ltmp953:
	{
		nop
		ldw r0, r4[1]
	}
	ldc r1, 4680
	.loc	1 1507 7
.Ltmp954:
	{
		add r1, r0, r1
		nop
	}
	{
		nop
		ldw r1, r1[0]
	}
	bt r1, .LBB34_199
.Ltmp955:
	{
		nop
		ldw r3, r0[7]
	}
	bf r3, .LBB34_199
.Ltmp956:
	.loc	1 1508 5
	{
		ldaw r1, sp[6]
		ldw r2, r0[9]
	}
.Ltmp957:
	.loc	1 1508 5
	{
		mov r0, r4
		nop
	}
	{
		nop
		bla r3
	}
.Ltmp958:
.LBB34_199:
	{
		nop
		ldw r0, sp[51]
	}
	.loc	1 1511 4
	{
		sub r0, r0, 1
		ldc r1, 5
	}
	{
		lsu r1, r1, r0
		nop
	}
	bt r1, .LBB34_223
.Ltmp959:

	.xtabranch .Ljumptable2+4,.Ljumptable2+8,.Ljumptable2+12,.Ljumptable2+16,.Ljumptable2+20,.Ljumptable2+24
.Ljumptable2:
		
	{
		nop
		bru r0
	}
	.jmptable32 .LBB34_225,.LBB34_201,.LBB34_223,.LBB34_202,.LBB34_210,.LBB34_218
.Ltmp960:
.LBB34_201:
	{
		nop
		ldw r0, sp[11]
	}
	bt r0, .LBB34_224
	bu .LBB34_225
.Ltmp961:
.LBB34_223:
	{
		nop
		ldw r0, sp[10]
	}
	bt r0, .LBB34_224
	bu .LBB34_225
.Ltmp962:
.LBB34_202:
	{
		nop
		ldw r0, sp[11]
	}
	bf r0, .LBB34_204
.Ltmp963:
	.loc	1 1520 7
	bl free
.Ltmp964:
.LBB34_204:
	{
		nop
		ldw r1, sp[12]
	}
	bf r1, .LBB34_209
.Ltmp965:
	{
		ldc r6, 0
		nop
	}
.Ltmp966:
.LBB34_206:
	{
		nop
		ldw r0, sp[13]
	}
	{
		add r0, r0, r10
		nop
	}
	{
		nop
		ldw r0, r0[0]
	}
	bf r0, .LBB34_208
.Ltmp967:
	.loc	1 1524 9
	bl free
	{
		nop
		ldw r1, sp[12]
	}
.Ltmp968:
.LBB34_208:
	.loc	1 1522 62
	{
		add r6, r6, 1
		add r10, r10, 8
	}
.Ltmp969:
	.loc	1 1522 7
	{
		lsu r0, r6, r1
		nop
	}
	bt r0, .LBB34_206
.Ltmp970:
.LBB34_209:
	{
		nop
		ldw r0, sp[13]
	}
	bt r0, .LBB34_224
	bu .LBB34_225
.Ltmp971:
.LBB34_210:
	.loc	1 1529 9
	{
		ldaw r6, sp[48]
		ldw r1, sp[47]
	}
	bf r1, .LBB34_217
.Ltmp972:
	{
		nop
		ldw r0, r6[0]
	}
	bf r0, .LBB34_217
.Ltmp973:
	.loc	1 1529 9
	{
		ldaw r7, sp[47]
		ldc r8, 0
	}
	{
		ldc r9, 24
		nop
	}
	bu .LBB34_213
.Ltmp974:
.LBB34_216:
	.loc	1 1530 7
	ldaw r9, r9[8]
	{
		nop
		ldw r0, r6[0]
	}
.Ltmp975:
.LBB34_213:
	{
		add r0, r0, r9
		nop
	}
	{
		nop
		ldw r0, r0[0]
	}
	bf r0, .LBB34_215
.Ltmp976:
	.loc	1 1532 9
	bl free
	{
		nop
		ldw r1, r7[0]
	}
.Ltmp977:
.LBB34_215:
	.loc	1 1530 55
	{
		add r8, r8, 1
		nop
	}
.Ltmp978:
	.loc	1 1530 7
	{
		lsu r0, r8, r1
		nop
	}
	bt r0, .LBB34_216
.Ltmp979:
.LBB34_217:
	{
		nop
		ldw r0, r6[0]
	}
	bt r0, .LBB34_224
	bu .LBB34_225
.Ltmp980:
.LBB34_218:
	{
		nop
		ldw r0, sp[11]
	}
	bf r0, .LBB34_220
.Ltmp981:
	.loc	1 1538 7
	bl free
.Ltmp982:
.LBB34_220:
	{
		nop
		ldw r0, sp[12]
	}
	bf r0, .LBB34_222
.Ltmp983:
	.loc	1 1540 7
	bl free
.Ltmp984:
.LBB34_222:
	{
		nop
		ldw r0, sp[18]
	}
	bf r0, .LBB34_225
.Ltmp985:
.LBB34_224:
	.loc	1 1549 7
	bl free
.Ltmp986:
.LBB34_225:
	bf r5, .LBB34_226
.Ltmp987:
.LBB34_63:
	{
		nop
		ldw r6, sp[5]
	}
.Ltmp988:
.LBB34_38:
	{
		mkmsk r5, 1
		nop
	}
	bf r6, .LBB34_229
.Ltmp989:
	{
		nop
		ldw r0, r4[1]
	}
	ldc r7, 8312
.Ltmp990:
	{
		nop
		ldw r3, r0[3]
	}
	bf r3, .LBB34_227
.Ltmp991:
	.loc	1 1560 7
	{
		add r6, r0, r7
		ldw r2, r0[9]
	}
.Ltmp992:
	.loc	1 871 5
	{
		mov r0, r4
		mov r1, r6
	}
	{
		nop
		bla r3
	}
	bt r0, .LBB34_227
.Ltmp993:
	{
		nop
		ldw r0, r4[1]
	}
	{
		nop
		ldw r0, r0[11]
	}
	.loc	1 874 6
.Ltmp994:
	bl FLAC__bitreader_is_consumed_byte_aligned
	bf r0, .LBB34_227
.Ltmp995:
	{
		nop
		ldw r0, r4[1]
	}
	{
		nop
		ldw r0, r0[11]
	}
	.loc	1 1185 9
.Ltmp996:
	bl FLAC__bitreader_get_input_bits_unconsumed
	.loc	1 1185 9
	{
		shr r0, r0, 3
		nop
	}
.Ltmp997:
	.loc	1 877 15
	ldd r2, r1, r6[0]
	{
		ldc r3, 0
		nop
	}
	.loc	1 877 15
	lsub r1, r0, r1, r0, r3
	{
		sub r1, r2, r1
		nop
	}
	.loc	1 877 15
	std r1, r0, r6[0]
	bu .LBB34_228
.Ltmp998:
.LBB34_226:
	{
		ldc r5, 0
		nop
	}
	bu .LBB34_229
.LBB34_227:
.Ltmp999:
	{
		nop
		ldw r0, r4[1]
	}
	.loc	1 1561 4
	{
		add r0, r0, r7
		ldc r1, 0
	}
	.loc	1 1561 4
	std r1, r1, r0[0]
.Ltmp1000:
.LBB34_228:
	.loc	1 1562 3
	{
		ldc r1, 2
		ldw r0, r4[0]
	}
	{
		nop
		stw r1, r0[0]
	}
.Ltmp1001:
.LBB34_229:
	.loc	1 1566 1
	{
		mov r0, r5
		ldw r10, sp[60]
	}
	{
		nop
		ldw r8, sp[58]
	}
	{
		nop
		ldw r9, sp[59]
	}
	{
		nop
		ldw r6, sp[56]
	}
	{
		nop
		ldw r7, sp[57]
	}
	{
		nop
		ldw r4, sp[54]
	}
	{
		nop
		ldw r5, sp[55]
	}
	{
		nop
		retsp 62
	}
	# RETURN_REG_HOLDER
.Ltmp1002:
	.cc_bottom read_metadata_.function
	.set	read_metadata_.nstackwords.pragma,400
	.set	read_metadata_.nstackwords,read_metadata_.nstackwords



.Ltmp1003:
	.size	read_metadata_, .Ltmp1003-read_metadata_
.Lfunc_end34:
	.cfi_endproc

	.align	4
	.type	frame_sync_,@function
	.cc_top frame_sync_.function,frame_sync_
frame_sync_:
.Lfunc_begin35:
	.loc	1 1985 0
	.cfi_startproc
	.issue_mode dual
	{
		nop
		dualentsp 6
	}
.Ltmp1004:
	.cfi_def_cfa_offset 24
.Ltmp1005:
	.cfi_offset 15, 0
	std r5, r4, sp[1]
.Ltmp1006:
	.cfi_offset 4, -16
.Ltmp1007:
	.cfi_offset 5, -12
	std r7, r6, sp[2]
.Ltmp1008:
	.cfi_offset 6, -8
.Ltmp1009:
	.cfi_offset 7, -4
	{
		mov r4, r0
		nop
	}
.Ltmp1010:
	{
		nop
		ldw r0, r4[1]
	}
	{
		nop
		ldw r0, r0[11]
	}
	.loc	1 1990 6 prologue_end
.Ltmp1011:
	bl FLAC__bitreader_is_consumed_byte_aligned
	{
		mkmsk r5, 1
		nop
	}
	bt r0, .LBB35_3
.Ltmp1012:
	{
		nop
		ldw r0, r4[1]
	}
	{
		nop
		ldw r6, r0[11]
	}
	.loc	1 1991 69
.Ltmp1013:
	{
		mov r0, r6
		nop
	}
	bl FLAC__bitreader_bits_left_for_byte_alignment
.Ltmp1014:
	{
		mov r2, r0
		ldaw r1, sp[1]
	}
.Ltmp1015:
	.loc	1 1991 7
	{
		mov r0, r6
		nop
	}
	bl FLAC__bitreader_read_raw_uint32
	bt r0, .LBB35_3
.Ltmp1016:
	{
		ldc r0, 0
		nop
	}
	bu .LBB35_23
.LBB35_15:
.Ltmp1017:
	{
		nop
		ldw r3, r0[8]
	}
	.loc	1 3242 3
.Ltmp1018:
	{
		ldc r5, 0
		ldw r2, r0[9]
	}
	.loc	1 3242 3
	{
		mov r0, r4
		mov r1, r5
	}
	{
		nop
		bla r3
	}
.Ltmp1019:
.LBB35_3:
	{
		mov r6, r5
		ldw r0, r4[1]
	}
	ldc r5, 4632
	.loc	1 1996 6
.Ltmp1020:
	{
		add r1, r0, r5
		nop
	}
	{
		nop
		ldw r2, r1[0]
	}
	.loc	1 1996 6
	bf r2, .LBB35_5
.Ltmp1021:
	ldc r2, 4638
	{
		nop
		ld8u r0, r0[r2]
	}
	.loc	1 1997 4
.Ltmp1022:
	{
		ldc r2, 0
		stw r0, sp[1]
	}
	{
		nop
		stw r2, r1[0]
	}
	bu .LBB35_8
.Ltmp1023:
.LBB35_5:
	.loc	1 2001 8
	{
		ldaw r1, sp[1]
		ldw r0, r0[11]
	}
.Ltmp1024:
	{
		ldc r2, 8
		nop
	}
	.loc	1 2001 8
	bl FLAC__bitreader_read_raw_uint32
	.loc	1 2001 8
	bf r0, .LBB35_6
.Ltmp1025:
	{
		nop
		ldw r0, sp[1]
	}
.Ltmp1026:
.LBB35_8:
	{
		mkmsk r7, 8
		nop
	}
	.loc	1 2004 6
.Ltmp1027:
	{
		eq r0, r0, r7
		nop
	}
	bf r0, .LBB35_13
.Ltmp1028:
	{
		nop
		ldw r0, r4[1]
	}
	ldc r1, 4636
	.loc	1 2005 4
.Ltmp1029:
	st8 r7, r0[r1]
	{
		nop
		ldw r0, r4[1]
	}
.Ltmp1030:
	.loc	1 2006 8
	{
		ldaw r1, sp[1]
		ldw r0, r0[11]
	}
.Ltmp1031:
	{
		ldc r2, 8
		nop
	}
	.loc	1 2006 8
	bl FLAC__bitreader_read_raw_uint32
	.loc	1 2006 8
	bf r0, .LBB35_10
.Ltmp1032:
	{
		nop
		ldw r0, sp[1]
	}
	.loc	1 2011 7
.Ltmp1033:
	{
		eq r1, r0, r7
		nop
	}
	bf r1, .LBB35_16
.Ltmp1034:
	{
		nop
		ldw r0, r4[1]
	}
	ldc r1, 4638
	.loc	1 2012 5
.Ltmp1035:
	st8 r7, r0[r1]
	.loc	1 2013 5
	{
		add r0, r0, r5
		mkmsk r1, 1
	}
	{
		nop
		stw r1, r0[0]
	}
	bu .LBB35_13
.Ltmp1036:
.LBB35_16:
	.loc	1 2015 12
	{
		shr r1, r0, 1
		nop
	}
	ldc r2, 124
	{
		eq r1, r1, r2
		nop
	}
	bt r1, .LBB35_17
.Ltmp1037:
.LBB35_13:
	{
		ldc r5, 0
		nop
	}
	bf r6, .LBB35_3
.Ltmp1038:
	{
		nop
		ldw r0, r4[1]
	}
	ldc r1, 4680
	.loc	1 3241 5
.Ltmp1039:
	{
		add r1, r0, r1
		nop
	}
	{
		nop
		ldw r1, r1[0]
	}
	bt r1, .LBB35_3
	bu .LBB35_15
.Ltmp1040:
.LBB35_10:
	{
		ldc r0, 0
		nop
	}
	bu .LBB35_23
.LBB35_6:
	{
		ldc r0, 0
		nop
	}
	bu .LBB35_23
.LBB35_17:
.Ltmp1041:
	{
		nop
		ldw r1, r4[1]
	}
	ldc r2, 4637
	.loc	1 2016 5
.Ltmp1042:
	st8 r0, r1[r2]
	.loc	1 2017 5
	{
		mkmsk r1, 2
		ldw r0, r4[0]
	}
	{
		nop
		stw r1, r0[0]
	}
	{
		nop
		ldw r0, r4[1]
	}
	{
		nop
		ldw r0, r0[11]
	}
	.loc	1 2021 5
	bl FLAC__bitreader_set_framesync_location
	{
		nop
		ldw r0, r4[1]
	}
	ldc r6, 8320
.Ltmp1043:
	{
		nop
		ldw r3, r0[3]
	}
	bf r3, .LBB35_21
.Ltmp1044:
	.loc	1 2022 9
	{
		add r5, r0, r6
		ldw r2, r0[9]
	}
.Ltmp1045:
	.loc	1 871 5
	{
		mov r0, r4
		mov r1, r5
	}
	{
		nop
		bla r3
	}
	bt r0, .LBB35_21
.Ltmp1046:
	{
		nop
		ldw r0, r4[1]
	}
	{
		nop
		ldw r0, r0[11]
	}
	.loc	1 874 6
.Ltmp1047:
	bl FLAC__bitreader_is_consumed_byte_aligned
	bf r0, .LBB35_21
.Ltmp1048:
	{
		nop
		ldw r0, r4[1]
	}
	{
		nop
		ldw r0, r0[11]
	}
	.loc	1 1185 9
.Ltmp1049:
	bl FLAC__bitreader_get_input_bits_unconsumed
	.loc	1 1185 9
	{
		shr r0, r0, 3
		nop
	}
.Ltmp1050:
	.loc	1 877 15
	ldd r2, r1, r5[0]
	{
		ldc r3, 0
		nop
	}
	.loc	1 877 15
	lsub r1, r0, r1, r0, r3
	{
		sub r1, r2, r1
		nop
	}
	.loc	1 877 15
	std r1, r0, r5[0]
	bu .LBB35_22
.Ltmp1051:
.LBB35_21:
	{
		nop
		ldw r0, r4[1]
	}
	.loc	1 2023 6
	{
		add r0, r0, r6
		ldc r1, 0
	}
	.loc	1 2023 6
	std r1, r1, r0[0]
.Ltmp1052:
.LBB35_22:
	{
		mkmsk r0, 1
		nop
	}
.LBB35_23:
	.loc	1 2034 1
	ldd r7, r6, sp[2]
	ldd r5, r4, sp[1]
	{
		nop
		retsp 6
	}
	# RETURN_REG_HOLDER
.Ltmp1053:
	.cc_bottom frame_sync_.function
	.set	frame_sync_.nstackwords.pragma,400
	.set	frame_sync_.nstackwords,frame_sync_.nstackwords



.Ltmp1054:
	.size	frame_sync_, .Ltmp1054-frame_sync_
.Lfunc_end35:
	.cfi_endproc

	.section	.cp.rodata.cst4,"aMc",@progbits,4
	.cc_top .LCPI36_0.data,.LCPI36_0
	.align	4
	.type	.LCPI36_0,@object
	.size	.LCPI36_0, 4
.LCPI36_0:
	.long	96000
	.cc_bottom .LCPI36_0.data
	.cc_top .LCPI36_1.data,.LCPI36_1
	.align	4
	.type	.LCPI36_1,@object
	.size	.LCPI36_1, 4
.LCPI36_1:
	.long	192000
	.cc_bottom .LCPI36_1.data
	.cc_top .LCPI36_2.data,.LCPI36_2
	.align	4
	.type	.LCPI36_2,@object
	.size	.LCPI36_2, 4
.LCPI36_2:
	.long	176400
	.cc_bottom .LCPI36_2.data
	.cc_top .LCPI36_3.data,.LCPI36_3
	.align	4
	.type	.LCPI36_3,@object
	.size	.LCPI36_3, 4
.LCPI36_3:
	.long	88200
	.cc_bottom .LCPI36_3.data
	.cc_top .LCPI36_4.data,.LCPI36_4
	.align	4
	.type	.LCPI36_4,@object
	.size	.LCPI36_4, 4
.LCPI36_4:
	.long	2147483648
	.cc_bottom .LCPI36_4.data
	.cc_top .LCPI36_5.data,.LCPI36_5
	.align	4
	.type	.LCPI36_5,@object
	.size	.LCPI36_5, 4
.LCPI36_5:
	.long	2147483647
	.cc_bottom .LCPI36_5.data
	.text
	.align	4
	.type	read_frame_,@function
	.cc_top read_frame_.function,read_frame_
read_frame_:
.Lfunc_begin36:
	.loc	1 2038 0
	.cfi_startproc
	.issue_mode dual
	DUALENTSP_lu6 906
.Ltmp1055:
	.cfi_def_cfa_offset 3624
.Ltmp1056:
	.cfi_offset 15, 0
	stw r4, sp[898]
	stw r5, sp[899]
.Ltmp1057:
	.cfi_offset 4, -32
.Ltmp1058:
	.cfi_offset 5, -28
	stw r6, sp[900]
	stw r7, sp[901]
.Ltmp1059:
	.cfi_offset 6, -24
.Ltmp1060:
	.cfi_offset 7, -20
	stw r8, sp[902]
	stw r9, sp[903]
.Ltmp1061:
	.cfi_offset 8, -16
.Ltmp1062:
	.cfi_offset 9, -12
	stw r10, sp[904]
.Ltmp1063:
	.cfi_offset 10, -8
	{
		nop
		stw r2, sp[13]
	}
.Ltmp1064:
	{
		mov r4, r0
		stw r1, sp[12]
	}
.Ltmp1065:
	.loc	1 2272 2 prologue_end
	{
		ldc r7, 0
		nop
	}
	{
		nop
		stw r7, r1[0]
	}
.Ltmp1066:
	{
		nop
		ldw r0, r4[1]
	}
	ldc r1, 116
.Ltmp1067:
	.loc	1 2045 2
	{
		add r1, r0, r1
		nop
	}
	{
		nop
		stw r7, r1[0]
	}
	ldc r5, 4636
.Ltmp1068:
	{
		nop
		ld8u r1, r0[r5]
	}
	.loc	1 2049 2
	ldaw r11, cp[FLAC__crc16_table]
	{
		nop
		ld16s r1, r11[r1]
	}
	.loc	1 2049 2
	{
		zext r1, 16
		nop
	}
	.loc	1 2050 2
	{
		shl r2, r1, 8
		shr r1, r1, 8
	}
	ldc r6, 4637
	{
		nop
		ld8u r3, r0[r6]
	}
	.loc	1 2050 2
	xor r1, r1, r3
	{
		nop
		ld16s r1, r11[r1]
	}
	.loc	1 2050 2
	xor r1, r2, r1
.Ltmp1069:
	.loc	1 2051 2
	{
		zext r1, 16
		ldw r0, r0[11]
	}
.Ltmp1070:
	.loc	1 2051 2
	bl FLAC__bitreader_reset_read_crc16
.Ltmp1071:
	{
		nop
		ldw r0, r4[1]
	}
.Ltmp1072:
	.loc	1 2271 2
	{
		ldaw r2, sp[14]
		ld8u r1, r0[r5]
	}
.Ltmp1073:
	.loc	1 2271 2
	st8 r1, r2[r7]
	.loc	1 2272 2
	{
		mkmsk r6, 1
		ld8u r5, r0[r6]
	}
	.loc	1 2272 2
	{
		or r1, r2, r6
		nop
	}
.Ltmp1074:
	.loc	1 2272 2
	st8 r5, r1[r7]
	{
		ldc r9, 2
		nop
	}
.Ltmp1075:
	.loc	1 2273 2
	stw r9, sp[896]
.Ltmp1076:
	{
		nop
		ldw r0, r0[11]
	}
	ldaw r1, sp[897]
.Ltmp1077:
	{
		ldc r2, 8
		nop
	}
	.loc	1 2302 7
.Ltmp1078:
	bl FLAC__bitreader_read_raw_uint32
.Ltmp1079:
	bf r0, .LBB36_320
.Ltmp1080:
	.loc	1 2276 5
	{
		shr r8, r5, 1
		nop
	}
	.loc	1 2276 5
	{
		zext r8, 1
		mkmsk r10, 8
	}
	ldaw r5, sp[897]
.Ltmp1081:
.LBB36_2:
	.loc	1 2304 6
	ldw r1, sp[897]
	.loc	1 2304 6
	{
		eq r0, r1, r10
		nop
	}
	bt r0, .LBB36_3
.Ltmp1082:
	.loc	1 2312 3
	ldw r0, sp[896]
	.loc	1 2312 3
	{
		add r2, r0, 1
		nop
	}
.Ltmp1083:
	.loc	1 2312 3
	stw r2, sp[896]
	{
		ldaw r2, sp[14]
		nop
	}
.Ltmp1084:
	.loc	1 2312 3
	st8 r1, r2[r0]
.Ltmp1085:
	.loc	1 2301 2
	{
		add r7, r7, 1
		nop
	}
	.loc	1 2301 2
	{
		lsu r0, r6, r7
		nop
	}
	bt r0, .LBB36_10
.Ltmp1086:
	{
		nop
		ldw r0, r4[1]
	}
.Ltmp1087:
	.loc	1 2302 7
	{
		mov r1, r5
		ldw r0, r0[11]
	}
	{
		ldc r2, 8
		nop
	}
	.loc	1 2302 7
	bl FLAC__bitreader_read_raw_uint32
	bt r0, .LBB36_2
	bu .LBB36_320
.Ltmp1088:
.LBB36_10:
	{
		ldaw r0, sp[14]
		nop
	}
	.loc	1 2315 2
	{
		or r1, r0, r9
		ldc r0, 0
	}
	{
		nop
		ld8u r2, r1[r0]
	}
	.loc	1 2315 2
	{
		shr r7, r2, 4
		nop
	}
.Ltmp1089:
	.loc	1 2315 2
	stw r7, sp[897]
	bt r0, .LBB36_17
.Ltmp1090:

	.xtabranch .Ljumptable3+4,.Ljumptable3+8,.Ljumptable3+12,.Ljumptable3+16,.Ljumptable3+20,.Ljumptable3+24,.Ljumptable3+28,.Ljumptable3+32,.Ljumptable3+36,.Ljumptable3+40,.Ljumptable3+44,.Ljumptable3+48,.Ljumptable3+52,.Ljumptable3+56,.Ljumptable3+60,.Ljumptable3+64
.Ljumptable3:
		
	{
		nop
		bru r7
	}
	.jmptable32 .LBB36_12,.LBB36_13,.LBB36_14,.LBB36_14,.LBB36_14,.LBB36_14,.LBB36_18,.LBB36_18,.LBB36_15,.LBB36_15,.LBB36_15,.LBB36_15,.LBB36_15,.LBB36_15,.LBB36_15,.LBB36_15
.Ltmp1091:
.LBB36_15:
	.loc	1 2340 4
	{
		sub r2, r7, 8
		nop
	}
	ldc r3, 256
	bu .LBB36_16
.Ltmp1092:
.LBB36_14:
	.loc	1 2326 4
	{
		sub r2, r7, 2
		nop
	}
	ldc r3, 576
.Ltmp1093:
.LBB36_16:
	.loc	1 2340 4
	{
		shl r2, r3, r2
		ldw r3, r4[1]
	}
	ldc r11, 1128
	.loc	1 2340 4
	{
		add r3, r3, r11
		nop
	}
	{
		nop
		stw r2, r3[0]
	}
.Ltmp1094:
.LBB36_17:
	.loc	1 2053 6
	{
		mov r7, r0
		nop
	}
.LBB36_18:
	{
		mov r6, r8
		nop
	}
.LBB36_19:
.Ltmp1095:
	{
		nop
		ld8u r10, r1[r0]
	}
	.loc	1 2347 2
.Ltmp1096:
	{
		zext r10, 4
		nop
	}
.Ltmp1097:
	.loc	1 2347 2
	stw r10, sp[897]
	bt r0, .LBB36_23
.Ltmp1098:

	.xtabranch .Ljumptable4+4,.Ljumptable4+8,.Ljumptable4+12,.Ljumptable4+16,.Ljumptable4+20,.Ljumptable4+24,.Ljumptable4+28,.Ljumptable4+32,.Ljumptable4+36,.Ljumptable4+40,.Ljumptable4+44,.Ljumptable4+48,.Ljumptable4+52,.Ljumptable4+56,.Ljumptable4+60,.Ljumptable4+64
.Ljumptable4:
		
	{
		nop
		bru r10
	}
	.jmptable32 .LBB36_21,.LBB36_30,.LBB36_31,.LBB36_32,.LBB36_33,.LBB36_35,.LBB36_36,.LBB36_37,.LBB36_38,.LBB36_39,.LBB36_40,.LBB36_41,.LBB36_24,.LBB36_24,.LBB36_24,.LBB36_42
.Ltmp1099:
.LBB36_21:
	{
		nop
		ldw r1, r4[1]
	}
	ldc r2, 240
	.loc	1 2349 7
.Ltmp1100:
	{
		add r2, r1, r2
		nop
	}
	{
		nop
		ldw r2, r2[0]
	}
	.loc	1 2349 7
	bf r2, .LBB36_22
.Ltmp1101:
	ldc r2, 280
	.loc	1 2350 5
	{
		add r2, r1, r2
		nop
	}
	{
		nop
		ldw r2, r2[0]
	}
	ldc r3, 1132
	.loc	1 2350 5
	{
		add r1, r1, r3
		nop
	}
	{
		nop
		stw r2, r1[0]
	}
	bu .LBB36_23
.Ltmp1102:
.LBB36_12:
	.loc	1 2053 6
	{
		mov r7, r0
		nop
	}
	bu .LBB36_19
.Ltmp1103:
.LBB36_13:
	{
		nop
		ldw r2, r4[1]
	}
	ldc r3, 1128
	.loc	1 2320 4
.Ltmp1104:
	{
		add r2, r2, r3
		nop
	}
	ldc r3, 192
	{
		nop
		stw r3, r2[0]
	}
	bu .LBB36_17
.Ltmp1105:
.LBB36_30:
	{
		nop
		ldw r1, r4[1]
	}
	ldc r2, 1132
	.loc	1 2355 4
.Ltmp1106:
	{
		add r1, r1, r2
		nop
	}
	ldw r2, cp[.LCPI36_3]
	{
		nop
		stw r2, r1[0]
	}
	bu .LBB36_23
.Ltmp1107:
.LBB36_31:
	{
		nop
		ldw r1, r4[1]
	}
	ldc r2, 1132
	.loc	1 2358 4
	{
		add r1, r1, r2
		nop
	}
	ldw r2, cp[.LCPI36_2]
	{
		nop
		stw r2, r1[0]
	}
	bu .LBB36_23
.Ltmp1108:
.LBB36_32:
	{
		nop
		ldw r1, r4[1]
	}
	ldc r2, 1132
	.loc	1 2361 4
	{
		add r1, r1, r2
		nop
	}
	ldw r2, cp[.LCPI36_1]
	{
		nop
		stw r2, r1[0]
	}
	bu .LBB36_23
.Ltmp1109:
.LBB36_33:
	{
		nop
		ldw r1, r4[1]
	}
	ldc r2, 1132
	.loc	1 2364 4
	{
		add r1, r1, r2
		nop
	}
	ldc r2, 8000
	{
		nop
		stw r2, r1[0]
	}
	bu .LBB36_23
.Ltmp1110:
.LBB36_35:
	{
		nop
		ldw r1, r4[1]
	}
	ldc r2, 1132
	.loc	1 2367 4
	{
		add r1, r1, r2
		nop
	}
	ldc r2, 16000
	{
		nop
		stw r2, r1[0]
	}
	bu .LBB36_23
.Ltmp1111:
.LBB36_36:
	{
		nop
		ldw r1, r4[1]
	}
	ldc r2, 1132
	.loc	1 2370 4
	{
		add r1, r1, r2
		nop
	}
	ldc r2, 22050
	{
		nop
		stw r2, r1[0]
	}
	bu .LBB36_23
.Ltmp1112:
.LBB36_37:
	{
		nop
		ldw r1, r4[1]
	}
	ldc r2, 1132
	.loc	1 2373 4
	{
		add r1, r1, r2
		nop
	}
	ldc r2, 24000
	{
		nop
		stw r2, r1[0]
	}
	bu .LBB36_23
.Ltmp1113:
.LBB36_38:
	{
		nop
		ldw r1, r4[1]
	}
	ldc r2, 1132
	.loc	1 2376 4
	{
		add r1, r1, r2
		nop
	}
	ldc r2, 32000
	{
		nop
		stw r2, r1[0]
	}
	bu .LBB36_23
.Ltmp1114:
.LBB36_39:
	{
		nop
		ldw r1, r4[1]
	}
	ldc r2, 1132
	.loc	1 2379 4
	{
		add r1, r1, r2
		nop
	}
	ldc r2, 44100
	{
		nop
		stw r2, r1[0]
	}
	bu .LBB36_23
.Ltmp1115:
.LBB36_40:
	{
		nop
		ldw r1, r4[1]
	}
	ldc r2, 1132
	.loc	1 2382 4
	{
		add r1, r1, r2
		nop
	}
	ldc r2, 48000
	{
		nop
		stw r2, r1[0]
	}
	bu .LBB36_23
.Ltmp1116:
.LBB36_41:
	{
		nop
		ldw r1, r4[1]
	}
	ldc r2, 1132
	.loc	1 2385 4
	{
		add r1, r1, r2
		nop
	}
	ldw r2, cp[.LCPI36_0]
	{
		nop
		stw r2, r1[0]
	}
	bu .LBB36_23
.Ltmp1117:
.LBB36_42:
	{
		nop
		ldw r0, r4[1]
	}
	bu .LBB36_4
.Ltmp1118:
.LBB36_22:
	{
		mkmsk r6, 1
		nop
	}
.Ltmp1119:
.LBB36_23:
	.loc	1 2053 6
	{
		mov r10, r0
		nop
	}
.LBB36_24:
.Ltmp1120:
	{
		mkmsk r2, 2
		ldaw r1, sp[14]
	}
	.loc	1 2400 2
.Ltmp1121:
	{
		or r1, r1, r2
		nop
	}
	{
		nop
		ld8u r0, r1[r0]
	}
	.loc	1 2400 2
	{
		shr r0, r0, 4
		nop
	}
.Ltmp1122:
	.loc	1 2400 2
	stw r0, sp[897]
	{
		ldc r3, 8
		nop
	}
	.loc	1 2401 5
.Ltmp1123:
	{
		and r3, r0, r3
		nop
	}
	bf r3, .LBB36_46
.Ltmp1124:
	{
		nop
		ldw r0, r4[1]
	}
	ldc r3, 1136
	.loc	1 2402 3
.Ltmp1125:
	{
		add r3, r0, r3
		nop
	}
	{
		nop
		stw r9, r3[0]
	}
	.loc	1 2403 3
	ldw r3, sp[897]
	.loc	1 2403 3
	{
		zext r3, 3
		nop
	}
	.loc	1 2403 3
	{
		eq r11, r3, 2
		nop
	}
	bt r11, .LBB36_45
.Ltmp1126:
	{
		eq r2, r3, 1
		nop
	}
	bf r2, .LBB36_27
.Ltmp1127:
	ldc r2, 1140
	.loc	1 2408 5
.Ltmp1128:
	{
		add r2, r0, r2
		nop
	}
	{
		nop
		stw r9, r2[0]
	}
	bu .LBB36_48
.Ltmp1129:
.LBB36_46:
	.loc	1 2419 3
	{
		add r2, r0, 1
		ldw r0, r4[1]
	}
.Ltmp1130:
	ldc r3, 1136
	.loc	1 2419 3
	{
		add r3, r0, r3
		nop
	}
	{
		nop
		stw r2, r3[0]
	}
	ldc r2, 1140
	.loc	1 2420 3
	{
		add r2, r0, r2
		ldc r3, 0
	}
	bu .LBB36_47
.Ltmp1131:
.LBB36_45:
	ldc r3, 1140
	.loc	1 2411 5
.Ltmp1132:
	{
		add r3, r0, r3
		nop
	}
	{
		nop
		stw r2, r3[0]
	}
	bu .LBB36_48
.Ltmp1133:
.LBB36_27:
	bt r3, .LBB36_28
.Ltmp1134:
	ldc r2, 1140
	.loc	1 2405 5
	{
		add r2, r0, r2
		mkmsk r3, 1
	}
.Ltmp1135:
.LBB36_47:
	{
		nop
		stw r3, r2[0]
	}
	bu .LBB36_48
.LBB36_28:
.Ltmp1136:
	{
		mkmsk r6, 1
		nop
	}
.Ltmp1137:
.LBB36_48:
	.loc	1 2423 2
	{
		ldc r11, 0
		nop
	}
	{
		nop
		ld8u r2, r1[r11]
	}
	.loc	1 2423 2
	{
		shr r2, r2, 1
		nop
	}
	.loc	1 2423 2
	{
		zext r2, 3
		nop
	}
.Ltmp1138:
	.loc	1 2423 2
	stw r2, sp[897]
	{
		mkmsk r3, 3
		nop
	}
	.loc	1 2423 2
	{
		lsu r3, r3, r2
		nop
	}
	bt r3, .LBB36_61
.Ltmp1139:

	.xtabranch .Ljumptable5+4,.Ljumptable5+8,.Ljumptable5+12,.Ljumptable5+16,.Ljumptable5+20,.Ljumptable5+24,.Ljumptable5+28,.Ljumptable5+32
.Ljumptable5:
		
	{
		nop
		bru r2
	}
	.jmptable32 .LBB36_50,.LBB36_53,.LBB36_54,.LBB36_55,.LBB36_56,.LBB36_57,.LBB36_58,.LBB36_59
.Ltmp1140:
.LBB36_50:
	ldc r2, 240
	.loc	1 2425 7
.Ltmp1141:
	{
		add r2, r0, r2
		nop
	}
	{
		nop
		ldw r2, r2[0]
	}
	.loc	1 2425 7
	bf r2, .LBB36_51
.Ltmp1142:
	ldc r2, 288
	.loc	1 2426 5
	{
		add r2, r0, r2
		nop
	}
	{
		nop
		ldw r2, r2[0]
	}
	ldc r3, 1144
	.loc	1 2426 5
	{
		add r3, r0, r3
		nop
	}
	{
		nop
		stw r2, r3[0]
	}
	bu .LBB36_61
.Ltmp1143:
.LBB36_53:
	ldc r2, 1144
	.loc	1 2431 4
	{
		add r2, r0, r2
		ldc r3, 8
	}
	bu .LBB36_60
.Ltmp1144:
.LBB36_54:
	ldc r2, 1144
	.loc	1 2434 4
	{
		add r2, r0, r2
		ldc r3, 12
	}
	bu .LBB36_60
.Ltmp1145:
.LBB36_55:
	{
		mkmsk r6, 1
		nop
	}
	bu .LBB36_61
.Ltmp1146:
.LBB36_56:
	ldc r2, 1144
	.loc	1 2440 4
	{
		add r2, r0, r2
		ldc r3, 16
	}
	bu .LBB36_60
.Ltmp1147:
.LBB36_57:
	ldc r2, 1144
	.loc	1 2443 4
	{
		add r2, r0, r2
		ldc r3, 20
	}
	bu .LBB36_60
.Ltmp1148:
.LBB36_58:
	ldc r2, 1144
	.loc	1 2446 4
	{
		add r2, r0, r2
		ldc r3, 24
	}
	bu .LBB36_60
.Ltmp1149:
.LBB36_59:
	ldc r2, 1144
	.loc	1 2449 4
	{
		add r2, r0, r2
		ldc r3, 32
	}
.Ltmp1150:
.LBB36_60:
	{
		nop
		stw r3, r2[0]
	}
.LBB36_61:
.Ltmp1151:
	{
		nop
		ld8u r8, r1[r11]
	}
	.loc	1 2458 5
.Ltmp1152:
	{
		zext r8, 1
		mkmsk r2, 1
	}
	{
		ldaw r1, sp[14]
		nop
	}
.Ltmp1153:
	.loc	1 2464 3
	{
		or r1, r1, r2
		nop
	}
	{
		nop
		ld8u r1, r1[r11]
	}
	.loc	1 2464 3
	{
		zext r1, 1
		nop
	}
	bt r1, .LBB36_64
.Ltmp1154:
	ldc r1, 240
	.loc	1 2464 3
	{
		add r1, r0, r1
		nop
	}
	{
		nop
		ldw r1, r1[0]
	}
	bf r1, .LBB36_68
.Ltmp1155:
	ldc r1, 264
	.loc	1 2464 3
	{
		add r1, r0, r1
		nop
	}
	{
		nop
		ldw r1, r1[0]
	}
	ldc r2, 268
	.loc	1 2464 3
	{
		add r2, r0, r2
		nop
	}
	{
		nop
		ldw r2, r2[0]
	}
	.loc	1 2464 3
	{
		eq r1, r1, r2
		nop
	}
	bf r1, .LBB36_64
.Ltmp1156:
.LBB36_68:
	{
		nop
		ldw r0, r0[11]
	}
	ldaw r1, sp[897]
.Ltmp1157:
	{
		ldaw r5, sp[14]
		nop
	}
	ldaw r3, sp[896]
.Ltmp1158:
	.loc	1 2481 7
	{
		mov r2, r5
		nop
	}
	bl FLAC__bitreader_read_utf8_uint32
.Ltmp1159:
	bf r0, .LBB36_320
.Ltmp1160:
	.loc	1 2483 6
	ldw r1, sp[897]
	{
		mkmsk r0, 32
		nop
	}
	.loc	1 2483 6
	{
		eq r2, r1, r0
		nop
	}
	bt r2, .LBB36_66
.Ltmp1161:
	{
		nop
		ldw r0, r4[1]
	}
	ldc r2, 1148
	.loc	1 2490 3
	{
		add r2, r0, r2
		ldc r3, 0
	}
	{
		nop
		stw r3, r2[0]
	}
	ldc r2, 1152
	.loc	1 2491 3
	{
		add r2, r0, r2
		nop
	}
	{
		nop
		stw r1, r2[0]
	}
	bu .LBB36_71
.Ltmp1162:
.LBB36_64:
	{
		nop
		ldw r0, r0[11]
	}
	ldaw r1, sp[892]
.Ltmp1163:
	{
		ldaw r5, sp[14]
		nop
	}
	ldaw r3, sp[896]
.Ltmp1164:
	.loc	1 2468 7
	{
		mov r2, r5
		nop
	}
	bl FLAC__bitreader_read_utf8_uint64
.Ltmp1165:
	bf r0, .LBB36_320
.Ltmp1166:
	.loc	1 2470 6
	ldw r1, sp[892]
	ldw r2, sp[893]
	.loc	1 2470 6
	{
		and r3, r1, r2
		mkmsk r0, 32
	}
	{
		eq r3, r3, r0
		nop
	}
	bt r3, .LBB36_66
.Ltmp1167:
	{
		nop
		ldw r0, r4[1]
	}
	ldc r3, 1148
	.loc	1 2477 3
	{
		add r3, r0, r3
		mkmsk r11, 1
	}
	{
		nop
		stw r11, r3[0]
	}
	ldc r3, 1152
	.loc	1 2478 3
	{
		add r3, r0, r3
		nop
	}
	.loc	1 2478 3
	std r2, r1, r3[0]
.Ltmp1168:
.LBB36_71:
	bf r7, .LBB36_77
.Ltmp1169:
	{
		nop
		ldw r0, r0[11]
	}
	ldaw r1, sp[897]
.Ltmp1170:
	{
		ldc r2, 8
		nop
	}
	.loc	1 2495 7
.Ltmp1171:
	bl FLAC__bitreader_read_raw_uint32
.Ltmp1172:
	bf r0, .LBB36_320
.Ltmp1173:
	.loc	1 2497 3
	ldw r0, sp[897]
	.loc	1 2497 3
	ldw r1, sp[896]
	.loc	1 2497 3
	{
		add r2, r1, 1
		nop
	}
.Ltmp1174:
	.loc	1 2497 3
	stw r2, sp[896]
	{
		ldaw r2, sp[14]
		nop
	}
.Ltmp1175:
	.loc	1 2497 3
	st8 r0, r2[r1]
	.loc	1 2498 6
.Ltmp1176:
	{
		eq r1, r7, 7
		nop
	}
	bf r1, .LBB36_76
.Ltmp1177:
	{
		nop
		ldw r0, r4[1]
	}
	{
		nop
		ldw r0, r0[11]
	}
	ldaw r1, sp[895]
.Ltmp1178:
	{
		ldc r2, 8
		nop
	}
	.loc	1 2500 8
.Ltmp1179:
	bl FLAC__bitreader_read_raw_uint32
.Ltmp1180:
	bf r0, .LBB36_320
.Ltmp1181:
	.loc	1 2502 4
	ldw r0, sp[895]
	.loc	1 2502 4
	ldw r1, sp[896]
	.loc	1 2502 4
	{
		add r2, r1, 1
		nop
	}
.Ltmp1182:
	.loc	1 2502 4
	stw r2, sp[896]
	{
		ldaw r2, sp[14]
		nop
	}
.Ltmp1183:
	.loc	1 2502 4
	st8 r0, r2[r1]
	.loc	1 2503 4
	ldw r1, sp[897]
	.loc	1 2503 4
	{
		shl r1, r1, 8
		nop
	}
	.loc	1 2503 4
	{
		or r0, r1, r0
		nop
	}
.Ltmp1184:
	.loc	1 2503 4
	stw r0, sp[897]
.Ltmp1185:
.LBB36_76:
	.loc	1 2505 3
	{
		add r1, r0, 1
		ldw r0, r4[1]
	}
	ldc r2, 1128
	.loc	1 2505 3
	{
		add r2, r0, r2
		nop
	}
	{
		nop
		stw r1, r2[0]
	}
.Ltmp1186:
.LBB36_77:
	bf r10, .LBB36_84
.Ltmp1187:
	{
		nop
		ldw r0, r0[11]
	}
	ldaw r1, sp[897]
.Ltmp1188:
	{
		ldc r2, 8
		nop
	}
	.loc	1 2509 7
.Ltmp1189:
	bl FLAC__bitreader_read_raw_uint32
.Ltmp1190:
	bf r0, .LBB36_320
.Ltmp1191:
	.loc	1 2511 3
	ldw r0, sp[897]
	.loc	1 2511 3
	ldw r1, sp[896]
	.loc	1 2511 3
	{
		add r2, r1, 1
		nop
	}
.Ltmp1192:
	.loc	1 2511 3
	stw r2, sp[896]
	{
		ldaw r2, sp[14]
		nop
	}
.Ltmp1193:
	.loc	1 2511 3
	st8 r0, r2[r1]
	{
		ldc r1, 12
		nop
	}
	.loc	1 2512 6
.Ltmp1194:
	{
		eq r1, r10, r1
		nop
	}
	.loc	1 2512 6
	bf r1, .LBB36_80
.Ltmp1195:
	ldc r1, 1000
	.loc	1 2520 4
.Ltmp1196:
	mul r1, r0, r1
	bu .LBB36_83
.Ltmp1197:
.LBB36_66:
	.loc	1 2471 4
	ldw r1, sp[896]
	{
		add r1, r1, r5
		nop
	}
	{
		nop
		ld8u r1, r1[r0]
	}
.Ltmp1198:
.LBB36_3:
	{
		nop
		ldw r0, r4[1]
	}
	ldc r2, 4638
	.loc	1 2306 4
.Ltmp1199:
	st8 r1, r0[r2]
	ldc r1, 4632
	.loc	1 2307 4
	{
		add r1, r0, r1
		mkmsk r2, 1
	}
	{
		nop
		stw r2, r1[0]
	}
.Ltmp1200:
.LBB36_4:
	ldc r1, 4680
.Ltmp1201:
	.loc	1 3241 5
	{
		add r1, r0, r1
		nop
	}
	{
		nop
		ldw r1, r1[0]
	}
	bt r1, .LBB36_7
.Ltmp1202:
	{
		nop
		ldw r3, r0[8]
	}
	.loc	1 3242 3
	{
		mkmsk r1, 1
		ldw r2, r0[9]
	}
.Ltmp1203:
.LBB36_6:
	.loc	1 3242 3
	{
		mov r0, r4
		nop
	}
	{
		nop
		bla r3
	}
.Ltmp1204:
.LBB36_7:
	{
		nop
		ldw r0, r4[0]
	}
	{
		nop
		stw r9, r0[0]
	}
.Ltmp1205:
.LBB36_102:
	{
		nop
		ldw r0, r0[0]
	}
	.loc	1 2055 5
.Ltmp1206:
	{
		eq r1, r0, 2
		mkmsk r0, 1
	}
	bt r1, .LBB36_338
.Ltmp1207:
	{
		nop
		ldw r0, r4[1]
	}
	ldc r1, 1128
	.loc	1 2057 6
.Ltmp1208:
	{
		add r1, r0, r1
		nop
	}
	{
		nop
		ldw r1, r1[0]
	}
	ldc r5, 1136
	.loc	1 2057 6
	{
		add r2, r0, r5
		nop
	}
	{
		nop
		ldw r2, r2[0]
	}
	ldc r10, 1144
	.loc	1 2057 6
	{
		add r0, r0, r10
		nop
	}
	.loc	1 2057 6
	{
		mov r0, r4
		ldw r3, r0[0]
	}
	.loc	1 2057 6
	bl allocate_output_
	{
		ldc r1, 0
		nop
	}
	.loc	1 2057 6
	bf r0, .LBB36_104
.Ltmp1209:
	{
		nop
		ldw r0, r4[1]
	}
	.loc	1 2059 2
.Ltmp1210:
	{
		add r1, r0, r5
		nop
	}
	{
		nop
		ldw r1, r1[0]
	}
	bf r1, .LBB36_122
.Ltmp1211:
	.loc	1 2801 6
	ldw r1, cp[FLAC__SUBFRAME_LPC_QLP_COEFF_PRECISION_LEN]
.Ltmp1212:
	.loc	1 2803 5
	{
		mkmsk r1, r1
		nop
	}
	{
		ldc r7, 0
		stw r1, sp[11]
	}
	bu .LBB36_107
.Ltmp1213:
.LBB36_114:
	.loc	1 2583 2
	ldw r5, sp[896]
.Ltmp1214:
	ldc r0, 254
.Ltmp1215:
	.loc	1 2584 2
	{
		and r0, r5, r0
		zext r5, 1
	}
.Ltmp1216:
	.loc	1 2584 2
	stw r0, sp[896]
	{
		nop
		ldw r0, r4[1]
	}
	.loc	1 2586 5
.Ltmp1217:
	bf r5, .LBB36_127
.Ltmp1218:
	{
		nop
		ldw r0, r0[11]
	}
.Ltmp1219:
	ldaw r1, sp[895]
	.loc	1 2588 7
.Ltmp1220:
	bl FLAC__bitreader_read_unary_unsigned
	bf r0, .LBB36_241
.Ltmp1221:
	.loc	1 2590 3
	ldw r0, sp[895]
.Ltmp1222:
	.loc	1 2590 3
	{
		add r1, r0, 1
		ldw r0, r4[1]
	}
	ldc r2, 432
	.loc	1 2590 3
	mul r2, r7, r2
	{
		add r2, r0, r2
		nop
	}
	ldc r3, 1592
	{
		add r2, r2, r3
		nop
	}
	.loc	1 2590 3
	{
		lsu r2, r1, r6
		stw r1, r2[0]
	}
	.loc	1 2591 7
.Ltmp1223:
	bf r2, .LBB36_117
.Ltmp1224:
	.loc	1 2596 3
	{
		sub r6, r6, r1
		nop
	}
.Ltmp1225:
	bu .LBB36_128
.Ltmp1226:
.LBB36_127:
	ldc r1, 432
	.loc	1 2599 3
	mul r1, r7, r1
	{
		add r1, r0, r1
		nop
	}
	ldc r2, 1592
	{
		add r1, r1, r2
		ldc r2, 0
	}
	{
		nop
		stw r2, r1[0]
	}
.Ltmp1227:
.LBB36_128:
	.loc	1 2604 5
	ldw r1, sp[896]
	ldc r2, 128
	.loc	1 2604 5
	{
		and r2, r1, r2
		nop
	}
	bt r2, .LBB36_117
.Ltmp1228:
	.loc	1 2609 10
	{
		eq r2, r1, 2
		nop
	}
	bf r2, .LBB36_130
.Ltmp1229:
	ldc r1, 432
	.loc	1 2886 2
.Ltmp1230:
	mul r1, r7, r1
	{
		add r1, r0, r1
		nop
	}
	ldc r2, 1176
	{
		add r8, r1, r2
		nop
	}
	ldc r2, 1168
	{
		add r2, r1, r2
		mkmsk r3, 1
	}
	.loc	1 2889 2
	{
		ldc r2, 32
		stw r3, r2[0]
	}
	.loc	1 2891 5
.Ltmp1231:
	{
		lsu r2, r2, r6
		nop
	}
	bt r2, .LBB36_146
.Ltmp1232:
	.loc	1 2892 3
	ldaw r0, r0[r7]
	ldc r2, 80
	{
		add r0, r0, r2
		nop
	}
	{
		nop
		ldw r10, r0[0]
	}
.Ltmp1233:
	ldc r0, 1180
	.loc	1 2894 3
	{
		add r0, r1, r0
		ldc r1, 0
	}
	{
		mov r2, r1
		nop
	}
	{
		nop
		stw r2, r0[0]
	}
.Ltmp1234:
	{
		nop
		stw r10, r8[0]
	}
	{
		nop
		ldw r0, r4[1]
	}
	ldc r1, 1128
	.loc	1 2897 3
.Ltmp1235:
	{
		add r1, r0, r1
		nop
	}
	.loc	1 2897 3
	{
		mov r9, r2
		ldw r1, r1[0]
	}
	bf r1, .LBB36_144
.Ltmp1236:
.LBB36_141:
	{
		nop
		ldw r0, r0[11]
	}
.Ltmp1237:
	ldaw r1, sp[892]
	.loc	1 2898 8
.Ltmp1238:
	{
		mov r2, r6
		nop
	}
	bl FLAC__bitreader_read_raw_int32
	bf r0, .LBB36_240
.Ltmp1239:
	.loc	1 2900 4
	ldw r0, sp[892]
	.loc	1 2900 4
	stw r0, r10[r9]
.Ltmp1240:
	.loc	1 2897 61
	{
		add r9, r9, 1
		ldw r0, r4[1]
	}
.Ltmp1241:
	ldc r1, 1128
	.loc	1 2897 3
	{
		add r1, r0, r1
		nop
	}
	{
		nop
		ldw r1, r1[0]
	}
	.loc	1 2897 3
	{
		lsu r2, r9, r1
		nop
	}
	bt r2, .LBB36_141
.Ltmp1242:
	.loc	1 2897 3
	{
		shl r2, r1, 2
		nop
	}
.Ltmp1243:
.LBB36_144:
	{
		nop
		ldw r1, sp[13]
	}
	bf r1, .LBB36_149
.Ltmp1244:
	.loc	1 2905 4
	ldaw r0, r0[r7]
	{
		ldc r1, 48
		nop
	}
	{
		add r0, r0, r1
		nop
	}
	{
		nop
		ldw r0, r0[0]
	}
	{
		nop
		ldw r1, r8[0]
	}
	.loc	1 2905 4
	bl memcpy
	bu .LBB36_149
.Ltmp1245:
.LBB36_130:
	bt r1, .LBB36_151
.Ltmp1246:
	ldc r1, 432
	.loc	1 2681 2
.Ltmp1247:
	mul r1, r7, r1
	{
		add r8, r0, r1
		nop
	}
	ldc r1, 1168
	{
		add r1, r8, r1
		ldc r2, 0
	}
	{
		nop
		stw r2, r1[0]
	}
.Ltmp1248:
	.loc	1 2683 6
	{
		ldaw r1, sp[14]
		ldw r0, r0[11]
	}
	.loc	1 2683 6
	{
		mov r2, r6
		nop
	}
	bl FLAC__bitreader_read_raw_int64
	bf r0, .LBB36_241
.Ltmp1249:
	ldc r0, 1176
	.loc	1 2677 2
	{
		add r0, r8, r0
		nop
	}
	.loc	1 2686 2
	ldd r2, r1, sp[7]
.Ltmp1250:
	.loc	1 2686 2
	std r2, r1, r0[0]
	{
		nop
		ldw r0, sp[13]
	}
	bf r0, .LBB36_150
.Ltmp1251:
	.loc	1 2691 4
	{
		ldc r0, 32
		ldw r1, r4[1]
	}
.Ltmp1252:
	.loc	1 2690 6
	{
		lsu r0, r0, r6
		nop
	}
	bt r0, .LBB36_137
.Ltmp1253:
	ldc r0, 1128
	.loc	1 2692 4
.Ltmp1254:
	{
		add r0, r1, r0
		nop
	}
	{
		nop
		ldw r2, r0[0]
	}
	bf r2, .LBB36_150
.Ltmp1255:
	.loc	1 2691 4
	ldaw r1, r1[r7]
	{
		ldc r2, 48
		nop
	}
	{
		add r1, r1, r2
		nop
	}
	{
		nop
		ldw r1, r1[0]
	}
.Ltmp1256:
	.loc	1 2693 5
	{
		ldc r3, 0
		ldw r2, sp[14]
	}
.Ltmp1257:
.LBB36_136:
	.loc	1 2693 5
	stw r2, r1[r3]
.Ltmp1258:
	.loc	1 2692 62
	{
		add r3, r3, 1
		ldw r11, r0[0]
	}
.Ltmp1259:
	.loc	1 2692 4
	{
		lsu r11, r3, r11
		nop
	}
	bt r11, .LBB36_136
	bu .LBB36_150
.Ltmp1260:
.LBB36_146:
	ldc r2, 112
	.loc	1 2908 3
.Ltmp1261:
	{
		add r0, r0, r2
		nop
	}
	{
		nop
		ldw r10, r0[0]
	}
.Ltmp1262:
	ldc r0, 1180
	.loc	1 2910 3
	{
		add r0, r1, r0
		nop
	}
.Ltmp1263:
	{
		nop
		stw r3, r0[0]
	}
	{
		nop
		stw r10, r8[0]
	}
	{
		nop
		ldw r0, r4[1]
	}
	ldc r1, 116
	.loc	1 2912 3
	{
		add r1, r0, r1
		nop
	}
	{
		nop
		stw r3, r1[0]
	}
	ldc r1, 1128
	.loc	1 2914 3
.Ltmp1264:
	{
		add r1, r0, r1
		nop
	}
	.loc	1 2914 3
	{
		ldc r8, 0
		ldw r1, r1[0]
	}
	bf r1, .LBB36_149
.Ltmp1265:
.LBB36_147:
	.loc	1 2915 8
	{
		ldaw r1, sp[14]
		ldw r0, r0[11]
	}
	.loc	1 2915 8
	{
		mov r2, r6
		nop
	}
	bl FLAC__bitreader_read_raw_int64
	bf r0, .LBB36_240
.Ltmp1266:
	.loc	1 2917 4
	ldd r1, r0, sp[7]
	.loc	1 2917 4
	std r1, r0, r10[0]
.Ltmp1267:
	.loc	1 2914 61
	{
		add r8, r8, 1
		ldw r0, r4[1]
	}
.Ltmp1268:
	ldc r1, 1128
	.loc	1 2914 3
	{
		add r1, r0, r1
		nop
	}
	.loc	1 2914 3
	{
		add r10, r10, 8
		ldw r1, r1[0]
	}
	.loc	1 2914 3
	{
		lsu r1, r8, r1
		nop
	}
	bt r1, .LBB36_147
.Ltmp1269:
.LBB36_149:
	ldc r10, 1144
.Ltmp1270:
.LBB36_150:
	bt r5, .LBB36_232
	bu .LBB36_121
.Ltmp1271:
.LBB36_151:
	.loc	1 2617 10
	{
		shr r2, r1, 4
		nop
	}
	bf r2, .LBB36_152
.Ltmp1272:
	{
		ldc r2, 24
		nop
	}
	.loc	1 2622 10
.Ltmp1273:
	{
		lsu r2, r2, r1
		nop
	}
	bt r2, .LBB36_188
.Ltmp1274:
	.loc	1 2623 3
	{
		shr r8, r1, 1
		nop
	}
	.loc	1 2623 3
	{
		zext r8, 3
		nop
	}
.Ltmp1275:
	ldc r1, 1128
	.loc	1 2624 6
.Ltmp1276:
	{
		add r1, r0, r1
		nop
	}
	{
		nop
		ldw r1, r1[0]
	}
	.loc	1 2624 6
	{
		lsu r1, r8, r1
		nop
	}
	bf r1, .LBB36_117
.Ltmp1277:
	ldc r1, 432
	.loc	1 2712 2
.Ltmp1278:
	mul r1, r7, r1
	{
		add r3, r0, r1
		nop
	}
	ldc r1, 1168
	{
		add r1, r3, r1
		nop
	}
	{
		nop
		stw r9, r1[0]
	}
	.loc	1 2714 2
	ldaw r1, r0[r7]
	ldc r2, 80
	{
		add r1, r1, r2
		nop
	}
	{
		nop
		ldw r1, r1[0]
	}
	ldc r2, 1224
	.loc	1 2714 2
	{
		add r2, r3, r2
		nop
	}
	{
		nop
		stw r1, r2[0]
	}
	ldc r1, 1188
	.loc	1 2715 2
	{
		add r1, r3, r1
		nop
	}
	{
		nop
		stw r8, r1[0]
	}
.Ltmp1279:
	{
		nop
		ldw r0, r0[11]
	}
	.loc	1 2718 2
.Ltmp1280:
	bf r8, .LBB36_157
.Ltmp1281:
	ldc r1, 1192
	{
		add r9, r3, r1
		stw r3, sp[10]
	}
	{
		ldc r10, 0
		nop
	}
.Ltmp1282:
.LBB36_159:
	{
		ldaw r1, sp[14]
		mov r2, r6
	}
	.loc	1 2719 7
.Ltmp1283:
	bl FLAC__bitreader_read_raw_int64
	bf r0, .LBB36_240
.Ltmp1284:
	.loc	1 2721 3
	ldd r1, r0, sp[7]
	.loc	1 2721 3
	std r1, r0, r9[0]
.Ltmp1285:
	.loc	1 2718 24
	{
		add r10, r10, 1
		ldw r0, r4[1]
	}
.Ltmp1286:
	.loc	1 2719 7
	{
		add r9, r9, 8
		ldw r0, r0[11]
	}
.Ltmp1287:
	.loc	1 2718 2
	{
		lsu r1, r10, r8
		nop
	}
.Ltmp1288:
	bt r1, .LBB36_159
	bu .LBB36_161
.Ltmp1289:
.LBB36_137:
	ldc r0, 112
	.loc	1 2695 4
.Ltmp1290:
	{
		add r0, r1, r0
		nop
	}
	{
		nop
		ldw r0, r0[0]
	}
.Ltmp1291:
	ldc r2, 116
	.loc	1 2696 4
	{
		add r2, r1, r2
		mkmsk r3, 1
	}
	{
		nop
		stw r3, r2[0]
	}
.Ltmp1292:
	ldc r2, 1128
	.loc	1 2697 4
.Ltmp1293:
	{
		add r1, r1, r2
		nop
	}
	{
		nop
		ldw r1, r1[0]
	}
	bf r1, .LBB36_150
.Ltmp1294:
.LBB36_138:
	.loc	1 2698 5
	ldd r3, r2, sp[7]
	.loc	1 2698 5
	std r3, r2, r0[0]
	.loc	1 2697 4
	{
		sub r1, r1, 1
		add r0, r0, 8
	}
	bt r1, .LBB36_138
	bu .LBB36_150
.Ltmp1295:
.LBB36_188:
	.loc	1 2634 10
	{
		shr r2, r1, 6
		nop
	}
	bt r2, .LBB36_189
.Ltmp1296:
.LBB36_152:
	ldc r1, 4680
	.loc	1 3241 5
.Ltmp1297:
	{
		add r1, r0, r1
		nop
	}
	{
		nop
		ldw r1, r1[0]
	}
	bf r1, .LBB36_153
.Ltmp1298:
	ldc r1, 8336
	.loc	1 3244 3
.Ltmp1299:
	{
		add r0, r0, r1
		nop
	}
	{
		nop
		ldw r1, r0[0]
	}
	.loc	1 3244 3
	{
		add r1, r1, 1
		nop
	}
	{
		nop
		stw r1, r0[0]
	}
	bu .LBB36_120
.Ltmp1300:
.LBB36_153:
	{
		nop
		ldw r3, r0[8]
	}
.Ltmp1301:
	.loc	1 3242 3
	{
		mov r0, r4
		ldw r2, r0[9]
	}
	{
		mkmsk r1, 2
		nop
	}
	bu .LBB36_119
.Ltmp1302:
.LBB36_189:
	.loc	1 2640 3
	{
		shr r1, r1, 1
		nop
	}
	.loc	1 2640 3
	{
		zext r1, 5
		nop
	}
	.loc	1 2640 3
	{
		add r8, r1, 1
		nop
	}
.Ltmp1303:
	ldc r1, 1128
	.loc	1 2641 6
.Ltmp1304:
	{
		add r1, r0, r1
		nop
	}
	{
		nop
		ldw r1, r1[0]
	}
	.loc	1 2641 6
	{
		lsu r1, r8, r1
		nop
	}
	bf r1, .LBB36_117
.Ltmp1305:
	ldc r1, 432
	.loc	1 2788 2
.Ltmp1306:
	mul r1, r7, r1
	{
		add r3, r0, r1
		nop
	}
	{
		nop
		stw r3, sp[9]
	}
	ldc r1, 1168
	{
		add r1, r3, r1
		mkmsk r2, 2
	}
	{
		nop
		stw r2, r1[0]
	}
	.loc	1 2790 2
	ldaw r1, r0[r7]
	ldc r2, 80
	{
		add r1, r1, r2
		nop
	}
	{
		nop
		ldw r1, r1[0]
	}
	ldc r2, 1584
	.loc	1 2790 2
	{
		add r2, r3, r2
		nop
	}
	{
		nop
		stw r1, r2[0]
	}
	ldc r1, 1188
	.loc	1 2791 2
	{
		add r1, r3, r1
		nop
	}
	{
		nop
		stw r8, r1[0]
	}
.Ltmp1307:
	{
		nop
		ldw r0, r0[11]
	}
	ldc r1, 1328
	{
		add r9, r3, r1
		ldc r10, 0
	}
.Ltmp1308:
.LBB36_191:
	{
		ldaw r1, sp[14]
		mov r2, r6
	}
	.loc	1 2795 7
.Ltmp1309:
	bl FLAC__bitreader_read_raw_int64
	bf r0, .LBB36_240
.Ltmp1310:
	.loc	1 2797 3
	ldd r1, r0, sp[7]
	.loc	1 2797 3
	std r1, r0, r9[0]
.Ltmp1311:
	.loc	1 2794 24
	{
		add r10, r10, 1
		ldw r0, r4[1]
	}
.Ltmp1312:
	.loc	1 2795 7
	{
		add r9, r9, 8
		ldw r0, r0[11]
	}
.Ltmp1313:
	.loc	1 2794 2
	{
		lsu r1, r10, r8
		nop
	}
	bt r1, .LBB36_191
.Ltmp1314:
	ldaw r1, sp[897]
	.loc	1 2801 6
.Ltmp1315:
	ldw r2, cp[FLAC__SUBFRAME_LPC_QLP_COEFF_PRECISION_LEN]
	.loc	1 2801 6
	bl FLAC__bitreader_read_raw_uint32
	{
		ldc r9, 2
		nop
	}
	bf r0, .LBB36_241
.Ltmp1316:
	.loc	1 2803 5
	ldw r0, sp[897]
	{
		nop
		ldw r1, sp[11]
	}
	.loc	1 2803 5
	{
		eq r1, r0, r1
		nop
	}
	bf r1, .LBB36_198
.Ltmp1317:
	{
		nop
		ldw r0, r4[1]
	}
	ldc r1, 4680
	.loc	1 3241 5
.Ltmp1318:
	{
		add r1, r0, r1
		nop
	}
	{
		nop
		ldw r1, r1[0]
	}
	ldc r10, 1144
	bt r1, .LBB36_197
.Ltmp1319:
	{
		nop
		ldw r3, r0[8]
	}
	.loc	1 3242 3
	{
		mov r0, r4
		ldw r2, r0[9]
	}
	{
		ldc r1, 0
		nop
	}
	{
		nop
		bla r3
	}
.Ltmp1320:
.LBB36_197:
	{
		nop
		ldw r0, r4[0]
	}
	{
		nop
		stw r9, r0[0]
	}
	bu .LBB36_230
.Ltmp1321:
.LBB36_117:
	ldc r1, 4680
	.loc	1 3241 5
.Ltmp1322:
	{
		add r1, r0, r1
		nop
	}
	{
		nop
		ldw r1, r1[0]
	}
	bt r1, .LBB36_120
.Ltmp1323:
	{
		nop
		ldw r3, r0[8]
	}
.Ltmp1324:
	.loc	1 3242 3
	{
		mov r0, r4
		ldw r2, r0[9]
	}
	{
		ldc r1, 0
		nop
	}
.Ltmp1325:
.LBB36_119:
	{
		nop
		bla r3
	}
.LBB36_120:
.Ltmp1326:
	{
		nop
		ldw r0, r4[0]
	}
	{
		nop
		stw r9, r0[0]
	}
.Ltmp1327:
.LBB36_121:
	.loc	1 2059 71
	{
		add r7, r7, 1
		ldw r0, r4[1]
	}
.Ltmp1328:
	ldc r1, 1136
	.loc	1 2059 2
	{
		add r1, r0, r1
		nop
	}
	{
		nop
		ldw r1, r1[0]
	}
	.loc	1 2059 2
	{
		lsu r1, r7, r1
		nop
	}
	bt r1, .LBB36_107
	bu .LBB36_122
.Ltmp1329:
.LBB36_157:
	{
		nop
		stw r3, sp[10]
	}
.Ltmp1330:
.LBB36_161:
	ldaw r1, sp[892]
	.loc	1 2725 6
.Ltmp1331:
	ldw r2, cp[FLAC__ENTROPY_CODING_METHOD_TYPE_LEN]
	.loc	1 2725 6
	bl FLAC__bitreader_read_raw_uint32
	bf r0, .LBB36_240
.Ltmp1332:
	.loc	1 2727 2
	ldw r1, sp[892]
	ldc r0, 1176
	{
		nop
		ldw r3, sp[10]
	}
	.loc	1 2727 2
	{
		add r10, r3, r0
		nop
	}
	{
		nop
		stw r1, r10[0]
	}
	.loc	1 2731 8
.Ltmp1333:
	{
		mkmsk r2, 1
		ldw r0, r4[1]
	}
.Ltmp1334:
	.loc	1 2728 2
	{
		lsu r1, r2, r1
		nop
	}
	bt r1, .LBB36_169
.Ltmp1335:
	{
		mov r9, r3
		ldw r0, r0[11]
	}
	ldaw r1, sp[892]
	.loc	1 2731 8
.Ltmp1336:
	ldw r2, cp[FLAC__ENTROPY_CODING_METHOD_PARTITIONED_RICE_ORDER_LEN]
	.loc	1 2731 8
	bl FLAC__bitreader_read_raw_uint32
	bf r0, .LBB36_240
.Ltmp1337:
	{
		nop
		ldw r0, r4[1]
	}
	ldc r1, 1128
	.loc	1 2733 7
.Ltmp1338:
	{
		add r1, r0, r1
		nop
	}
	{
		nop
		ldw r1, r1[0]
	}
	.loc	1 2733 7
	ldw r2, sp[892]
	.loc	1 2733 7
	{
		shr r3, r1, r2
		nop
	}
	.loc	1 2733 7
	{
		lsu r3, r3, r8
		nop
	}
	bt r3, .LBB36_166
.Ltmp1339:
	.loc	1 2733 7
	{
		mkmsk r3, r2
		nop
	}
	.loc	1 2733 7
	{
		and r1, r3, r1
		nop
	}
	bf r1, .LBB36_173
.Ltmp1340:
.LBB36_166:
	ldc r1, 4680
	.loc	1 3241 5
.Ltmp1341:
	{
		add r1, r0, r1
		nop
	}
	.loc	1 3241 5
	{
		ldc r8, 2
		ldw r1, r1[0]
	}
	ldc r10, 1144
	bt r1, .LBB36_168
.Ltmp1342:
	{
		nop
		ldw r3, r0[8]
	}
.Ltmp1343:
	.loc	1 3242 3
	{
		mov r0, r4
		ldw r2, r0[9]
	}
	{
		ldc r1, 0
		nop
	}
	{
		nop
		bla r3
	}
.Ltmp1344:
.LBB36_168:
	{
		nop
		ldw r0, r4[0]
	}
	{
		nop
		stw r8, r0[0]
	}
	bu .LBB36_186
.Ltmp1345:
.LBB36_169:
	ldc r1, 4680
	.loc	1 3241 5
.Ltmp1346:
	{
		add r1, r0, r1
		nop
	}
	{
		nop
		ldw r1, r1[0]
	}
	ldc r10, 1144
	.loc	1 3241 5
	bf r1, .LBB36_170
.Ltmp1347:
	ldc r1, 8336
	.loc	1 3244 3
.Ltmp1348:
	{
		add r0, r0, r1
		nop
	}
	{
		nop
		ldw r1, r0[0]
	}
	.loc	1 3244 3
	{
		add r1, r1, 1
		nop
	}
	{
		nop
		stw r1, r0[0]
	}
	bu .LBB36_172
.Ltmp1349:
.LBB36_170:
	{
		nop
		ldw r3, r0[8]
	}
.Ltmp1350:
	.loc	1 3242 3
	{
		mov r0, r4
		ldw r2, r0[9]
	}
	{
		mkmsk r1, 2
		nop
	}
	{
		nop
		bla r3
	}
.Ltmp1351:
.LBB36_172:
	{
		ldc r1, 2
		ldw r0, r4[0]
	}
	{
		nop
		stw r1, r0[0]
	}
.Ltmp1352:
.LBB36_186:
	{
		nop
		ldw r0, r4[0]
	}
	{
		nop
		ldw r0, r0[0]
	}
	.loc	1 2631 6
.Ltmp1353:
	{
		eq r0, r0, 2
		nop
	}
	bt r0, .LBB36_121
.Ltmp1354:
	bt r5, .LBB36_232
	bu .LBB36_121
.Ltmp1355:
.LBB36_198:
	.loc	1 2808 2
	{
		add r0, r0, 1
		nop
	}
	ldc r1, 1192
	{
		nop
		ldw r2, sp[9]
	}
	.loc	1 2808 2
	{
		add r10, r2, r1
		nop
	}
	{
		nop
		stw r0, r10[0]
	}
	{
		nop
		ldw r0, r4[1]
	}
	{
		nop
		ldw r0, r0[11]
	}
.Ltmp1356:
	ldaw r1, sp[892]
	.loc	1 2811 6
.Ltmp1357:
	ldw r2, cp[FLAC__SUBFRAME_LPC_QLP_SHIFT_LEN]
	.loc	1 2811 6
	bl FLAC__bitreader_read_raw_int32
	bf r0, .LBB36_241
.Ltmp1358:
	.loc	1 2813 5
	ldw r0, sp[892]
	.loc	1 2813 5
	ashr r1, r0, 32
	bt r1, .LBB36_200
.Ltmp1359:
	ldc r1, 1196
	{
		nop
		ldw r2, sp[9]
	}
	.loc	1 2818 2
	{
		add r1, r2, r1
		nop
	}
.Ltmp1360:
	{
		nop
		stw r1, sp[8]
	}
	{
		nop
		stw r0, r1[0]
	}
	{
		nop
		ldw r0, r4[1]
	}
	{
		nop
		ldw r0, r0[11]
	}
	ldc r1, 1200
	{
		add r1, r2, r1
		nop
	}
	{
		ldc r9, 0
		stw r1, sp[10]
	}
.Ltmp1361:
.LBB36_204:
	{
		nop
		ldw r2, r10[0]
	}
	ldaw r1, sp[892]
	.loc	1 2822 7
.Ltmp1362:
	bl FLAC__bitreader_read_raw_int32
	bf r0, .LBB36_240
.Ltmp1363:
	.loc	1 2824 3
	ldw r0, sp[892]
	{
		nop
		ldw r1, sp[10]
	}
	.loc	1 2824 3
	stw r0, r1[r9]
.Ltmp1364:
	.loc	1 2821 24
	{
		add r9, r9, 1
		ldw r0, r4[1]
	}
.Ltmp1365:
	.loc	1 2822 7
	{
		lsu r1, r9, r8
		ldw r0, r0[11]
	}
	bt r1, .LBB36_204
.Ltmp1366:
	ldaw r1, sp[897]
	.loc	1 2725 6
.Ltmp1367:
	ldw r2, cp[FLAC__ENTROPY_CODING_METHOD_TYPE_LEN]
.Ltmp1368:
	.loc	1 2828 6
	bl FLAC__bitreader_read_raw_uint32
	bf r0, .LBB36_240
.Ltmp1369:
	.loc	1 2830 2
	ldw r1, sp[897]
	ldc r0, 1176
	{
		nop
		ldw r2, sp[9]
	}
	.loc	1 2830 2
	{
		add r10, r2, r0
		nop
	}
	{
		nop
		stw r1, r10[0]
	}
	.loc	1 2834 8
.Ltmp1370:
	{
		mkmsk r2, 1
		ldw r0, r4[1]
	}
.Ltmp1371:
	.loc	1 2831 2
	{
		lsu r1, r2, r1
		nop
	}
	bt r1, .LBB36_215
.Ltmp1372:
	{
		nop
		ldw r0, r0[11]
	}
	ldaw r1, sp[897]
	.loc	1 2731 8
.Ltmp1373:
	ldw r2, cp[FLAC__ENTROPY_CODING_METHOD_PARTITIONED_RICE_ORDER_LEN]
.Ltmp1374:
	.loc	1 2834 8
	bl FLAC__bitreader_read_raw_uint32
	bf r0, .LBB36_240
.Ltmp1375:
	{
		nop
		ldw r0, r4[1]
	}
	ldc r1, 1128
	.loc	1 2836 7
.Ltmp1376:
	{
		add r1, r0, r1
		nop
	}
	{
		nop
		ldw r1, r1[0]
	}
	.loc	1 2836 7
	ldw r2, sp[897]
	.loc	1 2836 7
	{
		shr r3, r1, r2
		nop
	}
	.loc	1 2836 7
	{
		lsu r3, r3, r8
		nop
	}
	bt r3, .LBB36_211
.Ltmp1377:
	.loc	1 2836 7
	{
		mkmsk r3, r2
		nop
	}
	.loc	1 2836 7
	{
		and r1, r3, r1
		nop
	}
	bf r1, .LBB36_218
.Ltmp1378:
.LBB36_211:
	ldc r1, 4680
	.loc	1 3241 5
.Ltmp1379:
	{
		add r1, r0, r1
		nop
	}
	{
		nop
		ldw r1, r1[0]
	}
	bt r1, .LBB36_214
.Ltmp1380:
	{
		nop
		ldw r3, r0[8]
	}
.Ltmp1381:
	.loc	1 3242 3
	{
		mov r0, r4
		ldw r2, r0[9]
	}
	{
		ldc r1, 0
		nop
	}
	bu .LBB36_213
.Ltmp1382:
.LBB36_173:
	ldc r1, 1180
	.loc	1 2739 4
.Ltmp1383:
	{
		add r1, r9, r1
		nop
	}
	.loc	1 2739 4
	{
		ldc r1, 12
		stw r2, r1[0]
	}
	.loc	1 2740 4
	mul r1, r7, r1
	{
		add r1, r0, r1
		nop
	}
	ldc r3, 120
	{
		add r3, r1, r3
		nop
	}
	ldc r1, 1184
	.loc	1 2740 4
	{
		add r1, r9, r1
		nop
	}
	{
		nop
		stw r3, r1[0]
	}
.Ltmp1384:
	.loc	1 2749 2
	{
		ldc r11, 2
		ldw r1, r10[0]
	}
	.loc	1 2749 2
	{
		lsu r11, r1, r11
		nop
	}
	bf r11, .LBB36_175
.Ltmp1385:
	.loc	1 2752 8
	ldaw r0, r0[r7]
	ldc r11, 80
	{
		add r0, r0, r11
		nop
	}
	.loc	1 2752 8
	{
		eq r1, r1, 1
		ldw r0, r0[0]
	}
	{
		nop
		stw r0, sp[1]
	}
	.loc	1 2752 8
	{
		mov r0, r4
		stw r1, sp[2]
	}
	{
		mov r1, r8
		nop
	}
	bl read_residual_partitioned_rice_
	bf r0, .LBB36_240
.Ltmp1386:
.LBB36_175:
	{
		nop
		ldw r0, sp[13]
	}
	ldc r10, 1144
	bf r0, .LBB36_186
.Ltmp1387:
	{
		ldc r0, 32
		nop
	}
.Ltmp1388:
	.loc	1 2761 6
	{
		lsu r0, r0, r6
		mov r3, r8
	}
.Ltmp1389:
	bt r0, .LBB36_184
.Ltmp1390:
	{
		mov r11, r3
		nop
	}
.Ltmp1391:
	.loc	1 2763 4
	bf r3, .LBB36_178
.Ltmp1392:
	{
		nop
		ldw r1, r4[1]
	}
	.loc	1 2764 5
	ldaw r0, r1[r7]
	{
		ldc r2, 48
		nop
	}
	{
		add r0, r0, r2
		nop
	}
	{
		nop
		ldw r2, r0[0]
	}
	ldc r0, 1192
	{
		nop
		ldw r3, sp[10]
	}
	{
		add r0, r3, r0
		ldc r3, 0
	}
	{
		mov r8, r11
		nop
	}
.Ltmp1393:
.LBB36_180:
	{
		nop
		ldw r11, r0[0]
	}
	.loc	1 2764 5
	stw r11, r2[r3]
.Ltmp1394:
	.loc	1 2763 26
	{
		add r3, r3, 1
		add r0, r0, 8
	}
.Ltmp1395:
	.loc	1 2763 4
	{
		eq r11, r8, r3
		nop
	}
	bf r11, .LBB36_180
.Ltmp1396:
	{
		mov r11, r8
		nop
	}
	bu .LBB36_182
.Ltmp1397:
.LBB36_200:
	{
		nop
		ldw r0, r4[1]
	}
	ldc r1, 4680
	.loc	1 3241 5
.Ltmp1398:
	{
		add r1, r0, r1
		nop
	}
	{
		nop
		ldw r1, r1[0]
	}
	bt r1, .LBB36_202
.Ltmp1399:
	{
		nop
		ldw r3, r0[8]
	}
	.loc	1 3242 3
	{
		mov r0, r4
		ldw r2, r0[9]
	}
	{
		ldc r1, 0
		nop
	}
	{
		nop
		bla r3
	}
.Ltmp1400:
.LBB36_202:
	{
		nop
		ldw r0, r4[0]
	}
	{
		nop
		stw r9, r0[0]
	}
	bu .LBB36_229
.Ltmp1401:
.LBB36_184:
	{
		nop
		ldw r0, r4[1]
	}
	ldc r1, 116
	.loc	1 2771 4
.Ltmp1402:
	{
		add r1, r0, r1
		mkmsk r2, 1
	}
	{
		nop
		stw r2, r1[0]
	}
	ldc r1, 112
	{
		mov r9, r1
		nop
	}
	.loc	1 2772 4
	{
		add r0, r0, r9
		nop
	}
	{
		nop
		ldw r0, r0[0]
	}
	ldc r1, 1192
	{
		nop
		ldw r2, sp[10]
	}
	.loc	1 2772 4
	{
		add r1, r2, r1
		shl r2, r3, 3
	}
.Ltmp1403:
	.loc	1 2772 4
	{
		mov r8, r3
		stw r2, sp[10]
	}
.Ltmp1404:
	bl __memcpy_4
	{
		nop
		ldw r2, r4[1]
	}
	.loc	1 2773 4
	ldaw r0, r2[r7]
	ldc r1, 80
	{
		add r0, r0, r1
		nop
	}
	{
		nop
		ldw r0, r0[0]
	}
	ldc r1, 1128
	.loc	1 2773 4
	{
		add r1, r2, r1
		nop
	}
	{
		nop
		ldw r1, r1[0]
	}
	.loc	1 2773 4
	{
		sub r1, r1, r8
		add r2, r2, r9
	}
	{
		nop
		ldw r2, r2[0]
	}
	{
		nop
		ldw r3, sp[10]
	}
	.loc	1 2773 4
	{
		add r3, r2, r3
		mov r2, r8
	}
	.loc	1 2773 4
	bl FLAC__fixed_restore_signal_wide_33bit
	bu .LBB36_186
.Ltmp1405:
.LBB36_215:
	ldc r1, 4680
	.loc	1 3241 5
.Ltmp1406:
	{
		add r1, r0, r1
		nop
	}
	{
		nop
		ldw r1, r1[0]
	}
	.loc	1 3241 5
	bf r1, .LBB36_216
.Ltmp1407:
	ldc r1, 8336
	.loc	1 3244 3
.Ltmp1408:
	{
		add r0, r0, r1
		nop
	}
	{
		nop
		ldw r1, r0[0]
	}
	.loc	1 3244 3
	{
		add r1, r1, 1
		nop
	}
	{
		nop
		stw r1, r0[0]
	}
	bu .LBB36_214
.Ltmp1409:
.LBB36_178:
	{
		nop
		ldw r1, r4[1]
	}
	.loc	1 2629 7
.Ltmp1410:
	ldaw r0, r1[r7]
	{
		ldc r2, 48
		nop
	}
	{
		add r0, r0, r2
		nop
	}
	{
		nop
		ldw r2, r0[0]
	}
.Ltmp1411:
.LBB36_182:
	{
		mov r8, r11
		nop
	}
.Ltmp1412:
	.loc	1 2765 7
	{
		add r11, r8, r6
		nop
	}
	.loc	1 2766 5
	ldaw r0, r1[r7]
	ldc r3, 80
	{
		add r0, r0, r3
		nop
	}
	{
		nop
		ldw r0, r0[0]
	}
	ldc r3, 1128
	.loc	1 2766 5
	{
		add r1, r1, r3
		nop
	}
	{
		nop
		ldw r1, r1[0]
	}
	.loc	1 2766 5
	{
		sub r1, r1, r8
		nop
	}
	.loc	1 2766 5
	ldaw r3, r2[r8]
	{
		ldc r2, 32
		nop
	}
	.loc	1 2765 7
	{
		lsu r2, r2, r11
		nop
	}
	bt r2, .LBB36_185
.Ltmp1413:
	.loc	1 2766 5
	{
		mov r2, r8
		nop
	}
	bl FLAC__fixed_restore_signal
	bu .LBB36_186
.Ltmp1414:
.LBB36_185:
	.loc	1 2768 5
	{
		mov r2, r8
		nop
	}
	bl FLAC__fixed_restore_signal_wide
	bu .LBB36_186
.Ltmp1415:
.LBB36_216:
	{
		nop
		ldw r3, r0[8]
	}
.Ltmp1416:
	.loc	1 3242 3
	{
		mov r0, r4
		ldw r2, r0[9]
	}
	{
		mkmsk r1, 2
		nop
	}
.Ltmp1417:
.LBB36_213:
	{
		nop
		bla r3
	}
.LBB36_214:
.Ltmp1418:
	.loc	1 2839 5
	{
		ldc r1, 2
		ldw r0, r4[0]
	}
	{
		nop
		stw r1, r0[0]
	}
.Ltmp1419:
.LBB36_229:
	ldc r10, 1144
.Ltmp1420:
.LBB36_230:
	{
		nop
		ldw r0, r4[0]
	}
	{
		nop
		ldw r0, r0[0]
	}
	.loc	1 2648 6
.Ltmp1421:
	{
		eq r0, r0, 2
		nop
	}
	bt r0, .LBB36_121
.Ltmp1422:
	bf r5, .LBB36_121
.Ltmp1423:
.LBB36_232:
	{
		nop
		ldw r0, sp[13]
	}
	bf r0, .LBB36_121
.Ltmp1424:
	{
		nop
		ldw r1, r4[1]
	}
	ldc r0, 432
	.loc	1 2653 3
.Ltmp1425:
	mul r0, r7, r0
	{
		add r0, r1, r0
		nop
	}
	ldc r2, 1592
	{
		add r0, r0, r2
		nop
	}
	{
		nop
		ldw r5, r0[0]
	}
.Ltmp1426:
	.loc	1 2653 3
	stw r5, sp[896]
	.loc	1 2654 6
.Ltmp1427:
	{
		add r0, r5, r6
		ldc r2, 32
	}
	.loc	1 2654 6
	{
		lsu r0, r2, r0
		nop
	}
	bt r0, .LBB36_237
.Ltmp1428:
	ldc r0, 1128
	.loc	1 2655 4
.Ltmp1429:
	{
		add r0, r1, r0
		nop
	}
	{
		nop
		ldw r2, r0[0]
	}
	bf r2, .LBB36_121
.Ltmp1430:
	.loc	1 2089 7
	ldaw r1, r1[r7]
	{
		ldc r2, 48
		nop
	}
	{
		add r1, r1, r2
		nop
	}
	{
		nop
		ldw r1, r1[0]
	}
	{
		nop
		ldw r2, r1[0]
	}
.Ltmp1431:
	.loc	1 2657 5
	{
		shl r2, r2, r5
		nop
	}
.Ltmp1432:
	{
		nop
		stw r2, r1[0]
	}
.Ltmp1433:
	.loc	1 2655 4
	{
		ldc r3, 2
		ldw r2, r0[0]
	}
	.loc	1 2655 4
	{
		lsu r3, r2, r3
		mkmsk r2, 1
	}
	bt r3, .LBB36_121
.Ltmp1434:
.LBB36_236:
	.loc	1 2657 5
	ldw r3, sp[896]
	{
		nop
		ldw r11, r1[r2]
	}
.Ltmp1435:
	.loc	1 2657 5
	{
		shl r3, r11, r3
		nop
	}
	.loc	1 2657 5
	stw r3, r1[r2]
.Ltmp1436:
	.loc	1 2655 62
	{
		add r2, r2, 1
		ldw r3, r0[0]
	}
	.loc	1 2655 4
	{
		lsu r3, r2, r3
		nop
	}
.Ltmp1437:
	bt r3, .LBB36_236
	bu .LBB36_121
.Ltmp1438:
.LBB36_237:
	ldc r0, 116
	.loc	1 2664 4
.Ltmp1439:
	{
		add r0, r1, r0
		mkmsk r2, 1
	}
	{
		nop
		stw r2, r0[0]
	}
.Ltmp1440:
	ldc r0, 1128
	.loc	1 2665 4
.Ltmp1441:
	{
		add r0, r1, r0
		nop
	}
	{
		nop
		ldw r6, r0[0]
	}
	bf r6, .LBB36_121
.Ltmp1442:
	.loc	1 2089 7
	ldaw r0, r1[r7]
	{
		ldc r2, 48
		nop
	}
	{
		add r0, r0, r2
		nop
	}
	{
		nop
		ldw r8, r0[0]
	}
	ldc r0, 112
	.loc	1 2089 7
	{
		add r0, r1, r0
		nop
	}
	{
		nop
		ldw r9, r0[0]
	}
.Ltmp1443:
.LBB36_239:
	{
		nop
		ldw r0, r8[0]
	}
	.loc	1 2666 5
.Ltmp1444:
	ashr r1, r0, 32
	.loc	1 2667 5
	{
		mov r2, r5
		nop
	}
	bl __ashldi3
	.loc	1 2667 5
	std r1, r0, r9[0]
.Ltmp1445:
	.loc	1 2665 4
	{
		sub r6, r6, 1
		add r9, r9, 8
	}
	.loc	1 2665 4
	{
		add r8, r8, 4
		nop
	}
	bt r6, .LBB36_239
	bu .LBB36_121
.Ltmp1446:
.LBB36_218:
	ldc r1, 1180
	{
		nop
		ldw r11, sp[9]
	}
	.loc	1 2842 4
.Ltmp1447:
	{
		add r1, r11, r1
		nop
	}
	.loc	1 2842 4
	{
		ldc r1, 12
		stw r2, r1[0]
	}
	.loc	1 2843 4
	mul r1, r7, r1
	{
		add r1, r0, r1
		nop
	}
	ldc r3, 120
	{
		add r3, r1, r3
		nop
	}
	ldc r1, 1184
	.loc	1 2843 4
	{
		add r1, r11, r1
		nop
	}
	{
		nop
		stw r3, r1[0]
	}
.Ltmp1448:
	.loc	1 2852 2
	{
		ldc r11, 2
		ldw r1, r10[0]
	}
	.loc	1 2852 2
	{
		lsu r11, r1, r11
		nop
	}
	bf r11, .LBB36_220
.Ltmp1449:
	.loc	1 2855 8
	ldaw r0, r0[r7]
	ldc r11, 80
	{
		add r0, r0, r11
		nop
	}
	.loc	1 2855 8
	{
		eq r1, r1, 1
		ldw r0, r0[0]
	}
	{
		nop
		stw r0, sp[1]
	}
	.loc	1 2855 8
	{
		mov r0, r4
		stw r1, sp[2]
	}
	{
		mov r1, r8
		nop
	}
	bl read_residual_partitioned_rice_
	bf r0, .LBB36_240
.Ltmp1450:
.LBB36_220:
	{
		nop
		ldw r0, sp[13]
	}
	bf r0, .LBB36_229
.Ltmp1451:
	.loc	1 2867 5
	{
		ldc r1, 32
		ldw r0, r4[1]
	}
.Ltmp1452:
	.loc	1 2864 6
	{
		lsu r1, r1, r6
		nop
	}
	bt r1, .LBB36_227
.Ltmp1453:
	.loc	1 2867 5
	ldaw r0, r0[r7]
	{
		ldc r1, 48
		nop
	}
	{
		add r0, r0, r1
		nop
	}
	{
		nop
		ldw r0, r0[0]
	}
	ldc r1, 1328
	{
		nop
		ldw r2, sp[9]
	}
	{
		add r1, r2, r1
		mov r2, r8
	}
.Ltmp1454:
.LBB36_223:
	{
		nop
		ldw r3, r1[0]
	}
	.loc	1 2867 5
	{
		sub r2, r2, 1
		stw r3, r0[0]
	}
	.loc	1 2866 4
	{
		add r0, r0, 4
		add r1, r1, 8
	}
	.loc	1 2866 4
	bt r2, .LBB36_223
.Ltmp1455:
	{
		nop
		ldw r0, sp[8]
	}
	.loc	1 2868 7
.Ltmp1456:
	{
		mov r0, r6
		ldw r3, r0[0]
	}
	.loc	1 2868 7
	{
		mov r2, r8
		ldw r1, sp[10]
	}
	bl FLAC__lpc_max_residual_bps
	{
		ldc r1, 32
		nop
	}
	.loc	1 2868 7
	{
		lsu r0, r1, r0
		nop
	}
	bt r0, .LBB36_228
.Ltmp1457:
	.loc	1 2869 7
	{
		mov r0, r6
		ldw r1, sp[10]
	}
	{
		mov r2, r8
		nop
	}
	bl FLAC__lpc_max_prediction_before_shift_bps
	{
		ldc r1, 32
		nop
	}
	.loc	1 2869 7
	{
		lsu r0, r1, r0
		nop
	}
	bt r0, .LBB36_228
.Ltmp1458:
	{
		nop
		ldw r1, r4[1]
	}
	.loc	1 2870 5
	ldaw r2, r1[r7]
	ldc r0, 80
	.loc	1 2870 5
	{
		add r0, r2, r0
		nop
	}
	{
		nop
		ldw r0, r0[0]
	}
	ldc r3, 1128
	.loc	1 2870 5
	{
		add r1, r1, r3
		nop
	}
.Ltmp1459:
	.loc	1 2870 5
	{
		mov r3, r8
		ldw r1, r1[0]
	}
.Ltmp1460:
	.loc	1 2870 5
	{
		sub r1, r1, r3
		ldw r11, sp[8]
	}
	.loc	1 2870 5
	{
		ldc r11, 48
		ldw r8, r11[0]
	}
	.loc	1 2870 5
	{
		add r2, r2, r11
		nop
	}
	{
		nop
		ldw r2, r2[0]
	}
	.loc	1 2870 5
	ldaw r2, r2[r3]
	{
		nop
		stw r2, sp[2]
	}
	{
		nop
		stw r8, sp[1]
	}
	{
		nop
		ldw r2, sp[10]
	}
	.loc	1 2870 5
	bl FLAC__lpc_restore_signal
	bu .LBB36_229
.Ltmp1461:
.LBB36_227:
	ldc r1, 116
	.loc	1 2875 4
.Ltmp1462:
	{
		add r1, r0, r1
		mkmsk r2, 1
	}
	{
		nop
		stw r2, r1[0]
	}
	ldc r1, 112
	{
		mov r9, r1
		nop
	}
	.loc	1 2876 4
	{
		add r0, r0, r9
		nop
	}
	{
		nop
		ldw r0, r0[0]
	}
	ldc r1, 1328
	{
		nop
		ldw r2, sp[9]
	}
	.loc	1 2876 4
	{
		add r1, r2, r1
		shl r10, r8, 3
	}
	.loc	1 2876 4
	{
		mov r2, r10
		nop
	}
	bl __memcpy_4
	{
		nop
		ldw r2, r4[1]
	}
	.loc	1 2877 4
	ldaw r0, r2[r7]
	ldc r1, 80
	{
		add r0, r0, r1
		nop
	}
	{
		nop
		ldw r0, r0[0]
	}
	ldc r1, 1128
	.loc	1 2877 4
	{
		add r1, r2, r1
		nop
	}
	{
		nop
		ldw r1, r1[0]
	}
	.loc	1 2877 4
	{
		sub r1, r1, r8
		ldw r3, sp[8]
	}
	.loc	1 2877 4
	{
		add r2, r2, r9
		ldw r3, r3[0]
	}
	{
		nop
		ldw r2, r2[0]
	}
	.loc	1 2877 4
	{
		add r2, r2, r10
		nop
	}
	{
		nop
		stw r2, sp[2]
	}
	{
		nop
		stw r3, sp[1]
	}
	.loc	1 2877 4
	{
		mov r3, r8
		ldw r2, sp[10]
	}
	bl FLAC__lpc_restore_signal_wide_33bit
	bu .LBB36_229
.Ltmp1463:
.LBB36_228:
	{
		nop
		ldw r1, r4[1]
	}
	.loc	1 2872 5
.Ltmp1464:
	ldaw r2, r1[r7]
	ldc r0, 80
	.loc	1 2872 5
	{
		add r0, r2, r0
		nop
	}
	{
		nop
		ldw r0, r0[0]
	}
	ldc r3, 1128
	.loc	1 2872 5
	{
		add r1, r1, r3
		nop
	}
.Ltmp1465:
	.loc	1 2872 5
	{
		mov r3, r8
		ldw r1, r1[0]
	}
.Ltmp1466:
	.loc	1 2872 5
	{
		sub r1, r1, r3
		ldw r11, sp[8]
	}
	.loc	1 2872 5
	{
		ldc r11, 48
		ldw r8, r11[0]
	}
	.loc	1 2872 5
	{
		add r2, r2, r11
		nop
	}
	{
		nop
		ldw r2, r2[0]
	}
	.loc	1 2872 5
	ldaw r2, r2[r3]
	{
		nop
		stw r2, sp[2]
	}
	{
		nop
		stw r8, sp[1]
	}
	{
		nop
		ldw r2, sp[10]
	}
	.loc	1 2872 5
	bl FLAC__lpc_restore_signal_wide
	bu .LBB36_229
.Ltmp1467:
.LBB36_107:
	.loc	1 2063 3
	{
		add r1, r0, r10
		nop
	}
	{
		nop
		ldw r6, r1[0]
	}
.Ltmp1468:
	ldc r1, 1140
	.loc	1 2064 3
	{
		add r1, r0, r1
		nop
	}
	{
		nop
		ldw r1, r1[0]
	}
	.loc	1 2064 3
	{
		eq r2, r1, 3
		nop
	}
	bt r2, .LBB36_112
.Ltmp1469:
	{
		eq r2, r1, 2
		ldc r9, 2
	}
	bf r2, .LBB36_109
.Ltmp1470:
	.loc	1 2075 8
	{
		eq r1, r7, 0
		nop
	}
	.loc	1 2075 8
	{
		add r6, r6, r1
		nop
	}
.Ltmp1471:
	bu .LBB36_113
.Ltmp1472:
.LBB36_112:
	.loc	1 2080 8
	{
		eq r1, r7, 1
		nop
	}
	.loc	1 2080 8
	{
		add r6, r6, r1
		ldc r9, 2
	}
.Ltmp1473:
	bu .LBB36_113
.Ltmp1474:
.LBB36_109:
	{
		eq r1, r1, 1
		nop
	}
	bf r1, .LBB36_113
.Ltmp1475:
	.loc	1 2070 8
	{
		eq r1, r7, 1
		nop
	}
	.loc	1 2070 8
	{
		add r6, r6, r1
		nop
	}
.Ltmp1476:
.LBB36_113:
	{
		nop
		ldw r0, r0[11]
	}
.Ltmp1477:
	ldaw r1, sp[896]
	{
		ldc r2, 8
		nop
	}
	.loc	1 2580 6
.Ltmp1478:
	bl FLAC__bitreader_read_raw_uint32
	bt r0, .LBB36_114
	bu .LBB36_241
.Ltmp1479:
.LBB36_104:
	{
		mov r0, r1
		nop
	}
	bu .LBB36_338
.LBB36_122:
.Ltmp1480:
	{
		nop
		ldw r11, r4[0]
	}
	{
		nop
		ldw r0, r11[0]
	}
	{
		eq r0, r0, 4
		ldc r9, 2
	}
	bt r0, .LBB36_291
.Ltmp1481:
	{
		nop
		ldw r0, r4[1]
	}
	{
		nop
		ldw r0, r0[11]
	}
	.loc	1 2986 6
.Ltmp1482:
	bl FLAC__bitreader_is_consumed_byte_aligned
	bt r0, .LBB36_246
.Ltmp1483:
	{
		ldc r6, 0
		nop
	}
	{
		nop
		stw r6, sp[14]
	}
	{
		nop
		ldw r0, r4[1]
	}
	{
		nop
		ldw r5, r0[11]
	}
	.loc	1 2988 72
.Ltmp1484:
	{
		mov r0, r5
		nop
	}
	bl FLAC__bitreader_bits_left_for_byte_alignment
.Ltmp1485:
	{
		mov r2, r0
		ldaw r1, sp[14]
	}
.Ltmp1486:
	.loc	1 2988 7
	{
		mov r0, r5
		nop
	}
	bl FLAC__bitreader_read_raw_uint32
	bf r0, .LBB36_125
.Ltmp1487:
	{
		nop
		ldw r0, sp[14]
	}
	bf r0, .LBB36_246
.Ltmp1488:
	{
		nop
		ldw r0, r4[1]
	}
	ldc r1, 4680
	.loc	1 3241 5
.Ltmp1489:
	{
		add r1, r0, r1
		nop
	}
	{
		nop
		ldw r1, r1[0]
	}
	bt r1, .LBB36_245
.Ltmp1490:
	{
		nop
		ldw r3, r0[8]
	}
	.loc	1 3242 3
	{
		ldc r1, 0
		ldw r2, r0[9]
	}
	.loc	1 3242 3
	{
		mov r0, r4
		nop
	}
	{
		nop
		bla r3
	}
.Ltmp1491:
.LBB36_245:
	{
		nop
		ldw r0, r4[0]
	}
	{
		nop
		stw r9, r0[0]
	}
.Ltmp1492:
.LBB36_246:
	{
		nop
		ldw r11, r4[0]
	}
	{
		nop
		ldw r0, r11[0]
	}
	.loc	1 2105 5
.Ltmp1493:
	{
		eq r0, r0, 3
		nop
	}
	bf r0, .LBB36_291
.Ltmp1494:
	{
		nop
		ldw r0, r4[1]
	}
	{
		nop
		ldw r0, r0[11]
	}
	.loc	1 2106 15
.Ltmp1495:
	bl FLAC__bitreader_get_read_crc16
	{
		mov r5, r0
		ldw r0, r4[1]
	}
	{
		nop
		ldw r0, r0[11]
	}
	.loc	1 2107 7
.Ltmp1496:
	ldw r2, cp[FLAC__FRAME_FOOTER_CRC_LEN]
	ldaw r1, sp[890]
.Ltmp1497:
	.loc	1 2107 7
	bl FLAC__bitreader_read_raw_uint32
.Ltmp1498:
	{
		nop
		ldw r11, r4[0]
	}
	{
		nop
		ldw r1, r11[0]
	}
	.loc	1 2107 7
	bf r0, .LBB36_248
.Ltmp1499:
	.loc	1 2114 5
	{
		eq r0, r1, 3
		nop
	}
	bf r0, .LBB36_287
.Ltmp1500:
	ldw r1, sp[890]
	{
		eq r1, r5, r1
		nop
	}
	bf r1, .LBB36_287
.Ltmp1501:
	{
		nop
		ldw r0, sp[13]
	}
	bf r0, .LBB36_291
.Ltmp1502:
	{
		nop
		ldw r2, r4[1]
	}
	ldc r0, 1140
	.loc	1 3090 2
.Ltmp1503:
	{
		add r0, r2, r0
		nop
	}
	{
		nop
		ldw r1, r0[0]
	}
	.loc	1 3090 2
	{
		eq r0, r1, 1
		nop
	}
	bt r0, .LBB36_261
.Ltmp1504:
	{
		eq r0, r1, 3
		stw r11, sp[11]
	}
	bf r0, .LBB36_254
.Ltmp1505:
	ldc r0, 1128
	.loc	1 3115 3
.Ltmp1506:
	{
		add r1, r2, r0
		nop
	}
	{
		nop
		stw r1, sp[9]
	}
	{
		nop
		stw r2, sp[10]
	}
	{
		nop
		ldw r0, r1[0]
	}
	bf r0, .LBB36_273
.Ltmp1507:
	ldc r0, 116
	{
		nop
		ldw r6, sp[10]
	}
	.loc	1 3116 7
.Ltmp1508:
	{
		add r0, r6, r0
		nop
	}
	.loc	1 3116 7
	{
		ldc r3, 48
		ldw r0, r0[0]
	}
	.loc	1 3127 5
.Ltmp1509:
	{
		add r3, r6, r3
		nop
	}
	{
		nop
		ldw r10, r3[0]
	}
	{
		ldc r11, 52
		stw r10, sp[8]
	}
.Ltmp1510:
	.loc	1 3119 5
	{
		add r5, r6, r11
		nop
	}
.Ltmp1511:
	.loc	1 2118 4
	bf r0, .LBB36_271
.Ltmp1512:
	ldc r0, 112
	.loc	1 3128 5
.Ltmp1513:
	{
		add r0, r6, r0
		nop
	}
	{
		nop
		ldw r11, r0[0]
	}
	{
		nop
		ldw r0, r5[0]
	}
	{
		ldc r0, 0
		stw r0, sp[7]
	}
	{
		mkmsk r2, 5
		mov r8, r0
	}
	{
		mov r7, r0
		nop
	}
.Ltmp1514:
.LBB36_270:
	{
		nop
		ldw r0, r10[r8]
	}
	.loc	1 3127 5
	ashr r9, r0, 32
	{
		mov r3, r2
		nop
	}
	.loc	1 3127 5
	{
		shr r10, r0, r3
		shl r9, r9, 1
	}
	{
		or r9, r9, r10
		shl r0, r0, 1
	}
	.loc	1 3128 5
	ldd r5, r6, r11[0]
	.loc	1 3128 5
	{
		mov r10, r6
		nop
	}
	{
		zext r10, 1
		nop
	}
	.loc	1 3128 5
	{
		or r0, r10, r0
		mov r2, r7
	}
	.loc	1 3129 5
	ladd r1, r10, r0, r6, r2
	ladd r7, r1, r9, r5, r1
	.loc	1 3129 5
	{
		shl r1, r1, r3
		shr r7, r10, 1
	}
	{
		or r1, r7, r1
		ldw r10, sp[8]
	}
	.loc	1 3129 5
	stw r1, r10[r8]
	.loc	1 3130 5
	lsub r1, r0, r0, r6, r2
	{
		mov r7, r2
		nop
	}
	lsub r5, r1, r9, r5, r1
	.loc	1 3130 5
	{
		shl r1, r1, r3
		mov r2, r3
	}
	{
		shr r0, r0, 1
		nop
	}
	{
		or r0, r0, r1
		ldw r1, sp[9]
	}
	{
		nop
		ldw r3, sp[7]
	}
	.loc	1 3130 5
	stw r0, r3[r8]
.Ltmp1515:
	.loc	1 3115 3
	{
		add r8, r8, 1
		ldw r0, r1[0]
	}
.Ltmp1516:
	.loc	1 3115 3
	{
		add r11, r11, 8
		lsu r0, r8, r0
	}
	bt r0, .LBB36_270
	bu .LBB36_273
.Ltmp1517:
.LBB36_240:
	{
		ldc r9, 2
		nop
	}
.Ltmp1518:
.LBB36_241:
	{
		nop
		ldw r11, r4[0]
	}
	{
		nop
		ldw r0, r11[0]
	}
	.loc	1 2091 7
.Ltmp1519:
	{
		eq r0, r0, 4
		nop
	}
	bt r0, .LBB36_291
	bu .LBB36_320
.Ltmp1520:
.LBB36_80:
	{
		nop
		ldw r0, r4[1]
	}
	{
		nop
		ldw r0, r0[11]
	}
	ldaw r1, sp[891]
.Ltmp1521:
	{
		ldc r2, 8
		nop
	}
	.loc	1 2514 8
.Ltmp1522:
	bl FLAC__bitreader_read_raw_uint32
.Ltmp1523:
	bf r0, .LBB36_320
.Ltmp1524:
	.loc	1 2516 4
	ldw r0, sp[891]
	.loc	1 2516 4
	ldw r1, sp[896]
	.loc	1 2516 4
	{
		add r2, r1, 1
		nop
	}
.Ltmp1525:
	.loc	1 2516 4
	stw r2, sp[896]
	{
		ldaw r2, sp[14]
		nop
	}
.Ltmp1526:
	.loc	1 2516 4
	st8 r0, r2[r1]
	.loc	1 2517 4
	ldw r1, sp[897]
	.loc	1 2517 4
	{
		shl r1, r1, 8
		nop
	}
	.loc	1 2517 4
	{
		or r1, r1, r0
		nop
	}
.Ltmp1527:
	.loc	1 2517 4
	stw r1, sp[897]
	{
		ldc r0, 13
		nop
	}
.Ltmp1528:
	.loc	1 2521 11
	{
		eq r0, r10, r0
		nop
	}
	bt r0, .LBB36_83
.Ltmp1529:
	{
		ldc r0, 10
		nop
	}
	.loc	1 2524 4
	mul r1, r1, r0
.Ltmp1530:
.LBB36_83:
	{
		nop
		ldw r0, r4[1]
	}
	ldc r2, 1132
	.loc	1 2524 4
	{
		add r2, r0, r2
		nop
	}
	{
		nop
		stw r1, r2[0]
	}
.Ltmp1531:
.LBB36_84:
	{
		nop
		ldw r0, r0[11]
	}
	ldaw r5, sp[897]
.Ltmp1532:
	{
		ldc r2, 8
		mov r1, r5
	}
	.loc	1 2528 6
.Ltmp1533:
	bl FLAC__bitreader_read_raw_uint32
	bf r0, .LBB36_320
.Ltmp1534:
	.loc	1 2530 2
	{
		ldc r7, 0
		nop
	}
	{
		nop
		ld8u r5, r5[r7]
	}
.Ltmp1535:
	.loc	1 2533 5
	ldw r1, sp[896]
	{
		ldaw r0, sp[14]
		nop
	}
	.loc	1 2533 5
	bl FLAC__crc8
	.loc	1 2533 5
	{
		eq r1, r0, r5
		ldw r0, r4[1]
	}
	bf r1, .LBB36_4
.Ltmp1536:
	ldc r1, 228
	.loc	1 2541 2
	{
		add r1, r0, r1
		nop
	}
	{
		nop
		stw r7, r1[0]
	}
	ldc r2, 1148
	.loc	1 2542 5
.Ltmp1537:
	{
		add r11, r0, r2
		nop
	}
	{
		nop
		ldw r2, r11[0]
	}
	bt r2, .LBB36_96
.Ltmp1538:
	ldc r2, 1152
	.loc	1 2543 3
.Ltmp1539:
	{
		add r2, r0, r2
		nop
	}
	{
		nop
		ldw r3, r2[0]
	}
.Ltmp1540:
	.loc	1 2543 3
	stw r3, sp[897]
	{
		mkmsk r5, 1
		nop
	}
	{
		nop
		stw r5, r11[0]
	}
	ldc r11, 224
	.loc	1 2545 6
.Ltmp1541:
	{
		add r11, r0, r11
		nop
	}
	{
		nop
		ldw r11, r11[0]
	}
	.loc	1 2545 6
	bf r11, .LBB36_89
.Ltmp1542:
	.loc	1 2546 4
	lmul r1, r3, r11, r3, r7, r7
.Ltmp1543:
.LBB36_95:
	.loc	1 2561 4
	std r1, r3, r2[0]
.Ltmp1544:
.LBB36_96:
	bt r8, .LBB36_98
.Ltmp1545:
	bt r6, .LBB36_98
.Ltmp1546:
	{
		nop
		ldw r0, r4[0]
	}
	bu .LBB36_102
.Ltmp1547:
.LBB36_51:
	{
		mkmsk r6, 1
		nop
	}
	bu .LBB36_61
.Ltmp1548:
.LBB36_248:
	.loc	1 2109 7
	{
		eq r0, r1, 4
		nop
	}
	bt r0, .LBB36_291
	bu .LBB36_320
.Ltmp1549:
.LBB36_125:
	{
		mov r0, r6
		nop
	}
	bu .LBB36_338
.LBB36_287:
.Ltmp1550:
	bf r0, .LBB36_291
.Ltmp1551:
	{
		nop
		ldw r0, r4[1]
	}
	ldc r1, 4680
	.loc	1 3241 5
.Ltmp1552:
	{
		add r1, r0, r1
		nop
	}
	{
		nop
		ldw r1, r1[0]
	}
	bt r1, .LBB36_290
.Ltmp1553:
	{
		nop
		ldw r3, r0[8]
	}
	.loc	1 3242 3
	{
		ldc r1, 2
		ldw r2, r0[9]
	}
	.loc	1 3242 3
	{
		mov r0, r4
		nop
	}
	{
		nop
		bla r3
	}
	{
		nop
		ldw r11, r4[0]
	}
.Ltmp1554:
.LBB36_290:
	{
		nop
		stw r9, r11[0]
	}
	bu .LBB36_291
.Ltmp1555:
.LBB36_89:
	ldc r11, 240
	.loc	1 2547 11
.Ltmp1556:
	{
		add r11, r0, r11
		nop
	}
	{
		nop
		ldw r11, r11[0]
	}
	.loc	1 2547 11
	bf r11, .LBB36_92
.Ltmp1557:
	ldc r11, 264
	.loc	1 2548 7
.Ltmp1558:
	{
		add r11, r0, r11
		nop
	}
	{
		nop
		ldw r11, r11[0]
	}
	ldc r5, 268
	.loc	1 2548 7
	{
		add r5, r0, r5
		nop
	}
	{
		nop
		ldw r5, r5[0]
	}
	.loc	1 2548 7
	{
		eq r5, r11, r5
		nop
	}
	bf r5, .LBB36_98
.Ltmp1559:
	.loc	1 2549 5
	lmul r3, r5, r11, r3, r7, r7
.Ltmp1560:
	.loc	1 2549 5
	std r3, r5, r2[0]
	{
		nop
		stw r11, r1[0]
	}
	bu .LBB36_96
.Ltmp1561:
.LBB36_98:
	ldc r1, 4680
	.loc	1 3241 5
.Ltmp1562:
	{
		add r1, r0, r1
		nop
	}
	{
		nop
		ldw r1, r1[0]
	}
	.loc	1 3241 5
	bf r1, .LBB36_99
.Ltmp1563:
	ldc r1, 8336
	.loc	1 3244 3
.Ltmp1564:
	{
		add r0, r0, r1
		nop
	}
	{
		nop
		ldw r1, r0[0]
	}
	.loc	1 3244 3
	{
		add r1, r1, 1
		nop
	}
	{
		nop
		stw r1, r0[0]
	}
	bu .LBB36_7
.Ltmp1565:
.LBB36_99:
	{
		nop
		ldw r3, r0[8]
	}
.Ltmp1566:
	.loc	1 3242 3
	{
		mkmsk r1, 2
		ldw r2, r0[9]
	}
	bu .LBB36_6
.Ltmp1567:
.LBB36_261:
	{
		nop
		stw r11, sp[11]
	}
	ldc r0, 1128
	.loc	1 3097 3
.Ltmp1568:
	{
		add r1, r2, r0
		stw r2, sp[10]
	}
	{
		nop
		ldw r0, r1[0]
	}
	bf r0, .LBB36_273
.Ltmp1569:
	ldc r0, 116
	{
		nop
		ldw r2, sp[10]
	}
	.loc	1 3098 7
.Ltmp1570:
	{
		add r0, r2, r0
		nop
	}
	.loc	1 3098 7
	{
		ldc r3, 48
		ldw r0, r0[0]
	}
	.loc	1 3099 5
	{
		add r3, r2, r3
		nop
	}
	.loc	1 3099 5
	{
		ldc r11, 52
		ldw r3, r3[0]
	}
	.loc	1 3101 5
	{
		add r5, r2, r11
		nop
	}
.Ltmp1571:
	.loc	1 2118 4
	bf r0, .LBB36_265
.Ltmp1572:
	ldc r0, 112
	.loc	1 3099 5
.Ltmp1573:
	{
		add r0, r2, r0
		nop
	}
	{
		nop
		ldw r11, r0[0]
	}
	.loc	1 3099 5
	{
		ldc r6, 0
		ldw r5, r5[0]
	}
.Ltmp1574:
	.loc	1 2118 4
	{
		mov r7, r6
		nop
	}
.Ltmp1575:
.LBB36_264:
	{
		nop
		ldw r0, r3[r7]
	}
	.loc	1 3099 5
.Ltmp1576:
	ldd r9, r8, r11[0]
	.loc	1 3099 5
	lsub r8, r0, r0, r8, r6
	.loc	1 3099 5
	stw r0, r5[r7]
.Ltmp1577:
	.loc	1 3097 3
	{
		add r7, r7, 1
		ldw r0, r1[0]
	}
.Ltmp1578:
	.loc	1 3097 3
	{
		add r11, r11, 8
		lsu r0, r7, r0
	}
	bt r0, .LBB36_264
	bu .LBB36_273
.Ltmp1579:
.LBB36_254:
	{
		eq r0, r1, 2
		stw r2, sp[10]
	}
	bf r0, .LBB36_273
.Ltmp1580:
	ldc r0, 1128
	{
		nop
		ldw r1, sp[10]
	}
	.loc	1 3106 3
.Ltmp1581:
	{
		add r1, r1, r0
		nop
	}
	{
		nop
		ldw r0, r1[0]
	}
	bf r0, .LBB36_273
.Ltmp1582:
	ldc r0, 116
	{
		nop
		ldw r2, sp[10]
	}
	.loc	1 3107 7
.Ltmp1583:
	{
		add r0, r2, r0
		nop
	}
	.loc	1 3107 7
	{
		ldc r3, 48
		ldw r0, r0[0]
	}
	.loc	1 3108 5
	{
		add r5, r2, r3
		ldc r3, 52
	}
	{
		add r3, r2, r3
		nop
	}
	{
		nop
		ldw r3, r3[0]
	}
.Ltmp1584:
	.loc	1 2118 4
	bf r0, .LBB36_259
.Ltmp1585:
	ldc r0, 112
	.loc	1 3108 5
.Ltmp1586:
	{
		add r0, r2, r0
		nop
	}
	{
		nop
		ldw r11, r0[0]
	}
	.loc	1 3108 5
	{
		ldc r6, 0
		ldw r5, r5[0]
	}
.Ltmp1587:
	.loc	1 2118 4
	{
		mov r7, r6
		nop
	}
.Ltmp1588:
.LBB36_258:
	{
		nop
		ldw r0, r3[r7]
	}
	.loc	1 3108 5
.Ltmp1589:
	ldd r9, r8, r11[0]
	.loc	1 3108 5
	ladd r8, r0, r8, r0, r6
	.loc	1 3108 5
	stw r0, r5[r7]
.Ltmp1590:
	.loc	1 3106 3
	{
		add r7, r7, 1
		ldw r0, r1[0]
	}
.Ltmp1591:
	.loc	1 3106 3
	{
		add r11, r11, 8
		lsu r0, r7, r0
	}
	bt r0, .LBB36_258
	bu .LBB36_273
.Ltmp1592:
.LBB36_92:
	.loc	1 2555 11
	bf r3, .LBB36_93
.Ltmp1593:
	ldc r1, 1128
	.loc	1 2561 4
.Ltmp1594:
	{
		add r1, r0, r1
		nop
	}
	{
		nop
		ldw r1, r1[0]
	}
	.loc	1 2561 4
	lmul r1, r3, r1, r3, r7, r7
.Ltmp1595:
	bu .LBB36_95
.Ltmp1596:
.LBB36_93:
	ldc r3, 1128
	.loc	1 2556 4
.Ltmp1597:
	{
		add r3, r0, r3
		nop
	}
	.loc	1 2556 4
	std r7, r7, r2[0]
	{
		nop
		ldw r2, r3[0]
	}
	{
		nop
		stw r2, r1[0]
	}
	bu .LBB36_96
.Ltmp1598:
.LBB36_271:
	.loc	1 3119 5
	{
		ldc r5, 0
		ldw r11, r5[0]
	}
.Ltmp1599:
.LBB36_272:
	{
		nop
		ldw r0, r10[r5]
	}
.Ltmp1600:
	.loc	1 3119 5
	{
		shl r0, r0, 1
		ldw r6, r11[r5]
	}
.Ltmp1601:
	.loc	1 3121 5
	{
		mov r7, r6
		nop
	}
	{
		zext r7, 1
		nop
	}
	.loc	1 3121 5
	{
		or r0, r7, r0
		nop
	}
	.loc	1 3122 5
	{
		add r7, r0, r6
		nop
	}
	.loc	1 3122 5
	ashr r7, r7, 1
	.loc	1 3122 5
	stw r7, r10[r5]
	.loc	1 3123 5
	{
		sub r0, r0, r6
		nop
	}
	.loc	1 3123 5
	ashr r0, r0, 1
	.loc	1 3123 5
	stw r0, r11[r5]
.Ltmp1602:
	.loc	1 3115 3
	{
		add r5, r5, 1
		ldw r0, r1[0]
	}
.Ltmp1603:
	.loc	1 3115 3
	{
		lsu r0, r5, r0
		nop
	}
	bt r0, .LBB36_272
	bu .LBB36_273
.Ltmp1604:
.LBB36_265:
	.loc	1 3101 5
	{
		ldc r5, 0
		ldw r11, r5[0]
	}
.Ltmp1605:
.LBB36_266:
	{
		nop
		ldw r0, r3[r5]
	}
	{
		nop
		ldw r6, r11[r5]
	}
	.loc	1 3101 5
	{
		sub r0, r0, r6
		nop
	}
	.loc	1 3101 5
	stw r0, r11[r5]
.Ltmp1606:
	.loc	1 3097 3
	{
		add r5, r5, 1
		ldw r0, r1[0]
	}
.Ltmp1607:
	.loc	1 3097 3
	{
		lsu r0, r5, r0
		nop
	}
	bt r0, .LBB36_266
	bu .LBB36_273
.Ltmp1608:
.LBB36_259:
	.loc	1 3110 5
	{
		ldc r5, 0
		ldw r11, r5[0]
	}
.Ltmp1609:
.LBB36_260:
	{
		nop
		ldw r0, r3[r5]
	}
	{
		nop
		ldw r6, r11[r5]
	}
	.loc	1 3110 5
	{
		add r0, r6, r0
		nop
	}
	.loc	1 3110 5
	stw r0, r11[r5]
.Ltmp1610:
	.loc	1 3106 3
	{
		add r5, r5, 1
		ldw r0, r1[0]
	}
.Ltmp1611:
	.loc	1 3106 3
	{
		lsu r0, r5, r0
		nop
	}
	bt r0, .LBB36_260
.Ltmp1612:
.LBB36_273:
	ldc r0, 1136
	{
		nop
		ldw r2, sp[10]
	}
	.loc	1 2120 4
.Ltmp1613:
	{
		add r0, r2, r0
		nop
	}
	{
		nop
		ldw r0, r0[0]
	}
	.loc	1 2120 4
	bf r0, .LBB36_274
.Ltmp1614:
	{
		ldc r5, 0
		ldc r8, 32
	}
	ldw r10, cp[.LCPI36_4]
	ldw r6, cp[.LCPI36_5]
	{
		ldc r9, 2
		ldw r11, sp[11]
	}
.Ltmp1615:
.LBB36_276:
	ldc r0, 1128
	.loc	1 2121 5
.Ltmp1616:
	{
		add r0, r2, r0
		nop
	}
	{
		nop
		ldw r1, r0[0]
	}
	bf r1, .LBB36_286
.Ltmp1617:
	{
		nop
		stw r11, sp[11]
	}
	ldc r0, 1144
	{
		add r0, r2, r0
		nop
	}
	{
		nop
		ldw r3, r0[0]
	}
	ldaw r0, r2[r5]
	{
		ldc r2, 48
		stw r2, sp[10]
	}
	{
		add r0, r0, r2
		nop
	}
	.loc	1 2124 9
.Ltmp1618:
	{
		ldc r9, 0
		ldw r11, r0[0]
	}
.Ltmp1619:
.LBB36_278:
	.loc	1 2122 6
	{
		sub r0, r8, r3
		ldw r7, r11[r9]
	}
.Ltmp1620:
	.loc	1 2124 9
	ashr r2, r10, r0
	.loc	1 2124 9
	{
		lss r2, r7, r2
		nop
	}
	bt r2, .LBB36_282
.Ltmp1621:
	{
		shr r0, r6, r0
		nop
	}
	{
		lss r0, r0, r7
		nop
	}
	bt r0, .LBB36_282
.Ltmp1622:
	.loc	1 2121 63
	{
		add r9, r9, 1
		nop
	}
.Ltmp1623:
	.loc	1 2121 5
	{
		lsu r0, r9, r1
		nop
	}
	bt r0, .LBB36_278
.Ltmp1624:
	{
		ldc r9, 2
		ldw r11, sp[11]
	}
	{
		nop
		ldw r2, sp[10]
	}
	bu .LBB36_286
.Ltmp1625:
.LBB36_282:
	{
		nop
		ldw r2, sp[10]
	}
	ldc r0, 4680
	.loc	1 3241 5
.Ltmp1626:
	{
		add r0, r2, r0
		nop
	}
	{
		nop
		ldw r0, r0[0]
	}
	.loc	1 3241 5
	bf r0, .LBB36_284
.Ltmp1627:
	{
		ldc r9, 2
		ldw r11, sp[11]
	}
	bu .LBB36_285
.Ltmp1628:
.LBB36_284:
	{
		nop
		ldw r3, r2[8]
	}
	.loc	1 3242 3
	{
		mov r0, r4
		ldw r2, r2[9]
	}
	{
		ldc r9, 2
		nop
	}
	.loc	1 3242 3
	{
		mov r1, r9
		nop
	}
	{
		nop
		bla r3
	}
	{
		nop
		ldw r11, r4[0]
	}
	{
		nop
		ldw r2, r4[1]
	}
.Ltmp1629:
.LBB36_285:
	{
		nop
		stw r9, r11[0]
	}
.Ltmp1630:
.LBB36_286:
	.loc	1 2120 73
	{
		add r5, r5, 1
		nop
	}
.Ltmp1631:
	ldc r0, 1136
	.loc	1 2120 4
	{
		add r0, r2, r0
		nop
	}
	{
		nop
		ldw r0, r0[0]
	}
	.loc	1 2120 4
	{
		lsu r0, r5, r0
		nop
	}
	bt r0, .LBB36_276
	bu .LBB36_291
.Ltmp1632:
.LBB36_274:
	{
		ldc r9, 2
		ldw r11, sp[11]
	}
.Ltmp1633:
.LBB36_291:
	{
		nop
		ldw r0, r4[1]
	}
	ldc r1, 8304
	.loc	1 2144 5
.Ltmp1634:
	{
		add r1, r0, r1
		nop
	}
	{
		nop
		ldw r1, r1[0]
	}
	bf r1, .LBB36_322
.Ltmp1635:
	{
		nop
		ldw r1, r11[0]
	}
	.loc	1 2144 5
	{
		eq r1, r1, 3
		nop
	}
	bf r1, .LBB36_322
.Ltmp1636:
	ldc r1, 4680
	.loc	1 2144 5
	{
		add r1, r0, r1
		nop
	}
	{
		nop
		ldw r1, r1[0]
	}
	ldc r10, 1144
	bt r1, .LBB36_323
.Ltmp1637:
	{
		nop
		ldw r1, sp[13]
	}
	bf r1, .LBB36_323
.Ltmp1638:
	{
		nop
		stw r11, sp[11]
	}
	ldc r1, 4800
	.loc	1 2147 6
.Ltmp1639:
	{
		add r1, r0, r1
		nop
	}
	ldc r2, 4824
	{
		add r2, r0, r2
		nop
	}
	.loc	1 2147 6
	ldd r6, r2, r2[0]
	.loc	1 2147 6
	{
		ldc r5, 0
		ldw r3, r1[0]
	}
	.loc	1 2147 6
	ladd r2, r11, r3, r2, r5
	{
		add r7, r6, r2
		nop
	}
	ldc r2, 1152
	.loc	1 2147 6
	{
		add r2, r0, r2
		nop
	}
	.loc	1 2147 6
	ldd r8, r6, r2[0]
	.loc	1 2147 6
	{
		eq r2, r8, r7
		nop
	}
	bt r2, .LBB36_296
.Ltmp1640:
	{
		lsu r2, r7, r8
		nop
	}
	bu .LBB36_298
.Ltmp1641:
.LBB36_296:
	{
		lsu r2, r11, r6
		nop
	}
.Ltmp1642:
.LBB36_298:
	{
		eq r7, r2, 0
		nop
	}
.Ltmp1643:
	bt r7, .LBB36_299
.Ltmp1644:
	.loc	1 2148 4
	lsub r2, r6, r6, r11, r5
	ldc r2, 4804
	.loc	1 2154 7
.Ltmp1645:
	{
		add r2, r0, r2
		nop
	}
	{
		nop
		ldw r2, r2[0]
	}
	ldc r11, 1132
	.loc	1 2154 7
	{
		add r11, r0, r11
		nop
	}
	{
		nop
		ldw r11, r11[0]
	}
	.loc	1 2154 7
	{
		eq r2, r2, r11
		nop
	}
	bf r2, .LBB36_301
.Ltmp1646:
	ldc r2, 4808
	.loc	1 2154 7
	{
		add r2, r0, r2
		nop
	}
	{
		nop
		ldw r2, r2[0]
	}
	ldc r11, 1136
	.loc	1 2154 7
	{
		add r11, r0, r11
		nop
	}
	{
		nop
		ldw r11, r11[0]
	}
	.loc	1 2154 7
	{
		eq r2, r2, r11
		nop
	}
	bf r2, .LBB36_303
.Ltmp1647:
	ldc r2, 4816
	.loc	1 2154 7
	{
		add r2, r0, r2
		nop
	}
	.loc	1 2154 7
	{
		add r0, r0, r10
		ldw r2, r2[0]
	}
	{
		nop
		ldw r0, r0[0]
	}
	.loc	1 2154 7
	{
		eq r0, r2, r0
		ldw r11, sp[11]
	}
	bf r0, .LBB36_323
.Ltmp1648:
	{
		shr r0, r3, 4
		nop
	}
	bf r0, .LBB36_323
.Ltmp1649:
	{
		ldc r2, 40
		ldaw r7, sp[14]
	}
	.loc	1 2160 5
.Ltmp1650:
	{
		mov r0, r7
		nop
	}
	bl __memcpy_4
	.loc	1 2161 5
	ldaw r0, sp[888]
	.loc	1 2161 5
	st16 r5, r0[r5]
	{
		ldc r0, 4
		nop
	}
	.loc	1 2165 8
.Ltmp1651:
	{
		or r0, r7, r0
		nop
	}
	{
		nop
		ldw r0, r0[0]
	}
	.loc	1 2165 8
	ldaw r0, r0[r0]
.Ltmp1652:
	.loc	1 2165 8
	{
		lsu r1, r0, r6
		nop
	}
	bt r1, .LBB36_308
.Ltmp1653:
	.loc	1 2165 8
	{
		mov r0, r6
		nop
	}
.Ltmp1654:
.LBB36_308:
	.loc	1 2167 8
	{
		ldc r2, 50
		ldw r1, sp[14]
	}
	.loc	1 2167 8
	mul r6, r1, r2
.Ltmp1655:
	.loc	1 2167 8
	{
		lsu r1, r6, r0
		nop
	}
	bt r1, .LBB36_310
.Ltmp1656:
	.loc	1 2167 8
	{
		mov r6, r0
		nop
	}
.Ltmp1657:
.LBB36_310:
	{
		ldc r10, 48
		nop
	}
	ldc r8, 464
	ldc r7, 432
.Ltmp1658:
.LBB36_311:
	.loc	1 2169 5
	bf r6, .LBB36_321
.Ltmp1659:
	{
		nop
		ldw r9, sp[14]
	}
	.loc	1 2170 6
.Ltmp1660:
	ldd r1, r0, sp[10]
	.loc	1 2170 6
	ladd r2, r0, r0, r9, r5
	{
		add r1, r1, r2
		nop
	}
	.loc	1 2170 6
	std r1, r0, sp[10]
	.loc	1 2171 9
.Ltmp1661:
	{
		lsu r2, r6, r9
		nop
	}
	bf r2, .LBB36_314
.Ltmp1662:
	.loc	1 2172 7
	{
		mov r9, r6
		stw r6, sp[14]
	}
.Ltmp1663:
.LBB36_314:
	{
		nop
		stw r6, sp[11]
	}
	{
		nop
		ldw r2, r4[0]
	}
	{
		nop
		stw r9, r2[6]
	}
	.loc	1 2177 6
	ladd r2, r0, r9, r0, r5
	{
		add r1, r1, r2
		ldw r2, r4[1]
	}
	ldc r3, 232
	.loc	1 2177 6
	{
		add r2, r2, r3
		nop
	}
	.loc	1 2177 6
	std r1, r0, r2[0]
	{
		nop
		ldw r2, sp[16]
	}
	.loc	1 2179 10
.Ltmp1664:
	{
		mov r0, r4
		ldw r3, sp[18]
	}
	.loc	1 2179 10
	{
		mov r1, r9
		nop
	}
	bl allocate_output_
	bf r0, .LBB36_320
.Ltmp1665:
	{
		nop
		stw r9, sp[10]
	}
	.loc	1 2182 6
.Ltmp1666:
	{
		ldaw r9, sp[14]
		ldw r0, sp[16]
	}
	{
		mov r6, r5
		nop
	}
	bf r0, .LBB36_317
.Ltmp1667:
.LBB36_316:
	.loc	1 2183 7
	{
		add r0, r9, r10
		stw r5, r9[10]
	}
	.loc	1 2184 7
	std r5, r5, r0[0]
	{
		add r0, r9, r8
		nop
	}
	{
		nop
		stw r5, r0[0]
	}
	{
		nop
		ldw r0, r4[1]
	}
	ldaw r0, r0[r6]
	{
		add r0, r0, r10
		nop
	}
	{
		nop
		ldw r0, r0[0]
	}
	{
		nop
		ldw r1, sp[14]
	}
	.loc	1 2186 7
	{
		shl r2, r1, 2
		mov r1, r5
	}
	.loc	1 2186 7
	bl memset
.Ltmp1668:
	.loc	1 2182 62
	{
		add r6, r6, 1
		ldw r0, sp[16]
	}
.Ltmp1669:
	.loc	1 2182 6
	{
		add r9, r9, r7
		lsu r0, r6, r0
	}
	bt r0, .LBB36_316
.Ltmp1670:
.LBB36_317:
	{
		nop
		ldw r6, sp[11]
	}
	{
		nop
		ldw r0, sp[10]
	}
.Ltmp1671:
	.loc	1 2173 6
	{
		sub r6, r6, r0
		ldw r0, r4[1]
	}
.Ltmp1672:
	.loc	1 2189 9
	{
		add r2, r0, r10
		mov r0, r4
	}
	{
		ldaw r1, sp[14]
		nop
	}
	.loc	1 2189 9
	bl write_audio_frame_to_client_
	{
		ldc r9, 2
		nop
	}
	bf r0, .LBB36_311
.Ltmp1673:
	.loc	1 2190 7
	{
		mkmsk r1, 3
		ldw r0, r4[0]
	}
	bu .LBB36_319
.Ltmp1674:
.LBB36_299:
	{
		nop
		ldw r11, sp[11]
	}
	bu .LBB36_323
.Ltmp1675:
.LBB36_301:
	{
		nop
		ldw r11, sp[11]
	}
	bu .LBB36_323
.Ltmp1676:
.LBB36_303:
	{
		nop
		ldw r11, sp[11]
	}
	bu .LBB36_323
.Ltmp1677:
.LBB36_321:
	{
		nop
		ldw r11, r4[0]
	}
.Ltmp1678:
.LBB36_322:
	ldc r10, 1144
.LBB36_323:
.Ltmp1679:
	{
		nop
		ldw r0, r11[0]
	}
	.loc	1 2198 5
.Ltmp1680:
	{
		eq r1, r0, 2
		nop
	}
	bt r1, .LBB36_325
.Ltmp1681:
	{
		eq r0, r0, 4
		nop
	}
	bf r0, .LBB36_332
.Ltmp1682:
.LBB36_325:
	{
		nop
		ldw r0, r4[1]
	}
	{
		nop
		ldw r0, r0[11]
	}
	.loc	1 2201 7
.Ltmp1683:
	bl FLAC__bitreader_rewind_to_after_last_seen_framesync
	bt r0, .LBB36_337
.Ltmp1684:
	{
		nop
		ldw r0, r4[1]
	}
	{
		nop
		ldw r11, r0[2]
	}
	bf r11, .LBB36_337
.Ltmp1685:
	ldc r1, 8320
	.loc	1 2205 7
.Ltmp1686:
	{
		add r1, r0, r1
		nop
	}
	.loc	1 2205 7
	ldd r2, r1, r1[0]
	.loc	1 2205 7
	{
		or r3, r1, r2
		nop
	}
	bf r3, .LBB36_337
.Ltmp1687:
	.loc	1 2213 8
	{
		mov r0, r4
		ldw r3, r0[9]
	}
	{
		nop
		bla r11
	}
	.loc	1 2213 8
	{
		eq r0, r0, 1
		nop
	}
	bf r0, .LBB36_330
.Ltmp1688:
	.loc	1 2214 6
	{
		ldc r1, 6
		ldw r0, r4[0]
	}
	bu .LBB36_319
.Ltmp1689:
.LBB36_332:
	{
		mkmsk r0, 1
		ldw r1, sp[12]
	}
	{
		nop
		stw r0, r1[0]
	}
	{
		nop
		ldw r0, r4[1]
	}
	ldc r1, 228
	.loc	1 2233 6
.Ltmp1690:
	{
		add r1, r0, r1
		nop
	}
	{
		nop
		ldw r1, r1[0]
	}
	bf r1, .LBB36_334
.Ltmp1691:
	ldc r2, 224
	.loc	1 2234 4
	{
		add r2, r0, r2
		nop
	}
	{
		nop
		stw r1, r2[0]
	}
.Ltmp1692:
.LBB36_334:
	ldc r1, 1128
	.loc	1 2237 3
	{
		add r1, r0, r1
		nop
	}
	ldc r2, 1136
	{
		add r2, r0, r2
		nop
	}
	{
		nop
		ldw r2, r2[0]
	}
	{
		nop
		stw r2, r11[2]
	}
	ldc r2, 1140
	.loc	1 2238 3
	{
		add r2, r0, r2
		nop
	}
	{
		nop
		ldw r2, r2[0]
	}
	.loc	1 2238 3
	{
		add r2, r0, r10
		stw r2, r11[3]
	}
	{
		nop
		ldw r2, r2[0]
	}
	{
		nop
		stw r2, r11[4]
	}
	ldc r2, 1132
	.loc	1 2240 3
	{
		add r2, r0, r2
		nop
	}
	{
		nop
		ldw r2, r2[0]
	}
	{
		nop
		stw r2, r11[5]
	}
	{
		nop
		ldw r2, r1[0]
	}
	{
		nop
		stw r2, r11[6]
	}
	ldc r3, 1152
	.loc	1 2244 3
	{
		add r3, r0, r3
		nop
	}
	.loc	1 2244 3
	ldd r11, r3, r3[0]
	{
		ldc r5, 0
		nop
	}
	.loc	1 2244 3
	ladd r3, r2, r2, r3, r5
	{
		add r3, r11, r3
		nop
	}
	ldc r11, 232
	.loc	1 2244 3
	{
		add r11, r0, r11
		nop
	}
	.loc	1 2244 3
	std r3, r2, r11[0]
	{
		nop
		ldw r2, sp[13]
	}
	bf r2, .LBB36_337
.Ltmp1693:
	{
		ldc r2, 48
		nop
	}
	.loc	1 2248 7
.Ltmp1694:
	{
		add r2, r0, r2
		mov r0, r4
	}
	.loc	1 2248 7
	bl write_audio_frame_to_client_
	bf r0, .LBB36_337
.Ltmp1695:
	.loc	1 2249 5
	{
		mkmsk r1, 3
		ldw r0, r4[0]
	}
	.loc	1 2249 5
	{
		mov r0, r5
		stw r1, r0[0]
	}
	bu .LBB36_338
.Ltmp1696:
.LBB36_330:
	{
		nop
		ldw r0, r4[1]
	}
	{
		nop
		ldw r0, r0[11]
	}
	.loc	1 2217 9
.Ltmp1697:
	bl FLAC__bitreader_clear
	bf r0, .LBB36_331
.Ltmp1698:
.LBB36_337:
	{
		nop
		ldw r0, r4[0]
	}
	.loc	1 2255 2
	{
		mkmsk r0, 1
		stw r9, r0[0]
	}
	bu .LBB36_338
.Ltmp1699:
.LBB36_331:
	.loc	1 2218 6
	{
		ldc r1, 8
		ldw r0, r4[0]
	}
.Ltmp1700:
.LBB36_319:
	{
		nop
		stw r1, r0[0]
	}
.LBB36_320:
	.loc	1 2423 2
.Ltmp1701:
	{
		ldc r0, 0
		nop
	}
.Ltmp1702:
.LBB36_338:
	.loc	1 2257 1
	ldw r10, sp[904]
	ldw r8, sp[902]
	ldw r9, sp[903]
	ldw r6, sp[900]
	ldw r7, sp[901]
	ldw r4, sp[898]
	ldw r5, sp[899]
	retsp 906
	# RETURN_REG_HOLDER
.Ltmp1703:
	.cc_bottom read_frame_.function
	.set	read_frame_.nstackwords.pragma,400
	.set	read_frame_.nstackwords,read_frame_.nstackwords



.Ltmp1704:
	.size	read_frame_, .Ltmp1704-read_frame_
.Lfunc_end36:
	.cfi_endproc

	.globl	FLAC__stream_decoder_process_until_end_of_metadata
	.align	4
	.type	FLAC__stream_decoder_process_until_end_of_metadata,@function
	.cc_top FLAC__stream_decoder_process_until_end_of_metadata.function,FLAC__stream_decoder_process_until_end_of_metadata
FLAC__stream_decoder_process_until_end_of_metadata:
.Lfunc_begin37:
	.loc	1 1019 0
	.cfi_startproc
	.issue_mode dual
	{
		nop
		dualentsp 6
	}
.Ltmp1705:
	.cfi_def_cfa_offset 24
.Ltmp1706:
	.cfi_offset 15, 0
	std r5, r4, sp[1]
.Ltmp1707:
	.cfi_offset 4, -16
.Ltmp1708:
	.cfi_offset 5, -12
	std r7, r6, sp[2]
.Ltmp1709:
	.cfi_offset 6, -8
.Ltmp1710:
	.cfi_offset 7, -4
.Ltmp1711:
	{
		mov r5, r0
		mkmsk r6, 1
	}
.Ltmp1712:
	{
		ldc r4, 0
		mkmsk r7, 3
	}
.LBB37_1:
.Ltmp1713:
	{
		nop
		ldw r0, r5[0]
	}
	{
		nop
		ldw r0, r0[0]
	}
	.loc	1 1024 3 prologue_end
.Ltmp1714:
	{
		lsu r1, r7, r0
		nop
	}
	bt r1, .LBB37_7
.Ltmp1715:

	.xtabranch .Ljumptable6+4,.Ljumptable6+8,.Ljumptable6+12,.Ljumptable6+16,.Ljumptable6+20,.Ljumptable6+24,.Ljumptable6+28,.Ljumptable6+32
.Ljumptable6:
		
	{
		nop
		bru r0
	}
	.jmptable32 .LBB37_3,.LBB37_4,.LBB37_6,.LBB37_6,.LBB37_6,.LBB37_7,.LBB37_7,.LBB37_6
.Ltmp1716:
.LBB37_3:
	.loc	1 1026 9
	{
		mov r0, r5
		nop
	}
	bl find_metadata_
	bt r0, .LBB37_1
	bu .LBB37_5
.Ltmp1717:
.LBB37_4:
	.loc	1 1030 9
	{
		mov r0, r5
		nop
	}
	bl read_metadata_
	bt r0, .LBB37_1
.Ltmp1718:
.LBB37_5:
	{
		mov r6, r4
		nop
	}
.LBB37_6:
	{
		mov r4, r6
		nop
	}
.LBB37_7:
	.loc	1 1042 1
	{
		mov r0, r4
		nop
	}
	ldd r7, r6, sp[2]
	ldd r5, r4, sp[1]
	{
		nop
		retsp 6
	}
	# RETURN_REG_HOLDER
.Ltmp1719:
	.cc_bottom FLAC__stream_decoder_process_until_end_of_metadata.function
	.set	FLAC__stream_decoder_process_until_end_of_metadata.nstackwords,((find_metadata_.nstackwords $M read_metadata_.nstackwords) + 6)
	.globl	FLAC__stream_decoder_process_until_end_of_metadata.nstackwords
	.set	FLAC__stream_decoder_process_until_end_of_metadata.maxcores,find_metadata_.maxcores $M read_metadata_.maxcores $M 1
	.globl	FLAC__stream_decoder_process_until_end_of_metadata.maxcores
	.set	FLAC__stream_decoder_process_until_end_of_metadata.maxtimers,find_metadata_.maxtimers $M read_metadata_.maxtimers $M 0
	.globl	FLAC__stream_decoder_process_until_end_of_metadata.maxtimers
	.set	FLAC__stream_decoder_process_until_end_of_metadata.maxchanends,find_metadata_.maxchanends $M read_metadata_.maxchanends $M 0
	.globl	FLAC__stream_decoder_process_until_end_of_metadata.maxchanends
.Ltmp1720:
	.size	FLAC__stream_decoder_process_until_end_of_metadata, .Ltmp1720-FLAC__stream_decoder_process_until_end_of_metadata
.Lfunc_end37:
	.cfi_endproc

	.globl	FLAC__stream_decoder_process_until_end_of_stream
	.align	4
	.type	FLAC__stream_decoder_process_until_end_of_stream,@function
	.cc_top FLAC__stream_decoder_process_until_end_of_stream.function,FLAC__stream_decoder_process_until_end_of_stream
FLAC__stream_decoder_process_until_end_of_stream:
.Lfunc_begin38:
	.loc	1 1045 0
	.cfi_startproc
	.issue_mode dual
	{
		nop
		dualentsp 8
	}
.Ltmp1721:
	.cfi_def_cfa_offset 32
.Ltmp1722:
	.cfi_offset 15, 0
	std r5, r4, sp[1]
.Ltmp1723:
	.cfi_offset 4, -24
.Ltmp1724:
	.cfi_offset 5, -20
	std r7, r6, sp[2]
.Ltmp1725:
	.cfi_offset 6, -16
.Ltmp1726:
	.cfi_offset 7, -12
.Ltmp1727:
	.cfi_offset 8, -8
.Ltmp1728:
	{
		mov r6, r0
		stw r8, sp[6]
	}
.Ltmp1729:
	{
		mkmsk r4, 1
		ldc r5, 0
	}
	{
		mkmsk r8, 3
		ldaw r7, sp[1]
	}
.LBB38_1:
.Ltmp1730:
	{
		nop
		ldw r0, r6[0]
	}
	{
		nop
		ldw r0, r0[0]
	}
	.loc	1 1051 3 prologue_end
.Ltmp1731:
	{
		lsu r1, r8, r0
		nop
	}
	bt r1, .LBB38_9
.Ltmp1732:

	.xtabranch .Ljumptable7+4,.Ljumptable7+8,.Ljumptable7+12,.Ljumptable7+16,.Ljumptable7+20,.Ljumptable7+24,.Ljumptable7+28,.Ljumptable7+32
.Ljumptable7:
		
	{
		nop
		bru r0
	}
	.jmptable32 .LBB38_3,.LBB38_4,.LBB38_5,.LBB38_6,.LBB38_8,.LBB38_9,.LBB38_9,.LBB38_8
.Ltmp1733:
.LBB38_3:
	.loc	1 1053 9
	{
		mov r0, r6
		nop
	}
	bl find_metadata_
	bt r0, .LBB38_1
	bu .LBB38_7
.Ltmp1734:
.LBB38_4:
	.loc	1 1057 9
	{
		mov r0, r6
		nop
	}
	bl read_metadata_
	bt r0, .LBB38_1
	bu .LBB38_7
.Ltmp1735:
.LBB38_5:
	.loc	1 1061 9
	{
		mov r0, r6
		nop
	}
	bl frame_sync_
	bt r0, .LBB38_1
	bu .LBB38_8
.Ltmp1736:
.LBB38_6:
	.loc	1 1065 9
	{
		mov r0, r6
		mov r1, r7
	}
	{
		mov r2, r4
		nop
	}
	bl read_frame_
	bt r0, .LBB38_1
.Ltmp1737:
.LBB38_7:
	{
		mov r4, r5
		nop
	}
.LBB38_8:
	{
		mov r5, r4
		nop
	}
.LBB38_9:
	.loc	1 1075 1
	{
		mov r0, r5
		ldw r8, sp[6]
	}
	ldd r7, r6, sp[2]
	ldd r5, r4, sp[1]
	{
		nop
		retsp 8
	}
	# RETURN_REG_HOLDER
.Ltmp1738:
	.cc_bottom FLAC__stream_decoder_process_until_end_of_stream.function
	.set	FLAC__stream_decoder_process_until_end_of_stream.nstackwords,((find_metadata_.nstackwords $M read_metadata_.nstackwords $M frame_sync_.nstackwords $M read_frame_.nstackwords) + 8)
	.globl	FLAC__stream_decoder_process_until_end_of_stream.nstackwords
	.set	FLAC__stream_decoder_process_until_end_of_stream.maxcores,find_metadata_.maxcores $M frame_sync_.maxcores $M read_frame_.maxcores $M read_metadata_.maxcores $M 1
	.globl	FLAC__stream_decoder_process_until_end_of_stream.maxcores
	.set	FLAC__stream_decoder_process_until_end_of_stream.maxtimers,find_metadata_.maxtimers $M frame_sync_.maxtimers $M read_frame_.maxtimers $M read_metadata_.maxtimers $M 0
	.globl	FLAC__stream_decoder_process_until_end_of_stream.maxtimers
	.set	FLAC__stream_decoder_process_until_end_of_stream.maxchanends,find_metadata_.maxchanends $M frame_sync_.maxchanends $M read_frame_.maxchanends $M read_metadata_.maxchanends $M 0
	.globl	FLAC__stream_decoder_process_until_end_of_stream.maxchanends
.Ltmp1739:
	.size	FLAC__stream_decoder_process_until_end_of_stream, .Ltmp1739-FLAC__stream_decoder_process_until_end_of_stream
.Lfunc_end38:
	.cfi_endproc

	.globl	FLAC__stream_decoder_skip_single_frame
	.align	4
	.type	FLAC__stream_decoder_skip_single_frame,@function
	.cc_top FLAC__stream_decoder_skip_single_frame.function,FLAC__stream_decoder_skip_single_frame
FLAC__stream_decoder_skip_single_frame:
.Lfunc_begin39:
	.loc	1 1078 0
	.cfi_startproc
	.issue_mode dual
	{
		nop
		dualentsp 8
	}
.Ltmp1740:
	.cfi_def_cfa_offset 32
.Ltmp1741:
	.cfi_offset 15, 0
	std r5, r4, sp[1]
.Ltmp1742:
	.cfi_offset 4, -24
.Ltmp1743:
	.cfi_offset 5, -20
	std r7, r6, sp[2]
.Ltmp1744:
	.cfi_offset 6, -16
.Ltmp1745:
	.cfi_offset 7, -12
.Ltmp1746:
	.cfi_offset 8, -8
.Ltmp1747:
	{
		mov r6, r0
		stw r8, sp[6]
	}
.Ltmp1748:
	{
		mkmsk r5, 1
		ldc r4, 0
	}
	{
		ldc r8, 5
		ldaw r7, sp[1]
	}
.LBB39_1:
.Ltmp1749:
	{
		nop
		ldw r0, r6[0]
	}
	{
		nop
		ldw r0, r0[0]
	}
	.loc	1 1084 3 prologue_end
.Ltmp1750:
	{
		sub r0, r0, 2
		nop
	}
	{
		lsu r1, r8, r0
		nop
	}
	bt r1, .LBB39_7
.Ltmp1751:

	.xtabranch .Ljumptable8+4,.Ljumptable8+8,.Ljumptable8+12,.Ljumptable8+16,.Ljumptable8+20,.Ljumptable8+24
.Ljumptable8:
		
	{
		nop
		bru r0
	}
	.jmptable32 .LBB39_3,.LBB39_4,.LBB39_8,.LBB39_7,.LBB39_7,.LBB39_8
.Ltmp1752:
.LBB39_3:
	.loc	1 1089 9
	{
		mov r0, r6
		nop
	}
	bl frame_sync_
	bt r0, .LBB39_1
	bu .LBB39_6
.Ltmp1753:
.LBB39_4:
	.loc	1 1093 9
	{
		mov r0, r6
		mov r1, r7
	}
	{
		mov r2, r4
		nop
	}
	bl read_frame_
	bf r0, .LBB39_7
.Ltmp1754:
	{
		nop
		ldw r0, sp[1]
	}
	bf r0, .LBB39_1
.Ltmp1755:
.LBB39_6:
	{
		mov r4, r5
		nop
	}
.LBB39_7:
	{
		mov r5, r4
		nop
	}
.LBB39_8:
	.loc	1 1105 1
	{
		mov r0, r5
		ldw r8, sp[6]
	}
	ldd r7, r6, sp[2]
	ldd r5, r4, sp[1]
	{
		nop
		retsp 8
	}
	# RETURN_REG_HOLDER
.Ltmp1756:
	.cc_bottom FLAC__stream_decoder_skip_single_frame.function
	.set	FLAC__stream_decoder_skip_single_frame.nstackwords,((frame_sync_.nstackwords $M read_frame_.nstackwords) + 8)
	.globl	FLAC__stream_decoder_skip_single_frame.nstackwords
	.set	FLAC__stream_decoder_skip_single_frame.maxcores,frame_sync_.maxcores $M read_frame_.maxcores $M 1
	.globl	FLAC__stream_decoder_skip_single_frame.maxcores
	.set	FLAC__stream_decoder_skip_single_frame.maxtimers,frame_sync_.maxtimers $M read_frame_.maxtimers $M 0
	.globl	FLAC__stream_decoder_skip_single_frame.maxtimers
	.set	FLAC__stream_decoder_skip_single_frame.maxchanends,frame_sync_.maxchanends $M read_frame_.maxchanends $M 0
	.globl	FLAC__stream_decoder_skip_single_frame.maxchanends
.Ltmp1757:
	.size	FLAC__stream_decoder_skip_single_frame, .Ltmp1757-FLAC__stream_decoder_skip_single_frame
.Lfunc_end39:
	.cfi_endproc

	.section	.cp.rodata.cst4,"aMc",@progbits,4
	.cc_top .LCPI40_0.data,.LCPI40_0
	.align	4
	.type	.LCPI40_0,@object
	.size	.LCPI40_0, 4
.LCPI40_0:
	.long	2147483647
	.cc_bottom .LCPI40_0.data
	.text
	.globl	FLAC__stream_decoder_seek_absolute
	.align	4
	.type	FLAC__stream_decoder_seek_absolute,@function
	.cc_top FLAC__stream_decoder_seek_absolute.function,FLAC__stream_decoder_seek_absolute
FLAC__stream_decoder_seek_absolute:
.Lfunc_begin40:
	.loc	1 1108 0
	.cfi_startproc
	.issue_mode dual
	{
		nop
		dualentsp 34
	}
.Ltmp1758:
	.cfi_def_cfa_offset 136
.Ltmp1759:
	.cfi_offset 15, 0
	{
		nop
		stw r4, sp[26]
	}
	{
		nop
		stw r5, sp[27]
	}
.Ltmp1760:
	.cfi_offset 4, -32
.Ltmp1761:
	.cfi_offset 5, -28
	{
		nop
		stw r6, sp[28]
	}
	{
		nop
		stw r7, sp[29]
	}
.Ltmp1762:
	.cfi_offset 6, -24
.Ltmp1763:
	.cfi_offset 7, -20
	{
		nop
		stw r8, sp[30]
	}
	{
		nop
		stw r9, sp[31]
	}
.Ltmp1764:
	.cfi_offset 8, -16
.Ltmp1765:
	.cfi_offset 9, -12
.Ltmp1766:
	.cfi_offset 10, -8
	{
		mov r10, r2
		stw r10, sp[32]
	}
	{
		mov r4, r0
		nop
	}
.Ltmp1767:
	{
		nop
		ldw r0, r4[0]
	}
	.loc	1 1114 3 prologue_end
.Ltmp1768:
	{
		ldc r9, 0
		ldw r0, r0[0]
	}
	{
		ldc r2, 4
		nop
	}
	.loc	1 1114 3
	{
		lsu r0, r2, r0
		nop
	}
	bt r0, .LBB40_190
.Ltmp1769:
	{
		nop
		ldw r0, r4[1]
	}
	{
		nop
		ldw r2, r0[2]
	}
	bf r2, .LBB40_190
.Ltmp1770:
	ldc r6, 240
	.loc	1 822 2
.Ltmp1771:
	{
		add r2, r0, r6
		nop
	}
	{
		nop
		ldw r2, r2[0]
	}
	bf r2, .LBB40_7
.Ltmp1772:
	ldc r2, 296
	.loc	1 822 2
	{
		add r2, r0, r2
		nop
	}
	.loc	1 822 2
	ldd r2, r11, r2[0]
	{
		ldc r9, 0
		mkmsk r3, 32
	}
.Ltmp1773:
	.loc	1 1130 5
	ladd r11, r5, r11, r3, r9
	ladd r3, r2, r2, r3, r11
	.loc	1 1130 5
	{
		eq r3, r2, r10
		nop
	}
	bt r3, .LBB40_4
.Ltmp1774:
	{
		lsu r2, r2, r10
		nop
	}
	bu .LBB40_6
.Ltmp1775:
.LBB40_4:
	{
		lsu r2, r5, r1
		nop
	}
.Ltmp1776:
.LBB40_6:
	bt r2, .LBB40_190
.Ltmp1777:
.LBB40_7:
	{
		nop
		stw r1, sp[16]
	}
	ldc r8, 4680
	.loc	1 1133 2
	{
		add r1, r0, r8
		mkmsk r2, 1
	}
	{
		nop
		stw r2, r1[0]
	}
	ldc r1, 4672
	.loc	1 1136 2
	{
		add r1, r0, r1
		ldc r9, 0
	}
	{
		nop
		stw r9, r1[0]
	}
	{
		nop
		ldw r3, r0[4]
	}
.Ltmp1778:
	.loc	1 1139 5
	{
		ldaw r1, sp[18]
		ldw r2, r0[9]
	}
.Ltmp1779:
	.loc	1 1139 5
	{
		mov r0, r4
		nop
	}
	{
		nop
		bla r3
	}
	.loc	1 1139 5
	bf r0, .LBB40_9
.Ltmp1780:
	{
		nop
		ldw r0, r4[1]
	}
.Ltmp1781:
.LBB40_23:
	.loc	1 1156 4
	{
		add r0, r0, r8
		nop
	}
	{
		nop
		stw r9, r0[0]
	}
	bu .LBB40_190
.Ltmp1782:
.LBB40_9:
	{
		nop
		ldw r2, r4[0]
	}
	.loc	1 1146 3
	{
		ldc r0, 2
		ldw r1, r2[0]
	}
	.loc	1 1146 3
	{
		lsu r0, r1, r0
		nop
	}
	.loc	1 1146 3
	bf r0, .LBB40_24
.Ltmp1783:
	{
		mkmsk r5, 3
		nop
	}
	bu .LBB40_11
.Ltmp1784:
.LBB40_14:
	{
		nop
		ldw r2, r4[0]
	}
	{
		nop
		ldw r1, r2[0]
	}
.Ltmp1785:
.LBB40_11:
	.loc	1 1024 3
	{
		lsu r0, r5, r1
		nop
	}
	bt r0, .LBB40_16
.Ltmp1786:

	.xtabranch .Ljumptable9+4,.Ljumptable9+8,.Ljumptable9+12,.Ljumptable9+16,.Ljumptable9+20,.Ljumptable9+24,.Ljumptable9+28,.Ljumptable9+32
.Ljumptable9:
		
	{
		nop
		bru r1
	}
	.jmptable32 .LBB40_13,.LBB40_15,.LBB40_17,.LBB40_17,.LBB40_17,.LBB40_16,.LBB40_16,.LBB40_17
.Ltmp1787:
.LBB40_13:
	.loc	1 1026 9
	{
		mov r0, r4
		nop
	}
	bl find_metadata_
	bt r0, .LBB40_14
	bu .LBB40_16
.Ltmp1788:
.LBB40_15:
	.loc	1 1030 9
	{
		mov r0, r4
		nop
	}
	bl read_metadata_
	bt r0, .LBB40_14
.Ltmp1789:
.LBB40_16:
	{
		nop
		ldw r0, r4[1]
	}
	.loc	1 1151 4
.Ltmp1790:
	{
		add r0, r0, r8
		ldc r9, 0
	}
	{
		nop
		stw r9, r0[0]
	}
	bu .LBB40_190
.Ltmp1791:
.LBB40_24:
	{
		nop
		ldw r0, r4[1]
	}
	{
		add r3, r0, r6
		nop
	}
	{
		nop
		ldw r5, r3[0]
	}
.Ltmp1792:
.LBB40_25:
	{
		mov r3, r10
		nop
	}
	.loc	1 1167 4
.Ltmp1793:
	ldd r6, r11, sp[9]
	{
		nop
		stw r6, sp[15]
	}
	{
		nop
		stw r11, sp[17]
	}
	ldc r6, 8312
	.loc	1 3249 2
.Ltmp1794:
	{
		add r6, r0, r6
		nop
	}
	.loc	1 3249 2
	ldd r6, r7, r6[0]
.Ltmp1795:
	{
		nop
		stw r7, sp[5]
	}
	{
		ldc r6, 0
		stw r6, sp[6]
	}
	.loc	1 822 2
.Ltmp1796:
	{
		mov r7, r6
		stw r6, sp[9]
	}
	{
		nop
		stw r6, sp[13]
	}
	bf r5, .LBB40_27
.Ltmp1797:
	ldc r5, 296
	.loc	1 822 2
	{
		add r5, r0, r5
		nop
	}
	.loc	1 822 2
	ldd r11, r7, r5[0]
	{
		nop
		stw r11, sp[13]
	}
.Ltmp1798:
.LBB40_27:
	{
		mov r11, r7
		nop
	}
	ldc r5, 264
	.loc	1 3255 2
	{
		add r5, r0, r5
		nop
	}
	{
		nop
		ldw r5, r5[0]
	}
.Ltmp1799:
	ldc r6, 268
	.loc	1 3256 2
	{
		add r6, r0, r6
		nop
	}
	{
		nop
		ldw r6, r6[0]
	}
.Ltmp1800:
	ldc r7, 276
	.loc	1 3257 2
	{
		add r7, r0, r7
		nop
	}
	{
		nop
		ldw r10, r7[0]
	}
.Ltmp1801:
	ldc r7, 272
	.loc	1 3258 2
	{
		add r7, r0, r7
		nop
	}
	{
		nop
		ldw r8, r7[0]
	}
.Ltmp1802:
	{
		nop
		ldw r7, r2[2]
	}
.Ltmp1803:
	{
		nop
		ldw r2, r2[4]
	}
.Ltmp1804:
	ldc r9, 244
	.loc	1 3262 2
	{
		add r9, r0, r9
		nop
	}
	{
		nop
		ldw r9, r9[0]
	}
	bf r9, .LBB40_29
.Ltmp1805:
	ldc r9, 440
	.loc	1 3262 2
	{
		add r9, r0, r9
		nop
	}
	{
		nop
		stw r9, sp[9]
	}
.Ltmp1806:
.LBB40_29:
	bt r7, .LBB40_31
.Ltmp1807:
	ldc r7, 284
	.loc	1 3266 3
.Ltmp1808:
	{
		add r7, r0, r7
		nop
	}
	{
		nop
		ldw r7, r7[0]
	}
.Ltmp1809:
.LBB40_31:
	bt r2, .LBB40_33
.Ltmp1810:
	ldc r2, 288
	.loc	1 3268 3
.Ltmp1811:
	{
		add r2, r0, r2
		nop
	}
	{
		nop
		ldw r2, r2[0]
	}
.Ltmp1812:
.LBB40_33:
	.loc	1 3271 5
	bf r10, .LBB40_35
.Ltmp1813:
	.loc	1 3272 3
	{
		add r2, r8, r10
		nop
	}
	.loc	1 3272 3
	{
		shr r2, r2, 1
		nop
	}
	.loc	1 3272 3
	{
		add r2, r2, 1
		nop
	}
.Ltmp1814:
	{
		mov r9, r3
		stw r2, sp[8]
	}
	{
		nop
		ldw r8, sp[16]
	}
.Ltmp1815:
	bu .LBB40_40
.Ltmp1816:
.LBB40_35:
	.loc	1 3279 10
	{
		eq r6, r5, r6
		mov r9, r3
	}
.Ltmp1817:
	{
		nop
		ldw r8, sp[16]
	}
.Ltmp1818:
	bf r6, .LBB40_38
.Ltmp1819:
	bf r5, .LBB40_38
.Ltmp1820:
	.loc	1 3281 3
	mul r5, r7, r5
	.loc	1 3281 3
	mul r2, r5, r2
	.loc	1 3281 3
	{
		shr r2, r2, 3
		nop
	}
	ldc r5, 64
	.loc	1 3281 3
	{
		add r2, r2, r5
		nop
	}
	bu .LBB40_39
.Ltmp1821:
.LBB40_17:
	{
		nop
		ldw r0, r4[1]
	}
	.loc	1 822 2
.Ltmp1822:
	{
		add r3, r0, r6
		nop
	}
	{
		nop
		ldw r5, r3[0]
	}
	.loc	1 822 2
	bf r5, .LBB40_18
.Ltmp1823:
	ldc r3, 296
	.loc	1 822 2
	{
		add r3, r0, r3
		nop
	}
	.loc	1 822 2
	ldd r11, r3, r3[0]
	{
		ldc r9, 0
		mkmsk r6, 32
	}
.Ltmp1824:
	.loc	1 1155 6
	ladd r7, r3, r3, r6, r9
	ladd r6, r11, r11, r6, r7
	.loc	1 1155 6
	{
		eq r6, r11, r10
		nop
	}
	bt r6, .LBB40_20
.Ltmp1825:
	{
		lsu r3, r11, r10
		nop
	}
	bu .LBB40_22
.Ltmp1826:
.LBB40_38:
	.loc	1 3284 3
	mul r2, r7, r2
	{
		ldc r5, 12
		nop
	}
	{
		shl r2, r2, r5
		nop
	}
	.loc	1 3284 3
	{
		shr r2, r2, 3
		nop
	}
	ldc r5, 64
	.loc	1 3284 3
	{
		or r2, r2, r5
		nop
	}
.Ltmp1827:
.LBB40_39:
	{
		nop
		stw r2, sp[8]
	}
.Ltmp1828:
.LBB40_40:
	{
		nop
		ldw r2, sp[6]
	}
	{
		nop
		ldw r3, sp[5]
	}
	.loc	1 3293 2
	std r2, r3, sp[11]
	{
		nop
		ldw r2, sp[17]
	}
	{
		nop
		ldw r3, sp[15]
	}
	.loc	1 3295 2
	std r3, r2, sp[10]
	{
		nop
		ldw r3, sp[13]
	}
	.loc	1 3296 2
	{
		or r2, r11, r3
		mkmsk r7, 1
	}
	bt r2, .LBB40_42
.Ltmp1829:
	.loc	1 3296 2
	{
		mov r3, r9
		nop
	}
.Ltmp1830:
.LBB40_42:
	{
		nop
		stw r3, sp[7]
	}
	{
		mov r6, r11
		stw r11, sp[15]
	}
	bt r2, .LBB40_44
.Ltmp1831:
	{
		nop
		stw r8, sp[15]
	}
.Ltmp1832:
.LBB40_44:
	{
		ldc r10, 0
		eq r1, r1, 2
	}
	.loc	1 3298 5
.Ltmp1833:
	bf r1, .LBB40_45
.Ltmp1834:
	ldc r1, 232
	.loc	1 3298 5
	{
		add r1, r0, r1
		nop
	}
	.loc	1 3298 5
	ldd r2, r1, r1[0]
	.loc	1 3298 5
	{
		or r3, r1, r2
		ldc r10, 0
	}
	.loc	1 3298 5
	bf r3, .LBB40_47
.Ltmp1835:
	.loc	1 869 5
	{
		eq r3, r2, r9
		ldw r5, r0[3]
	}
.Ltmp1836:
	.loc	1 3300 6
	bt r3, .LBB40_49
.Ltmp1837:
	{
		lsu r1, r9, r2
		nop
	}
	bu .LBB40_51
.Ltmp1838:
.LBB40_45:
	.loc	1 1167 4
	{
		mov r5, r10
		nop
	}
	bu .LBB40_65
.Ltmp1839:
.LBB40_47:
	{
		mov r5, r10
		nop
	}
	bu .LBB40_65
.Ltmp1840:
.LBB40_49:
	.loc	1 3300 6
	{
		lsu r1, r8, r1
		nop
	}
.Ltmp1841:
.LBB40_51:
	{
		ldc r10, 0
		eq r1, r1, 0
	}
	bt r1, .LBB40_58
.Ltmp1842:
	.loc	1 869 5
	bf r5, .LBB40_53
.Ltmp1843:
	.loc	1 871 5
	{
		ldaw r1, sp[20]
		ldw r2, r0[9]
	}
.Ltmp1844:
	.loc	1 871 5
	{
		mov r0, r4
		nop
	}
	{
		nop
		bla r5
	}
	{
		ldc r10, 0
		nop
	}
	.loc	1 871 5
	bf r0, .LBB40_56
.Ltmp1845:
	.loc	1 1167 4
	{
		mov r5, r10
		nop
	}
	bu .LBB40_65
.Ltmp1846:
.LBB40_58:
	.loc	1 869 5
	bf r5, .LBB40_59
.Ltmp1847:
	.loc	1 871 5
	{
		ldaw r1, sp[22]
		ldw r2, r0[9]
	}
.Ltmp1848:
	.loc	1 871 5
	{
		mov r0, r4
		nop
	}
	{
		nop
		bla r5
	}
	{
		ldc r10, 0
		nop
	}
	.loc	1 871 5
	bf r0, .LBB40_62
.Ltmp1849:
	.loc	1 1167 4
	{
		mov r5, r10
		nop
	}
	bu .LBB40_65
.Ltmp1850:
.LBB40_18:
	{
		ldc r5, 0
		nop
	}
	bu .LBB40_25
.Ltmp1851:
.LBB40_20:
	{
		nop
		ldw r11, sp[16]
	}
	.loc	1 1155 6
.Ltmp1852:
	{
		lsu r3, r3, r11
		nop
	}
.Ltmp1853:
.LBB40_22:
	{
		eq r3, r3, 0
		nop
	}
.Ltmp1854:
	bt r3, .LBB40_25
	bu .LBB40_23
.Ltmp1855:
.LBB40_53:
	.loc	1 1167 4
	{
		mov r5, r10
		nop
	}
	bu .LBB40_65
.Ltmp1856:
.LBB40_59:
	{
		mov r5, r10
		nop
	}
	bu .LBB40_65
.Ltmp1857:
.LBB40_56:
	{
		nop
		ldw r0, r4[1]
	}
	{
		nop
		ldw r0, r0[11]
	}
	.loc	1 874 6
.Ltmp1858:
	bl FLAC__bitreader_is_consumed_byte_aligned
	{
		ldc r10, 0
		nop
	}
.Ltmp1859:
	.loc	1 1167 4
	{
		mov r5, r10
		nop
	}
	bf r0, .LBB40_65
.Ltmp1860:
	{
		nop
		ldw r0, r4[1]
	}
	{
		nop
		ldw r0, r0[11]
	}
	.loc	1 1185 9
.Ltmp1861:
	bl FLAC__bitreader_get_input_bits_unconsumed
	.loc	1 1185 9
	{
		shr r0, r0, 3
		nop
	}
.Ltmp1862:
	.loc	1 877 15
	ldd r2, r1, sp[10]
	{
		ldc r10, 0
		nop
	}
	.loc	1 877 15
	lsub r1, r0, r1, r0, r10
	{
		sub r1, r2, r1
		nop
	}
	.loc	1 877 15
	std r1, r0, sp[10]
	{
		nop
		ldw r0, r4[1]
	}
	ldc r1, 232
.Ltmp1863:
	.loc	1 3302 5
	{
		add r0, r0, r1
		nop
	}
	.loc	1 3302 5
	ldd r0, r1, r0[0]
	{
		nop
		stw r1, sp[15]
	}
.Ltmp1864:
	.loc	1 1167 4
	{
		mov r5, r10
		stw r0, sp[7]
	}
	bu .LBB40_65
.Ltmp1865:
.LBB40_62:
	{
		nop
		ldw r0, r4[1]
	}
	{
		nop
		ldw r0, r0[11]
	}
	.loc	1 874 6
.Ltmp1866:
	bl FLAC__bitreader_is_consumed_byte_aligned
	{
		ldc r10, 0
		nop
	}
	.loc	1 874 6
	bf r0, .LBB40_63
.Ltmp1867:
	{
		nop
		ldw r0, r4[1]
	}
	{
		nop
		ldw r0, r0[11]
	}
	.loc	1 1185 9
.Ltmp1868:
	bl FLAC__bitreader_get_input_bits_unconsumed
	.loc	1 1185 9
	{
		shr r0, r0, 3
		nop
	}
.Ltmp1869:
	.loc	1 877 15
	ldd r2, r1, sp[11]
	{
		ldc r3, 0
		nop
	}
	.loc	1 877 15
	lsub r1, r0, r1, r0, r3
	{
		sub r1, r2, r1
		nop
	}
	.loc	1 877 15
	std r1, r0, sp[11]
	{
		nop
		ldw r0, r4[1]
	}
	ldc r1, 232
.Ltmp1870:
	.loc	1 3305 5
	{
		add r0, r0, r1
		nop
	}
	.loc	1 3305 5
	ldd r5, r10, r0[0]
	bu .LBB40_65
.Ltmp1871:
.LBB40_63:
	.loc	1 1167 4
	{
		mov r5, r10
		nop
	}
.Ltmp1872:
.LBB40_65:
	{
		nop
		ldw r1, sp[9]
	}
.Ltmp1873:
	.loc	1 3319 5
	bf r1, .LBB40_66
.Ltmp1874:
	{
		nop
		stw r10, sp[10]
	}
	{
		nop
		stw r9, sp[11]
	}
	.loc	1 3320 3
.Ltmp1875:
	ldd r2, r0, sp[11]
	{
		nop
		stw r0, sp[3]
	}
	.loc	1 3321 3
	ldd r9, r0, sp[10]
	{
		nop
		stw r0, sp[4]
	}
	{
		nop
		ldw r3, r1[0]
	}
	.loc	1 3326 3
.Ltmp1876:
	{
		lss r0, r3, r7
		nop
	}
	bt r0, .LBB40_68
.Ltmp1877:
	{
		nop
		stw r9, sp[1]
	}
	{
		nop
		stw r2, sp[2]
	}
	{
		nop
		stw r5, sp[12]
	}
.Ltmp1878:
	.loc	1 3328 5
	{
		ldc r0, 24
		ldw r1, r1[1]
	}
.Ltmp1879:
	.loc	1 3326 3
	mul r0, r3, r0
	.loc	1 3328 5
.Ltmp1880:
	{
		add r0, r0, r1
		nop
	}
	.loc	1 3328 5
	ldaw r11, cp[FLAC__STREAM_METADATA_SEEKPOINT_PLACEHOLDER]
	{
		mov r8, r3
		nop
	}
	{
		nop
		stw r8, sp[17]
	}
	ldd r7, r3, r11[0]
	{
		ldc r2, 0
		mkmsk r11, 32
	}
	.loc	1 3328 5
	ladd r5, r6, r6, r11, r2
	{
		nop
		stw r6, sp[14]
	}
	{
		nop
		ldw r6, sp[13]
	}
	ladd r11, r10, r6, r11, r5
	ldaw r5, r0[-6]
.Ltmp1881:
	.loc	1 1167 4
	{
		mov r0, r8
		nop
	}
.Ltmp1882:
.LBB40_70:
	.loc	1 3326 7
	{
		sub r0, r0, 1
		nop
	}
	.loc	1 3328 5
.Ltmp1883:
	ldd r6, r11, r5[0]
	.loc	1 3328 5
	xor r9, r6, r7
	xor r8, r11, r3
	{
		or r8, r8, r9
		nop
	}
	bf r8, .LBB40_72
.Ltmp1884:
	{
		nop
		ldw r8, r5[4]
	}
	bf r8, .LBB40_72
.Ltmp1885:
	.loc	1 3328 5
	{
		eq r8, r10, r6
		nop
	}
	bt r8, .LBB40_75
.Ltmp1886:
	{
		lsu r9, r10, r6
		nop
	}
	bu .LBB40_77
.Ltmp1887:
.LBB40_75:
	{
		nop
		ldw r8, sp[14]
	}
	{
		lsu r9, r8, r11
		nop
	}
.Ltmp1888:
.LBB40_77:
	bt r9, .LBB40_72
.Ltmp1889:
	{
		nop
		ldw r9, sp[11]
	}
	{
		eq r8, r6, r9
		nop
	}
	bt r8, .LBB40_79
.Ltmp1890:
	{
		lsu r9, r9, r6
		nop
	}
	bu .LBB40_81
.Ltmp1891:
.LBB40_79:
	{
		nop
		ldw r8, sp[16]
	}
	{
		lsu r9, r8, r11
		nop
	}
.Ltmp1892:
.LBB40_81:
	bf r9, .LBB40_82
.Ltmp1893:
.LBB40_72:
	.loc	1 3326 3
	ldaw r5, r5[-6]
	.loc	1 3326 3
	{
		lss r11, r2, r0
		nop
	}
	bt r11, .LBB40_70
.Ltmp1894:
	{
		nop
		ldw r11, sp[10]
	}
	{
		nop
		ldw r6, sp[12]
	}
	bu .LBB40_83
.Ltmp1895:
.LBB40_66:
	{
		nop
		stw r8, sp[16]
	}
.Ltmp1896:
	{
		mov r8, r5
		ldw r3, sp[7]
	}
	bu .LBB40_102
.Ltmp1897:
.LBB40_68:
	{
		ldc r2, 0
		stw r2, sp[2]
	}
	.loc	1 1167 4
	{
		mov r6, r5
		ldw r11, sp[10]
	}
	bu .LBB40_95
.Ltmp1898:
.LBB40_82:
	{
		ldc r5, 24
		nop
	}
	.loc	1 3336 4
.Ltmp1899:
	mul r0, r0, r5
	{
		add r0, r1, r0
		nop
	}
	{
		add r0, r0, 8
		nop
	}
	.loc	1 3336 4
	ldd r5, r0, r0[0]
	{
		nop
		ldw r8, sp[5]
	}
	.loc	1 3336 4
	ladd r0, r8, r0, r8, r2
	{
		nop
		stw r8, sp[3]
	}
	{
		nop
		ldw r8, sp[6]
	}
	ladd r0, r5, r5, r8, r0
	{
		nop
		stw r5, sp[2]
	}
.Ltmp1900:
.LBB40_83:
	.loc	1 3343 5
	ldd r5, r0, r1[0]
	.loc	1 3343 5
	xor r8, r5, r7
	xor r9, r0, r3
	{
		or r8, r9, r8
		nop
	}
	bf r8, .LBB40_93
.Ltmp1901:
	{
		nop
		ldw r8, r1[4]
	}
	bf r8, .LBB40_93
.Ltmp1902:
	.loc	1 3343 5
	{
		eq r8, r10, r5
		nop
	}
	bt r8, .LBB40_86
.Ltmp1903:
	{
		lsu r9, r10, r5
		nop
	}
	bu .LBB40_88
.Ltmp1904:
.LBB40_86:
	{
		nop
		ldw r8, sp[14]
	}
	{
		lsu r9, r8, r0
		nop
	}
.Ltmp1905:
.LBB40_88:
	bt r9, .LBB40_93
.Ltmp1906:
	{
		nop
		ldw r9, sp[11]
	}
	{
		eq r8, r5, r9
		nop
	}
	bt r8, .LBB40_90
.Ltmp1907:
	{
		lsu r0, r9, r5
		nop
	}
	bu .LBB40_92
.Ltmp1908:
.LBB40_90:
	{
		nop
		ldw r5, sp[16]
	}
	{
		lsu r0, r5, r0
		nop
	}
.Ltmp1909:
.LBB40_92:
	bt r0, .LBB40_94
.Ltmp1910:
.LBB40_93:
	.loc	1 3341 47
	{
		add r2, r2, 1
		nop
	}
.Ltmp1911:
	.loc	1 3341 3
	ldaw r1, r1[6]
	{
		nop
		ldw r0, sp[17]
	}
	.loc	1 3341 3
	{
		lss r0, r2, r0
		nop
	}
	bt r0, .LBB40_83
.Ltmp1912:
.LBB40_94:
	{
		mkmsk r7, 1
		ldw r8, sp[16]
	}
.Ltmp1913:
	{
		nop
		ldw r5, sp[12]
	}
	{
		nop
		ldw r9, sp[1]
	}
	{
		nop
		ldw r3, sp[17]
	}
.Ltmp1914:
.LBB40_95:
	.loc	1 3350 6
	{
		lss r3, r2, r3
		ldw r0, sp[15]
	}
	{
		nop
		ldw r1, sp[7]
	}
	bf r3, .LBB40_97
.Ltmp1915:
	{
		nop
		ldw r0, sp[9]
	}
	.loc	1 3351 4
.Ltmp1916:
	{
		ldc r1, 24
		ldw r0, r0[1]
	}
	.loc	1 3351 4
	mul r1, r2, r1
	{
		add r0, r0, r1
		nop
	}
	{
		add r1, r0, 8
		nop
	}
	.loc	1 3351 4
	ldd r2, r1, r1[0]
	{
		ldc r3, 0
		ldw r9, sp[5]
	}
	.loc	1 3351 4
	ladd r1, r3, r1, r9, r3
	{
		nop
		stw r3, sp[4]
	}
	{
		nop
		ldw r3, sp[6]
	}
	ladd r1, r9, r2, r3, r1
	.loc	1 3352 4
	ldd r1, r0, r0[0]
.Ltmp1917:
.LBB40_97:
	{
		nop
		stw r1, sp[14]
	}
	{
		nop
		stw r0, sp[17]
	}
	{
		nop
		ldw r3, sp[2]
	}
	.loc	1 3355 6
.Ltmp1918:
	{
		eq r2, r9, r3
		mov r0, r9
	}
	{
		nop
		ldw r9, sp[11]
	}
	{
		nop
		ldw r10, sp[10]
	}
	bt r2, .LBB40_98
.Ltmp1919:
	{
		lsu r2, r0, r3
		stw r8, sp[16]
	}
	{
		mov r1, r0
		mov r0, r3
	}
	bu .LBB40_100
.Ltmp1920:
.LBB40_98:
	{
		mov r1, r0
		mov r0, r3
	}
	{
		nop
		stw r8, sp[16]
	}
.Ltmp1921:
	{
		nop
		ldw r2, sp[3]
	}
	{
		nop
		ldw r3, sp[4]
	}
	{
		lsu r2, r3, r2
		nop
	}
.Ltmp1922:
.LBB40_100:
	{
		mov r8, r5
		ldw r3, sp[7]
	}
	bt r2, .LBB40_102
.Ltmp1923:
	{
		nop
		ldw r2, sp[3]
	}
	.loc	1 3356 4
.Ltmp1924:
	std r0, r2, sp[11]
	{
		nop
		ldw r0, sp[4]
	}
	.loc	1 3357 4
	std r1, r0, sp[10]
	{
		nop
		ldw r0, sp[17]
	}
	{
		nop
		stw r0, sp[15]
	}
.Ltmp1925:
	.loc	1 1167 4
	{
		mov r10, r11
		ldw r3, sp[14]
	}
	{
		mov r8, r6
		nop
	}
.Ltmp1926:
.LBB40_102:
	{
		nop
		ldw r2, sp[15]
	}
	.loc	1 3373 5
.Ltmp1927:
	xor r0, r2, r10
	xor r1, r3, r8
	{
		or r0, r0, r1
		nop
	}
	{
		eq r0, r0, 0
		ldc r5, 0
	}
	.loc	1 3373 5
	ladd r0, r1, r0, r2, r5
	{
		add r0, r3, r0
		stw r1, sp[9]
	}
	{
		nop
		stw r0, sp[13]
	}
	{
		nop
		ldw r0, r4[1]
	}
	ldc r1, 8328
.Ltmp1928:
	.loc	1 3376 2
	{
		add r0, r0, r1
		ldw r1, sp[16]
	}
	{
		mov r2, r9
		nop
	}
	.loc	1 3376 2
	std r2, r1, r0[0]
	{
		ldaw r6, sp[25]
		stw r7, sp[5]
	}
	bu .LBB40_103
.Ltmp1929:
.LBB40_191:
	{
		nop
		ldw r0, r4[1]
	}
	{
		nop
		ldw r0, r0[11]
	}
	.loc	1 1185 9
.Ltmp1930:
	bl FLAC__bitreader_get_input_bits_unconsumed
	.loc	1 1185 9
	{
		shr r0, r0, 3
		nop
	}
.Ltmp1931:
	.loc	1 877 15
	ldd r2, r1, sp[11]
	{
		mov r5, r8
		nop
	}
	.loc	1 877 15
	lsub r1, r0, r1, r0, r5
	{
		sub r1, r2, r1
		nop
	}
	.loc	1 877 15
	std r1, r0, sp[11]
	{
		nop
		ldw r2, sp[17]
	}
.Ltmp1932:
	.loc	1 3485 4
	lsub r2, r0, r0, r2, r5
	lsub r2, r1, r1, r7, r2
	.loc	1 3485 4
	{
		shl r1, r1, 1
		mkmsk r2, 5
	}
	{
		shr r2, r0, r2
		nop
	}
	{
		or r1, r1, r2
		shl r0, r0, 1
	}
	{
		mkmsk r2, 2
		mov r3, r5
	}
	.loc	1 3485 4
	bl __udivdi3
	{
		ldc r1, 16
		nop
	}
	.loc	1 3485 4
	ladd r0, r1, r0, r1, r5
	{
		nop
		stw r1, sp[8]
	}
	{
		nop
		stw r5, sp[5]
	}
.Ltmp1933:
	.loc	1 1167 4
	{
		mov r8, r9
		ldw r10, sp[4]
	}
	{
		nop
		ldw r2, sp[11]
	}
.Ltmp1934:
.LBB40_103:
	{
		nop
		stw r8, sp[12]
	}
	{
		nop
		stw r10, sp[10]
	}
	{
		nop
		stw r2, sp[11]
	}
	{
		nop
		ldw r0, sp[16]
	}
	.loc	1 3395 4
.Ltmp1935:
	lsub r1, r0, r0, r10, r5
	lsub r2, r1, r2, r8, r1
	.loc	1 3395 4
	bl __floatundidf
	{
		mov r9, r0
		mov r0, r10
	}
	{
		mov r10, r1
		ldw r1, sp[9]
	}
	.loc	1 3395 4
	lsub r1, r0, r1, r0, r5
	{
		nop
		ldw r2, sp[13]
	}
	lsub r2, r1, r2, r8, r1
	.loc	1 3395 4
	bl __floatundidf
	{
		mov r2, r0
		mov r3, r1
	}
	.loc	1 3395 4
	{
		mov r0, r9
		mov r1, r10
	}
	bl __divdf3
	{
		nop
		stw r0, sp[7]
	}
	{
		mkmsk r10, 3
		stw r1, sp[6]
	}
	bu .LBB40_104
.Ltmp1936:
.LBB40_167:
	.loc	1 3457 4
	{
		shl r0, r0, 1
		nop
	}
	{
		nop
		stw r0, sp[8]
	}
.Ltmp1937:
.LBB40_104:
	.loc	1 1167 4
	{
		mov r0, r5
		nop
	}
.Ltmp1938:
.LBB40_105:
	{
		mov r3, r0
		ldw r0, r4[0]
	}
	{
		nop
		ldw r1, r0[0]
	}
	.loc	1 3380 6
.Ltmp1939:
	{
		sub r1, r1, 7
		ldc r2, 2
	}
	.loc	1 3380 6
	{
		lsu r1, r1, r2
		nop
	}
	bt r1, .LBB40_188
.Ltmp1940:
	{
		nop
		ldw r2, sp[13]
	}
	.loc	1 3384 7
.Ltmp1941:
	{
		eq r1, r2, r8
		nop
	}
	bt r1, .LBB40_107
.Ltmp1942:
	{
		lsu r1, r8, r2
		nop
	}
	bu .LBB40_109
.Ltmp1943:
.LBB40_107:
	{
		nop
		ldw r1, sp[10]
	}
	{
		nop
		ldw r2, sp[9]
	}
	{
		lsu r1, r1, r2
		nop
	}
.Ltmp1944:
.LBB40_109:
	{
		eq r1, r1, 0
		nop
	}
	ldw r2, cp[.LCPI40_0]
.Ltmp1945:
	bt r1, .LBB40_118
.Ltmp1946:
	.loc	1 3384 7
	ldd r9, r11, sp[11]
	.loc	1 3384 7
	ldd r5, r7, sp[10]
	.loc	1 3384 7
	{
		eq r1, r5, r9
		nop
	}
	bt r1, .LBB40_111
.Ltmp1947:
	{
		lsu r1, r5, r9
		nop
	}
	bu .LBB40_113
.Ltmp1948:
.LBB40_111:
	{
		lsu r1, r7, r11
		nop
	}
.Ltmp1949:
.LBB40_113:
	bt r1, .LBB40_118
.Ltmp1950:
	{
		eq r1, r5, r2
		nop
	}
	bt r1, .LBB40_115
.Ltmp1951:
	{
		lsu r1, r5, r2
		nop
	}
	bu .LBB40_117
.Ltmp1952:
.LBB40_115:
	{
		mkmsk r1, 32
		nop
	}
	{
		eq r1, r7, r1
		nop
	}
	{
		eq r1, r1, 0
		nop
	}
.Ltmp1953:
.LBB40_117:
	bf r1, .LBB40_118
.Ltmp1954:
	{
		mov r0, r11
		stw r4, sp[15]
	}
	.loc	1 1167 4
	{
		mov r1, r9
		nop
	}
	bt r3, .LBB40_121
.Ltmp1955:
	{
		ldc r4, 0
		nop
	}
	.loc	1 3395 4
.Ltmp1956:
	lsub r1, r0, r7, r11, r4
	lsub r2, r1, r5, r9, r1
	{
		mov r8, r11
		mov r6, r3
	}
	.loc	1 3395 4
	bl __floatundidf
	{
		mov r2, r0
		mov r3, r1
	}
	{
		nop
		ldw r0, sp[7]
	}
	{
		nop
		ldw r1, sp[6]
	}
	.loc	1 3395 4
	bl __muldf3
	.loc	1 3395 4
	bl __fixdfdi
	{
		mov r11, r8
		ldw r2, sp[8]
	}
	.loc	1 3395 4
	lsub r3, r2, r11, r2, r4
	{
		sub r3, r9, r3
		nop
	}
	.loc	1 3395 4
	ladd r2, r0, r2, r0, r4
	ladd r2, r1, r3, r1, r2
	{
		mov r3, r6
		ldaw r6, sp[25]
	}
.Ltmp1957:
.LBB40_121:
	{
		mov r8, r6
		eq r2, r1, r5
	}
	.loc	1 3406 6
.Ltmp1958:
	bt r2, .LBB40_122
.Ltmp1959:
	{
		mov r4, r11
		stw r3, sp[14]
	}
	{
		mov r6, r10
		lss r2, r1, r5
	}
	bu .LBB40_124
.Ltmp1960:
.LBB40_122:
	{
		mov r4, r11
		stw r3, sp[14]
	}
	{
		mov r6, r10
		lsu r2, r0, r7
	}
.Ltmp1961:
.LBB40_124:
	{
		mkmsk r3, 32
		nop
	}
	{
		mov r10, r3
		ldc r3, 0
	}
	.loc	1 3407 4
	ladd r3, r11, r7, r10, r3
	ladd r5, r3, r5, r10, r3
	bt r2, .LBB40_126
.Ltmp1962:
	.loc	1 3406 6
	{
		mov r0, r11
		nop
	}
.Ltmp1963:
.LBB40_126:
	{
		mkmsk r7, 1
		ldw r11, sp[12]
	}
	{
		mov r10, r6
		nop
	}
	bt r2, .LBB40_128
.Ltmp1964:
	{
		mov r1, r3
		nop
	}
.Ltmp1965:
.LBB40_128:
	.loc	1 3408 6
	{
		eq r2, r1, r9
		ldc r5, 0
	}
	{
		mov r6, r8
		mov r3, r4
	}
	bt r2, .LBB40_129
.Ltmp1966:
	{
		lss r2, r1, r9
		nop
	}
	bu .LBB40_131
.Ltmp1967:
.LBB40_129:
	{
		lsu r2, r0, r3
		nop
	}
.Ltmp1968:
.LBB40_131:
	{
		mov r8, r11
		ldw r4, sp[15]
	}
.Ltmp1969:
	{
		nop
		stw r3, sp[17]
	}
	bt r2, .LBB40_133
.Ltmp1970:
	.loc	1 3408 6
	{
		mov r9, r1
		nop
	}
.Ltmp1971:
.LBB40_133:
	bt r2, .LBB40_135
.Ltmp1972:
	{
		nop
		stw r0, sp[17]
	}
.Ltmp1973:
.LBB40_135:
	{
		nop
		ldw r0, r4[1]
	}
	{
		nop
		ldw r11, r0[2]
	}
	.loc	1 3410 6
.Ltmp1974:
	{
		mov r0, r4
		ldw r3, r0[9]
	}
	.loc	1 3410 6
	{
		mov r2, r9
		ldw r1, sp[17]
	}
	{
		nop
		bla r11
	}
	bt r0, .LBB40_154
.Ltmp1975:
	{
		nop
		ldw r0, r4[1]
	}
	ldc r1, 4676
	.loc	1 892 5
.Ltmp1976:
	{
		add r1, r0, r1
		nop
	}
	{
		nop
		ldw r1, r1[0]
	}
	bt r1, .LBB40_138
.Ltmp1977:
	{
		nop
		ldw r1, r4[0]
	}
	{
		nop
		ldw r1, r1[0]
	}
	.loc	1 892 5
	{
		eq r1, r1, 9
		nop
	}
	bt r1, .LBB40_188
.Ltmp1978:
.LBB40_138:
	ldc r1, 232
	.loc	1 895 2
	{
		add r1, r0, r1
		nop
	}
	.loc	1 895 2
	std r5, r5, r1[0]
	ldc r1, 4672
	.loc	1 896 2
	{
		add r1, r0, r1
		nop
	}
	{
		nop
		stw r5, r1[0]
	}
	ldc r1, 8320
	.loc	1 897 2
	{
		add r1, r0, r1
		nop
	}
	.loc	1 897 2
	std r5, r5, r1[0]
	ldc r1, 8304
	.loc	1 898 2
	{
		add r1, r0, r1
		nop
	}
	{
		nop
		stw r5, r1[0]
	}
	{
		nop
		ldw r0, r0[11]
	}
	.loc	1 905 6
.Ltmp1979:
	bl FLAC__bitreader_clear
	{
		nop
		ldw r1, r4[0]
	}
	.loc	1 905 6
	bf r0, .LBB40_139
.Ltmp1980:
	{
		ldc r0, 2
		nop
	}
	{
		mov r2, r0
		nop
	}
	{
		nop
		stw r2, r1[0]
	}
	{
		nop
		ldw r0, r4[1]
	}
	ldc r1, 8336
	.loc	1 3424 3
	{
		add r0, r0, r1
		nop
	}
.Ltmp1981:
	.loc	1 3424 3
	{
		mov r0, r2
		stw r5, r0[0]
	}
	bu .LBB40_141
.Ltmp1982:
.LBB40_144:
	{
		nop
		ldw r0, r4[0]
	}
	{
		nop
		ldw r0, r0[0]
	}
.Ltmp1983:
.LBB40_141:
	.loc	1 989 3
	{
		lsu r1, r10, r0
		nop
	}
	bt r1, .LBB40_151
.Ltmp1984:

	.xtabranch .Ljumptable10+4,.Ljumptable10+8,.Ljumptable10+12,.Ljumptable10+16,.Ljumptable10+20,.Ljumptable10+24,.Ljumptable10+28,.Ljumptable10+32
.Ljumptable10:
		
	{
		nop
		bru r0
	}
	.jmptable32 .LBB40_143,.LBB40_148,.LBB40_145,.LBB40_146,.LBB40_149,.LBB40_151,.LBB40_151,.LBB40_149
.Ltmp1985:
.LBB40_143:
	.loc	1 991 9
	{
		mov r0, r4
		nop
	}
	bl find_metadata_
	bt r0, .LBB40_144
	bu .LBB40_151
.Ltmp1986:
.LBB40_145:
	.loc	1 1000 9
	{
		mov r0, r4
		nop
	}
	bl frame_sync_
	bt r0, .LBB40_144
	bu .LBB40_149
.Ltmp1987:
.LBB40_146:
	.loc	1 1004 9
	{
		mov r0, r4
		mov r1, r6
	}
	{
		mov r2, r7
		nop
	}
	bl read_frame_
	bf r0, .LBB40_151
.Ltmp1988:
	{
		nop
		ldw r0, sp[25]
	}
	bf r0, .LBB40_144
	bu .LBB40_149
.Ltmp1989:
.LBB40_148:
	.loc	1 995 9
	{
		mov r0, r4
		nop
	}
	bl read_metadata_
	bf r0, .LBB40_151
.Ltmp1990:
.LBB40_149:
	{
		nop
		ldw r1, r4[0]
	}
	{
		nop
		ldw r0, r1[0]
	}
	.loc	1 3425 7
	{
		eq r0, r0, 7
		nop
	}
	bt r0, .LBB40_151
.Ltmp1991:
	{
		nop
		ldw r0, r4[1]
	}
	ldc r2, 232
	.loc	1 3425 7
	{
		add r2, r0, r2
		nop
	}
	.loc	1 3425 7
	ldd r3, r2, r2[0]
	.loc	1 3425 7
	{
		or r2, r2, r3
		nop
	}
	bt r2, .LBB40_156
.Ltmp1992:
.LBB40_151:
	{
		nop
		ldw r0, r4[0]
	}
	{
		nop
		ldw r1, r0[0]
	}
	.loc	1 3427 7
.Ltmp1993:
	{
		eq r1, r1, 7
		nop
	}
	bt r1, .LBB40_155
.Ltmp1994:
	{
		nop
		ldw r0, r4[1]
	}
	{
		nop
		ldw r2, r0[5]
	}
	.loc	1 3427 69
	{
		mov r0, r4
		ldw r1, r0[9]
	}
	{
		nop
		bla r2
	}
	bf r0, .LBB40_154
.Ltmp1995:
	.loc	1 1167 4
	{
		mov r0, r7
		ldw r1, sp[14]
	}
	bf r1, .LBB40_105
	bu .LBB40_154
.Ltmp1996:
.LBB40_156:
	{
		mov r4, r9
		stw r4, sp[15]
	}
	ldc r2, 4680
	.loc	1 3444 6
.Ltmp1997:
	{
		add r2, r0, r2
		nop
	}
	{
		nop
		ldw r2, r2[0]
	}
	.loc	1 3444 6
	bf r2, .LBB40_157
.Ltmp1998:
	ldc r2, 4800
	.loc	1 3448 3
	{
		add r11, r0, r2
		nop
	}
	ldc r2, 4824
	{
		add r2, r0, r2
		nop
	}
	.loc	1 3448 3
	ldd r3, r2, r2[0]
	{
		nop
		stw r2, sp[14]
	}
	{
		nop
		ldw r11, r11[0]
	}
	.loc	1 3450 6
.Ltmp1999:
	ladd r11, r7, r11, r2, r5
	{
		add r2, r3, r11
		ldw r9, sp[13]
	}
	.loc	1 3450 6
	{
		eq r11, r2, r9
		nop
	}
	bt r11, .LBB40_159
.Ltmp2000:
	{
		lsu r11, r2, r9
		stw r7, sp[4]
	}
	{
		mov r9, r2
		nop
	}
	bu .LBB40_161
.Ltmp2001:
.LBB40_159:
	{
		mov r9, r2
		ldw r11, sp[9]
	}
	{
		lsu r11, r7, r11
		stw r7, sp[4]
	}
.Ltmp2002:
.LBB40_161:
	bt r11, .LBB40_170
.Ltmp2003:
	{
		nop
		ldw r11, sp[5]
	}
	bt r11, .LBB40_170
.Ltmp2004:
	.loc	1 3451 8
	ldd r2, r0, sp[11]
	{
		nop
		ldw r3, sp[17]
	}
	.loc	1 3451 8
	xor r0, r3, r0
	xor r2, r4, r2
	{
		or r0, r0, r2
		nop
	}
	bf r0, .LBB40_164
.Ltmp2005:
	{
		nop
		ldw r0, sp[8]
	}
	{
		nop
		ldw r4, sp[15]
	}
.Ltmp2006:
	.loc	1 3457 4
	bt r0, .LBB40_167
.Ltmp2007:
	{
		ldc r0, 16
		nop
	}
	{
		nop
		stw r0, sp[8]
	}
.Ltmp2008:
	bu .LBB40_104
.Ltmp2009:
.LBB40_170:
	{
		mov r7, r4
		mov r11, r8
	}
	{
		mov r8, r5
		eq r11, r3, r11
	}
	.loc	1 3464 7
.Ltmp2010:
	bt r11, .LBB40_171
.Ltmp2011:
	{
		nop
		ldw r11, sp[12]
	}
	{
		lsu r11, r3, r11
		nop
	}
	bu .LBB40_173
.Ltmp2012:
.LBB40_171:
	{
		nop
		ldw r11, sp[10]
	}
	{
		nop
		ldw r2, sp[14]
	}
	{
		lsu r11, r2, r11
		nop
	}
.Ltmp2013:
.LBB40_173:
	{
		eq r11, r11, 0
		nop
	}
.Ltmp2014:
	bf r11, .LBB40_174
.Ltmp2015:
	{
		nop
		ldw r11, r0[3]
	}
	{
		nop
		ldw r1, sp[11]
	}
	.loc	1 3470 6
.Ltmp2016:
	{
		eq r1, r3, r1
		nop
	}
	bt r1, .LBB40_176
.Ltmp2017:
	{
		nop
		ldw r1, sp[11]
	}
	{
		lsu r1, r1, r3
		nop
	}
	bu .LBB40_178
.Ltmp2018:
.LBB40_176:
	{
		nop
		ldw r1, sp[16]
	}
	{
		nop
		ldw r2, sp[14]
	}
	{
		lsu r1, r1, r2
		nop
	}
.Ltmp2019:
.LBB40_178:
	{
		eq r1, r1, 0
		nop
	}
.Ltmp2020:
	bf r1, .LBB40_179
.Ltmp2021:
	{
		nop
		ldw r4, sp[15]
	}
.Ltmp2022:
	bf r11, .LBB40_187
.Ltmp2023:
	.loc	1 871 5
	{
		mov r0, r4
		ldw r2, r0[9]
	}
	{
		ldaw r1, sp[22]
		nop
	}
	{
		nop
		bla r11
	}
	bt r0, .LBB40_187
.Ltmp2024:
	{
		nop
		ldw r0, r4[1]
	}
	{
		nop
		ldw r0, r0[11]
	}
	.loc	1 874 6
.Ltmp2025:
	bl FLAC__bitreader_is_consumed_byte_aligned
	bt r0, .LBB40_191
	bu .LBB40_187
.Ltmp2026:
.LBB40_179:
	bf r11, .LBB40_182
.Ltmp2027:
	{
		nop
		ldw r2, r0[9]
	}
.Ltmp2028:
	.loc	1 871 5
	{
		ldaw r1, sp[20]
		ldw r0, sp[15]
	}
	{
		nop
		bla r11
	}
	bt r0, .LBB40_182
.Ltmp2029:
	{
		nop
		ldw r0, sp[15]
	}
	{
		nop
		ldw r0, r0[1]
	}
	{
		nop
		ldw r0, r0[11]
	}
	.loc	1 874 6
.Ltmp2030:
	bl FLAC__bitreader_is_consumed_byte_aligned
	bf r0, .LBB40_182
.Ltmp2031:
	{
		nop
		ldw r4, sp[15]
	}
.Ltmp2032:
	{
		nop
		ldw r0, r4[1]
	}
	{
		nop
		ldw r0, r0[11]
	}
	.loc	1 1185 9
.Ltmp2033:
	bl FLAC__bitreader_get_input_bits_unconsumed
	.loc	1 1185 9
	{
		shr r0, r0, 3
		nop
	}
.Ltmp2034:
	.loc	1 877 15
	ldd r2, r1, sp[10]
	{
		mov r5, r8
		nop
	}
	.loc	1 877 15
	lsub r1, r0, r1, r0, r5
	{
		sub r1, r2, r1
		nop
	}
	.loc	1 877 15
	std r1, r0, sp[10]
	{
		nop
		ldw r2, sp[17]
	}
.Ltmp2035:
	.loc	1 3477 4
	lsub r2, r0, r0, r2, r5
	lsub r2, r1, r1, r7, r2
	.loc	1 3477 4
	{
		shl r1, r1, 1
		mkmsk r2, 5
	}
	{
		shr r2, r0, r2
		nop
	}
	{
		or r1, r1, r2
		shl r0, r0, 1
	}
	{
		mkmsk r2, 2
		mov r3, r5
	}
	.loc	1 3477 4
	bl __udivdi3
	{
		ldc r1, 16
		nop
	}
	.loc	1 3477 4
	ladd r0, r1, r0, r1, r5
	{
		nop
		stw r1, sp[8]
	}
	{
		nop
		stw r5, sp[5]
	}
	{
		nop
		ldw r0, sp[4]
	}
	{
		nop
		stw r0, sp[9]
	}
	{
		nop
		stw r9, sp[13]
	}
	{
		nop
		ldw r2, sp[11]
	}
	{
		nop
		ldw r10, sp[10]
	}
	{
		nop
		ldw r8, sp[12]
	}
	bu .LBB40_103
.Ltmp2036:
.LBB40_118:
	{
		ldc r1, 6
		nop
	}
	.loc	1 3387 4
.Ltmp2037:
	{
		ldc r5, 0
		stw r1, r0[0]
	}
	bu .LBB40_188
.Ltmp2038:
.LBB40_154:
	{
		nop
		ldw r0, r4[0]
	}
.Ltmp2039:
.LBB40_155:
	{
		ldc r1, 6
		nop
	}
	{
		nop
		stw r1, r0[0]
	}
	bu .LBB40_188
.Ltmp2040:
.LBB40_139:
	{
		ldc r0, 8
		nop
	}
	{
		nop
		stw r0, r1[0]
	}
.Ltmp2041:
.LBB40_188:
	.loc	1 1167 4
	{
		mov r9, r5
		nop
	}
.LBB40_189:
.Ltmp2042:
	{
		nop
		ldw r0, r4[1]
	}
	ldc r1, 4680
	.loc	1 1169 3
	{
		add r0, r0, r1
		nop
	}
	{
		nop
		stw r5, r0[0]
	}
.Ltmp2043:
.LBB40_190:
	.loc	1 1172 1
	{
		mov r0, r9
		ldw r10, sp[32]
	}
	{
		nop
		ldw r8, sp[30]
	}
	{
		nop
		ldw r9, sp[31]
	}
	{
		nop
		ldw r6, sp[28]
	}
	{
		nop
		ldw r7, sp[29]
	}
	{
		nop
		ldw r4, sp[26]
	}
	{
		nop
		ldw r5, sp[27]
	}
	{
		nop
		retsp 34
	}
	# RETURN_REG_HOLDER
.LBB40_157:
.Ltmp2044:
	.loc	1 1167 4
	{
		mov r9, r7
		ldw r4, sp[15]
	}
.Ltmp2045:
	bu .LBB40_189
.LBB40_164:
.Ltmp2046:
	{
		ldc r0, 6
		nop
	}
	{
		nop
		stw r0, r1[0]
	}
.Ltmp2047:
.LBB40_165:
	{
		mov r9, r5
		ldw r4, sp[15]
	}
.Ltmp2048:
	bu .LBB40_189
.LBB40_174:
.Ltmp2049:
	{
		ldc r0, 6
		nop
	}
	.loc	1 3465 4
.Ltmp2050:
	{
		mov r5, r8
		stw r0, r1[0]
	}
	bu .LBB40_165
.Ltmp2051:
.LBB40_182:
	{
		nop
		ldw r4, sp[15]
	}
.Ltmp2052:
.LBB40_187:
	.loc	1 3482 5
	{
		ldc r1, 6
		ldw r0, r4[0]
	}
	.loc	1 3482 5
	{
		mov r5, r8
		stw r1, r0[0]
	}
	bu .LBB40_188
.Ltmp2053:
	.cc_bottom FLAC__stream_decoder_seek_absolute.function

	.globl	FLAC__stream_decoder_seek_absolute.maxcores

	.globl	FLAC__stream_decoder_seek_absolute.maxtimers

	.globl	FLAC__stream_decoder_seek_absolute.maxchanends
.Ltmp2054:
	.size	FLAC__stream_decoder_seek_absolute, .Ltmp2054-FLAC__stream_decoder_seek_absolute
.Lfunc_end40:
	.cfi_endproc

	.section	.cp.rodata.cst4,"aMc",@progbits,4
	.cc_top .LCPI41_0.data,.LCPI41_0
	.align	4
	.type	.LCPI41_0,@object
	.size	.LCPI41_0, 4
.LCPI41_0:
	.long	4294967264
	.cc_bottom .LCPI41_0.data
	.cc_top .LCPI41_1.data,.LCPI41_1
	.align	4
	.type	.LCPI41_1,@object
	.size	.LCPI41_1, 4
.LCPI41_1:
	.long	4294967291
	.cc_bottom .LCPI41_1.data
	.text
	.align	4
	.type	allocate_output_,@function
	.cc_top allocate_output_.function,allocate_output_
allocate_output_:
.Lfunc_begin41:
	.loc	1 1237 0
	.cfi_startproc
	.issue_mode dual
	{
		nop
		dualentsp 12
	}
.Ltmp2055:
	.cfi_def_cfa_offset 48
.Ltmp2056:
	.cfi_offset 15, 0
	std r5, r4, sp[2]
.Ltmp2057:
	.cfi_offset 4, -32
.Ltmp2058:
	.cfi_offset 5, -28
	std r7, r6, sp[3]
.Ltmp2059:
	.cfi_offset 6, -24
.Ltmp2060:
	.cfi_offset 7, -20
	std r9, r8, sp[4]
.Ltmp2061:
	.cfi_offset 8, -16
.Ltmp2062:
	.cfi_offset 9, -12
.Ltmp2063:
	.cfi_offset 10, -8
.Ltmp2064:
	{
		mov r9, r3
		stw r10, sp[10]
	}
.Ltmp2065:
	{
		mov r5, r2
		mov r6, r0
	}
.Ltmp2066:
	{
		nop
		ldw r2, r6[1]
	}
	ldc r0, 216
	.loc	1 1241 5 prologue_end
.Ltmp2067:
	{
		add r0, r2, r0
		nop
	}
	{
		nop
		ldw r0, r0[0]
	}
	.loc	1 1241 5
	{
		lsu r0, r0, r1
		nop
	}
	ldw r7, cp[.LCPI41_0]
	.loc	1 1241 5
	bf r0, .LBB41_2
.Ltmp2068:
	{
		nop
		stw r1, sp[3]
	}
.Ltmp2069:
	bu .LBB41_6
.Ltmp2070:
.LBB41_2:
	ldc r0, 220
	.loc	1 1241 5
	{
		add r0, r2, r0
		nop
	}
	{
		nop
		ldw r0, r0[0]
	}
	.loc	1 1241 5
	{
		lsu r0, r0, r5
		nop
	}
	.loc	1 1241 5
	bf r0, .LBB41_4
.Ltmp2071:
	{
		nop
		stw r1, sp[3]
	}
.Ltmp2072:
	bu .LBB41_6
.Ltmp2073:
.LBB41_4:
	.loc	1 1241 5
	{
		shr r0, r9, 5
		mkmsk r8, 1
	}
	bf r0, .LBB41_28
.Ltmp2074:
	{
		nop
		stw r1, sp[3]
	}
.Ltmp2075:
	ldc r0, 112
	.loc	1 1241 5
	{
		add r0, r2, r0
		nop
	}
	{
		nop
		ldw r0, r0[0]
	}
	bt r0, .LBB41_28
.Ltmp2076:
.LBB41_6:
	{
		add r0, r2, r7
		nop
	}
	ldc r10, 80
	{
		add r0, r0, r10
		nop
	}
	{
		nop
		ldw r0, r0[0]
	}
	bf r0, .LBB41_8
.Ltmp2077:
	.loc	1 1249 4
	ldaw r0, r0[-4]
	.loc	1 1249 4
	bl free
	{
		nop
		ldw r0, r6[1]
	}
	{
		add r0, r0, r7
		nop
	}
	{
		add r0, r0, r10
		ldc r1, 0
	}
	{
		nop
		stw r1, r0[0]
	}
	{
		nop
		ldw r2, r6[1]
	}
.Ltmp2078:
.LBB41_8:
	{
		add r0, r2, r7
		nop
	}
	ldc r4, 4672
	{
		add r0, r0, r4
		nop
	}
	{
		nop
		ldw r0, r0[0]
	}
	bf r0, .LBB41_10
.Ltmp2079:
	.loc	1 1253 4
	bl free
	{
		nop
		ldw r0, r6[1]
	}
	{
		add r0, r0, r7
		nop
	}
	ldc r1, 112
	{
		add r0, r0, r1
		ldc r1, 0
	}
	{
		nop
		stw r1, r0[0]
	}
	{
		nop
		ldw r0, r6[1]
	}
	{
		add r0, r0, r7
		nop
	}
	{
		add r0, r0, r4
		nop
	}
	{
		nop
		stw r1, r0[0]
	}
	{
		nop
		ldw r2, r6[1]
	}
.Ltmp2080:
.LBB41_10:
	.loc	1 1247 2
	{
		add r7, r7, 4
		nop
	}
.xtaloop 8
	# LOOPMARKER 0
	bt r7, .LBB41_6
.Ltmp2081:
	{
		nop
		stw r9, sp[1]
	}
.Ltmp2082:
	ldc r4, 112
	.loc	1 1258 5
.Ltmp2083:
	{
		add r0, r2, r4
		nop
	}
	{
		nop
		ldw r0, r0[0]
	}
	bf r0, .LBB41_13
.Ltmp2084:
	.loc	1 1259 3
	bl free
	{
		nop
		ldw r0, r6[1]
	}
	.loc	1 1260 3
	{
		add r0, r0, r4
		ldc r1, 0
	}
	{
		nop
		stw r1, r0[0]
	}
.Ltmp2085:
.LBB41_13:
	{
		mov r9, r5
		nop
	}
.Ltmp2086:
	bf r5, .LBB41_22
.Ltmp2087:
	ldw r0, cp[.LCPI41_1]
	{
		nop
		ldw r1, sp[3]
	}
	.loc	15 189 5
.Ltmp2088:
	{
		lsu r0, r0, r1
		nop
	}
	bt r0, .LBB41_19
.Ltmp2089:
	{
		nop
		ldw r0, sp[3]
	}
	.loc	15 188 2
	{
		add r7, r0, 4
		nop
	}
.Ltmp2090:
	.loc	15 193 9
	{
		shl r0, r7, 2
		nop
	}
	{
		ldc r5, 12
		stw r0, sp[2]
	}
	ldc r4, 4640
	{
		ldc r8, 0
		nop
	}
.Ltmp2091:
.LBB41_17:
	{
		mkmsk r0, 32
		nop
	}
	.loc	15 191 5
.Ltmp2092:
	divu r0, r0, r7
	{
		ldc r1, 4
		nop
	}
	.loc	15 191 5
	{
		lsu r0, r0, r1
		nop
	}
	bt r0, .LBB41_19
.Ltmp2093:
	{
		nop
		ldw r0, sp[2]
	}
	.loc	15 193 9
	bl malloc
	bf r0, .LBB41_19
.Ltmp2094:
	{
		nop
		stw r8, r0[3]
	}
	{
		nop
		stw r8, r0[2]
	}
	{
		nop
		stw r8, r0[1]
	}
	{
		nop
		stw r8, r0[0]
	}
	.loc	1 1276 3
	ldaw r0, r0[4]
	{
		nop
		ldw r1, r6[1]
	}
	.loc	1 1276 3
	stw r0, r1[r5]
	{
		nop
		ldw r0, r6[1]
	}
	{
		add r1, r0, r4
		add r2, r0, r10
	}
	{
		nop
		ldw r0, sp[3]
	}
	.loc	1 1278 7
.Ltmp2095:
	bl FLAC__memory_alloc_aligned_int32_array
	.loc	1 1278 7
	bf r0, .LBB41_21
.Ltmp2096:
	.loc	1 1263 2
	{
		add r0, r5, 1
		sub r1, r5, 11
	}
	.loc	1 1263 2
	{
		add r4, r4, 4
		add r10, r10, 4
	}
	.loc	1 1263 2
	{
		lsu r1, r1, r9
		mov r5, r0
	}
	bt r1, .LBB41_17
.Ltmp2097:
.LBB41_22:
	{
		ldc r0, 32
		ldw r1, sp[1]
	}
	.loc	1 1284 5
.Ltmp2098:
	{
		eq r0, r1, r0
		nop
	}
	.loc	1 1284 5
	bf r0, .LBB41_23
.Ltmp2099:
	{
		ldc r8, 8
		nop
	}
.Ltmp2100:
	.loc	1 1285 38
	{
		mov r0, r8
		ldw r4, sp[3]
	}
.Ltmp2101:
	{
		mov r1, r4
		nop
	}
	bl safe_malloc_mul_2op_p
	{
		nop
		ldw r1, r6[1]
	}
	ldc r2, 112
	.loc	1 1285 38
	{
		add r2, r1, r2
		nop
	}
	{
		nop
		stw r0, r2[0]
	}
	bt r0, .LBB41_24
.Ltmp2102:
	{
		nop
		ldw r0, r6[0]
	}
	{
		nop
		stw r8, r0[0]
	}
	bu .LBB41_27
.Ltmp2103:
.LBB41_19:
	.loc	1 1272 4
	{
		ldc r1, 8
		ldw r0, r6[0]
	}
	{
		nop
		stw r1, r0[0]
	}
.Ltmp2104:
.LBB41_27:
	{
		ldc r8, 0
		nop
	}
	bu .LBB41_28
.LBB41_23:
.Ltmp2105:
	{
		nop
		ldw r1, r6[1]
	}
	{
		nop
		ldw r4, sp[3]
	}
.Ltmp2106:
.LBB41_24:
	ldc r0, 216
	.loc	1 1292 2
	{
		add r0, r1, r0
		nop
	}
	{
		nop
		stw r4, r0[0]
	}
	ldc r0, 220
	.loc	1 1293 2
	{
		add r0, r1, r0
		nop
	}
	.loc	1 1293 2
	{
		mkmsk r8, 1
		stw r9, r0[0]
	}
	bu .LBB41_28
.Ltmp2107:
.LBB41_21:
	.loc	1 1279 4
	{
		ldc r1, 8
		ldw r0, r6[0]
	}
	{
		nop
		stw r1, r0[0]
	}
.Ltmp2108:
.LBB41_28:
	.loc	1 1296 1
	{
		mov r0, r8
		ldw r10, sp[10]
	}
	ldd r9, r8, sp[4]
	ldd r7, r6, sp[3]
	ldd r5, r4, sp[2]
	{
		nop
		retsp 12
	}
	# RETURN_REG_HOLDER
.Ltmp2109:
	.cc_bottom allocate_output_.function
	.set	allocate_output_.nstackwords,((safe_malloc_mul_2op_p.nstackwords $M malloc.nstackwords $M FLAC__memory_alloc_aligned_int32_array.nstackwords $M free.nstackwords) + 12)
	.set	allocate_output_.maxcores,FLAC__memory_alloc_aligned_int32_array.maxcores $M free.maxcores $M malloc.maxcores $M safe_malloc_mul_2op_p.maxcores $M 1
	.set	allocate_output_.maxtimers,FLAC__memory_alloc_aligned_int32_array.maxtimers $M free.maxtimers $M malloc.maxtimers $M safe_malloc_mul_2op_p.maxtimers $M 0
	.set	allocate_output_.maxchanends,FLAC__memory_alloc_aligned_int32_array.maxchanends $M free.maxchanends $M malloc.maxchanends $M safe_malloc_mul_2op_p.maxchanends $M 0
.Ltmp2110:
	.size	allocate_output_, .Ltmp2110-allocate_output_
.Lfunc_end41:
	.cfi_endproc

	.align	4
	.type	write_audio_frame_to_client_,@function
	.cc_top write_audio_frame_to_client_.function,write_audio_frame_to_client_
write_audio_frame_to_client_:
.Lfunc_begin42:
	.loc	1 3187 0
	.cfi_startproc
	.issue_mode dual
	{
		nop
		dualentsp 20
	}
.Ltmp2111:
	.cfi_def_cfa_offset 80
.Ltmp2112:
	.cfi_offset 15, 0
	std r5, r4, sp[6]
.Ltmp2113:
	.cfi_offset 4, -32
.Ltmp2114:
	.cfi_offset 5, -28
	std r7, r6, sp[7]
.Ltmp2115:
	.cfi_offset 6, -24
.Ltmp2116:
	.cfi_offset 7, -20
	std r9, r8, sp[8]
.Ltmp2117:
	.cfi_offset 8, -16
.Ltmp2118:
	.cfi_offset 9, -12
.Ltmp2119:
	.cfi_offset 10, -8
.Ltmp2120:
	{
		mov r5, r2
		stw r10, sp[18]
	}
.Ltmp2121:
	{
		mov r6, r1
		mov r4, r0
	}
.Ltmp2122:
	{
		nop
		ldw r0, r4[1]
	}
	ldc r1, 4800
	.loc	1 3188 2 prologue_end
.Ltmp2123:
	{
		add r0, r0, r1
		nop
	}
	ldc r2, 3504
	.loc	1 3188 2
	{
		mov r1, r6
		nop
	}
	bl __memcpy_4
	{
		nop
		ldw r0, r4[1]
	}
	ldc r1, 8304
	.loc	1 3189 2
	{
		add r1, r0, r1
		mkmsk r7, 1
	}
	{
		nop
		stw r7, r1[0]
	}
	ldc r1, 4680
	.loc	1 3190 5
.Ltmp2124:
	{
		add r1, r0, r1
		nop
	}
	{
		nop
		ldw r2, r1[0]
	}
	.loc	1 3190 5
	bf r2, .LBB42_15
.Ltmp2125:
	.loc	1 3191 3
	ldaw r2, r6[6]
	.loc	1 3191 3
	ldd r2, r3, r2[0]
	ldc r11, 8328
	.loc	1 3193 3
	{
		add r11, r0, r11
		nop
	}
	.loc	1 3193 3
	ldd r11, r9, r11[0]
	.loc	1 3200 6
.Ltmp2126:
	{
		eq r7, r11, r2
		nop
	}
	bt r7, .LBB42_2
.Ltmp2127:
	{
		lsu r7, r11, r2
		nop
	}
	bu .LBB42_4
.Ltmp2128:
.LBB42_15:
	ldc r1, 240
	.loc	1 3229 6
.Ltmp2129:
	{
		add r1, r0, r1
		nop
	}
	{
		nop
		ldw r2, r1[0]
	}
	ldc r1, 4672
	.loc	1 3230 4
	{
		add r1, r0, r1
		nop
	}
	.loc	1 3229 6
	bf r2, .LBB42_16
.Ltmp2130:
	{
		nop
		ldw r1, r1[0]
	}
	bf r1, .LBB42_20
.Ltmp2131:
	ldc r1, 4684
	.loc	1 3232 8
.Ltmp2132:
	{
		add r0, r0, r1
		ldw r2, r6[2]
	}
	{
		nop
		ldw r3, r6[0]
	}
	{
		nop
		ldw r1, r6[4]
	}
	.loc	1 3232 8
	{
		add r1, r1, 7
		nop
	}
	.loc	1 3232 8
	{
		shr r1, r1, 3
		nop
	}
	.loc	1 3232 8
	{
		mov r1, r5
		stw r1, sp[1]
	}
	bl FLAC__MD5Accumulate
	bf r0, .LBB42_22
.Ltmp2133:
	{
		nop
		ldw r0, r4[1]
	}
	bu .LBB42_20
.Ltmp2134:
.LBB42_2:
	.loc	1 3200 6
	{
		lsu r7, r9, r3
		nop
	}
.Ltmp2135:
.LBB42_4:
	.loc	1 3200 6
	bf r7, .LBB42_6
.Ltmp2136:
	{
		ldc r7, 0
		nop
	}
	bu .LBB42_22
.LBB42_6:
.Ltmp2137:
	.loc	1 3192 3
	{
		ldc r7, 0
		ldw r8, r6[0]
	}
	.loc	1 3192 3
	ladd r8, r10, r8, r3, r7
	{
		add r8, r2, r8
		stw r10, sp[3]
	}
	.loc	1 3200 6
.Ltmp2138:
	{
		eq r10, r11, r8
		nop
	}
	bt r10, .LBB42_7
.Ltmp2139:
	{
		lsu r8, r11, r8
		nop
	}
	bu .LBB42_9
.Ltmp2140:
.LBB42_7:
	{
		nop
		ldw r8, sp[3]
	}
	{
		lsu r8, r9, r8
		nop
	}
.Ltmp2141:
.LBB42_9:
	{
		eq r10, r8, 0
		nop
	}
.Ltmp2142:
	bt r10, .LBB42_22
.Ltmp2143:
	{
		ldc r7, 0
		nop
	}
	.loc	1 3201 4
.Ltmp2144:
	lsub r8, r3, r9, r3, r7
	lsub r11, r2, r11, r2, r8
	{
		nop
		stw r7, r1[0]
	}
	bf r3, .LBB42_20
.Ltmp2145:
	{
		nop
		ldw r1, r6[2]
	}
	bf r1, .LBB42_14
.Ltmp2146:
	{
		ldaw r2, sp[4]
		nop
	}
.Ltmp2147:
.LBB42_13:
	{
		nop
		ldw r11, r5[r7]
	}
	.loc	1 3209 6
.Ltmp2148:
	ldaw r11, r11[r3]
	.loc	1 3209 6
	stw r11, r2[r7]
	.loc	1 3208 56
	{
		add r7, r7, 1
		nop
	}
.Ltmp2149:
	.loc	1 3208 5
	{
		lsu r11, r7, r1
		nop
	}
	bt r11, .LBB42_13
.Ltmp2150:
.LBB42_14:
	ldc r1, 4800
	.loc	1 3210 5
	{
		add r1, r0, r1
		nop
	}
	{
		nop
		ldw r2, r1[0]
	}
	.loc	1 3210 5
	{
		sub r2, r2, r3
		nop
	}
	{
		nop
		stw r2, r1[0]
	}
	ldc r2, 4824
	.loc	1 3211 5
	{
		add r2, r0, r2
		nop
	}
	.loc	1 3211 5
	ldd r5, r11, r2[0]
	{
		ldc r6, 0
		nop
	}
	.loc	1 3211 5
	ladd r11, r3, r11, r3, r6
	{
		add r11, r5, r11
		nop
	}
	.loc	1 3211 5
	std r11, r3, r2[0]
	{
		nop
		ldw r11, r0[6]
	}
	.loc	1 3213 12
	{
		ldaw r2, sp[4]
		ldw r3, r0[9]
	}
	.loc	1 3213 12
	{
		mov r0, r4
		nop
	}
	bu .LBB42_21
.Ltmp2151:
.LBB42_16:
	{
		ldc r2, 0
		nop
	}
	{
		nop
		stw r2, r1[0]
	}
.Ltmp2152:
.LBB42_20:
	{
		nop
		ldw r11, r0[6]
	}
	.loc	1 3235 10
.Ltmp2153:
	{
		mov r0, r4
		ldw r3, r0[9]
	}
	.loc	1 3235 10
	{
		mov r1, r6
		mov r2, r5
	}
.Ltmp2154:
.LBB42_21:
	{
		nop
		bla r11
	}
	{
		mov r7, r0
		nop
	}
.Ltmp2155:
.LBB42_22:
	.loc	1 3237 1
	{
		mov r0, r7
		ldw r10, sp[18]
	}
	ldd r9, r8, sp[8]
	ldd r7, r6, sp[7]
	ldd r5, r4, sp[6]
	{
		nop
		retsp 20
	}
	# RETURN_REG_HOLDER
.Ltmp2156:
	.cc_bottom write_audio_frame_to_client_.function



.Ltmp2157:
	.size	write_audio_frame_to_client_, .Ltmp2157-write_audio_frame_to_client_
.Lfunc_end42:
	.cfi_endproc

	.align	4
	.type	read_residual_partitioned_rice_,@function
	.cc_top read_residual_partitioned_rice_.function,read_residual_partitioned_rice_
read_residual_partitioned_rice_:
.Lfunc_begin43:
	.loc	1 2925 0
	.cfi_startproc
	.issue_mode dual
	{
		nop
		dualentsp 16
	}
.Ltmp2158:
	.cfi_def_cfa_offset 64
.Ltmp2159:
	.cfi_offset 15, 0
	std r5, r4, sp[4]
.Ltmp2160:
	.cfi_offset 4, -32
.Ltmp2161:
	.cfi_offset 5, -28
	std r7, r6, sp[5]
.Ltmp2162:
	.cfi_offset 6, -24
.Ltmp2163:
	.cfi_offset 7, -20
	std r9, r8, sp[6]
.Ltmp2164:
	.cfi_offset 8, -16
.Ltmp2165:
	.cfi_offset 9, -12
.Ltmp2166:
	.cfi_offset 10, -8
.Ltmp2167:
	{
		mov r5, r3
		stw r10, sp[14]
	}
.Ltmp2168:
	{
		mov r7, r2
		stw r1, sp[2]
	}
.Ltmp2169:
	{
		mov r4, r0
		ldw r0, sp[18]
	}
.Ltmp2170:
	{
		nop
		ldw r1, r4[1]
	}
	ldc r2, 1128
	.loc	1 2930 2 prologue_end
.Ltmp2171:
	{
		add r1, r1, r2
		nop
	}
	{
		nop
		ldw r6, r1[0]
	}
	.loc	1 2931 2
	ldaw r11, cp[FLAC__ENTROPY_CODING_METHOD_PARTITIONED_RICE2_PARAMETER_LEN]
	{
		mov r8, r11
		nop
	}
	.loc	1 2931 2
	ldaw r11, cp[FLAC__ENTROPY_CODING_METHOD_PARTITIONED_RICE_PARAMETER_LEN]
	bt r0, .LBB43_2
.Ltmp2172:
	.loc	1 2931 2
	{
		mov r8, r11
		nop
	}
.Ltmp2173:
.LBB43_2:
	.loc	1 2932 2
	ldaw r11, cp[FLAC__ENTROPY_CODING_METHOD_PARTITIONED_RICE2_ESCAPE_PARAMETER]
	{
		mov r9, r11
		nop
	}
	.loc	1 2932 2
	ldaw r11, cp[FLAC__ENTROPY_CODING_METHOD_PARTITIONED_RICE_ESCAPE_PARAMETER]
	bt r0, .LBB43_4
.Ltmp2174:
	.loc	1 2932 2
	{
		mov r9, r11
		nop
	}
.Ltmp2175:
.LBB43_4:
	{
		ldc r0, 6
		nop
	}
	.loc	1 2937 6
.Ltmp2176:
	{
		lsu r2, r0, r7
		mov r1, r7
	}
	bt r2, .LBB43_6
.Ltmp2177:
	.loc	1 2937 6
	{
		mov r1, r0
		nop
	}
.Ltmp2178:
.LBB43_6:
	.loc	1 2937 6
	{
		mov r0, r5
		nop
	}
	bl FLAC__format_entropy_coding_method_partitioned_rice_contents_ensure_size
	.loc	1 2937 6
	bf r0, .LBB43_31
.Ltmp2179:
	{
		mkmsk r0, 1
		nop
	}
	.loc	1 2929 2
	{
		shl r0, r0, r7
		nop
	}
.Ltmp2180:
	.loc	1 2930 2
	{
		shr r10, r6, r7
		stw r0, sp[3]
	}
.Ltmp2181:
	{
		nop
		ldw r0, r8[0]
	}
	{
		nop
		stw r0, sp[5]
	}
	{
		nop
		ldw r0, r9[0]
	}
	{
		ldc r9, 0
		stw r0, sp[4]
	}
	{
		mov r7, r9
		mov r8, r9
	}
.Ltmp2182:
.LBB43_8:
	{
		nop
		ldw r0, r4[1]
	}
.Ltmp2183:
	.loc	1 2944 7
	{
		ldaw r1, sp[7]
		ldw r0, r0[11]
	}
	{
		nop
		ldw r2, sp[5]
	}
	.loc	1 2944 7
	bl FLAC__bitreader_read_raw_uint32
	bf r0, .LBB43_30
.Ltmp2184:
	{
		nop
		ldw r0, sp[7]
	}
	{
		nop
		ldw r1, r5[0]
	}
	.loc	1 2946 3
	stw r0, r1[r7]
	{
		nop
		ldw r0, sp[7]
	}
	{
		nop
		ldw r1, sp[4]
	}
	.loc	1 2947 6
.Ltmp2185:
	{
		lsu r0, r0, r1
		nop
	}
	bf r0, .LBB43_17
.Ltmp2186:
	{
		nop
		ldw r0, r5[1]
	}
	.loc	1 2948 4
.Ltmp2187:
	stw r9, r0[r7]
	.loc	1 2949 4
	{
		mov r0, r9
		nop
	}
	bt r7, .LBB43_12
.Ltmp2188:
	{
		nop
		ldw r0, sp[2]
	}
.Ltmp2189:
.LBB43_12:
	.loc	1 2949 4
	{
		sub r6, r10, r0
		ldw r0, r4[1]
	}
.Ltmp2190:
	{
		nop
		ldw r0, r0[11]
	}
	{
		nop
		ldw r1, sp[17]
	}
	.loc	1 2950 8
.Ltmp2191:
	ldaw r1, r1[r8]
	.loc	1 2950 8
	{
		mov r2, r6
		ldw r3, sp[7]
	}
	.loc	1 2950 8
	bl FLAC__bitreader_read_rice_signed_block
	.loc	1 2950 8
	bf r0, .LBB43_13
.Ltmp2192:
	.loc	1 2961 4
	{
		add r8, r6, r8
		nop
	}
.Ltmp2193:
	bu .LBB43_28
.Ltmp2194:
.LBB43_17:
	{
		nop
		ldw r0, r4[1]
	}
	.loc	1 2964 8
.Ltmp2195:
	{
		ldaw r1, sp[7]
		ldw r0, r0[11]
	}
	.loc	1 2964 8
	ldw r2, cp[FLAC__ENTROPY_CODING_METHOD_PARTITIONED_RICE_RAW_LEN]
	.loc	1 2964 8
	bl FLAC__bitreader_read_raw_uint32
	bf r0, .LBB43_30
.Ltmp2196:
	{
		nop
		ldw r0, sp[7]
	}
	{
		nop
		ldw r1, r5[1]
	}
	.loc	1 2966 4
	stw r0, r1[r7]
	.loc	1 2967 7
.Ltmp2197:
	{
		mov r6, r9
		ldw r2, sp[7]
	}
	bt r7, .LBB43_20
.Ltmp2198:
	{
		nop
		ldw r6, sp[2]
	}
.Ltmp2199:
.LBB43_20:
	.loc	1 2968 5
	{
		lsu r0, r6, r10
		nop
	}
.Ltmp2200:
	.loc	1 2967 7
	bf r2, .LBB43_25
.Ltmp2201:
	bf r0, .LBB43_28
	bu .LBB43_22
.LBB43_24:
.Ltmp2202:
	{
		nop
		ldw r2, sp[7]
	}
.Ltmp2203:
.LBB43_22:
	.loc	1 2973 10
	{
		add r6, r6, 1
		ldw r0, r4[1]
	}
.Ltmp2204:
	.loc	1 2973 10
	{
		ldaw r1, sp[6]
		ldw r0, r0[11]
	}
	.loc	1 2973 10
	bl FLAC__bitreader_read_raw_int32
	bf r0, .LBB43_30
.Ltmp2205:
	{
		nop
		ldw r0, sp[6]
	}
	{
		nop
		ldw r1, sp[17]
	}
	.loc	1 2975 6
	stw r0, r1[r8]
.Ltmp2206:
	.loc	1 2972 75
	{
		add r8, r8, 1
		lsu r0, r6, r10
	}
	bt r0, .LBB43_24
	bu .LBB43_28
.Ltmp2207:
.LBB43_25:
	bf r0, .LBB43_28
.Ltmp2208:
	.loc	1 2968 5
	{
		add r0, r10, r8
		nop
	}
	{
		nop
		stw r0, sp[1]
	}
	{
		nop
		ldw r0, sp[17]
	}
	ldaw r0, r0[r8]
	.loc	1 2968 5
	{
		sub r1, r10, r6
		nop
	}
	.loc	1 2968 5
	{
		shl r2, r1, 2
		mov r1, r9
	}
	.loc	1 2969 6
	bl memset
	{
		nop
		ldw r0, sp[1]
	}
	.loc	1 2968 5
	{
		sub r8, r0, r6
		nop
	}
.Ltmp2209:
.LBB43_28:
	.loc	1 2943 45
	{
		add r7, r7, 1
		ldw r0, sp[3]
	}
.Ltmp2210:
	.loc	1 2943 2
	{
		lsu r0, r7, r0
		nop
	}
	bt r0, .LBB43_8
	bu .LBB43_29
.Ltmp2211:
.LBB43_31:
	.loc	1 2938 3
	{
		ldc r1, 8
		ldw r0, r4[0]
	}
	.loc	1 2938 3
	{
		ldc r9, 0
		stw r1, r0[0]
	}
	bu .LBB43_30
.Ltmp2212:
.LBB43_13:
	{
		nop
		ldw r0, r4[0]
	}
	{
		nop
		ldw r1, r0[0]
	}
	.loc	1 2951 8
.Ltmp2213:
	{
		eq r1, r1, 3
		nop
	}
	bf r1, .LBB43_30
.Ltmp2214:
	{
		nop
		ldw r1, r4[1]
	}
	ldc r2, 4680
	.loc	1 3241 5
.Ltmp2215:
	{
		add r2, r1, r2
		nop
	}
	{
		nop
		ldw r2, r2[0]
	}
	bt r2, .LBB43_16
.Ltmp2216:
	{
		nop
		ldw r3, r1[8]
	}
	.loc	1 3242 3
	{
		ldc r1, 0
		ldw r2, r1[9]
	}
	.loc	1 3242 3
	{
		mov r0, r4
		nop
	}
	{
		nop
		bla r3
	}
	{
		nop
		ldw r0, r4[0]
	}
.Ltmp2217:
.LBB43_16:
	{
		ldc r1, 2
		nop
	}
	{
		nop
		stw r1, r0[0]
	}
.Ltmp2218:
.LBB43_29:
	{
		mkmsk r9, 1
		nop
	}
.Ltmp2219:
.LBB43_30:
	.loc	1 2982 1
	{
		mov r0, r9
		ldw r10, sp[14]
	}
	ldd r9, r8, sp[6]
	ldd r7, r6, sp[5]
	ldd r5, r4, sp[4]
	{
		nop
		retsp 16
	}
.Ltmp2220:
	# RETURN_REG_HOLDER
.Ltmp2221:
	.cc_bottom read_residual_partitioned_rice_.function



.Ltmp2222:
	.size	read_residual_partitioned_rice_, .Ltmp2222-read_residual_partitioned_rice_
.Lfunc_end43:
	.cfi_endproc

	.align	4
	.type	file_read_callback_,@function
	.cc_top file_read_callback_.function,file_read_callback_
file_read_callback_:
.Lfunc_begin44:
	.loc	1 3632 0
	.cfi_startproc
	.issue_mode dual
	{
		nop
		dualentsp 6
	}
.Ltmp2223:
	.cfi_def_cfa_offset 24
.Ltmp2224:
	.cfi_offset 15, 0
	std r5, r4, sp[1]
.Ltmp2225:
	.cfi_offset 4, -16
.Ltmp2226:
	.cfi_offset 5, -12
.Ltmp2227:
	.cfi_offset 6, -8
.Ltmp2228:
	{
		mov r5, r2
		stw r6, sp[4]
	}
.Ltmp2229:
	{
		mov r6, r0
		ldw r2, r5[0]
	}
.Ltmp2230:
	{
		ldc r4, 2
		nop
	}
	bf r2, .LBB44_3
.Ltmp2231:
	{
		nop
		ldw r0, r6[1]
	}
	.loc	1 3636 12 prologue_end
.Ltmp2232:
	{
		mkmsk r11, 1
		ldw r3, r0[10]
	}
.Ltmp2233:
	.loc	1 3636 12
	{
		mov r0, r1
		mov r1, r11
	}
.Ltmp2234:
	bl fread
	{
		nop
		stw r0, r5[0]
	}
	{
