	.text
	.file	"test_user_control.c"
	.section	.cp.rodata.cst4,"aMc",@progbits,4
	.cc_top .LCPI0_0.data,.LCPI0_0
	.align	4
	.type	.LCPI0_0,@object
	.size	.LCPI0_0, 4
.LCPI0_0:
	.long	4294967286
	.cc_bottom .LCPI0_0.data
	.text
	.globl	TestUserControl
	.align	4
	.type	TestUserControl,@function
	.cc_top TestUserControl.function,TestUserControl
TestUserControl:
.Lfunc_begin0:
	.file	4 "C:/Users/takaaki/git/sw_xSSDAC/module_sd_audio/src\\test_user_control.c"
	.loc	4 24 0
	.cfi_startproc
	.issue_mode dual
	{
		nop
		dualentsp 6
	}
.Ltmp0:
	.cfi_def_cfa_offset 24
.Ltmp1:
	.cfi_offset 15, 0
	std r5, r4, sp[1]
.Ltmp2:
	.cfi_offset 4, -16
.Ltmp3:
	.cfi_offset 5, -12
	std r7, r6, sp[2]
.Ltmp4:
	.cfi_offset 6, -8
.Ltmp5:
	.cfi_offset 7, -4
.Ltmp6:
	{
		mov r7, r2
		mov r5, r1
	}
.Ltmp7:
	{
		mov r6, r0
		ldc r4, 0
	}
.Ltmp8:
	.loc	4 26 26 prologue_end
	{
		mov r1, r4
		nop
	}
	bl QueryChannel
.Ltmp9:
	.loc	4 27 5
	{
		sub r0, r0, 1
		mkmsk r1, 3
	}
.Ltmp10:
	{
		lsu r1, r1, r0
		nop
	}
	bt r1, .LBB0_13
.Ltmp11:

	.xtabranch .Ljumptable0+4,.Ljumptable0+8,.Ljumptable0+12,.Ljumptable0+16,.Ljumptable0+20,.Ljumptable0+24,.Ljumptable0+28,.Ljumptable0+32
.Ljumptable0:
		
	{
		nop
		bru r0
	}
	.jmptable32 .LBB0_3,.LBB0_11,.LBB0_2,.LBB0_7,.LBB0_5,.LBB0_4,.LBB0_6,.LBB0_8
.Ltmp12:
.LBB0_3:
	{
		ldc r0, 5
		nop
	}
	bu .LBB0_12
.Ltmp13:
.LBB0_8:
	{
		mkmsk r7, 1
		mov r0, r6
	}
	.loc	4 50 25
.Ltmp14:
	{
		mov r1, r7
		nop
	}
	bl QueryChannel
	.loc	4 50 25
	{
		eq r1, r0, 8
		nop
	}
	bt r1, .LBB0_13
.Ltmp15:
	{
		eq r0, r0, 9
		nop
	}
	bf r0, .LBB0_8
.Ltmp16:
	{
		mkmsk r0, 2
		nop
	}
	.loc	4 55 24
.Ltmp17:
	{
		mov r4, r7
		stw r0, r5[0]
	}
	bu .LBB0_13
.Ltmp18:
.LBB0_11:
	{
		ldc r0, 4
		nop
	}
	bu .LBB0_12
.Ltmp19:
.LBB0_2:
	{
		ldc r0, 2
		nop
	}
	bu .LBB0_12
.Ltmp20:
.LBB0_5:
	{
		ldc r0, 0
		nop
	}
.Ltmp21:
.LBB0_12:
	.loc	4 64 13
	{
		mkmsk r4, 1
		stw r0, r5[0]
	}
	bu .LBB0_13
.Ltmp22:
.LBB0_4:
	ldw r0, cp[.LCPI0_0]
	{
		nop
		bla r7
	}
	bu .LBB0_13
.Ltmp23:
.LBB0_6:
	{
		ldc r0, 10
		nop
	}
	{
		nop
		bla r7
	}
	bt r0, .LBB0_13
.Ltmp24:
.LBB0_7:
	{
		mkmsk r4, 1
		nop
	}
	{
		nop
		stw r4, r5[0]
	}
.Ltmp25:
.LBB0_13:
	.loc	4 70 1
	{
		mov r0, r4
		nop
	}
	ldd r7, r6, sp[2]
	ldd r5, r4, sp[1]
	{
		nop
		retsp 6
	}
	# RETURN_REG_HOLDER
.Ltmp26:
	.cc_bottom TestUserControl.function

	.globl	TestUserControl.maxcores

	.globl	TestUserControl.maxtimers

	.globl	TestUserControl.maxchanends
.Ltmp27:
	.size	TestUserControl, .Ltmp27-TestUserControl
.Lfunc_end0:
	.cfi_endproc

.Ldebug_end0:
	.file	5 "C:\\Program Files (x86)\\XMOS\\xTIMEcomposer\\Community_14.4.1\\target/include\\xccompat.h"
	.section	.trap_info,"",@progbits
.Ltrap_info_entries_start0:
	.long	.Ltrap_info_entries_end0-.Ltrap_info_entries_start0
	.long	1
.Ltrap_info_entries_end0: