	.text
	.file	"xcore_c_port.c"
	.text
	.globl	_port_set_transfer_width
	.align	4
	.type	_port_set_transfer_width,@function
	.cc_top _port_set_transfer_width.function,_port_set_transfer_width
_port_set_transfer_width:
.Lfunc_begin0:
	.file	5 "C:/Users/takaaki/git/lib_xcore_c/lib_xcore_c/src\\xcore_c_port_impl.h"
	.loc	5 29 0
	.cfi_startproc
	.issue_mode dual
	{
		nop
		dualentsp 0
	}
	.loc	5 30 3 prologue_end
.Ltmp0:
	#APP
	settw res[r0], r1
	#NO_APP
	{
		nop
		retsp 0
	}
	.loc	5 31 1
	# RETURN_REG_HOLDER
.Ltmp1:
	.cc_bottom _port_set_transfer_width.function
	.set	_port_set_transfer_width.nstackwords,0
	.globl	_port_set_transfer_width.nstackwords
	.set	_port_set_transfer_width.maxcores,1
	.globl	_port_set_transfer_width.maxcores
	.set	_port_set_transfer_width.maxtimers,0
	.globl	_port_set_transfer_width.maxtimers
	.set	_port_set_transfer_width.maxchanends,0
	.globl	_port_set_transfer_width.maxchanends
.Ltmp2:
	.size	_port_set_transfer_width, .Ltmp2-_port_set_transfer_width
.Lfunc_end0:
	.cfi_endproc

	.globl	_port_alloc
	.align	4
	.type	_port_alloc,@function
	.cc_top _port_alloc.function,_port_alloc
_port_alloc:
.Lfunc_begin1:
	.loc	5 34 0
	.cfi_startproc
	.issue_mode dual
	{
		nop
		dualentsp 0
	}
	.loc	5 35 3 prologue_end
.Ltmp3:
	#APP
	setc res[r0], 0x8
	#NO_APP
	{
		nop
		retsp 0
	}
	.loc	5 36 3
	# RETURN_REG_HOLDER
.Ltmp4:
	.cc_bottom _port_alloc.function
	.set	_port_alloc.nstackwords,0
	.globl	_port_alloc.nstackwords
	.set	_port_alloc.maxcores,1
	.globl	_port_alloc.maxcores
	.set	_port_alloc.maxtimers,0
	.globl	_port_alloc.maxtimers
	.set	_port_alloc.maxchanends,0
	.globl	_port_alloc.maxchanends
.Ltmp5:
	.size	_port_alloc, .Ltmp5-_port_alloc
.Lfunc_end1:
	.cfi_endproc

	.globl	_port_reset
	.align	4
	.type	_port_reset,@function
	.cc_top _port_reset.function,_port_reset
_port_reset:
.Lfunc_begin2:
	.loc	5 40 0
	.cfi_startproc
	.issue_mode dual
	{
		nop
		dualentsp 0
	}
	.loc	5 41 3 prologue_end
.Ltmp6:
	#APP
	setc res[r0], 0x8
	#NO_APP
	{
		nop
		retsp 0
	}
	.loc	5 42 1
	# RETURN_REG_HOLDER
.Ltmp7:
	.cc_bottom _port_reset.function
	.set	_port_reset.nstackwords,0
	.globl	_port_reset.nstackwords
	.set	_port_reset.maxcores,1
	.globl	_port_reset.maxcores
	.set	_port_reset.maxtimers,0
	.globl	_port_reset.maxtimers
	.set	_port_reset.maxchanends,0
	.globl	_port_reset.maxchanends
.Ltmp8:
	.size	_port_reset, .Ltmp8-_port_reset
.Lfunc_end2:
	.cfi_endproc

	.globl	_port_free
	.align	4
	.type	_port_free,@function
	.cc_top _port_free.function,_port_free
_port_free:
.Lfunc_begin3:
	.loc	5 45 0
	.cfi_startproc
	.issue_mode dual
	{
		nop
		dualentsp 0
	}
	.loc	5 46 3 prologue_end
.Ltmp9:
	#APP
	setc res[r0], 0x0
	#NO_APP
	{
		nop
		retsp 0
	}
	.loc	5 47 1
	# RETURN_REG_HOLDER
.Ltmp10:
	.cc_bottom _port_free.function
	.set	_port_free.nstackwords,0
	.globl	_port_free.nstackwords
	.set	_port_free.maxcores,1
	.globl	_port_free.maxcores
	.set	_port_free.maxtimers,0
	.globl	_port_free.maxtimers
	.set	_port_free.maxchanends,0
	.globl	_port_free.maxchanends
.Ltmp11:
	.size	_port_free, .Ltmp11-_port_free
.Lfunc_end3:
	.cfi_endproc

	.globl	_port_set_buffered
	.align	4
	.type	_port_set_buffered,@function
	.cc_top _port_set_buffered.function,_port_set_buffered
_port_set_buffered:
.Lfunc_begin4:
	.loc	5 50 0
	.cfi_startproc
	.issue_mode dual
	{
		nop
		dualentsp 0
	}
	.loc	5 51 3 prologue_end
.Ltmp12:
	#APP
	setc res[r0], 0x200f
	#NO_APP
	{
		nop
		retsp 0
	}
	.loc	5 52 1
	# RETURN_REG_HOLDER
.Ltmp13:
	.cc_bottom _port_set_buffered.function
	.set	_port_set_buffered.nstackwords,0
	.globl	_port_set_buffered.nstackwords
	.set	_port_set_buffered.maxcores,1
	.globl	_port_set_buffered.maxcores
	.set	_port_set_buffered.maxtimers,0
	.globl	_port_set_buffered.maxtimers
	.set	_port_set_buffered.maxchanends,0
	.globl	_port_set_buffered.maxchanends
.Ltmp14:
	.size	_port_set_buffered, .Ltmp14-_port_set_buffered
.Lfunc_end4:
	.cfi_endproc

	.globl	_port_set_unbuffered
	.align	4
	.type	_port_set_unbuffered,@function
	.cc_top _port_set_unbuffered.function,_port_set_unbuffered
_port_set_unbuffered:
.Lfunc_begin5:
	.loc	5 55 0
	.cfi_startproc
	.issue_mode dual
	{
		nop
		dualentsp 0
	}
	.loc	5 56 3 prologue_end
.Ltmp15:
	#APP
	setc res[r0], 0x2007
	#NO_APP
	{
		nop
		retsp 0
	}
	.loc	5 57 1
	# RETURN_REG_HOLDER
.Ltmp16:
	.cc_bottom _port_set_unbuffered.function
	.set	_port_set_unbuffered.nstackwords,0
	.globl	_port_set_unbuffered.nstackwords
	.set	_port_set_unbuffered.maxcores,1
	.globl	_port_set_unbuffered.maxcores
	.set	_port_set_unbuffered.maxtimers,0
	.globl	_port_set_unbuffered.maxtimers
	.set	_port_set_unbuffered.maxchanends,0
	.globl	_port_set_unbuffered.maxchanends
.Ltmp17:
	.size	_port_set_unbuffered, .Ltmp17-_port_set_unbuffered
.Lfunc_end5:
	.cfi_endproc

	.globl	_port_set_clock
	.align	4
	.type	_port_set_clock,@function
	.cc_top _port_set_clock.function,_port_set_clock
_port_set_clock:
.Lfunc_begin6:
	.loc	5 60 0
	.cfi_startproc
	.issue_mode dual
	{
		nop
		dualentsp 0
	}
	.loc	5 61 3 prologue_end
.Ltmp18:
	#APP
	setclk res[r0], r1
	#NO_APP
	{
		nop
		retsp 0
	}
	.loc	5 62 1
	# RETURN_REG_HOLDER
.Ltmp19:
	.cc_bottom _port_set_clock.function
	.set	_port_set_clock.nstackwords,0
	.globl	_port_set_clock.nstackwords
	.set	_port_set_clock.maxcores,1
	.globl	_port_set_clock.maxcores
	.set	_port_set_clock.maxtimers,0
	.globl	_port_set_clock.maxtimers
	.set	_port_set_clock.maxchanends,0
	.globl	_port_set_clock.maxchanends
.Ltmp20:
	.size	_port_set_clock, .Ltmp20-_port_set_clock
.Lfunc_end6:
	.cfi_endproc

	.globl	_port_set_inout_data
	.align	4
	.type	_port_set_inout_data,@function
	.cc_top _port_set_inout_data.function,_port_set_inout_data
_port_set_inout_data:
.Lfunc_begin7:
	.loc	5 65 0
	.cfi_startproc
	.issue_mode dual
	{
		nop
		dualentsp 0
	}
	.loc	5 66 3 prologue_end
.Ltmp21:
	#APP
	setc res[r0], 0x5007
	#NO_APP
	{
		nop
		retsp 0
	}
	.loc	5 67 1
	# RETURN_REG_HOLDER
.Ltmp22:
	.cc_bottom _port_set_inout_data.function
	.set	_port_set_inout_data.nstackwords,0
	.globl	_port_set_inout_data.nstackwords
	.set	_port_set_inout_data.maxcores,1
	.globl	_port_set_inout_data.maxcores
	.set	_port_set_inout_data.maxtimers,0
	.globl	_port_set_inout_data.maxtimers
	.set	_port_set_inout_data.maxchanends,0
	.globl	_port_set_inout_data.maxchanends
.Ltmp23:
	.size	_port_set_inout_data, .Ltmp23-_port_set_inout_data
.Lfunc_end7:
	.cfi_endproc

	.globl	_port_set_out_clock
	.align	4
	.type	_port_set_out_clock,@function
	.cc_top _port_set_out_clock.function,_port_set_out_clock
_port_set_out_clock:
.Lfunc_begin8:
	.loc	5 70 0
	.cfi_startproc
	.issue_mode dual
	{
		nop
		dualentsp 0
	}
	.loc	5 71 3 prologue_end
.Ltmp24:
	#APP
	setc res[r0], 0x500f
	#NO_APP
	{
		nop
		retsp 0
	}
	.loc	5 72 1
	# RETURN_REG_HOLDER
.Ltmp25:
	.cc_bottom _port_set_out_clock.function
	.set	_port_set_out_clock.nstackwords,0
	.globl	_port_set_out_clock.nstackwords
	.set	_port_set_out_clock.maxcores,1
	.globl	_port_set_out_clock.maxcores
	.set	_port_set_out_clock.maxtimers,0
	.globl	_port_set_out_clock.maxtimers
	.set	_port_set_out_clock.maxchanends,0
	.globl	_port_set_out_clock.maxchanends
.Ltmp26:
	.size	_port_set_out_clock, .Ltmp26-_port_set_out_clock
.Lfunc_end8:
	.cfi_endproc

	.globl	_port_set_out_ready
	.align	4
	.type	_port_set_out_ready,@function
	.cc_top _port_set_out_ready.function,_port_set_out_ready
_port_set_out_ready:
.Lfunc_begin9:
	.loc	5 75 0
	.cfi_startproc
	.issue_mode dual
	{
		nop
		dualentsp 0
	}
	.loc	5 76 3 prologue_end
.Ltmp27:
	#APP
	setc res[r0], 0x5017
	#NO_APP
	.loc	5 77 3
	#APP
	setrdy res[r0], r1
	#NO_APP
	{
		nop
		retsp 0
	}
	.loc	5 78 1
	# RETURN_REG_HOLDER
.Ltmp28:
	.cc_bottom _port_set_out_ready.function
	.set	_port_set_out_ready.nstackwords,0
	.globl	_port_set_out_ready.nstackwords
	.set	_port_set_out_ready.maxcores,1
	.globl	_port_set_out_ready.maxcores
	.set	_port_set_out_ready.maxtimers,0
	.globl	_port_set_out_ready.maxtimers
	.set	_port_set_out_ready.maxchanends,0
	.globl	_port_set_out_ready.maxchanends
.Ltmp29:
	.size	_port_set_out_ready, .Ltmp29-_port_set_out_ready
.Lfunc_end9:
	.cfi_endproc

	.globl	_port_set_invert
	.align	4
	.type	_port_set_invert,@function
	.cc_top _port_set_invert.function,_port_set_invert
_port_set_invert:
.Lfunc_begin10:
	.loc	5 81 0
	.cfi_startproc
	.issue_mode dual
	{
		nop
		dualentsp 0
	}
	.loc	5 82 3 prologue_end
.Ltmp30:
	#APP
	setc res[r0], 0x600f
	#NO_APP
	{
		nop
		retsp 0
	}
	.loc	5 83 1
	# RETURN_REG_HOLDER
.Ltmp31:
	.cc_bottom _port_set_invert.function
	.set	_port_set_invert.nstackwords,0
	.globl	_port_set_invert.nstackwords
	.set	_port_set_invert.maxcores,1
	.globl	_port_set_invert.maxcores
	.set	_port_set_invert.maxtimers,0
	.globl	_port_set_invert.maxtimers
	.set	_port_set_invert.maxchanends,0
	.globl	_port_set_invert.maxchanends
.Ltmp32:
	.size	_port_set_invert, .Ltmp32-_port_set_invert
.Lfunc_end10:
	.cfi_endproc

	.globl	_port_set_no_invert
	.align	4
	.type	_port_set_no_invert,@function
	.cc_top _port_set_no_invert.function,_port_set_no_invert
_port_set_no_invert:
.Lfunc_begin11:
	.loc	5 86 0
	.cfi_startproc
	.issue_mode dual
	{
		nop
		dualentsp 0
	}
	.loc	5 87 3 prologue_end
.Ltmp33:
	#APP
	setc res[r0], 0x6007
	#NO_APP
	{
		nop
		retsp 0
	}
	.loc	5 88 1
	# RETURN_REG_HOLDER
.Ltmp34:
	.cc_bottom _port_set_no_invert.function
	.set	_port_set_no_invert.nstackwords,0
	.globl	_port_set_no_invert.nstackwords
	.set	_port_set_no_invert.maxcores,1
	.globl	_port_set_no_invert.maxcores
	.set	_port_set_no_invert.maxtimers,0
	.globl	_port_set_no_invert.maxtimers
	.set	_port_set_no_invert.maxchanends,0
	.globl	_port_set_no_invert.maxchanends
.Ltmp35:
	.size	_port_set_no_invert, .Ltmp35-_port_set_no_invert
.Lfunc_end11:
	.cfi_endproc

	.globl	_port_set_sample_falling_edge
	.align	4
	.type	_port_set_sample_falling_edge,@function
	.cc_top _port_set_sample_falling_edge.function,_port_set_sample_falling_edge
_port_set_sample_falling_edge:
.Lfunc_begin12:
	.loc	5 91 0
	.cfi_startproc
	.issue_mode dual
	{
		nop
		dualentsp 0
	}
	.loc	5 92 3 prologue_end
.Ltmp36:
	#APP
	setc res[r0], 0x400f
	#NO_APP
	{
		nop
		retsp 0
	}
	.loc	5 93 1
	# RETURN_REG_HOLDER
.Ltmp37:
	.cc_bottom _port_set_sample_falling_edge.function
	.set	_port_set_sample_falling_edge.nstackwords,0
	.globl	_port_set_sample_falling_edge.nstackwords
	.set	_port_set_sample_falling_edge.maxcores,1
	.globl	_port_set_sample_falling_edge.maxcores
	.set	_port_set_sample_falling_edge.maxtimers,0
	.globl	_port_set_sample_falling_edge.maxtimers
	.set	_port_set_sample_falling_edge.maxchanends,0
	.globl	_port_set_sample_falling_edge.maxchanends
.Ltmp38:
	.size	_port_set_sample_falling_edge, .Ltmp38-_port_set_sample_falling_edge
.Lfunc_end12:
	.cfi_endproc

	.globl	_port_set_sample_rising_edge
	.align	4
	.type	_port_set_sample_rising_edge,@function
	.cc_top _port_set_sample_rising_edge.function,_port_set_sample_rising_edge
_port_set_sample_rising_edge:
.Lfunc_begin13:
	.loc	5 96 0
	.cfi_startproc
	.issue_mode dual
	{
		nop
		dualentsp 0
	}
	.loc	5 97 3 prologue_end
.Ltmp39:
	#APP
	setc res[r0], 0x4007
	#NO_APP
	{
		nop
		retsp 0
	}
	.loc	5 98 1
	# RETURN_REG_HOLDER
.Ltmp40:
	.cc_bottom _port_set_sample_rising_edge.function
	.set	_port_set_sample_rising_edge.nstackwords,0
	.globl	_port_set_sample_rising_edge.nstackwords
	.set	_port_set_sample_rising_edge.maxcores,1
	.globl	_port_set_sample_rising_edge.maxcores
	.set	_port_set_sample_rising_edge.maxtimers,0
	.globl	_port_set_sample_rising_edge.maxtimers
	.set	_port_set_sample_rising_edge.maxchanends,0
	.globl	_port_set_sample_rising_edge.maxchanends
.Ltmp41:
	.size	_port_set_sample_rising_edge, .Ltmp41-_port_set_sample_rising_edge
.Lfunc_end13:
	.cfi_endproc

	.globl	_port_set_master
	.align	4
	.type	_port_set_master,@function
	.cc_top _port_set_master.function,_port_set_master
_port_set_master:
.Lfunc_begin14:
	.loc	5 101 0
	.cfi_startproc
	.issue_mode dual
	{
		nop
		dualentsp 0
	}
	.loc	5 102 3 prologue_end
.Ltmp42:
	#APP
	setc res[r0], 0x1007
	#NO_APP
	{
		nop
		retsp 0
	}
	.loc	5 103 1
	# RETURN_REG_HOLDER
.Ltmp43:
	.cc_bottom _port_set_master.function
	.set	_port_set_master.nstackwords,0
	.globl	_port_set_master.nstackwords
	.set	_port_set_master.maxcores,1
	.globl	_port_set_master.maxcores
	.set	_port_set_master.maxtimers,0
	.globl	_port_set_master.maxtimers
	.set	_port_set_master.maxchanends,0
	.globl	_port_set_master.maxchanends
.Ltmp44:
	.size	_port_set_master, .Ltmp44-_port_set_master
.Lfunc_end14:
	.cfi_endproc

	.globl	_port_set_slave
	.align	4
	.type	_port_set_slave,@function
	.cc_top _port_set_slave.function,_port_set_slave
_port_set_slave:
.Lfunc_begin15:
	.loc	5 106 0
	.cfi_startproc
	.issue_mode dual
	{
		nop
		dualentsp 0
	}
	.loc	5 107 3 prologue_end
.Ltmp45:
	#APP
	setc res[r0], 0x100f
	#NO_APP
	{
		nop
		retsp 0
	}
	.loc	5 108 1
	# RETURN_REG_HOLDER
.Ltmp46:
	.cc_bottom _port_set_slave.function
	.set	_port_set_slave.nstackwords,0
	.globl	_port_set_slave.nstackwords
	.set	_port_set_slave.maxcores,1
	.globl	_port_set_slave.maxcores
	.set	_port_set_slave.maxtimers,0
	.globl	_port_set_slave.maxtimers
	.set	_port_set_slave.maxchanends,0
	.globl	_port_set_slave.maxchanends
.Ltmp47:
	.size	_port_set_slave, .Ltmp47-_port_set_slave
.Lfunc_end15:
	.cfi_endproc

	.globl	_port_set_no_ready
	.align	4
	.type	_port_set_no_ready,@function
	.cc_top _port_set_no_ready.function,_port_set_no_ready
_port_set_no_ready:
.Lfunc_begin16:
	.loc	5 111 0
	.cfi_startproc
	.issue_mode dual
	{
		nop
		dualentsp 0
	}
	.loc	5 112 3 prologue_end
.Ltmp48:
	#APP
	setc res[r0], 0x3007
	#NO_APP
	{
		nop
		retsp 0
	}
	.loc	5 113 1
	# RETURN_REG_HOLDER
.Ltmp49:
	.cc_bottom _port_set_no_ready.function
	.set	_port_set_no_ready.nstackwords,0
	.globl	_port_set_no_ready.nstackwords
	.set	_port_set_no_ready.maxcores,1
	.globl	_port_set_no_ready.maxcores
	.set	_port_set_no_ready.maxtimers,0
	.globl	_port_set_no_ready.maxtimers
	.set	_port_set_no_ready.maxchanends,0
	.globl	_port_set_no_ready.maxchanends
.Ltmp50:
	.size	_port_set_no_ready, .Ltmp50-_port_set_no_ready
.Lfunc_end16:
	.cfi_endproc

	.globl	_port_set_ready_strobed
	.align	4
	.type	_port_set_ready_strobed,@function
	.cc_top _port_set_ready_strobed.function,_port_set_ready_strobed
_port_set_ready_strobed:
.Lfunc_begin17:
	.loc	5 116 0
	.cfi_startproc
	.issue_mode dual
	{
		nop
		dualentsp 0
	}
	.loc	5 117 3 prologue_end
.Ltmp51:
	#APP
	setc res[r0], 0x300f
	#NO_APP
	{
		nop
		retsp 0
	}
	.loc	5 118 1
	# RETURN_REG_HOLDER
.Ltmp52:
	.cc_bottom _port_set_ready_strobed.function
	.set	_port_set_ready_strobed.nstackwords,0
	.globl	_port_set_ready_strobed.nstackwords
	.set	_port_set_ready_strobed.maxcores,1
	.globl	_port_set_ready_strobed.maxcores
	.set	_port_set_ready_strobed.maxtimers,0
	.globl	_port_set_ready_strobed.maxtimers
	.set	_port_set_ready_strobed.maxchanends,0
	.globl	_port_set_ready_strobed.maxchanends
.Ltmp53:
	.size	_port_set_ready_strobed, .Ltmp53-_port_set_ready_strobed
.Lfunc_end17:
	.cfi_endproc

	.globl	_port_set_ready_handshake
	.align	4
	.type	_port_set_ready_handshake,@function
	.cc_top _port_set_ready_handshake.function,_port_set_ready_handshake
_port_set_ready_handshake:
.Lfunc_begin18:
	.loc	5 121 0
	.cfi_startproc
	.issue_mode dual
	{
		nop
		dualentsp 0
	}
	.loc	5 122 3 prologue_end
.Ltmp54:
	#APP
	setc res[r0], 0x3017
	#NO_APP
	{
		nop
		retsp 0
	}
	.loc	5 123 1
	# RETURN_REG_HOLDER
.Ltmp55:
	.cc_bottom _port_set_ready_handshake.function
	.set	_port_set_ready_handshake.nstackwords,0
	.globl	_port_set_ready_handshake.nstackwords
	.set	_port_set_ready_handshake.maxcores,1
	.globl	_port_set_ready_handshake.maxcores
	.set	_port_set_ready_handshake.maxtimers,0
	.globl	_port_set_ready_handshake.maxtimers
	.set	_port_set_ready_handshake.maxchanends,0
	.globl	_port_set_ready_handshake.maxchanends
.Ltmp56:
	.size	_port_set_ready_handshake, .Ltmp56-_port_set_ready_handshake
.Lfunc_end18:
	.cfi_endproc

	.globl	_port_get_trigger_time
	.align	4
	.type	_port_get_trigger_time,@function
	.cc_top _port_get_trigger_time.function,_port_get_trigger_time
_port_get_trigger_time:
.Lfunc_begin19:
	.loc	5 126 0
	.cfi_startproc
	.issue_mode dual
	{
		nop
		dualentsp 0
	}
	.loc	5 128 3 prologue_end
.Ltmp57:
	#APP
	getts r0, res[r0]
	#NO_APP
.Ltmp58:
	.loc	5 129 3
	{
		sext r0, 16
		retsp 0
	}
	# RETURN_REG_HOLDER
.Ltmp59:
	.cc_bottom _port_get_trigger_time.function
	.set	_port_get_trigger_time.nstackwords,0
	.globl	_port_get_trigger_time.nstackwords
	.set	_port_get_trigger_time.maxcores,1
	.globl	_port_get_trigger_time.maxcores
	.set	_port_get_trigger_time.maxtimers,0
	.globl	_port_get_trigger_time.maxtimers
	.set	_port_get_trigger_time.maxchanends,0
	.globl	_port_get_trigger_time.maxchanends
.Ltmp60:
	.size	_port_get_trigger_time, .Ltmp60-_port_get_trigger_time
.Lfunc_end19:
	.cfi_endproc

	.globl	_port_set_trigger_time
	.align	4
	.type	_port_set_trigger_time,@function
	.cc_top _port_set_trigger_time.function,_port_set_trigger_time
_port_set_trigger_time:
.Lfunc_begin20:
	.loc	5 133 0
	.cfi_startproc
	.issue_mode dual
	{
		nop
		dualentsp 0
	}
	.loc	5 134 3 prologue_end
.Ltmp61:
	#APP
	setpt res[r0], r1
	#NO_APP
	{
		nop
		retsp 0
	}
	.loc	5 135 1
	# RETURN_REG_HOLDER
.Ltmp62:
	.cc_bottom _port_set_trigger_time.function
	.set	_port_set_trigger_time.nstackwords,0
	.globl	_port_set_trigger_time.nstackwords
	.set	_port_set_trigger_time.maxcores,1
	.globl	_port_set_trigger_time.maxcores
	.set	_port_set_trigger_time.maxtimers,0
	.globl	_port_set_trigger_time.maxtimers
	.set	_port_set_trigger_time.maxchanends,0
	.globl	_port_set_trigger_time.maxchanends
.Ltmp63:
	.size	_port_set_trigger_time, .Ltmp63-_port_set_trigger_time
.Lfunc_end20:
	.cfi_endproc

	.globl	_port_clear_trigger_time
	.align	4
	.type	_port_clear_trigger_time,@function
	.cc_top _port_clear_trigger_time.function,_port_clear_trigger_time
_port_clear_trigger_time:
.Lfunc_begin21:
	.loc	5 138 0
	.cfi_startproc
	.issue_mode dual
	{
		nop
		dualentsp 0
	}
	.loc	5 139 3 prologue_end
.Ltmp64:
	#APP
	clrpt res[r0]
	#NO_APP
	{
		nop
		retsp 0
	}
	.loc	5 140 1
	# RETURN_REG_HOLDER
.Ltmp65:
	.cc_bottom _port_clear_trigger_time.function
	.set	_port_clear_trigger_time.nstackwords,0
	.globl	_port_clear_trigger_time.nstackwords
	.set	_port_clear_trigger_time.maxcores,1
	.globl	_port_clear_trigger_time.maxcores
	.set	_port_clear_trigger_time.maxtimers,0
	.globl	_port_clear_trigger_time.maxtimers
	.set	_port_clear_trigger_time.maxchanends,0
	.globl	_port_clear_trigger_time.maxchanends
.Ltmp66:
	.size	_port_clear_trigger_time, .Ltmp66-_port_clear_trigger_time
.Lfunc_end21:
	.cfi_endproc

	.globl	_port_set_trigger_in_equal
	.align	4
	.type	_port_set_trigger_in_equal,@function
	.cc_top _port_set_trigger_in_equal.function,_port_set_trigger_in_equal
_port_set_trigger_in_equal:
.Lfunc_begin22:
	.loc	5 143 0
	.cfi_startproc
	.issue_mode dual
	{
		nop
		dualentsp 0
	}
	.loc	5 144 3 prologue_end
.Ltmp67:
	#APP
	setc res[r0], 0x11
	#NO_APP
	.loc	5 145 3
	#APP
	setd res[r0], r1
	#NO_APP
	{
		nop
		retsp 0
	}
	.loc	5 146 1
	# RETURN_REG_HOLDER
.Ltmp68:
	.cc_bottom _port_set_trigger_in_equal.function
	.set	_port_set_trigger_in_equal.nstackwords,0
	.globl	_port_set_trigger_in_equal.nstackwords
	.set	_port_set_trigger_in_equal.maxcores,1
	.globl	_port_set_trigger_in_equal.maxcores
	.set	_port_set_trigger_in_equal.maxtimers,0
	.globl	_port_set_trigger_in_equal.maxtimers
	.set	_port_set_trigger_in_equal.maxchanends,0
	.globl	_port_set_trigger_in_equal.maxchanends
.Ltmp69:
	.size	_port_set_trigger_in_equal, .Ltmp69-_port_set_trigger_in_equal
.Lfunc_end22:
	.cfi_endproc

	.globl	_port_set_trigger_in_not_equal
	.align	4
	.type	_port_set_trigger_in_not_equal,@function
	.cc_top _port_set_trigger_in_not_equal.function,_port_set_trigger_in_not_equal
_port_set_trigger_in_not_equal:
.Lfunc_begin23:
	.loc	5 149 0
	.cfi_startproc
	.issue_mode dual
	{
		nop
		dualentsp 0
	}
	.loc	5 150 3 prologue_end
.Ltmp70:
	#APP
	setc res[r0], 0x19
	#NO_APP
	.loc	5 151 3
	#APP
	setd res[r0], r1
	#NO_APP
	{
		nop
		retsp 0
	}
	.loc	5 152 1
	# RETURN_REG_HOLDER
.Ltmp71:
	.cc_bottom _port_set_trigger_in_not_equal.function
	.set	_port_set_trigger_in_not_equal.nstackwords,0
	.globl	_port_set_trigger_in_not_equal.nstackwords
	.set	_port_set_trigger_in_not_equal.maxcores,1
	.globl	_port_set_trigger_in_not_equal.maxcores
	.set	_port_set_trigger_in_not_equal.maxtimers,0
	.globl	_port_set_trigger_in_not_equal.maxtimers
	.set	_port_set_trigger_in_not_equal.maxchanends,0
	.globl	_port_set_trigger_in_not_equal.maxchanends
.Ltmp72:
	.size	_port_set_trigger_in_not_equal, .Ltmp72-_port_set_trigger_in_not_equal
.Lfunc_end23:
	.cfi_endproc

	.globl	_port_clear_trigger_in
	.align	4
	.type	_port_clear_trigger_in,@function
	.cc_top _port_clear_trigger_in.function,_port_clear_trigger_in
_port_clear_trigger_in:
.Lfunc_begin24:
	.loc	5 155 0
	.cfi_startproc
	.issue_mode dual
	{
		nop
		dualentsp 0
	}
	.loc	5 156 3 prologue_end
.Ltmp73:
	#APP
	setc res[r0], 0x1
	#NO_APP
	{
		nop
		retsp 0
	}
	.loc	5 157 1
	# RETURN_REG_HOLDER
.Ltmp74:
	.cc_bottom _port_clear_trigger_in.function
	.set	_port_clear_trigger_in.nstackwords,0
	.globl	_port_clear_trigger_in.nstackwords
	.set	_port_clear_trigger_in.maxcores,1
	.globl	_port_clear_trigger_in.maxcores
	.set	_port_clear_trigger_in.maxtimers,0
	.globl	_port_clear_trigger_in.maxtimers
	.set	_port_clear_trigger_in.maxchanends,0
	.globl	_port_clear_trigger_in.maxchanends
.Ltmp75:
	.size	_port_clear_trigger_in, .Ltmp75-_port_clear_trigger_in
.Lfunc_end24:
	.cfi_endproc

	.globl	_port_peek
	.align	4
	.type	_port_peek,@function
	.cc_top _port_peek.function,_port_peek
_port_peek:
.Lfunc_begin25:
	.loc	5 160 0
	.cfi_startproc
	.issue_mode dual
	{
		nop
		dualentsp 0
	}
	.loc	5 162 3 prologue_end
.Ltmp76:
	#APP
	peek r0, res[r0]
	#NO_APP
.Ltmp77:
	{
		nop
		retsp 0
	}
	.loc	5 163 3
	# RETURN_REG_HOLDER
.Ltmp78:
	.cc_bottom _port_peek.function
	.set	_port_peek.nstackwords,0
	.globl	_port_peek.nstackwords
	.set	_port_peek.maxcores,1
	.globl	_port_peek.maxcores
	.set	_port_peek.maxtimers,0
	.globl	_port_peek.maxtimers
	.set	_port_peek.maxchanends,0
	.globl	_port_peek.maxchanends
.Ltmp79:
	.size	_port_peek, .Ltmp79-_port_peek
.Lfunc_end25:
	.cfi_endproc

	.globl	_port_out
	.align	4
	.type	_port_out,@function
	.cc_top _port_out.function,_port_out
_port_out:
.Lfunc_begin26:
	.loc	5 167 0
	.cfi_startproc
	.issue_mode dual
	{
		nop
		dualentsp 0
	}
	.loc	5 168 3 prologue_end
.Ltmp80:
	#APP
	out res[r0], r1
	#NO_APP
	{
		nop
		retsp 0
	}
	.loc	5 169 1
	# RETURN_REG_HOLDER
.Ltmp81:
	.cc_bottom _port_out.function
	.set	_port_out.nstackwords,0
	.globl	_port_out.nstackwords
	.set	_port_out.maxcores,1
	.globl	_port_out.maxcores
	.set	_port_out.maxtimers,0
	.globl	_port_out.maxtimers
	.set	_port_out.maxchanends,0
	.globl	_port_out.maxchanends
.Ltmp82:
	.size	_port_out, .Ltmp82-_port_out
.Lfunc_end26:
	.cfi_endproc

	.globl	_port_in
	.align	4
	.type	_port_in,@function
	.cc_top _port_in.function,_port_in
_port_in:
.Lfunc_begin27:
	.loc	5 172 0
	.cfi_startproc
	.issue_mode dual
	{
		nop
		dualentsp 0
	}
	.loc	5 174 3 prologue_end
.Ltmp83:
	#APP
	in r0, res[r0]
	#NO_APP
.Ltmp84:
	{
		nop
		retsp 0
	}
	.loc	5 175 3
	# RETURN_REG_HOLDER
.Ltmp85:
	.cc_bottom _port_in.function
	.set	_port_in.nstackwords,0
	.globl	_port_in.nstackwords
	.set	_port_in.maxcores,1
	.globl	_port_in.maxcores
	.set	_port_in.maxtimers,0
	.globl	_port_in.maxtimers
	.set	_port_in.maxchanends,0
	.globl	_port_in.maxchanends
.Ltmp86:
	.size	_port_in, .Ltmp86-_port_in
.Lfunc_end27:
	.cfi_endproc

	.globl	_port_out_shift_right
	.align	4
	.type	_port_out_shift_right,@function
	.cc_top _port_out_shift_right.function,_port_out_shift_right
_port_out_shift_right:
.Lfunc_begin28:
	.loc	5 179 0
	.cfi_startproc
	.issue_mode dual
	{
		nop
		dualentsp 0
	}
	{
		nop
		ldw r2, r1[0]
	}
	.loc	5 181 3 prologue_end
.Ltmp87:
	#APP
	outshr res[r0], r2
	#NO_APP
	{
		nop
		stw r2, r1[0]
	}
	{
		nop
		retsp 0
	}
	.loc	5 182 1
	# RETURN_REG_HOLDER
.Ltmp88:
	.cc_bottom _port_out_shift_right.function
	.set	_port_out_shift_right.nstackwords,0
	.globl	_port_out_shift_right.nstackwords
	.set	_port_out_shift_right.maxcores,1
	.globl	_port_out_shift_right.maxcores
	.set	_port_out_shift_right.maxtimers,0
	.globl	_port_out_shift_right.maxtimers
	.set	_port_out_shift_right.maxchanends,0
	.globl	_port_out_shift_right.maxchanends
.Ltmp89:
	.size	_port_out_shift_right, .Ltmp89-_port_out_shift_right
.Lfunc_end28:
	.cfi_endproc

	.globl	_port_in_shift_right
	.align	4
	.type	_port_in_shift_right,@function
	.cc_top _port_in_shift_right.function,_port_in_shift_right
_port_in_shift_right:
.Lfunc_begin29:
	.loc	5 185 0
	.cfi_startproc
	.issue_mode dual
	{
		nop
		dualentsp 0
	}
	{
		nop
		ldw r2, r1[0]
	}
	.loc	5 187 3 prologue_end
.Ltmp90:
	#APP
	inshr r2, res[r0]
	#NO_APP
	{
		nop
		stw r2, r1[0]
	}
	{
		nop
		retsp 0
	}
	.loc	5 188 1
	# RETURN_REG_HOLDER
.Ltmp91:
	.cc_bottom _port_in_shift_right.function
	.set	_port_in_shift_right.nstackwords,0
	.globl	_port_in_shift_right.nstackwords
	.set	_port_in_shift_right.maxcores,1
	.globl	_port_in_shift_right.maxcores
	.set	_port_in_shift_right.maxtimers,0
	.globl	_port_in_shift_right.maxtimers
	.set	_port_in_shift_right.maxchanends,0
	.globl	_port_in_shift_right.maxchanends
.Ltmp92:
	.size	_port_in_shift_right, .Ltmp92-_port_in_shift_right
.Lfunc_end29:
	.cfi_endproc

	.globl	_port_endin
	.align	4
	.type	_port_endin,@function
	.cc_top _port_endin.function,_port_endin
_port_endin:
.Lfunc_begin30:
	.loc	5 191 0
	.cfi_startproc
	.issue_mode dual
	{
		nop
		dualentsp 0
	}
	.loc	5 193 3 prologue_end
.Ltmp93:
	#APP
	endin r0, res[r0]
	#NO_APP
.Ltmp94:
	{
		nop
		retsp 0
	}
	.loc	5 194 3
	# RETURN_REG_HOLDER
.Ltmp95:
	.cc_bottom _port_endin.function
	.set	_port_endin.nstackwords,0
	.globl	_port_endin.nstackwords
	.set	_port_endin.maxcores,1
	.globl	_port_endin.maxcores
	.set	_port_endin.maxtimers,0
	.globl	_port_endin.maxtimers
	.set	_port_endin.maxchanends,0
	.globl	_port_endin.maxchanends
.Ltmp96:
	.size	_port_endin, .Ltmp96-_port_endin
.Lfunc_end30:
	.cfi_endproc

	.globl	_port_clear_buffer
	.align	4
	.type	_port_clear_buffer,@function
	.cc_top _port_clear_buffer.function,_port_clear_buffer
_port_clear_buffer:
.Lfunc_begin31:
	.loc	5 198 0
	.cfi_startproc
	.issue_mode dual
	{
		nop
		dualentsp 0
	}
	.loc	5 199 3 prologue_end
.Ltmp97:
	#APP
	setc res[r0], 0x17
	#NO_APP
	{
		nop
		retsp 0
	}
	.loc	5 200 1
	# RETURN_REG_HOLDER
.Ltmp98:
	.cc_bottom _port_clear_buffer.function
	.set	_port_clear_buffer.nstackwords,0
	.globl	_port_clear_buffer.nstackwords
	.set	_port_clear_buffer.maxcores,1
	.globl	_port_clear_buffer.maxcores
	.set	_port_clear_buffer.maxtimers,0
	.globl	_port_clear_buffer.maxtimers
	.set	_port_clear_buffer.maxchanends,0
	.globl	_port_clear_buffer.maxchanends
.Ltmp99:
	.size	_port_clear_buffer, .Ltmp99-_port_clear_buffer
.Lfunc_end31:
	.cfi_endproc

	.globl	port_alloc
	.align	4
	.type	port_alloc,@function
	.cc_top port_alloc.function,port_alloc
port_alloc:
.Lfunc_begin32:
	.loc	2 78 0
	.cfi_startproc
	.issue_mode dual
	{
		nop
		dualentsp 0
	}
.Ltmp100:
	.loc	5 35 3 prologue_end
	#APP
	setc res[r1], 0x8
	#NO_APP
.Ltmp101:
	.loc	2 79 3
	{
		ldc r0, 0
		stw r1, r0[0]
	}
.Ltmp102:
	{
		nop
		retsp 0
	}
.Ltmp103:
	.loc	2 79 3
	# RETURN_REG_HOLDER
.Ltmp104:
	.cc_bottom port_alloc.function
	.set	port_alloc.nstackwords,0
	.globl	port_alloc.nstackwords
	.set	port_alloc.maxcores,1
	.globl	port_alloc.maxcores
	.set	port_alloc.maxtimers,0
	.globl	port_alloc.maxtimers
	.set	port_alloc.maxchanends,0
	.globl	port_alloc.maxchanends
.Ltmp105:
	.size	port_alloc, .Ltmp105-port_alloc
.Lfunc_end32:
	.file	6 "C:\\Program Files (x86)\\XMOS\\xTIMEcomposer\\Community_14.4.1\\target/include\\xccompat.h"
	.cfi_endproc

	.globl	port_reset
	.align	4
	.type	port_reset,@function
	.cc_top port_reset.function,port_reset
port_reset:
.Lfunc_begin33:
	.loc	2 95 0
	.cfi_startproc
	.issue_mode dual
	{
		nop
		dualentsp 0
	}
.Ltmp106:
	.loc	5 41 3 prologue_end
	#APP
	setc res[r0], 0x8
	#NO_APP
	{
		ldc r0, 0
		retsp 0
	}
.Ltmp107:
	.loc	2 96 3
	# RETURN_REG_HOLDER
.Ltmp108:
	.cc_bottom port_reset.function
	.set	port_reset.nstackwords,0
	.globl	port_reset.nstackwords
	.set	port_reset.maxcores,1
	.globl	port_reset.maxcores
	.set	port_reset.maxtimers,0
	.globl	port_reset.maxtimers
	.set	port_reset.maxchanends,0
	.globl	port_reset.maxchanends
.Ltmp109:
	.size	port_reset, .Ltmp109-port_reset
.Lfunc_end33:
	.cfi_endproc

	.globl	port_alloc_buffered
	.align	4
	.type	port_alloc_buffered,@function
	.cc_top port_alloc_buffered.function,port_alloc_buffered
port_alloc_buffered:
.Lfunc_begin34:
	.loc	2 118 0
	.cfi_startproc
	.issue_mode dual
	{
		nop
		dualentsp 0
	}
.Ltmp110:
	.loc	5 35 3 prologue_end
	#APP
	setc res[r1], 0x8
	#NO_APP
	{
		nop
		stw r1, r0[0]
	}
.Ltmp111:
	.loc	5 51 3
	#APP
	setc res[r1], 0x200f
	#NO_APP
.Ltmp112:
	.loc	5 30 3
	#APP
	settw res[r1], r2
	#NO_APP
	{
		ldc r0, 0
		retsp 0
	}
.Ltmp113:
	.loc	2 119 3
	# RETURN_REG_HOLDER
.Ltmp114:
	.cc_bottom port_alloc_buffered.function
	.set	port_alloc_buffered.nstackwords,0
	.globl	port_alloc_buffered.nstackwords
	.set	port_alloc_buffered.maxcores,1
	.globl	port_alloc_buffered.maxcores
	.set	port_alloc_buffered.maxtimers,0
	.globl	port_alloc_buffered.maxtimers
	.set	port_alloc_buffered.maxchanends,0
	.globl	port_alloc_buffered.maxchanends
.Ltmp115:
	.size	port_alloc_buffered, .Ltmp115-port_alloc_buffered
.Lfunc_end34:
	.file	7 "C:\\Program Files (x86)\\XMOS\\xTIMEcomposer\\Community_14.4.1\\target/include/clang\\stddef.h"
	.cfi_endproc

	.globl	port_free
	.align	4
	.type	port_free,@function
	.cc_top port_free.function,port_free
port_free:
.Lfunc_begin35:
	.loc	2 137 0
	.cfi_startproc
	.issue_mode dual
	{
		nop
		dualentsp 0
	}
	{
		nop
		ldw r1, r0[0]
	}
.Ltmp116:
	.loc	5 46 3 prologue_end
	#APP
	setc res[r1], 0x0
	#NO_APP
	{
		ldc r1, 0
		nop
	}
.Ltmp117:
	.loc	2 138 3
	{
		mov r0, r1
		stw r1, r0[0]
	}
.Ltmp118:
	{
		nop
		retsp 0
	}
.Ltmp119:
	.loc	2 138 3
	# RETURN_REG_HOLDER
.Ltmp120:
	.cc_bottom port_free.function
	.set	port_free.nstackwords,0
	.globl	port_free.nstackwords
	.set	port_free.maxcores,1
	.globl	port_free.maxcores
	.set	port_free.maxtimers,0
	.globl	port_free.maxtimers
	.set	port_free.maxchanends,0
	.globl	port_free.maxchanends
.Ltmp121:
	.size	port_free, .Ltmp121-port_free
.Lfunc_end35:
	.cfi_endproc

	.globl	port_set_transfer_width
	.align	4
	.type	port_set_transfer_width,@function
	.cc_top port_set_transfer_width.function,port_set_transfer_width
port_set_transfer_width:
.Lfunc_begin36:
	.loc	2 164 0
	.cfi_startproc
	.issue_mode dual
	{
		nop
		dualentsp 0
	}
.Ltmp122:
	.loc	5 30 3 prologue_end
	#APP
	settw res[r0], r1
	#NO_APP
	{
		ldc r0, 0
		retsp 0
	}
.Ltmp123:
	.loc	2 165 3
	# RETURN_REG_HOLDER
.Ltmp124:
	.cc_bottom port_set_transfer_width.function
	.set	port_set_transfer_width.nstackwords,0
	.globl	port_set_transfer_width.nstackwords
	.set	port_set_transfer_width.maxcores,1
	.globl	port_set_transfer_width.maxcores
	.set	port_set_transfer_width.maxtimers,0
	.globl	port_set_transfer_width.maxtimers
	.set	port_set_transfer_width.maxchanends,0
	.globl	port_set_transfer_width.maxchanends
.Ltmp125:
	.size	port_set_transfer_width, .Ltmp125-port_set_transfer_width
.Lfunc_end36:
	.cfi_endproc

	.globl	port_set_buffered
	.align	4
	.type	port_set_buffered,@function
	.cc_top port_set_buffered.function,port_set_buffered
port_set_buffered:
.Lfunc_begin37:
	.loc	2 181 0
	.cfi_startproc
	.issue_mode dual
	{
		nop
		dualentsp 0
	}
.Ltmp126:
	.loc	5 51 3 prologue_end
	#APP
	setc res[r0], 0x200f
	#NO_APP
	{
		ldc r0, 0
		retsp 0
	}
.Ltmp127:
	.loc	2 182 3
	# RETURN_REG_HOLDER
.Ltmp128:
	.cc_bottom port_set_buffered.function
	.set	port_set_buffered.nstackwords,0
	.globl	port_set_buffered.nstackwords
	.set	port_set_buffered.maxcores,1
	.globl	port_set_buffered.maxcores
	.set	port_set_buffered.maxtimers,0
	.globl	port_set_buffered.maxtimers
	.set	port_set_buffered.maxchanends,0
	.globl	port_set_buffered.maxchanends
.Ltmp129:
	.size	port_set_buffered, .Ltmp129-port_set_buffered
.Lfunc_end37:
	.cfi_endproc

	.globl	port_set_unbuffered
	.align	4
	.type	port_set_unbuffered,@function
	.cc_top port_set_unbuffered.function,port_set_unbuffered
port_set_unbuffered:
.Lfunc_begin38:
	.loc	2 199 0
	.cfi_startproc
	.issue_mode dual
	{
		nop
		dualentsp 0
	}
.Ltmp130:
	.loc	5 56 3 prologue_end
	#APP
	setc res[r0], 0x2007
	#NO_APP
	{
		ldc r0, 0
		retsp 0
	}
.Ltmp131:
	.loc	2 200 3
	# RETURN_REG_HOLDER
.Ltmp132:
	.cc_bottom port_set_unbuffered.function
	.set	port_set_unbuffered.nstackwords,0
	.globl	port_set_unbuffered.nstackwords
	.set	port_set_unbuffered.maxcores,1
	.globl	port_set_unbuffered.maxcores
	.set	port_set_unbuffered.maxtimers,0
	.globl	port_set_unbuffered.maxtimers
	.set	port_set_unbuffered.maxchanends,0
	.globl	port_set_unbuffered.maxchanends
.Ltmp133:
	.size	port_set_unbuffered, .Ltmp133-port_set_unbuffered
.Lfunc_end38:
	.cfi_endproc

	.globl	port_set_clock
	.align	4
	.type	port_set_clock,@function
	.cc_top port_set_clock.function,port_set_clock
port_set_clock:
.Lfunc_begin39:
	.loc	2 218 0
	.cfi_startproc
	.issue_mode dual
	{
		nop
		dualentsp 0
	}
.Ltmp134:
	.loc	5 61 3 prologue_end
	#APP
	setclk res[r0], r1
	#NO_APP
	{
		ldc r0, 0
		retsp 0
	}
.Ltmp135:
	.loc	2 219 3
	# RETURN_REG_HOLDER
.Ltmp136:
	.cc_bottom port_set_clock.function
	.set	port_set_clock.nstackwords,0
	.globl	port_set_clock.nstackwords
	.set	port_set_clock.maxcores,1
	.globl	port_set_clock.maxcores
	.set	port_set_clock.maxtimers,0
	.globl	port_set_clock.maxtimers
	.set	port_set_clock.maxchanends,0
	.globl	port_set_clock.maxchanends
.Ltmp137:
	.size	port_set_clock, .Ltmp137-port_set_clock
.Lfunc_end39:
	.cfi_endproc

	.globl	port_set_inout_data
	.align	4
	.type	port_set_inout_data,@function
	.cc_top port_set_inout_data.function,port_set_inout_data
port_set_inout_data:
.Lfunc_begin40:
	.loc	2 232 0
	.cfi_startproc
	.issue_mode dual
	{
		nop
		dualentsp 0
	}
.Ltmp138:
	.loc	5 66 3 prologue_end
	#APP
	setc res[r0], 0x5007
	#NO_APP
	{
		ldc r0, 0
		retsp 0
	}
.Ltmp139:
	.loc	2 233 3
	# RETURN_REG_HOLDER
.Ltmp140:
	.cc_bottom port_set_inout_data.function
	.set	port_set_inout_data.nstackwords,0
	.globl	port_set_inout_data.nstackwords
	.set	port_set_inout_data.maxcores,1
	.globl	port_set_inout_data.maxcores
	.set	port_set_inout_data.maxtimers,0
	.globl	port_set_inout_data.maxtimers
	.set	port_set_inout_data.maxchanends,0
	.globl	port_set_inout_data.maxchanends
.Ltmp141:
	.size	port_set_inout_data, .Ltmp141-port_set_inout_data
.Lfunc_end40:
	.cfi_endproc

	.globl	port_set_out_clock
	.align	4
	.type	port_set_out_clock,@function
	.cc_top port_set_out_clock.function,port_set_out_clock
port_set_out_clock:
.Lfunc_begin41:
	.loc	2 250 0
	.cfi_startproc
	.issue_mode dual
	{
		nop
		dualentsp 0
	}
.Ltmp142:
	.loc	5 71 3 prologue_end
	#APP
	setc res[r0], 0x500f
	#NO_APP
	{
		ldc r0, 0
		retsp 0
	}
.Ltmp143:
	.loc	2 251 3
	# RETURN_REG_HOLDER
.Ltmp144:
	.cc_bottom port_set_out_clock.function
	.set	port_set_out_clock.nstackwords,0
	.globl	port_set_out_clock.nstackwords
	.set	port_set_out_clock.maxcores,1
	.globl	port_set_out_clock.maxcores
	.set	port_set_out_clock.maxtimers,0
	.globl	port_set_out_clock.maxtimers
	.set	port_set_out_clock.maxchanends,0
	.globl	port_set_out_clock.maxchanends
.Ltmp145:
	.size	port_set_out_clock, .Ltmp145-port_set_out_clock
.Lfunc_end41:
	.cfi_endproc

	.globl	port_set_out_ready
	.align	4
	.type	port_set_out_ready,@function
	.cc_top port_set_out_ready.function,port_set_out_ready
port_set_out_ready:
.Lfunc_begin42:
	.loc	2 270 0
	.cfi_startproc
	.issue_mode dual
	{
		nop
		dualentsp 0
	}
.Ltmp146:
	.loc	5 76 3 prologue_end
	#APP
	setc res[r0], 0x5017
	#NO_APP
	.loc	5 77 3
	#APP
	setrdy res[r0], r1
	#NO_APP
	{
		ldc r0, 0
		retsp 0
	}
.Ltmp147:
	.loc	2 271 3
	# RETURN_REG_HOLDER
.Ltmp148:
	.cc_bottom port_set_out_ready.function
	.set	port_set_out_ready.nstackwords,0
	.globl	port_set_out_ready.nstackwords
	.set	port_set_out_ready.maxcores,1
	.globl	port_set_out_ready.maxcores
	.set	port_set_out_ready.maxtimers,0
	.globl	port_set_out_ready.maxtimers
	.set	port_set_out_ready.maxchanends,0
	.globl	port_set_out_ready.maxchanends
.Ltmp149:
	.size	port_set_out_ready, .Ltmp149-port_set_out_ready
.Lfunc_end42:
	.cfi_endproc

	.globl	port_set_invert
	.align	4
	.type	port_set_invert,@function
	.cc_top port_set_invert.function,port_set_invert
port_set_invert:
.Lfunc_begin43:
	.loc	2 290 0
	.cfi_startproc
	.issue_mode dual
	{
		nop
		dualentsp 0
	}
.Ltmp150:
	.loc	5 82 3 prologue_end
	#APP
	setc res[r0], 0x600f
	#NO_APP
	{
		ldc r0, 0
		retsp 0
	}
.Ltmp151:
	.loc	2 291 3
	# RETURN_REG_HOLDER
.Ltmp152:
	.cc_bottom port_set_invert.function
	.set	port_set_invert.nstackwords,0
	.globl	port_set_invert.nstackwords
	.set	port_set_invert.maxcores,1
	.globl	port_set_invert.maxcores
	.set	port_set_invert.maxtimers,0
	.globl	port_set_invert.maxtimers
	.set	port_set_invert.maxchanends,0
	.globl	port_set_invert.maxchanends
.Ltmp153:
	.size	port_set_invert, .Ltmp153-port_set_invert
.Lfunc_end43:
	.cfi_endproc

	.globl	port_set_no_invert
	.align	4
	.type	port_set_no_invert,@function
	.cc_top port_set_no_invert.function,port_set_no_invert
port_set_no_invert:
.Lfunc_begin44:
	.loc	2 306 0
	.cfi_startproc
	.issue_mode dual
	{
		nop
		dualentsp 0
	}
.Ltmp154:
	.loc	5 87 3 prologue_end
	#APP
	setc res[r0], 0x6007
	#NO_APP
	{
		ldc r0, 0
		retsp 0
	}
.Ltmp155:
	.loc	2 307 3
	# RETURN_REG_HOLDER
.Ltmp156:
	.cc_bottom port_set_no_invert.function
	.set	port_set_no_invert.nstackwords,0
	.globl	port_set_no_invert.nstackwords
	.set	port_set_no_invert.maxcores,1
	.globl	port_set_no_invert.maxcores
	.set	port_set_no_invert.maxtimers,0
	.globl	port_set_no_invert.maxtimers
	.set	port_set_no_invert.maxchanends,0
	.globl	port_set_no_invert.maxchanends
.Ltmp157:
	.size	port_set_no_invert, .Ltmp157-port_set_no_invert
.Lfunc_end44:
	.cfi_endproc

	.globl	port_set_sample_falling_edge
	.align	4
	.type	port_set_sample_falling_edge,@function
	.cc_top port_set_sample_falling_edge.function,port_set_sample_falling_edge
port_set_sample_falling_edge:
.Lfunc_begin45:
	.loc	2 324 0
	.cfi_startproc
	.issue_mode dual
	{
		nop
		dualentsp 0
	}
.Ltmp158:
	.loc	5 92 3 prologue_end
	#APP
	setc res[r0], 0x400f
	#NO_APP
	{
		ldc r0, 0
		retsp 0
	}
.Ltmp159:
	.loc	2 325 3
	# RETURN_REG_HOLDER
.Ltmp160:
	.cc_bottom port_set_sample_falling_edge.function
	.set	port_set_sample_falling_edge.nstackwords,0
	.globl	port_set_sample_falling_edge.nstackwords
	.set	port_set_sample_falling_edge.maxcores,1
	.globl	port_set_sample_falling_edge.maxcores
	.set	port_set_sample_falling_edge.maxtimers,0
	.globl	port_set_sample_falling_edge.maxtimers
	.set	port_set_sample_falling_edge.maxchanends,0
	.globl	port_set_sample_falling_edge.maxchanends
.Ltmp161:
	.size	port_set_sample_falling_edge, .Ltmp161-port_set_sample_falling_edge
.Lfunc_end45:
	.cfi_endproc

	.globl	port_set_sample_rising_edge
	.align	4
	.type	port_set_sample_rising_edge,@function
	.cc_top port_set_sample_rising_edge.function,port_set_sample_rising_edge
port_set_sample_rising_edge:
.Lfunc_begin46:
	.loc	2 340 0
	.cfi_startproc
	.issue_mode dual
	{
		nop
		dualentsp 0
	}
.Ltmp162:
	.loc	5 97 3 prologue_end
	#APP
	setc res[r0], 0x4007
	#NO_APP
	{
		ldc r0, 0
		retsp 0
	}
.Ltmp163:
	.loc	2 341 3
	# RETURN_REG_HOLDER
.Ltmp164:
	.cc_bottom port_set_sample_rising_edge.function
	.set	port_set_sample_rising_edge.nstackwords,0
	.globl	port_set_sample_rising_edge.nstackwords
	.set	port_set_sample_rising_edge.maxcores,1
	.globl	port_set_sample_rising_edge.maxcores
	.set	port_set_sample_rising_edge.maxtimers,0
	.globl	port_set_sample_rising_edge.maxtimers
	.set	port_set_sample_rising_edge.maxchanends,0
	.globl	port_set_sample_rising_edge.maxchanends
.Ltmp165:
	.size	port_set_sample_rising_edge, .Ltmp165-port_set_sample_rising_edge
.Lfunc_end46:
	.cfi_endproc

	.globl	port_set_master
	.align	4
	.type	port_set_master,@function
	.cc_top port_set_master.function,port_set_master
port_set_master:
.Lfunc_begin47:
	.loc	2 360 0
	.cfi_startproc
	.issue_mode dual
	{
		nop
		dualentsp 0
	}
.Ltmp166:
	.loc	5 102 3 prologue_end
	#APP
	setc res[r0], 0x1007
	#NO_APP
	{
		ldc r0, 0
		retsp 0
	}
.Ltmp167:
	.loc	2 361 3
	# RETURN_REG_HOLDER
.Ltmp168:
	.cc_bottom port_set_master.function
	.set	port_set_master.nstackwords,0
	.globl	port_set_master.nstackwords
	.set	port_set_master.maxcores,1
	.globl	port_set_master.maxcores
	.set	port_set_master.maxtimers,0
	.globl	port_set_master.maxtimers
	.set	port_set_master.maxchanends,0
	.globl	port_set_master.maxchanends
.Ltmp169:
	.size	port_set_master, .Ltmp169-port_set_master
.Lfunc_end47:
	.cfi_endproc

	.globl	port_set_slave
	.align	4
	.type	port_set_slave,@function
	.cc_top port_set_slave.function,port_set_slave
port_set_slave:
.Lfunc_begin48:
	.loc	2 383 0
	.cfi_startproc
	.issue_mode dual
	{
		nop
		dualentsp 0
	}
.Ltmp170:
	.loc	5 107 3 prologue_end
	#APP
	setc res[r0], 0x100f
	#NO_APP
	{
		ldc r0, 0
		retsp 0
	}
.Ltmp171:
	.loc	2 384 3
	# RETURN_REG_HOLDER
.Ltmp172:
	.cc_bottom port_set_slave.function
	.set	port_set_slave.nstackwords,0
	.globl	port_set_slave.nstackwords
	.set	port_set_slave.maxcores,1
	.globl	port_set_slave.maxcores
	.set	port_set_slave.maxtimers,0
	.globl	port_set_slave.maxtimers
	.set	port_set_slave.maxchanends,0
	.globl	port_set_slave.maxchanends
.Ltmp173:
	.size	port_set_slave, .Ltmp173-port_set_slave
.Lfunc_end48:
	.cfi_endproc

	.globl	port_set_no_ready
	.align	4
	.type	port_set_no_ready,@function
	.cc_top port_set_no_ready.function,port_set_no_ready
port_set_no_ready:
.Lfunc_begin49:
	.loc	2 407 0
	.cfi_startproc
	.issue_mode dual
	{
		nop
		dualentsp 0
	}
.Ltmp174:
	.loc	5 112 3 prologue_end
	#APP
	setc res[r0], 0x3007
	#NO_APP
	{
		ldc r0, 0
		retsp 0
	}
.Ltmp175:
	.loc	2 408 3
	# RETURN_REG_HOLDER
.Ltmp176:
	.cc_bottom port_set_no_ready.function
	.set	port_set_no_ready.nstackwords,0
	.globl	port_set_no_ready.nstackwords
	.set	port_set_no_ready.maxcores,1
	.globl	port_set_no_ready.maxcores
	.set	port_set_no_ready.maxtimers,0
	.globl	port_set_no_ready.maxtimers
	.set	port_set_no_ready.maxchanends,0
	.globl	port_set_no_ready.maxchanends
.Ltmp177:
	.size	port_set_no_ready, .Ltmp177-port_set_no_ready
.Lfunc_end49:
	.cfi_endproc

	.globl	port_set_ready_strobed
	.align	4
	.type	port_set_ready_strobed,@function
	.cc_top port_set_ready_strobed.function,port_set_ready_strobed
port_set_ready_strobed:
.Lfunc_begin50:
	.loc	2 431 0
	.cfi_startproc
	.issue_mode dual
	{
		nop
		dualentsp 0
	}
.Ltmp178:
	.loc	5 117 3 prologue_end
	#APP
	setc res[r0], 0x300f
	#NO_APP
	{
		ldc r0, 0
		retsp 0
	}
.Ltmp179:
	.loc	2 432 3
	# RETURN_REG_HOLDER
.Ltmp180:
	.cc_bottom port_set_ready_strobed.function
	.set	port_set_ready_strobed.nstackwords,0
	.globl	port_set_ready_strobed.nstackwords
	.set	port_set_ready_strobed.maxcores,1
	.globl	port_set_ready_strobed.maxcores
	.set	port_set_ready_strobed.maxtimers,0
	.globl	port_set_ready_strobed.maxtimers
	.set	port_set_ready_strobed.maxchanends,0
	.globl	port_set_ready_strobed.maxchanends
.Ltmp181:
	.size	port_set_ready_strobed, .Ltmp181-port_set_ready_strobed
.Lfunc_end50:
	.cfi_endproc

	.globl	port_set_ready_handshake
	.align	4
	.type	port_set_ready_handshake,@function
	.cc_top port_set_ready_handshake.function,port_set_ready_handshake
port_set_ready_handshake:
.Lfunc_begin51:
	.loc	2 454 0
	.cfi_startproc
	.issue_mode dual
	{
		nop
		dualentsp 0
	}
.Ltmp182:
	.loc	5 122 3 prologue_end
	#APP
	setc res[r0], 0x3017
	#NO_APP
	{
		ldc r0, 0
		retsp 0
	}
.Ltmp183:
	.loc	2 455 3
	# RETURN_REG_HOLDER
.Ltmp184:
	.cc_bottom port_set_ready_handshake.function
	.set	port_set_ready_handshake.nstackwords,0
	.globl	port_set_ready_handshake.nstackwords
	.set	port_set_ready_handshake.maxcores,1
	.globl	port_set_ready_handshake.maxcores
	.set	port_set_ready_handshake.maxtimers,0
	.globl	port_set_ready_handshake.maxtimers
	.set	port_set_ready_handshake.maxchanends,0
	.globl	port_set_ready_handshake.maxchanends
.Ltmp185:
	.size	port_set_ready_handshake, .Ltmp185-port_set_ready_handshake
.Lfunc_end51:
	.cfi_endproc

	.globl	port_get_trigger_time
	.align	4
	.type	port_get_trigger_time,@function
	.cc_top port_get_trigger_time.function,port_get_trigger_time
port_get_trigger_time:
.Lfunc_begin52:
	.loc	2 473 0
	.cfi_startproc
	.issue_mode dual
	{
		nop
		dualentsp 0
	}
.Ltmp186:
	.loc	5 128 3 prologue_end
	#APP
	getts r2, res[r0]
	#NO_APP
.Ltmp187:
	.loc	2 474 3
	{
		ldc r0, 0
		nop
	}
.Ltmp188:
	st16 r2, r1[r0]
	{
		nop
		retsp 0
	}
.Ltmp189:
	.loc	2 474 3
	# RETURN_REG_HOLDER
.Ltmp190:
	.cc_bottom port_get_trigger_time.function
	.set	port_get_trigger_time.nstackwords,0
	.globl	port_get_trigger_time.nstackwords
	.set	port_get_trigger_time.maxcores,1
	.globl	port_get_trigger_time.maxcores
	.set	port_get_trigger_time.maxtimers,0
	.globl	port_get_trigger_time.maxtimers
	.set	port_get_trigger_time.maxchanends,0
	.globl	port_get_trigger_time.maxchanends
.Ltmp191:
	.size	port_get_trigger_time, .Ltmp191-port_get_trigger_time
.Lfunc_end52:
	.cfi_endproc

	.globl	port_set_trigger_time
	.align	4
	.type	port_set_trigger_time,@function
	.cc_top port_set_trigger_time.function,port_set_trigger_time
port_set_trigger_time:
.Lfunc_begin53:
	.loc	2 494 0
	.cfi_startproc
	.issue_mode dual
	{
		nop
		dualentsp 0
	}
.Ltmp192:
	.loc	5 134 3 prologue_end
	#APP
	setpt res[r0], r1
	#NO_APP
	{
		ldc r0, 0
		retsp 0
	}
.Ltmp193:
	.loc	2 495 3
	# RETURN_REG_HOLDER
.Ltmp194:
	.cc_bottom port_set_trigger_time.function
	.set	port_set_trigger_time.nstackwords,0
	.globl	port_set_trigger_time.nstackwords
	.set	port_set_trigger_time.maxcores,1
	.globl	port_set_trigger_time.maxcores
	.set	port_set_trigger_time.maxtimers,0
	.globl	port_set_trigger_time.maxtimers
	.set	port_set_trigger_time.maxchanends,0
	.globl	port_set_trigger_time.maxchanends
.Ltmp195:
	.size	port_set_trigger_time, .Ltmp195-port_set_trigger_time
.Lfunc_end53:
	.cfi_endproc

	.globl	port_clear_trigger_time
	.align	4
	.type	port_clear_trigger_time,@function
	.cc_top port_clear_trigger_time.function,port_clear_trigger_time
port_clear_trigger_time:
.Lfunc_begin54:
	.loc	2 512 0
	.cfi_startproc
	.issue_mode dual
	{
		nop
		dualentsp 0
	}
.Ltmp196:
	.loc	5 139 3 prologue_end
	#APP
	clrpt res[r0]
	#NO_APP
	{
		ldc r0, 0
		retsp 0
	}
.Ltmp197:
	.loc	2 513 3
	# RETURN_REG_HOLDER
.Ltmp198:
	.cc_bottom port_clear_trigger_time.function
	.set	port_clear_trigger_time.nstackwords,0
	.globl	port_clear_trigger_time.nstackwords
	.set	port_clear_trigger_time.maxcores,1
	.globl	port_clear_trigger_time.maxcores
	.set	port_clear_trigger_time.maxtimers,0
	.globl	port_clear_trigger_time.maxtimers
	.set	port_clear_trigger_time.maxchanends,0
	.globl	port_clear_trigger_time.maxchanends
.Ltmp199:
	.size	port_clear_trigger_time, .Ltmp199-port_clear_trigger_time
.Lfunc_end54:
	.cfi_endproc

	.globl	port_set_trigger_in_equal
	.align	4
	.type	port_set_trigger_in_equal,@function
	.cc_top port_set_trigger_in_equal.function,port_set_trigger_in_equal
port_set_trigger_in_equal:
.Lfunc_begin55:
	.loc	2 532 0
	.cfi_startproc
	.issue_mode dual
	{
		nop
		dualentsp 0
	}
.Ltmp200:
	.loc	5 144 3 prologue_end
	#APP
	setc res[r0], 0x11
	#NO_APP
	.loc	5 145 3
	#APP
	setd res[r0], r1
	#NO_APP
	{
		ldc r0, 0
		retsp 0
	}
.Ltmp201:
	.loc	2 533 3
	# RETURN_REG_HOLDER
.Ltmp202:
	.cc_bottom port_set_trigger_in_equal.function
	.set	port_set_trigger_in_equal.nstackwords,0
	.globl	port_set_trigger_in_equal.nstackwords
	.set	port_set_trigger_in_equal.maxcores,1
	.globl	port_set_trigger_in_equal.maxcores
	.set	port_set_trigger_in_equal.maxtimers,0
	.globl	port_set_trigger_in_equal.maxtimers
	.set	port_set_trigger_in_equal.maxchanends,0
	.globl	port_set_trigger_in_equal.maxchanends
.Ltmp203:
	.size	port_set_trigger_in_equal, .Ltmp203-port_set_trigger_in_equal
.Lfunc_end55:
	.cfi_endproc

	.globl	port_set_trigger_in_not_equal
	.align	4
	.type	port_set_trigger_in_not_equal,@function
	.cc_top port_set_trigger_in_not_equal.function,port_set_trigger_in_not_equal
port_set_trigger_in_not_equal:
.Lfunc_begin56:
	.loc	2 552 0
	.cfi_startproc
	.issue_mode dual
	{
		nop
		dualentsp 0
	}
.Ltmp204:
	.loc	5 150 3 prologue_end
	#APP
	setc res[r0], 0x19
	#NO_APP
	.loc	5 151 3
	#APP
	setd res[r0], r1
	#NO_APP
	{
		ldc r0, 0
		retsp 0
	}
.Ltmp205:
	.loc	2 553 3
	# RETURN_REG_HOLDER
.Ltmp206:
	.cc_bottom port_set_trigger_in_not_equal.function
	.set	port_set_trigger_in_not_equal.nstackwords,0
	.globl	port_set_trigger_in_not_equal.nstackwords
	.set	port_set_trigger_in_not_equal.maxcores,1
	.globl	port_set_trigger_in_not_equal.maxcores
	.set	port_set_trigger_in_not_equal.maxtimers,0
	.globl	port_set_trigger_in_not_equal.maxtimers
	.set	port_set_trigger_in_not_equal.maxchanends,0
	.globl	port_set_trigger_in_not_equal.maxchanends
.Ltmp207:
	.size	port_set_trigger_in_not_equal, .Ltmp207-port_set_trigger_in_not_equal
.Lfunc_end56:
	.cfi_endproc

	.globl	port_clear_trigger_in
	.align	4
	.type	port_clear_trigger_in,@function
	.cc_top port_clear_trigger_in.function,port_clear_trigger_in
port_clear_trigger_in:
.Lfunc_begin57:
	.loc	2 570 0
	.cfi_startproc
	.issue_mode dual
	{
		nop
		dualentsp 0
	}
.Ltmp208:
	.loc	5 156 3 prologue_end
	#APP
	setc res[r0], 0x1
	#NO_APP
	{
		ldc r0, 0
		retsp 0
	}
.Ltmp209:
	.loc	2 571 3
	# RETURN_REG_HOLDER
.Ltmp210:
	.cc_bottom port_clear_trigger_in.function
	.set	port_clear_trigger_in.nstackwords,0
	.globl	port_clear_trigger_in.nstackwords
	.set	port_clear_trigger_in.maxcores,1
	.globl	port_clear_trigger_in.maxcores
	.set	port_clear_trigger_in.maxtimers,0
	.globl	port_clear_trigger_in.maxtimers
	.set	port_clear_trigger_in.maxchanends,0
	.globl	port_clear_trigger_in.maxchanends
.Ltmp211:
	.size	port_clear_trigger_in, .Ltmp211-port_clear_trigger_in
.Lfunc_end57:
	.cfi_endproc

	.globl	port_peek
	.align	4
	.type	port_peek,@function
	.cc_top port_peek.function,port_peek
port_peek:
.Lfunc_begin58:
	.loc	2 589 0
	.cfi_startproc
	.issue_mode dual
	{
		nop
		dualentsp 0
	}
.Ltmp212:
	.loc	5 162 3 prologue_end
	#APP
	peek r0, res[r0]
	#NO_APP
.Ltmp213:
	.loc	2 590 3
	{
		ldc r0, 0
		stw r0, r1[0]
	}
.Ltmp214:
	{
		nop
		retsp 0
	}
.Ltmp215:
	.loc	2 590 3
	# RETURN_REG_HOLDER
.Ltmp216:
	.cc_bottom port_peek.function
	.set	port_peek.nstackwords,0
	.globl	port_peek.nstackwords
	.set	port_peek.maxcores,1
	.globl	port_peek.maxcores
	.set	port_peek.maxtimers,0
	.globl	port_peek.maxtimers
	.set	port_peek.maxchanends,0
	.globl	port_peek.maxchanends
.Ltmp217:
	.size	port_peek, .Ltmp217-port_peek
.Lfunc_end58:
	.cfi_endproc

	.globl	port_out
	.align	4
	.type	port_out,@function
	.cc_top port_out.function,port_out
port_out:
.Lfunc_begin59:
	.loc	2 611 0
	.cfi_startproc
	.issue_mode dual
	{
		nop
		dualentsp 0
	}
.Ltmp218:
	.loc	5 168 3 prologue_end
	#APP
	out res[r0], r1
	#NO_APP
	{
		ldc r0, 0
		retsp 0
	}
.Ltmp219:
	.loc	2 612 3
	# RETURN_REG_HOLDER
.Ltmp220:
	.cc_bottom port_out.function
	.set	port_out.nstackwords,0
	.globl	port_out.nstackwords
	.set	port_out.maxcores,1
	.globl	port_out.maxcores
	.set	port_out.maxtimers,0
	.globl	port_out.maxtimers
	.set	port_out.maxchanends,0
	.globl	port_out.maxchanends
.Ltmp221:
	.size	port_out, .Ltmp221-port_out
.Lfunc_end59:
	.cfi_endproc

	.globl	port_in
	.align	4
	.type	port_in,@function
	.cc_top port_in.function,port_in
port_in:
.Lfunc_begin60:
	.loc	2 633 0
	.cfi_startproc
	.issue_mode dual
	{
		nop
		dualentsp 0
	}
.Ltmp222:
	.loc	5 174 3 prologue_end
	#APP
	in r0, res[r0]
	#NO_APP
.Ltmp223:
	.loc	2 634 3
	{
		ldc r0, 0
		stw r0, r1[0]
	}
.Ltmp224:
	{
		nop
		retsp 0
	}
.Ltmp225:
	.loc	2 634 3
	# RETURN_REG_HOLDER
.Ltmp226:
	.cc_bottom port_in.function
	.set	port_in.nstackwords,0
	.globl	port_in.nstackwords
	.set	port_in.maxcores,1
	.globl	port_in.maxcores
	.set	port_in.maxtimers,0
	.globl	port_in.maxtimers
	.set	port_in.maxchanends,0
	.globl	port_in.maxchanends
.Ltmp227:
	.size	port_in, .Ltmp227-port_in
.Lfunc_end60:
	.cfi_endproc

	.globl	port_out_shift_right
	.align	4
	.type	port_out_shift_right,@function
	.cc_top port_out_shift_right.function,port_out_shift_right
port_out_shift_right:
.Lfunc_begin61:
	.loc	2 658 0
	.cfi_startproc
	.issue_mode dual
	{
		nop
		dualentsp 0
	}
.Ltmp228:
	{
		nop
		ldw r2, r1[0]
	}
	.loc	5 181 3 prologue_end
.Ltmp229:
	#APP
	outshr res[r0], r2
	#NO_APP
	.loc	5 181 3
	{
		ldc r0, 0
		stw r2, r1[0]
	}
.Ltmp230:
	{
		nop
		retsp 0
	}
.Ltmp231:
	.loc	2 659 3
	# RETURN_REG_HOLDER
.Ltmp232:
	.cc_bottom port_out_shift_right.function
	.set	port_out_shift_right.nstackwords,0
	.globl	port_out_shift_right.nstackwords
	.set	port_out_shift_right.maxcores,1
	.globl	port_out_shift_right.maxcores
	.set	port_out_shift_right.maxtimers,0
	.globl	port_out_shift_right.maxtimers
	.set	port_out_shift_right.maxchanends,0
	.globl	port_out_shift_right.maxchanends
.Ltmp233:
	.size	port_out_shift_right, .Ltmp233-port_out_shift_right
.Lfunc_end61:
	.cfi_endproc

	.globl	port_in_shift_right
	.align	4
	.type	port_in_shift_right,@function
	.cc_top port_in_shift_right.function,port_in_shift_right
port_in_shift_right:
.Lfunc_begin62:
	.loc	2 681 0
	.cfi_startproc
	.issue_mode dual
	{
		nop
		dualentsp 0
	}
.Ltmp234:
	{
		nop
		ldw r2, r1[0]
	}
	.loc	5 187 3 prologue_end
.Ltmp235:
	#APP
	inshr r2, res[r0]
	#NO_APP
	.loc	5 187 3
	{
		ldc r0, 0
		stw r2, r1[0]
	}
.Ltmp236:
	{
		nop
		retsp 0
	}
.Ltmp237:
	.loc	2 682 3
	# RETURN_REG_HOLDER
.Ltmp238:
	.cc_bottom port_in_shift_right.function
	.set	port_in_shift_right.nstackwords,0
	.globl	port_in_shift_right.nstackwords
	.set	port_in_shift_right.maxcores,1
	.globl	port_in_shift_right.maxcores
	.set	port_in_shift_right.maxtimers,0
	.globl	port_in_shift_right.maxtimers
	.set	port_in_shift_right.maxchanends,0
	.globl	port_in_shift_right.maxchanends
.Ltmp239:
	.size	port_in_shift_right, .Ltmp239-port_in_shift_right
.Lfunc_end62:
	.cfi_endproc

	.globl	port_out_at_time
	.align	4
	.type	port_out_at_time,@function
	.cc_top port_out_at_time.function,port_out_at_time
port_out_at_time:
.Lfunc_begin63:
	.loc	2 702 0
	.cfi_startproc
	.issue_mode dual
	{
		nop
		dualentsp 0
	}
.Ltmp240:
	.loc	5 134 3 prologue_end
	#APP
	setpt res[r0], r1
	#NO_APP
.Ltmp241:
	.loc	5 168 3
	#APP
	out res[r0], r2
	#NO_APP
	{
		ldc r0, 0
		retsp 0
	}
.Ltmp242:
	.loc	2 703 3
	# RETURN_REG_HOLDER
.Ltmp243:
	.cc_bottom port_out_at_time.function
	.set	port_out_at_time.nstackwords,0
	.globl	port_out_at_time.nstackwords
	.set	port_out_at_time.maxcores,1
	.globl	port_out_at_time.maxcores
	.set	port_out_at_time.maxtimers,0
	.globl	port_out_at_time.maxtimers
	.set	port_out_at_time.maxchanends,0
	.globl	port_out_at_time.maxchanends
.Ltmp244:
	.size	port_out_at_time, .Ltmp244-port_out_at_time
.Lfunc_end63:
	.cfi_endproc

	.globl	port_in_at_time
	.align	4
	.type	port_in_at_time,@function
	.cc_top port_in_at_time.function,port_in_at_time
port_in_at_time:
.Lfunc_begin64:
	.loc	2 727 0
	.cfi_startproc
	.issue_mode dual
	{
		nop
		dualentsp 0
	}
.Ltmp245:
	.loc	5 134 3 prologue_end
	#APP
	setpt res[r0], r1
	#NO_APP
.Ltmp246:
	.loc	5 174 3
	#APP
	in r0, res[r0]
	#NO_APP
.Ltmp247:
	.loc	2 728 3
	{
		ldc r0, 0
		stw r0, r2[0]
	}
.Ltmp248:
	{
		nop
		retsp 0
	}
.Ltmp249:
	.loc	2 728 3
	# RETURN_REG_HOLDER
.Ltmp250:
	.cc_bottom port_in_at_time.function
	.set	port_in_at_time.nstackwords,0
	.globl	port_in_at_time.nstackwords
	.set	port_in_at_time.maxcores,1
	.globl	port_in_at_time.maxcores
	.set	port_in_at_time.maxtimers,0
	.globl	port_in_at_time.maxtimers
	.set	port_in_at_time.maxchanends,0
	.globl	port_in_at_time.maxchanends
.Ltmp251:
	.size	port_in_at_time, .Ltmp251-port_in_at_time
.Lfunc_end64:
	.cfi_endproc

	.globl	port_out_shift_right_at_time
	.align	4
	.type	port_out_shift_right_at_time,@function
	.cc_top port_out_shift_right_at_time.function,port_out_shift_right_at_time
port_out_shift_right_at_time:
.Lfunc_begin65:
	.loc	2 754 0
	.cfi_startproc
	.issue_mode dual
	{
		nop
		dualentsp 0
	}
.Ltmp252:
	.loc	5 134 3 prologue_end
	#APP
	setpt res[r0], r1
	#NO_APP
.Ltmp253:
	{
		nop
		ldw r1, r2[0]
	}
.Ltmp254:
	.loc	5 181 3
	#APP
	outshr res[r0], r1
	#NO_APP
	.loc	5 181 3
	{
		ldc r0, 0
		stw r1, r2[0]
	}
.Ltmp255:
	{
		nop
		retsp 0
	}
.Ltmp256:
	.loc	2 755 3
	# RETURN_REG_HOLDER
.Ltmp257:
	.cc_bottom port_out_shift_right_at_time.function
	.set	port_out_shift_right_at_time.nstackwords,0
	.globl	port_out_shift_right_at_time.nstackwords
	.set	port_out_shift_right_at_time.maxcores,1
	.globl	port_out_shift_right_at_time.maxcores
	.set	port_out_shift_right_at_time.maxtimers,0
	.globl	port_out_shift_right_at_time.maxtimers
	.set	port_out_shift_right_at_time.maxchanends,0
	.globl	port_out_shift_right_at_time.maxchanends
.Ltmp258:
	.size	port_out_shift_right_at_time, .Ltmp258-port_out_shift_right_at_time
.Lfunc_end65:
	.cfi_endproc

	.globl	port_in_shift_right_at_time
	.align	4
	.type	port_in_shift_right_at_time,@function
	.cc_top port_in_shift_right_at_time.function,port_in_shift_right_at_time
port_in_shift_right_at_time:
.Lfunc_begin66:
	.loc	2 780 0
	.cfi_startproc
	.issue_mode dual
	{
		nop
		dualentsp 0
	}
.Ltmp259:
	.loc	5 134 3 prologue_end
	#APP
	setpt res[r0], r1
	#NO_APP
.Ltmp260:
	{
		nop
		ldw r1, r2[0]
	}
.Ltmp261:
	.loc	5 187 3
	#APP
	inshr r1, res[r0]
	#NO_APP
	.loc	5 187 3
	{
		ldc r0, 0
		stw r1, r2[0]
	}
.Ltmp262:
	{
		nop
		retsp 0
	}
.Ltmp263:
	.loc	2 781 3
	# RETURN_REG_HOLDER
.Ltmp264:
	.cc_bottom port_in_shift_right_at_time.function
	.set	port_in_shift_right_at_time.nstackwords,0
	.globl	port_in_shift_right_at_time.nstackwords
	.set	port_in_shift_right_at_time.maxcores,1
	.globl	port_in_shift_right_at_time.maxcores
	.set	port_in_shift_right_at_time.maxtimers,0
	.globl	port_in_shift_right_at_time.maxtimers
	.set	port_in_shift_right_at_time.maxchanends,0
	.globl	port_in_shift_right_at_time.maxchanends
.Ltmp265:
	.size	port_in_shift_right_at_time, .Ltmp265-port_in_shift_right_at_time
.Lfunc_end66:
	.cfi_endproc

	.globl	port_in_when_pinseq
	.align	4
	.type	port_in_when_pinseq,@function
	.cc_top port_in_when_pinseq.function,port_in_when_pinseq
port_in_when_pinseq:
.Lfunc_begin67:
	.loc	2 807 0
	.cfi_startproc
	.issue_mode dual
	{
		nop
		dualentsp 0
	}
.Ltmp266:
	.loc	5 144 3 prologue_end
	#APP
	setc res[r0], 0x11
	#NO_APP
	.loc	5 145 3
	#APP
	setd res[r0], r2
	#NO_APP
.Ltmp267:
	.loc	5 174 3
	#APP
	in r2, res[r0]
	#NO_APP
.Ltmp268:
	{
		nop
		stw r2, r3[0]
	}
	bt r1, .LBB67_2
.Ltmp269:
	.loc	5 156 3
	#APP
	setc res[r0], 0x1
	#NO_APP
.Ltmp270:
.LBB67_2:
	{
		ldc r0, 0
		retsp 0
	}
	.loc	2 808 3
	# RETURN_REG_HOLDER
.Ltmp271:
	.cc_bottom port_in_when_pinseq.function
	.set	port_in_when_pinseq.nstackwords,0
	.globl	port_in_when_pinseq.nstackwords
	.set	port_in_when_pinseq.maxcores,1
	.globl	port_in_when_pinseq.maxcores
	.set	port_in_when_pinseq.maxtimers,0
	.globl	port_in_when_pinseq.maxtimers
	.set	port_in_when_pinseq.maxchanends,0
	.globl	port_in_when_pinseq.maxchanends
.Ltmp272:
	.size	port_in_when_pinseq, .Ltmp272-port_in_when_pinseq
.Lfunc_end67:
	.cfi_endproc

	.globl	port_in_when_pinsneq
	.align	4
	.type	port_in_when_pinsneq,@function
	.cc_top port_in_when_pinsneq.function,port_in_when_pinsneq
port_in_when_pinsneq:
.Lfunc_begin68:
	.loc	2 834 0
	.cfi_startproc
	.issue_mode dual
	{
		nop
		dualentsp 0
	}
.Ltmp273:
	.loc	5 150 3 prologue_end
	#APP
	setc res[r0], 0x19
	#NO_APP
	.loc	5 151 3
	#APP
	setd res[r0], r2
	#NO_APP
.Ltmp274:
	.loc	5 174 3
	#APP
	in r2, res[r0]
	#NO_APP
.Ltmp275:
	{
		nop
		stw r2, r3[0]
	}
	bt r1, .LBB68_2
.Ltmp276:
	.loc	5 156 3
	#APP
	setc res[r0], 0x1
	#NO_APP
.Ltmp277:
.LBB68_2:
	{
		ldc r0, 0
		retsp 0
	}
	.loc	2 835 3
	# RETURN_REG_HOLDER
.Ltmp278:
	.cc_bottom port_in_when_pinsneq.function
	.set	port_in_when_pinsneq.nstackwords,0
	.globl	port_in_when_pinsneq.nstackwords
	.set	port_in_when_pinsneq.maxcores,1
	.globl	port_in_when_pinsneq.maxcores
	.set	port_in_when_pinsneq.maxtimers,0
	.globl	port_in_when_pinsneq.maxtimers
	.set	port_in_when_pinsneq.maxchanends,0
	.globl	port_in_when_pinsneq.maxchanends
.Ltmp279:
	.size	port_in_when_pinsneq, .Ltmp279-port_in_when_pinsneq
.Lfunc_end68:
	.cfi_endproc

	.globl	port_in_shift_right_when_pinseq
	.align	4
	.type	port_in_shift_right_when_pinseq,@function
	.cc_top port_in_shift_right_when_pinseq.function,port_in_shift_right_when_pinseq
port_in_shift_right_when_pinseq:
.Lfunc_begin69:
	.loc	2 862 0
	.cfi_startproc
	.issue_mode dual
	{
		nop
		dualentsp 0
	}
.Ltmp280:
	.loc	5 144 3 prologue_end
	#APP
	setc res[r0], 0x11
	#NO_APP
	.loc	5 145 3
	#APP
	setd res[r0], r2
	#NO_APP
	{
		nop
		ldw r2, r3[0]
	}
.Ltmp281:
	.loc	5 187 3
	#APP
	inshr r2, res[r0]
	#NO_APP
	{
		nop
		stw r2, r3[0]
	}
	bt r1, .LBB69_2
.Ltmp282:
	.loc	5 156 3
	#APP
	setc res[r0], 0x1
	#NO_APP
.Ltmp283:
.LBB69_2:
	{
		ldc r0, 0
		retsp 0
	}
	.loc	2 863 3
	# RETURN_REG_HOLDER
.Ltmp284:
	.cc_bottom port_in_shift_right_when_pinseq.function
	.set	port_in_shift_right_when_pinseq.nstackwords,0
	.globl	port_in_shift_right_when_pinseq.nstackwords
	.set	port_in_shift_right_when_pinseq.maxcores,1
	.globl	port_in_shift_right_when_pinseq.maxcores
	.set	port_in_shift_right_when_pinseq.maxtimers,0
	.globl	port_in_shift_right_when_pinseq.maxtimers
	.set	port_in_shift_right_when_pinseq.maxchanends,0
	.globl	port_in_shift_right_when_pinseq.maxchanends
.Ltmp285:
	.size	port_in_shift_right_when_pinseq, .Ltmp285-port_in_shift_right_when_pinseq
.Lfunc_end69:
	.cfi_endproc

	.globl	port_in_shift_right_when_pinsneq
	.align	4
	.type	port_in_shift_right_when_pinsneq,@function
	.cc_top port_in_shift_right_when_pinsneq.function,port_in_shift_right_when_pinsneq
port_in_shift_right_when_pinsneq:
.Lfunc_begin70:
	.loc	2 890 0
	.cfi_startproc
	.issue_mode dual
	{
		nop
		dualentsp 0
	}
.Ltmp286:
	.loc	5 150 3 prologue_end
	#APP
	setc res[r0], 0x19
	#NO_APP
	.loc	5 151 3
	#APP
	setd res[r0], r2
	#NO_APP
	{
		nop
		ldw r2, r3[0]
	}
.Ltmp287:
	.loc	5 187 3
	#APP
	inshr r2, res[r0]
	#NO_APP
	{
		nop
		stw r2, r3[0]
	}
	bt r1, .LBB70_2
.Ltmp288:
	.loc	5 156 3
	#APP
	setc res[r0], 0x1
	#NO_APP
.Ltmp289:
.LBB70_2:
	{
		ldc r0, 0
		retsp 0
	}
	.loc	2 891 3
	# RETURN_REG_HOLDER
.Ltmp290:
	.cc_bottom port_in_shift_right_when_pinsneq.function
	.set	port_in_shift_right_when_pinsneq.nstackwords,0
	.globl	port_in_shift_right_when_pinsneq.nstackwords
	.set	port_in_shift_right_when_pinsneq.maxcores,1
	.globl	port_in_shift_right_when_pinsneq.maxcores
	.set	port_in_shift_right_when_pinsneq.maxtimers,0
	.globl	port_in_shift_right_when_pinsneq.maxtimers
	.set	port_in_shift_right_when_pinsneq.maxchanends,0
	.globl	port_in_shift_right_when_pinsneq.maxchanends
.Ltmp291:
	.size	port_in_shift_right_when_pinsneq, .Ltmp291-port_in_shift_right_when_pinsneq
.Lfunc_end70:
	.cfi_endproc

	.globl	port_clear_buffer
	.align	4
	.type	port_clear_buffer,@function
	.cc_top port_clear_buffer.function,port_clear_buffer
port_clear_buffer:
.Lfunc_begin71:
	.loc	2 917 0
	.cfi_startproc
	.issue_mode dual
	{
		nop
		dualentsp 0
	}
.Ltmp292:
	.loc	5 199 3 prologue_end
	#APP
	setc res[r0], 0x17
	#NO_APP
	{
		ldc r0, 0
		retsp 0
	}
.Ltmp293:
	.loc	2 918 3
	# RETURN_REG_HOLDER
.Ltmp294:
	.cc_bottom port_clear_buffer.function
	.set	port_clear_buffer.nstackwords,0
	.globl	port_clear_buffer.nstackwords
	.set	port_clear_buffer.maxcores,1
	.globl	port_clear_buffer.maxcores
	.set	port_clear_buffer.maxtimers,0
	.globl	port_clear_buffer.maxtimers
	.set	port_clear_buffer.maxchanends,0
	.globl	port_clear_buffer.maxchanends
.Ltmp295:
	.size	port_clear_buffer, .Ltmp295-port_clear_buffer
.Lfunc_end71:
	.cfi_endproc

	.globl	port_endin
	.align	4
	.type	port_endin,@function
	.cc_top port_endin.function,port_endin
port_endin:
.Lfunc_begin72:
	.loc	2 942 0
	.cfi_startproc
	.issue_mode dual
	{
		nop
		dualentsp 0
	}
.Ltmp296:
	.loc	5 193 3 prologue_end
	#APP
	endin r0, res[r0]
	#NO_APP
.Ltmp297:
	.loc	2 943 3
	{
		ldc r0, 0
		stw r0, r1[0]
	}
.Ltmp298:
	{
		nop
		retsp 0
	}
.Ltmp299:
	.loc	2 943 3
	# RETURN_REG_HOLDER
.Ltmp300:
	.cc_bottom port_endin.function
	.set	port_endin.nstackwords,0
	.globl	port_endin.nstackwords
	.set	port_endin.maxcores,1
	.globl	port_endin.maxcores
	.set	port_endin.maxtimers,0
	.globl	port_endin.maxtimers
	.set	port_endin.maxchanends,0
	.globl	port_endin.maxchanends
.Ltmp301:
	.size	port_endin, .Ltmp301-port_endin
.Lfunc_end72:
	.cfi_endproc

	.globl	port_force_input
	.align	4
	.type	port_force_input,@function
	.cc_top port_force_input.function,port_force_input
port_force_input:
.Lfunc_begin73:
	.loc	2 962 0
	.cfi_startproc
	.issue_mode dual
	{
		nop
		dualentsp 0
	}
.Ltmp302:
	.loc	5 193 3 prologue_end
	#APP
	endin r3, res[r0]
	#NO_APP
.Ltmp303:
	{
		nop
		stw r3, r1[0]
	}
.Ltmp304:
	.loc	5 174 3
	#APP
	in r0, res[r0]
	#NO_APP
.Ltmp305:
	.loc	2 963 3
	{
		ldc r0, 0
		stw r0, r2[0]
	}
.Ltmp306:
	{
		nop
		retsp 0
	}
.Ltmp307:
	.loc	2 963 3
	# RETURN_REG_HOLDER
.Ltmp308:
	.cc_bottom port_force_input.function
	.set	port_force_input.nstackwords,0
	.globl	port_force_input.nstackwords
	.set	port_force_input.maxcores,1
	.globl	port_force_input.maxcores
	.set	port_force_input.maxtimers,0
	.globl	port_force_input.maxtimers
	.set	port_force_input.maxchanends,0
	.globl	port_force_input.maxchanends
.Ltmp309:
	.size	port_force_input, .Ltmp309-port_force_input
.Lfunc_end73:
	.cfi_endproc

	.globl	port_setup_select
	.align	4
	.type	port_setup_select,@function
	.cc_top port_setup_select.function,port_setup_select
port_setup_select:
.Lfunc_begin74:
	.loc	2 989 0
	.cfi_startproc
	.issue_mode dual
	{
		nop
		dualentsp 4
	}
.Ltmp310:
	.cfi_def_cfa_offset 16
.Ltmp311:
	.cfi_offset 15, 0
.Ltmp312:
	.cfi_offset 4, -8
.Ltmp313:
	{
		mov r4, r0
		stw r4, sp[2]
	}
.Ltmp314:
	.loc	4 64 3 prologue_end
	ldap r11, _select_non_callback
.Ltmp315:
	{
		ldc r3, 2
		mov r2, r11
	}
	bl _resource_setup_callback
.Ltmp316:
	.loc	5 156 3
	#APP
	setc res[r4], 0x1
	#NO_APP
	{
		ldc r0, 0
		ldw r4, sp[2]
	}
	{
		nop
		retsp 4
	}
.Ltmp317:
	.loc	2 990 3
	# RETURN_REG_HOLDER
.Ltmp318:
	.cc_bottom port_setup_select.function
	.set	port_setup_select.nstackwords,(_resource_setup_callback.nstackwords + 4)
	.globl	port_setup_select.nstackwords
	.set	port_setup_select.maxcores,_resource_setup_callback.maxcores $M 1
	.globl	port_setup_select.maxcores
	.set	port_setup_select.maxtimers,_resource_setup_callback.maxtimers $M 0
	.globl	port_setup_select.maxtimers
	.set	port_setup_select.maxchanends,_resource_setup_callback.maxchanends $M 0
	.globl	port_setup_select.maxchanends
.Ltmp319:
	.size	port_setup_select, .Ltmp319-port_setup_select
.Lfunc_end74:
	.cfi_endproc

	.globl	port_setup_select_callback
	.align	4
	.type	port_setup_select_callback,@function
	.cc_top port_setup_select_callback.function,port_setup_select_callback
port_setup_select_callback:
.Lfunc_begin75:
	.loc	2 1015 0
	.cfi_startproc
	.issue_mode dual
	{
		nop
		dualentsp 4
	}
.Ltmp320:
	.cfi_def_cfa_offset 16
.Ltmp321:
	.cfi_offset 15, 0
.Ltmp322:
	.cfi_offset 4, -8
.Ltmp323:
	{
		mov r4, r0
		stw r4, sp[2]
	}
.Ltmp324:
	{
		ldc r3, 2
		nop
	}
	.loc	4 64 3 prologue_end
.Ltmp325:
	bl _resource_setup_callback
.Ltmp326:
	.loc	5 156 3
	#APP
	setc res[r4], 0x1
	#NO_APP
	{
		ldc r0, 0
		ldw r4, sp[2]
	}
	{
		nop
		retsp 4
	}
.Ltmp327:
	.loc	2 1016 3
	# RETURN_REG_HOLDER
.Ltmp328:
	.cc_bottom port_setup_select_callback.function
	.set	port_setup_select_callback.nstackwords,(_resource_setup_callback.nstackwords + 4)
	.globl	port_setup_select_callback.nstackwords
	.set	port_setup_select_callback.maxcores,_resource_setup_callback.maxcores $M 1
	.globl	port_setup_select_callback.maxcores
	.set	port_setup_select_callback.maxtimers,_resource_setup_callback.maxtimers $M 0
	.globl	port_setup_select_callback.maxtimers
	.set	port_setup_select_callback.maxchanends,_resource_setup_callback.maxchanends $M 0
	.globl	port_setup_select_callback.maxchanends
.Ltmp329:
	.size	port_setup_select_callback, .Ltmp329-port_setup_select_callback
.Lfunc_end75:
	.cfi_endproc

	.globl	port_setup_interrupt_callback
	.align	4
	.type	port_setup_interrupt_callback,@function
	.cc_top port_setup_interrupt_callback.function,port_setup_interrupt_callback
port_setup_interrupt_callback:
.Lfunc_begin76:
	.loc	2 1038 0
	.cfi_startproc
	.issue_mode dual
	{
		nop
		dualentsp 4
	}
.Ltmp330:
	.cfi_def_cfa_offset 16
.Ltmp331:
	.cfi_offset 15, 0
.Ltmp332:
	.cfi_offset 4, -8
.Ltmp333:
	{
		mov r4, r0
		stw r4, sp[2]
	}
.Ltmp334:
	{
		ldc r3, 10
		nop
	}
	.loc	4 59 3 prologue_end
.Ltmp335:
	bl _resource_setup_callback
.Ltmp336:
	.loc	5 156 3
	#APP
	setc res[r4], 0x1
	#NO_APP
	{
		ldc r0, 0
		ldw r4, sp[2]
	}
	{
		nop
		retsp 4
	}
.Ltmp337:
	.loc	2 1039 3
	# RETURN_REG_HOLDER
.Ltmp338:
	.cc_bottom port_setup_interrupt_callback.function
	.set	port_setup_interrupt_callback.nstackwords,(_resource_setup_callback.nstackwords + 4)
	.globl	port_setup_interrupt_callback.nstackwords
	.set	port_setup_interrupt_callback.maxcores,_resource_setup_callback.maxcores $M 1
	.globl	port_setup_interrupt_callback.maxcores
	.set	port_setup_interrupt_callback.maxtimers,_resource_setup_callback.maxtimers $M 0
	.globl	port_setup_interrupt_callback.maxtimers
	.set	port_setup_interrupt_callback.maxchanends,_resource_setup_callback.maxchanends $M 0
	.globl	port_setup_interrupt_callback.maxchanends
.Ltmp339:
	.size	port_setup_interrupt_callback, .Ltmp339-port_setup_interrupt_callback
.Lfunc_end76:
	.cfi_endproc

	.globl	port_enable_trigger
	.align	4
	.type	port_enable_trigger,@function
	.cc_top port_enable_trigger.function,port_enable_trigger
port_enable_trigger:
.Lfunc_begin77:
	.loc	2 1061 0
	.cfi_startproc
	.issue_mode dual
	{
		nop
		dualentsp 0
	}
.Ltmp340:
	.loc	4 47 3 prologue_end
	#APP
	eeu res[r0]
	#NO_APP
	{
		ldc r0, 0
		retsp 0
	}
.Ltmp341:
	.loc	2 1062 3
	# RETURN_REG_HOLDER
.Ltmp342:
	.cc_bottom port_enable_trigger.function
	.set	port_enable_trigger.nstackwords,0
	.globl	port_enable_trigger.nstackwords
	.set	port_enable_trigger.maxcores,1
	.globl	port_enable_trigger.maxcores
	.set	port_enable_trigger.maxtimers,0
	.globl	port_enable_trigger.maxtimers
	.set	port_enable_trigger.maxchanends,0
	.globl	port_enable_trigger.maxchanends
.Ltmp343:
	.size	port_enable_trigger, .Ltmp343-port_enable_trigger
.Lfunc_end77:
	.cfi_endproc

	.globl	port_disable_trigger
	.align	4
	.type	port_disable_trigger,@function
	.cc_top port_disable_trigger.function,port_disable_trigger
port_disable_trigger:
.Lfunc_begin78:
	.loc	2 1077 0
	.cfi_startproc
	.issue_mode dual
	{
		nop
		dualentsp 0
	}
.Ltmp344:
	.loc	4 52 3 prologue_end
	#APP
	edu res[r0]
	#NO_APP
	{
		ldc r0, 0
		retsp 0
	}
.Ltmp345:
	.loc	2 1078 3
	# RETURN_REG_HOLDER
.Ltmp346:
	.cc_bottom port_disable_trigger.function
	.set	port_disable_trigger.nstackwords,0
	.globl	port_disable_trigger.nstackwords
	.set	port_disable_trigger.maxcores,1
	.globl	port_disable_trigger.maxcores
	.set	port_disable_trigger.maxtimers,0
	.globl	port_disable_trigger.maxtimers
	.set	port_disable_trigger.maxchanends,0
	.globl	port_disable_trigger.maxchanends
.Ltmp347:
	.size	port_disable_trigger, .Ltmp347-port_disable_trigger
.Lfunc_end78:
	.cfi_endproc

	.globl	port_protocol_in_handshake
	.align	4
	.type	port_protocol_in_handshake,@function
	.cc_top port_protocol_in_handshake.function,port_protocol_in_handshake
port_protocol_in_handshake:
.Lfunc_begin79:
	.file	8 "C:/Users/takaaki/git/lib_xcore_c/lib_xcore_c/api\\xcore_c_port_protocol.h"
	.loc	8 40 0
	.cfi_startproc
	.issue_mode dual
	{
		nop
		dualentsp 0
	}
.Ltmp348:
	.loc	5 66 3 prologue_end
	#APP
	setc res[r0], 0x5007
	#NO_APP
.Ltmp349:
	.loc	5 51 3
	#APP
	setc res[r0], 0x200f
	#NO_APP
.Ltmp350:
	.loc	5 174 3
	#APP
	in r11, res[r0]
	#NO_APP
.Ltmp351:
	.file	9 "C:/Users/takaaki/git/lib_xcore_c/lib_xcore_c/src\\xcore_c_clock_impl.h"
	.loc	9 26 3
	#APP
	setrdy res[r3], r1
	#NO_APP
.Ltmp352:
	.loc	5 61 3
	#APP
	setclk res[r0], r3
	#NO_APP
.Ltmp353:
	.loc	5 122 3
	#APP
	setc res[r0], 0x3017
	#NO_APP
.Ltmp354:
	.loc	5 199 3
	#APP
	setc res[r0], 0x17
	#NO_APP
.Ltmp355:
	.loc	5 76 3
	#APP
	setc res[r2], 0x5017
	#NO_APP
	.loc	5 77 3
	#APP
	setrdy res[r2], r0
	#NO_APP
	{
		ldc r0, 0
		retsp 0
	}
.Ltmp356:
	.loc	8 41 3
	# RETURN_REG_HOLDER
.Ltmp357:
	.cc_bottom port_protocol_in_handshake.function
	.set	port_protocol_in_handshake.nstackwords,0
	.globl	port_protocol_in_handshake.nstackwords
	.set	port_protocol_in_handshake.maxcores,1
	.globl	port_protocol_in_handshake.maxcores
	.set	port_protocol_in_handshake.maxtimers,0
	.globl	port_protocol_in_handshake.maxtimers
	.set	port_protocol_in_handshake.maxchanends,0
	.globl	port_protocol_in_handshake.maxchanends
.Ltmp358:
	.size	port_protocol_in_handshake, .Ltmp358-port_protocol_in_handshake
.Lfunc_end79:
	.cfi_endproc

	.globl	port_protocol_out_handshake
	.align	4
	.type	port_protocol_out_handshake,@function
	.cc_top port_protocol_out_handshake.function,port_protocol_out_handshake
port_protocol_out_handshake:
.Lfunc_begin80:
	.loc	8 88 0
	.cfi_startproc
	.issue_mode dual
	{
		nop
		dualentsp 0
	}
.Ltmp359:
	{
		nop
		ldw r11, sp[1]
	}
.Ltmp360:
	.loc	5 66 3 prologue_end
	#APP
	setc res[r0], 0x5007
	#NO_APP
.Ltmp361:
	.loc	5 51 3
	#APP
	setc res[r0], 0x200f
	#NO_APP
.Ltmp362:
	.loc	5 168 3
	#APP
	out res[r0], r11
	#NO_APP
.Ltmp363:
	.loc	9 26 3
	#APP
	setrdy res[r3], r1
	#NO_APP
.Ltmp364:
	.loc	5 61 3
	#APP
	setclk res[r0], r3
	#NO_APP
.Ltmp365:
	.loc	5 122 3
	#APP
	setc res[r0], 0x3017
	#NO_APP
.Ltmp366:
	.loc	5 199 3
	#APP
	setc res[r0], 0x17
	#NO_APP
.Ltmp367:
	.loc	5 76 3
	#APP
	setc res[r2], 0x5017
	#NO_APP
	.loc	5 77 3
	#APP
	setrdy res[r2], r0
	#NO_APP
	{
		ldc r0, 0
		retsp 0
	}
.Ltmp368:
	.loc	8 89 3
	# RETURN_REG_HOLDER
.Ltmp369:
	.cc_bottom port_protocol_out_handshake.function
	.set	port_protocol_out_handshake.nstackwords,0
	.globl	port_protocol_out_handshake.nstackwords
	.set	port_protocol_out_handshake.maxcores,1
	.globl	port_protocol_out_handshake.maxcores
	.set	port_protocol_out_handshake.maxtimers,0
	.globl	port_protocol_out_handshake.maxtimers
	.set	port_protocol_out_handshake.maxchanends,0
	.globl	port_protocol_out_handshake.maxchanends
.Ltmp370:
	.size	port_protocol_out_handshake, .Ltmp370-port_protocol_out_handshake
.Lfunc_end80:
	.cfi_endproc

	.globl	port_protocol_in_strobed_master
	.align	4
	.type	port_protocol_in_strobed_master,@function
	.cc_top port_protocol_in_strobed_master.function,port_protocol_in_strobed_master
port_protocol_in_strobed_master:
.Lfunc_begin81:
	.loc	8 128 0
	.cfi_startproc
	.issue_mode dual
	{
		nop
		dualentsp 0
	}
.Ltmp371:
	.loc	5 66 3 prologue_end
	#APP
	setc res[r0], 0x5007
	#NO_APP
.Ltmp372:
	.loc	5 51 3
	#APP
	setc res[r0], 0x200f
	#NO_APP
.Ltmp373:
	.loc	5 174 3
	#APP
	in r3, res[r0]
	#NO_APP
.Ltmp374:
	.loc	5 61 3
	#APP
	setclk res[r0], r2
	#NO_APP
.Ltmp375:
	.loc	5 117 3
	#APP
	setc res[r0], 0x300f
	#NO_APP
.Ltmp376:
	.loc	5 102 3
	#APP
	setc res[r0], 0x1007
	#NO_APP
.Ltmp377:
	.loc	5 199 3
	#APP
	setc res[r0], 0x17
	#NO_APP
.Ltmp378:
	.loc	5 76 3
	#APP
	setc res[r1], 0x5017
	#NO_APP
	.loc	5 77 3
	#APP
	setrdy res[r1], r0
	#NO_APP
	{
		ldc r0, 0
		retsp 0
	}
.Ltmp379:
	.loc	8 129 3
	# RETURN_REG_HOLDER
.Ltmp380:
	.cc_bottom port_protocol_in_strobed_master.function
	.set	port_protocol_in_strobed_master.nstackwords,0
	.globl	port_protocol_in_strobed_master.nstackwords
	.set	port_protocol_in_strobed_master.maxcores,1
	.globl	port_protocol_in_strobed_master.maxcores
	.set	port_protocol_in_strobed_master.maxtimers,0
	.globl	port_protocol_in_strobed_master.maxtimers
	.set	port_protocol_in_strobed_master.maxchanends,0
	.globl	port_protocol_in_strobed_master.maxchanends
.Ltmp381:
	.size	port_protocol_in_strobed_master, .Ltmp381-port_protocol_in_strobed_master
.Lfunc_end81:
	.cfi_endproc

	.globl	port_protocol_out_strobed_master
	.align	4
	.type	port_protocol_out_strobed_master,@function
	.cc_top port_protocol_out_strobed_master.function,port_protocol_out_strobed_master
port_protocol_out_strobed_master:
.Lfunc_begin82:
	.loc	8 168 0
	.cfi_startproc
	.issue_mode dual
	{
		nop
		dualentsp 0
	}
.Ltmp382:
	.loc	5 66 3 prologue_end
	#APP
	setc res[r0], 0x5007
	#NO_APP
.Ltmp383:
	.loc	5 51 3
	#APP
	setc res[r0], 0x200f
	#NO_APP
.Ltmp384:
	.loc	5 168 3
	#APP
	out res[r0], r3
	#NO_APP
.Ltmp385:
	.loc	5 61 3
	#APP
	setclk res[r0], r2
	#NO_APP
.Ltmp386:
	.loc	5 117 3
	#APP
	setc res[r0], 0x300f
	#NO_APP
.Ltmp387:
	.loc	5 102 3
	#APP
	setc res[r0], 0x1007
	#NO_APP
.Ltmp388:
	.loc	5 199 3
	#APP
	setc res[r0], 0x17
	#NO_APP
.Ltmp389:
	.loc	5 76 3
	#APP
	setc res[r1], 0x5017
	#NO_APP
	.loc	5 77 3
	#APP
	setrdy res[r1], r0
	#NO_APP
	{
		ldc r0, 0
		retsp 0
	}
.Ltmp390:
	.loc	8 169 3
	# RETURN_REG_HOLDER
.Ltmp391:
	.cc_bottom port_protocol_out_strobed_master.function
	.set	port_protocol_out_strobed_master.nstackwords,0
	.globl	port_protocol_out_strobed_master.nstackwords
	.set	port_protocol_out_strobed_master.maxcores,1
	.globl	port_protocol_out_strobed_master.maxcores
	.set	port_protocol_out_strobed_master.maxtimers,0
	.globl	port_protocol_out_strobed_master.maxtimers
	.set	port_protocol_out_strobed_master.maxchanends,0
	.globl	port_protocol_out_strobed_master.maxchanends
.Ltmp392:
	.size	port_protocol_out_strobed_master, .Ltmp392-port_protocol_out_strobed_master
.Lfunc_end82:
	.cfi_endproc

	.globl	port_protocol_in_strobed_slave
	.align	4
	.type	port_protocol_in_strobed_slave,@function
	.cc_top port_protocol_in_strobed_slave.function,port_protocol_in_strobed_slave
port_protocol_in_strobed_slave:
.Lfunc_begin83:
	.loc	8 205 0
	.cfi_startproc
	.issue_mode dual
	{
		nop
		dualentsp 0
	}
.Ltmp393:
	.loc	5 66 3 prologue_end
	#APP
	setc res[r0], 0x5007
	#NO_APP
.Ltmp394:
	.loc	5 51 3
	#APP
	setc res[r0], 0x200f
	#NO_APP
.Ltmp395:
	.loc	5 174 3
	#APP
	in r3, res[r0]
	#NO_APP
.Ltmp396:
	.loc	9 26 3
	#APP
	setrdy res[r2], r1
	#NO_APP
.Ltmp397:
	.loc	5 61 3
	#APP
	setclk res[r0], r2
	#NO_APP
.Ltmp398:
	.loc	5 117 3
	#APP
	setc res[r0], 0x300f
	#NO_APP
.Ltmp399:
	.loc	5 107 3
	#APP
	setc res[r0], 0x100f
	#NO_APP
.Ltmp400:
	.loc	5 199 3
	#APP
	setc res[r0], 0x17
	#NO_APP
	{
		ldc r0, 0
		retsp 0
	}
.Ltmp401:
	.loc	8 206 3
	# RETURN_REG_HOLDER
.Ltmp402:
	.cc_bottom port_protocol_in_strobed_slave.function
	.set	port_protocol_in_strobed_slave.nstackwords,0
	.globl	port_protocol_in_strobed_slave.nstackwords
	.set	port_protocol_in_strobed_slave.maxcores,1
	.globl	port_protocol_in_strobed_slave.maxcores
	.set	port_protocol_in_strobed_slave.maxtimers,0
	.globl	port_protocol_in_strobed_slave.maxtimers
	.set	port_protocol_in_strobed_slave.maxchanends,0
	.globl	port_protocol_in_strobed_slave.maxchanends
.Ltmp403:
	.size	port_protocol_in_strobed_slave, .Ltmp403-port_protocol_in_strobed_slave
.Lfunc_end83:
	.cfi_endproc

	.globl	port_protocol_out_strobed_slave
	.align	4
	.type	port_protocol_out_strobed_slave,@function
	.cc_top port_protocol_out_strobed_slave.function,port_protocol_out_strobed_slave
port_protocol_out_strobed_slave:
.Lfunc_begin84:
	.loc	8 244 0
	.cfi_startproc
	.issue_mode dual
	{
		nop
		dualentsp 0
	}
.Ltmp404:
	.loc	5 66 3 prologue_end
	#APP
	setc res[r0], 0x5007
	#NO_APP
.Ltmp405:
	.loc	5 51 3
	#APP
	setc res[r0], 0x200f
	#NO_APP
.Ltmp406:
	.loc	5 168 3
	#APP
	out res[r0], r3
	#NO_APP
.Ltmp407:
	.loc	9 26 3
	#APP
	setrdy res[r2], r1
	#NO_APP
.Ltmp408:
	.loc	5 61 3
	#APP
	setclk res[r0], r2
	#NO_APP
.Ltmp409:
	.loc	5 117 3
	#APP
	setc res[r0], 0x300f
	#NO_APP
.Ltmp410:
	.loc	5 107 3
	#APP
	setc res[r0], 0x100f
	#NO_APP
	{
		ldc r0, 0
		retsp 0
	}
.Ltmp411:
	.loc	8 245 3
	# RETURN_REG_HOLDER
.Ltmp412:
	.cc_bottom port_protocol_out_strobed_slave.function
	.set	port_protocol_out_strobed_slave.nstackwords,0
	.globl	port_protocol_out_strobed_slave.nstackwords
	.set	port_protocol_out_strobed_slave.maxcores,1
	.globl	port_protocol_out_strobed_slave.maxcores
	.set	port_protocol_out_strobed_slave.maxtimers,0
	.globl	port_protocol_out_strobed_slave.maxtimers
	.set	port_protocol_out_strobed_slave.maxchanends,0
	.globl	port_protocol_out_strobed_slave.maxchanends
.Ltmp413:
	.size	port_protocol_out_strobed_slave, .Ltmp413-port_protocol_out_strobed_slave
.Lfunc_end84:
	.cfi_endproc

.Ldebug_end0:
	.section	.trap_info,"",@progbits
.Ltrap_info_entries_start0:
	.long	.Ltrap_info_entries_end0-.Ltrap_info_entries_start0
	.long	1
.Ltrap_info_entries_end0: