	.text
	.file	"ogg_encoder_aspect.c"
	.text
	.globl	FLAC__ogg_encoder_aspect_init
	.align	4
	.type	FLAC__ogg_encoder_aspect_init,@function
	.cc_top FLAC__ogg_encoder_aspect_init.function,FLAC__ogg_encoder_aspect_init
FLAC__ogg_encoder_aspect_init:
.Lfunc_begin0:
	.loc	3 52 0
	.cfi_startproc
	.issue_mode dual
	{
		nop
		dualentsp 4
	}
.Ltmp0:
	.cfi_def_cfa_offset 16
.Ltmp1:
	.cfi_offset 15, 0
.Ltmp2:
	.cfi_offset 4, -8
.Ltmp3:
	{
		mov r4, r0
		stw r4, sp[2]
	}
.Ltmp4:
	.loc	3 54 5 prologue_end
	{
		add r0, r4, 8
		ldw r1, r4[0]
	}
	.loc	3 54 5
	bl ogg_stream_init
	.loc	3 54 5
	bf r0, .LBB0_2
.Ltmp5:
	{
		ldc r0, 0
		nop
	}
	bu .LBB0_3
.LBB0_2:
.Ltmp6:
	ldc r0, 384
	.loc	3 57 2
	{
		add r0, r4, r0
		ldc r1, 0
	}
	{
		nop
		stw r1, r0[0]
	}
	ldc r0, 388
	.loc	3 58 2
	{
		add r2, r4, r0
		mkmsk r0, 1
	}
	{
		nop
		stw r0, r2[0]
	}
	ldc r2, 392
	.loc	3 59 2
	{
		add r2, r4, r2
		nop
	}
	.loc	3 59 2
	std r1, r1, r2[0]
.Ltmp7:
.LBB0_3:
	{
		nop
		ldw r4, sp[2]
	}
	{
		nop
		retsp 4
	}
	.loc	3 62 1
	# RETURN_REG_HOLDER
.Ltmp8:
	.cc_bottom FLAC__ogg_encoder_aspect_init.function
	.set	FLAC__ogg_encoder_aspect_init.nstackwords,(ogg_stream_init.nstackwords + 4)
	.globl	FLAC__ogg_encoder_aspect_init.nstackwords
	.set	FLAC__ogg_encoder_aspect_init.maxcores,ogg_stream_init.maxcores $M 1
	.globl	FLAC__ogg_encoder_aspect_init.maxcores
	.set	FLAC__ogg_encoder_aspect_init.maxtimers,ogg_stream_init.maxtimers $M 0
	.globl	FLAC__ogg_encoder_aspect_init.maxtimers
	.set	FLAC__ogg_encoder_aspect_init.maxchanends,ogg_stream_init.maxchanends $M 0
	.globl	FLAC__ogg_encoder_aspect_init.maxchanends
.Ltmp9:
	.size	FLAC__ogg_encoder_aspect_init, .Ltmp9-FLAC__ogg_encoder_aspect_init
.Lfunc_end0:
	.cfi_endproc

	.globl	FLAC__ogg_encoder_aspect_finish
	.align	4
	.type	FLAC__ogg_encoder_aspect_finish,@function
	.cc_top FLAC__ogg_encoder_aspect_finish.function,FLAC__ogg_encoder_aspect_finish
FLAC__ogg_encoder_aspect_finish:
.Lfunc_begin1:
	.loc	3 65 0
	.cfi_startproc
	.issue_mode dual
.Ltmp10:
	.cfi_def_cfa_offset 8
.Ltmp11:
	.cfi_offset 15, 0
	{
		add r0, r0, 8
		dualentsp 2
	}
.Ltmp12:
	.loc	3 66 8 prologue_end
	bl ogg_stream_clear
	{
		nop
		retsp 2
	}
	.loc	3 68 1
	# RETURN_REG_HOLDER
.Ltmp13:
	.cc_bottom FLAC__ogg_encoder_aspect_finish.function
	.set	FLAC__ogg_encoder_aspect_finish.nstackwords,(ogg_stream_clear.nstackwords + 2)
	.globl	FLAC__ogg_encoder_aspect_finish.nstackwords
	.set	FLAC__ogg_encoder_aspect_finish.maxcores,ogg_stream_clear.maxcores $M 1
	.globl	FLAC__ogg_encoder_aspect_finish.maxcores
	.set	FLAC__ogg_encoder_aspect_finish.maxtimers,ogg_stream_clear.maxtimers $M 0
	.globl	FLAC__ogg_encoder_aspect_finish.maxtimers
	.set	FLAC__ogg_encoder_aspect_finish.maxchanends,ogg_stream_clear.maxchanends $M 0
	.globl	FLAC__ogg_encoder_aspect_finish.maxchanends
.Ltmp14:
	.size	FLAC__ogg_encoder_aspect_finish, .Ltmp14-FLAC__ogg_encoder_aspect_finish
.Lfunc_end1:
	.cfi_endproc

	.globl	FLAC__ogg_encoder_aspect_set_serial_number
	.align	4
	.type	FLAC__ogg_encoder_aspect_set_serial_number,@function
	.cc_top FLAC__ogg_encoder_aspect_set_serial_number.function,FLAC__ogg_encoder_aspect_set_serial_number
FLAC__ogg_encoder_aspect_set_serial_number:
.Lfunc_begin2:
	.loc	3 71 0
	.cfi_startproc
	.issue_mode dual
	{
		nop
		dualentsp 0
	}
	{
		nop
		stw r1, r0[0]
	}
	{
		nop
		retsp 0
	}
	.loc	3 73 1 prologue_end
.Ltmp15:
	# RETURN_REG_HOLDER
.Ltmp16:
	.cc_bottom FLAC__ogg_encoder_aspect_set_serial_number.function
	.set	FLAC__ogg_encoder_aspect_set_serial_number.nstackwords,0
	.globl	FLAC__ogg_encoder_aspect_set_serial_number.nstackwords
	.set	FLAC__ogg_encoder_aspect_set_serial_number.maxcores,1
	.globl	FLAC__ogg_encoder_aspect_set_serial_number.maxcores
	.set	FLAC__ogg_encoder_aspect_set_serial_number.maxtimers,0
	.globl	FLAC__ogg_encoder_aspect_set_serial_number.maxtimers
	.set	FLAC__ogg_encoder_aspect_set_serial_number.maxchanends,0
	.globl	FLAC__ogg_encoder_aspect_set_serial_number.maxchanends
.Ltmp17:
	.size	FLAC__ogg_encoder_aspect_set_serial_number, .Ltmp17-FLAC__ogg_encoder_aspect_set_serial_number
.Lfunc_end2:
	.cfi_endproc

	.globl	FLAC__ogg_encoder_aspect_set_num_metadata
	.align	4
	.type	FLAC__ogg_encoder_aspect_set_num_metadata,@function
	.cc_top FLAC__ogg_encoder_aspect_set_num_metadata.function,FLAC__ogg_encoder_aspect_set_num_metadata
FLAC__ogg_encoder_aspect_set_num_metadata:
.Lfunc_begin3:
	.loc	3 76 0
	.cfi_startproc
	.issue_mode dual
	{
		mov r2, r0
		dualentsp 0
	}
.Ltmp18:
	.loc	3 77 5 prologue_end
	ldw r3, cp[FLAC__OGG_MAPPING_NUM_HEADERS_LEN]
	{
		mkmsk r0, 1
		nop
	}
	.loc	3 77 5
	{
		shl r3, r0, r3
		nop
	}
	.loc	3 77 5
	{
		lsu r3, r1, r3
		nop
	}
	bf r3, .LBB3_1
.Ltmp19:
	{
		nop
		stw r1, r2[1]
	}
	{
		nop
		retsp 0
	}
	.loc	3 83 1
	# RETURN_REG_HOLDER
.Ltmp20:
.LBB3_1:
	{
		ldc r0, 0
		retsp 0
	}
	# RETURN_REG_HOLDER
.Ltmp21:
	.cc_bottom FLAC__ogg_encoder_aspect_set_num_metadata.function
	.set	FLAC__ogg_encoder_aspect_set_num_metadata.nstackwords,0
	.globl	FLAC__ogg_encoder_aspect_set_num_metadata.nstackwords
	.set	FLAC__ogg_encoder_aspect_set_num_metadata.maxcores,1
	.globl	FLAC__ogg_encoder_aspect_set_num_metadata.maxcores
	.set	FLAC__ogg_encoder_aspect_set_num_metadata.maxtimers,0
	.globl	FLAC__ogg_encoder_aspect_set_num_metadata.maxtimers
	.set	FLAC__ogg_encoder_aspect_set_num_metadata.maxchanends,0
	.globl	FLAC__ogg_encoder_aspect_set_num_metadata.maxchanends
.Ltmp22:
	.size	FLAC__ogg_encoder_aspect_set_num_metadata, .Ltmp22-FLAC__ogg_encoder_aspect_set_num_metadata
.Lfunc_end3:
	.cfi_endproc

	.globl	FLAC__ogg_encoder_aspect_set_defaults
	.align	4
	.type	FLAC__ogg_encoder_aspect_set_defaults,@function
	.cc_top FLAC__ogg_encoder_aspect_set_defaults.function,FLAC__ogg_encoder_aspect_set_defaults
FLAC__ogg_encoder_aspect_set_defaults:
.Lfunc_begin4:
	.loc	3 86 0
	.cfi_startproc
	.issue_mode dual
	{
		ldc r1, 0
		dualentsp 0
	}
	{
		nop
		stw r1, r0[0]
	}
	{
		nop
		stw r1, r0[1]
	}
	{
		nop
		retsp 0
	}
	.loc	3 89 1 prologue_end
.Ltmp23:
	# RETURN_REG_HOLDER
.Ltmp24:
	.cc_bottom FLAC__ogg_encoder_aspect_set_defaults.function
	.set	FLAC__ogg_encoder_aspect_set_defaults.nstackwords,0
	.globl	FLAC__ogg_encoder_aspect_set_defaults.nstackwords
	.set	FLAC__ogg_encoder_aspect_set_defaults.maxcores,1
	.globl	FLAC__ogg_encoder_aspect_set_defaults.maxcores
	.set	FLAC__ogg_encoder_aspect_set_defaults.maxtimers,0
	.globl	FLAC__ogg_encoder_aspect_set_defaults.maxtimers
	.set	FLAC__ogg_encoder_aspect_set_defaults.maxchanends,0
	.globl	FLAC__ogg_encoder_aspect_set_defaults.maxchanends
.Ltmp25:
	.size	FLAC__ogg_encoder_aspect_set_defaults, .Ltmp25-FLAC__ogg_encoder_aspect_set_defaults
.Lfunc_end4:
	.cfi_endproc

	.globl	FLAC__ogg_encoder_aspect_write_callback_wrapper
	.align	4
	.type	FLAC__ogg_encoder_aspect_write_callback_wrapper,@function
	.cc_top FLAC__ogg_encoder_aspect_write_callback_wrapper.function,FLAC__ogg_encoder_aspect_write_callback_wrapper
FLAC__ogg_encoder_aspect_write_callback_wrapper:
.Lfunc_begin5:
	.loc	3 113 0
	.cfi_startproc
	.issue_mode dual
	{
		nop
		dualentsp 40
	}
.Ltmp26:
	.cfi_def_cfa_offset 160
.Ltmp27:
	.cfi_offset 15, 0
	{
		nop
		stw r4, sp[32]
	}
	{
		nop
		stw r5, sp[33]
	}
.Ltmp28:
	.cfi_offset 4, -32
.Ltmp29:
	.cfi_offset 5, -28
	{
		nop
		stw r6, sp[34]
	}
	{
		nop
		stw r7, sp[35]
	}
.Ltmp30:
	.cfi_offset 6, -24
.Ltmp31:
	.cfi_offset 7, -20
	{
		nop
		stw r8, sp[36]
	}
	{
		nop
		stw r9, sp[37]
	}
.Ltmp32:
	.cfi_offset 8, -16
.Ltmp33:
	.cfi_offset 9, -12
.Ltmp34:
	.cfi_offset 10, -8
.Ltmp35:
	{
		mov r7, r0
		stw r10, sp[38]
	}
.Ltmp36:
	{
		nop
		ldw r10, sp[44]
	}
	{
		nop
		ldw r5, sp[45]
	}
	{
		nop
		ldw r11, sp[42]
	}
	{
		nop
		ldw r6, sp[43]
	}
	{
		nop
		ldw r4, sp[41]
	}
	ldc r0, 384
	.loc	3 124 5 prologue_end
.Ltmp37:
	{
		add r9, r7, r0
		nop
	}
	{
		nop
		ldw r0, r9[0]
	}
	.loc	3 124 5
	bf r0, .LBB5_19
.Ltmp38:
	{
		nop
		stw r2, sp[10]
	}
.Ltmp39:
	{
		nop
		stw r1, sp[8]
	}
.Ltmp40:
	{
		ldaw r0, sp[24]
		stw r11, sp[9]
	}
	{
		ldc r8, 0
		ldc r2, 32
	}
.Ltmp41:
	.loc	3 137 3
	{
		mov r1, r8
		mov r9, r3
	}
.Ltmp42:
	bl memset
	{
		mov r3, r9
		nop
	}
.Ltmp43:
	ldc r0, 392
	.loc	3 138 3
	{
		add r0, r7, r0
		nop
	}
	{
		nop
		stw r0, sp[5]
	}
	.loc	3 138 3
	ldd r1, r0, r0[0]
	.loc	3 138 3
	ladd r2, r0, r0, r3, r8
	{
		add r1, r1, r2
		stw r0, sp[28]
	}
	{
		nop
		stw r1, sp[29]
	}
	ldc r0, 388
	.loc	3 140 6
.Ltmp44:
	{
		add r9, r7, r0
		nop
	}
	{
		nop
		ldw r0, r9[0]
	}
	.loc	3 140 6
	bf r0, .LBB5_4
.Ltmp45:
	{
		ldc r0, 38
		ldw r1, sp[10]
	}
	.loc	3 142 7
.Ltmp46:
	{
		eq r0, r1, r0
		nop
	}
	bf r0, .LBB5_17
.Ltmp47:
	.loc	3 151 4
	ldaw r11, cp[FLAC__OGG_MAPPING_FIRST_HEADER_PACKET_TYPE]
	{
		ldc r8, 0
		nop
	}
	{
		ldaw r1, sp[11]
		ld8u r0, r11[r8]
	}
	.loc	3 151 4
	st8 r0, r1[r8]
	{
		mkmsk r0, 1
		nop
	}
	.loc	3 152 4
	{
		or r0, r1, r0
		nop
	}
.Ltmp48:
	.loc	3 154 4
	ldw r1, cp[FLAC__OGG_MAPPING_MAGIC]
.Ltmp49:
	{
		ldc r2, 4
		stw r3, sp[7]
	}
	.loc	3 154 4
	bl memmove
.Ltmp50:
	{
		ldc r0, 5
		mkmsk r1, 1
	}
	{
		ldaw r3, sp[11]
		nop
	}
	.loc	3 157 4
	st8 r1, r3[r0]
	{
		ldc r0, 6
		nop
	}
	.loc	3 160 4
	st8 r8, r3[r0]
	{
		nop
		ldw r0, r7[1]
	}
	.loc	3 163 4
	{
		shr r1, r0, 8
		mkmsk r2, 3
	}
	.loc	3 163 4
	st8 r1, r3[r2]
	{
		ldc r1, 8
		nop
	}
	.loc	3 165 4
	st8 r0, r3[r1]
.Ltmp51:
	.loc	3 166 4
	{
		add r0, r3, 9
		mov r8, r3
	}
.Ltmp52:
	.loc	3 168 4
	ldw r1, cp[FLAC__STREAM_SYNC_STRING]
	.loc	3 168 4
	bl __misaligned_store
	{
		ldc r0, 13
		nop
	}
.Ltmp53:
	.loc	3 169 4
	{
		add r0, r8, r0
		ldc r2, 38
	}
.Ltmp54:
	{
		nop
		ldw r1, sp[8]
	}
	.loc	3 171 4
	bl memcpy
	{
		nop
		ldw r3, sp[7]
	}
.Ltmp55:
	.loc	3 173 4
	{
		ldaw r0, sp[24]
		stw r8, sp[24]
	}
	{
		ldc r1, 4
		nop
	}
	.loc	3 174 4
	{
		or r0, r0, r1
		ldc r1, 51
	}
	.loc	3 174 4
	{
		mkmsk r0, 1
		stw r1, r0[0]
	}
	.loc	3 176 4
	{
		ldc r0, 0
		stw r0, sp[26]
	}
	{
		nop
		stw r0, r9[0]
	}
	bu .LBB5_5
.Ltmp56:
.LBB5_19:
	.loc	3 213 10
	{
		or r0, r4, r3
		mkmsk r6, 1
	}
	bt r0, .LBB5_24
.Ltmp57:
	{
		eq r0, r2, 4
		nop
	}
	bf r0, .LBB5_24
.Ltmp58:
	{
		mov r4, r3
		mov r0, r1
	}
.Ltmp59:
	.loc	3 213 82
	bl __misaligned_load
.Ltmp60:
	ldw r1, cp[FLAC__STREAM_SYNC_STRING]
	.loc	3 213 82
	{
		eq r0, r0, r1
		nop
	}
	bf r0, .LBB5_24
.Ltmp61:
	{
		mkmsk r0, 1
		nop
	}
	.loc	3 214 3
.Ltmp62:
	{
		ldc r3, 0
		stw r0, r9[0]
	}
	ldc r0, 392
.Ltmp63:
	.loc	3 225 2
	{
		add r11, r7, r0
		nop
	}
	bu .LBB5_23
.Ltmp64:
.LBB5_4:
	{
		nop
		ldw r0, sp[8]
	}
	.loc	3 180 4
.Ltmp65:
	{
		ldc r0, 4
		stw r0, sp[24]
	}
	{
		ldaw r1, sp[24]
		nop
	}
	.loc	3 181 4
	{
		or r0, r1, r0
		ldw r1, sp[10]
	}
	{
		nop
		stw r1, r0[0]
	}
.Ltmp66:
.LBB5_5:
	{
		nop
		ldw r0, sp[9]
	}
.Ltmp67:
	{
		nop
		stw r3, sp[7]
	}
.Ltmp68:
	bf r0, .LBB5_7
.Ltmp69:
	{
		mkmsk r0, 1
		nop
	}
	{
		nop
		stw r0, sp[27]
	}
.Ltmp70:
.LBB5_7:
	.loc	3 192 6
	{
		add r8, r7, 8
		ldaw r1, sp[24]
	}
.Ltmp71:
	.loc	3 192 6
	{
		mov r0, r8
		nop
	}
	bl ogg_stream_packetin
	bt r0, .LBB5_17
.Ltmp72:
	ldc r0, 368
	.loc	3 197 10
.Ltmp73:
	{
		add r9, r7, r0
		nop
	}
	ldc r0, 372
	.loc	3 198 8
.Ltmp74:
	{
		add r0, r7, r0
		nop
	}
	{
		nop
		stw r0, sp[10]
	}
	ldc r0, 376
.Ltmp75:
	.loc	3 200 8
	{
		add r0, r7, r0
		nop
	}
	{
		nop
		stw r0, sp[9]
	}
	ldc r0, 380
	.loc	3 200 8
	{
		add r0, r7, r0
		nop
	}
	{
		nop
		stw r0, sp[8]
	}
	{
		nop
		ldw r0, sp[7]
	}
.Ltmp76:
	.loc	3 196 6
	bf r0, .LBB5_9
.Ltmp77:
	{
		ldc r7, 0
		nop
	}
.Ltmp78:
.LBB5_14:
	.loc	3 205 10
	{
		mov r0, r8
		mov r1, r9
	}
	bl ogg_stream_pageout
	bf r0, .LBB5_18
.Ltmp79:
	{
		nop
		ldw r1, r9[0]
	}
	{
		nop
		ldw r0, sp[10]
	}
	{
		nop
		ldw r2, r0[0]
	}
	{
		nop
		stw r5, sp[2]
	}
	.loc	3 206 8
.Ltmp80:
	{
		mov r0, r10
		stw r4, sp[1]
	}
	{
		mov r3, r7
		nop
	}
	{
		nop
		bla r6
	}
	bt r0, .LBB5_17
.Ltmp81:
	{
		nop
		ldw r0, sp[9]
	}
	{
		nop
		ldw r1, r0[0]
	}
	{
		nop
		ldw r0, sp[8]
	}
	{
		nop
		ldw r2, r0[0]
	}
	{
		nop
		stw r5, sp[2]
	}
	.loc	3 208 8
.Ltmp82:
	{
		mov r0, r10
		stw r4, sp[1]
	}
	{
		mov r3, r7
		nop
	}
	{
		nop
		bla r6
	}
	bf r0, .LBB5_14
	bu .LBB5_17
.Ltmp83:
.LBB5_9:
	{
		ldc r8, 0
		stw r8, sp[6]
	}
.Ltmp84:
.LBB5_10:
	.loc	3 197 10
	{
		mov r1, r9
		ldw r0, sp[6]
	}
	bl ogg_stream_flush
	bf r0, .LBB5_18
.Ltmp85:
	{
		nop
		ldw r1, r9[0]
	}
	{
		nop
		ldw r0, sp[10]
	}
	{
		nop
		ldw r2, r0[0]
	}
	{
		nop
		stw r5, sp[2]
	}
.Ltmp86:
	.loc	3 198 8
	{
		mov r7, r10
		stw r4, sp[1]
	}
.Ltmp87:
	{
		mov r0, r7
		mov r10, r8
	}
	{
		mov r3, r10
		nop
	}
	{
		nop
		bla r6
	}
	bt r0, .LBB5_17
.Ltmp88:
	{
		nop
		ldw r0, sp[9]
	}
	{
		nop
		ldw r1, r0[0]
	}
	{
		nop
		ldw r0, sp[8]
	}
	{
		nop
		ldw r2, r0[0]
	}
	{
		nop
		stw r5, sp[2]
	}
	.loc	3 200 8
.Ltmp89:
	{
		mov r0, r7
		stw r4, sp[1]
	}
.Ltmp90:
	{
		mov r3, r10
		mov r10, r7
	}
.Ltmp91:
	{
		mov r8, r3
		bla r6
	}
	bf r0, .LBB5_10
.Ltmp92:
.LBB5_17:
	{
		mkmsk r6, 1
		nop
	}
	bu .LBB5_24
.LBB5_18:
.Ltmp93:
	{
		ldc r3, 0
		ldw r4, sp[7]
	}
.Ltmp94:
	{
		nop
		ldw r11, sp[5]
	}
.LBB5_23:
	.loc	3 225 2
	ldd r1, r0, r11[0]
	{
		ldc r6, 0
		nop
	}
	.loc	3 225 2
	ladd r2, r0, r0, r4, r6
	ladd r2, r1, r1, r3, r2
	.loc	3 225 2
	std r1, r0, r11[0]
.LBB5_24:
	.loc	3 228 1
	{
		mov r0, r6
		ldw r10, sp[38]
	}
	{
		nop
		ldw r8, sp[36]
	}
	{
		nop
		ldw r9, sp[37]
	}
	{
		nop
		ldw r6, sp[34]
	}
	{
		nop
		ldw r7, sp[35]
	}
	{
		nop
		ldw r4, sp[32]
	}
	{
		nop
		ldw r5, sp[33]
	}
	{
		nop
		retsp 40
	}
	# RETURN_REG_HOLDER
.Ltmp95:
	.cc_bottom FLAC__ogg_encoder_aspect_write_callback_wrapper.function

	.globl	FLAC__ogg_encoder_aspect_write_callback_wrapper.maxcores

	.globl	FLAC__ogg_encoder_aspect_write_callback_wrapper.maxtimers

	.globl	FLAC__ogg_encoder_aspect_write_callback_wrapper.maxchanends
.Ltmp96:
	.size	FLAC__ogg_encoder_aspect_write_callback_wrapper, .Ltmp96-FLAC__ogg_encoder_aspect_write_callback_wrapper
.Lfunc_end5:
	.cfi_endproc

.Ldebug_end0:
	.file	5 "C:/Users/takaaki/git/sw_xSSDAC/module_libFLAC/source/private\\ogg_encoder_aspect.h"
	.file	6 "C:/Users/takaaki/git/sw_xSSDAC/module_libFLAC/source/private/../ogg\\ogg.h"
	.file	7 "C:/Users/takaaki/git/sw_xSSDAC/module_libFLAC/source/ogg\\config_types.h"
	.file	8 "C:\\Program Files (x86)\\XMOS\\xTIMEcomposer\\Community_14.4.1\\target/include/clang\\stddef.h"
	.section	.trap_info,"",@progbits
.Ltrap_info_entries_start0:
	.long	.Ltrap_info_entries_end0-.Ltrap_info_entries_start0
	.long	1
.Ltrap_info_entries_end0: