	.text
	.file	"fixed.c"
	.section	.cp.rodata.cst4,"aMc",@progbits,4
	.cc_top .LCPI0_0.data,.LCPI0_0
	.align	4
	.type	.LCPI0_0,@object
	.size	.LCPI0_0, 4
.LCPI0_0:
	.long	4277811695
	.cc_bottom .LCPI0_0.data
	.cc_top .LCPI0_1.data,.LCPI0_1
	.align	4
	.type	.LCPI0_1,@object
	.size	.LCPI0_1, 4
.LCPI0_1:
	.long	1072049730
	.cc_bottom .LCPI0_1.data
	.text
	.globl	FLAC__fixed_compute_best_predictor
	.align	4
	.type	FLAC__fixed_compute_best_predictor,@function
	.cc_top FLAC__fixed_compute_best_predictor.function,FLAC__fixed_compute_best_predictor
FLAC__fixed_compute_best_predictor:
.Lfunc_begin0:
	.file	3 "C:/Users/takaaki/git/sw_xSSDAC/module_libFLAC/source\\fixed.c"
	.loc	3 226 0
	.cfi_startproc
	.issue_mode dual
	{
		nop
		dualentsp 16
	}
.Ltmp0:
	.cfi_def_cfa_offset 64
.Ltmp1:
	.cfi_offset 15, 0
	std r5, r4, sp[4]
.Ltmp2:
	.cfi_offset 4, -32
.Ltmp3:
	.cfi_offset 5, -28
	std r7, r6, sp[5]
.Ltmp4:
	.cfi_offset 6, -24
.Ltmp5:
	.cfi_offset 7, -20
	std r9, r8, sp[6]
.Ltmp6:
	.cfi_offset 8, -16
.Ltmp7:
	.cfi_offset 9, -12
	{
		nop
		stw r10, sp[14]
	}
.Ltmp8:
	.cfi_offset 10, -8
.Ltmp9:
	{
		mkmsk r2, 1
		stw r2, sp[3]
	}
	.loc	3 253 2 prologue_end
.Ltmp10:
	{
		lss r2, r1, r2
		stw r2, sp[4]
	}
	bt r2, .LBB0_1
.Ltmp11:
	{
		sub r2, r0, 4
		nop
	}
	{
		nop
		ldw r4, r2[0]
	}
	ldaw r2, r0[-3]
	{
		nop
		ldw r11, r2[0]
	}
	ldaw r8, r0[-4]
	{
		ldc r0, 0
		stw r1, sp[6]
	}
.Ltmp12:
	{
		mov r3, r1
		mov r5, r0
	}
	{
		mov r9, r5
		stw r5, sp[7]
	}
	{
		mov r1, r5
		nop
	}
.Ltmp13:
.LBB0_3:
	{
		nop
		ldw r6, r8[4]
	}
	.loc	3 254 3
.Ltmp14:
	ashr r10, r6, 32
	{
		add r2, r6, r10
		nop
	}
	.loc	3 254 3
	xor r2, r2, r10
	.loc	3 254 3
	{
		add r1, r2, r1
		sub r2, r6, r4
	}
	.loc	3 255 3
	ashr r10, r2, 32
	{
		add r2, r2, r10
		nop
	}
	.loc	3 255 3
	xor r2, r2, r10
	.loc	3 255 3
	{
		add r0, r2, r0
		nop
	}
	.loc	3 256 3
	lda16 r2, r6[-r4]
	{
		nop
		ldw r10, r8[2]
	}
	.loc	3 256 3
	{
		add r2, r2, r10
		nop
	}
	ashr r7, r2, 32
	{
		add r2, r2, r7
		nop
	}
	.loc	3 256 3
	xor r2, r2, r7
	{
		nop
		ldw r7, sp[7]
	}
	.loc	3 256 3
	{
		add r7, r2, r7
		nop
	}
	{
		sub r2, r10, r4
		stw r7, sp[7]
	}
	lda16 r2, r2[r2]
	.loc	3 257 3
	{
		sub r7, r6, r11
		nop
	}
	.loc	3 257 3
	{
		add r2, r7, r2
		nop
	}
	ashr r7, r2, 32
	{
		add r2, r2, r7
		nop
	}
	.loc	3 257 3
	xor r2, r2, r7
	.loc	3 257 3
	{
		add r9, r2, r9
		nop
	}
	.loc	3 258 3
	ldaw r2, r6[-r4]
	{
		ldc r4, 6
		nop
	}
	.loc	3 258 3
	mul r4, r10, r4
	.loc	3 258 3
	{
		add r2, r2, r4
		nop
	}
	.loc	3 258 3
	ldaw r2, r2[-r11]
	{
		nop
		ldw r11, r8[0]
	}
	.loc	3 258 3
	{
		add r2, r2, r11
		nop
	}
	ashr r11, r2, 32
	{
		add r2, r2, r11
		nop
	}
	.loc	3 258 3
	xor r2, r2, r11
	.loc	3 258 3
	{
		add r5, r2, r5
		sub r3, r3, 1
	}
.Ltmp15:
	.loc	3 253 2
	{
		add r8, r8, 4
		mov r11, r10
	}
	.loc	3 254 3
.Ltmp16:
	{
		mov r4, r6
		nop
	}
	bt r3, .LBB0_3
	bu .LBB0_4
.Ltmp17:
.LBB0_1:
	{
		ldc r5, 0
		stw r1, sp[6]
	}
	{
		mov r9, r5
		stw r5, sp[7]
	}
	{
		mov r0, r5
		mov r1, r5
	}
.Ltmp18:
.LBB0_4:
	{
		mov r4, r1
		mov r11, r5
	}
	{
		nop
		ldw r3, sp[7]
	}
	.loc	3 264 5
.Ltmp19:
	{
		lsu r2, r3, r0
		mov r1, r3
	}
	{
		mov r5, r3
		nop
	}
	bt r2, .LBB0_6
.Ltmp20:
	{
		mov r1, r0
		nop
	}
.Ltmp21:
.LBB0_6:
	{
		mov r8, r9
		nop
	}
	.loc	3 264 5
	{
		lsu r3, r8, r1
		mov r2, r8
	}
	bt r3, .LBB0_8
.Ltmp22:
	{
		mov r2, r1
		nop
	}
.Ltmp23:
.LBB0_8:
	.loc	3 264 5
	{
		lsu r3, r11, r2
		stw r11, sp[5]
	}
.Ltmp24:
	.loc	3 264 5
	{
		mov r1, r11
		ldw r6, sp[3]
	}
.Ltmp25:
	bt r3, .LBB0_10
.Ltmp26:
	{
		mov r1, r2
		nop
	}
.Ltmp27:
.LBB0_10:
	{
		mov r11, r4
		nop
	}
	.loc	3 264 5
	{
		lsu r1, r1, r11
		nop
	}
	bf r1, .LBB0_11
.Ltmp28:
	.loc	3 266 10
	{
		lsu r2, r8, r5
		mov r1, r8
	}
	bt r2, .LBB0_14
.Ltmp29:
	{
		mov r1, r5
		nop
	}
.Ltmp30:
.LBB0_14:
	{
		nop
		ldw r2, sp[5]
	}
	.loc	3 266 10
	{
		lsu r3, r2, r1
		nop
	}
	bt r3, .LBB0_16
.Ltmp31:
	.loc	3 266 10
	{
		mov r2, r1
		nop
	}
.Ltmp32:
.LBB0_16:
	.loc	3 266 10
	{
		lsu r1, r2, r0
		ldw r3, sp[6]
	}
.Ltmp33:
	bf r1, .LBB0_25
.Ltmp34:
	{
		nop
		ldw r2, sp[5]
	}
	.loc	3 268 10
.Ltmp35:
	{
		lsu r1, r2, r8
		nop
	}
	bt r1, .LBB0_19
.Ltmp36:
	{
		mov r2, r8
		nop
	}
.Ltmp37:
.LBB0_19:
	.loc	3 268 10
	{
		lsu r2, r2, r5
		nop
	}
	bf r2, .LBB0_20
.Ltmp38:
	.loc	3 271 3
	bt r1, .LBB0_22
.Ltmp39:
	{
		mkmsk r1, 2
		nop
	}
	bu .LBB0_24
.Ltmp40:
.LBB0_11:
	{
		ldc r1, 0
		nop
	}
	{
		nop
		stw r1, sp[4]
	}
	{
		nop
		ldw r3, sp[6]
	}
.Ltmp41:
	bu .LBB0_25
.Ltmp42:
.LBB0_20:
	{
		ldc r1, 2
		nop
	}
	bu .LBB0_24
.Ltmp43:
.LBB0_22:
	{
		ldc r1, 4
		nop
	}
.Ltmp44:
.LBB0_24:
	{
		nop
		stw r1, sp[4]
	}
.LBB0_25:
.Ltmp45:
	bt r3, .LBB0_27
.Ltmp46:
	.loc	3 278 2
	{
		ecallt r11
		nop
	}
.Ltmp47:
.LBB0_27:
	bt r3, .LBB0_29
.Ltmp48:
	.loc	3 279 2
	{
		ecallt r0
		nop
	}
.Ltmp49:
.LBB0_29:
	bt r3, .LBB0_31
.Ltmp50:
	.loc	3 280 2
	{
		ecallt r5
		nop
	}
.Ltmp51:
.LBB0_31:
	{
		mov r9, r6
		stw r0, sp[2]
	}
.Ltmp52:
	bt r3, .LBB0_33
.Ltmp53:
	.loc	3 281 2
	{
		ecallt r8
		nop
	}
.Ltmp54:
.LBB0_33:
	{
		nop
		stw r3, sp[6]
	}
.Ltmp55:
	bt r3, .LBB0_35
.Ltmp56:
	{
		nop
		ldw r1, sp[5]
	}
	.loc	3 282 2
.Ltmp57:
	{
		ecallt r1
		nop
	}
.Ltmp58:
.LBB0_35:
	{
		ldc r10, 0
		nop
	}
	{
		mov r1, r10
		nop
	}
	bf r11, .LBB0_37
.Ltmp59:
	.loc	3 284 62
	{
		mov r0, r11
		nop
	}
	bl __floatunsidf
	ldw r2, cp[.LCPI0_0]
	ldw r3, cp[.LCPI0_1]
	{
		mov r7, r2
		mov r5, r3
	}
	.loc	3 284 62
	bl __muldf3
	{
		mov r4, r0
		mov r6, r1
	}
	{
		nop
		ldw r0, sp[6]
	}
	.loc	3 284 62
	bl __floatunsidf
	{
		mov r2, r0
		mov r3, r1
	}
	.loc	3 284 62
	{
		mov r0, r4
		mov r1, r6
	}
	bl __divdf3
	.loc	3 284 62
	bl log
	.loc	3 284 62
	{
		mov r2, r7
		mov r3, r5
	}
	bl __divdf3
	.loc	3 284 62
	bl __truncdfsf2
	{
		mov r1, r0
		nop
	}
.Ltmp60:
.LBB0_37:
	{
		mov r7, r9
		nop
	}
.Ltmp61:
	.loc	3 284 62
	{
		mov r0, r10
		stw r1, r7[0]
	}
	{
		nop
		ldw r1, sp[2]
	}
	bf r1, .LBB0_39
.Ltmp62:
	.loc	3 285 62
	{
		mov r0, r1
		nop
	}
	bl __floatunsidf
	ldw r9, cp[.LCPI0_0]
	ldw r5, cp[.LCPI0_1]
	.loc	3 285 62
	{
		mov r2, r9
		mov r3, r5
	}
	bl __muldf3
	{
		mov r6, r0
		mov r4, r1
	}
	{
		nop
		ldw r0, sp[6]
	}
	.loc	3 285 62
	bl __floatunsidf
	{
		mov r2, r0
		mov r3, r1
	}
	.loc	3 285 62
	{
		mov r0, r6
		mov r1, r4
	}
	bl __divdf3
	.loc	3 285 62
	bl log
	.loc	3 285 62
	{
		mov r2, r9
		mov r3, r5
	}
	bl __divdf3
	.loc	3 285 62
	bl __truncdfsf2
.Ltmp63:
.LBB0_39:
	.loc	3 285 62
	{
		mov r0, r10
		stw r0, r7[1]
	}
	{
		nop
		ldw r1, sp[7]
	}
	bf r1, .LBB0_41
.Ltmp64:
	.loc	3 286 62
	{
		mov r0, r1
		nop
	}
	bl __floatunsidf
	ldw r4, cp[.LCPI0_0]
	ldw r5, cp[.LCPI0_1]
	.loc	3 286 62
	{
		mov r2, r4
		mov r3, r5
	}
	bl __muldf3
	{
		mov r6, r0
		mov r9, r1
	}
	{
		nop
		ldw r0, sp[6]
	}
	.loc	3 286 62
	bl __floatunsidf
	{
		mov r2, r0
		mov r3, r1
	}
	.loc	3 286 62
	{
		mov r0, r6
		mov r1, r9
	}
	bl __divdf3
	.loc	3 286 62
	bl log
	.loc	3 286 62
	{
		mov r2, r4
		mov r3, r5
	}
	bl __divdf3
	.loc	3 286 62
	bl __truncdfsf2
.Ltmp65:
.LBB0_41:
	.loc	3 286 62
	{
		mov r0, r10
		stw r0, r7[2]
	}
	bf r8, .LBB0_43
.Ltmp66:
	.loc	3 287 62
	{
		mov r0, r8
		nop
	}
	bl __floatunsidf
	ldw r4, cp[.LCPI0_0]
	ldw r5, cp[.LCPI0_1]
	.loc	3 287 62
	{
		mov r2, r4
		mov r3, r5
	}
	bl __muldf3
	{
		mov r6, r0
		mov r8, r1
	}
	{
		nop
		ldw r0, sp[6]
	}
	.loc	3 287 62
	bl __floatunsidf
	{
		mov r2, r0
		mov r3, r1
	}
	.loc	3 287 62
	{
		mov r0, r6
		mov r1, r8
	}
	bl __divdf3
	.loc	3 287 62
	bl log
	.loc	3 287 62
	{
		mov r2, r4
		mov r3, r5
	}
	bl __divdf3
	.loc	3 287 62
	bl __truncdfsf2
.Ltmp67:
.LBB0_43:
	{
		nop
		stw r0, r7[3]
	}
	{
		nop
		ldw r0, sp[5]
	}
	bf r0, .LBB0_45
.Ltmp68:
	.loc	3 288 62
	bl __floatunsidf
	ldw r4, cp[.LCPI0_0]
	ldw r5, cp[.LCPI0_1]
	.loc	3 288 62
	{
		mov r2, r4
		mov r3, r5
	}
	bl __muldf3
.Ltmp69:
	{
		mov r6, r0
		mov r8, r7
	}
.Ltmp70:
	{
		mov r7, r1
		ldw r0, sp[6]
	}
	.loc	3 288 62
	bl __floatunsidf
	{
		mov r2, r0
		mov r3, r1
	}
	.loc	3 288 62
	{
		mov r0, r6
		mov r1, r7
	}
	{
		mov r7, r8
		nop
	}
.Ltmp71:
	bl __divdf3
	.loc	3 288 62
	bl log
	.loc	3 288 62
	{
		mov r2, r4
		mov r3, r5
	}
	bl __divdf3
	.loc	3 288 62
	bl __truncdfsf2
	{
		mov r10, r0
		nop
	}
.Ltmp72:
.LBB0_45:
	{
		nop
		stw r10, r7[4]
	}
	{
		nop
		ldw r0, sp[4]
	}
	{
		nop
		ldw r10, sp[14]
	}
	.loc	3 297 2
	ldd r9, r8, sp[6]
	ldd r7, r6, sp[5]
.Ltmp73:
	ldd r5, r4, sp[4]
	{
		nop
		retsp 16
	}
	# RETURN_REG_HOLDER
.Ltmp74:
	.cc_bottom FLAC__fixed_compute_best_predictor.function
	.set	FLAC__fixed_compute_best_predictor.nstackwords,((__muldf3.nstackwords $M __floatunsidf.nstackwords $M log.nstackwords $M __divdf3.nstackwords $M __truncdfsf2.nstackwords) + 16)
	.globl	FLAC__fixed_compute_best_predictor.nstackwords
	.set	FLAC__fixed_compute_best_predictor.maxcores,log.maxcores $M 1
	.globl	FLAC__fixed_compute_best_predictor.maxcores
	.set	FLAC__fixed_compute_best_predictor.maxtimers,log.maxtimers $M 0
	.globl	FLAC__fixed_compute_best_predictor.maxtimers
	.set	FLAC__fixed_compute_best_predictor.maxchanends,log.maxchanends $M 0
	.globl	FLAC__fixed_compute_best_predictor.maxchanends
.Ltmp75:
	.size	FLAC__fixed_compute_best_predictor, .Ltmp75-FLAC__fixed_compute_best_predictor
.Lfunc_end0:
	.cfi_endproc

	.section	.cp.rodata.cst4,"aMc",@progbits,4
	.cc_top .LCPI1_0.data,.LCPI1_0
	.align	4
	.type	.LCPI1_0,@object
	.size	.LCPI1_0, 4
.LCPI1_0:
	.long	4277811695
	.cc_bottom .LCPI1_0.data
	.cc_top .LCPI1_1.data,.LCPI1_1
	.align	4
	.type	.LCPI1_1,@object
	.size	.LCPI1_1, 4
.LCPI1_1:
	.long	1072049730
	.cc_bottom .LCPI1_1.data
	.text
	.globl	FLAC__fixed_compute_best_predictor_wide
	.align	4
	.type	FLAC__fixed_compute_best_predictor_wide,@function
	.cc_top FLAC__fixed_compute_best_predictor_wide.function,FLAC__fixed_compute_best_predictor_wide
FLAC__fixed_compute_best_predictor_wide:
.Lfunc_begin1:
	.loc	3 305 0
	.cfi_startproc
	.issue_mode dual
	{
		nop
		dualentsp 22
	}
.Ltmp76:
	.cfi_def_cfa_offset 88
.Ltmp77:
	.cfi_offset 15, 0
	std r5, r4, sp[7]
.Ltmp78:
	.cfi_offset 4, -32
.Ltmp79:
	.cfi_offset 5, -28
	std r7, r6, sp[8]
.Ltmp80:
	.cfi_offset 6, -24
.Ltmp81:
	.cfi_offset 7, -20
	std r9, r8, sp[9]
.Ltmp82:
	.cfi_offset 8, -16
.Ltmp83:
	.cfi_offset 9, -12
	{
		nop
		stw r10, sp[20]
	}
.Ltmp84:
	.cfi_offset 10, -8
	{
		nop
		stw r2, sp[2]
	}
.Ltmp85:
	{
		mov r2, r0
		stw r1, sp[3]
	}
.Ltmp86:
	{
		ldc r3, 0
		mkmsk r0, 1
	}
.Ltmp87:
	.loc	3 310 2 prologue_end
	{
		lss r11, r1, r0
		stw r0, sp[4]
	}
	{
		mov r4, r3
		stw r3, sp[9]
	}
	{
		nop
		stw r3, sp[10]
	}
	{
		nop
		stw r3, sp[13]
	}
	{
		nop
		stw r3, sp[8]
	}
	{
		nop
		stw r3, sp[11]
	}
	{
		mov r8, r3
		stw r3, sp[12]
	}
	{
		mov r0, r3
		nop
	}
	bt r11, .LBB1_3
.Ltmp88:
	{
		sub r0, r2, 4
		nop
	}
	{
		nop
		ldw r10, r0[0]
	}
	ldaw r0, r2[-3]
	{
		nop
		ldw r1, r0[0]
	}
	ldaw r2, r2[-4]
.Ltmp89:
	{
		ldc r7, 0
		ldw r11, sp[3]
	}
	{
		mov r3, r7
		mov r4, r7
	}
	{
		nop
		stw r7, sp[9]
	}
	{
		nop
		stw r7, sp[10]
	}
	{
		nop
		stw r7, sp[13]
	}
	{
		nop
		stw r7, sp[8]
	}
	{
		nop
		stw r7, sp[11]
	}
	{
		mov r8, r7
		stw r7, sp[12]
	}
	{
		mov r0, r7
		mov r5, r7
	}
.Ltmp90:
.LBB1_2:
	{
		nop
		stw r3, sp[6]
	}
	{
		nop
		stw r4, sp[7]
	}
	{
		nop
		ldw r9, r2[4]
	}
	.loc	3 311 3
.Ltmp91:
	ashr r7, r9, 32
	{
		add r4, r9, r7
		nop
	}
	.loc	3 311 3
	xor r4, r4, r7
	{
		mov r6, r1
		mov r1, r5
	}
	.loc	3 311 3
	ladd r4, r8, r4, r8, r1
	{
		add r0, r0, r4
		sub r4, r9, r10
	}
	.loc	3 312 3
	ashr r7, r4, 32
	{
		add r4, r4, r7
		nop
	}
	.loc	3 312 3
	xor r4, r4, r7
	{
		nop
		ldw r3, sp[11]
	}
	.loc	3 312 3
	ladd r4, r3, r4, r3, r1
	{
		nop
		stw r3, sp[11]
	}
	{
		nop
		ldw r5, sp[12]
	}
	{
		add r5, r5, r4
		nop
	}
	{
		nop
		stw r5, sp[12]
	}
	.loc	3 313 3
	lda16 r4, r9[-r10]
	{
		nop
		ldw r7, r2[2]
	}
	.loc	3 313 3
	{
		add r4, r4, r7
		nop
	}
	ashr r5, r4, 32
	{
		add r4, r4, r5
		nop
	}
	.loc	3 313 3
	xor r4, r4, r5
	{
		nop
		ldw r3, sp[13]
	}
	.loc	3 313 3
	ladd r4, r3, r4, r3, r1
	{
		nop
		stw r3, sp[13]
	}
	{
		nop
		ldw r5, sp[8]
	}
	{
		add r5, r5, r4
		nop
	}
	{
		sub r4, r7, r10
		stw r5, sp[8]
	}
	lda16 r4, r4[r4]
	.loc	3 314 3
	{
		sub r5, r9, r6
		nop
	}
	.loc	3 314 3
	{
		add r4, r5, r4
		nop
	}
	ashr r5, r4, 32
	{
		add r4, r4, r5
		nop
	}
	.loc	3 314 3
	xor r4, r4, r5
	{
		nop
		ldw r5, sp[9]
	}
	.loc	3 314 3
	ladd r4, r5, r4, r5, r1
	{
		nop
		stw r5, sp[9]
	}
	{
		nop
		ldw r3, sp[10]
	}
	{
		add r3, r3, r4
		nop
	}
	{
		nop
		stw r3, sp[10]
	}
	.loc	3 315 3
	ldaw r4, r9[-r10]
	{
		ldc r3, 6
		nop
	}
	.loc	3 315 3
	mul r5, r7, r3
	.loc	3 315 3
	{
		add r4, r4, r5
		nop
	}
	.loc	3 315 3
	ldaw r4, r4[-r6]
	{
		nop
		ldw r5, r2[0]
	}
	.loc	3 315 3
	{
		add r4, r4, r5
		nop
	}
	ashr r5, r4, 32
	{
		add r4, r4, r5
		nop
	}
	.loc	3 315 3
	xor r4, r4, r5
	{
		nop
		ldw r3, sp[6]
	}
	{
		nop
		ldw r10, sp[7]
	}
	.loc	3 315 3
	ladd r4, r3, r4, r3, r1
	{
		mov r5, r1
		add r10, r10, r4
	}
	{
		mov r4, r10
		sub r11, r11, 1
	}
.Ltmp92:
	.loc	3 310 2
	{
		add r2, r2, 4
		mov r1, r7
	}
	.loc	3 311 3
.Ltmp93:
	{
		mov r10, r9
		nop
	}
	bt r11, .LBB1_2
.Ltmp94:
.LBB1_3:
	{
		mov r5, r3
		stw r0, sp[5]
	}
	{
		mov r7, r4
		mov r9, r8
	}
	{
		nop
		ldw r6, sp[11]
	}
	{
		nop
		ldw r3, sp[13]
	}
	{
		nop
		ldw r1, sp[10]
	}
	{
		nop
		ldw r0, sp[9]
	}
	{
		nop
		ldw r11, sp[8]
	}
	{
		nop
		ldw r8, sp[12]
	}
	.loc	3 319 5
.Ltmp95:
	{
		eq r2, r8, r11
		mov r4, r11
	}
	bt r2, .LBB1_4
.Ltmp96:
	{
		lsu r2, r4, r8
		mov r10, r8
	}
	{
		eq r11, r2, 0
		mov r8, r3
	}
	bu .LBB1_6
.Ltmp97:
.LBB1_4:
	{
		mov r10, r8
		mov r8, r3
	}
	{
		lsu r2, r8, r6
		nop
	}
	{
		eq r11, r2, 0
		nop
	}
.Ltmp98:
.LBB1_6:
	.loc	3 319 5
	{
		mov r2, r6
		stw r6, sp[11]
	}
	bt r11, .LBB1_8
.Ltmp99:
	{
		mov r2, r8
		nop
	}
.Ltmp100:
.LBB1_8:
	{
		mov r3, r10
		nop
	}
	bt r11, .LBB1_10
.Ltmp101:
	{
		mov r3, r4
		nop
	}
.Ltmp102:
.LBB1_10:
	.loc	3 319 5
	{
		eq r11, r3, r1
		nop
	}
	bt r11, .LBB1_11
.Ltmp103:
	{
		lsu r11, r1, r3
		nop
	}
	bu .LBB1_13
.Ltmp104:
.LBB1_11:
	{
		lsu r11, r0, r2
		nop
	}
.Ltmp105:
.LBB1_13:
	{
		eq r11, r11, 0
		nop
	}
.Ltmp106:
	bt r11, .LBB1_15
.Ltmp107:
	.loc	3 319 5
	{
		mov r2, r0
		nop
	}
.Ltmp108:
.LBB1_15:
	bt r11, .LBB1_17
.Ltmp109:
	{
		mov r3, r1
		nop
	}
.Ltmp110:
.LBB1_17:
	{
		mov r8, r4
		stw r8, sp[13]
	}
	.loc	3 319 5
	{
		eq r11, r3, r7
		nop
	}
	bt r11, .LBB1_18
.Ltmp111:
	{
		lsu r11, r7, r3
		nop
	}
	bu .LBB1_20
.LBB1_18:
	{
		lsu r11, r5, r2
		nop
	}
.LBB1_20:
.Ltmp112:
	.loc	3 319 5
	{
		mov r6, r5
		mov r4, r9
	}
	bt r11, .LBB1_22
.Ltmp113:
	{
		mov r6, r2
		nop
	}
.Ltmp114:
.LBB1_22:
	{
		mov r2, r7
		nop
	}
	bt r11, .LBB1_24
.Ltmp115:
	{
		mov r2, r3
		nop
	}
.Ltmp116:
.LBB1_24:
	{
		nop
		ldw r11, sp[5]
	}
	.loc	3 319 5
	{
		eq r3, r11, r2
		nop
	}
	bt r3, .LBB1_25
.Ltmp117:
	{
		lsu r2, r2, r11
		nop
	}
	bu .LBB1_27
.Ltmp118:
.LBB1_25:
	{
		lsu r2, r6, r4
		nop
	}
.Ltmp119:
.LBB1_27:
	{
		eq r2, r2, 0
		mov r6, r8
	}
	bt r2, .LBB1_28
.Ltmp120:
	.loc	3 321 10
	{
		eq r2, r6, r1
		nop
	}
	bt r2, .LBB1_30
.Ltmp121:
	{
		lsu r2, r1, r6
		nop
	}
	{
		eq r11, r2, 0
		ldw r3, sp[13]
	}
	bu .LBB1_32
.Ltmp122:
.LBB1_28:
	{
		ldc r2, 0
		nop
	}
	{
		nop
		stw r2, sp[4]
	}
	{
		nop
		ldw r8, sp[11]
	}
	{
		nop
		ldw r9, sp[3]
	}
.Ltmp123:
	bu .LBB1_67
.Ltmp124:
.LBB1_30:
	{
		nop
		ldw r3, sp[13]
	}
	{
		lsu r2, r0, r3
		nop
	}
	{
		eq r11, r2, 0
		nop
	}
.Ltmp125:
.LBB1_32:
	.loc	3 321 10
	{
		mov r2, r3
		stw r3, sp[13]
	}
	{
		nop
		ldw r8, sp[11]
	}
	bt r11, .LBB1_34
.Ltmp126:
	{
		mov r2, r0
		nop
	}
.Ltmp127:
.LBB1_34:
	{
		mov r3, r6
		nop
	}
	bt r11, .LBB1_36
.Ltmp128:
	{
		mov r3, r1
		nop
	}
.Ltmp129:
.LBB1_36:
	{
		mov r9, r6
		eq r11, r3, r7
	}
	.loc	3 321 10
	bt r11, .LBB1_37
.Ltmp130:
	{
		lsu r11, r7, r3
		nop
	}
	bu .LBB1_39
.LBB1_37:
	{
		lsu r11, r5, r2
		nop
	}
.LBB1_39:
.Ltmp131:
	.loc	3 321 10
	{
		mov r6, r5
		nop
	}
	bt r11, .LBB1_41
.Ltmp132:
	{
		mov r6, r2
		nop
	}
.Ltmp133:
.LBB1_41:
	{
		mov r2, r7
		nop
	}
	bt r11, .LBB1_43
.Ltmp134:
	{
		mov r2, r3
		nop
	}
.Ltmp135:
.LBB1_43:
	.loc	3 321 10
	{
		eq r3, r10, r2
		nop
	}
	bt r3, .LBB1_44
.Ltmp136:
	{
		lsu r2, r2, r10
		nop
	}
	bu .LBB1_46
.Ltmp137:
.LBB1_44:
	{
		lsu r2, r6, r8
		nop
	}
.Ltmp138:
.LBB1_46:
	{
		eq r2, r2, 0
		mov r6, r9
	}
	{
		nop
		ldw r11, sp[5]
	}
.Ltmp139:
	{
		nop
		ldw r9, sp[3]
	}
.Ltmp140:
	bt r2, .LBB1_67
.Ltmp141:
	{
		mov r8, r6
		eq r3, r1, r7
	}
	.loc	3 323 10
.Ltmp142:
	{
		lsu r2, r5, r0
		lsu r6, r7, r1
	}
	{
		nop
		stw r3, sp[10]
	}
	bt r3, .LBB1_48
.Ltmp143:
	{
		eq r6, r6, 0
		stw r6, sp[8]
	}
	bu .LBB1_50
.Ltmp144:
.LBB1_48:
	{
		eq r6, r2, 0
		stw r6, sp[8]
	}
.Ltmp145:
.LBB1_50:
	{
		nop
		stw r2, sp[9]
	}
	{
		nop
		stw r11, sp[5]
	}
.Ltmp146:
	{
		mov r2, r9
		stw r10, sp[12]
	}
.Ltmp147:
	.loc	3 323 10
	{
		mov r11, r0
		nop
	}
	bt r6, .LBB1_52
.Ltmp148:
	{
		mov r11, r5
		nop
	}
.Ltmp149:
.LBB1_52:
	{
		mov r3, r4
		ldw r10, sp[13]
	}
	{
		mov r9, r1
		nop
	}
	bt r6, .LBB1_54
.Ltmp150:
	{
		mov r9, r7
		nop
	}
.Ltmp151:
.LBB1_54:
	.loc	3 323 10
	{
		eq r4, r8, r9
		nop
	}
	bt r4, .LBB1_55
.Ltmp152:
	{
		lsu r4, r9, r8
		nop
	}
	bu .LBB1_57
.Ltmp153:
.LBB1_55:
	{
		lsu r4, r11, r10
		nop
	}
.Ltmp154:
.LBB1_57:
	{
		eq r6, r4, 0
		mov r9, r2
	}
.Ltmp155:
	{
		mov r4, r3
		nop
	}
	bt r6, .LBB1_58
.Ltmp156:
	{
		nop
		ldw r2, sp[10]
	}
	bt r2, .LBB1_60
.Ltmp157:
	{
		nop
		ldw r2, sp[8]
	}
	bu .LBB1_62
.Ltmp158:
.LBB1_58:
	{
		ldc r2, 2
		nop
	}
	{
		mov r6, r8
		stw r2, sp[4]
	}
	bu .LBB1_66
.Ltmp159:
.LBB1_60:
	{
		nop
		ldw r2, sp[9]
	}
.Ltmp160:
.LBB1_62:
	{
		eq r2, r2, 0
		mov r6, r8
	}
	.loc	3 326 3
.Ltmp161:
	bt r2, .LBB1_63
.Ltmp162:
	{
		ldc r2, 4
		nop
	}
	bu .LBB1_65
.Ltmp163:
.LBB1_63:
	{
		mkmsk r2, 2
		nop
	}
.Ltmp164:
.LBB1_65:
	{
		nop
		stw r2, sp[4]
	}
.LBB1_66:
	{
		nop
		ldw r8, sp[11]
	}
	{
		nop
		ldw r10, sp[12]
	}
	{
		nop
		ldw r11, sp[5]
	}
.LBB1_67:
.Ltmp165:
	bt r9, .LBB1_69
.Ltmp166:
	{
		or r2, r4, r11
		nop
	}
	.loc	3 333 2
.Ltmp167:
	{
		ecallt r2
		nop
	}
.Ltmp168:
.LBB1_69:
	bt r9, .LBB1_71
.Ltmp169:
	{
		or r2, r8, r10
		nop
	}
	.loc	3 334 2
.Ltmp170:
	{
		ecallt r2
		nop
	}
.Ltmp171:
.LBB1_71:
	bt r9, .LBB1_73
.Ltmp172:
	{
		nop
		ldw r2, sp[13]
	}
	{
		or r2, r2, r6
		nop
	}
	.loc	3 335 2
.Ltmp173:
	{
		ecallt r2
		nop
	}
.Ltmp174:
.LBB1_73:
	{
		nop
		stw r10, sp[12]
	}
	bt r9, .LBB1_75
.Ltmp175:
	{
		or r2, r0, r1
		nop
	}
	.loc	3 336 2
.Ltmp176:
	{
		ecallt r2
		nop
	}
.Ltmp177:
.LBB1_75:
	{
		nop
		ldw r10, sp[2]
	}
.Ltmp178:
	bt r9, .LBB1_77
.Ltmp179:
	{
		or r2, r5, r7
		nop
	}
	.loc	3 337 2
.Ltmp180:
	{
		ecallt r2
		nop
	}
.Ltmp181:
.LBB1_77:
	{
		nop
		stw r1, sp[10]
	}
	{
		nop
		stw r0, sp[9]
	}
	{
		nop
		stw r7, sp[7]
	}
	{
		or r3, r4, r11
		stw r5, sp[6]
	}
	{
		ldc r7, 0
		nop
	}
	{
		mov r2, r7
		nop
	}
	bf r3, .LBB1_79
.Ltmp182:
	.loc	3 339 62
	{
		mov r0, r4
		mov r1, r11
	}
	bl __floatundidf
	ldw r4, cp[.LCPI1_0]
	ldw r5, cp[.LCPI1_1]
	.loc	3 339 62
	{
		mov r2, r4
		mov r3, r5
	}
	bl __muldf3
	{
		nop
		stw r0, sp[8]
	}
	{
		mov r0, r9
		stw r1, sp[5]
	}
	.loc	3 339 62
	bl __floatunsidf
	{
		mov r2, r0
		mov r3, r1
	}
	{
		nop
		ldw r0, sp[8]
	}
	{
		nop
		ldw r1, sp[5]
	}
	.loc	3 339 62
	bl __divdf3
	.loc	3 339 62
	bl log
	.loc	3 339 62
	{
		mov r2, r4
		mov r3, r5
	}
	bl __divdf3
	.loc	3 339 62
	bl __truncdfsf2
	{
		mov r2, r0
		nop
	}
.Ltmp183:
.LBB1_79:
	{
		nop
		ldw r1, sp[12]
	}
	{
		or r3, r8, r1
		stw r2, r10[0]
	}
	{
		mov r0, r7
		nop
	}
	bf r3, .LBB1_81
.Ltmp184:
	.loc	3 340 62
	{
		mov r0, r8
		nop
	}
	bl __floatundidf
	ldw r2, cp[.LCPI1_0]
	ldw r3, cp[.LCPI1_1]
.Ltmp185:
	{
		mov r10, r2
		mov r4, r3
	}
	.loc	3 340 62
	bl __muldf3
	{
		mov r5, r0
		mov r8, r1
	}
	.loc	3 340 62
	{
		mov r0, r9
		nop
	}
	bl __floatunsidf
	{
		mov r2, r0
		mov r3, r1
	}
	.loc	3 340 62
	{
		mov r0, r5
		mov r1, r8
	}
	bl __divdf3
	.loc	3 340 62
	bl log
.Ltmp186:
	.loc	3 340 62
	{
		mov r2, r10
		ldw r10, sp[2]
	}
.Ltmp187:
	{
		mov r3, r4
		nop
	}
	bl __divdf3
	.loc	3 340 62
	bl __truncdfsf2
.Ltmp188:
.LBB1_81:
	{
		nop
		ldw r2, sp[13]
	}
	{
		or r1, r2, r6
		stw r0, r10[1]
	}
	{
		mov r0, r7
		nop
	}
	bf r1, .LBB1_83
.Ltmp189:
	.loc	3 341 62
	{
		mov r0, r2
		mov r1, r6
	}
	bl __floatundidf
	ldw r4, cp[.LCPI1_0]
	ldw r5, cp[.LCPI1_1]
	.loc	3 341 62
	{
		mov r2, r4
		mov r3, r5
	}
	bl __muldf3
	{
		mov r6, r0
		mov r8, r1
	}
	.loc	3 341 62
	{
		mov r0, r9
		nop
	}
	bl __floatunsidf
	{
		mov r2, r0
		mov r3, r1
	}
	.loc	3 341 62
	{
		mov r0, r6
		mov r1, r8
	}
	bl __divdf3
	.loc	3 341 62
	bl log
	.loc	3 341 62
	{
		mov r2, r4
		mov r3, r5
	}
	bl __divdf3
	.loc	3 341 62
	bl __truncdfsf2
.Ltmp190:
.LBB1_83:
	{
		nop
		ldw r2, sp[9]
	}
	{
		nop
		ldw r1, sp[10]
	}
	{
		or r3, r2, r1
		stw r0, r10[2]
	}
	{
		mov r0, r7
		nop
	}
	bf r3, .LBB1_85
.Ltmp191:
	.loc	3 342 62
	{
		mov r0, r2
		nop
	}
	bl __floatundidf
	ldw r4, cp[.LCPI1_0]
	ldw r5, cp[.LCPI1_1]
	.loc	3 342 62
	{
		mov r2, r4
		mov r3, r5
	}
	bl __muldf3
	{
		mov r6, r0
		mov r8, r1
	}
	.loc	3 342 62
	{
		mov r0, r9
		nop
	}
	bl __floatunsidf
	{
		mov r2, r0
		mov r3, r1
	}
	.loc	3 342 62
	{
		mov r0, r6
		mov r1, r8
	}
	bl __divdf3
	.loc	3 342 62
	bl log
	.loc	3 342 62
	{
		mov r2, r4
		mov r3, r5
	}
	bl __divdf3
	.loc	3 342 62
	bl __truncdfsf2
.Ltmp192:
.LBB1_85:
	{
		nop
		ldw r2, sp[6]
	}
	{
		nop
		ldw r1, sp[7]
	}
	{
		or r3, r2, r1
		stw r0, r10[3]
	}
	bf r3, .LBB1_87
.Ltmp193:
	.loc	3 343 62
	{
		mov r0, r2
		nop
	}
	bl __floatundidf
	ldw r4, cp[.LCPI1_0]
	ldw r5, cp[.LCPI1_1]
	.loc	3 343 62
	{
		mov r2, r4
		mov r3, r5
	}
	bl __muldf3
	{
		mov r6, r0
		mov r7, r1
	}
	.loc	3 343 62
	{
		mov r0, r9
		nop
	}
	bl __floatunsidf
	{
		mov r2, r0
		mov r3, r1
	}
	.loc	3 343 62
	{
		mov r0, r6
		mov r1, r7
	}
	bl __divdf3
	.loc	3 343 62
	bl log
	.loc	3 343 62
	{
		mov r2, r4
		mov r3, r5
	}
	bl __divdf3
	.loc	3 343 62
	bl __truncdfsf2
	{
		mov r7, r0
		nop
	}
.Ltmp194:
.LBB1_87:
	{
		nop
		stw r7, r10[4]
	}
	{
		nop
		ldw r0, sp[4]
	}
	{
		nop
		ldw r10, sp[20]
	}
.Ltmp195:
	.loc	3 352 2
	ldd r9, r8, sp[9]
	ldd r7, r6, sp[8]
	ldd r5, r4, sp[7]
	{
		nop
		retsp 22
	}
	# RETURN_REG_HOLDER
.Ltmp196:
	.cc_bottom FLAC__fixed_compute_best_predictor_wide.function
	.set	FLAC__fixed_compute_best_predictor_wide.nstackwords,((__floatundidf.nstackwords $M __muldf3.nstackwords $M __floatunsidf.nstackwords $M log.nstackwords $M __divdf3.nstackwords $M __truncdfsf2.nstackwords) + 22)
	.globl	FLAC__fixed_compute_best_predictor_wide.nstackwords
	.set	FLAC__fixed_compute_best_predictor_wide.maxcores,log.maxcores $M 1
	.globl	FLAC__fixed_compute_best_predictor_wide.maxcores
	.set	FLAC__fixed_compute_best_predictor_wide.maxtimers,log.maxtimers $M 0
	.globl	FLAC__fixed_compute_best_predictor_wide.maxtimers
	.set	FLAC__fixed_compute_best_predictor_wide.maxchanends,log.maxchanends $M 0
	.globl	FLAC__fixed_compute_best_predictor_wide.maxchanends
.Ltmp197:
	.size	FLAC__fixed_compute_best_predictor_wide, .Ltmp197-FLAC__fixed_compute_best_predictor_wide
.Lfunc_end1:
	.cfi_endproc

	.section	.cp.rodata.cst4,"aMc",@progbits,4
	.cc_top .LCPI2_0.data,.LCPI2_0
	.align	4
	.type	.LCPI2_0,@object
	.size	.LCPI2_0, 4
.LCPI2_0:
	.long	1107820544
	.cc_bottom .LCPI2_0.data
	.cc_top .LCPI2_1.data,.LCPI2_1
	.align	4
	.type	.LCPI2_1,@object
	.size	.LCPI2_1, 4
.LCPI2_1:
	.long	4277811695
	.cc_bottom .LCPI2_1.data
	.cc_top .LCPI2_2.data,.LCPI2_2
	.align	4
	.type	.LCPI2_2,@object
	.size	.LCPI2_2, 4
.LCPI2_2:
	.long	1072049730
	.cc_bottom .LCPI2_2.data
	.text
	.globl	FLAC__fixed_compute_best_predictor_limit_residual
	.align	4
	.type	FLAC__fixed_compute_best_predictor_limit_residual,@function
	.cc_top FLAC__fixed_compute_best_predictor_limit_residual.function,FLAC__fixed_compute_best_predictor_limit_residual
FLAC__fixed_compute_best_predictor_limit_residual:
.Lfunc_begin2:
	.loc	3 381 0
	.cfi_startproc
	.issue_mode dual
	{
		nop
		dualentsp 40
	}
.Ltmp198:
	.cfi_def_cfa_offset 160
.Ltmp199:
	.cfi_offset 15, 0
	{
		nop
		stw r4, sp[32]
	}
	{
		nop
		stw r5, sp[33]
	}
.Ltmp200:
	.cfi_offset 4, -32
.Ltmp201:
	.cfi_offset 5, -28
	{
		nop
		stw r6, sp[34]
	}
	{
		nop
		stw r7, sp[35]
	}
.Ltmp202:
	.cfi_offset 6, -24
.Ltmp203:
	.cfi_offset 7, -20
	{
		nop
		stw r8, sp[36]
	}
	{
		nop
		stw r9, sp[37]
	}
.Ltmp204:
	.cfi_offset 8, -16
.Ltmp205:
	.cfi_offset 9, -12
.Ltmp206:
	.cfi_offset 10, -8
.Ltmp207:
	{
		mov r7, r2
		stw r10, sp[38]
	}
.Ltmp208:
	{
		mkmsk r2, 1
		stw r1, sp[8]
	}
	.loc	3 388 2 prologue_end
.Ltmp209:
	{
		lss r1, r1, r2
		nop
	}
.Ltmp210:
	bt r1, .LBB2_1
.Ltmp211:
	{
		nop
		stw r7, sp[2]
	}
.Ltmp212:
	ldaw r0, r0[-4]
.Ltmp213:
	{
		ldc r3, 0
		mkmsk r1, 1
	}
	{
		mov r11, r3
		mov r7, r1
	}
	{
		mov r9, r1
		mov r10, r1
	}
	{
		nop
		stw r1, sp[14]
	}
	{
		nop
		stw r1, sp[13]
	}
	{
		nop
		stw r3, sp[17]
	}
	{
		nop
		stw r3, sp[22]
	}
	{
		nop
		stw r3, sp[21]
	}
	{
		nop
		stw r3, sp[19]
	}
	{
		nop
		stw r3, sp[26]
	}
	{
		nop
		stw r3, sp[23]
	}
	{
		nop
		stw r3, sp[25]
	}
	{
		nop
		stw r3, sp[20]
	}
	{
		nop
		stw r3, sp[18]
	}
	{
		nop
		stw r3, sp[24]
	}
.Ltmp214:
.LBB2_3:
	{
		nop
		ldw r5, r0[4]
	}
	.loc	3 389 3
.Ltmp215:
	ashr r1, r5, 32
	.loc	3 389 3
	lsub r2, r4, r3, r5, r3
	lsub r2, r8, r3, r1, r2
	bt r1, .LBB2_5
.Ltmp216:
	.loc	3 389 3
	{
		mov r4, r5
		nop
	}
.Ltmp217:
.LBB2_5:
	{
		nop
		stw r4, sp[15]
	}
	{
		nop
		stw r10, sp[10]
	}
	{
		nop
		stw r9, sp[11]
	}
	{
		nop
		stw r7, sp[12]
	}
	bt r1, .LBB2_7
.Ltmp218:
	{
		mov r8, r1
		nop
	}
.Ltmp219:
.LBB2_7:
	{
		mkmsk r1, 1
		nop
	}
	.loc	3 390 3
	{
		lss r6, r11, r1
		stw r11, sp[31]
	}
	{
		mov r4, r3
		mov r10, r3
	}
	{
		mov r11, r3
		mov r1, r3
	}
	{
		mov r2, r3
		mov r7, r3
	}
	{
		mov r9, r3
		nop
	}
	{
		nop
		stw r9, sp[29]
	}
	bt r6, .LBB2_17
.Ltmp220:
	{
		nop
		stw r8, sp[9]
	}
	ashr r1, r5, 32
	{
		nop
		stw r1, sp[7]
	}
	{
		nop
		ldw r10, r0[3]
	}
	.loc	3 390 3
	ashr r3, r10, 32
	{
		nop
		stw r3, sp[29]
	}
	.loc	3 390 3
	lsub r4, r2, r5, r10, r9
	lsub r6, r4, r1, r3, r4
	ashr r6, r4, 32
	ladd r7, r2, r2, r6, r9
	ladd r7, r4, r4, r6, r7
	.loc	3 390 3
	xor r11, r2, r6
	xor r1, r4, r6
	{
		ldc r2, 2
		ldw r8, sp[31]
	}
	.loc	3 391 3
	{
		lss r2, r8, r2
		mov r3, r9
	}
	bt r2, .LBB2_9
.Ltmp221:
	{
		nop
		stw r1, sp[6]
	}
	{
		mov r4, r0
		stw r11, sp[5]
	}
	{
		mkmsk r0, 5
		nop
	}
	.loc	3 391 3
	{
		shr r2, r10, r0
		mov r0, r4
	}
	{
		nop
		ldw r1, sp[29]
	}
	{
		shl r4, r1, 1
		nop
	}
	{
		or r2, r4, r2
		shl r4, r10, 1
	}
	.loc	3 391 3
	lsub r6, r4, r5, r4, r3
	{
		nop
		ldw r1, sp[7]
	}
	lsub r2, r6, r1, r2, r6
	{
		nop
		ldw r1, r0[2]
	}
	{
		nop
		stw r1, sp[4]
	}
	.loc	3 391 3
	ashr r11, r1, 32
	.loc	3 391 3
	ladd r7, r4, r4, r1, r3
	ladd r7, r6, r6, r11, r7
	ashr r2, r6, 32
	ladd r7, r4, r4, r2, r3
	ladd r7, r6, r6, r2, r7
	.loc	3 391 3
	xor r7, r6, r2
	xor r1, r4, r2
	{
		mkmsk r1, 2
		stw r1, sp[30]
	}
	.loc	3 392 3
	{
		lss r2, r8, r1
		nop
	}
	bt r2, .LBB2_11
.Ltmp222:
	{
		nop
		ldw r9, r0[1]
	}
	.loc	3 392 3
	{
		mov r6, r11
		stw r9, sp[3]
	}
	ashr r11, r9, 32
	{
		nop
		ldw r2, sp[4]
	}
	lsub r4, r2, r2, r10, r3
	{
		nop
		stw r2, sp[28]
	}
	{
		nop
		ldw r2, sp[29]
	}
	lsub r6, r4, r6, r2, r4
	lda16 r2, r4[r4]
	{
		nop
		stw r2, sp[27]
	}
	.loc	3 392 3
	lsub r6, r2, r5, r9, r3
	{
		nop
		ldw r9, sp[7]
	}
	lsub r6, r4, r9, r11, r6
	{
		nop
		ldw r6, sp[28]
	}
	.loc	3 392 3
	maccu r4, r2, r6, r1
	{
		nop
		ldw r1, sp[27]
	}
	{
		add r4, r4, r1
		nop
	}
	ashr r6, r4, 32
	ladd r2, r1, r2, r6, r3
	ladd r2, r4, r4, r6, r2
	.loc	3 392 3
	xor r1, r1, r6
	{
		nop
		stw r1, sp[28]
	}
	xor r1, r4, r6
	{
		ldc r1, 4
		stw r1, sp[27]
	}
	.loc	3 393 3
	{
		lss r6, r8, r1
		nop
	}
	bt r6, .LBB2_13
.Ltmp223:
	{
		ldc r1, 30
		nop
	}
	{
		mov r4, r1
		nop
	}
	.loc	3 393 3
	{
		shr r6, r10, r4
		ldw r1, sp[29]
	}
	{
		shl r1, r1, 2
		nop
	}
	{
		or r1, r1, r6
		shl r6, r10, 2
	}
	.loc	3 393 3
	lsub r5, r6, r5, r6, r3
	lsub r1, r5, r9, r1, r5
	{
		ldc r1, 6
		ldw r2, sp[4]
	}
	.loc	3 393 3
	maccs r5, r6, r2, r1
	{
		nop
		ldw r2, sp[3]
	}
	.loc	3 393 3
	{
		shr r1, r2, r4
		shl r9, r11, 2
	}
	{
		or r1, r9, r1
		shl r9, r2, 2
	}
	.loc	3 393 3
	lsub r9, r6, r6, r9, r3
	lsub r5, r1, r5, r1, r9
	{
		nop
		ldw r5, r0[0]
	}
	.loc	3 393 3
	ashr r9, r5, 32
	.loc	3 393 3
	ladd r6, r5, r6, r5, r3
	ladd r6, r1, r1, r9, r6
	ashr r6, r1, 32
	ladd r9, r5, r5, r6, r3
	ladd r9, r1, r1, r6, r9
	.loc	3 393 3
	xor r1, r1, r6
	{
		mov r9, r3
		stw r1, sp[29]
	}
	xor r3, r5, r6
	bu .LBB2_15
.Ltmp224:
.LBB2_9:
	{
		mov r4, r3
		mov r10, r3
	}
	{
		mov r2, r3
		mov r7, r3
	}
	{
		mov r9, r3
		nop
	}
	{
		nop
		stw r9, sp[29]
	}
	{
		nop
		ldw r8, sp[9]
	}
	bu .LBB2_17
.Ltmp225:
.LBB2_11:
	{
		mov r4, r3
		mov r10, r3
	}
	{
		mov r9, r3
		nop
	}
	{
		nop
		stw r9, sp[29]
	}
	{
		nop
		ldw r11, sp[5]
	}
	{
		nop
		ldw r8, sp[9]
	}
	{
		nop
		ldw r2, sp[30]
	}
	bu .LBB2_16
.Ltmp226:
.LBB2_13:
	{
		mov r9, r3
		nop
	}
	{
		nop
		stw r9, sp[29]
	}
.Ltmp227:
.LBB2_15:
	{
		nop
		ldw r11, sp[5]
	}
	{
		nop
		ldw r8, sp[9]
	}
	{
		nop
		ldw r2, sp[30]
	}
	{
		nop
		ldw r4, sp[28]
	}
	{
		nop
		ldw r10, sp[27]
	}
.LBB2_16:
	{
		nop
		ldw r1, sp[6]
	}
.LBB2_17:
.Ltmp228:
	{
		nop
		stw r10, sp[27]
	}
	{
		nop
		stw r2, sp[30]
	}
	{
		nop
		stw r4, sp[28]
	}
	{
		nop
		stw r0, sp[16]
	}
	.loc	3 395 3
	{
		mov r0, r2
		ldw r6, sp[17]
	}
	{
		nop
		ldw r2, sp[15]
	}
	ladd r5, r6, r2, r6, r9
	{
		nop
		stw r6, sp[17]
	}
	{
		nop
		ldw r6, sp[22]
	}
	ladd r5, r6, r8, r6, r5
	{
		nop
		stw r6, sp[22]
	}
	{
		nop
		ldw r6, sp[21]
	}
	.loc	3 396 3
	ladd r5, r6, r11, r6, r9
	{
		nop
		stw r6, sp[21]
	}
	{
		nop
		ldw r6, sp[19]
	}
	ladd r5, r6, r1, r6, r5
	{
		nop
		stw r6, sp[19]
	}
	{
		nop
		ldw r6, sp[26]
	}
	.loc	3 397 3
	ladd r5, r6, r0, r6, r9
	{
		mov r0, r7
		mov r7, r1
	}
	{
		mov r1, r10
		mov r10, r4
	}
	{
		mov r4, r0
		stw r6, sp[26]
	}
	{
		nop
		ldw r6, sp[23]
	}
	ladd r5, r6, r4, r6, r5
	{
		nop
		stw r6, sp[23]
	}
	{
		nop
		ldw r6, sp[25]
	}
	.loc	3 398 3
	ladd r5, r6, r10, r6, r9
	{
		nop
		stw r6, sp[25]
	}
	{
		nop
		ldw r6, sp[20]
	}
	ladd r5, r6, r1, r6, r5
	{
		nop
		stw r6, sp[20]
	}
	{
		nop
		ldw r6, sp[18]
	}
	.loc	3 399 3
	ladd r5, r6, r3, r6, r9
	{
		nop
		stw r6, sp[18]
	}
	{
		nop
		ldw r6, sp[24]
	}
	{
		nop
		ldw r1, sp[29]
	}
	ladd r5, r6, r1, r6, r5
	.loc	3 402 6
.Ltmp229:
	{
		mkmsk r0, 5
		stw r6, sp[24]
	}
	{
		shr r5, r8, r0
		shr r6, r2, r0
	}
	{
		shl r8, r8, 1
		nop
	}
	{
		or r6, r6, r8
		nop
	}
.Ltmp230:
	{
		or r5, r6, r5
		mov r2, r9
	}
	bt r5, .LBB2_19
.Ltmp231:
	{
		nop
		ldw r2, sp[13]
	}
.Ltmp232:
.LBB2_19:
	{
		shr r5, r7, r0
		stw r2, sp[15]
	}
	.loc	3 404 6
.Ltmp233:
	{
		shr r6, r11, r0
		shl r10, r7, 1
	}
	{
		or r6, r6, r10
		nop
	}
.Ltmp234:
	{
		or r6, r6, r5
		mov r2, r9
	}
	bt r6, .LBB2_21
.Ltmp235:
	{
		nop
		ldw r2, sp[14]
	}
.Ltmp236:
.LBB2_21:
	{
		mov r8, r2
		mov r5, r1
	}
	.loc	3 406 6
.Ltmp237:
	{
		shr r6, r4, r0
		ldw r2, sp[30]
	}
	{
		shr r10, r2, r0
		shl r7, r4, 1
	}
	{
		or r7, r10, r7
		nop
	}
.Ltmp238:
	{
		or r7, r7, r6
		mov r6, r9
	}
	{
		nop
		ldw r11, sp[31]
	}
	bt r7, .LBB2_23
.Ltmp239:
	{
		nop
		ldw r6, sp[10]
	}
.Ltmp240:
.LBB2_23:
	{
		nop
		ldw r1, sp[27]
	}
	.loc	3 408 6
.Ltmp241:
	{
		shr r7, r1, r0
		ldw r2, sp[28]
	}
	{
		shr r2, r2, r0
		shl r4, r1, 1
	}
	{
		or r2, r2, r4
		nop
	}
.Ltmp242:
	{
		or r2, r2, r7
		mov r4, r9
	}
	bt r2, .LBB2_25
.Ltmp243:
	{
		nop
		ldw r4, sp[11]
	}
.Ltmp244:
.LBB2_25:
	.loc	3 410 6
	{
		shr r2, r5, r0
		shr r7, r3, r0
	}
	{
		shl r1, r5, 1
		nop
	}
	{
		or r1, r7, r1
		nop
	}
.Ltmp245:
	{
		or r1, r1, r2
		mov r2, r9
	}
	{
		mov r3, r9
		nop
	}
	bt r1, .LBB2_27
.Ltmp246:
	{
		nop
		ldw r2, sp[12]
	}
.Ltmp247:
.LBB2_27:
	.loc	3 388 32
	{
		add r11, r11, 1
		ldw r0, sp[16]
	}
.Ltmp248:
	.loc	3 388 2
	{
		add r0, r0, 4
		ldw r1, sp[8]
	}
	.loc	3 388 2
	{
		eq r1, r1, r11
		mov r7, r2
	}
	{
		mov r9, r4
		mov r10, r6
	}
	{
		mov r5, r8
		nop
	}
	{
		nop
		stw r5, sp[14]
	}
	{
		nop
		ldw r8, sp[15]
	}
	{
		nop
		stw r8, sp[13]
	}
	bf r1, .LBB2_3
.Ltmp249:
	{
		eq r1, r8, 0
		stw r2, sp[31]
	}
	{
		nop
		ldw r7, sp[2]
	}
.Ltmp250:
	{
		nop
		ldw r8, sp[17]
	}
	{
		nop
		ldw r11, sp[22]
	}
	bu .LBB2_29
.Ltmp251:
.LBB2_1:
	{
		ldc r1, 0
		mov r4, r2
	}
	{
		mov r6, r2
		mov r5, r2
	}
	{
		mov r8, r1
		stw r2, sp[31]
	}
	{
		mov r11, r1
		stw r1, sp[21]
	}
	{
		nop
		stw r1, sp[19]
	}
	{
		nop
		stw r1, sp[26]
	}
	{
		nop
		stw r1, sp[23]
	}
	{
		nop
		stw r1, sp[25]
	}
	{
		nop
		stw r1, sp[20]
	}
	{
		nop
		stw r1, sp[18]
	}
	{
		nop
		stw r1, sp[24]
	}
.Ltmp252:
.LBB2_29:
	{
		mkmsk r2, 32
		nop
	}
	ldw r0, cp[.LCPI2_0]
	.loc	3 414 2
.Ltmp253:
	bt r1, .LBB2_30
.Ltmp254:
	{
		and r1, r8, r11
		mkmsk r3, 32
	}
	{
		eq r3, r1, r3
		mov r1, r2
	}
	bt r3, .LBB2_35
.Ltmp255:
	.loc	3 414 2
	{
		or r0, r8, r11
		nop
	}
	.loc	3 414 2
	bf r0, .LBB2_33
.Ltmp256:
	.loc	3 414 2
	{
		mov r0, r8
		mov r1, r11
	}
	{
		nop
		stw r11, sp[22]
	}
	bl __floatundidf
	ldw r2, cp[.LCPI2_1]
	ldw r3, cp[.LCPI2_2]
	{
		mov r9, r2
		mov r10, r3
	}
	.loc	3 414 2
	bl __muldf3
	{
		nop
		stw r0, sp[30]
	}
	{
		nop
		stw r1, sp[29]
	}
	{
		nop
		ldw r0, sp[8]
	}
	.loc	3 414 2
	bl __floatunsidf
	{
		mov r2, r0
		mov r3, r1
	}
	{
		nop
		ldw r0, sp[30]
	}
	{
		nop
		ldw r1, sp[29]
	}
	.loc	3 414 2
	bl __divdf3
	.loc	3 414 2
	bl log
	.loc	3 414 2
	{
		mov r2, r9
		mov r3, r10
	}
	bl __divdf3
	.loc	3 414 2
	bl __truncdfsf2
	{
		mov r2, r8
		ldw r11, sp[22]
	}
	{
		mov r1, r11
		nop
	}
	bu .LBB2_35
.Ltmp257:
.LBB2_30:
	{
		mov r1, r2
		nop
	}
	bu .LBB2_35
.Ltmp258:
.LBB2_33:
	{
		ldc r0, 0
		nop
	}
	{
		mov r2, r0
		mov r1, r0
	}
.Ltmp259:
.LBB2_35:
	{
		nop
		stw r0, r7[0]
	}
	{
		nop
		ldw r3, sp[23]
	}
	bf r5, .LBB2_44
.Ltmp260:
	{
		nop
		ldw r5, sp[19]
	}
	{
		eq r0, r5, r1
		nop
	}
	bt r0, .LBB2_37
.Ltmp261:
	{
		lsu r0, r5, r1
		mov r10, r5
	}
	bu .LBB2_39
.Ltmp262:
.LBB2_37:
	{
		mov r10, r5
		ldw r0, sp[21]
	}
	{
		lsu r0, r0, r2
		nop
	}
.Ltmp263:
.LBB2_39:
	{
		eq r0, r0, 0
		nop
	}
.Ltmp264:
	bt r0, .LBB2_44
.Ltmp265:
	{
		mov r9, r3
		or r0, r8, r11
	}
	.loc	3 415 2
.Ltmp266:
	bf r0, .LBB2_41
.Ltmp267:
	.loc	3 415 2
	{
		mov r0, r8
		mov r1, r11
	}
	{
		mov r5, r11
		nop
	}
	bl __floatundidf
	ldw r2, cp[.LCPI2_1]
	ldw r3, cp[.LCPI2_2]
	.loc	3 415 2
	bl __muldf3
	{
		nop
		stw r0, sp[30]
	}
	{
		nop
		stw r1, sp[29]
	}
	{
		nop
		ldw r0, sp[8]
	}
	.loc	3 415 2
	bl __floatunsidf
	{
		mov r2, r0
		mov r3, r1
	}
	{
		nop
		ldw r0, sp[30]
	}
	{
		nop
		ldw r1, sp[29]
	}
	.loc	3 415 2
	bl __divdf3
	.loc	3 415 2
	bl log
	ldw r2, cp[.LCPI2_1]
	ldw r3, cp[.LCPI2_2]
	.loc	3 415 2
	bl __divdf3
	.loc	3 415 2
	bl __truncdfsf2
	bu .LBB2_43
.Ltmp268:
.LBB2_44:
	ldw r0, cp[.LCPI2_0]
	.loc	3 415 2
	{
		ldc r0, 0
		stw r0, r7[1]
	}
	{
		mov r10, r1
		nop
	}
	bu .LBB2_45
.Ltmp269:
.LBB2_41:
	{
		mov r5, r11
		ldc r0, 0
	}
.Ltmp270:
.LBB2_43:
	{
		mov r3, r9
		ldw r2, sp[21]
	}
	.loc	3 415 2
.Ltmp271:
	{
		mkmsk r0, 1
		stw r0, r7[1]
	}
	{
		mov r11, r5
		nop
	}
.Ltmp272:
.LBB2_45:
	bf r6, .LBB2_54
.Ltmp273:
	{
		eq r1, r3, r10
		nop
	}
	bt r1, .LBB2_47
.Ltmp274:
	{
		lsu r1, r3, r10
		nop
	}
	bu .LBB2_49
.Ltmp275:
.LBB2_47:
	{
		nop
		ldw r1, sp[26]
	}
	{
		lsu r1, r1, r2
		nop
	}
.Ltmp276:
.LBB2_49:
	{
		eq r1, r1, 0
		nop
	}
.Ltmp277:
	bt r1, .LBB2_54
.Ltmp278:
	.loc	3 416 2
	{
		or r0, r8, r11
		nop
	}
	.loc	3 416 2
	bf r0, .LBB2_51
.Ltmp279:
	.loc	3 416 2
	{
		mov r0, r8
		mov r1, r11
	}
	{
		mov r5, r11
		mov r6, r3
	}
	bl __floatundidf
	ldw r9, cp[.LCPI2_1]
	ldw r10, cp[.LCPI2_2]
	.loc	3 416 2
	{
		mov r2, r9
		mov r3, r10
	}
	bl __muldf3
	{
		nop
		stw r0, sp[30]
	}
	{
		nop
		stw r1, sp[29]
	}
	{
		nop
		ldw r0, sp[8]
	}
	.loc	3 416 2
	bl __floatunsidf
	{
		mov r2, r0
		mov r3, r1
	}
	{
		nop
		ldw r0, sp[30]
	}
	{
		nop
		ldw r1, sp[29]
	}
	.loc	3 416 2
	bl __divdf3
	.loc	3 416 2
	bl log
	.loc	3 416 2
	{
		mov r2, r9
		mov r3, r10
	}
	bl __divdf3
	.loc	3 416 2
	bl __truncdfsf2
	{
		mov r3, r6
		nop
	}
	bu .LBB2_53
.Ltmp280:
.LBB2_54:
	ldw r1, cp[.LCPI2_0]
	{
		nop
		stw r1, r7[2]
	}
	{
		mov r3, r10
		stw r2, sp[26]
	}
	{
		nop
		ldw r6, sp[25]
	}
	bu .LBB2_55
.Ltmp281:
.LBB2_51:
	{
		mov r5, r11
		ldc r0, 0
	}
.Ltmp282:
.LBB2_53:
	{
		nop
		ldw r6, sp[25]
	}
.Ltmp283:
	.loc	3 416 2
	{
		ldc r0, 2
		stw r0, r7[2]
	}
	{
		mov r11, r5
		nop
	}
.Ltmp284:
.LBB2_55:
	bf r4, .LBB2_64
.Ltmp285:
	{
		nop
		ldw r2, sp[20]
	}
	{
		eq r1, r2, r3
		nop
	}
	bt r1, .LBB2_57
.Ltmp286:
	{
		lsu r1, r2, r3
		mov r5, r2
	}
	bu .LBB2_59
.Ltmp287:
.LBB2_57:
	{
		mov r5, r2
		ldw r1, sp[26]
	}
	{
		lsu r1, r6, r1
		nop
	}
.Ltmp288:
.LBB2_59:
	{
		eq r1, r1, 0
		nop
	}
.Ltmp289:
	bt r1, .LBB2_64
.Ltmp290:
	.loc	3 417 2
	{
		or r0, r8, r11
		nop
	}
	.loc	3 417 2
	bf r0, .LBB2_61
.Ltmp291:
	.loc	3 417 2
	{
		mov r0, r8
		mov r1, r11
	}
	{
		mov r4, r11
		nop
	}
	bl __floatundidf
	ldw r9, cp[.LCPI2_1]
	ldw r10, cp[.LCPI2_2]
	.loc	3 417 2
	{
		mov r2, r9
		mov r3, r10
	}
	bl __muldf3
	{
		nop
		stw r0, sp[30]
	}
	{
		nop
		stw r1, sp[29]
	}
	{
		nop
		ldw r0, sp[8]
	}
	.loc	3 417 2
	bl __floatunsidf
	{
		mov r2, r0
		mov r3, r1
	}
	{
		nop
		ldw r0, sp[30]
	}
	{
		nop
		ldw r1, sp[29]
	}
	.loc	3 417 2
	bl __divdf3
	.loc	3 417 2
	bl log
	.loc	3 417 2
	{
		mov r2, r9
		mov r3, r10
	}
	bl __divdf3
	.loc	3 417 2
	bl __truncdfsf2
	bu .LBB2_63
.Ltmp292:
.LBB2_64:
	ldw r1, cp[.LCPI2_0]
	{
		nop
		stw r1, r7[3]
	}
	{
		mov r5, r3
		ldw r6, sp[26]
	}
	bu .LBB2_65
.Ltmp293:
.LBB2_61:
	{
		mov r4, r11
		ldc r0, 0
	}
.Ltmp294:
.LBB2_63:
	.loc	3 417 2
	{
		mkmsk r0, 2
		stw r0, r7[3]
	}
	{
		mov r11, r4
		nop
	}
.Ltmp295:
.LBB2_65:
	{
		nop
		ldw r2, sp[24]
	}
	{
		nop
		ldw r1, sp[31]
	}
	bf r1, .LBB2_74
.Ltmp296:
	{
		eq r1, r2, r5
		nop
	}
	bt r1, .LBB2_67
.Ltmp297:
	{
		lsu r1, r2, r5
		nop
	}
	bu .LBB2_69
.Ltmp298:
.LBB2_67:
	{
		nop
		ldw r1, sp[18]
	}
	{
		lsu r1, r1, r6
		nop
	}
.Ltmp299:
.LBB2_69:
	{
		eq r1, r1, 0
		nop
	}
.Ltmp300:
	bt r1, .LBB2_74
.Ltmp301:
	{
		mov r5, r7
		or r0, r8, r11
	}
.Ltmp302:
	.loc	3 418 2
	bf r0, .LBB2_71
.Ltmp303:
	.loc	3 418 2
	{
		mov r0, r8
		mov r1, r11
	}
	bl __floatundidf
	ldw r6, cp[.LCPI2_1]
	ldw r7, cp[.LCPI2_2]
	.loc	3 418 2
	{
		mov r2, r6
		mov r3, r7
	}
	bl __muldf3
	{
		mov r4, r0
		mov r8, r1
	}
	{
		nop
		ldw r0, sp[8]
	}
	.loc	3 418 2
	bl __floatunsidf
	{
		mov r2, r0
		mov r3, r1
	}
	.loc	3 418 2
	{
		mov r0, r4
		mov r1, r8
	}
	bl __divdf3
	.loc	3 418 2
	bl log
	.loc	3 418 2
	{
		mov r2, r6
		mov r3, r7
	}
	bl __divdf3
	.loc	3 418 2
	bl __truncdfsf2
	bu .LBB2_73
.Ltmp304:
.LBB2_74:
	ldw r1, cp[.LCPI2_0]
	{
		nop
		stw r1, r7[4]
	}
	bu .LBB2_75
.Ltmp305:
.LBB2_71:
	{
		ldc r0, 0
		nop
	}
.Ltmp306:
.LBB2_73:
	.loc	3 418 2
	{
		ldc r0, 4
		stw r0, r5[4]
	}
.Ltmp307:
.LBB2_75:
	{
		nop
		ldw r10, sp[38]
	}
	{
		nop
		ldw r8, sp[36]
	}
	{
		nop
		ldw r9, sp[37]
	}
	{
		nop
		ldw r6, sp[34]
	}
	{
		nop
		ldw r7, sp[35]
	}
	{
		nop
		ldw r4, sp[32]
	}
	{
		nop
		ldw r5, sp[33]
	}
	{
		nop
		retsp 40
	}
	.loc	3 420 2
	# RETURN_REG_HOLDER
.Ltmp308:
	.cc_bottom FLAC__fixed_compute_best_predictor_limit_residual.function
	.set	FLAC__fixed_compute_best_predictor_limit_residual.nstackwords,((__floatundidf.nstackwords $M __muldf3.nstackwords $M __floatunsidf.nstackwords $M log.nstackwords $M __divdf3.nstackwords $M __truncdfsf2.nstackwords) + 40)
	.globl	FLAC__fixed_compute_best_predictor_limit_residual.nstackwords
	.set	FLAC__fixed_compute_best_predictor_limit_residual.maxcores,log.maxcores $M 1
	.globl	FLAC__fixed_compute_best_predictor_limit_residual.maxcores
	.set	FLAC__fixed_compute_best_predictor_limit_residual.maxtimers,log.maxtimers $M 0
	.globl	FLAC__fixed_compute_best_predictor_limit_residual.maxtimers
	.set	FLAC__fixed_compute_best_predictor_limit_residual.maxchanends,log.maxchanends $M 0
	.globl	FLAC__fixed_compute_best_predictor_limit_residual.maxchanends
.Ltmp309:
	.size	FLAC__fixed_compute_best_predictor_limit_residual, .Ltmp309-FLAC__fixed_compute_best_predictor_limit_residual
.Lfunc_end2:
	.cfi_endproc

	.section	.cp.rodata.cst4,"aMc",@progbits,4
	.cc_top .LCPI3_0.data,.LCPI3_0
	.align	4
	.type	.LCPI3_0,@object
	.size	.LCPI3_0, 4
.LCPI3_0:
	.long	1107820544
	.cc_bottom .LCPI3_0.data
	.cc_top .LCPI3_1.data,.LCPI3_1
	.align	4
	.type	.LCPI3_1,@object
	.size	.LCPI3_1, 4
.LCPI3_1:
	.long	4277811695
	.cc_bottom .LCPI3_1.data
	.cc_top .LCPI3_2.data,.LCPI3_2
	.align	4
	.type	.LCPI3_2,@object
	.size	.LCPI3_2, 4
.LCPI3_2:
	.long	1072049730
	.cc_bottom .LCPI3_2.data
	.text
	.globl	FLAC__fixed_compute_best_predictor_limit_residual_33bit
	.align	4
	.type	FLAC__fixed_compute_best_predictor_limit_residual_33bit,@function
	.cc_top FLAC__fixed_compute_best_predictor_limit_residual_33bit.function,FLAC__fixed_compute_best_predictor_limit_residual_33bit
FLAC__fixed_compute_best_predictor_limit_residual_33bit:
.Lfunc_begin3:
	.loc	3 428 0
	.cfi_startproc
	.issue_mode dual
	{
		nop
		dualentsp 42
	}
.Ltmp310:
	.cfi_def_cfa_offset 168
.Ltmp311:
	.cfi_offset 15, 0
	{
		nop
		stw r4, sp[34]
	}
	{
		nop
		stw r5, sp[35]
	}
.Ltmp312:
	.cfi_offset 4, -32
.Ltmp313:
	.cfi_offset 5, -28
	{
		nop
		stw r6, sp[36]
	}
	{
		nop
		stw r7, sp[37]
	}
.Ltmp314:
	.cfi_offset 6, -24
.Ltmp315:
	.cfi_offset 7, -20
	{
		nop
		stw r8, sp[38]
	}
	{
		nop
		stw r9, sp[39]
	}
.Ltmp316:
	.cfi_offset 8, -16
.Ltmp317:
	.cfi_offset 9, -12
.Ltmp318:
	.cfi_offset 10, -8
.Ltmp319:
	{
		mov r5, r2
		stw r10, sp[40]
	}
.Ltmp320:
	{
		mkmsk r2, 1
		stw r1, sp[9]
	}
	.loc	3 435 2 prologue_end
.Ltmp321:
	{
		lss r1, r1, r2
		nop
	}
.Ltmp322:
	bt r1, .LBB3_1
.Ltmp323:
	{
		nop
		stw r5, sp[3]
	}
.Ltmp324:
	ldaw r0, r0[-8]
.Ltmp325:
	{
		ldc r2, 0
		mkmsk r1, 1
	}
	{
		mov r5, r2
		mov r11, r1
	}
	{
		mov r6, r1
		mov r7, r1
	}
	{
		nop
		stw r1, sp[14]
	}
	{
		nop
		stw r1, sp[13]
	}
	{
		nop
		stw r2, sp[21]
	}
	{
		nop
		stw r2, sp[20]
	}
	{
		nop
		stw r2, sp[29]
	}
	{
		nop
		stw r2, sp[27]
	}
	{
		nop
		stw r2, sp[23]
	}
	{
		nop
		stw r2, sp[28]
	}
	{
		nop
		stw r2, sp[26]
	}
	{
		nop
		stw r2, sp[24]
	}
	{
		nop
		stw r2, sp[22]
	}
	{
		mov r3, r2
		stw r2, sp[25]
	}
.Ltmp326:
.LBB3_3:
	{
		nop
		stw r5, sp[33]
	}
	{
		nop
		stw r7, sp[10]
	}
	{
		nop
		stw r6, sp[11]
	}
	{
		nop
		stw r11, sp[12]
	}
	ldaw r1, r0[8]
	.loc	3 436 3
.Ltmp327:
	ldd r9, r8, r1[0]
	ashr r1, r9, 32
	ladd r11, r2, r8, r1, r3
	ladd r4, r11, r9, r1, r11
	.loc	3 436 3
	xor r2, r2, r1
	{
		nop
		stw r2, sp[18]
	}
	xor r1, r11, r1
	{
		mkmsk r1, 1
		stw r1, sp[17]
	}
	.loc	3 437 3
	{
		lss r6, r5, r1
		mov r4, r3
	}
	{
		mov r11, r3
		mov r5, r3
	}
	{
		mov r10, r3
		mov r2, r3
	}
	{
		mov r7, r3
		stw r3, sp[32]
	}
	.loc	3 440 3
	{
		mov r1, r3
		nop
	}
	bt r6, .LBB3_12
.Ltmp328:
	ldaw r1, r0[6]
	.loc	3 437 3
	ldd r11, r1, r1[0]
	{
		nop
		stw r11, sp[16]
	}
	.loc	3 437 3
	lsub r4, r2, r8, r1, r3
	lsub r6, r4, r9, r11, r4
	ashr r6, r4, 32
	ladd r7, r2, r2, r6, r3
	ladd r7, r4, r4, r6, r7
	.loc	3 437 3
	xor r5, r2, r6
	xor r10, r4, r6
	{
		ldc r2, 2
		ldw r11, sp[33]
	}
	.loc	3 438 3
	{
		lss r2, r11, r2
		nop
	}
	bt r2, .LBB3_5
.Ltmp329:
	{
		mov r4, r0
		stw r5, sp[15]
	}
	{
		mkmsk r0, 5
		nop
	}
	.loc	3 438 3
	{
		shr r2, r1, r0
		mov r0, r4
	}
	{
		nop
		ldw r4, sp[16]
	}
	{
		shl r4, r4, 1
		nop
	}
	{
		or r2, r4, r2
		shl r4, r1, 1
	}
	.loc	3 438 3
	lsub r6, r4, r8, r4, r3
	lsub r6, r2, r9, r2, r6
	ldaw r6, r0[4]
	.loc	3 438 3
	ldd r7, r5, r6[0]
	{
		nop
		stw r7, sp[8]
	}
	.loc	3 438 3
	ladd r6, r4, r4, r5, r3
	ladd r6, r2, r2, r7, r6
	ashr r6, r2, 32
	ladd r7, r4, r4, r6, r3
	ladd r7, r2, r2, r6, r7
	.loc	3 438 3
	xor r2, r2, r6
	{
		nop
		stw r2, sp[32]
	}
	xor r2, r4, r6
	{
		mkmsk r6, 2
		stw r2, sp[31]
	}
	{
		mov r2, r6
		nop
	}
	.loc	3 439 3
	{
		lss r2, r11, r2
		nop
	}
	bt r2, .LBB3_7
.Ltmp330:
	{
		add r2, r0, 8
		nop
	}
	.loc	3 439 3
	ldd r2, r7, r2[0]
	{
		nop
		stw r2, sp[7]
	}
	{
		nop
		stw r7, sp[5]
	}
	{
		nop
		stw r5, sp[4]
	}
	lsub r4, r2, r5, r1, r3
	{
		nop
		stw r2, sp[30]
	}
	{
		nop
		ldw r2, sp[16]
	}
	{
		nop
		ldw r5, sp[8]
	}
	lsub r6, r4, r5, r2, r4
	lda16 r2, r4[r4]
	{
		nop
		stw r2, sp[6]
	}
	.loc	3 439 3
	lsub r6, r2, r8, r7, r3
	{
		nop
		ldw r4, sp[7]
	}
	lsub r6, r4, r9, r4, r6
	.loc	3 439 3
	{
		mkmsk r7, 2
		ldw r6, sp[30]
	}
	maccu r4, r2, r6, r7
	{
		nop
		ldw r6, sp[6]
	}
	{
		add r4, r4, r6
		nop
	}
	ashr r6, r4, 32
	ladd r2, r7, r2, r6, r3
	ladd r2, r4, r4, r6, r2
	.loc	3 439 3
	xor r2, r7, r6
	{
		nop
		stw r2, sp[30]
	}
	xor r2, r4, r6
	{
		ldc r6, 4
		stw r2, sp[6]
	}
	.loc	3 440 3
	{
		lss r6, r11, r6
		nop
	}
	bt r6, .LBB3_9
.Ltmp331:
	{
		ldc r6, 30
		nop
	}
	{
		mov r4, r6
		nop
	}
	.loc	3 440 3
	{
		shr r6, r1, r4
		ldw r2, sp[16]
	}
	{
		shl r11, r2, 2
		nop
	}
	{
		or r11, r11, r6
		shl r1, r1, 2
	}
	.loc	3 440 3
	lsub r1, r6, r8, r1, r3
	lsub r1, r11, r9, r11, r1
	{
		ldc r1, 6
		nop
	}
	{
		mov r8, r1
		nop
	}
	.loc	3 440 3
	mul r1, r5, r8
	{
		nop
		ldw r2, sp[4]
	}
	.loc	3 440 3
	maccu r11, r6, r2, r8
	{
		add r1, r11, r1
		ldw r2, sp[5]
	}
	.loc	3 440 3
	{
		shr r11, r2, r4
		ldw r4, sp[7]
	}
	{
		shl r8, r4, 2
		nop
	}
	{
		or r11, r8, r11
		shl r8, r2, 2
	}
	.loc	3 440 3
	lsub r8, r6, r6, r8, r3
	lsub r11, r1, r1, r11, r8
	.loc	3 440 3
	ldd r8, r11, r0[0]
	.loc	3 440 3
	ladd r6, r11, r6, r11, r3
	ladd r6, r1, r1, r8, r6
	ashr r6, r1, 32
	ladd r8, r11, r11, r6, r3
	ladd r8, r1, r1, r6, r8
	.loc	3 440 3
	xor r1, r1, r6
	xor r7, r11, r6
	bu .LBB3_11
.Ltmp332:
.LBB3_5:
	{
		mov r4, r3
		mov r11, r3
	}
	{
		mov r2, r3
		stw r3, sp[32]
	}
	.loc	3 440 3
	{
		mov r7, r3
		mov r1, r3
	}
	bu .LBB3_12
.Ltmp333:
.LBB3_7:
	{
		mov r4, r3
		mov r11, r3
	}
	{
		mov r7, r3
		mov r1, r3
	}
	{
		nop
		ldw r5, sp[15]
	}
	{
		nop
		ldw r2, sp[31]
	}
	bu .LBB3_12
.Ltmp334:
.LBB3_9:
	{
		mov r7, r3
		mov r1, r3
	}
.Ltmp335:
.LBB3_11:
	{
		nop
		ldw r5, sp[15]
	}
	{
		nop
		ldw r2, sp[31]
	}
	{
		nop
		ldw r4, sp[30]
	}
	{
		nop
		ldw r11, sp[6]
	}
.LBB3_12:
.Ltmp336:
	{
		mov r1, r7
		stw r1, sp[15]
	}
	{
		nop
		stw r1, sp[16]
	}
	{
		nop
		stw r2, sp[31]
	}
	{
		nop
		stw r4, sp[30]
	}
	{
		nop
		stw r0, sp[19]
	}
	{
		nop
		ldw r8, sp[21]
	}
	{
		nop
		ldw r9, sp[18]
	}
	.loc	3 442 3
	ladd r6, r8, r9, r8, r3
	{
		nop
		stw r8, sp[21]
	}
	{
		mov r0, r2
		ldw r8, sp[20]
	}
	{
		nop
		ldw r2, sp[17]
	}
	ladd r6, r8, r2, r8, r6
	{
		nop
		stw r8, sp[20]
	}
	{
		nop
		ldw r8, sp[29]
	}
	.loc	3 443 3
	ladd r6, r8, r5, r8, r3
	{
		nop
		stw r8, sp[29]
	}
	{
		nop
		ldw r8, sp[27]
	}
	ladd r6, r8, r10, r8, r6
	{
		nop
		stw r8, sp[27]
	}
	{
		nop
		ldw r8, sp[23]
	}
	.loc	3 444 3
	ladd r6, r8, r0, r8, r3
	{
		mov r7, r10
		mov r10, r11
	}
	{
		mov r11, r4
		ldw r4, sp[32]
	}
	{
		nop
		stw r8, sp[23]
	}
	{
		nop
		ldw r8, sp[28]
	}
	ladd r6, r8, r4, r8, r6
	{
		nop
		stw r8, sp[28]
	}
	{
		nop
		ldw r8, sp[26]
	}
	.loc	3 445 3
	ladd r6, r8, r11, r8, r3
	{
		nop
		stw r8, sp[26]
	}
	{
		nop
		ldw r8, sp[24]
	}
	ladd r6, r8, r10, r8, r6
	{
		mov r11, r10
		stw r8, sp[24]
	}
	{
		nop
		ldw r8, sp[22]
	}
	.loc	3 446 3
	ladd r6, r8, r1, r8, r3
	{
		nop
		stw r8, sp[22]
	}
	{
		nop
		ldw r8, sp[25]
	}
	{
		nop
		ldw r0, sp[15]
	}
	ladd r6, r8, r0, r8, r6
	{
		mov r1, r0
		stw r8, sp[25]
	}
	{
		mkmsk r0, 5
		nop
	}
	.loc	3 449 6
.Ltmp337:
	{
		shr r6, r2, r0
		shr r8, r9, r0
	}
	{
		shl r9, r2, 1
		nop
	}
	{
		or r8, r8, r9
		nop
	}
.Ltmp338:
	{
		or r6, r8, r6
		mov r9, r3
	}
	bt r6, .LBB3_14
.Ltmp339:
	{
		nop
		ldw r9, sp[13]
	}
.Ltmp340:
.LBB3_14:
	.loc	3 451 6
	{
		shr r6, r7, r0
		shr r8, r5, r0
	}
	{
		shl r10, r7, 1
		nop
	}
	{
		or r8, r8, r10
		nop
	}
.Ltmp341:
	{
		or r6, r8, r6
		mov r10, r3
	}
	bt r6, .LBB3_16
.Ltmp342:
	{
		nop
		ldw r10, sp[14]
	}
.Ltmp343:
.LBB3_16:
	.loc	3 453 6
	{
		shr r6, r4, r0
		ldw r2, sp[31]
	}
	{
		shr r8, r2, r0
		shl r7, r4, 1
	}
	{
		or r7, r8, r7
		nop
	}
.Ltmp344:
	{
		or r6, r7, r6
		mov r8, r3
	}
	{
		mov r7, r3
		ldw r5, sp[33]
	}
	bt r6, .LBB3_18
.Ltmp345:
	{
		nop
		ldw r8, sp[10]
	}
.Ltmp346:
.LBB3_18:
	.loc	3 455 6
	{
		shr r6, r11, r0
		ldw r2, sp[30]
	}
	{
		shr r2, r2, r0
		shl r4, r11, 1
	}
	{
		or r2, r2, r4
		nop
	}
.Ltmp347:
	{
		or r2, r2, r6
		mov r4, r7
	}
	{
		nop
		ldw r3, sp[16]
	}
	bt r2, .LBB3_20
.Ltmp348:
	{
		nop
		ldw r4, sp[11]
	}
.Ltmp349:
.LBB3_20:
	.loc	3 457 6
	{
		shr r2, r1, r0
		shr r11, r3, r0
	}
	{
		shl r1, r1, 1
		nop
	}
	{
		or r1, r11, r1
		nop
	}
.Ltmp350:
	{
		or r1, r1, r2
		mov r2, r7
	}
	{
		mov r3, r7
		nop
	}
	bt r1, .LBB3_22
.Ltmp351:
	{
		nop
		ldw r2, sp[12]
	}
.Ltmp352:
.LBB3_22:
	.loc	3 435 32
	{
		add r5, r5, 1
		ldw r0, sp[19]
	}
.Ltmp353:
	.loc	3 435 2
	{
		add r0, r0, 8
		ldw r1, sp[9]
	}
	.loc	3 435 2
	{
		eq r1, r1, r5
		mov r11, r2
	}
	{
		mov r6, r4
		mov r7, r8
	}
	{
		nop
		stw r10, sp[14]
	}
	{
		nop
		stw r9, sp[13]
	}
	bf r1, .LBB3_3
.Ltmp354:
	{
		eq r1, r9, 0
		stw r2, sp[33]
	}
	{
		nop
		ldw r5, sp[3]
	}
.Ltmp355:
	{
		nop
		ldw r6, sp[21]
	}
	{
		nop
		ldw r7, sp[20]
	}
	bu .LBB3_24
.Ltmp356:
.LBB3_1:
	{
		ldc r1, 0
		mov r4, r2
	}
	{
		mov r8, r2
		mov r10, r2
	}
	{
		mov r6, r1
		stw r2, sp[33]
	}
	{
		mov r7, r1
		stw r1, sp[29]
	}
	{
		nop
		stw r1, sp[27]
	}
	{
		nop
		stw r1, sp[23]
	}
	{
		nop
		stw r1, sp[28]
	}
	{
		nop
		stw r1, sp[26]
	}
	{
		nop
		stw r1, sp[24]
	}
	{
		nop
		stw r1, sp[22]
	}
	{
		nop
		stw r1, sp[25]
	}
.Ltmp357:
.LBB3_24:
	{
		mkmsk r2, 32
		nop
	}
	ldw r0, cp[.LCPI3_0]
	.loc	3 461 2
.Ltmp358:
	bt r1, .LBB3_25
.Ltmp359:
	{
		and r1, r6, r7
		mkmsk r3, 32
	}
	{
		eq r3, r1, r3
		mov r1, r2
	}
	bt r3, .LBB3_30
.Ltmp360:
	.loc	3 461 2
	{
		or r0, r6, r7
		nop
	}
	.loc	3 461 2
	bf r0, .LBB3_28
.Ltmp361:
	.loc	3 461 2
	{
		mov r0, r6
		mov r1, r7
	}
	bl __floatundidf
	ldw r2, cp[.LCPI3_1]
	ldw r3, cp[.LCPI3_2]
	{
		mov r9, r2
		nop
	}
	.loc	3 461 2
	bl __muldf3
	{
		nop
		stw r0, sp[32]
	}
	{
		nop
		stw r1, sp[31]
	}
	{
		nop
		ldw r0, sp[9]
	}
	.loc	3 461 2
	bl __floatunsidf
	{
		mov r2, r0
		mov r3, r1
	}
	{
		nop
		ldw r0, sp[32]
	}
	{
		nop
		ldw r1, sp[31]
	}
	.loc	3 461 2
	bl __divdf3
	.loc	3 461 2
	bl log
	.loc	3 461 2
	{
		mov r2, r9
		nop
	}
	ldw r3, cp[.LCPI3_2]
	bl __divdf3
	.loc	3 461 2
	bl __truncdfsf2
	{
		mov r2, r6
		mov r1, r7
	}
	bu .LBB3_30
.Ltmp362:
.LBB3_25:
	{
		mov r1, r2
		nop
	}
	bu .LBB3_30
.Ltmp363:
.LBB3_28:
	{
		ldc r0, 0
		nop
	}
	{
		mov r2, r0
		mov r1, r0
	}
.Ltmp364:
.LBB3_30:
	{
		nop
		stw r0, r5[0]
	}
	{
		nop
		ldw r3, sp[27]
	}
	bf r10, .LBB3_39
.Ltmp365:
	{
		eq r0, r3, r1
		nop
	}
	bt r0, .LBB3_32
.Ltmp366:
	{
		lsu r0, r3, r1
		nop
	}
	bu .LBB3_34
.Ltmp367:
.LBB3_32:
	{
		nop
		ldw r0, sp[29]
	}
	{
		lsu r0, r0, r2
		nop
	}
.Ltmp368:
.LBB3_34:
	{
		eq r0, r0, 0
		nop
	}
.Ltmp369:
	bt r0, .LBB3_39
.Ltmp370:
	.loc	3 462 2
	{
		or r0, r6, r7
		nop
	}
	.loc	3 462 2
	bf r0, .LBB3_36
.Ltmp371:
	.loc	3 462 2
	{
		mov r0, r6
		mov r1, r7
	}
	bl __floatundidf
	ldw r2, cp[.LCPI3_1]
	ldw r3, cp[.LCPI3_2]
	{
		mov r9, r2
		mov r10, r3
	}
	.loc	3 462 2
	bl __muldf3
	{
		nop
		stw r0, sp[32]
	}
	{
		nop
		stw r1, sp[31]
	}
	{
		nop
		ldw r0, sp[9]
	}
	.loc	3 462 2
	bl __floatunsidf
	{
		mov r2, r0
		mov r3, r1
	}
	{
		nop
		ldw r0, sp[32]
	}
	{
		nop
		ldw r1, sp[31]
	}
	.loc	3 462 2
	bl __divdf3
	.loc	3 462 2
	bl log
	.loc	3 462 2
	{
		mov r2, r9
		mov r3, r10
	}
	bl __divdf3
	.loc	3 462 2
	bl __truncdfsf2
	{
		nop
		ldw r3, sp[27]
	}
	bu .LBB3_38
.Ltmp372:
.LBB3_39:
	ldw r0, cp[.LCPI3_0]
	.loc	3 462 2
	{
		ldc r0, 0
		stw r0, r5[1]
	}
	{
		mov r3, r1
		stw r2, sp[29]
	}
	{
		nop
		ldw r10, sp[23]
	}
	{
		nop
		ldw r2, sp[28]
	}
	bu .LBB3_40
.Ltmp373:
.LBB3_36:
	{
		ldc r0, 0
		nop
	}
.Ltmp374:
.LBB3_38:
	{
		nop
		ldw r10, sp[23]
	}
	{
		nop
		ldw r2, sp[28]
	}
.Ltmp375:
	.loc	3 462 2
	{
		mkmsk r0, 1
		stw r0, r5[1]
	}
.Ltmp376:
.LBB3_40:
	bf r8, .LBB3_49
.Ltmp377:
	{
		eq r1, r2, r3
		nop
	}
	bt r1, .LBB3_42
.Ltmp378:
	{
		lsu r1, r2, r3
		nop
	}
	bu .LBB3_44
.Ltmp379:
.LBB3_42:
	{
		nop
		ldw r1, sp[29]
	}
	{
		lsu r1, r10, r1
		nop
	}
.Ltmp380:
.LBB3_44:
	{
		eq r1, r1, 0
		nop
	}
.Ltmp381:
	bt r1, .LBB3_49
.Ltmp382:
	.loc	3 463 2
	{
		or r0, r6, r7
		nop
	}
	.loc	3 463 2
	bf r0, .LBB3_46
.Ltmp383:
	.loc	3 463 2
	{
		mov r0, r6
		mov r1, r7
	}
	bl __floatundidf
	ldw r2, cp[.LCPI3_1]
	ldw r3, cp[.LCPI3_2]
	{
		mov r8, r2
		mov r9, r3
	}
	.loc	3 463 2
	bl __muldf3
	{
		nop
		stw r0, sp[32]
	}
	{
		nop
		stw r1, sp[31]
	}
	{
		nop
		ldw r0, sp[9]
	}
	.loc	3 463 2
	bl __floatunsidf
	{
		mov r2, r0
		mov r3, r1
	}
	{
		nop
		ldw r0, sp[32]
	}
	{
		nop
		ldw r1, sp[31]
	}
	.loc	3 463 2
	bl __divdf3
	.loc	3 463 2
	bl log
	.loc	3 463 2
	{
		mov r2, r8
		mov r3, r9
	}
	bl __divdf3
	.loc	3 463 2
	bl __truncdfsf2
	{
		nop
		ldw r2, sp[28]
	}
	bu .LBB3_48
.Ltmp384:
.LBB3_49:
	ldw r1, cp[.LCPI3_0]
	{
		nop
		stw r1, r5[2]
	}
	{
		mov r2, r3
		ldw r10, sp[29]
	}
	{
		nop
		ldw r8, sp[24]
	}
	bu .LBB3_50
.Ltmp385:
.LBB3_46:
	{
		ldc r0, 0
		nop
	}
.Ltmp386:
.LBB3_48:
	{
		nop
		ldw r8, sp[24]
	}
.Ltmp387:
	.loc	3 463 2
	{
		ldc r0, 2
		stw r0, r5[2]
	}
.Ltmp388:
.LBB3_50:
	bf r4, .LBB3_59
.Ltmp389:
	{
		eq r1, r8, r2
		nop
	}
	bt r1, .LBB3_52
.Ltmp390:
	{
		lsu r1, r8, r2
		nop
	}
	bu .LBB3_54
.Ltmp391:
.LBB3_52:
	{
		nop
		ldw r1, sp[26]
	}
	{
		lsu r1, r1, r10
		nop
	}
.Ltmp392:
.LBB3_54:
	{
		eq r1, r1, 0
		nop
	}
.Ltmp393:
	bt r1, .LBB3_59
.Ltmp394:
	.loc	3 464 2
	{
		or r0, r6, r7
		nop
	}
	.loc	3 464 2
	bf r0, .LBB3_56
.Ltmp395:
	.loc	3 464 2
	{
		mov r0, r6
		mov r1, r7
	}
	bl __floatundidf
	ldw r4, cp[.LCPI3_1]
	ldw r9, cp[.LCPI3_2]
	.loc	3 464 2
	{
		mov r2, r4
		mov r3, r9
	}
	bl __muldf3
	{
		mov r10, r0
		stw r1, sp[32]
	}
	{
		nop
		ldw r0, sp[9]
	}
	.loc	3 464 2
	bl __floatunsidf
	{
		mov r2, r0
		mov r3, r1
	}
	.loc	3 464 2
	{
		mov r0, r10
		ldw r1, sp[32]
	}
	bl __divdf3
	.loc	3 464 2
	bl log
	.loc	3 464 2
	{
		mov r2, r4
		mov r3, r9
	}
	bl __divdf3
	.loc	3 464 2
	bl __truncdfsf2
	bu .LBB3_58
.Ltmp396:
.LBB3_59:
	ldw r1, cp[.LCPI3_0]
	{
		nop
		stw r1, r5[3]
	}
	{
		mov r8, r2
		stw r10, sp[26]
	}
	{
		nop
		ldw r2, sp[25]
	}
	bu .LBB3_60
.Ltmp397:
.LBB3_56:
	{
		ldc r0, 0
		nop
	}
.Ltmp398:
.LBB3_58:
	{
		nop
		ldw r2, sp[25]
	}
.Ltmp399:
	.loc	3 464 2
	{
		mkmsk r0, 2
		stw r0, r5[3]
	}
.Ltmp400:
.LBB3_60:
	{
		nop
		ldw r1, sp[33]
	}
	bf r1, .LBB3_69
.Ltmp401:
	{
		eq r1, r2, r8
		nop
	}
	bt r1, .LBB3_62
.Ltmp402:
	{
		lsu r1, r2, r8
		nop
	}
	bu .LBB3_64
.Ltmp403:
.LBB3_62:
	{
		nop
		ldw r1, sp[22]
	}
	{
		nop
		ldw r2, sp[26]
	}
	{
		lsu r1, r1, r2
		nop
	}
.Ltmp404:
.LBB3_64:
	{
		eq r1, r1, 0
		nop
	}
.Ltmp405:
	bt r1, .LBB3_69
.Ltmp406:
	.loc	3 465 2
	{
		or r0, r6, r7
		nop
	}
	.loc	3 465 2
	bf r0, .LBB3_66
.Ltmp407:
	.loc	3 465 2
	{
		mov r0, r6
		mov r1, r7
	}
	bl __floatundidf
	ldw r6, cp[.LCPI3_1]
	ldw r7, cp[.LCPI3_2]
	.loc	3 465 2
	{
		mov r2, r6
		mov r3, r7
	}
	bl __muldf3
	{
		mov r4, r0
		mov r8, r1
	}
	{
		nop
		ldw r0, sp[9]
	}
	.loc	3 465 2
	bl __floatunsidf
	{
		mov r2, r0
		mov r3, r1
	}
	.loc	3 465 2
	{
		mov r0, r4
		mov r1, r8
	}
	bl __divdf3
	.loc	3 465 2
	bl log
	.loc	3 465 2
	{
		mov r2, r6
		mov r3, r7
	}
	bl __divdf3
	.loc	3 465 2
	bl __truncdfsf2
	bu .LBB3_68
.Ltmp408:
.LBB3_69:
	ldw r1, cp[.LCPI3_0]
	{
		nop
		stw r1, r5[4]
	}
	bu .LBB3_70
.Ltmp409:
.LBB3_66:
	{
		ldc r0, 0
		nop
	}
.Ltmp410:
.LBB3_68:
	.loc	3 465 2
	{
		ldc r0, 4
		stw r0, r5[4]
	}
.Ltmp411:
.LBB3_70:
	{
		nop
		ldw r10, sp[40]
	}
	{
		nop
		ldw r8, sp[38]
	}
	{
		nop
		ldw r9, sp[39]
	}
	{
		nop
		ldw r6, sp[36]
	}
	{
		nop
		ldw r7, sp[37]
	}
	{
		nop
		ldw r4, sp[34]
	}
	{
		nop
		ldw r5, sp[35]
	}
	{
		nop
		retsp 42
	}
	.loc	3 467 2
	# RETURN_REG_HOLDER
.Ltmp412:
	.cc_bottom FLAC__fixed_compute_best_predictor_limit_residual_33bit.function
	.set	FLAC__fixed_compute_best_predictor_limit_residual_33bit.nstackwords,((__floatundidf.nstackwords $M __muldf3.nstackwords $M __floatunsidf.nstackwords $M log.nstackwords $M __divdf3.nstackwords $M __truncdfsf2.nstackwords) + 42)
	.globl	FLAC__fixed_compute_best_predictor_limit_residual_33bit.nstackwords
	.set	FLAC__fixed_compute_best_predictor_limit_residual_33bit.maxcores,log.maxcores $M 1
	.globl	FLAC__fixed_compute_best_predictor_limit_residual_33bit.maxcores
	.set	FLAC__fixed_compute_best_predictor_limit_residual_33bit.maxtimers,log.maxtimers $M 0
	.globl	FLAC__fixed_compute_best_predictor_limit_residual_33bit.maxtimers
	.set	FLAC__fixed_compute_best_predictor_limit_residual_33bit.maxchanends,log.maxchanends $M 0
	.globl	FLAC__fixed_compute_best_predictor_limit_residual_33bit.maxchanends
.Ltmp413:
	.size	FLAC__fixed_compute_best_predictor_limit_residual_33bit, .Ltmp413-FLAC__fixed_compute_best_predictor_limit_residual_33bit
.Lfunc_end3:
	.cfi_endproc

	.globl	FLAC__fixed_compute_residual
	.align	4
	.type	FLAC__fixed_compute_residual,@function
	.cc_top FLAC__fixed_compute_residual.function,FLAC__fixed_compute_residual
FLAC__fixed_compute_residual:
.Lfunc_begin4:
	.loc	3 471 0
	.cfi_startproc
	.issue_mode dual
	{
		nop
		dualentsp 4
	}
.Ltmp414:
	.cfi_def_cfa_offset 16
.Ltmp415:
	.cfi_offset 15, 0
	std r5, r4, sp[1]
.Ltmp416:
	.cfi_offset 4, -8
.Ltmp417:
	.cfi_offset 5, -4
.Ltmp418:
	{
		mov r11, r0
		ldc r0, 4
	}
.Ltmp419:
	.loc	3 475 2 prologue_end
	{
		lsu r0, r0, r2
		nop
	}
	.loc	3 497 4
.Ltmp420:
	{
		ecallt r0
		nop
	}
.Ltmp421:

	.xtabranch .Ljumptable0+4,.Ljumptable0+8,.Ljumptable0+12,.Ljumptable0+16,.Ljumptable0+20
.Ljumptable0:
		
	{
		nop
		bru r2
	}
	.jmptable32 .LBB4_13,.LBB4_10,.LBB4_7,.LBB4_4,.LBB4_1
.Ltmp422:
.LBB4_13:
	.loc	3 478 4
	{
		shl r2, r1, 2
		mov r0, r3
	}
	.loc	3 478 4
	{
		mov r1, r11
		nop
	}
.Ltmp423:
	bl __memcpy_4
.Ltmp424:
	bu .LBB4_14
.LBB4_10:
.Ltmp425:
	{
		mkmsk r0, 1
		nop
	}
	.loc	3 481 4
.Ltmp426:
	{
		lss r0, r1, r0
		nop
	}
	bt r0, .LBB4_14
.Ltmp427:
	{
		sub r0, r11, 4
		nop
	}
.Ltmp428:
.LBB4_12:
	{
		add r2, r0, 4
		ldw r11, r0[1]
	}
	{
		nop
		ldw r0, r0[0]
	}
	.loc	3 482 5
	{
		sub r0, r11, r0
		nop
	}
	.loc	3 482 5
	{
		sub r1, r1, 1
		stw r0, r3[0]
	}
	.loc	3 481 4
	{
		add r3, r3, 4
		mov r0, r2
	}
	bt r1, .LBB4_12
	bu .LBB4_14
.Ltmp429:
.LBB4_7:
	{
		mkmsk r0, 1
		nop
	}
	.loc	3 485 4
.Ltmp430:
	{
		lss r0, r1, r0
		nop
	}
	bt r0, .LBB4_14
.Ltmp431:
	{
		sub r0, r11, 8
		nop
	}
.Ltmp432:
.LBB4_9:
	.loc	3 486 5
	{
		add r11, r0, 4
		ldw r2, r0[2]
	}
	{
		nop
		ldw r4, r0[1]
	}
	.loc	3 486 5
	lda16 r2, r2[-r4]
	{
		nop
		ldw r0, r0[0]
	}
	.loc	3 486 5
	{
		add r0, r2, r0
		nop
	}
	.loc	3 486 5
	{
		sub r1, r1, 1
		stw r0, r3[0]
	}
	.loc	3 485 4
	{
		add r3, r3, 4
		mov r0, r11
	}
	bt r1, .LBB4_9
	bu .LBB4_14
.Ltmp433:
.LBB4_4:
	{
		mkmsk r0, 1
		nop
	}
	.loc	3 489 4
.Ltmp434:
	{
		lss r0, r1, r0
		nop
	}
	bt r0, .LBB4_14
.Ltmp435:
	ldaw r0, r11[-3]
.Ltmp436:
.LBB4_6:
	{
		nop
		ldw r2, r0[3]
	}
	.loc	3 490 5
	{
		add r4, r0, 4
		ldw r11, r0[2]
	}
	{
		nop
		ldw r5, r0[1]
	}
	.loc	3 490 5
	{
		sub r11, r5, r11
		ldw r0, r0[0]
	}
	lda16 r11, r11[r11]
	.loc	3 490 5
	{
		sub r0, r2, r0
		nop
	}
	.loc	3 490 5
	{
		add r0, r0, r11
		nop
	}
	.loc	3 490 5
	{
		sub r1, r1, 1
		stw r0, r3[0]
	}
	.loc	3 489 4
	{
		add r3, r3, 4
		mov r0, r4
	}
	bt r1, .LBB4_6
	bu .LBB4_14
.Ltmp437:
.LBB4_1:
	{
		mkmsk r0, 1
		nop
	}
	.loc	3 493 4
.Ltmp438:
	{
		lss r0, r1, r0
		nop
	}
	bt r0, .LBB4_14
.Ltmp439:
	ldaw r2, r11[-4]
	{
		ldc r0, 6
		nop
	}
.Ltmp440:
.LBB4_3:
	{
		nop
		ldw r11, r2[4]
	}
	{
		nop
		ldw r4, r2[3]
	}
	.loc	3 494 5
	ldaw r11, r11[-r4]
	{
		nop
		ldw r4, r2[2]
	}
	.loc	3 494 5
	mul r4, r4, r0
	.loc	3 494 5
	{
		add r11, r11, r4
		add r4, r2, 4
	}
	{
		nop
		ldw r5, r2[1]
	}
	.loc	3 494 5
	ldaw r11, r11[-r5]
	{
		nop
		ldw r2, r2[0]
	}
	.loc	3 494 5
	{
		add r2, r11, r2
		nop
	}
	.loc	3 494 5
	{
		sub r1, r1, 1
		stw r2, r3[0]
	}
	.loc	3 493 4
	{
		add r3, r3, 4
		mov r2, r4
	}
	bt r1, .LBB4_3
.Ltmp441:
.LBB4_14:
	.loc	3 499 1
	ldd r5, r4, sp[1]
	{
		nop
		retsp 4
	}
	# RETURN_REG_HOLDER
.Ltmp442:
	.cc_bottom FLAC__fixed_compute_residual.function
	.set	FLAC__fixed_compute_residual.nstackwords,(__memcpy_4.nstackwords + 4)
	.globl	FLAC__fixed_compute_residual.nstackwords
	.set	FLAC__fixed_compute_residual.maxcores,1
	.globl	FLAC__fixed_compute_residual.maxcores
	.set	FLAC__fixed_compute_residual.maxtimers,0
	.globl	FLAC__fixed_compute_residual.maxtimers
	.set	FLAC__fixed_compute_residual.maxchanends,0
	.globl	FLAC__fixed_compute_residual.maxchanends
.Ltmp443:
	.size	FLAC__fixed_compute_residual, .Ltmp443-FLAC__fixed_compute_residual
.Lfunc_end4:
	.cfi_endproc

	.globl	FLAC__fixed_compute_residual_wide
	.align	4
	.type	FLAC__fixed_compute_residual_wide,@function
	.cc_top FLAC__fixed_compute_residual_wide.function,FLAC__fixed_compute_residual_wide
FLAC__fixed_compute_residual_wide:
.Lfunc_begin5:
	.loc	3 502 0
	.cfi_startproc
	.issue_mode dual
	{
		nop
		dualentsp 4
	}
.Ltmp444:
	.cfi_def_cfa_offset 16
.Ltmp445:
	.cfi_offset 15, 0
	std r5, r4, sp[1]
.Ltmp446:
	.cfi_offset 4, -8
.Ltmp447:
	.cfi_offset 5, -4
.Ltmp448:
	{
		mov r11, r0
		ldc r0, 4
	}
.Ltmp449:
	.loc	3 506 2 prologue_end
	{
		lsu r0, r0, r2
		nop
	}
	.loc	3 528 4
.Ltmp450:
	{
		ecallt r0
		nop
	}
.Ltmp451:

	.xtabranch .Ljumptable1+4,.Ljumptable1+8,.Ljumptable1+12,.Ljumptable1+16,.Ljumptable1+20
.Ljumptable1:
		
	{
		nop
		bru r2
	}
	.jmptable32 .LBB5_13,.LBB5_10,.LBB5_7,.LBB5_4,.LBB5_1
.Ltmp452:
.LBB5_13:
	.loc	3 509 4
	{
		shl r2, r1, 2
		mov r0, r3
	}
	.loc	3 509 4
	{
		mov r1, r11
		nop
	}
.Ltmp453:
	bl __memcpy_4
.Ltmp454:
	bu .LBB5_14
.LBB5_10:
.Ltmp455:
	{
		mkmsk r0, 1
		nop
	}
	.loc	3 512 4
.Ltmp456:
	{
		lss r0, r1, r0
		nop
	}
	bt r0, .LBB5_14
.Ltmp457:
	{
		sub r0, r11, 4
		nop
	}
.Ltmp458:
.LBB5_12:
	{
		add r2, r0, 4
		ldw r11, r0[1]
	}
	{
		nop
		ldw r0, r0[0]
	}
	.loc	3 513 5
	{
		sub r0, r11, r0
		nop
	}
	.loc	3 513 5
	{
		sub r1, r1, 1
		stw r0, r3[0]
	}
	.loc	3 512 4
	{
		add r3, r3, 4
		mov r0, r2
	}
	bt r1, .LBB5_12
	bu .LBB5_14
.Ltmp459:
.LBB5_7:
	{
		mkmsk r0, 1
		nop
	}
	.loc	3 516 4
.Ltmp460:
	{
		lss r0, r1, r0
		nop
	}
	bt r0, .LBB5_14
.Ltmp461:
	{
		sub r0, r11, 8
		nop
	}
.Ltmp462:
.LBB5_9:
	.loc	3 517 5
	{
		add r11, r0, 4
		ldw r2, r0[2]
	}
	{
		nop
		ldw r4, r0[1]
	}
	.loc	3 517 5
	lda16 r2, r2[-r4]
	{
		nop
		ldw r0, r0[0]
	}
	.loc	3 517 5
	{
		add r0, r2, r0
		nop
	}
	.loc	3 517 5
	{
		sub r1, r1, 1
		stw r0, r3[0]
	}
	.loc	3 516 4
	{
		add r3, r3, 4
		mov r0, r11
	}
	bt r1, .LBB5_9
	bu .LBB5_14
.Ltmp463:
.LBB5_4:
	{
		mkmsk r0, 1
		nop
	}
	.loc	3 520 4
.Ltmp464:
	{
		lss r0, r1, r0
		nop
	}
	bt r0, .LBB5_14
.Ltmp465:
	ldaw r0, r11[-3]
.Ltmp466:
.LBB5_6:
	{
		nop
		ldw r2, r0[3]
	}
	.loc	3 521 5
	{
		add r4, r0, 4
		ldw r11, r0[2]
	}
	{
		nop
		ldw r5, r0[1]
	}
	.loc	3 521 5
	{
		sub r11, r5, r11
		ldw r0, r0[0]
	}
	lda16 r11, r11[r11]
	.loc	3 521 5
	{
		sub r0, r2, r0
		nop
	}
	.loc	3 521 5
	{
		add r0, r0, r11
		nop
	}
	.loc	3 521 5
	{
		sub r1, r1, 1
		stw r0, r3[0]
	}
	.loc	3 520 4
	{
		add r3, r3, 4
		mov r0, r4
	}
	bt r1, .LBB5_6
	bu .LBB5_14
.Ltmp467:
.LBB5_1:
	{
		mkmsk r0, 1
		nop
	}
	.loc	3 524 4
.Ltmp468:
	{
		lss r0, r1, r0
		nop
	}
	bt r0, .LBB5_14
.Ltmp469:
	ldaw r2, r11[-4]
	{
		ldc r0, 6
		nop
	}
.Ltmp470:
.LBB5_3:
	{
		nop
		ldw r11, r2[4]
	}
	{
		nop
		ldw r4, r2[3]
	}
	.loc	3 525 5
	ldaw r11, r11[-r4]
	{
		nop
		ldw r4, r2[2]
	}
	.loc	3 525 5
	mul r4, r4, r0
	.loc	3 525 5
	{
		add r11, r11, r4
		add r4, r2, 4
	}
	{
		nop
		ldw r5, r2[1]
	}
	.loc	3 525 5
	ldaw r11, r11[-r5]
	{
		nop
		ldw r2, r2[0]
	}
	.loc	3 525 5
	{
		add r2, r11, r2
		nop
	}
	.loc	3 525 5
	{
		sub r1, r1, 1
		stw r2, r3[0]
	}
	.loc	3 524 4
	{
		add r3, r3, 4
		mov r2, r4
	}
	bt r1, .LBB5_3
.Ltmp471:
.LBB5_14:
	.loc	3 530 1
	ldd r5, r4, sp[1]
	{
		nop
		retsp 4
	}
	# RETURN_REG_HOLDER
.Ltmp472:
	.cc_bottom FLAC__fixed_compute_residual_wide.function
	.set	FLAC__fixed_compute_residual_wide.nstackwords,(__memcpy_4.nstackwords + 4)
	.globl	FLAC__fixed_compute_residual_wide.nstackwords
	.set	FLAC__fixed_compute_residual_wide.maxcores,1
	.globl	FLAC__fixed_compute_residual_wide.maxcores
	.set	FLAC__fixed_compute_residual_wide.maxtimers,0
	.globl	FLAC__fixed_compute_residual_wide.maxtimers
	.set	FLAC__fixed_compute_residual_wide.maxchanends,0
	.globl	FLAC__fixed_compute_residual_wide.maxchanends
.Ltmp473:
	.size	FLAC__fixed_compute_residual_wide, .Ltmp473-FLAC__fixed_compute_residual_wide
.Lfunc_end5:
	.cfi_endproc

	.globl	FLAC__fixed_compute_residual_wide_33bit
	.align	4
	.type	FLAC__fixed_compute_residual_wide_33bit,@function
	.cc_top FLAC__fixed_compute_residual_wide_33bit.function,FLAC__fixed_compute_residual_wide_33bit
FLAC__fixed_compute_residual_wide_33bit:
.Lfunc_begin6:
	.loc	3 533 0
	.cfi_startproc
	.issue_mode dual
	{
		nop
		dualentsp 0
	}
	{
		extsp 8
		nop
	}
.Ltmp474:
	.cfi_def_cfa_offset 32
	std r5, r4, sp[0]
.Ltmp475:
	.cfi_offset 4, -32
.Ltmp476:
	.cfi_offset 5, -28
	std r7, r6, sp[1]
.Ltmp477:
	.cfi_offset 6, -24
.Ltmp478:
	.cfi_offset 7, -20
	std r9, r8, sp[2]
.Ltmp479:
	.cfi_offset 8, -16
.Ltmp480:
	.cfi_offset 9, -12
.Ltmp481:
	.cfi_offset 10, -8
.Ltmp482:
	{
		ldc r11, 4
		stw r10, sp[6]
	}
	.loc	3 537 2 prologue_end
.Ltmp483:
	{
		lsu r11, r11, r2
		nop
	}
	.loc	3 559 4
.Ltmp484:
	{
		ecallt r11
		nop
	}

	.xtabranch .Ljumptable2+4,.Ljumptable2+8,.Ljumptable2+12,.Ljumptable2+16,.Ljumptable2+20
.Ljumptable2:
		
	{
		nop
		bru r2
	}
	.jmptable32 .LBB6_13,.LBB6_10,.LBB6_7,.LBB6_4,.LBB6_1
.Ltmp485:
.LBB6_13:
	{
		mkmsk r2, 1
		nop
	}
	.loc	3 539 4
.Ltmp486:
	{
		lss r2, r1, r2
		nop
	}
	bt r2, .LBB6_15
.Ltmp487:
.LBB6_14:
	{
		nop
		ldw r2, r0[0]
	}
	.loc	3 540 5
	{
		sub r1, r1, 1
		stw r2, r3[0]
	}
	.loc	3 539 4
	{
		add r0, r0, 8
		add r3, r3, 4
	}
	bt r1, .LBB6_14
	bu .LBB6_15
.Ltmp488:
.LBB6_10:
	{
		mkmsk r2, 1
		nop
	}
	.loc	3 543 4
.Ltmp489:
	{
		lss r2, r1, r2
		nop
	}
	bt r2, .LBB6_15
.Ltmp490:
	{
		sub r2, r0, 8
		nop
	}
	.loc	3 544 5
	ldd r2, r11, r2[0]
	{
		ldc r2, 0
		nop
	}
.Ltmp491:
.LBB6_12:
	.loc	3 544 5
	ldd r5, r4, r0[0]
	.loc	3 544 5
	lsub r5, r11, r4, r11, r2
	.loc	3 544 5
	{
		sub r1, r1, 1
		stw r11, r3[0]
	}
	.loc	3 543 4
	{
		add r0, r0, 8
		add r3, r3, 4
	}
	.loc	3 544 5
	{
		mov r11, r4
		nop
	}
	bt r1, .LBB6_12
	bu .LBB6_15
.Ltmp492:
.LBB6_7:
	{
		mkmsk r2, 1
		nop
	}
	.loc	3 547 4
.Ltmp493:
	{
		lss r2, r1, r2
		nop
	}
	bt r2, .LBB6_15
.Ltmp494:
	{
		sub r2, r0, 8
		nop
	}
	.loc	3 548 5
	ldd r2, r11, r2[0]
	ldaw r0, r0[-4]
.Ltmp495:
	{
		ldc r2, 0
		nop
	}
.Ltmp496:
.LBB6_9:
	ldaw r4, r0[4]
	.loc	3 548 5
	ldd r5, r4, r4[0]
	.loc	3 548 5
	{
		shl r11, r11, 1
		nop
	}
	.loc	3 548 5
	lsub r5, r11, r4, r11, r2
	.loc	3 548 5
	ldd r6, r5, r0[0]
	.loc	3 548 5
	ladd r5, r11, r11, r5, r2
	.loc	3 548 5
	{
		sub r1, r1, 1
		stw r11, r3[0]
	}
	.loc	3 547 4
	{
		add r0, r0, 8
		add r3, r3, 4
	}
	.loc	3 548 5
	{
		mov r11, r4
		nop
	}
	bt r1, .LBB6_9
	bu .LBB6_15
.Ltmp497:
.LBB6_4:
	{
		mkmsk r2, 1
		nop
	}
	.loc	3 551 4
.Ltmp498:
	{
		lss r2, r1, r2
		nop
	}
	bt r2, .LBB6_15
.Ltmp499:
	{
		sub r2, r0, 8
		nop
	}
	.loc	3 552 5
	ldd r2, r5, r2[0]
	ldaw r2, r0[-6]
	.loc	3 552 5
	ldd r2, r4, r2[0]
	ldaw r0, r0[-4]
.Ltmp500:
	{
		ldc r2, 0
		mkmsk r11, 2
	}
.Ltmp501:
.LBB6_6:
	ldaw r6, r0[4]
	.loc	3 552 5
	ldd r7, r6, r6[0]
	.loc	3 552 5
	ldd r9, r8, r0[0]
	lsub r9, r5, r8, r5, r2
	.loc	3 552 5
	lsub r4, r9, r6, r4, r2
	lsub r4, r7, r7, r0, r4
	.loc	3 552 5
	maccu r7, r9, r5, r11
	.loc	3 552 5
	{
		sub r1, r1, 1
		stw r9, r3[0]
	}
	.loc	3 551 4
	{
		add r0, r0, 8
		add r3, r3, 4
	}
	.loc	3 552 5
	{
		mov r4, r8
		mov r5, r6
	}
	bt r1, .LBB6_6
	bu .LBB6_15
.Ltmp502:
.LBB6_1:
	{
		mkmsk r2, 1
		nop
	}
	.loc	3 555 4
.Ltmp503:
	{
		lss r2, r1, r2
		nop
	}
	bt r2, .LBB6_15
.Ltmp504:
	{
		sub r2, r0, 8
		nop
	}
	.loc	3 556 5
	ldd r7, r6, r2[0]
	ldaw r2, r0[-6]
	.loc	3 556 5
	ldd r2, r5, r2[0]
	ldaw r0, r0[-8]
.Ltmp505:
	{
		ldc r11, 0
		ldc r4, 6
	}
.Ltmp506:
.LBB6_3:
	ldaw r8, r0[8]
	.loc	3 556 5
	ldd r8, r9, r8[0]
	{
		ldc r2, 30
		nop
	}
	.loc	3 556 5
	{
		shr r10, r6, r2
		shl r7, r7, 2
	}
	{
		or r7, r7, r10
		shl r6, r6, 2
	}
	.loc	3 556 5
	lsub r6, r10, r9, r6, r11
	lsub r6, r7, r8, r7, r6
	ldaw r6, r0[4]
	.loc	3 556 5
	ldd r2, r6, r6[0]
	.loc	3 556 5
	maccu r7, r10, r6, r4
	.loc	3 556 5
	{
		shl r2, r5, 2
		nop
	}
	.loc	3 556 5
	lsub r5, r2, r10, r2, r11
	.loc	3 556 5
	ldd r7, r5, r0[0]
	.loc	3 556 5
	ladd r5, r2, r2, r5, r11
	.loc	3 556 5
	{
		sub r1, r1, 1
		stw r2, r3[0]
	}
	.loc	3 555 4
	{
		add r0, r0, 8
		add r3, r3, 4
	}
	.loc	3 556 5
	{
		mov r5, r6
		mov r6, r9
	}
	{
		mov r7, r8
		nop
	}
	bt r1, .LBB6_3
.Ltmp507:
.LBB6_15:
	{
		nop
		ldw r10, sp[6]
	}
	.loc	3 561 1
	ldd r9, r8, sp[2]
	ldd r7, r6, sp[1]
	ldd r5, r4, sp[0]
	{
		ldaw sp, sp[8]
		nop
	}
	{
		nop
		retsp 0
	}
	# RETURN_REG_HOLDER
.Ltmp508:
	.cc_bottom FLAC__fixed_compute_residual_wide_33bit.function
	.set	FLAC__fixed_compute_residual_wide_33bit.nstackwords,8
	.globl	FLAC__fixed_compute_residual_wide_33bit.nstackwords
	.set	FLAC__fixed_compute_residual_wide_33bit.maxcores,1
	.globl	FLAC__fixed_compute_residual_wide_33bit.maxcores
	.set	FLAC__fixed_compute_residual_wide_33bit.maxtimers,0
	.globl	FLAC__fixed_compute_residual_wide_33bit.maxtimers
	.set	FLAC__fixed_compute_residual_wide_33bit.maxchanends,0
	.globl	FLAC__fixed_compute_residual_wide_33bit.maxchanends
.Ltmp509:
	.size	FLAC__fixed_compute_residual_wide_33bit, .Ltmp509-FLAC__fixed_compute_residual_wide_33bit
.Lfunc_end6:
	.cfi_endproc

	.section	.cp.rodata.cst4,"aMc",@progbits,4
	.cc_top .LCPI7_0.data,.LCPI7_0
	.align	4
	.type	.LCPI7_0,@object
	.size	.LCPI7_0, 4
.LCPI7_0:
	.long	4294967290
	.cc_bottom .LCPI7_0.data
	.text
	.globl	FLAC__fixed_restore_signal
	.align	4
	.type	FLAC__fixed_restore_signal,@function
	.cc_top FLAC__fixed_restore_signal.function,FLAC__fixed_restore_signal
FLAC__fixed_restore_signal:
.Lfunc_begin7:
	.loc	3 572 0
	.cfi_startproc
	.issue_mode dual
	{
		nop
		dualentsp 8
	}
.Ltmp510:
	.cfi_def_cfa_offset 32
.Ltmp511:
	.cfi_offset 15, 0
	std r5, r4, sp[1]
.Ltmp512:
	.cfi_offset 4, -24
.Ltmp513:
	.cfi_offset 5, -20
	std r7, r6, sp[2]
.Ltmp514:
	.cfi_offset 6, -16
.Ltmp515:
	.cfi_offset 7, -12
.Ltmp516:
	.cfi_offset 8, -8
.Ltmp517:
	{
		mov r11, r0
		stw r8, sp[6]
	}
.Ltmp518:
	{
		ldc r0, 4
		nop
	}
	.loc	3 575 2 prologue_end
.Ltmp519:
	{
		lsu r0, r0, r2
		nop
	}
	.loc	3 597 4
.Ltmp520:
	{
		ecallt r0
		nop
	}
.Ltmp521:

	.xtabranch .Ljumptable3+4,.Ljumptable3+8,.Ljumptable3+12,.Ljumptable3+16,.Ljumptable3+20
.Ljumptable3:
		
	{
		nop
		bru r2
	}
	.jmptable32 .LBB7_13,.LBB7_10,.LBB7_7,.LBB7_4,.LBB7_1
.Ltmp522:
.LBB7_13:
	.loc	3 578 4
	{
		shl r2, r1, 2
		mov r0, r3
	}
	.loc	3 578 4
	{
		mov r1, r11
		nop
	}
.Ltmp523:
	bl __memcpy_4
.Ltmp524:
	bu .LBB7_14
.LBB7_10:
.Ltmp525:
	{
		mkmsk r0, 1
		nop
	}
	.loc	3 581 4
.Ltmp526:
	{
		lss r0, r1, r0
		nop
	}
	bt r0, .LBB7_14
.Ltmp527:
	{
		sub r0, r3, 4
		nop
	}
	{
		nop
		ldw r0, r0[0]
	}
.Ltmp528:
.LBB7_12:
	{
		nop
		ldw r2, r11[0]
	}
	.loc	3 582 5
	{
		add r0, r0, r2
		nop
	}
	.loc	3 582 5
	{
		sub r1, r1, 1
		stw r0, r3[0]
	}
	.loc	3 581 4
	{
		add r11, r11, 4
		add r3, r3, 4
	}
	bt r1, .LBB7_12
	bu .LBB7_14
.Ltmp529:
.LBB7_7:
	{
		mkmsk r0, 1
		nop
	}
	.loc	3 585 4
.Ltmp530:
	{
		lss r0, r1, r0
		nop
	}
	bt r0, .LBB7_14
.Ltmp531:
	{
		sub r0, r3, 4
		nop
	}
	.loc	3 586 5
	{
		sub r0, r3, 8
		ldw r2, r0[0]
	}
.Ltmp532:
.LBB7_9:
	{
		nop
		ldw r3, r11[0]
	}
	.loc	3 586 5
	lda16 r2, r3[r2]
	{
		nop
		ldw r3, r0[0]
	}
	.loc	3 586 5
	{
		sub r2, r2, r3
		nop
	}
	.loc	3 586 5
	{
		sub r1, r1, 1
		stw r2, r0[2]
	}
	.loc	3 585 4
	{
		add r11, r11, 4
		add r0, r0, 4
	}
	bt r1, .LBB7_9
	bu .LBB7_14
.Ltmp533:
.LBB7_4:
	{
		mkmsk r0, 1
		nop
	}
	.loc	3 589 4
.Ltmp534:
	{
		lss r0, r1, r0
		nop
	}
	bt r0, .LBB7_14
.Ltmp535:
	{
		sub r0, r3, 4
		nop
	}
	{
		nop
		ldw r2, r0[0]
	}
	ldaw r0, r3[-3]
	.loc	3 590 5
	{
		sub r0, r3, 8
		ldw r4, r0[0]
	}
.Ltmp536:
.LBB7_6:
	{
		nop
		ldw r3, r11[0]
	}
	{
		nop
		ldw r5, r0[0]
	}
	{
		sub r2, r2, r5
		nop
	}
	lda16 r2, r2[r2]
	.loc	3 590 5
	{
		add r3, r4, r3
		nop
	}
	.loc	3 590 5
	{
		add r2, r3, r2
		nop
	}
	.loc	3 590 5
	{
		sub r1, r1, 1
		stw r2, r0[2]
	}
	.loc	3 589 4
	{
		add r11, r11, 4
		add r0, r0, 4
	}
	.loc	3 590 5
	{
		mov r4, r5
		nop
	}
	bt r1, .LBB7_6
	bu .LBB7_14
.Ltmp537:
.LBB7_1:
	{
		mkmsk r0, 1
		nop
	}
	.loc	3 593 4
.Ltmp538:
	{
		lss r0, r1, r0
		nop
	}
	bt r0, .LBB7_14
.Ltmp539:
	{
		sub r0, r3, 4
		nop
	}
	{
		nop
		ldw r2, r0[0]
	}
	ldaw r0, r3[-3]
	{
		nop
		ldw r4, r0[0]
	}
	ldaw r0, r3[-4]
	ldw r3, cp[.LCPI7_0]
.Ltmp540:
.LBB7_3:
	{
		nop
		ldw r5, r11[0]
	}
	{
		nop
		ldw r6, r0[2]
	}
	.loc	3 594 5
	mul r7, r6, r3
	.loc	3 594 5
	{
		add r2, r4, r2
		ldw r8, r0[0]
	}
	.loc	3 594 5
	{
		add r4, r7, r5
		nop
	}
	.loc	3 594 5
	{
		sub r4, r4, r8
		nop
	}
	.loc	3 594 5
	ldaw r2, r4[r2]
	.loc	3 594 5
	{
		sub r1, r1, 1
		stw r2, r0[4]
	}
	.loc	3 593 4
	{
		add r11, r11, 4
		add r0, r0, 4
	}
	.loc	3 594 5
	{
		mov r4, r6
		nop
	}
	bt r1, .LBB7_3
.Ltmp541:
.LBB7_14:
	{
		nop
		ldw r8, sp[6]
	}
	.loc	3 599 1
	ldd r7, r6, sp[2]
	ldd r5, r4, sp[1]
	{
		nop
		retsp 8
	}
	# RETURN_REG_HOLDER
.Ltmp542:
	.cc_bottom FLAC__fixed_restore_signal.function
	.set	FLAC__fixed_restore_signal.nstackwords,(__memcpy_4.nstackwords + 8)
	.globl	FLAC__fixed_restore_signal.nstackwords
	.set	FLAC__fixed_restore_signal.maxcores,1
	.globl	FLAC__fixed_restore_signal.maxcores
	.set	FLAC__fixed_restore_signal.maxtimers,0
	.globl	FLAC__fixed_restore_signal.maxtimers
	.set	FLAC__fixed_restore_signal.maxchanends,0
	.globl	FLAC__fixed_restore_signal.maxchanends
.Ltmp543:
	.size	FLAC__fixed_restore_signal, .Ltmp543-FLAC__fixed_restore_signal
.Lfunc_end7:
	.cfi_endproc

	.section	.cp.rodata.cst4,"aMc",@progbits,4
	.cc_top .LCPI8_0.data,.LCPI8_0
	.align	4
	.type	.LCPI8_0,@object
	.size	.LCPI8_0, 4
.LCPI8_0:
	.long	4294967290
	.cc_bottom .LCPI8_0.data
	.text
	.globl	FLAC__fixed_restore_signal_wide
	.align	4
	.type	FLAC__fixed_restore_signal_wide,@function
	.cc_top FLAC__fixed_restore_signal_wide.function,FLAC__fixed_restore_signal_wide
FLAC__fixed_restore_signal_wide:
.Lfunc_begin8:
	.loc	3 602 0
	.cfi_startproc
	.issue_mode dual
	{
		nop
		dualentsp 8
	}
.Ltmp544:
	.cfi_def_cfa_offset 32
.Ltmp545:
	.cfi_offset 15, 0
	std r5, r4, sp[1]
.Ltmp546:
	.cfi_offset 4, -24
.Ltmp547:
	.cfi_offset 5, -20
	std r7, r6, sp[2]
.Ltmp548:
	.cfi_offset 6, -16
.Ltmp549:
	.cfi_offset 7, -12
.Ltmp550:
	.cfi_offset 8, -8
.Ltmp551:
	{
		mov r11, r0
		stw r8, sp[6]
	}
.Ltmp552:
	{
		ldc r0, 4
		nop
	}
	.loc	3 605 2 prologue_end
.Ltmp553:
	{
		lsu r0, r0, r2
		nop
	}
	.loc	3 627 4
.Ltmp554:
	{
		ecallt r0
		nop
	}
.Ltmp555:

	.xtabranch .Ljumptable4+4,.Ljumptable4+8,.Ljumptable4+12,.Ljumptable4+16,.Ljumptable4+20
.Ljumptable4:
		
	{
		nop
		bru r2
	}
	.jmptable32 .LBB8_13,.LBB8_10,.LBB8_7,.LBB8_4,.LBB8_1
.Ltmp556:
.LBB8_13:
	.loc	3 608 4
	{
		shl r2, r1, 2
		mov r0, r3
	}
	.loc	3 608 4
	{
		mov r1, r11
		nop
	}
.Ltmp557:
	bl __memcpy_4
.Ltmp558:
	bu .LBB8_14
.LBB8_10:
.Ltmp559:
	{
		mkmsk r0, 1
		nop
	}
	.loc	3 611 4
.Ltmp560:
	{
		lss r0, r1, r0
		nop
	}
	bt r0, .LBB8_14
.Ltmp561:
	{
		sub r0, r3, 4
		nop
	}
	{
		nop
		ldw r0, r0[0]
	}
.Ltmp562:
.LBB8_12:
	{
		nop
		ldw r2, r11[0]
	}
	.loc	3 612 5
	{
		add r0, r0, r2
		nop
	}
	.loc	3 612 5
	{
		sub r1, r1, 1
		stw r0, r3[0]
	}
	.loc	3 611 4
	{
		add r11, r11, 4
		add r3, r3, 4
	}
	bt r1, .LBB8_12
	bu .LBB8_14
.Ltmp563:
.LBB8_7:
	{
		mkmsk r0, 1
		nop
	}
	.loc	3 615 4
.Ltmp564:
	{
		lss r0, r1, r0
		nop
	}
	bt r0, .LBB8_14
.Ltmp565:
	{
		sub r0, r3, 4
		nop
	}
	.loc	3 616 5
	{
		sub r0, r3, 8
		ldw r2, r0[0]
	}
.Ltmp566:
.LBB8_9:
	{
		nop
		ldw r3, r11[0]
	}
	.loc	3 616 5
	lda16 r2, r3[r2]
	{
		nop
		ldw r3, r0[0]
	}
	.loc	3 616 5
	{
		sub r2, r2, r3
		nop
	}
	.loc	3 616 5
	{
		sub r1, r1, 1
		stw r2, r0[2]
	}
	.loc	3 615 4
	{
		add r11, r11, 4
		add r0, r0, 4
	}
	bt r1, .LBB8_9
	bu .LBB8_14
.Ltmp567:
.LBB8_4:
	{
		mkmsk r0, 1
		nop
	}
	.loc	3 619 4
.Ltmp568:
	{
		lss r0, r1, r0
		nop
	}
	bt r0, .LBB8_14
.Ltmp569:
	{
		sub r0, r3, 4
		nop
	}
	{
		nop
		ldw r2, r0[0]
	}
	ldaw r0, r3[-3]
	.loc	3 620 5
	{
		sub r0, r3, 8
		ldw r4, r0[0]
	}
.Ltmp570:
.LBB8_6:
	{
		nop
		ldw r3, r11[0]
	}
	{
		nop
		ldw r5, r0[0]
	}
	{
		sub r2, r2, r5
		nop
	}
	lda16 r2, r2[r2]
	.loc	3 620 5
	{
		add r3, r4, r3
		nop
	}
	.loc	3 620 5
	{
		add r2, r3, r2
		nop
	}
	.loc	3 620 5
	{
		sub r1, r1, 1
		stw r2, r0[2]
	}
	.loc	3 619 4
	{
		add r11, r11, 4
		add r0, r0, 4
	}
	.loc	3 620 5
	{
		mov r4, r5
		nop
	}
	bt r1, .LBB8_6
	bu .LBB8_14
.Ltmp571:
.LBB8_1:
	{
		mkmsk r0, 1
		nop
	}
	.loc	3 623 4
.Ltmp572:
	{
		lss r0, r1, r0
		nop
	}
	bt r0, .LBB8_14
.Ltmp573:
	{
		sub r0, r3, 4
		nop
	}
	{
		nop
		ldw r2, r0[0]
	}
	ldaw r0, r3[-3]
	{
		nop
		ldw r4, r0[0]
	}
	ldaw r0, r3[-4]
	ldw r3, cp[.LCPI8_0]
.Ltmp574:
.LBB8_3:
	{
		nop
		ldw r5, r11[0]
	}
	{
		nop
		ldw r6, r0[2]
	}
	.loc	3 624 5
	mul r7, r6, r3
	.loc	3 624 5
	{
		add r2, r4, r2
		ldw r8, r0[0]
	}
	.loc	3 624 5
	{
		add r4, r7, r5
		nop
	}
	.loc	3 624 5
	{
		sub r4, r4, r8
		nop
	}
	.loc	3 624 5
	ldaw r2, r4[r2]
	.loc	3 624 5
	{
		sub r1, r1, 1
		stw r2, r0[4]
	}
	.loc	3 623 4
	{
		add r11, r11, 4
		add r0, r0, 4
	}
	.loc	3 624 5
	{
		mov r4, r6
		nop
	}
	bt r1, .LBB8_3
.Ltmp575:
.LBB8_14:
	{
		nop
		ldw r8, sp[6]
	}
	.loc	3 629 1
	ldd r7, r6, sp[2]
	ldd r5, r4, sp[1]
	{
		nop
		retsp 8
	}
	# RETURN_REG_HOLDER
.Ltmp576:
	.cc_bottom FLAC__fixed_restore_signal_wide.function
	.set	FLAC__fixed_restore_signal_wide.nstackwords,(__memcpy_4.nstackwords + 8)
	.globl	FLAC__fixed_restore_signal_wide.nstackwords
	.set	FLAC__fixed_restore_signal_wide.maxcores,1
	.globl	FLAC__fixed_restore_signal_wide.maxcores
	.set	FLAC__fixed_restore_signal_wide.maxtimers,0
	.globl	FLAC__fixed_restore_signal_wide.maxtimers
	.set	FLAC__fixed_restore_signal_wide.maxchanends,0
	.globl	FLAC__fixed_restore_signal_wide.maxchanends
.Ltmp577:
	.size	FLAC__fixed_restore_signal_wide, .Ltmp577-FLAC__fixed_restore_signal_wide
.Lfunc_end8:
	.cfi_endproc

	.section	.cp.rodata.cst4,"aMc",@progbits,4
	.cc_top .LCPI9_0.data,.LCPI9_0
	.align	4
	.type	.LCPI9_0,@object
	.size	.LCPI9_0, 4
.LCPI9_0:
	.long	4294967290
	.cc_bottom .LCPI9_0.data
	.text
	.globl	FLAC__fixed_restore_signal_wide_33bit
	.align	4
	.type	FLAC__fixed_restore_signal_wide_33bit,@function
	.cc_top FLAC__fixed_restore_signal_wide_33bit.function,FLAC__fixed_restore_signal_wide_33bit
FLAC__fixed_restore_signal_wide_33bit:
.Lfunc_begin9:
	.loc	3 640 0
	.cfi_startproc
	.issue_mode dual
	{
		nop
		dualentsp 14
	}
.Ltmp578:
	.cfi_def_cfa_offset 56
.Ltmp579:
	.cfi_offset 15, 0
	std r5, r4, sp[3]
.Ltmp580:
	.cfi_offset 4, -32
.Ltmp581:
	.cfi_offset 5, -28
	std r7, r6, sp[4]
.Ltmp582:
	.cfi_offset 6, -24
.Ltmp583:
	.cfi_offset 7, -20
	std r9, r8, sp[5]
.Ltmp584:
	.cfi_offset 8, -16
.Ltmp585:
	.cfi_offset 9, -12
.Ltmp586:
	.cfi_offset 10, -8
.Ltmp587:
	{
		ldc r11, 4
		stw r10, sp[12]
	}
	.loc	3 643 2 prologue_end
.Ltmp588:
	{
		lsu r11, r11, r2
		nop
	}
	.loc	3 665 4
.Ltmp589:
	{
		ecallt r11
		nop
	}

	.xtabranch .Ljumptable5+4,.Ljumptable5+8,.Ljumptable5+12,.Ljumptable5+16,.Ljumptable5+20
.Ljumptable5:
		
	{
		nop
		bru r2
	}
	.jmptable32 .LBB9_13,.LBB9_10,.LBB9_7,.LBB9_4,.LBB9_1
.Ltmp590:
.LBB9_13:
	{
		mkmsk r2, 1
		nop
	}
	.loc	3 645 4
.Ltmp591:
	{
		lss r2, r1, r2
		nop
	}
	bt r2, .LBB9_15
.Ltmp592:
.LBB9_14:
	{
		nop
		ldw r2, r0[0]
	}
	.loc	3 646 5
	ashr r11, r2, 32
	.loc	3 646 5
	std r11, r2, r3[0]
	.loc	3 645 4
	{
		sub r1, r1, 1
		add r0, r0, 4
	}
	.loc	3 645 4
	{
		add r3, r3, 8
		nop
	}
	bt r1, .LBB9_14
	bu .LBB9_15
.Ltmp593:
.LBB9_10:
	{
		mkmsk r2, 1
		nop
	}
	.loc	3 649 4
.Ltmp594:
	{
		lss r2, r1, r2
		nop
	}
	bt r2, .LBB9_15
.Ltmp595:
	{
		sub r2, r3, 8
		nop
	}
	.loc	3 650 5
	ldd r11, r2, r2[0]
	{
		ldc r4, 0
		nop
	}
.Ltmp596:
.LBB9_12:
	{
		nop
		ldw r5, r0[0]
	}
	.loc	3 650 5
	ashr r6, r5, 32
	.loc	3 650 5
	ladd r5, r2, r5, r2, r4
	ladd r5, r11, r6, r11, r5
	.loc	3 650 5
	std r11, r2, r3[0]
	.loc	3 649 4
	{
		sub r1, r1, 1
		add r0, r0, 4
	}
	.loc	3 649 4
	{
		add r3, r3, 8
		nop
	}
	bt r1, .LBB9_12
	bu .LBB9_15
.Ltmp597:
.LBB9_7:
	{
		mkmsk r2, 1
		nop
	}
	.loc	3 653 4
.Ltmp598:
	{
		lss r2, r1, r2
		nop
	}
	bt r2, .LBB9_15
.Ltmp599:
	{
		sub r2, r3, 8
		nop
	}
	.loc	3 654 5
	ldd r5, r4, r2[0]
	ldaw r2, r3[-4]
	{
		mkmsk r3, 5
		ldc r11, 0
	}
.Ltmp600:
.LBB9_9:
	{
		nop
		ldw r6, r0[0]
	}
	.loc	3 654 5
	ashr r7, r6, 32
	.loc	3 654 5
	{
		shr r8, r4, r3
		shl r5, r5, 1
	}
	{
		or r5, r5, r8
		shl r4, r4, 1
	}
	.loc	3 654 5
	ladd r6, r4, r4, r6, r11
	ladd r6, r5, r5, r7, r6
	.loc	3 654 5
	ldd r7, r6, r2[0]
	.loc	3 654 5
	lsub r6, r4, r4, r6, r11
	lsub r6, r5, r5, r7, r6
	ldaw r6, r2[4]
	.loc	3 654 5
	std r5, r4, r6[0]
	.loc	3 653 4
	{
		sub r1, r1, 1
		add r0, r0, 4
	}
	.loc	3 653 4
	{
		add r2, r2, 8
		nop
	}
	bt r1, .LBB9_9
	bu .LBB9_15
.Ltmp601:
.LBB9_4:
	{
		mkmsk r2, 1
		nop
	}
	.loc	3 657 4
.Ltmp602:
	{
		lss r2, r1, r2
		nop
	}
	bt r2, .LBB9_15
.Ltmp603:
	{
		sub r2, r3, 8
		nop
	}
	.loc	3 658 5
	ldd r5, r11, r2[0]
	ldaw r2, r3[-6]
	.loc	3 658 5
	ldd r7, r10, r2[0]
	ldaw r2, r3[-4]
.Ltmp604:
.LBB9_6:
	{
		nop
		ldw r8, r0[0]
	}
	.loc	3 658 5
	ashr r3, r8, 32
	{
		nop
		stw r3, sp[5]
	}
	.loc	3 658 5
	ldd r9, r4, r2[0]
	{
		ldc r3, 0
		nop
	}
	{
		mov r6, r3
		nop
	}
	lsub r11, r3, r11, r4, r6
	lsub r5, r11, r5, r9, r11
	lda16 r5, r11[r11]
	.loc	3 658 5
	ladd r6, r11, r10, r8, r6
	{
		nop
		ldw r8, sp[5]
	}
	ladd r6, r7, r7, r8, r6
	{
		mkmsk r6, 2
		nop
	}
	.loc	3 658 5
	maccu r7, r11, r3, r6
	{
		add r5, r7, r5
		nop
	}
	ldaw r3, r2[4]
	.loc	3 658 5
	std r5, r11, r3[0]
	.loc	3 657 4
	{
		sub r1, r1, 1
		add r0, r0, 4
	}
	.loc	3 657 4
	{
		add r2, r2, 8
		mov r10, r4
	}
	.loc	3 658 5
	{
		mov r7, r9
		nop
	}
	bt r1, .LBB9_6
	bu .LBB9_15
.Ltmp605:
.LBB9_1:
	{
		mkmsk r2, 1
		nop
	}
	.loc	3 661 4
.Ltmp606:
	{
		lss r2, r1, r2
		nop
	}
	bt r2, .LBB9_15
.Ltmp607:
	{
		sub r2, r3, 8
		nop
	}
	.loc	3 662 5
	ldd r6, r5, r2[0]
	ldaw r2, r3[-6]
	.loc	3 662 5
	ldd r11, r7, r2[0]
	ldaw r2, r3[-8]
.Ltmp608:
.LBB9_3:
	{
		nop
		stw r11, sp[1]
	}
	{
		nop
		ldw r4, r0[0]
	}
	.loc	3 662 5
	ashr r3, r4, 32
	ldaw r9, r2[4]
	.loc	3 662 5
	ldd r9, r10, r9[0]
	{
		nop
		stw r9, sp[2]
	}
	ldw r11, cp[.LCPI9_0]
	{
		mov r8, r11
		nop
	}
	.loc	3 662 5
	mul r11, r9, r8
	{
		nop
		stw r11, sp[4]
	}
	.loc	3 662 5
	ldd r11, r9, r2[0]
	{
		nop
		stw r9, sp[3]
	}
	{
		ldc r11, 0
		stw r11, sp[5]
	}
	ladd r7, r5, r7, r5, r11
	{
		nop
		ldw r9, sp[1]
	}
	ladd r7, r6, r9, r6, r7
	{
		ldc r7, 30
		nop
	}
	{
		shr r7, r5, r7
		shl r6, r6, 2
	}
	{
		or r6, r6, r7
		shl r5, r5, 2
	}
	.loc	3 662 5
	maccu r3, r4, r10, r8
	{
		sub r3, r3, r10
		ldw r7, sp[4]
	}
	{
		add r3, r3, r7
		ldw r7, sp[3]
	}
	.loc	3 662 5
	lsub r4, r7, r4, r7, r11
	{
		nop
		ldw r8, sp[5]
	}
	lsub r4, r3, r3, r8, r4
	.loc	3 662 5
	ladd r11, r5, r7, r5, r11
	ladd r3, r6, r3, r6, r11
	ldaw r3, r2[8]
	.loc	3 662 5
	std r6, r5, r3[0]
	.loc	3 661 4
	{
		sub r1, r1, 1
		add r0, r0, 4
	}
	.loc	3 661 4
	{
		add r2, r2, 8
		mov r7, r10
	}
	{
		nop
		ldw r11, sp[2]
	}
	bt r1, .LBB9_3
.Ltmp609:
.LBB9_15:
	{
		nop
		ldw r10, sp[12]
	}
	.loc	3 667 1
	ldd r9, r8, sp[5]
	ldd r7, r6, sp[4]
	ldd r5, r4, sp[3]
	{
		nop
		retsp 14
	}
	# RETURN_REG_HOLDER
.Ltmp610:
	.cc_bottom FLAC__fixed_restore_signal_wide_33bit.function
	.set	FLAC__fixed_restore_signal_wide_33bit.nstackwords,14
	.globl	FLAC__fixed_restore_signal_wide_33bit.nstackwords
	.set	FLAC__fixed_restore_signal_wide_33bit.maxcores,1
	.globl	FLAC__fixed_restore_signal_wide_33bit.maxcores
	.set	FLAC__fixed_restore_signal_wide_33bit.maxtimers,0
	.globl	FLAC__fixed_restore_signal_wide_33bit.maxtimers
	.set	FLAC__fixed_restore_signal_wide_33bit.maxchanends,0
	.globl	FLAC__fixed_restore_signal_wide_33bit.maxchanends
.Ltmp611:
	.size	FLAC__fixed_restore_signal_wide_33bit, .Ltmp611-FLAC__fixed_restore_signal_wide_33bit
.Lfunc_end9:
	.cfi_endproc

.Ldebug_end0:
	.section	.trap_info,"",@progbits
.Ltrap_info_entries_start0:
	.long	.Ltrap_info_entries_end0-.Ltrap_info_entries_start0
	.long	1
.Ltrap_info_entries_end0: