	.text
	.file	"get_adc_counts.c"
	.text
	.globl	GetADCCounts
	.align	4
	.type	GetADCCounts,@function
	.cc_top GetADCCounts.function,GetADCCounts
GetADCCounts:
.Lfunc_begin0:
	.file	2 "C:/Users/takaaki/git/sw_xSSDAC/module_usb_audio/usb_buffer\\get_adc_counts.c"
	.loc	2 30 0
	.cfi_startproc
	.issue_mode single
	ENTSP_lu6 14
.Ltmp0:
	.cfi_def_cfa_offset 56
.Ltmp1:
	.cfi_offset 15, 0
	std r5, r4, sp[5]
.Ltmp2:
	.cfi_offset 4, -16
.Ltmp3:
	.cfi_offset 5, -12
	stw r6, sp[12]
.Ltmp4:
	.cfi_offset 6, -8
	mov r11, r3
	mov r4, r2
	mov r5, r1
	mov r6, r0
	stw r0, sp[9]
	stw r1, sp[8]
	stw r2, sp[7]
	stw r3, sp[6]
	.loc	2 33 5 prologue_end
.Ltmp5:
	ldw r0, dp[g_curUsbSpeed]
	.loc	2 33 5
	stw r0, sp[4]
	.loc	2 34 9
.Ltmp6:
	eq r0, r0, 2
	stw r11, sp[3]
	stw r4, sp[2]
	stw r5, sp[1]
	stw r6, sp[0]
	bf r0, .LBB0_2
	bu .LBB0_1
.LBB0_1:
	ldc r0, 8000
	.loc	2 35 7
	stw r0, sp[5]
	.loc	2 35 7
	bu .LBB0_3
.LBB0_2:
	ldc r0, 1000
	.loc	2 37 7
	stw r0, sp[5]
	bu .LBB0_3
.Ltmp7:
.LBB0_3:
	.loc	2 39 5
	ldw r0, sp[9]
	.loc	2 39 5
	ldw r1, sp[5]
	.loc	2 39 5
	divu r0, r0, r1
	.loc	2 39 5
	ldw r1, sp[8]
	.loc	2 39 5
	stw r0, r1[0]
	.loc	2 40 5
	ldw r0, sp[8]
	.loc	2 40 5
	ldw r0, r0[0]
	.loc	2 40 5
	add r0, r0, 1
	.loc	2 40 5
	ldw r1, sp[6]
	.loc	2 40 5
	stw r0, r1[0]
	.loc	2 42 5
	ldw r0, sp[8]
	.loc	2 42 5
	ldw r0, r0[0]
	.loc	2 42 5
	ldw r1, sp[7]
	.loc	2 42 5
	stw r0, r1[0]
	.loc	2 45 8
.Ltmp8:
	ldw r0, sp[9]
	.loc	2 45 8
	ldw r1, sp[5]
	.loc	2 45 8
	remu r0, r0, r1
	.loc	2 45 8
	bt r0, .LBB0_5
	bu .LBB0_4
.LBB0_4:
	.loc	2 47 9
.Ltmp9:
	ldw r0, sp[8]
	.loc	2 47 9
	ldw r1, r0[0]
	.loc	2 47 9
	sub r1, r1, 1
	.loc	2 47 9
	stw r1, r0[0]
	.loc	2 48 5
	bu .LBB0_5
.Ltmp10:
.LBB0_5:
	.loc	2 50 1
	ldw r6, sp[12]
	ldd r5, r4, sp[5]
	retsp 14
	# RETURN_REG_HOLDER
.Ltmp11:
	.cc_bottom GetADCCounts.function
	.set	GetADCCounts.nstackwords,14
	.globl	GetADCCounts.nstackwords
	.set	GetADCCounts.maxcores,1
	.globl	GetADCCounts.maxcores
	.set	GetADCCounts.maxtimers,0
	.globl	GetADCCounts.maxtimers
	.set	GetADCCounts.maxchanends,0
	.globl	GetADCCounts.maxchanends
.Ltmp12:
	.size	GetADCCounts, .Ltmp12-GetADCCounts
.Lfunc_end0:
	.cfi_endproc

.Ldebug_end0:
	.section	.trap_info,"",@progbits
.Ltrap_info_entries_start0:
	.long	.Ltrap_info_entries_end0-.Ltrap_info_entries_start0
	.long	1
.Ltrap_info_entries_end0: