	.text
	.file	"C:/Users/takaaki/git/sw_xSSDAC/module_human_interface/src\\button_listener.h"
                                        # Start of file scope inline assembly
	.inline_definition delay_seconds
	.inline_definition delay_milliseconds
	.inline_definition delay_microseconds
	.inline_definition XUD_SetReady_Out
	.inline_definition XUD_SetReady_OutPtr
	.inline_definition XUD_SetReady_InPtr
	.inline_definition XUD_SetReady_In
	.weak _i.i_dfu.HandleDfuRequest.maxchanends.group
	.max_reduce _i.i_dfu.HandleDfuRequest.max.maxchanends, _i.i_dfu.HandleDfuRequest.maxchanends.group, 0
	.weak _i.i_dfu.HandleDfuRequest.maxcores.group
	.max_reduce _i.i_dfu.HandleDfuRequest.max.maxcores, _i.i_dfu.HandleDfuRequest.maxcores.group, 0
	.weak _i.i_dfu.HandleDfuRequest.maxtimers.group
	.max_reduce _i.i_dfu.HandleDfuRequest.max.maxtimers, _i.i_dfu.HandleDfuRequest.maxtimers.group, 0
	.weak _i.i_dfu.HandleDfuRequest.nstackwords.group
	.globl _i.i_dfu.HandleDfuRequest.nstackwords.group
	.weak _i.i_dfu.HandleDfuRequest.fns.group
	.globl _i.i_dfu.HandleDfuRequest.fns.group
	.max_reduce _i.i_dfu.HandleDfuRequest.max.nstackwords, _i.i_dfu.HandleDfuRequest.nstackwords.group, 0
	.max_reduce _i.i_dfu.HandleDfuRequest.fns, _i.i_dfu.HandleDfuRequest.fns.group, 0
	.weak _i.i_dfu.finish.maxchanends.group
	.max_reduce _i.i_dfu.finish.max.maxchanends, _i.i_dfu.finish.maxchanends.group, 0
	.weak _i.i_dfu.finish.maxcores.group
	.max_reduce _i.i_dfu.finish.max.maxcores, _i.i_dfu.finish.maxcores.group, 0
	.weak _i.i_dfu.finish.maxtimers.group
	.max_reduce _i.i_dfu.finish.max.maxtimers, _i.i_dfu.finish.maxtimers.group, 0
	.weak _i.i_dfu.finish.nstackwords.group
	.globl _i.i_dfu.finish.nstackwords.group
	.weak _i.i_dfu.finish.fns.group
	.globl _i.i_dfu.finish.fns.group
	.max_reduce _i.i_dfu.finish.max.nstackwords, _i.i_dfu.finish.nstackwords.group, 0
	.max_reduce _i.i_dfu.finish.fns, _i.i_dfu.finish.fns.group, 0
	.weak _i.i_dfu.__interface_init.maxchanends.group
	.max_reduce _i.i_dfu.__interface_init.max.maxchanends, _i.i_dfu.__interface_init.maxchanends.group, 0
	.weak _i.i_dfu.__interface_init.maxcores.group
	.max_reduce _i.i_dfu.__interface_init.max.maxcores, _i.i_dfu.__interface_init.maxcores.group, 0
	.weak _i.i_dfu.__interface_init.maxtimers.group
	.max_reduce _i.i_dfu.__interface_init.max.maxtimers, _i.i_dfu.__interface_init.maxtimers.group, 0
	.weak _i.i_dfu.__interface_init.nstackwords.group
	.globl _i.i_dfu.__interface_init.nstackwords.group
	.weak _i.i_dfu.__interface_init.fns.group
	.globl _i.i_dfu.__interface_init.fns.group
	.max_reduce _i.i_dfu.__interface_init.max.nstackwords, _i.i_dfu.__interface_init.nstackwords.group, 0
	.max_reduce _i.i_dfu.__interface_init.fns, _i.i_dfu.__interface_init.fns.group, 0
	.weak _i.i_dfu._client_call_y.maxchanends.group
	.add_to_set _i.i_dfu._client_call_y.maxchanends.group, (__interface_client_call_y_other.maxchanends + __interface_client_call_y_extra.maxchanends), __interface_client_call_y_other
	.max_reduce _i.i_dfu._client_call_y.max.maxchanends, _i.i_dfu._client_call_y.maxchanends.group, 0
	.weak _i.i_dfu._client_call_y.maxcores.group
	.add_to_set _i.i_dfu._client_call_y.maxcores.group, (__interface_client_call_y_other.maxcores + __interface_client_call_y_extra.maxcores), __interface_client_call_y_other
	.max_reduce _i.i_dfu._client_call_y.max.maxcores, _i.i_dfu._client_call_y.maxcores.group, 0
	.weak _i.i_dfu._client_call_y.maxtimers.group
	.add_to_set _i.i_dfu._client_call_y.maxtimers.group, (__interface_client_call_y_other.maxtimers + __interface_client_call_y_extra.maxtimers), __interface_client_call_y_other
	.max_reduce _i.i_dfu._client_call_y.max.maxtimers, _i.i_dfu._client_call_y.maxtimers.group, 0
	.weak _i.i_dfu._client_call_y.nstackwords.group
	.globl _i.i_dfu._client_call_y.nstackwords.group
	.weak _i.i_dfu._client_call_y.fns.group
	.globl _i.i_dfu._client_call_y.fns.group
	.add_to_set _i.i_dfu._client_call_y.nstackwords.group, (__interface_client_call_y_other.nstackwords + __interface_client_call_y_extra.nstackwords), __interface_client_call_y_other
	.add_to_set _i.i_dfu._client_call_y.fns.group, __interface_client_call_y_other, __interface_client_call_y_other
	.max_reduce _i.i_dfu._client_call_y.max.nstackwords, _i.i_dfu._client_call_y.nstackwords.group, 0
	.max_reduce _i.i_dfu._client_call_y.fns, _i.i_dfu._client_call_y.fns.group, 0
	.set usage.anon.0,0
	.set usage.anon.1,0
	.set usage.anon.2,0
	.set usage.anon.3,0
	.set usage.anon.4,0
	.set usage.anon.5,0
	.set usage.anon.6,0
	.call usage.anon.6,usage.anon.5
	.call usage.anon.2,delay_ticks_longlong
	.call usage.anon.1,delay_ticks_longlong
	.call usage.anon.0,delay_ticks_longlong
	.set usage.anon.3.locnoside, 0
	.set usage.anon.6.locnoside, 0

                                        # End of file scope inline assembly
	.text
	.weak	_i.i_dfu._chan.finish
	.align	4
	.type	_i.i_dfu._chan.finish,@function
	.cc_top _i.i_dfu._chan.finish.function,_i.i_dfu._chan.finish
_i.i_dfu._chan.finish:                  # @_i.i_dfu._chan.finish
	.cfi_startproc
	.issue_mode single
# BB#0:                                 # %allocas
	ENTSP_lu6 6
.Ltmp0:
	.cfi_def_cfa_offset 24
.Ltmp1:
	.cfi_offset 15, 0
	ldc r1, 0
	stw r1, sp[2]
	stw r0, sp[0]                   # 4-byte Folded Spill
	bu .LBB0_1
.LBB0_1:                                # %late_allocas
	ldw r0, sp[0]                   # 4-byte Folded Reload
	stw r0, sp[4]
	bu .LBB0_2
.LBB0_2:                                # %body
	getr r0, 2
	stw r0, sp[3]
	ldc r0, 0
	stw r0, sp[2]
	ldw r0, sp[4]
	ldw r1, sp[3]
	setd res[r1], r0
	ldw r0, sp[3]
	add r1, r0, 1
	out res[r0], r1
	ldw r0, sp[3]
	outct res[r0], 2
	ldw r0, sp[3]
	in r0, res[r0]
	stw r0, sp[1]
	ldw r0, sp[3]
	chkct res[r0], 1
	bu .LBB0_3
.LBB0_3:                                # %cleanup
	ldw r0, sp[3]
	freer res[r0]
	bu .LBB0_4
.LBB0_4:                                # %postcleanup
	bu .LBB0_5
.LBB0_5:                                # %return
	retsp 6
	# RETURN_REG_HOLDER
	.cc_bottom _i.i_dfu._chan.finish.function
	.set	_i.i_dfu._chan.finish.nstackwords,6
	.globl	_i.i_dfu._chan.finish.nstackwords
	.weak	_i.i_dfu._chan.finish.nstackwords
	.set	_i.i_dfu._chan.finish.maxcores,1
	.globl	_i.i_dfu._chan.finish.maxcores
	.weak	_i.i_dfu._chan.finish.maxcores
	.set	_i.i_dfu._chan.finish.maxtimers,0
	.globl	_i.i_dfu._chan.finish.maxtimers
	.weak	_i.i_dfu._chan.finish.maxtimers
	.set	_i.i_dfu._chan.finish.maxchanends,1
	.globl	_i.i_dfu._chan.finish.maxchanends
	.weak	_i.i_dfu._chan.finish.maxchanends
.Ltmp2:
	.size	_i.i_dfu._chan.finish, .Ltmp2-_i.i_dfu._chan.finish
	.cfi_endproc

	.weak	_i.i_dfu._chan.HandleDfuRequest
	.align	4
	.type	_i.i_dfu._chan.HandleDfuRequest,@function
	.cc_top _i.i_dfu._chan.HandleDfuRequest.function,_i.i_dfu._chan.HandleDfuRequest
_i.i_dfu._chan.HandleDfuRequest:        # @_i.i_dfu._chan.HandleDfuRequest
	.cfi_startproc
	.issue_mode single
# BB#0:                                 # %allocas
	ENTSP_lu6 32
.Ltmp3:
	.cfi_def_cfa_offset 128
.Ltmp4:
	.cfi_offset 15, 0
	stw r4, sp[30]                  # 4-byte Folded Spill
	stw r5, sp[31]                  # 4-byte Folded Spill
.Ltmp5:
	.cfi_offset 4, -8
.Ltmp6:
	.cfi_offset 5, -4
	ldw r11, sp[34]
	ldw r4, sp[33]
	ldc r5, 0
	stw r5, sp[14]
	stw r4, sp[8]                   # 4-byte Folded Spill
	stw r3, sp[7]                   # 4-byte Folded Spill
	stw r2, sp[6]                   # 4-byte Folded Spill
	stw r1, sp[5]                   # 4-byte Folded Spill
	stw r11, sp[4]                  # 4-byte Folded Spill
	stw r0, sp[3]                   # 4-byte Folded Spill
	bu .LBB1_1
.LBB1_1:                                # %late_allocas
	ldw r0, sp[3]                   # 4-byte Folded Reload
	stw r0, sp[28]
	ldw r1, sp[5]                   # 4-byte Folded Reload
	stw r1, sp[27]
	ldw r2, sp[6]                   # 4-byte Folded Reload
	stw r2, sp[26]
	ldw r3, sp[4]                   # 4-byte Folded Reload
	stw r3, sp[25]
	ldw r11, sp[7]                  # 4-byte Folded Reload
	stw r11, sp[24]
	ldw r4, sp[8]                   # 4-byte Folded Reload
	stw r4, sp[23]
	bu .LBB1_2
.LBB1_2:                                # %body
	ldc r0, 2
	stw r0, sp[2]                   # 4-byte Folded Spill
	bu .LBB1_3
.LBB1_3:                                # %body5
                                        # =>This Inner Loop Header: Depth=1
	ldw r0, sp[2]                   # 4-byte Folded Reload
	sub r0, r0, 1
	ldaw r1, sp[16]
	ldc r2, 0
	stw r2, r1[r0]
	mov r1, r0
	stw r1, sp[2]                   # 4-byte Folded Spill
	bt r0, .LBB1_3
	bu .LBB1_4
.LBB1_4:                                # %done
	getr r0, 2
	stw r0, sp[15]
	ldc r0, 0
	stw r0, sp[14]
	ldw r0, sp[28]
	ldw r1, sp[15]
	setd res[r1], r0
	ldw r0, sp[15]
	out res[r0], r0
	ldw r0, sp[15]
	outct res[r0], 2
	ldw r0, sp[15]
	chkct res[r0], 1
	ldw r0, sp[27]
	stw r0, sp[16]
	ldw r0, sp[15]
	ldw r1, sp[25]
	out res[r0], r1
	ldw r0, sp[26]
	stw r0, sp[17]
	ldw r0, sp[15]
	ldw r1, sp[24]
	out res[r0], r1
	ldw r0, sp[15]
	ldw r1, sp[23]
	out res[r0], r1
	ldw r0, sp[15]
	outct res[r0], 2
	ldw r0, sp[15]
	ldaw r1, sp[16]
	bl __interface_client_call
	ldw r0, sp[15]
	in r0, res[r0]
	stw r0, sp[13]
	ldw r0, sp[15]
	in r0, res[r0]
	stw r0, sp[12]
	ldw r0, sp[15]
	in r0, res[r0]
	stw r0, sp[11]
	ldw r0, sp[15]
	in r0, res[r0]
	stw r0, sp[10]
	ldw r0, sp[15]
	in r0, res[r0]
	stw r0, sp[9]
	ldw r0, sp[15]
	chkct res[r0], 1
	ldw r0, sp[13]
	stw r0, sp[22]
	ldw r0, sp[12]
	stw r0, sp[21]
	ldw r0, sp[11]
	stw r0, sp[20]
	ldw r0, sp[10]
	stw r0, sp[19]
	ldw r0, sp[9]
	stw r0, sp[18]
	mkmsk r0, 2
	stw r0, sp[14]
	bu .LBB1_5
.LBB1_5:                                # %cleanup
	ldw r0, sp[15]
	freer res[r0]
	ldw r0, sp[14]
	eq r1, r0, 3
	stw r0, sp[1]                   # 4-byte Folded Spill
	bt r1, .LBB1_8
	bu .LBB1_10
.LBB1_10:                               # %cleanup
	ldw r0, sp[1]                   # 4-byte Folded Reload
	bt r0, .LBB1_7
	bu .LBB1_6
.LBB1_6:                                # %postcleanup
	bu .LBB1_9
.LBB1_7:                                # %unreachable
.LBB1_8:                                # %cleanupcasereturn
	bu .LBB1_9
.LBB1_9:                                # %return
	ldw r0, sp[22]
	ldw r1, sp[21]
	ldw r2, sp[20]
	ldw r3, sp[19]
	ldw r11, sp[18]
	stw r11, sp[35]
	ldw r4, sp[30]                  # 4-byte Folded Reload
	ldw r5, sp[31]                  # 4-byte Folded Reload
	retsp 32
	# RETURN_REG_HOLDER
	.cc_bottom _i.i_dfu._chan.HandleDfuRequest.function
	.set	_i.i_dfu._chan.HandleDfuRequest.nstackwords,(__interface_client_call.nstackwords + 32)
	.globl	_i.i_dfu._chan.HandleDfuRequest.nstackwords
	.weak	_i.i_dfu._chan.HandleDfuRequest.nstackwords
	.set	_i.i_dfu._chan.HandleDfuRequest.maxcores,__interface_client_call.maxcores $M 1
	.globl	_i.i_dfu._chan.HandleDfuRequest.maxcores
	.weak	_i.i_dfu._chan.HandleDfuRequest.maxcores
	.set	_i.i_dfu._chan.HandleDfuRequest.maxtimers,__interface_client_call.maxtimers $M 0
	.globl	_i.i_dfu._chan.HandleDfuRequest.maxtimers
	.weak	_i.i_dfu._chan.HandleDfuRequest.maxtimers
	.set	_i.i_dfu._chan.HandleDfuRequest.maxchanends,(1 + __interface_client_call.maxchanends) $M 1
	.globl	_i.i_dfu._chan.HandleDfuRequest.maxchanends
	.weak	_i.i_dfu._chan.HandleDfuRequest.maxchanends
.Ltmp7:
	.size	_i.i_dfu._chan.HandleDfuRequest, .Ltmp7-_i.i_dfu._chan.HandleDfuRequest
	.cfi_endproc

	.weak	_i.i_dfu._chan_yield.finish
	.align	4
	.type	_i.i_dfu._chan_yield.finish,@function
	.cc_top _i.i_dfu._chan_yield.finish.function,_i.i_dfu._chan_yield.finish
_i.i_dfu._chan_yield.finish:            # @_i.i_dfu._chan_yield.finish
	.cfi_startproc
	.issue_mode single
# BB#0:                                 # %allocas
	ENTSP_lu6 8
.Ltmp8:
	.cfi_def_cfa_offset 32
.Ltmp9:
	.cfi_offset 15, 0
	ldc r1, 0
	stw r1, sp[3]
	stw r0, sp[2]                   # 4-byte Folded Spill
	bu .LBB2_1
.LBB2_1:                                # %late_allocas
	ldw r0, sp[2]                   # 4-byte Folded Reload
	stw r0, sp[6]
	bu .LBB2_2
.LBB2_2:                                # %body
	ldw r0, sp[6]
	ldw r0, r0[0]
	stw r0, sp[5]
	getr r0, 2
	stw r0, sp[4]
	ldc r0, 0
	stw r0, sp[3]
	ldw r1, sp[5]
	ldw r2, sp[4]
	setd res[r2], r1
	ldw r1, sp[4]
	add r2, r1, 1
	out res[r1], r2
	ldw r1, sp[4]
	outct res[r1], 2
	ldw r1, sp[4]
	ldw r2, sp[6]
	ldw r2, r2[1]
	stw r0, sp[1]                   # 4-byte Folded Spill
	mov r0, r1
	ldw r1, sp[1]                   # 4-byte Folded Reload
	bl __interface_client_call_y
	ldw r0, sp[4]
	chkct res[r0], 1
	bu .LBB2_3
.LBB2_3:                                # %cleanup
	ldw r0, sp[4]
	freer res[r0]
	bu .LBB2_4
.LBB2_4:                                # %postcleanup
	bu .LBB2_5
.LBB2_5:                                # %return
	retsp 8
	# RETURN_REG_HOLDER
	.cc_bottom _i.i_dfu._chan_yield.finish.function
	.set	_i.i_dfu._chan_yield.finish.nstackwords,((_i.i_dfu._client_call_y.max.nstackwords $M ($D __interface_client_call_y.nstackwords ? __interface_client_call_y.nstackwords $: _i.i_dfu._client_call_y.max.nstackwords)) + 8)
	.globl	_i.i_dfu._chan_yield.finish.nstackwords
	.weak	_i.i_dfu._chan_yield.finish.nstackwords
	.set	_i.i_dfu._chan_yield.finish.maxcores,($D __interface_client_call_y.maxcores ? __interface_client_call_y.maxcores $: _i.i_dfu._client_call_y.max.maxcores) $M 1
	.globl	_i.i_dfu._chan_yield.finish.maxcores
	.weak	_i.i_dfu._chan_yield.finish.maxcores
	.set	_i.i_dfu._chan_yield.finish.maxtimers,($D __interface_client_call_y.maxtimers ? __interface_client_call_y.maxtimers $: _i.i_dfu._client_call_y.max.maxtimers) $M 0
	.globl	_i.i_dfu._chan_yield.finish.maxtimers
	.weak	_i.i_dfu._chan_yield.finish.maxtimers
	.set	_i.i_dfu._chan_yield.finish.maxchanends,(1 + ($D __interface_client_call_y.maxchanends ? __interface_client_call_y.maxchanends $: _i.i_dfu._client_call_y.max.maxchanends)) $M 1
	.globl	_i.i_dfu._chan_yield.finish.maxchanends
	.weak	_i.i_dfu._chan_yield.finish.maxchanends
.Ltmp10:
	.size	_i.i_dfu._chan_yield.finish, .Ltmp10-_i.i_dfu._chan_yield.finish
	.cfi_endproc

	.weak	_i.i_dfu._chan_yield.HandleDfuRequest
	.align	4
	.type	_i.i_dfu._chan_yield.HandleDfuRequest,@function
	.cc_top _i.i_dfu._chan_yield.HandleDfuRequest.function,_i.i_dfu._chan_yield.HandleDfuRequest
_i.i_dfu._chan_yield.HandleDfuRequest:  # @_i.i_dfu._chan_yield.HandleDfuRequest
	.cfi_startproc
	.issue_mode single
# BB#0:                                 # %allocas
	ENTSP_lu6 34
.Ltmp11:
	.cfi_def_cfa_offset 136
.Ltmp12:
	.cfi_offset 15, 0
	stw r4, sp[32]                  # 4-byte Folded Spill
	stw r5, sp[33]                  # 4-byte Folded Spill
.Ltmp13:
	.cfi_offset 4, -8
.Ltmp14:
	.cfi_offset 5, -4
	ldw r11, sp[36]
	ldw r4, sp[35]
	ldc r5, 0
	stw r5, sp[15]
	stw r4, sp[9]                   # 4-byte Folded Spill
	stw r3, sp[8]                   # 4-byte Folded Spill
	stw r2, sp[7]                   # 4-byte Folded Spill
	stw r1, sp[6]                   # 4-byte Folded Spill
	stw r11, sp[5]                  # 4-byte Folded Spill
	stw r0, sp[4]                   # 4-byte Folded Spill
	bu .LBB3_1
.LBB3_1:                                # %late_allocas
	ldw r0, sp[4]                   # 4-byte Folded Reload
	stw r0, sp[30]
	ldw r1, sp[6]                   # 4-byte Folded Reload
	stw r1, sp[29]
	ldw r2, sp[7]                   # 4-byte Folded Reload
	stw r2, sp[28]
	ldw r3, sp[5]                   # 4-byte Folded Reload
	stw r3, sp[27]
	ldw r11, sp[8]                  # 4-byte Folded Reload
	stw r11, sp[26]
	ldw r4, sp[9]                   # 4-byte Folded Reload
	stw r4, sp[25]
	bu .LBB3_2
.LBB3_2:                                # %body
	ldc r0, 2
	stw r0, sp[3]                   # 4-byte Folded Spill
	bu .LBB3_3
.LBB3_3:                                # %body5
                                        # =>This Inner Loop Header: Depth=1
	ldw r0, sp[3]                   # 4-byte Folded Reload
	sub r0, r0, 1
	ldaw r1, sp[18]
	ldc r2, 0
	stw r2, r1[r0]
	mov r1, r0
	stw r1, sp[3]                   # 4-byte Folded Spill
	bt r0, .LBB3_3
	bu .LBB3_4
.LBB3_4:                                # %done
	ldw r0, sp[30]
	ldw r0, r0[0]
	stw r0, sp[17]
	getr r0, 2
	stw r0, sp[16]
	ldc r0, 0
	stw r0, sp[15]
	ldw r0, sp[17]
	ldw r1, sp[16]
	setd res[r1], r0
	ldw r0, sp[16]
	out res[r0], r0
	ldw r0, sp[16]
	outct res[r0], 2
	ldw r0, sp[16]
	chkct res[r0], 1
	ldw r0, sp[29]
	stw r0, sp[18]
	ldw r0, sp[16]
	ldw r1, sp[27]
	out res[r0], r1
	ldw r0, sp[28]
	stw r0, sp[19]
	ldw r0, sp[16]
	ldw r1, sp[26]
	out res[r0], r1
	ldw r0, sp[16]
	ldw r1, sp[25]
	out res[r0], r1
	ldw r0, sp[16]
	outct res[r0], 2
	ldw r0, sp[16]
	ldw r1, sp[30]
	ldw r2, r1[1]
	ldaw r1, sp[18]
	bl __interface_client_call_y
	ldw r0, sp[16]
	in r0, res[r0]
	stw r0, sp[14]
	ldw r0, sp[16]
	in r0, res[r0]
	stw r0, sp[13]
	ldw r0, sp[16]
	in r0, res[r0]
	stw r0, sp[12]
	ldw r0, sp[16]
	in r0, res[r0]
	stw r0, sp[11]
	ldw r0, sp[16]
	in r0, res[r0]
	stw r0, sp[10]
	ldw r0, sp[16]
	chkct res[r0], 1
	ldw r0, sp[14]
	stw r0, sp[24]
	ldw r0, sp[13]
	stw r0, sp[23]
	ldw r0, sp[12]
	stw r0, sp[22]
	ldw r0, sp[11]
	stw r0, sp[21]
	ldw r0, sp[10]
	stw r0, sp[20]
	mkmsk r0, 2
	stw r0, sp[15]
	bu .LBB3_5
.LBB3_5:                                # %cleanup
	ldw r0, sp[16]
	freer res[r0]
	ldw r0, sp[15]
	eq r1, r0, 3
	stw r0, sp[2]                   # 4-byte Folded Spill
	bt r1, .LBB3_8
	bu .LBB3_10
.LBB3_10:                               # %cleanup
	ldw r0, sp[2]                   # 4-byte Folded Reload
	bt r0, .LBB3_7
	bu .LBB3_6
.LBB3_6:                                # %postcleanup
	bu .LBB3_9
.LBB3_7:                                # %unreachable
.LBB3_8:                                # %cleanupcasereturn
	bu .LBB3_9
.LBB3_9:                                # %return
	ldw r0, sp[24]
	ldw r1, sp[23]
	ldw r2, sp[22]
	ldw r3, sp[21]
	ldw r11, sp[20]
	stw r11, sp[37]
	ldw r4, sp[32]                  # 4-byte Folded Reload
	ldw r5, sp[33]                  # 4-byte Folded Reload
	retsp 34
	# RETURN_REG_HOLDER
	.cc_bottom _i.i_dfu._chan_yield.HandleDfuRequest.function
	.set	_i.i_dfu._chan_yield.HandleDfuRequest.nstackwords,(($D __interface_client_call_y.nstackwords ? __interface_client_call_y.nstackwords $: _i.i_dfu._client_call_y.max.nstackwords) + 34)
	.globl	_i.i_dfu._chan_yield.HandleDfuRequest.nstackwords
	.weak	_i.i_dfu._chan_yield.HandleDfuRequest.nstackwords
	.set	_i.i_dfu._chan_yield.HandleDfuRequest.maxcores,($D __interface_client_call_y.maxcores ? __interface_client_call_y.maxcores $: _i.i_dfu._client_call_y.max.maxcores) $M 1
	.globl	_i.i_dfu._chan_yield.HandleDfuRequest.maxcores
	.weak	_i.i_dfu._chan_yield.HandleDfuRequest.maxcores
	.set	_i.i_dfu._chan_yield.HandleDfuRequest.maxtimers,($D __interface_client_call_y.maxtimers ? __interface_client_call_y.maxtimers $: _i.i_dfu._client_call_y.max.maxtimers) $M 0
	.globl	_i.i_dfu._chan_yield.HandleDfuRequest.maxtimers
	.weak	_i.i_dfu._chan_yield.HandleDfuRequest.maxtimers
	.set	_i.i_dfu._chan_yield.HandleDfuRequest.maxchanends,(1 + ($D __interface_client_call_y.maxchanends ? __interface_client_call_y.maxchanends $: _i.i_dfu._client_call_y.max.maxchanends)) $M 1
	.globl	_i.i_dfu._chan_yield.HandleDfuRequest.maxchanends
	.weak	_i.i_dfu._chan_yield.HandleDfuRequest.maxchanends
.Ltmp15:
	.size	_i.i_dfu._chan_yield.HandleDfuRequest, .Ltmp15-_i.i_dfu._chan_yield.HandleDfuRequest
	.cfi_endproc

.Ldebug_end0:
	.file	2 "C:\\Program Files (x86)\\XMOS\\xTIMEcomposer\\Community_14.4.1\\target/include\\timer.h"
	.section	.trap_info,"",@progbits
.Ltrap_info_entries_start0:
	.long	.Ltrap_info_entries_end0-.Ltrap_info_entries_start0
	.long	1
.Ltrap_info_entries_end0: