	.text
	.file	"ogg_decoder_aspect.c"
	.text
	.globl	FLAC__ogg_decoder_aspect_init
	.align	4
	.type	FLAC__ogg_decoder_aspect_init,@function
	.cc_top FLAC__ogg_decoder_aspect_init.function,FLAC__ogg_decoder_aspect_init
FLAC__ogg_decoder_aspect_init:
.Lfunc_begin0:
	.loc	2 51 0
	.cfi_startproc
	.issue_mode dual
	{
		nop
		dualentsp 4
	}
.Ltmp0:
	.cfi_def_cfa_offset 16
.Ltmp1:
	.cfi_offset 15, 0
	std r5, r4, sp[1]
.Ltmp2:
	.cfi_offset 4, -8
.Ltmp3:
	.cfi_offset 5, -4
	{
		mov r4, r0
		nop
	}
.Ltmp4:
	.loc	2 53 5 prologue_end
	{
		add r0, r4, 8
		ldw r1, r4[1]
	}
	.loc	2 53 5
	bl ogg_stream_init
	{
		ldc r5, 0
		nop
	}
	bt r0, .LBB0_3
.Ltmp5:
	ldc r0, 368
	.loc	2 56 5
.Ltmp6:
	{
		add r0, r4, r0
		nop
	}
	.loc	2 56 5
	bl ogg_sync_init
	bt r0, .LBB0_3
.Ltmp7:
	ldc r0, 396
	.loc	2 59 2
	{
		add r0, r4, r0
		mkmsk r1, 32
	}
	{
		nop
		stw r1, r0[0]
	}
	ldc r0, 400
	.loc	2 60 2
	{
		add r0, r4, r0
		nop
	}
	{
		nop
		stw r1, r0[0]
	}
	{
		nop
		ldw r0, r4[0]
	}
	ldc r1, 404
	.loc	2 62 2
	{
		add r1, r4, r1
		nop
	}
	{
		nop
		stw r0, r1[0]
	}
	ldc r0, 408
	.loc	2 64 2
	{
		add r0, r4, r0
		ldc r1, 0
	}
	{
		nop
		stw r1, r0[0]
	}
	ldc r0, 412
	.loc	2 65 2
	{
		add r0, r4, r0
		nop
	}
	.loc	2 65 2
	{
		mkmsk r5, 1
		stw r1, r0[0]
	}
.Ltmp8:
.LBB0_3:
	.loc	2 68 1
	{
		mov r0, r5
		nop
	}
	ldd r5, r4, sp[1]
	{
		nop
		retsp 4
	}
	# RETURN_REG_HOLDER
.Ltmp9:
	.cc_bottom FLAC__ogg_decoder_aspect_init.function
	.set	FLAC__ogg_decoder_aspect_init.nstackwords,((ogg_stream_init.nstackwords $M ogg_sync_init.nstackwords) + 4)
	.globl	FLAC__ogg_decoder_aspect_init.nstackwords
	.set	FLAC__ogg_decoder_aspect_init.maxcores,ogg_stream_init.maxcores $M ogg_sync_init.maxcores $M 1
	.globl	FLAC__ogg_decoder_aspect_init.maxcores
	.set	FLAC__ogg_decoder_aspect_init.maxtimers,ogg_stream_init.maxtimers $M ogg_sync_init.maxtimers $M 0
	.globl	FLAC__ogg_decoder_aspect_init.maxtimers
	.set	FLAC__ogg_decoder_aspect_init.maxchanends,ogg_stream_init.maxchanends $M ogg_sync_init.maxchanends $M 0
	.globl	FLAC__ogg_decoder_aspect_init.maxchanends
.Ltmp10:
	.size	FLAC__ogg_decoder_aspect_init, .Ltmp10-FLAC__ogg_decoder_aspect_init
.Lfunc_end0:
	.cfi_endproc

	.globl	FLAC__ogg_decoder_aspect_finish
	.align	4
	.type	FLAC__ogg_decoder_aspect_finish,@function
	.cc_top FLAC__ogg_decoder_aspect_finish.function,FLAC__ogg_decoder_aspect_finish
FLAC__ogg_decoder_aspect_finish:
.Lfunc_begin1:
	.loc	2 71 0
	.cfi_startproc
	.issue_mode dual
	{
		nop
		dualentsp 4
	}
.Ltmp11:
	.cfi_def_cfa_offset 16
.Ltmp12:
	.cfi_offset 15, 0
.Ltmp13:
	.cfi_offset 4, -8
.Ltmp14:
	{
		mov r4, r0
		stw r4, sp[2]
	}
.Ltmp15:
	ldc r0, 368
	.loc	2 72 8 prologue_end
.Ltmp16:
	{
		add r0, r4, r0
		nop
	}
	.loc	2 72 8
	bl ogg_sync_clear
	.loc	2 73 8
	{
		add r0, r4, 8
		nop
	}
	.loc	2 73 8
	bl ogg_stream_clear
	{
		nop
		ldw r4, sp[2]
	}
	{
		nop
		retsp 4
	}
	.loc	2 74 1
	# RETURN_REG_HOLDER
.Ltmp17:
	.cc_bottom FLAC__ogg_decoder_aspect_finish.function
	.set	FLAC__ogg_decoder_aspect_finish.nstackwords,((ogg_sync_clear.nstackwords $M ogg_stream_clear.nstackwords) + 4)
	.globl	FLAC__ogg_decoder_aspect_finish.nstackwords
	.set	FLAC__ogg_decoder_aspect_finish.maxcores,ogg_stream_clear.maxcores $M ogg_sync_clear.maxcores $M 1
	.globl	FLAC__ogg_decoder_aspect_finish.maxcores
	.set	FLAC__ogg_decoder_aspect_finish.maxtimers,ogg_stream_clear.maxtimers $M ogg_sync_clear.maxtimers $M 0
	.globl	FLAC__ogg_decoder_aspect_finish.maxtimers
	.set	FLAC__ogg_decoder_aspect_finish.maxchanends,ogg_stream_clear.maxchanends $M ogg_sync_clear.maxchanends $M 0
	.globl	FLAC__ogg_decoder_aspect_finish.maxchanends
.Ltmp18:
	.size	FLAC__ogg_decoder_aspect_finish, .Ltmp18-FLAC__ogg_decoder_aspect_finish
.Lfunc_end1:
	.cfi_endproc

	.globl	FLAC__ogg_decoder_aspect_set_serial_number
	.align	4
	.type	FLAC__ogg_decoder_aspect_set_serial_number,@function
	.cc_top FLAC__ogg_decoder_aspect_set_serial_number.function,FLAC__ogg_decoder_aspect_set_serial_number
FLAC__ogg_decoder_aspect_set_serial_number:
.Lfunc_begin2:
	.loc	2 77 0
	.cfi_startproc
	.issue_mode dual
	{
		ldc r2, 0
		dualentsp 0
	}
	{
		nop
		stw r2, r0[0]
	}
	{
		nop
		stw r1, r0[1]
	}
	{
		nop
		retsp 0
	}
	.loc	2 80 1 prologue_end
.Ltmp19:
	# RETURN_REG_HOLDER
.Ltmp20:
	.cc_bottom FLAC__ogg_decoder_aspect_set_serial_number.function
	.set	FLAC__ogg_decoder_aspect_set_serial_number.nstackwords,0
	.globl	FLAC__ogg_decoder_aspect_set_serial_number.nstackwords
	.set	FLAC__ogg_decoder_aspect_set_serial_number.maxcores,1
	.globl	FLAC__ogg_decoder_aspect_set_serial_number.maxcores
	.set	FLAC__ogg_decoder_aspect_set_serial_number.maxtimers,0
	.globl	FLAC__ogg_decoder_aspect_set_serial_number.maxtimers
	.set	FLAC__ogg_decoder_aspect_set_serial_number.maxchanends,0
	.globl	FLAC__ogg_decoder_aspect_set_serial_number.maxchanends
.Ltmp21:
	.size	FLAC__ogg_decoder_aspect_set_serial_number, .Ltmp21-FLAC__ogg_decoder_aspect_set_serial_number
.Lfunc_end2:
	.cfi_endproc

	.globl	FLAC__ogg_decoder_aspect_set_defaults
	.align	4
	.type	FLAC__ogg_decoder_aspect_set_defaults,@function
	.cc_top FLAC__ogg_decoder_aspect_set_defaults.function,FLAC__ogg_decoder_aspect_set_defaults
FLAC__ogg_decoder_aspect_set_defaults:
.Lfunc_begin3:
	.loc	2 83 0
	.cfi_startproc
	.issue_mode dual
	{
		mkmsk r1, 1
		dualentsp 0
	}
	{
		nop
		stw r1, r0[0]
	}
	{
		nop
		retsp 0
	}
	.loc	2 85 1 prologue_end
.Ltmp22:
	# RETURN_REG_HOLDER
.Ltmp23:
	.cc_bottom FLAC__ogg_decoder_aspect_set_defaults.function
	.set	FLAC__ogg_decoder_aspect_set_defaults.nstackwords,0
	.globl	FLAC__ogg_decoder_aspect_set_defaults.nstackwords
	.set	FLAC__ogg_decoder_aspect_set_defaults.maxcores,1
	.globl	FLAC__ogg_decoder_aspect_set_defaults.maxcores
	.set	FLAC__ogg_decoder_aspect_set_defaults.maxtimers,0
	.globl	FLAC__ogg_decoder_aspect_set_defaults.maxtimers
	.set	FLAC__ogg_decoder_aspect_set_defaults.maxchanends,0
	.globl	FLAC__ogg_decoder_aspect_set_defaults.maxchanends
.Ltmp24:
	.size	FLAC__ogg_decoder_aspect_set_defaults, .Ltmp24-FLAC__ogg_decoder_aspect_set_defaults
.Lfunc_end3:
	.cfi_endproc

	.globl	FLAC__ogg_decoder_aspect_flush
	.align	4
	.type	FLAC__ogg_decoder_aspect_flush,@function
	.cc_top FLAC__ogg_decoder_aspect_flush.function,FLAC__ogg_decoder_aspect_flush
FLAC__ogg_decoder_aspect_flush:
.Lfunc_begin4:
	.loc	2 88 0
	.cfi_startproc
	.issue_mode dual
	{
		nop
		dualentsp 4
	}
.Ltmp25:
	.cfi_def_cfa_offset 16
.Ltmp26:
	.cfi_offset 15, 0
.Ltmp27:
	.cfi_offset 4, -8
.Ltmp28:
	{
		mov r4, r0
		stw r4, sp[2]
	}
.Ltmp29:
	.loc	2 89 8 prologue_end
	{
		add r0, r4, 8
		nop
	}
	.loc	2 89 8
	bl ogg_stream_reset
	ldc r0, 368
	.loc	2 90 8
	{
		add r0, r4, r0
		nop
	}
	.loc	2 90 8
	bl ogg_sync_reset
	ldc r0, 408
	.loc	2 91 2
	{
		add r0, r4, r0
		ldc r1, 0
	}
	{
		nop
		stw r1, r0[0]
	}
	ldc r0, 412
	.loc	2 92 2
	{
		add r0, r4, r0
		nop
	}
	{
		nop
		stw r1, r0[0]
	}
	{
		nop
		ldw r4, sp[2]
	}
	{
		nop
		retsp 4
	}
	.loc	2 93 1
	# RETURN_REG_HOLDER
.Ltmp30:
	.cc_bottom FLAC__ogg_decoder_aspect_flush.function
	.set	FLAC__ogg_decoder_aspect_flush.nstackwords,((ogg_stream_reset.nstackwords $M ogg_sync_reset.nstackwords) + 4)
	.globl	FLAC__ogg_decoder_aspect_flush.nstackwords
	.set	FLAC__ogg_decoder_aspect_flush.maxcores,ogg_stream_reset.maxcores $M ogg_sync_reset.maxcores $M 1
	.globl	FLAC__ogg_decoder_aspect_flush.maxcores
	.set	FLAC__ogg_decoder_aspect_flush.maxtimers,ogg_stream_reset.maxtimers $M ogg_sync_reset.maxtimers $M 0
	.globl	FLAC__ogg_decoder_aspect_flush.maxtimers
	.set	FLAC__ogg_decoder_aspect_flush.maxchanends,ogg_stream_reset.maxchanends $M ogg_sync_reset.maxchanends $M 0
	.globl	FLAC__ogg_decoder_aspect_flush.maxchanends
.Ltmp31:
	.size	FLAC__ogg_decoder_aspect_flush, .Ltmp31-FLAC__ogg_decoder_aspect_flush
.Lfunc_end4:
	.cfi_endproc

	.globl	FLAC__ogg_decoder_aspect_reset
	.align	4
	.type	FLAC__ogg_decoder_aspect_reset,@function
	.cc_top FLAC__ogg_decoder_aspect_reset.function,FLAC__ogg_decoder_aspect_reset
FLAC__ogg_decoder_aspect_reset:
.Lfunc_begin5:
	.loc	2 96 0
	.cfi_startproc
	.issue_mode dual
	{
		nop
		dualentsp 4
	}
.Ltmp32:
	.cfi_def_cfa_offset 16
.Ltmp33:
	.cfi_offset 15, 0
.Ltmp34:
	.cfi_offset 4, -8
.Ltmp35:
	{
		mov r4, r0
		stw r4, sp[2]
	}
.Ltmp36:
	.loc	2 89 8 prologue_end
	{
		add r0, r4, 8
		nop
	}
	.loc	2 89 8
	bl ogg_stream_reset
	ldc r0, 368
	.loc	2 90 8
	{
		add r0, r4, r0
		nop
	}
	.loc	2 90 8
	bl ogg_sync_reset
	ldc r0, 408
	.loc	2 91 2
	{
		add r0, r4, r0
		ldc r1, 0
	}
	{
		nop
		stw r1, r0[0]
	}
	ldc r0, 412
	.loc	2 92 2
	{
		add r0, r4, r0
		nop
	}
	{
		nop
		stw r1, r0[0]
	}
	{
		nop
		ldw r0, r4[0]
	}
	bf r0, .LBB5_2
.Ltmp37:
	ldc r0, 404
	.loc	2 100 3
.Ltmp38:
	{
		add r0, r4, r0
		mkmsk r1, 1
	}
	{
		nop
		stw r1, r0[0]
	}
.Ltmp39:
.LBB5_2:
	{
		nop
		ldw r4, sp[2]
	}
	{
		nop
		retsp 4
	}
	.loc	2 101 1
	# RETURN_REG_HOLDER
.Ltmp40:
	.cc_bottom FLAC__ogg_decoder_aspect_reset.function
	.set	FLAC__ogg_decoder_aspect_reset.nstackwords,((ogg_stream_reset.nstackwords $M ogg_sync_reset.nstackwords) + 4)
	.globl	FLAC__ogg_decoder_aspect_reset.nstackwords
	.set	FLAC__ogg_decoder_aspect_reset.maxcores,ogg_stream_reset.maxcores $M ogg_sync_reset.maxcores $M 1
	.globl	FLAC__ogg_decoder_aspect_reset.maxcores
	.set	FLAC__ogg_decoder_aspect_reset.maxtimers,ogg_stream_reset.maxtimers $M ogg_sync_reset.maxtimers $M 0
	.globl	FLAC__ogg_decoder_aspect_reset.maxtimers
	.set	FLAC__ogg_decoder_aspect_reset.maxchanends,ogg_stream_reset.maxchanends $M ogg_sync_reset.maxchanends $M 0
	.globl	FLAC__ogg_decoder_aspect_reset.maxchanends
.Ltmp41:
	.size	FLAC__ogg_decoder_aspect_reset, .Ltmp41-FLAC__ogg_decoder_aspect_reset
.Lfunc_end5:
	.file	6 "C:/Users/takaaki/git/sw_xSSDAC/module_libFLAC/source/private/../ogg\\ogg.h"
	.file	7 "C:/Users/takaaki/git/sw_xSSDAC/module_libFLAC/source/ogg\\config_types.h"
	.cfi_endproc

	.globl	FLAC__ogg_decoder_aspect_read_callback_wrapper
	.align	4
	.type	FLAC__ogg_decoder_aspect_read_callback_wrapper,@function
	.cc_top FLAC__ogg_decoder_aspect_read_callback_wrapper.function,FLAC__ogg_decoder_aspect_read_callback_wrapper
FLAC__ogg_decoder_aspect_read_callback_wrapper:
.Lfunc_begin6:
	.loc	2 104 0
	.cfi_startproc
	.issue_mode dual
	{
		nop
		dualentsp 28
	}
.Ltmp42:
	.cfi_def_cfa_offset 112
.Ltmp43:
	.cfi_offset 15, 0
	std r5, r4, sp[10]
.Ltmp44:
	.cfi_offset 4, -32
.Ltmp45:
	.cfi_offset 5, -28
	std r7, r6, sp[11]
.Ltmp46:
	.cfi_offset 6, -24
.Ltmp47:
	.cfi_offset 7, -20
	{
		nop
		stw r8, sp[24]
	}
	{
		nop
		stw r9, sp[25]
	}
.Ltmp48:
	.cfi_offset 8, -16
.Ltmp49:
	.cfi_offset 9, -12
	{
		nop
		stw r10, sp[26]
	}
.Ltmp50:
	.cfi_offset 10, -8
.Ltmp51:
	{
		mov r5, r2
		stw r3, sp[9]
	}
.Ltmp52:
	{
		nop
		stw r1, sp[17]
	}
.Ltmp53:
	.loc	2 106 2 prologue_end
	{
		ldc r2, 0
		ldw r9, r5[0]
	}
.Ltmp54:
	{
		nop
		stw r2, r5[0]
	}
	ldc r1, 408
.Ltmp55:
	.loc	2 246 6
	{
		add r10, r0, r1
		mov r1, r0
	}
.Ltmp56:
	bf r9, .LBB6_31
.Ltmp57:
	ldc r0, 412
	.loc	2 136 7
.Ltmp58:
	{
		add r6, r1, r0
		stw r1, sp[8]
	}
	{
		nop
		stw r6, sp[10]
	}
	ldc r0, 368
	.loc	2 196 20
.Ltmp59:
	{
		add r0, r1, r0
		nop
	}
	{
		nop
		stw r0, sp[15]
	}
	ldc r0, 416
	.loc	2 196 20
	{
		add r4, r1, r0
		nop
	}
	{
		nop
		stw r4, sp[11]
	}
	ldc r0, 404
	.loc	2 199 8
.Ltmp60:
	{
		add r7, r1, r0
		nop
	}
.Ltmp61:
	.loc	2 203 8
	{
		add r0, r1, 8
		stw r7, sp[13]
	}
	{
		nop
		stw r0, sp[12]
	}
	ldc r0, 432
	.loc	2 205 6
.Ltmp62:
	{
		add r0, r1, r0
		nop
	}
	{
		nop
		stw r0, sp[18]
	}
	ldc r0, 344
.Ltmp63:
	.loc	2 200 62
	{
		add r0, r1, r0
		nop
	}
	{
		nop
		stw r0, sp[7]
	}
	ldc r0, 440
.Ltmp64:
	.loc	2 158 21
	{
		add r0, r1, r0
		nop
	}
	{
		nop
		stw r0, sp[16]
	}
	ldc r0, 444
	.loc	2 162 10
.Ltmp65:
	{
		add r0, r1, r0
		nop
	}
	{
		nop
		stw r0, sp[14]
	}
	.loc	2 162 10
	ldaw r11, cp[FLAC__OGG_MAPPING_FIRST_HEADER_PACKET_TYPE]
	{
		ldc r2, 0
		nop
	}
	{
		nop
		ld8u r0, r11[r2]
	}
	{
		nop
		stw r0, sp[6]
	}
	ldc r0, 396
	.loc	2 176 7
.Ltmp66:
	{
		add r0, r1, r0
		nop
	}
	{
		nop
		stw r0, sp[5]
	}
	ldc r0, 400
	.loc	2 178 7
	{
		add r0, r1, r0
		nop
	}
	{
		nop
		stw r0, sp[4]
	}
.Ltmp67:
.LBB6_2:
	{
		nop
		ldw r1, r10[0]
	}
	bt r1, .LBB6_31
.Ltmp68:
	{
		nop
		ldw r1, r6[0]
	}
	.loc	2 136 7
	bf r1, .LBB6_25
.Ltmp69:
	{
		nop
		ldw r0, sp[18]
	}
	{
		nop
		ldw r1, r0[0]
	}
	.loc	2 137 8
.Ltmp70:
	bf r1, .LBB6_9
.Ltmp71:
	{
		mov r6, r10
		mov r0, r9
	}
.Ltmp72:
	.loc	2 138 5
	{
		sub r9, r0, r2
		mov r8, r0
	}
.Ltmp73:
	{
		nop
		ldw r4, sp[14]
	}
	{
		nop
		ldw r10, r4[0]
	}
.Ltmp74:
	.loc	2 139 9
	{
		lsu r0, r9, r10
		ldw r7, sp[16]
	}
	{
		nop
		ldw r1, r7[0]
	}
	.loc	2 139 9
	bf r0, .LBB6_6
.Ltmp75:
	{
		nop
		ldw r10, sp[17]
	}
	.loc	2 149 6
.Ltmp76:
	{
		mov r0, r10
		mov r2, r9
	}
	bl memcpy
	{
		nop
		ldw r0, r5[0]
	}
	.loc	2 150 6
	{
		add r0, r0, r9
		nop
	}
.Ltmp77:
	.loc	2 150 6
	{
		add r10, r10, r9
		stw r0, r5[0]
	}
.Ltmp78:
	{
		nop
		stw r10, sp[17]
	}
.Ltmp79:
	{
		nop
		ldw r0, r7[0]
	}
	.loc	2 152 6
	{
		add r0, r0, r9
		nop
	}
	{
		nop
		stw r0, r7[0]
	}
	{
		nop
		ldw r0, r4[0]
	}
	.loc	2 153 6
	{
		sub r0, r0, r9
		nop
	}
	{
		nop
		stw r0, r4[0]
	}
	bu .LBB6_7
.Ltmp80:
.LBB6_25:
	.loc	2 196 20
	{
		mov r1, r4
		ldw r0, sp[15]
	}
	bl ogg_sync_pageout
.Ltmp81:
	{
		mkmsk r1, 1
		nop
	}
	.loc	2 197 8
.Ltmp82:
	{
		lss r1, r0, r1
		nop
	}
	bt r1, .LBB6_32
.Ltmp83:
	{
		nop
		ldw r0, r7[0]
	}
	bf r0, .LBB6_28
.Ltmp84:
	.loc	2 200 62
	{
		mov r0, r4
		nop
	}
	bl ogg_page_serialno
	{
		nop
		ldw r1, sp[8]
	}
	{
		nop
		stw r0, r1[1]
	}
	{
		nop
		ldw r1, sp[7]
	}
	.loc	2 200 62
	{
		ldc r0, 0
		stw r0, r1[0]
	}
	{
		nop
		stw r0, r7[0]
	}
.Ltmp85:
.LBB6_28:
	.loc	2 203 8
	{
		mov r1, r4
		ldw r0, sp[12]
	}
	bl ogg_stream_pagein
	bt r0, .LBB6_30
.Ltmp86:
	{
		mkmsk r0, 1
		nop
	}
	{
		nop
		stw r0, r6[0]
	}
	.loc	2 205 6
.Ltmp87:
	{
		ldc r1, 0
		ldw r0, sp[18]
	}
	{
		nop
		stw r1, r0[0]
	}
	bu .LBB6_30
.Ltmp88:
.LBB6_9:
	{
		nop
		ldw r0, sp[12]
	}
	{
		nop
		ldw r1, sp[16]
	}
	.loc	2 158 21
.Ltmp89:
	bl ogg_stream_packetout
.Ltmp90:
	{
		mkmsk r2, 1
		nop
	}
	.loc	2 159 9
.Ltmp91:
	{
		lss r1, r0, r2
		nop
	}
	bt r1, .LBB6_22
.Ltmp92:
	{
		mov r8, r9
		ldw r0, sp[18]
	}
.Ltmp93:
	{
		nop
		stw r2, r0[0]
	}
	{
		nop
		ldw r0, sp[14]
	}
	{
		nop
		ldw r9, r0[0]
	}
	.loc	2 162 10
.Ltmp94:
	{
		lss r0, r9, r2
		nop
	}
	bt r0, .LBB6_11
.Ltmp95:
	{
		mov r7, r4
		mov r4, r6
	}
	{
		mov r6, r10
		ldw r0, sp[16]
	}
.Ltmp96:
	.loc	2 162 10
	{
		ldc r0, 0
		ldw r10, r0[0]
	}
.Ltmp97:
	{
		nop
		ld8u r0, r10[r0]
	}
	{
		nop
		ldw r1, sp[6]
	}
	.loc	2 162 10
	{
		eq r0, r0, r1
		nop
	}
	bf r0, .LBB6_13
.Ltmp98:
	{
		ldc r0, 9
		nop
	}
	.loc	2 170 11
.Ltmp99:
	{
		lss r0, r9, r0
		nop
	}
	.loc	2 170 11
	bt r0, .LBB6_16
.Ltmp100:
	.loc	2 172 7
	{
		add r0, r10, 1
		nop
	}
.Ltmp101:
	{
		nop
		stw r0, sp[3]
	}
	.loc	2 173 11
.Ltmp102:
	ldw r0, cp[FLAC__OGG_MAPPING_MAGIC]
	.loc	2 173 11
	bl __misaligned_load
	{
		nop
		stw r0, sp[2]
	}
	{
		nop
		ldw r0, sp[3]
	}
	bl __misaligned_load
	{
		nop
		ldw r1, sp[2]
	}
	.loc	2 173 11
	{
		eq r0, r0, r1
		nop
	}
	bf r0, .LBB6_18
.Ltmp103:
	{
		ldc r0, 5
		nop
	}
	{
		nop
		ld8u r0, r10[r0]
	}
	{
		nop
		ldw r1, sp[5]
	}
	.loc	2 176 7
	{
		ldc r1, 6
		stw r0, r1[0]
	}
	{
		nop
		ld8u r1, r10[r1]
	}
	{
		nop
		ldw r2, sp[4]
	}
	.loc	2 178 7
	{
		eq r0, r0, 1
		stw r1, r2[0]
	}
	.loc	2 179 11
.Ltmp104:
	bf r0, .LBB6_20
.Ltmp105:
	.loc	2 181 7
	{
		add r0, r10, 9
		ldw r1, sp[16]
	}
	.loc	2 181 7
	{
		sub r0, r9, 9
		stw r0, r1[0]
	}
	{
		nop
		ldw r1, sp[14]
	}
	{
		nop
		stw r0, r1[0]
	}
.Ltmp106:
.LBB6_13:
	{
		mov r10, r6
		mov r6, r4
	}
	{
		mov r4, r7
		nop
	}
	bu .LBB6_14
.Ltmp107:
.LBB6_6:
	{
		nop
		ldw r9, sp[17]
	}
	.loc	2 142 6
.Ltmp108:
	{
		mov r0, r9
		mov r2, r10
	}
	bl memcpy
	{
		nop
		ldw r0, r5[0]
	}
	.loc	2 143 6
	{
		add r0, r0, r10
		nop
	}
.Ltmp109:
	.loc	2 143 6
	{
		add r9, r9, r10
		stw r0, r5[0]
	}
.Ltmp110:
	{
		nop
		stw r9, sp[17]
	}
.Ltmp111:
	.loc	2 145 6
	{
		ldc r1, 0
		ldw r0, sp[18]
	}
	{
		nop
		stw r1, r0[0]
	}
.Ltmp112:
.LBB6_7:
	{
		mov r10, r6
		ldw r6, sp[10]
	}
	{
		nop
		ldw r4, sp[11]
	}
.LBB6_14:
.Ltmp113:
	{
		mov r9, r8
		ldw r7, sp[13]
	}
.Ltmp114:
	bu .LBB6_30
.LBB6_32:
.Ltmp115:
	.loc	2 209 13
	bt r0, .LBB6_33
.Ltmp116:
	.loc	2 211 5
	{
		mov r1, r9
		ldw r0, r5[0]
	}
.Ltmp117:
	.loc	2 211 5
	{
		sub r9, r1, r0
		mov r8, r1
	}
.Ltmp118:
	{
		ldc r0, 13
		nop
	}
	.loc	2 211 5
	{
		shr r0, r9, r0
		nop
	}
	bt r0, .LBB6_36
.Ltmp119:
	ldc r9, 8192
.Ltmp120:
.LBB6_36:
	.loc	2 212 20
	{
		mov r1, r9
		ldw r0, sp[15]
	}
	bl ogg_sync_buffer
	{
		mov r1, r0
		nop
	}
.Ltmp121:
	.loc	2 214 8
	bf r1, .LBB6_37
.Ltmp122:
	{
		nop
		stw r9, sp[19]
	}
.Ltmp123:
	{
		ldaw r2, sp[19]
		ldw r0, sp[29]
	}
	{
		nop
		ldw r3, sp[30]
	}
	{
		nop
		ldw r11, sp[9]
	}
	{
		nop
		bla r11
	}
.Ltmp124:
	bf r0, .LBB6_44
.Ltmp125:
	{
		eq r1, r0, 5
		nop
	}
	bt r1, .LBB6_40
.Ltmp126:
	{
		eq r0, r0, 1
		nop
	}
	bf r0, .LBB6_43
.Ltmp127:
	{
		mkmsk r0, 1
		nop
	}
	{
		nop
		stw r0, r10[0]
	}
	bu .LBB6_44
.Ltmp128:
.LBB6_22:
	.loc	2 185 14
	bt r0, .LBB6_23
.Ltmp129:
	.loc	2 162 10
	{
		ldc r0, 0
		nop
	}
	{
		nop
		stw r0, r6[0]
	}
	bu .LBB6_30
.Ltmp130:
.LBB6_11:
	{
		mov r9, r8
		nop
	}
.Ltmp131:
	bu .LBB6_30
.Ltmp132:
.LBB6_43:
	{
		ldc r0, 0
		nop
	}
.Ltmp133:
	.loc	2 229 8
	bl assert
.Ltmp134:
.LBB6_44:
	{
		nop
		ldw r1, sp[19]
	}
	{
		nop
		ldw r0, sp[15]
	}
	.loc	2 232 9
.Ltmp135:
	bl ogg_sync_wrote
	.loc	2 232 9
	ashr r0, r0, 32
	{
		mov r9, r8
		nop
	}
.Ltmp136:
	bt r0, .LBB6_45
.Ltmp137:
.LBB6_30:
	{
		nop
		ldw r2, r5[0]
	}
	.loc	2 135 2
	{
		lsu r1, r2, r9
		nop
	}
	bt r1, .LBB6_2
.Ltmp138:
.LBB6_31:
	{
		nop
		ldw r1, r10[0]
	}
	.loc	2 246 6
.Ltmp139:
	{
		eq r1, r1, 0
		nop
	}
	{
		eq r1, r1, 0
		eq r0, r2, 0
	}
	.loc	2 246 6
	{
		and r0, r1, r0
		nop
	}
.Ltmp140:
.LBB6_46:
	{
		nop
		ldw r10, sp[26]
	}
	{
		nop
		ldw r8, sp[24]
	}
	{
		nop
		ldw r9, sp[25]
	}
	.loc	2 251 1
	ldd r7, r6, sp[11]
	ldd r5, r4, sp[10]
	{
		nop
		retsp 28
	}
	# RETURN_REG_HOLDER
.LBB6_40:
	{
		ldc r0, 5
		nop
	}
	bu .LBB6_46
.LBB6_33:
	{
		ldc r0, 2
		nop
	}
	bu .LBB6_46
.LBB6_37:
	{
		mkmsk r0, 3
		nop
	}
	bu .LBB6_46
.LBB6_45:
	{
		ldc r0, 0
		nop
	}
	.loc	2 234 7
.Ltmp141:
	bl assert
	{
		ldc r0, 6
		nop
	}
	bu .LBB6_46
.Ltmp142:
.LBB6_23:
	{
		ldc r0, 2
		nop
	}
	bu .LBB6_46
.LBB6_16:
	{
		mkmsk r0, 2
		nop
	}
	bu .LBB6_46
.LBB6_18:
	{
		mkmsk r0, 2
		nop
	}
	bu .LBB6_46
.LBB6_20:
	{
		ldc r0, 4
		nop
	}
	bu .LBB6_46
	.cc_bottom FLAC__ogg_decoder_aspect_read_callback_wrapper.function

	.globl	FLAC__ogg_decoder_aspect_read_callback_wrapper.maxcores

	.globl	FLAC__ogg_decoder_aspect_read_callback_wrapper.maxtimers

	.globl	FLAC__ogg_decoder_aspect_read_callback_wrapper.maxchanends
.Ltmp143:
	.size	FLAC__ogg_decoder_aspect_read_callback_wrapper, .Ltmp143-FLAC__ogg_decoder_aspect_read_callback_wrapper
.Lfunc_end6:
	.cfi_endproc

.Ldebug_end0:
	.file	8 "C:/Users/takaaki/git/sw_xSSDAC/module_libFLAC/source/private/../FLAC\\stream_decoder.h"
	.section	.trap_info,"",@progbits
.Ltrap_info_entries_start0:
	.long	.Ltrap_info_entries_end0-.Ltrap_info_entries_start0
	.long	1
.Ltrap_info_entries_end0: