	.text
	.file	"sdcard_play.c"
	.text
	.globl	GetDirItemAt
	.align	4
	.type	GetDirItemAt,@function
	.cc_top GetDirItemAt.function,GetDirItemAt
GetDirItemAt:
.Lfunc_begin0:
	.loc	1 68 0
	.cfi_startproc
	.issue_mode dual
	{
		nop
		dualentsp 24
	}
.Ltmp0:
	.cfi_def_cfa_offset 96
.Ltmp1:
	.cfi_offset 15, 0
	std r5, r4, sp[9]
.Ltmp2:
	.cfi_offset 4, -24
.Ltmp3:
	.cfi_offset 5, -20
	std r7, r6, sp[10]
.Ltmp4:
	.cfi_offset 6, -16
.Ltmp5:
	.cfi_offset 7, -12
.Ltmp6:
	.cfi_offset 8, -8
.Ltmp7:
	{
		mov r5, r2
		stw r8, sp[22]
	}
.Ltmp8:
	{
		mov r4, r1
		mov r6, r0
	}
.Ltmp9:
	.loc	1 71 18 prologue_end
	ldaw r11, cp[.L.str1]
.Ltmp10:
	{
		ldaw r0, sp[9]
		mov r1, r11
	}
.Ltmp11:
	bl f_opendir
	{
		mov r7, r0
		nop
	}
.Ltmp12:
	.loc	1 72 5
	ldaw r11, cp[.L.str2]
	{
		mov r0, r11
		mov r1, r7
	}
	bl debug_printf
	bt r7, .LBB0_8
.Ltmp13:
	.loc	1 78 5
	ldaw r0, dp[GetDirItemAt.lfn]
	{
		nop
		stw r0, sp[7]
	}
	ldc r1, 256
.Ltmp14:
	{
		nop
		stw r1, sp[8]
	}
	.loc	1 82 5
.Ltmp15:
	ashr r2, r6, 32
	bt r2, .LBB0_5
.Ltmp16:
	.loc	1 70 9
	{
		add r8, r6, 1
		ldaw r7, sp[9]
	}
	{
		ldaw r6, sp[1]
		nop
	}
.Ltmp17:
.LBB0_3:
	.loc	1 83 9
	{
		mov r0, r7
		mov r1, r6
	}
	bl f_readdir
.Ltmp18:
	.loc	1 82 5
	{
		sub r8, r8, 1
		nop
	}
	.loc	1 82 5
	bt r8, .LBB0_3
.Ltmp19:
	.loc	1 87 5
	{
		ldc r1, 8
		ldw r0, sp[7]
	}
	{
		nop
		ld8u r1, r6[r1]
	}
.Ltmp20:
.LBB0_5:
	.loc	1 91 5
	{
		ldc r7, 0
		nop
	}
	{
		nop
		ld8u r2, r0[r7]
	}
	bt r2, .LBB0_7
.Ltmp21:
	{
		ldaw r0, sp[1]
		nop
	}
	.loc	1 87 5
	{
		add r0, r0, 9
		nop
	}
.Ltmp22:
.LBB0_7:
	{
		nop
		stw r0, r5[0]
	}
	.loc	1 91 5
	st8 r1, r4[r7]
.Ltmp23:
.LBB0_8:
	.loc	1 93 1
	{
		mov r0, r7
		ldw r8, sp[22]
	}
	ldd r7, r6, sp[10]
	ldd r5, r4, sp[9]
	{
		nop
		retsp 24
	}
	# RETURN_REG_HOLDER
.Ltmp24:
	.cc_bottom GetDirItemAt.function
	.set	GetDirItemAt.nstackwords,((f_opendir.nstackwords $M debug_printf.nstackwords $M f_readdir.nstackwords) + 24)
	.globl	GetDirItemAt.nstackwords
	.set	GetDirItemAt.maxcores,debug_printf.maxcores $M f_opendir.maxcores $M f_readdir.maxcores $M 1
	.globl	GetDirItemAt.maxcores
	.set	GetDirItemAt.maxtimers,debug_printf.maxtimers $M f_opendir.maxtimers $M f_readdir.maxtimers $M 0
	.globl	GetDirItemAt.maxtimers
	.set	GetDirItemAt.maxchanends,debug_printf.maxchanends $M f_opendir.maxchanends $M f_readdir.maxchanends $M 0
	.globl	GetDirItemAt.maxchanends
.Ltmp25:
	.size	GetDirItemAt, .Ltmp25-GetDirItemAt
.Lfunc_end0:
	.cfi_endproc

	.globl	GetDirIndexOf
	.align	4
	.type	GetDirIndexOf,@function
	.cc_top GetDirIndexOf.function,GetDirIndexOf
GetDirIndexOf:
.Lfunc_begin1:
	.loc	1 95 0
	.cfi_startproc
	.issue_mode dual
	{
		nop
		dualentsp 28
	}
.Ltmp26:
	.cfi_def_cfa_offset 112
.Ltmp27:
	.cfi_offset 15, 0
	std r5, r4, sp[10]
.Ltmp28:
	.cfi_offset 4, -32
.Ltmp29:
	.cfi_offset 5, -28
	std r7, r6, sp[11]
.Ltmp30:
	.cfi_offset 6, -24
.Ltmp31:
	.cfi_offset 7, -20
	{
		nop
		stw r8, sp[24]
	}
	{
		nop
		stw r9, sp[25]
	}
.Ltmp32:
	.cfi_offset 8, -16
.Ltmp33:
	.cfi_offset 9, -12
.Ltmp34:
	.cfi_offset 10, -8
.Ltmp35:
	{
		mov r5, r1
		stw r10, sp[26]
	}
.Ltmp36:
	{
		mov r4, r0
		nop
	}
.Ltmp37:
	.loc	1 97 18 prologue_end
	ldaw r11, cp[.L.str1]
.Ltmp38:
	{
		ldaw r0, sp[11]
		mov r1, r11
	}
.Ltmp39:
	bl f_opendir
.Ltmp40:
	bt r0, .LBB1_8
.Ltmp41:
	{
		nop
		stw r4, sp[2]
	}
.Ltmp42:
	.loc	1 102 5
	ldaw r0, dp[GetDirIndexOf.lfn]
	{
		nop
		stw r0, sp[9]
	}
	ldc r0, 256
.Ltmp43:
	.loc	1 103 5
	{
		ldaw r7, sp[3]
		stw r0, sp[10]
	}
	.loc	1 111 9
.Ltmp44:
	{
		add r10, r7, 9
		ldc r6, 0
	}
	{
		ldaw r8, sp[11]
		mov r4, r6
	}
.Ltmp45:
.LBB1_2:
	.loc	1 108 9
	{
		mov r0, r8
		mov r1, r7
	}
	bl f_readdir
	{
		nop
		ldw r9, sp[9]
	}
	{
		nop
		ld8u r0, r9[r6]
	}
	bt r0, .LBB1_4
.Ltmp46:
	.loc	1 111 9
	{
		mov r9, r10
		nop
	}
.Ltmp47:
.LBB1_4:
	.loc	1 116 13
	{
		mov r0, r5
		mov r1, r9
	}
	bl strcmp
	.loc	1 116 13
	bf r0, .LBB1_5
.Ltmp48:
	.loc	1 120 9
	{
		add r4, r4, 1
		ld8u r0, r9[r6]
	}
.Ltmp49:
	bt r0, .LBB1_2
.Ltmp50:
	{
		ldc r0, 4
		nop
	}
	bu .LBB1_8
.LBB1_5:
.Ltmp51:
	{
		nop
		ldw r0, sp[2]
	}
	.loc	1 117 13
.Ltmp52:
	{
		ldc r0, 0
		stw r4, r0[0]
	}
.Ltmp53:
.LBB1_8:
	{
		nop
		ldw r10, sp[26]
	}
	{
		nop
		ldw r8, sp[24]
	}
	{
		nop
		ldw r9, sp[25]
	}
	.loc	1 123 1
	ldd r7, r6, sp[11]
	ldd r5, r4, sp[10]
	{
		nop
		retsp 28
	}
	# RETURN_REG_HOLDER
.Ltmp54:
	.cc_bottom GetDirIndexOf.function
	.set	GetDirIndexOf.nstackwords,((f_opendir.nstackwords $M f_readdir.nstackwords $M strcmp.nstackwords) + 28)
	.globl	GetDirIndexOf.nstackwords
	.set	GetDirIndexOf.maxcores,f_opendir.maxcores $M f_readdir.maxcores $M strcmp.maxcores $M 1
	.globl	GetDirIndexOf.maxcores
	.set	GetDirIndexOf.maxtimers,f_opendir.maxtimers $M f_readdir.maxtimers $M strcmp.maxtimers $M 0
	.globl	GetDirIndexOf.maxtimers
	.set	GetDirIndexOf.maxchanends,f_opendir.maxchanends $M f_readdir.maxchanends $M strcmp.maxchanends $M 0
	.globl	GetDirIndexOf.maxchanends
.Ltmp55:
	.size	GetDirIndexOf, .Ltmp55-GetDirIndexOf
.Lfunc_end1:
	.cfi_endproc

	.globl	GoFolder
	.align	4
	.type	GoFolder,@function
	.cc_top GoFolder.function,GoFolder
GoFolder:
.Lfunc_begin2:
	.loc	1 127 0
	.cfi_startproc
	.issue_mode dual
	{
		nop
		dualentsp 2
	}
.Ltmp56:
	.cfi_def_cfa_offset 8
.Ltmp57:
	.cfi_offset 15, 0
	.loc	1 128 5 prologue_end
.Ltmp58:
	bl f_chdir
.Ltmp59:
	.loc	1 129 5
	ldaw r0, dp[folder_string]
	ldc r1, 256
	bl f_getcwd
	{
		ldc r0, 2
		nop
	}
	.loc	1 130 5
	bl set_display_control_flag
	{
		ldc r0, 0
		retsp 2
	}
	.loc	1 131 5
	# RETURN_REG_HOLDER
.Ltmp60:
	.cc_bottom GoFolder.function
	.set	GoFolder.nstackwords,((f_chdir.nstackwords $M f_getcwd.nstackwords $M set_display_control_flag.nstackwords) + 2)
	.globl	GoFolder.nstackwords
	.set	GoFolder.maxcores,f_chdir.maxcores $M f_getcwd.maxcores $M set_display_control_flag.maxcores $M 1
	.globl	GoFolder.maxcores
	.set	GoFolder.maxtimers,f_chdir.maxtimers $M f_getcwd.maxtimers $M set_display_control_flag.maxtimers $M 0
	.globl	GoFolder.maxtimers
	.set	GoFolder.maxchanends,f_chdir.maxchanends $M f_getcwd.maxchanends $M set_display_control_flag.maxchanends $M 0
	.globl	GoFolder.maxchanends
.Ltmp61:
	.size	GoFolder, .Ltmp61-GoFolder
.Lfunc_end2:
	.cfi_endproc

	.globl	ClimbUp
	.align	4
	.type	ClimbUp,@function
	.cc_top ClimbUp.function,ClimbUp
ClimbUp:
.Lfunc_begin3:
	.loc	1 135 0
	.cfi_startproc
	.issue_mode dual
	DUALENTSP_lu6 90
.Ltmp62:
	.cfi_def_cfa_offset 360
.Ltmp63:
	.cfi_offset 15, 0
	stw r4, sp[82]
	stw r5, sp[83]
.Ltmp64:
	.cfi_offset 4, -32
.Ltmp65:
	.cfi_offset 5, -28
	stw r6, sp[84]
	stw r7, sp[85]
.Ltmp66:
	.cfi_offset 6, -24
.Ltmp67:
	.cfi_offset 7, -20
	stw r8, sp[86]
	stw r9, sp[87]
.Ltmp68:
	.cfi_offset 8, -16
.Ltmp69:
	.cfi_offset 9, -12
	stw r10, sp[88]
.Ltmp70:
	.cfi_offset 10, -8
	{
		ldaw r4, sp[1]
		nop
	}
.Ltmp71:
	ldc r5, 256
	.loc	1 137 5 prologue_end
.Ltmp72:
	{
		mov r0, r4
		mov r1, r5
	}
	bl f_getcwd
	.loc	1 138 5
	ldaw r11, cp[.L.str3]
	{
		mov r0, r11
		mov r1, r4
	}
	bl debug_printf
	{
		ldc r1, 47
		mov r0, r4
	}
	.loc	1 140 16
	bl strrchr
	{
		mov r6, r0
		nop
	}
	.loc	1 141 5
	ldaw r11, cp[.L.str4]
	{
		mov r0, r11
		nop
	}
	bl f_chdir
	.loc	1 97 18
.Ltmp73:
	ldaw r11, cp[.L.str1]
	ldaw r0, sp[73]
.Ltmp74:
	{
		mov r1, r11
		nop
	}
	bl f_opendir
.Ltmp75:
.Ltmp76:
	bt r0, .LBB3_6
.Ltmp77:
	.loc	1 140 16
	{
		add r6, r6, 1
		nop
	}
.Ltmp78:
	.loc	1 102 5
	ldaw r0, dp[GetDirIndexOf.lfn]
	stw r0, sp[71]
	.loc	1 103 5
	stw r5, sp[72]
	ldaw r5, sp[65]
.Ltmp79:
	.loc	1 111 9
	{
		add r9, r5, 9
		ldc r10, 0
	}
	ldaw r7, sp[73]
.Ltmp80:
	.loc	1 143 5
	{
		mov r0, r10
		nop
	}
.Ltmp81:
.LBB3_2:
	{
		mov r4, r0
		mov r0, r7
	}
	.loc	1 108 9
.Ltmp82:
	{
		mov r1, r5
		nop
	}
	bl f_readdir
	.loc	1 111 9
	ldw r8, sp[71]
	{
		nop
		ld8u r0, r8[r10]
	}
	bt r0, .LBB3_4
.Ltmp83:
	.loc	1 111 9
	{
		mov r8, r9
		nop
	}
.Ltmp84:
.LBB3_4:
	.loc	1 116 13
	{
		mov r0, r6
		mov r1, r8
	}
	bl strcmp
	bf r0, .LBB3_6
.Ltmp85:
	.loc	1 120 9
	{
		add r0, r4, 1
		ld8u r1, r8[r10]
	}
.Ltmp86:
	bt r1, .LBB3_2
.Ltmp87:
.LBB3_6:
	.loc	1 144 5
	ldaw r11, cp[.L.str5]
	{
		mov r0, r11
		mov r1, r4
	}
	bl debug_printf
	.loc	1 146 5
	ldaw r0, dp[folder_string]
	ldc r1, 256
	bl f_getcwd
	{
		ldc r0, 2
		nop
	}
	.loc	1 147 5
	bl set_display_control_flag
	.loc	1 149 1
	{
		mov r0, r4
		nop
	}
	ldw r10, sp[88]
	ldw r8, sp[86]
	ldw r9, sp[87]
	ldw r6, sp[84]
	ldw r7, sp[85]
	ldw r4, sp[82]
	ldw r5, sp[83]
	retsp 90
	# RETURN_REG_HOLDER
.Ltmp88:
	.cc_bottom ClimbUp.function
	.set	ClimbUp.nstackwords,((strrchr.nstackwords $M f_chdir.nstackwords $M f_opendir.nstackwords $M f_readdir.nstackwords $M strcmp.nstackwords $M debug_printf.nstackwords $M f_getcwd.nstackwords $M set_display_control_flag.nstackwords) + 90)
	.globl	ClimbUp.nstackwords
	.set	ClimbUp.maxcores,debug_printf.maxcores $M f_chdir.maxcores $M f_getcwd.maxcores $M f_opendir.maxcores $M f_readdir.maxcores $M set_display_control_flag.maxcores $M strcmp.maxcores $M strrchr.maxcores $M 1
	.globl	ClimbUp.maxcores
	.set	ClimbUp.maxtimers,debug_printf.maxtimers $M f_chdir.maxtimers $M f_getcwd.maxtimers $M f_opendir.maxtimers $M f_readdir.maxtimers $M set_display_control_flag.maxtimers $M strcmp.maxtimers $M strrchr.maxtimers $M 0
	.globl	ClimbUp.maxtimers
	.set	ClimbUp.maxchanends,debug_printf.maxchanends $M f_chdir.maxchanends $M f_getcwd.maxchanends $M f_opendir.maxchanends $M f_readdir.maxchanends $M set_display_control_flag.maxchanends $M strcmp.maxchanends $M strrchr.maxchanends $M 0
	.globl	ClimbUp.maxchanends
.Ltmp89:
	.size	ClimbUp, .Ltmp89-ClimbUp
.Lfunc_end3:
	.file	6 "C:/Users/takaaki/git/sw_xSSDAC/module_FatFs/src\\integer.h"
	.cfi_endproc

	.globl	GoPreviousFolder
	.align	4
	.type	GoPreviousFolder,@function
	.cc_top GoPreviousFolder.function,GoPreviousFolder
GoPreviousFolder:
.Lfunc_begin4:
	.loc	1 152 0
	.cfi_startproc
	.issue_mode dual
	{
		nop
		dualentsp 6
	}
.Ltmp90:
	.cfi_def_cfa_offset 24
.Ltmp91:
	.cfi_offset 15, 0
	.loc	1 158 9 prologue_end
.Ltmp92:
	std r5, r4, sp[1]
.Ltmp93:
	.cfi_offset 4, -16
.Ltmp94:
	.cfi_offset 5, -12
	std r7, r6, sp[2]
.Ltmp95:
	.cfi_offset 6, -8
.Ltmp96:
	.cfi_offset 7, -4
	ldaw r4, dp[folder_string]
	ldc r5, 256
	{
		ldc r7, 4
		nop
	}
.LBB4_1:
	.loc	1 156 17
	bl ClimbUp
	{
		mov r6, r0
		mov r0, r4
	}
	.loc	1 158 9
	{
		mov r1, r5
		nop
	}
	bl f_getcwd
.Ltmp97:
	.loc	1 159 15
	ldaw r11, cp[.L.str6]
	{
		mov r0, r4
		mov r1, r11
	}
	bl strcmp
	bf r0, .LBB4_3
	{
		lss r0, r6, r7
		nop
	}
	bt r0, .LBB4_1
.LBB4_3:
.Ltmp98:
	.loc	1 156 17
	{
		sub r4, r6, 1
		ldc r0, 2
	}
.Ltmp99:
	.loc	1 161 5
	bl set_display_control_flag
	.loc	1 162 5
	{
		mov r0, r4
		nop
	}
	ldd r7, r6, sp[2]
	ldd r5, r4, sp[1]
	{
		nop
		retsp 6
	}
	# RETURN_REG_HOLDER
.Ltmp100:
	.cc_bottom GoPreviousFolder.function
	.set	GoPreviousFolder.nstackwords,((ClimbUp.nstackwords $M f_getcwd.nstackwords $M strcmp.nstackwords $M set_display_control_flag.nstackwords) + 6)
	.globl	GoPreviousFolder.nstackwords
	.set	GoPreviousFolder.maxcores,ClimbUp.maxcores $M f_getcwd.maxcores $M set_display_control_flag.maxcores $M strcmp.maxcores $M 1
	.globl	GoPreviousFolder.maxcores
	.set	GoPreviousFolder.maxtimers,ClimbUp.maxtimers $M f_getcwd.maxtimers $M set_display_control_flag.maxtimers $M strcmp.maxtimers $M 0
	.globl	GoPreviousFolder.maxtimers
	.set	GoPreviousFolder.maxchanends,ClimbUp.maxchanends $M f_getcwd.maxchanends $M set_display_control_flag.maxchanends $M strcmp.maxchanends $M 0
	.globl	GoPreviousFolder.maxchanends
.Ltmp101:
	.size	GoPreviousFolder, .Ltmp101-GoPreviousFolder
.Lfunc_end4:
	.cfi_endproc

	.globl	PlayTrack
	.align	4
	.type	PlayTrack,@function
	.cc_top PlayTrack.function,PlayTrack
PlayTrack:
.Lfunc_begin5:
	.loc	1 165 0
	.cfi_startproc
	.issue_mode dual
	{
		nop
		dualentsp 22
	}
.Ltmp102:
	.cfi_def_cfa_offset 88
.Ltmp103:
	.cfi_offset 15, 0
	std r5, r4, sp[8]
.Ltmp104:
	.cfi_offset 4, -24
.Ltmp105:
	.cfi_offset 5, -20
	std r7, r6, sp[9]
.Ltmp106:
	.cfi_offset 6, -16
.Ltmp107:
	.cfi_offset 7, -12
	std r9, r8, sp[10]
.Ltmp108:
	.cfi_offset 8, -8
.Ltmp109:
	.cfi_offset 9, -4
.Ltmp110:
	{
		mov r5, r2
		mov r6, r1
	}
.Ltmp111:
	{
		mov r7, r0
		nop
	}
.Ltmp112:
	.loc	1 168 5 prologue_end
	ldaw r11, cp[.L.str7]
	{
		mov r0, r11
		mov r1, r7
	}
	bl debug_printf
	.loc	1 173 9
.Ltmp113:
	{
		ldc r9, 0
		nop
	}
	{
		ldc r4, 6
		ld8u r0, r7[r9]
	}
	bf r0, .LBB5_13
.Ltmp114:
	{
		ldaw r0, sp[7]
		mkmsk r2, 1
	}
.Ltmp115:
	.loc	1 175 11
	{
		mov r1, r7
		nop
	}
	bl f_open
	{
		mov r1, r0
		nop
	}
.Ltmp116:
	.loc	1 176 9
	bf r1, .LBB5_3
.Ltmp117:
	.loc	1 177 9
	ldaw r11, cp[.L.str8]
	{
		mov r0, r11
		nop
	}
	bl debug_printf
.Ltmp118:
	bu .LBB5_13
.Ltmp119:
.LBB5_3:
	.loc	1 181 5
	{
		ldaw r0, sp[7]
		stw r9, sp[6]
	}
.Ltmp120:
	{
		ldaw r8, sp[4]
		ldc r7, 4
	}
.Ltmp121:
	{
		ldaw r3, sp[6]
		mov r1, r8
	}
.Ltmp122:
	.loc	1 185 11
	{
		mov r2, r7
		nop
	}
	bl f_read
	{
		mov r1, r0
		nop
	}
.Ltmp123:
	.loc	1 186 9
	bf r1, .LBB5_5
.Ltmp124:
	.loc	1 187 9
	ldaw r11, cp[.L.str9]
	{
		mov r0, r11
		nop
	}
	bl debug_printf
.Ltmp125:
	bu .LBB5_11
.Ltmp126:
.LBB5_5:
	.loc	1 191 5
	st8 r9, r8[r7]
	{
		nop
		ldw r0, sp[4]
	}
	.loc	1 193 5
	{
		mov r2, r0
		nop
	}
	{
		zext r2, 8
		shr r3, r0, 8
	}
	{
		zext r3, 8
		shr r1, r0, 16
	}
	.loc	1 193 5
	{
		zext r1, 8
		shr r0, r0, 24
	}
	{
		nop
		stw r0, sp[2]
	}
	{
		nop
		stw r1, sp[1]
	}
	.loc	1 193 5
	ldaw r11, cp[.L.str10]
	{
		mov r0, r11
		mov r1, r8
	}
	bl debug_printf
	.loc	1 202 9
.Ltmp127:
	ldaw r11, cp[.L.str11]
	{
		mov r0, r8
		mov r1, r11
	}
	{
		mov r2, r7
		nop
	}
	bl strncmp
	.loc	1 202 9
	bf r0, .LBB5_6
.Ltmp128:
	.loc	1 209 9
	ldaw r11, cp[.L.str12]
	{
		ldaw r0, sp[4]
		ldc r2, 4
	}
	{
		mov r1, r11
		nop
	}
	bl strncmp
	.loc	1 209 9
	bf r0, .LBB5_9
.Ltmp129:
	.loc	1 215 5
	ldaw r11, cp[.L.str13]
	{
		mov r0, r11
		nop
	}
	bl debug_printf
.Ltmp130:
.LBB5_11:
	{
		ldaw r0, sp[7]
		nop
	}
	bu .LBB5_12
.LBB5_6:
.Ltmp131:
	{
		ldaw r7, sp[7]
		nop
	}
.Ltmp132:
	.loc	1 203 14
	{
		mov r0, r7
		mov r1, r6
	}
	{
		mov r2, r5
		nop
	}
	bl PlayRIFF
	bu .LBB5_7
.Ltmp133:
.LBB5_9:
	{
		ldaw r7, sp[7]
		nop
	}
.Ltmp134:
	.loc	1 210 14
	{
		mov r0, r7
		mov r1, r6
	}
	{
		mov r2, r5
		nop
	}
	bl PlayFLAC
.Ltmp135:
.LBB5_7:
	.loc	1 203 14
	{
		mov r4, r0
		mov r0, r7
	}
.Ltmp136:
.LBB5_12:
	.loc	1 216 11
	bl f_close
.Ltmp137:
.LBB5_13:
	.loc	1 218 1
	{
		mov r0, r4
		nop
	}
	ldd r9, r8, sp[10]
	ldd r7, r6, sp[9]
	ldd r5, r4, sp[8]
	{
		nop
		retsp 22
	}
	# RETURN_REG_HOLDER
.Ltmp138:
	.cc_bottom PlayTrack.function
	.set	PlayTrack.nstackwords,((f_open.nstackwords $M f_read.nstackwords $M PlayRIFF.nstackwords $M f_close.nstackwords $M strncmp.nstackwords $M PlayFLAC.nstackwords $M debug_printf.nstackwords) + 22)
	.globl	PlayTrack.nstackwords
	.set	PlayTrack.maxcores,PlayFLAC.maxcores $M PlayRIFF.maxcores $M debug_printf.maxcores $M f_close.maxcores $M f_open.maxcores $M f_read.maxcores $M strncmp.maxcores $M 1
	.globl	PlayTrack.maxcores
	.set	PlayTrack.maxtimers,PlayFLAC.maxtimers $M PlayRIFF.maxtimers $M debug_printf.maxtimers $M f_close.maxtimers $M f_open.maxtimers $M f_read.maxtimers $M strncmp.maxtimers $M 0
	.globl	PlayTrack.maxtimers
	.set	PlayTrack.maxchanends,PlayFLAC.maxchanends $M PlayRIFF.maxchanends $M debug_printf.maxchanends $M f_close.maxchanends $M f_open.maxchanends $M f_read.maxchanends $M strncmp.maxchanends $M 0
	.globl	PlayTrack.maxchanends
.Ltmp139:
	.size	PlayTrack, .Ltmp139-PlayTrack
.Lfunc_end5:
	.cfi_endproc

	.globl	sdcard_play
	.align	4
	.type	sdcard_play,@function
	.cc_top sdcard_play.function,sdcard_play
sdcard_play:
.Lfunc_begin6:
	.loc	1 234 0
	.cfi_startproc
	.issue_mode dual
	DUALENTSP_lu6 230
.Ltmp140:
	.cfi_def_cfa_offset 920
.Ltmp141:
	.cfi_offset 15, 0
	stw r4, sp[222]
	stw r5, sp[223]
.Ltmp142:
	.cfi_offset 4, -32
.Ltmp143:
	.cfi_offset 5, -28
	stw r6, sp[224]
	stw r7, sp[225]
.Ltmp144:
	.cfi_offset 6, -24
.Ltmp145:
	.cfi_offset 7, -20
	stw r8, sp[226]
	stw r9, sp[227]
.Ltmp146:
	.cfi_offset 8, -16
.Ltmp147:
	.cfi_offset 9, -12
	stw r10, sp[228]
.Ltmp148:
	.cfi_offset 10, -8
	{
		nop
		stw r1, sp[8]
	}
.Ltmp149:
	{
		nop
		stw r0, sp[7]
	}
.Ltmp150:
	.loc	1 235 5 prologue_end
	ldaw r7, dp[folder_string]
.Ltmp151:
	ldaw r5, dp[track_string]
.Ltmp152:
	ldaw r11, cp[.L.str14]
	{
		mov r0, r11
		mov r1, r7
	}
	{
		mov r2, r5
		nop
	}
	bl debug_printf
.Ltmp153:
	{
		ldc r4, 0
		nop
	}
	ldaw r1, sp[73]
.Ltmp154:
	.loc	1 241 5
	{
		mov r0, r4
		nop
	}
	bl f_mount
.Ltmp155:
	.loc	1 242 5
	ldaw r11, cp[.L.str15]
	{
		mov r0, r11
		nop
	}
	bl debug_printf
	.loc	1 128 5
.Ltmp156:
	{
		mov r0, r7
		nop
	}
	bl f_chdir
	ldc r1, 256
	.loc	1 129 5
	{
		mov r0, r7
		nop
	}
	bl f_getcwd
	{
		ldc r6, 2
		nop
	}
	.loc	1 130 5
	{
		mov r0, r6
		nop
	}
	bl set_display_control_flag
.Ltmp157:
	.loc	1 263 5
	ldaw r11, cp[.L.str16]
	{
		mov r0, r11
		mov r1, r7
	}
	bl debug_printf
	.loc	1 264 5
	ldaw r11, cp[.L.str17]
	{
		mov r0, r11
		mov r1, r5
	}
	bl debug_printf
	.loc	1 97 18
.Ltmp158:
	ldaw r11, cp[.L.str1]
.Ltmp159:
	{
		ldaw r0, sp[9]
		mov r1, r11
	}
.Ltmp160:
	bl f_opendir
.Ltmp161:
	{
		mov r9, r4
		nop
	}
	bt r0, .LBB6_8
.Ltmp162:
	.loc	1 102 5
	ldaw r0, dp[GetDirIndexOf.lfn]
	stw r0, sp[220]
	ldc r0, 256
	.loc	1 103 5
	stw r0, sp[221]
	ldaw r5, sp[214]
.Ltmp163:
	.loc	1 111 9
	{
		add r6, r5, 9
		ldc r4, 0
	}
	{
		ldaw r7, sp[9]
		nop
	}
	.loc	1 116 13
.Ltmp164:
	ldaw r8, dp[track_string]
.Ltmp165:
	.loc	1 266 5
	{
		mov r9, r4
		nop
	}
.Ltmp166:
.LBB6_2:
	.loc	1 108 9
	{
		mov r0, r7
		mov r1, r5
	}
	bl f_readdir
	.loc	1 111 9
	ldw r10, sp[220]
	{
		nop
		ld8u r0, r10[r4]
	}
	bt r0, .LBB6_4
.Ltmp167:
	.loc	1 111 9
	{
		mov r10, r6
		nop
	}
.Ltmp168:
.LBB6_4:
	.loc	1 116 13
	{
		mov r0, r8
		mov r1, r10
	}
	bl strcmp
	bf r0, .LBB6_7
.Ltmp169:
	.loc	1 120 9
	{
		add r9, r9, 1
		ld8u r0, r10[r4]
	}
.Ltmp170:
	bt r0, .LBB6_2
.Ltmp171:
	{
		mov r9, r4
		nop
	}
.Ltmp172:
.LBB6_7:
	{
		ldc r6, 2
		nop
	}
.LBB6_8:
.Ltmp173:
	.loc	1 267 5
	ldaw r11, cp[.L.str18]
	{
		mov r0, r11
		mov r1, r9
	}
	bl debug_printf
	{
		mkmsk r4, 1
		nop
	}
	.loc	1 269 5
	{
		mov r0, r4
		nop
	}
	bl set_console_mode
	{
		ldc r0, 16
		nop
	}
	.loc	1 270 5
	bl set_display_control_flag
	.loc	1 271 5
	{
		mov r0, r6
		nop
	}
	bl set_display_control_flag
	.loc	1 272 5
	{
		mov r0, r4
		nop
	}
	bl set_display_control_flag
	ldaw r8, sp[214]
	.loc	1 87 5
.Ltmp174:
	{
		add r0, r8, 9
		nop
	}
	{
		mkmsk r7, 2
		stw r0, sp[6]
	}
	{
		ldaw r5, sp[9]
		nop
	}
	bu .LBB6_9
.Ltmp175:
.LBB6_37:
	{
		mov r7, r6
		nop
	}
.Ltmp176:
.LBB6_9:
	{
		mov r6, r7
		nop
	}
	.loc	1 276 9
	ldw r0, dp[state]
	.loc	1 276 9
	bf r0, .LBB6_10
.Ltmp177:
	.loc	1 317 9
	ldaw r11, cp[.L.str25]
	{
		mov r0, r11
		mov r1, r9
	}
	bl debug_printf
	.loc	1 71 18
.Ltmp178:
	ldaw r11, cp[.L.str1]
.Ltmp179:
	{
		mov r0, r5
		mov r1, r11
	}
	bl f_opendir
	{
		mov r7, r0
		nop
	}
.Ltmp180:
	.loc	1 72 5
	ldaw r11, cp[.L.str2]
	{
		mov r0, r11
		mov r1, r7
	}
	bl debug_printf
	ashr r0, r9, 32
	bt r0, .LBB6_12
.Ltmp181:
	bt r7, .LBB6_34
.Ltmp182:
	.loc	1 78 5
	ldaw r0, dp[GetDirItemAt.lfn]
	.loc	1 78 5
	stw r0, sp[220]
.Ltmp183:
	ldc r0, 256
	.loc	1 79 5
	stw r0, sp[221]
	.loc	1 70 9
	{
		add r4, r9, 1
		nop
	}
.Ltmp184:
.LBB6_31:
	.loc	1 83 9
	{
		mov r0, r5
		mov r1, r8
	}
	bl f_readdir
.Ltmp185:
	.loc	1 82 5
	{
		sub r4, r4, 1
		nop
	}
	.loc	1 82 5
	bt r4, .LBB6_31
.Ltmp186:
	.loc	1 87 5
	ldw r10, sp[220]
	{
		ldc r0, 8
		nop
	}
	.loc	1 91 5
	{
		ldc r0, 0
		ld8u r4, r8[r0]
	}
	{
		nop
		ld8u r0, r10[r0]
	}
	bt r0, .LBB6_34
.Ltmp187:
	{
		nop
		ldw r10, sp[6]
	}
.Ltmp188:
.LBB6_34:
	.loc	1 320 9
	{
		mov r3, r4
		nop
	}
	{
		zext r3, 8
		nop
	}
	.loc	1 320 9
	ldaw r11, cp[.L.str26]
	{
		mov r0, r11
		mov r1, r9
	}
	{
		mov r2, r10
		nop
	}
	bl debug_printf
	{
		ldc r0, 0
		nop
	}
	{
		nop
		ld8u r0, r10[r0]
	}
	.loc	1 321 12
.Ltmp189:
	bf r0, .LBB6_35
.Ltmp190:
	{
		ldc r1, 16
		nop
	}
	.loc	1 333 18
.Ltmp191:
	{
		and r1, r4, r1
		nop
	}
	.loc	1 333 18
	bt r1, .LBB6_39
.Ltmp192:
	.loc	1 348 13
	ldaw r7, dp[track_string]
	.loc	1 348 13
	{
		mov r0, r7
		mov r1, r10
	}
	ldc r2, 256
	bl strncpy
	.loc	1 350 13
	ldaw r11, cp[.L.str29]
	{
		mov r0, r11
		mov r1, r7
	}
	bl debug_printf
	{
		mkmsk r0, 1
		nop
	}
	.loc	1 357 13
	bl set_display_control_flag
	.loc	1 360 18
	{
		mov r0, r7
		ldw r1, sp[7]
	}
	{
		nop
		ldw r2, sp[8]
	}
	bl PlayTrack
	{
		mov r7, r0
		nop
	}
	.loc	1 361 13
	{
		sub r0, r7, 1
		ldc r1, 5
	}
	{
		lsu r1, r1, r0
		nop
	}
	bt r1, .LBB6_9
.Ltmp193:

	.xtabranch .Ljumptable0+4,.Ljumptable0+8,.Ljumptable0+12,.Ljumptable0+16,.Ljumptable0+20,.Ljumptable0+24
.Ljumptable0:
		
	{
		nop
		bru r0
	}
	.jmptable32 .LBB6_44,.LBB6_45,.LBB6_19,.LBB6_46,.LBB6_47,.LBB6_51
.Ltmp194:
.LBB6_10:
	{
		mov r7, r6
		nop
	}
.Ltmp195:
.LBB6_21:
	.loc	1 277 13
	ldaw r11, cp[.L.str19]
	{
		mov r0, r11
		nop
	}
	bl debug_printf
	.loc	1 287 34
	{
		mkmsk r1, 1
		ldw r0, sp[8]
	}
	bl QueryChannel
.Ltmp196:
	.loc	1 288 13
	{
		sub r0, r0, 1
		mkmsk r1, 3
	}
.Ltmp197:
	{
		lsu r1, r1, r0
		nop
	}
	bt r1, .LBB6_9
.Ltmp198:

	.xtabranch .Ljumptable1+4,.Ljumptable1+8,.Ljumptable1+12,.Ljumptable1+16,.Ljumptable1+20,.Ljumptable1+24,.Ljumptable1+28,.Ljumptable1+32
.Ljumptable1:
		
	{
		nop
		bru r0
	}
	.jmptable32 .LBB6_25,.LBB6_28,.LBB6_23,.LBB6_27,.LBB6_9,.LBB6_9,.LBB6_9,.LBB6_26
.Ltmp199:
.LBB6_25:
	.loc	1 294 25
	bl ClimbUp
	.loc	1 294 25
	{
		sub r9, r0, 1
		nop
	}
.Ltmp200:
	.loc	1 296 17
	ldaw r11, cp[.L.str21]
	bu .LBB6_24
.Ltmp201:
.LBB6_12:
	bt r7, .LBB6_15
.Ltmp202:
	.loc	1 78 5
	ldaw r0, dp[GetDirItemAt.lfn]
	{
		mov r1, r0
		nop
	}
	stw r1, sp[220]
	ldc r0, 256
	.loc	1 79 5
	stw r0, sp[221]
	{
		ldc r0, 0
		nop
	}
	.loc	1 87 5
	{
		mov r10, r1
		ld8u r0, r1[r0]
	}
	bt r0, .LBB6_15
.Ltmp203:
	{
		nop
		ldw r10, sp[6]
	}
.Ltmp204:
.LBB6_15:
	.loc	1 320 9
	{
		mov r3, r4
		nop
	}
	{
		zext r3, 8
		nop
	}
	.loc	1 320 9
	ldaw r11, cp[.L.str26]
	{
		mov r0, r11
		mov r1, r9
	}
	{
		mov r2, r10
		nop
	}
	bl debug_printf
	{
		ldc r0, 0
		nop
	}
	{
		nop
		ld8u r0, r10[r0]
	}
	bf r0, .LBB6_35
.Ltmp205:
	{
		ldc r1, 16
		nop
	}
	.loc	1 333 18
.Ltmp206:
	{
		and r1, r4, r1
		nop
	}
	bf r1, .LBB6_17
.Ltmp207:
.LBB6_39:
	{
		ldc r1, 46
		nop
	}
	.loc	1 335 16
.Ltmp208:
	{
		eq r0, r0, r1
		nop
	}
	bf r0, .LBB6_41
.Ltmp209:
	.loc	1 336 16
	ldaw r11, cp[.L.str27]
	{
		mov r0, r11
		mov r1, r9
	}
	{
		mov r2, r10
		nop
	}
	bl debug_printf
.Ltmp210:
	.loc	1 337 16
	{
		add r9, r9, 1
		mov r7, r6
	}
.Ltmp211:
	bu .LBB6_9
.Ltmp212:
.LBB6_35:
	.loc	1 323 13
	{
		mov r0, r5
		nop
	}
	ldc r1, 256
	bl f_getcwd
	.loc	1 324 17
.Ltmp213:
	ldaw r11, cp[.L.str6]
	{
		mov r0, r5
		mov r1, r11
	}
	bl strcmp
	{
		ldc r9, 0
		nop
	}
	bf r0, .LBB6_37
.Ltmp214:
	.loc	1 329 25
	bl ClimbUp
	.loc	1 329 25
	{
		add r9, r0, 1
		nop
	}
.Ltmp215:
	bu .LBB6_37
.Ltmp216:
.LBB6_41:
	.loc	1 340 16
	ldaw r11, cp[.L.str28]
	{
		mov r0, r11
		mov r1, r9
	}
	{
		mov r2, r10
		nop
	}
	bl debug_printf
	.loc	1 128 5
.Ltmp217:
	{
		mov r0, r10
		nop
	}
	bl f_chdir
.Ltmp218:
	.loc	1 158 9
	ldaw r0, dp[folder_string]
	ldc r1, 256
.Ltmp219:
	.loc	1 129 5
	bl f_getcwd
	{
		ldc r0, 2
		nop
	}
	.loc	1 130 5
	bl set_display_control_flag
.Ltmp220:
	{
		ldc r9, 0
		mov r7, r6
	}
	bu .LBB6_9
.Ltmp221:
.LBB6_17:
	.loc	1 348 13
	ldaw r7, dp[track_string]
	{
		mov r0, r7
		mov r1, r10
	}
	ldc r2, 256
	bl strncpy
	.loc	1 350 13
	ldaw r11, cp[.L.str29]
	{
		mov r0, r11
		mov r1, r7
	}
	bl debug_printf
	{
		mkmsk r0, 1
		nop
	}
	.loc	1 357 13
	bl set_display_control_flag
	.loc	1 360 18
	{
		mov r0, r7
		ldw r1, sp[7]
	}
	{
		nop
		ldw r2, sp[8]
	}
	bl PlayTrack
	{
		mov r7, r0
		nop
	}
	.loc	1 361 13
	{
		sub r0, r7, 1
		ldc r1, 5
	}
	{
		lsu r1, r1, r0
		nop
	}
	bt r1, .LBB6_9
.Ltmp222:

	.xtabranch .Ljumptable2+4,.Ljumptable2+8,.Ljumptable2+12,.Ljumptable2+16,.Ljumptable2+20,.Ljumptable2+24
.Ljumptable2:
		
	{
		nop
		bru r0
	}
	.jmptable32 .LBB6_44,.LBB6_45,.LBB6_19,.LBB6_46,.LBB6_47,.LBB6_51
.Ltmp223:
.LBB6_44:
	.loc	1 364 17
	{
		add r9, r9, 1
		nop
	}
.Ltmp224:
	.loc	1 365 17
	ldaw r11, cp[.L.str30]
	{
		mov r0, r11
		nop
	}
	bl debug_printf
	{
		mkmsk r7, 1
		nop
	}
	bu .LBB6_9
.Ltmp225:
.LBB6_28:
	.loc	1 307 25
	bl ClimbUp
	.loc	1 307 25
	{
		add r9, r0, 1
		nop
	}
.Ltmp226:
	.loc	1 309 17
	ldaw r11, cp[.L.str24]
	bu .LBB6_24
.Ltmp227:
.LBB6_23:
	.loc	1 290 17
	{
		sub r9, r9, 1
		nop
	}
.Ltmp228:
	.loc	1 291 17
	ldaw r11, cp[.L.str20]
	bu .LBB6_24
.Ltmp229:
.LBB6_27:
	.loc	1 303 17
	{
		add r9, r9, 1
		nop
	}
.Ltmp230:
	.loc	1 304 17
	ldaw r11, cp[.L.str23]
	bu .LBB6_24
.Ltmp231:
.LBB6_26:
	{
		mkmsk r0, 1
		nop
	}
	.loc	1 299 17
	stw r0, dp[state]
	.loc	1 300 17
	ldaw r11, cp[.L.str22]
.Ltmp232:
.LBB6_24:
	.loc	1 291 17
	{
		mov r0, r11
		nop
	}
	bl debug_printf
	bu .LBB6_9
.Ltmp233:
.LBB6_45:
	.loc	1 369 17
	{
		sub r9, r9, 1
		nop
	}
.Ltmp234:
	.loc	1 370 17
	ldaw r11, cp[.L.str31]
	{
		mov r0, r11
		nop
	}
	bl debug_printf
	{
		ldc r7, 2
		nop
	}
	bu .LBB6_9
.Ltmp235:
.LBB6_19:
	.loc	1 374 17
	ldaw r11, cp[.L.str19]
	{
		mov r0, r11
		nop
	}
	bl debug_printf
	{
		mkmsk r7, 2
		nop
	}
	bu .LBB6_20
.Ltmp236:
.LBB6_46:
	.loc	1 379 17
	ldaw r11, cp[.L.str32]
	{
		mov r0, r11
		nop
	}
	bl debug_printf
	.loc	1 380 25
	bl ClimbUp
.Ltmp237:
	.loc	1 380 25
	{
		add r9, r0, 1
		ldc r7, 4
	}
.Ltmp238:
	bu .LBB6_9
.Ltmp239:
.LBB6_47:
	.loc	1 385 17
	ldaw r11, cp[.L.str33]
	{
		mov r0, r11
		nop
	}
	bl debug_printf
	{
		ldc r6, 4
		nop
	}
.Ltmp240:
.LBB6_48:
	.loc	1 156 17
	bl ClimbUp
	{
		mov r7, r0
		nop
	}
	.loc	1 158 9
	ldaw r9, dp[folder_string]
	{
		mov r0, r9
		nop
	}
	ldc r1, 256
	bl f_getcwd
.Ltmp241:
	.loc	1 159 15
	ldaw r11, cp[.L.str6]
	{
		mov r0, r9
		mov r1, r11
	}
	bl strcmp
	bf r0, .LBB6_50
.Ltmp242:
	{
		lss r0, r7, r6
		nop
	}
	bt r0, .LBB6_48
.Ltmp243:
.LBB6_50:
	.loc	1 156 17
	{
		sub r9, r7, 1
		ldc r0, 2
	}
.Ltmp244:
	.loc	1 161 5
	bl set_display_control_flag
	{
		ldc r7, 5
		nop
	}
	bu .LBB6_9
.Ltmp245:
.LBB6_51:
	.loc	1 391 17
	ldaw r11, cp[.L.str34]
	{
		mov r0, r11
		nop
	}
	bl debug_printf
	.loc	1 392 21
.Ltmp246:
	{
		eq r0, r6, 2
		ldc r7, 6
	}
	bf r0, .LBB6_52
.Ltmp247:
.LBB6_20:
	{
		ldc r0, 0
		nop
	}
	.loc	1 375 17
	stw r0, dp[state]
	bu .LBB6_21
.Ltmp248:
.LBB6_52:
	.loc	1 398 21
	{
		add r9, r9, 1
		ldc r7, 6
	}
.Ltmp249:
	bu .LBB6_9
.Ltmp250:
	.cc_bottom sdcard_play.function
	.set	sdcard_play.nstackwords,((f_mount.nstackwords $M set_console_mode.nstackwords $M QueryChannel.nstackwords $M f_opendir.nstackwords $M ClimbUp.nstackwords $M strcmp.nstackwords $M f_chdir.nstackwords $M f_getcwd.nstackwords $M f_readdir.nstackwords $M strncpy.nstackwords $M debug_printf.nstackwords $M set_display_control_flag.nstackwords $M PlayTrack.nstackwords) + 230)
	.globl	sdcard_play.nstackwords
	.set	sdcard_play.maxcores,ClimbUp.maxcores $M PlayTrack.maxcores $M QueryChannel.maxcores $M debug_printf.maxcores $M f_chdir.maxcores $M f_getcwd.maxcores $M f_mount.maxcores $M f_opendir.maxcores $M f_readdir.maxcores $M set_console_mode.maxcores $M set_display_control_flag.maxcores $M strcmp.maxcores $M strncpy.maxcores $M 1
	.globl	sdcard_play.maxcores
	.set	sdcard_play.maxtimers,ClimbUp.maxtimers $M PlayTrack.maxtimers $M QueryChannel.maxtimers $M debug_printf.maxtimers $M f_chdir.maxtimers $M f_getcwd.maxtimers $M f_mount.maxtimers $M f_opendir.maxtimers $M f_readdir.maxtimers $M set_console_mode.maxtimers $M set_display_control_flag.maxtimers $M strcmp.maxtimers $M strncpy.maxtimers $M 0
	.globl	sdcard_play.maxtimers
	.set	sdcard_play.maxchanends,ClimbUp.maxchanends $M PlayTrack.maxchanends $M QueryChannel.maxchanends $M debug_printf.maxchanends $M f_chdir.maxchanends $M f_getcwd.maxchanends $M f_mount.maxchanends $M f_opendir.maxchanends $M f_readdir.maxchanends $M set_console_mode.maxchanends $M set_display_control_flag.maxchanends $M strcmp.maxchanends $M strncpy.maxchanends $M 0
	.globl	sdcard_play.maxchanends
.Ltmp251:
	.size	sdcard_play, .Ltmp251-sdcard_play
.Lfunc_end6:
	.cfi_endproc

	.section	.cp.rodata.string,"aMSc",@progbits
	.cc_top .L.str.data,.L.str
	.align	4
	.type	.L.str,@object
	.size	.L.str, 19
.L.str:
.asciiz"0:/CONTEXTSAVE.TXT"
	.cc_bottom .L.str.data
	.section	.dp.data.4,"awd",@progbits
	.cc_top setting_file_name.data,setting_file_name
	.globl	setting_file_name
	.align	4
	.type	setting_file_name,@object
	.size	setting_file_name, 4
setting_file_name:
	.long	.L.str
	.cc_bottom setting_file_name.data
	.section	.cp.rodata.string,"aMSc",@progbits
	.cc_top .L.str1.data,.L.str1
	.align	4
	.type	.L.str1,@object
	.size	.L.str1, 2
.L.str1:
.asciiz"."
	.space	2
	.cc_bottom .L.str1.data
	.cc_top .L.str2.data,.L.str2
	.align	4
	.type	.L.str2,@object
	.size	.L.str2, 18
.L.str2:
.asciiz"\nf_opendir rc= %d"
	.cc_bottom .L.str2.data
	.section	.dp.bss.4,"awd",@nobits
	.cc_top GetDirItemAt.lfn.data,GetDirItemAt.lfn
	.align	4
	.type	GetDirItemAt.lfn,@object
	.size	GetDirItemAt.lfn, 256
GetDirItemAt.lfn:
	.space	256
	.cc_bottom GetDirItemAt.lfn.data
	.cc_top GetDirIndexOf.lfn.data,GetDirIndexOf.lfn
	.align	4
	.type	GetDirIndexOf.lfn,@object
	.size	GetDirIndexOf.lfn, 256
GetDirIndexOf.lfn:
	.space	256
	.cc_bottom GetDirIndexOf.lfn.data
	.section	.cp.rodata.string,"aMSc",@progbits
	.cc_top .L.str3.data,.L.str3
	.align	4
	.type	.L.str3,@object
	.size	.L.str3, 18
.L.str3:
.asciiz"\ngoing up from %s"
	.cc_bottom .L.str3.data
	.cc_top .L.str4.data,.L.str4
	.align	4
	.type	.L.str4,@object
	.size	.L.str4, 3
.L.str4:
.asciiz".."
	.space	1
	.cc_bottom .L.str4.data
	.cc_top .L.str5.data,.L.str5
	.align	4
	.type	.L.str5,@object
	.size	.L.str5, 18
.L.str5:
.asciiz"\ncurrent index %d"
	.cc_bottom .L.str5.data
	.cc_top .L.str6.data,.L.str6
	.align	4
	.type	.L.str6,@object
	.size	.L.str6, 4
.L.str6:
.asciiz"0:/"
	.cc_bottom .L.str6.data
	.cc_top .L.str7.data,.L.str7
	.align	4
	.type	.L.str7,@object
	.size	.L.str7, 16
.L.str7:
.asciiz"\nPlay Track: %s"
	.cc_bottom .L.str7.data
	.cc_top .L.str8.data,.L.str8
	.align	4
	.type	.L.str8,@object
	.size	.L.str8, 29
.L.str8:
.asciiz" - open file failed RC = %2d"
	.cc_bottom .L.str8.data
	.cc_top .L.str9.data,.L.str9
	.align	4
	.type	.L.str9,@object
	.size	.L.str9, 36
.L.str9:
.asciiz" - read RIFF header failed RC = %2d"
	.cc_bottom .L.str9.data
	.cc_top .L.str10.data,.L.str10
	.align	4
	.type	.L.str10,@object
	.size	.L.str10, 42
.L.str10:
.asciiz"\nFile Format ID = %s (0x%02x%02x%02x%02x)"
	.cc_bottom .L.str10.data
	.cc_top .L.str11.data,.L.str11
	.align	4
	.type	.L.str11,@object
	.size	.L.str11, 5
.L.str11:
.asciiz"RIFF"
	.cc_bottom .L.str11.data
	.cc_top .L.str12.data,.L.str12
	.align	4
	.type	.L.str12,@object
	.size	.L.str12, 5
.L.str12:
.asciiz"fLaC"
	.cc_bottom .L.str12.data
	.cc_top .L.str13.data,.L.str13
	.align	4
	.type	.L.str13,@object
	.size	.L.str13, 18
.L.str13:
.asciiz" - Unknown format"
	.cc_bottom .L.str13.data
	.section	.dp.data.4,"awd",@progbits
	.cc_top state.data,state
	.globl	state
	.align	4
	.type	state,@object
	.size	state, 4
state:
	.long	1
	.cc_bottom state.data
	.section	.cp.rodata.string,"aMSc",@progbits
	.cc_top .L.str14.data,.L.str14
	.align	4
	.type	.L.str14,@object
	.size	.L.str14, 43
.L.str14:
.asciiz"\nsdcard_play started, folder[%s] track[%s]"
	.cc_bottom .L.str14.data
	.cc_top .L.str15.data,.L.str15
	.align	4
	.type	.L.str15,@object
	.size	.L.str15, 14
.L.str15:
.asciiz"\nf_mount done"
	.cc_bottom .L.str15.data
	.cc_top .L.str16.data,.L.str16
	.align	4
	.type	.L.str16,@object
	.size	.L.str16, 18
.L.str16:
.asciiz"\ncurrent dir >%s<"
	.cc_bottom .L.str16.data
	.cc_top .L.str17.data,.L.str17
	.align	4
	.type	.L.str17,@object
	.size	.L.str17, 24
.L.str17:
.asciiz"\nfinding index for >%s<"
	.cc_bottom .L.str17.data
	.cc_top .L.str18.data,.L.str18
	.align	4
	.type	.L.str18,@object
	.size	.L.str18, 19
.L.str18:
.asciiz"\ncurrent index: %d"
	.cc_bottom .L.str18.data
	.cc_top .L.str19.data,.L.str19
	.align	4
	.type	.L.str19,@object
	.size	.L.str19, 6
.L.str19:
.asciiz"\nIDLE"
	.cc_bottom .L.str19.data
	.cc_top .L.str20.data,.L.str20
	.align	4
	.type	.L.str20,@object
	.size	.L.str20, 8
.L.str20:
.asciiz"\nTRACK-"
	.cc_bottom .L.str20.data
	.cc_top .L.str21.data,.L.str21
	.align	4
	.type	.L.str21,@object
	.size	.L.str21, 9
.L.str21:
.asciiz"\nFOLDER-"
	.cc_bottom .L.str21.data
	.cc_top .L.str22.data,.L.str22
	.align	4
	.type	.L.str22,@object
	.size	.L.str22, 6
.L.str22:
.asciiz"\nPLAY"
	.cc_bottom .L.str22.data
	.cc_top .L.str23.data,.L.str23
	.align	4
	.type	.L.str23,@object
	.size	.L.str23, 8
.L.str23:
.asciiz"\nTRACK+"
	.cc_bottom .L.str23.data
	.cc_top .L.str24.data,.L.str24
	.align	4
	.type	.L.str24,@object
	.size	.L.str24, 9
.L.str24:
.asciiz"\nFOLDER+"
	.cc_bottom .L.str24.data
	.cc_top .L.str25.data,.L.str25
	.align	4
	.type	.L.str25,@object
	.size	.L.str25, 28
.L.str25:
.asciiz"\nTry to get dir item at: %d"
	.cc_bottom .L.str25.data
	.cc_top .L.str26.data,.L.str26
	.align	4
	.type	.L.str26,@object
	.size	.L.str26, 25
.L.str26:
.asciiz"\nDirItem(%d): %s, Att:%d"
	.cc_bottom .L.str26.data
	.cc_top .L.str27.data,.L.str27
	.align	4
	.type	.L.str27,@object
	.size	.L.str27, 25
.L.str27:
.asciiz"\ntrack = %d, skipping %s"
	.cc_bottom .L.str27.data
	.cc_top .L.str28.data,.L.str28
	.align	4
	.type	.L.str28,@object
	.size	.L.str28, 36
.L.str28:
.asciiz"\ntrack = %d, going down to <dir> %s"
	.cc_bottom .L.str28.data
	.cc_top .L.str29.data,.L.str29
	.align	4
	.type	.L.str29,@object
	.size	.L.str29, 12
.L.str29:
.asciiz"\nplaying %s"
	.cc_bottom .L.str29.data
	.cc_top .L.str30.data,.L.str30
	.align	4
	.type	.L.str30,@object
	.size	.L.str30, 12
.L.str30:
.asciiz"\nNEXT_TRACK"
	.cc_bottom .L.str30.data
	.cc_top .L.str31.data,.L.str31
	.align	4
	.type	.L.str31,@object
	.size	.L.str31, 16
.L.str31:
.asciiz"\nPREVIOUS_TRACK"
	.cc_bottom .L.str31.data
	.cc_top .L.str32.data,.L.str32
	.align	4
	.type	.L.str32,@object
	.size	.L.str32, 13
.L.str32:
.asciiz"\nNEXT_FOLDER"
	.cc_bottom .L.str32.data
	.cc_top .L.str33.data,.L.str33
	.align	4
	.type	.L.str33,@object
	.size	.L.str33, 17
.L.str33:
.asciiz"\nPREVIOUS_FOLDER"
	.cc_bottom .L.str33.data
	.cc_top .L.str34.data,.L.str34
	.align	4
	.type	.L.str34,@object
	.size	.L.str34, 7
.L.str34:
.asciiz"\nERROR"
	.cc_bottom .L.str34.data
	.section	.dp.bss,"awd",@nobits
	.cc_top scratch.data,scratch
	.globl	scratch.globound
scratch.globound = 256
	.globl	scratch
	.align	8
	.type	scratch,@object
	.size	scratch, 256
scratch:
	.space	256
	.cc_bottom scratch.data
	.section	.dp.bss.4,"awd",@nobits
.Ldebug_end0:
	.section	.dp.bss,"awd",@nobits
.Ldebug_end1:
	.section	.dp.data.4,"awd",@progbits
.Ldebug_end2:
	.text
.Ldebug_end3:
	.file	7 "C:\\Program Files (x86)\\XMOS\\xTIMEcomposer\\Community_14.4.1\\target/include\\xccompat.h"
	.file	8 "C:\\Program Files (x86)\\XMOS\\xTIMEcomposer\\Community_14.4.1\\target/include\\sys\\types.h"
	.section	.trap_info,"",@progbits
.Ltrap_info_entries_start0:
	.long	.Ltrap_info_entries_end0-.Ltrap_info_entries_start0
	.long	1
.Ltrap_info_entries_end0: