	.text
	.file	"stream_encoder_framing.c"
	.text
	.globl	FLAC__add_metadata_block
	.align	4
	.type	FLAC__add_metadata_block,@function
	.cc_top FLAC__add_metadata_block.function,FLAC__add_metadata_block
FLAC__add_metadata_block:
.Lfunc_begin0:
	.file	4 "C:/Users/takaaki/git/sw_xSSDAC/module_libFLAC/source\\stream_encoder_framing.c"
	.loc	4 48 0
	.cfi_startproc
	.issue_mode dual
	{
		nop
		dualentsp 14
	}
.Ltmp0:
	.cfi_def_cfa_offset 56
.Ltmp1:
	.cfi_offset 15, 0
	std r5, r4, sp[3]
.Ltmp2:
	.cfi_offset 4, -32
.Ltmp3:
	.cfi_offset 5, -28
	std r7, r6, sp[4]
.Ltmp4:
	.cfi_offset 6, -24
.Ltmp5:
	.cfi_offset 7, -20
	std r9, r8, sp[5]
.Ltmp6:
	.cfi_offset 8, -16
.Ltmp7:
	.cfi_offset 9, -12
.Ltmp8:
	.cfi_offset 10, -8
.Ltmp9:
	{
		mov r4, r1
		stw r10, sp[12]
	}
.Ltmp10:
	{
		mov r7, r0
		nop
	}
.Ltmp11:
	.loc	4 50 50 prologue_end
	ldw r0, dp[FLAC__VENDOR_STRING]
	.loc	4 50 50
	bl strlen
.Ltmp12:
	{
		mov r8, r0
		mov r0, r4
	}
.Ltmp13:
	.loc	4 51 30
	bl FLAC__bitwriter_get_input_bits_unconsumed
.Ltmp14:
	{
		mov r5, r0
		ldw r1, r7[1]
	}
.Ltmp15:
	.loc	4 55 6
	ldw r2, cp[FLAC__STREAM_METADATA_IS_LAST_LEN]
	.loc	4 55 6
	{
		mov r0, r4
		nop
	}
	bl FLAC__bitwriter_write_raw_uint32
	bf r0, .LBB0_77
.Ltmp16:
	{
		nop
		ldw r1, r7[0]
	}
	.loc	4 58 6
.Ltmp17:
	ldw r2, cp[FLAC__STREAM_METADATA_TYPE_LEN]
	.loc	4 58 6
	{
		mov r0, r4
		nop
	}
	bl FLAC__bitwriter_write_raw_uint32
	bf r0, .LBB0_77
.Ltmp18:
	{
		nop
		ldw r6, r7[2]
	}
.Ltmp19:
	{
		nop
		ldw r0, r7[0]
	}
	.loc	4 65 5
.Ltmp20:
	{
		eq r0, r0, 4
		nop
	}
	bf r0, .LBB0_4
.Ltmp21:
	.loc	4 67 3
	{
		add r1, r6, r8
		ldw r0, r7[4]
	}
.Ltmp22:
	.loc	4 68 3
	{
		sub r6, r1, r0
		nop
	}
.Ltmp23:
.LBB0_4:
	.loc	4 72 5
	ldw r2, cp[FLAC__STREAM_METADATA_LENGTH_LEN]
	{
		mkmsk r0, 1
		nop
	}
	.loc	4 72 5
	{
		shl r0, r0, r2
		nop
	}
	.loc	4 72 5
	{
		lsu r0, r6, r0
		nop
	}
	bf r0, .LBB0_77
.Ltmp24:
	.loc	4 74 6
	{
		mov r0, r4
		mov r1, r6
	}
	bl FLAC__bitwriter_write_raw_uint32
	bf r0, .LBB0_77
.Ltmp25:
	.loc	4 77 2
	{
		ldc r1, 6
		ldw r0, r7[0]
	}
	.loc	4 77 2
	{
		lsu r1, r1, r0
		nop
	}
	bf r1, .LBB0_7
.Ltmp26:
	{
		nop
		ldw r1, r7[4]
	}
	{
		nop
		ldw r2, r7[2]
	}
.Ltmp27:
.LBB0_72:
	.loc	4 218 8
	{
		mov r0, r4
		nop
	}
	bl FLAC__bitwriter_write_byte_block
	bt r0, .LBB0_73
	bu .LBB0_77
.Ltmp28:
.LBB0_7:

	.xtabranch .Ljumptable0+4,.Ljumptable0+8,.Ljumptable0+12,.Ljumptable0+16,.Ljumptable0+20,.Ljumptable0+24,.Ljumptable0+28
.Ljumptable0:
		
	{
		nop
		bru r0
	}
	.jmptable32 .LBB0_10,.LBB0_76,.LBB0_25,.LBB0_8,.LBB0_31,.LBB0_39,.LBB0_60
.Ltmp29:
.LBB0_10:
	{
		nop
		ldw r1, r7[4]
	}
	.loc	4 80 8
.Ltmp30:
	ldw r2, cp[FLAC__STREAM_METADATA_STREAMINFO_MIN_BLOCK_SIZE_LEN]
	.loc	4 80 8
	{
		mov r0, r4
		nop
	}
	bl FLAC__bitwriter_write_raw_uint32
	bf r0, .LBB0_77
.Ltmp31:
	{
		nop
		ldw r1, r7[5]
	}
	.loc	4 83 8
.Ltmp32:
	ldw r2, cp[FLAC__STREAM_METADATA_STREAMINFO_MAX_BLOCK_SIZE_LEN]
	.loc	4 83 8
	{
		mov r0, r4
		nop
	}
	bl FLAC__bitwriter_write_raw_uint32
	bf r0, .LBB0_77
.Ltmp33:
	{
		nop
		ldw r1, r7[6]
	}
	.loc	4 86 8
.Ltmp34:
	ldw r2, cp[FLAC__STREAM_METADATA_STREAMINFO_MIN_FRAME_SIZE_LEN]
	.loc	4 86 8
	{
		mov r0, r4
		nop
	}
	bl FLAC__bitwriter_write_raw_uint32
	bf r0, .LBB0_77
.Ltmp35:
	{
		nop
		ldw r1, r7[7]
	}
	.loc	4 89 8
.Ltmp36:
	ldw r2, cp[FLAC__STREAM_METADATA_STREAMINFO_MAX_FRAME_SIZE_LEN]
	.loc	4 89 8
	{
		mov r0, r4
		nop
	}
	bl FLAC__bitwriter_write_raw_uint32
	bf r0, .LBB0_77
.Ltmp37:
	{
		nop
		ldw r1, r7[8]
	}
	.loc	4 92 8
.Ltmp38:
	ldw r2, cp[FLAC__STREAM_METADATA_STREAMINFO_SAMPLE_RATE_LEN]
	.loc	4 92 8
	{
		mov r0, r4
		nop
	}
	bl FLAC__bitwriter_write_raw_uint32
	bf r0, .LBB0_77
.Ltmp39:
	{
		nop
		ldw r0, r7[9]
	}
	.loc	4 96 8
.Ltmp40:
	{
		sub r1, r0, 1
		nop
	}
	.loc	4 96 8
	ldw r2, cp[FLAC__STREAM_METADATA_STREAMINFO_CHANNELS_LEN]
	.loc	4 96 8
	{
		mov r0, r4
		nop
	}
	bl FLAC__bitwriter_write_raw_uint32
	bf r0, .LBB0_77
.Ltmp41:
	{
		nop
		ldw r0, r7[10]
	}
	.loc	4 100 8
.Ltmp42:
	{
		sub r1, r0, 1
		nop
	}
	.loc	4 100 8
	ldw r2, cp[FLAC__STREAM_METADATA_STREAMINFO_BITS_PER_SAMPLE_LEN]
	.loc	4 100 8
	{
		mov r0, r4
		nop
	}
	bl FLAC__bitwriter_write_raw_uint32
	bf r0, .LBB0_77
.Ltmp43:
	{
		ldc r0, 48
		nop
	}
	.loc	4 102 7
.Ltmp44:
	{
		add r0, r7, r0
		nop
	}
	.loc	4 102 7
	ldd r9, r10, r0[0]
	.loc	4 102 7
	ldw r8, cp[FLAC__STREAM_METADATA_STREAMINFO_TOTAL_SAMPLES_LEN]
	{
		mkmsk r0, 1
		ldc r1, 0
	}
	.loc	4 102 7
	{
		mov r2, r8
		nop
	}
	bl __ashldi3
	.loc	4 102 7
	{
		eq r2, r9, r1
		nop
	}
	bt r2, .LBB0_18
.Ltmp45:
	{
		lsu r0, r9, r1
		nop
	}
	bu .LBB0_20
.Ltmp46:
.LBB0_76:
	{
		nop
		ldw r0, r7[2]
	}
	.loc	4 113 8
.Ltmp47:
	{
		shl r1, r0, 3
		mov r0, r4
	}
	.loc	4 113 8
	bl FLAC__bitwriter_write_zeroes
	bt r0, .LBB0_73
	bu .LBB0_77
.Ltmp48:
.LBB0_25:
	.loc	4 117 8
	ldaw r1, r7[4]
	.loc	4 117 8
	ldw r0, cp[FLAC__STREAM_METADATA_APPLICATION_ID_LEN]
	.loc	4 117 8
	{
		shr r8, r0, 3
		mov r0, r4
	}
	.loc	4 117 8
	{
		mov r2, r8
		nop
	}
	bl FLAC__bitwriter_write_byte_block
	bf r0, .LBB0_77
.Ltmp49:
	{
		nop
		ldw r1, r7[5]
	}
	{
		nop
		ldw r0, r7[2]
	}
	.loc	4 119 8
.Ltmp50:
	{
		sub r2, r0, r8
		nop
	}
	bu .LBB0_72
.Ltmp51:
.LBB0_8:
	{
		nop
		ldw r0, r7[4]
	}
	bf r0, .LBB0_73
.Ltmp52:
	.loc	4 124 9
	ldw r8, cp[FLAC__STREAM_METADATA_SEEKPOINT_SAMPLE_NUMBER_LEN]
	{
		ldc r10, 0
		nop
	}
	{
		mov r9, r10
		nop
	}
.Ltmp53:
.LBB0_28:
	{
		nop
		ldw r0, r7[5]
	}
	{
		add r0, r0, r10
		nop
	}
	.loc	4 124 9
	ldd r2, r1, r0[0]
	.loc	4 124 9
	{
		mov r0, r4
		mov r3, r8
	}
	bl FLAC__bitwriter_write_raw_uint64
	bf r0, .LBB0_77
.Ltmp54:
	{
		nop
		ldw r0, r7[5]
	}
	{
		add r0, r0, r10
		nop
	}
	{
		add r0, r0, 8
		nop
	}
	.loc	4 126 9
.Ltmp55:
	ldd r2, r1, r0[0]
	.loc	4 126 9
	{
		mov r0, r4
		nop
	}
	.loc	4 126 9
	ldw r3, cp[FLAC__STREAM_METADATA_SEEKPOINT_STREAM_OFFSET_LEN]
	.loc	4 126 9
	bl FLAC__bitwriter_write_raw_uint64
	bf r0, .LBB0_77
.Ltmp56:
	{
		nop
		ldw r0, r7[5]
	}
	{
		add r0, r0, r10
		nop
	}
	.loc	4 128 9
.Ltmp57:
	{
		mov r0, r4
		ldw r1, r0[4]
	}
	.loc	4 128 9
	ldw r2, cp[FLAC__STREAM_METADATA_SEEKPOINT_FRAME_SAMPLES_LEN]
	.loc	4 128 9
	bl FLAC__bitwriter_write_raw_uint32
	bf r0, .LBB0_77
.Ltmp58:
	.loc	4 123 57
	{
		add r9, r9, 1
		ldw r0, r7[4]
	}
.Ltmp59:
	.loc	4 123 4
	ldaw r10, r10[6]
	.loc	4 123 4
	{
		lsu r0, r9, r0
		nop
	}
	bt r0, .LBB0_28
	bu .LBB0_73
.Ltmp60:
.LBB0_31:
	.loc	4 133 8
	{
		mov r0, r4
		mov r1, r8
	}
	bl FLAC__bitwriter_write_raw_uint32_little_endian
	bf r0, .LBB0_77
.Ltmp61:
	.loc	4 135 8
	ldw r1, dp[FLAC__VENDOR_STRING]
	.loc	4 135 8
	{
		mov r0, r4
		mov r2, r8
	}
	bl FLAC__bitwriter_write_byte_block
	bf r0, .LBB0_77
.Ltmp62:
	.loc	4 137 8
	{
		mov r0, r4
		ldw r1, r7[6]
	}
	.loc	4 137 8
	bl FLAC__bitwriter_write_raw_uint32_little_endian
	bf r0, .LBB0_77
.Ltmp63:
	{
		nop
		ldw r0, r7[6]
	}
	bf r0, .LBB0_73
.Ltmp64:
	{
		ldc r8, 0
		nop
	}
	{
		mov r9, r8
		nop
	}
.Ltmp65:
.LBB0_37:
	{
		nop
		ldw r0, r7[7]
	}
	{
		add r0, r0, r8
		nop
	}
	.loc	4 140 9
.Ltmp66:
	{
		mov r0, r4
		ldw r1, r0[0]
	}
	.loc	4 140 9
	bl FLAC__bitwriter_write_raw_uint32_little_endian
	bf r0, .LBB0_77
.Ltmp67:
	{
		nop
		ldw r0, r7[7]
	}
	{
		add r0, r0, r8
		nop
	}
	{
		nop
		ldw r1, r0[1]
	}
	.loc	4 142 9
.Ltmp68:
	{
		mov r0, r4
		ldw r2, r0[0]
	}
	.loc	4 142 9
	bl FLAC__bitwriter_write_byte_block
	bf r0, .LBB0_77
.Ltmp69:
	.loc	4 139 63
	{
		add r9, r9, 1
		ldw r0, r7[6]
	}
.Ltmp70:
	.loc	4 139 4
	{
		add r8, r8, 8
		lsu r0, r9, r0
	}
	bt r0, .LBB0_37
	bu .LBB0_73
.Ltmp71:
.LBB0_39:
	.loc	4 148 8
	ldaw r1, r7[4]
	.loc	4 148 8
	ldw r0, cp[FLAC__STREAM_METADATA_CUESHEET_MEDIA_CATALOG_NUMBER_LEN]
	.loc	4 148 8
	{
		shr r2, r0, 3
		mov r0, r4
	}
	.loc	4 148 8
	bl FLAC__bitwriter_write_byte_block
	bf r0, .LBB0_77
.Ltmp72:
	ldc r0, 152
	.loc	4 150 8
.Ltmp73:
	{
		add r0, r7, r0
		nop
	}
	.loc	4 150 8
	ldd r2, r1, r0[0]
	.loc	4 150 8
	ldw r3, cp[FLAC__STREAM_METADATA_CUESHEET_LEAD_IN_LEN]
	.loc	4 150 8
	{
		mov r0, r4
		nop
	}
	bl FLAC__bitwriter_write_raw_uint64
	bf r0, .LBB0_77
.Ltmp74:
	ldc r0, 160
	.loc	4 152 8
.Ltmp75:
	{
		add r0, r7, r0
		nop
	}
	{
		nop
		ldw r0, r0[0]
	}
	.loc	4 152 8
	{
		eq r0, r0, 0
		nop
	}
	{
		eq r1, r0, 0
		nop
	}
	.loc	4 152 8
	ldw r2, cp[FLAC__STREAM_METADATA_CUESHEET_IS_CD_LEN]
	.loc	4 152 8
	{
		mov r0, r4
		nop
	}
	bl FLAC__bitwriter_write_raw_uint32
	bf r0, .LBB0_77
.Ltmp76:
	.loc	4 154 8
	ldw r1, cp[FLAC__STREAM_METADATA_CUESHEET_RESERVED_LEN]
	.loc	4 154 8
	{
		mov r0, r4
		nop
	}
	bl FLAC__bitwriter_write_zeroes
	bf r0, .LBB0_77
.Ltmp77:
	ldc r0, 164
	.loc	4 156 8
.Ltmp78:
	{
		add r0, r7, r0
		nop
	}
	{
		nop
		stw r0, sp[4]
	}
	{
		nop
		ldw r1, r0[0]
	}
	.loc	4 156 8
	ldw r2, cp[FLAC__STREAM_METADATA_CUESHEET_NUM_TRACKS_LEN]
	.loc	4 156 8
	{
		mov r0, r4
		nop
	}
	bl FLAC__bitwriter_write_raw_uint32
	bf r0, .LBB0_77
.Ltmp79:
	{
		nop
		ldw r0, sp[4]
	}
	{
		nop
		ldw r0, r0[0]
	}
	bf r0, .LBB0_73
.Ltmp80:
	ldc r0, 168
	.loc	4 159 5
.Ltmp81:
	{
		add r0, r7, r0
		nop
	}
	{
		nop
		stw r0, sp[2]
	}
	.loc	4 166 9
.Ltmp82:
	ldw r0, cp[FLAC__STREAM_METADATA_CUESHEET_TRACK_ISRC_LEN]
	.loc	4 166 9
	{
		shr r0, r0, 3
		nop
	}
.Ltmp83:
	.loc	4 168 9
	{
		ldc r0, 0
		stw r0, sp[1]
	}
	{
		nop
		stw r0, sp[3]
	}
.Ltmp84:
.LBB0_46:
	{
		nop
		ldw r0, sp[2]
	}
	{
		nop
		ldw r0, r0[0]
	}
	{
		nop
		ldw r1, sp[3]
	}
	.loc	4 161 9
.Ltmp85:
	{
		shl r1, r1, 5
		nop
	}
	{
		add r10, r0, r1
		nop
	}
	.loc	4 161 9
	ldd r2, r1, r10[0]
	.loc	4 161 9
	{
		mov r0, r4
		nop
	}
	.loc	4 161 9
	ldw r3, cp[FLAC__STREAM_METADATA_CUESHEET_TRACK_OFFSET_LEN]
	.loc	4 161 9
	bl FLAC__bitwriter_write_raw_uint64
	bf r0, .LBB0_77
.Ltmp86:
	{
		ldc r0, 8
		nop
	}
	.loc	4 163 9
.Ltmp87:
	{
		mov r0, r4
		ld8u r1, r10[r0]
	}
	.loc	4 163 9
	ldw r2, cp[FLAC__STREAM_METADATA_CUESHEET_TRACK_NUMBER_LEN]
	.loc	4 163 9
	bl FLAC__bitwriter_write_raw_uint32
	bf r0, .LBB0_77
.Ltmp88:
	.loc	4 166 9
	{
		add r1, r10, 9
		mov r0, r4
	}
	{
		nop
		ldw r2, sp[1]
	}
	.loc	4 166 9
	bl FLAC__bitwriter_write_byte_block
	bf r0, .LBB0_77
.Ltmp89:
	{
		ldc r0, 22
		nop
	}
	{
		nop
		ld8u r1, r10[r0]
	}
	.loc	4 168 9
.Ltmp90:
	{
		zext r1, 1
		mov r0, r4
	}
	.loc	4 168 9
	ldw r2, cp[FLAC__STREAM_METADATA_CUESHEET_TRACK_TYPE_LEN]
	.loc	4 168 9
	bl FLAC__bitwriter_write_raw_uint32
	bf r0, .LBB0_77
.Ltmp91:
	{
		ldc r0, 22
		nop
	}
	.loc	4 168 9
	{
		add r0, r10, r0
		ldc r1, 0
	}
	{
		nop
		ld8u r0, r0[r1]
	}
.Ltmp92:
	.loc	4 170 9
	{
		shr r1, r0, 1
		nop
	}
	.loc	4 170 9
	{
		zext r1, 1
		mov r0, r4
	}
	.loc	4 170 9
	ldw r2, cp[FLAC__STREAM_METADATA_CUESHEET_TRACK_PRE_EMPHASIS_LEN]
	.loc	4 170 9
	bl FLAC__bitwriter_write_raw_uint32
	bf r0, .LBB0_77
.Ltmp93:
	.loc	4 172 9
	{
		mov r0, r4
		nop
	}
	.loc	4 172 9
	ldw r1, cp[FLAC__STREAM_METADATA_CUESHEET_TRACK_RESERVED_LEN]
	.loc	4 172 9
	bl FLAC__bitwriter_write_zeroes
	bf r0, .LBB0_77
.Ltmp94:
	{
		ldc r0, 23
		nop
	}
	.loc	4 174 9
.Ltmp95:
	{
		mov r0, r4
		ld8u r1, r10[r0]
	}
	.loc	4 174 9
	ldw r2, cp[FLAC__STREAM_METADATA_CUESHEET_TRACK_NUM_INDICES_LEN]
	.loc	4 174 9
	bl FLAC__bitwriter_write_raw_uint32
	bf r0, .LBB0_77
.Ltmp96:
	{
		ldc r0, 23
		nop
	}
	.loc	4 174 9
	{
		add r8, r10, r0
		ldc r0, 0
	}
	{
		nop
		ld8u r0, r8[r0]
	}
	bf r0, .LBB0_59
.Ltmp97:
	.loc	4 177 6
	ldaw r0, r10[6]
	{
		ldc r9, 8
		stw r0, sp[5]
	}
	{
		ldc r7, 0
		nop
	}
.Ltmp98:
.LBB0_56:
	{
		nop
		ldw r0, sp[5]
	}
	{
		nop
		ldw r10, r0[0]
	}
	{
		add r0, r10, r9
		nop
	}
	{
		sub r0, r0, 8
		nop
	}
	.loc	4 179 10
.Ltmp99:
	ldd r2, r1, r0[0]
	.loc	4 179 10
	{
		mov r0, r4
		nop
	}
	.loc	4 179 10
	ldw r3, cp[FLAC__STREAM_METADATA_CUESHEET_INDEX_OFFSET_LEN]
	.loc	4 179 10
	bl FLAC__bitwriter_write_raw_uint64
	bf r0, .LBB0_77
.Ltmp100:
	.loc	4 181 10
	{
		mov r0, r4
		ld8u r1, r10[r9]
	}
	.loc	4 181 10
	ldw r2, cp[FLAC__STREAM_METADATA_CUESHEET_INDEX_NUMBER_LEN]
	.loc	4 181 10
	bl FLAC__bitwriter_write_raw_uint32
	bf r0, .LBB0_77
.Ltmp101:
	.loc	4 183 10
	{
		mov r0, r4
		nop
	}
	.loc	4 183 10
	ldw r1, cp[FLAC__STREAM_METADATA_CUESHEET_INDEX_RESERVED_LEN]
	.loc	4 183 10
	bl FLAC__bitwriter_write_zeroes
	bf r0, .LBB0_77
.Ltmp102:
	.loc	4 176 40
	{
		add r7, r7, 1
		ldc r0, 0
	}
.Ltmp103:
	{
		nop
		ld8u r0, r8[r0]
	}
	.loc	4 176 5
	ldaw r9, r9[4]
	.loc	4 176 5
	{
		lsu r0, r7, r0
		nop
	}
	bt r0, .LBB0_56
.Ltmp104:
.LBB0_59:
	{
		nop
		ldw r1, sp[3]
	}
	.loc	4 158 56
	{
		add r1, r1, 1
		nop
	}
.Ltmp105:
	{
		nop
		stw r1, sp[3]
	}
	{
		nop
		ldw r0, sp[4]
	}
	{
		nop
		ldw r0, r0[0]
	}
	.loc	4 158 4
	{
		lsu r0, r1, r0
		nop
	}
.Ltmp106:
	bt r0, .LBB0_46
.Ltmp107:
.LBB0_73:
	.loc	4 225 29
	{
		mov r0, r4
		nop
	}
	bl FLAC__bitwriter_get_input_bits_unconsumed
.Ltmp108:
	.loc	4 226 6
	{
		lsu r1, r0, r5
		nop
	}
	bt r1, .LBB0_77
.Ltmp109:
	.loc	4 228 3
	{
		sub r0, r0, r5
		nop
	}
.Ltmp110:
	.loc	4 229 6
	{
		mov r1, r0
		nop
	}
	{
		zext r1, 3
		nop
	}
	bt r1, .LBB0_77
.Ltmp111:
	.loc	4 229 6
	{
		shl r1, r6, 3
		nop
	}
	.loc	4 229 6
	ldaw r1, r1[8]
	.loc	4 229 6
	{
		eq r0, r0, r1
		nop
	}
.Ltmp112:
	bu .LBB0_78
.Ltmp113:
.LBB0_60:
	{
		nop
		ldw r1, r7[4]
	}
	.loc	4 191 9
.Ltmp114:
	ldw r2, cp[FLAC__STREAM_METADATA_PICTURE_TYPE_LEN]
	.loc	4 191 9
	{
		mov r0, r4
		nop
	}
	bl FLAC__bitwriter_write_raw_uint32
	bf r0, .LBB0_77
.Ltmp115:
	{
		nop
		ldw r0, r7[5]
	}
	.loc	4 193 11
	bl strlen
	{
		mov r8, r0
		nop
	}
.Ltmp116:
	.loc	4 194 9
	ldw r2, cp[FLAC__STREAM_METADATA_PICTURE_MIME_TYPE_LENGTH_LEN]
	.loc	4 194 9
	{
		mov r0, r4
		mov r1, r8
	}
	bl FLAC__bitwriter_write_raw_uint32
	bf r0, .LBB0_77
.Ltmp117:
	.loc	4 196 9
	{
		mov r0, r4
		ldw r1, r7[5]
	}
	.loc	4 196 9
	{
		mov r2, r8
		nop
	}
	bl FLAC__bitwriter_write_byte_block
	bf r0, .LBB0_77
.Ltmp118:
	{
		nop
		ldw r0, r7[6]
	}
	.loc	4 198 11
	bl strlen
	{
		mov r8, r0
		nop
	}
.Ltmp119:
	.loc	4 199 9
	ldw r2, cp[FLAC__STREAM_METADATA_PICTURE_DESCRIPTION_LENGTH_LEN]
	.loc	4 199 9
	{
		mov r0, r4
		mov r1, r8
	}
	bl FLAC__bitwriter_write_raw_uint32
	bf r0, .LBB0_77
.Ltmp120:
	.loc	4 201 9
	{
		mov r0, r4
		ldw r1, r7[6]
	}
	.loc	4 201 9
	{
		mov r2, r8
		nop
	}
	bl FLAC__bitwriter_write_byte_block
	bf r0, .LBB0_77
.Ltmp121:
	{
		nop
		ldw r1, r7[7]
	}
	.loc	4 203 9
.Ltmp122:
	ldw r2, cp[FLAC__STREAM_METADATA_PICTURE_WIDTH_LEN]
	.loc	4 203 9
	{
		mov r0, r4
		nop
	}
	bl FLAC__bitwriter_write_raw_uint32
	bf r0, .LBB0_77
.Ltmp123:
	{
		nop
		ldw r1, r7[8]
	}
	.loc	4 205 9
.Ltmp124:
	ldw r2, cp[FLAC__STREAM_METADATA_PICTURE_HEIGHT_LEN]
	.loc	4 205 9
	{
		mov r0, r4
		nop
	}
	bl FLAC__bitwriter_write_raw_uint32
	bf r0, .LBB0_77
.Ltmp125:
	{
		nop
		ldw r1, r7[9]
	}
	.loc	4 207 9
.Ltmp126:
	ldw r2, cp[FLAC__STREAM_METADATA_PICTURE_DEPTH_LEN]
	.loc	4 207 9
	{
		mov r0, r4
		nop
	}
	bl FLAC__bitwriter_write_raw_uint32
	bf r0, .LBB0_77
.Ltmp127:
	{
		nop
		ldw r1, r7[10]
	}
	.loc	4 209 9
.Ltmp128:
	ldw r2, cp[FLAC__STREAM_METADATA_PICTURE_COLORS_LEN]
	.loc	4 209 9
	{
		mov r0, r4
		nop
	}
	bl FLAC__bitwriter_write_raw_uint32
	bf r0, .LBB0_77
.Ltmp129:
	{
		nop
		ldw r1, r7[11]
	}
	.loc	4 211 9
.Ltmp130:
	ldw r2, cp[FLAC__STREAM_METADATA_PICTURE_DATA_LENGTH_LEN]
	.loc	4 211 9
	{
		mov r0, r4
		nop
	}
	bl FLAC__bitwriter_write_raw_uint32
	bf r0, .LBB0_77
.Ltmp131:
	{
		ldc r0, 48
		nop
	}
	.loc	4 213 9
.Ltmp132:
	{
		add r0, r7, r0
		nop
	}
	{
		nop
		ldw r1, r0[0]
	}
	{
		nop
		ldw r2, r7[11]
	}
	bu .LBB0_72
.Ltmp133:
.LBB0_18:
	.loc	4 102 7
	{
		lsu r0, r10, r0
		nop
	}
.Ltmp134:
.LBB0_20:
	.loc	4 102 7
	bf r0, .LBB0_21
.Ltmp135:
	.loc	4 106 9
	{
		mov r0, r4
		mov r1, r10
	}
	{
		mov r2, r9
		nop
	}
	bu .LBB0_23
.Ltmp136:
.LBB0_21:
	{
		ldc r1, 0
		mov r0, r4
	}
	.loc	4 103 9
.Ltmp137:
	{
		mov r2, r1
		nop
	}
.Ltmp138:
.LBB0_23:
	.loc	4 106 9
	{
		mov r3, r8
		nop
	}
	bl FLAC__bitwriter_write_raw_uint64
	bf r0, .LBB0_77
.Ltmp139:
	{
		ldc r0, 56
		nop
	}
	.loc	4 109 8
.Ltmp140:
	{
		add r1, r7, r0
		ldc r2, 16
	}
	bu .LBB0_72
.Ltmp141:
.LBB0_77:
	{
		ldc r0, 0
		nop
	}
.LBB0_78:
	{
		nop
		ldw r10, sp[12]
	}
	.loc	4 235 1
	ldd r9, r8, sp[5]
	ldd r7, r6, sp[4]
	ldd r5, r4, sp[3]
	{
		nop
		retsp 14
	}
	# RETURN_REG_HOLDER
.Ltmp142:
	.cc_bottom FLAC__add_metadata_block.function
	.set	FLAC__add_metadata_block.nstackwords,((FLAC__bitwriter_get_input_bits_unconsumed.nstackwords $M __ashldi3.nstackwords $M FLAC__bitwriter_write_raw_uint32_little_endian.nstackwords $M FLAC__bitwriter_write_raw_uint64.nstackwords $M FLAC__bitwriter_write_zeroes.nstackwords $M strlen.nstackwords $M FLAC__bitwriter_write_byte_block.nstackwords $M FLAC__bitwriter_write_raw_uint32.nstackwords) + 14)
	.globl	FLAC__add_metadata_block.nstackwords
	.set	FLAC__add_metadata_block.maxcores,FLAC__bitwriter_get_input_bits_unconsumed.maxcores $M FLAC__bitwriter_write_byte_block.maxcores $M FLAC__bitwriter_write_raw_uint32.maxcores $M FLAC__bitwriter_write_raw_uint32_little_endian.maxcores $M FLAC__bitwriter_write_raw_uint64.maxcores $M FLAC__bitwriter_write_zeroes.maxcores $M strlen.maxcores $M 1
	.globl	FLAC__add_metadata_block.maxcores
	.set	FLAC__add_metadata_block.maxtimers,FLAC__bitwriter_get_input_bits_unconsumed.maxtimers $M FLAC__bitwriter_write_byte_block.maxtimers $M FLAC__bitwriter_write_raw_uint32.maxtimers $M FLAC__bitwriter_write_raw_uint32_little_endian.maxtimers $M FLAC__bitwriter_write_raw_uint64.maxtimers $M FLAC__bitwriter_write_zeroes.maxtimers $M strlen.maxtimers $M 0
	.globl	FLAC__add_metadata_block.maxtimers
	.set	FLAC__add_metadata_block.maxchanends,FLAC__bitwriter_get_input_bits_unconsumed.maxchanends $M FLAC__bitwriter_write_byte_block.maxchanends $M FLAC__bitwriter_write_raw_uint32.maxchanends $M FLAC__bitwriter_write_raw_uint32_little_endian.maxchanends $M FLAC__bitwriter_write_raw_uint64.maxchanends $M FLAC__bitwriter_write_zeroes.maxchanends $M strlen.maxchanends $M 0
	.globl	FLAC__add_metadata_block.maxchanends
.Ltmp143:
	.size	FLAC__add_metadata_block, .Ltmp143-FLAC__add_metadata_block
.Lfunc_end0:
	.cfi_endproc

	.section	.cp.rodata.cst4,"aMc",@progbits,4
	.cc_top .LCPI1_0.data,.LCPI1_0
	.align	4
	.type	.LCPI1_0,@object
	.size	.LCPI1_0, 4
.LCPI1_0:
	.long	191999
	.cc_bottom .LCPI1_0.data
	.cc_top .LCPI1_1.data,.LCPI1_1
	.align	4
	.type	.LCPI1_1,@object
	.size	.LCPI1_1, 4
.LCPI1_1:
	.long	192000
	.cc_bottom .LCPI1_1.data
	.cc_top .LCPI1_2.data,.LCPI1_2
	.align	4
	.type	.LCPI1_2,@object
	.size	.LCPI1_2, 4
.LCPI1_2:
	.long	176399
	.cc_bottom .LCPI1_2.data
	.cc_top .LCPI1_3.data,.LCPI1_3
	.align	4
	.type	.LCPI1_3,@object
	.size	.LCPI1_3, 4
.LCPI1_3:
	.long	176400
	.cc_bottom .LCPI1_3.data
	.cc_top .LCPI1_4.data,.LCPI1_4
	.align	4
	.type	.LCPI1_4,@object
	.size	.LCPI1_4, 4
.LCPI1_4:
	.long	95999
	.cc_bottom .LCPI1_4.data
	.cc_top .LCPI1_5.data,.LCPI1_5
	.align	4
	.type	.LCPI1_5,@object
	.size	.LCPI1_5, 4
.LCPI1_5:
	.long	96000
	.cc_bottom .LCPI1_5.data
	.cc_top .LCPI1_6.data,.LCPI1_6
	.align	4
	.type	.LCPI1_6,@object
	.size	.LCPI1_6, 4
.LCPI1_6:
	.long	88199
	.cc_bottom .LCPI1_6.data
	.cc_top .LCPI1_7.data,.LCPI1_7
	.align	4
	.type	.LCPI1_7,@object
	.size	.LCPI1_7, 4
.LCPI1_7:
	.long	88200
	.cc_bottom .LCPI1_7.data
	.cc_top .LCPI1_8.data,.LCPI1_8
	.align	4
	.type	.LCPI1_8,@object
	.size	.LCPI1_8, 4
.LCPI1_8:
	.long	274877907
	.cc_bottom .LCPI1_8.data
	.cc_top .LCPI1_9.data,.LCPI1_9
	.align	4
	.type	.LCPI1_9,@object
	.size	.LCPI1_9, 4
.LCPI1_9:
	.long	255000
	.cc_bottom .LCPI1_9.data
	.cc_top .LCPI1_10.data,.LCPI1_10
	.align	4
	.type	.LCPI1_10,@object
	.size	.LCPI1_10, 4
.LCPI1_10:
	.long	3435973837
	.cc_bottom .LCPI1_10.data
	.cc_top .LCPI1_11.data,.LCPI1_11
	.align	4
	.type	.LCPI1_11,@object
	.size	.LCPI1_11, 4
.LCPI1_11:
	.long	655350
	.cc_bottom .LCPI1_11.data
	.text
	.globl	FLAC__frame_add_header
	.align	4
	.type	FLAC__frame_add_header,@function
	.cc_top FLAC__frame_add_header.function,FLAC__frame_add_header
FLAC__frame_add_header:
.Lfunc_begin1:
	.loc	4 238 0
	.cfi_startproc
	.issue_mode dual
	{
		nop
		dualentsp 8
	}
.Ltmp144:
	.cfi_def_cfa_offset 32
.Ltmp145:
	.cfi_offset 15, 0
	std r5, r4, sp[1]
.Ltmp146:
	.cfi_offset 4, -24
.Ltmp147:
	.cfi_offset 5, -20
	std r7, r6, sp[2]
.Ltmp148:
	.cfi_offset 6, -16
.Ltmp149:
	.cfi_offset 7, -12
	std r9, r8, sp[3]
.Ltmp150:
	.cfi_offset 8, -8
.Ltmp151:
	.cfi_offset 9, -4
.Ltmp152:
	{
		mov r4, r1
		mov r5, r0
	}
.Ltmp153:
	.loc	4 244 6 prologue_end
	ldw r1, cp[FLAC__FRAME_HEADER_SYNC]
	.loc	4 244 6
	ldw r2, cp[FLAC__FRAME_HEADER_SYNC_LEN]
	.loc	4 244 6
	{
		mov r0, r4
		nop
	}
	bl FLAC__bitwriter_write_raw_uint32
	.loc	4 244 6
	bf r0, .LBB1_1
.Ltmp154:
	.loc	4 247 6
	ldw r2, cp[FLAC__FRAME_HEADER_RESERVED_LEN]
	{
		ldc r6, 0
		mov r0, r4
	}
	.loc	4 247 6
	{
		mov r1, r6
		nop
	}
	bl FLAC__bitwriter_write_raw_uint32
	bf r0, .LBB1_132
.Ltmp155:
	{
		nop
		ldw r0, r5[5]
	}
	.loc	4 250 6
.Ltmp156:
	{
		eq r0, r0, 0
		nop
	}
	{
		eq r1, r0, 0
		nop
	}
	.loc	4 250 6
	ldw r2, cp[FLAC__FRAME_HEADER_BLOCKING_STRATEGY_LEN]
	.loc	4 250 6
	{
		mov r0, r4
		nop
	}
	bl FLAC__bitwriter_write_raw_uint32
	bf r0, .LBB1_132
.Ltmp157:
	.loc	4 257 2
	{
		ldc r6, 0
		ldw r0, r5[0]
	}
	ldc r1, 32767
	.loc	4 257 2
	{
		lss r1, r1, r0
		nop
	}
	bt r1, .LBB1_38
.Ltmp158:
	ldc r1, 16383
	{
		lss r1, r1, r0
		nop
	}
	bt r1, .LBB1_36
.Ltmp159:
	ldc r1, 8191
	{
		lss r1, r1, r0
		nop
	}
	bt r1, .LBB1_34
.Ltmp160:
	ldc r1, 4607
	{
		lss r1, r1, r0
		nop
	}
	bt r1, .LBB1_24
.Ltmp161:
	ldc r1, 4095
	{
		lss r1, r1, r0
		nop
	}
	bt r1, .LBB1_32
.Ltmp162:
	ldc r1, 2303
	{
		lss r1, r1, r0
		nop
	}
	bt r1, .LBB1_22
.Ltmp163:
	ldc r1, 2047
	{
		lss r1, r1, r0
		nop
	}
	bt r1, .LBB1_30
.Ltmp164:
	ldc r1, 1151
	{
		lss r1, r1, r0
		nop
	}
	bt r1, .LBB1_20
.Ltmp165:
	ldc r1, 1023
	{
		lss r1, r1, r0
		nop
	}
	bt r1, .LBB1_28
.Ltmp166:
	{
		mkmsk r1, 8
		nop
	}
	{
		lss r1, r1, r0
		nop
	}
	bt r1, .LBB1_16
.Ltmp167:
	ldc r1, 192
	{
		eq r1, r0, r1
		nop
	}
	bf r1, .LBB1_40
.Ltmp168:
	{
		mkmsk r1, 1
		mov r8, r6
	}
	bu .LBB1_44
.Ltmp169:
.LBB1_1:
	{
		ldc r6, 0
		nop
	}
	bu .LBB1_132
.LBB1_38:
.Ltmp170:
	ldc r1, 32768
	{
		eq r1, r0, r1
		nop
	}
	bf r1, .LBB1_40
.Ltmp171:
	{
		mkmsk r1, 4
		mov r8, r6
	}
	bu .LBB1_44
.Ltmp172:
.LBB1_36:
	ldc r1, 16384
	{
		eq r1, r0, r1
		nop
	}
	bf r1, .LBB1_40
.Ltmp173:
	{
		ldc r1, 14
		mov r8, r6
	}
	bu .LBB1_44
.Ltmp174:
.LBB1_34:
	ldc r1, 8192
	{
		eq r1, r0, r1
		nop
	}
	bf r1, .LBB1_40
.Ltmp175:
	{
		ldc r1, 13
		mov r8, r6
	}
	bu .LBB1_44
.Ltmp176:
.LBB1_24:
	ldc r1, 4608
	{
		eq r1, r0, r1
		nop
	}
	bf r1, .LBB1_40
.Ltmp177:
	{
		ldc r1, 5
		mov r8, r6
	}
	bu .LBB1_44
.Ltmp178:
.LBB1_32:
	ldc r1, 4096
	{
		eq r1, r0, r1
		nop
	}
	bf r1, .LBB1_40
.Ltmp179:
	{
		ldc r1, 12
		mov r8, r6
	}
	bu .LBB1_44
.Ltmp180:
.LBB1_22:
	ldc r1, 2304
	{
		eq r1, r0, r1
		nop
	}
	bf r1, .LBB1_40
.Ltmp181:
	{
		ldc r1, 4
		mov r8, r6
	}
	bu .LBB1_44
.Ltmp182:
.LBB1_30:
	ldc r1, 2048
	{
		eq r1, r0, r1
		nop
	}
	bf r1, .LBB1_40
.Ltmp183:
	{
		ldc r1, 11
		mov r8, r6
	}
	bu .LBB1_44
.Ltmp184:
.LBB1_20:
	ldc r1, 1152
	{
		eq r1, r0, r1
		nop
	}
	bf r1, .LBB1_40
.Ltmp185:
	{
		mkmsk r1, 2
		mov r8, r6
	}
	bu .LBB1_44
.Ltmp186:
.LBB1_28:
	ldc r1, 1024
	{
		eq r1, r0, r1
		nop
	}
	bf r1, .LBB1_40
.Ltmp187:
	{
		ldc r1, 10
		mov r8, r6
	}
	bu .LBB1_44
.Ltmp188:
.LBB1_16:
	ldc r1, 256
	{
		eq r1, r0, r1
		nop
	}
	bt r1, .LBB1_26
.Ltmp189:
	ldc r1, 512
	{
		eq r1, r0, r1
		nop
	}
	bf r1, .LBB1_18
.Ltmp190:
	{
		ldc r1, 9
		mov r8, r6
	}
	bu .LBB1_44
.Ltmp191:
.LBB1_26:
	{
		ldc r1, 8
		mov r8, r6
	}
	bu .LBB1_44
.Ltmp192:
.LBB1_18:
	ldc r1, 576
	{
		eq r1, r0, r1
		nop
	}
	bf r1, .LBB1_40
.Ltmp193:
	{
		ldc r1, 2
		mov r8, r6
	}
	bu .LBB1_44
.Ltmp194:
.LBB1_40:
	ldc r1, 257
	.loc	4 272 7
.Ltmp195:
	{
		lsu r0, r0, r1
		nop
	}
	.loc	4 273 5
	bt r0, .LBB1_41
.Ltmp196:
	{
		mkmsk r1, 3
		nop
	}
	bu .LBB1_43
.Ltmp197:
.LBB1_41:
	{
		ldc r1, 6
		nop
	}
.Ltmp198:
.LBB1_43:
	{
		mov r8, r1
		nop
	}
.Ltmp199:
.LBB1_44:
	.loc	4 278 6
	ldw r2, cp[FLAC__FRAME_HEADER_BLOCK_SIZE_LEN]
	.loc	4 278 6
	{
		mov r0, r4
		nop
	}
	bl FLAC__bitwriter_write_raw_uint32
	bf r0, .LBB1_132
.Ltmp200:
	.loc	4 283 2
	{
		ldc r6, 0
		ldw r0, r5[1]
	}
	ldw r1, cp[.LCPI1_0]
	.loc	4 283 2
	{
		lss r1, r1, r0
		nop
	}
	bt r1, .LBB1_65
.Ltmp201:
	ldw r1, cp[.LCPI1_2]
	{
		lss r1, r1, r0
		nop
	}
	bt r1, .LBB1_63
.Ltmp202:
	ldc r1, 15999
	{
		lss r1, r1, r0
		nop
	}
	bt r1, .LBB1_50
.Ltmp203:
	ldc r1, 8000
	{
		eq r1, r0, r1
		nop
	}
	bf r1, .LBB1_75
.Ltmp204:
	{
		ldc r7, 4
		mov r9, r6
	}
	bu .LBB1_84
.Ltmp205:
.LBB1_65:
	ldw r1, cp[.LCPI1_1]
	{
		eq r1, r0, r1
		nop
	}
	bf r1, .LBB1_75
.Ltmp206:
	{
		mkmsk r7, 2
		mov r9, r6
	}
	bu .LBB1_84
.Ltmp207:
.LBB1_63:
	ldw r1, cp[.LCPI1_3]
	{
		eq r1, r0, r1
		nop
	}
	bf r1, .LBB1_75
.Ltmp208:
	{
		ldc r7, 2
		mov r9, r6
	}
	bu .LBB1_84
.Ltmp209:
.LBB1_50:
	ldw r1, cp[.LCPI1_4]
	{
		lss r1, r1, r0
		nop
	}
	bt r1, .LBB1_73
.Ltmp210:
	ldw r1, cp[.LCPI1_6]
	{
		lss r1, r1, r0
		nop
	}
	bt r1, .LBB1_61
.Ltmp211:
	ldc r1, 22049
	{
		lss r1, r1, r0
		nop
	}
	bt r1, .LBB1_55
.Ltmp212:
	ldc r1, 16000
	{
		eq r1, r0, r1
		nop
	}
	bf r1, .LBB1_75
.Ltmp213:
	{
		ldc r7, 5
		mov r9, r6
	}
	bu .LBB1_84
.Ltmp214:
.LBB1_73:
	ldw r1, cp[.LCPI1_5]
	{
		eq r1, r0, r1
		nop
	}
	bf r1, .LBB1_75
.Ltmp215:
	{
		ldc r7, 11
		mov r9, r6
	}
	bu .LBB1_84
.Ltmp216:
.LBB1_61:
	ldw r1, cp[.LCPI1_7]
	{
		eq r1, r0, r1
		nop
	}
	bf r1, .LBB1_75
.Ltmp217:
	{
		mkmsk r7, 1
		mov r9, r6
	}
	bu .LBB1_84
.Ltmp218:
.LBB1_55:
	ldc r1, 47999
	{
		lss r1, r1, r0
		nop
	}
	bt r1, .LBB1_71
.Ltmp219:
	ldc r1, 44099
	{
		lss r1, r1, r0
		nop
	}
	bt r1, .LBB1_69
.Ltmp220:
	ldc r1, 22050
	{
		eq r1, r0, r1
		nop
	}
	bt r1, .LBB1_67
.Ltmp221:
	ldc r1, 24000
	{
		eq r1, r0, r1
		nop
	}
	bf r1, .LBB1_59
.Ltmp222:
	{
		mkmsk r7, 3
		mov r9, r6
	}
	bu .LBB1_84
.Ltmp223:
.LBB1_71:
	ldc r1, 48000
	{
		eq r1, r0, r1
		nop
	}
	bf r1, .LBB1_75
.Ltmp224:
	{
		ldc r7, 10
		mov r9, r6
	}
	bu .LBB1_84
.Ltmp225:
.LBB1_69:
	ldc r1, 44100
	{
		eq r1, r0, r1
		nop
	}
	bf r1, .LBB1_75
.Ltmp226:
	{
		ldc r7, 9
		mov r9, r6
	}
	bu .LBB1_84
.Ltmp227:
.LBB1_67:
	{
		ldc r7, 6
		mov r9, r6
	}
	bu .LBB1_84
.Ltmp228:
.LBB1_59:
	ldc r1, 32000
	{
		eq r1, r0, r1
		nop
	}
	bf r1, .LBB1_75
.Ltmp229:
	{
		ldc r7, 8
		mov r9, r6
	}
	bu .LBB1_84
.Ltmp230:
.LBB1_75:
	{
		ldc r7, 0
		nop
	}
	ldw r1, cp[.LCPI1_8]
	lmul r1, r2, r0, r1, r7, r7
	ldw r2, cp[.LCPI1_9]
	.loc	4 296 7
.Ltmp231:
	{
		lsu r2, r2, r0
		nop
	}
	bt r2, .LBB1_78
.Ltmp232:
	{
		shr r1, r1, 6
		nop
	}
	ldc r2, 1000
	mul r1, r1, r2
	{
		sub r1, r0, r1
		nop
	}
	bt r1, .LBB1_78
.Ltmp233:
	{
		ldc r7, 12
		nop
	}
	bu .LBB1_83
.Ltmp234:
.LBB1_78:
	ldw r1, cp[.LCPI1_10]
	lmul r1, r2, r0, r1, r7, r7
	ldw r2, cp[.LCPI1_11]
	.loc	4 298 12
.Ltmp235:
	{
		lsu r2, r2, r0
		nop
	}
	bt r2, .LBB1_81
.Ltmp236:
	{
		shr r1, r1, 3
		ldc r2, 10
	}
	mul r1, r1, r2
	{
		sub r1, r0, r1
		nop
	}
	bt r1, .LBB1_81
.Ltmp237:
	{
		ldc r7, 14
		nop
	}
	bu .LBB1_83
.Ltmp238:
.LBB1_81:
	.loc	4 300 12
	{
		shr r0, r0, 16
		nop
	}
	bt r0, .LBB1_83
.Ltmp239:
	{
		ldc r7, 13
		nop
	}
.Ltmp240:
.LBB1_83:
	{
		mov r9, r7
		nop
	}
.Ltmp241:
.LBB1_84:
	.loc	4 306 6
	ldw r2, cp[FLAC__FRAME_HEADER_SAMPLE_RATE_LEN]
	.loc	4 306 6
	{
		mov r0, r4
		mov r1, r7
	}
	bl FLAC__bitwriter_write_raw_uint32
	bf r0, .LBB1_132
.Ltmp242:
	.loc	4 310 2
	{
		mkmsk r1, 2
		ldw r0, r5[3]
	}
	.loc	4 310 2
	{
		lsu r1, r1, r0
		nop
	}
	bt r1, .LBB1_91
.Ltmp243:

	.xtabranch .Ljumptable1+4,.Ljumptable1+8,.Ljumptable1+12,.Ljumptable1+16
.Ljumptable1:
		
	{
		nop
		bru r0
	}
	.jmptable32 .LBB1_87,.LBB1_88,.LBB1_89,.LBB1_90
.Ltmp244:
.LBB1_87:
	{
		nop
		ldw r0, r5[2]
	}
	.loc	4 312 4
.Ltmp245:
	{
		sub r7, r0, 1
		nop
	}
.Ltmp246:
	bu .LBB1_91
.Ltmp247:
.LBB1_88:
	{
		ldc r7, 8
		nop
	}
.Ltmp248:
	bu .LBB1_91
.Ltmp249:
.LBB1_89:
	{
		ldc r7, 9
		nop
	}
.Ltmp250:
	bu .LBB1_91
.Ltmp251:
.LBB1_90:
	{
		ldc r7, 10
		nop
	}
.Ltmp252:
.LBB1_91:
	.loc	4 329 6
	ldw r2, cp[FLAC__FRAME_HEADER_CHANNEL_ASSIGNMENT_LEN]
	.loc	4 329 6
	{
		mov r0, r4
		mov r1, r7
	}
	bl FLAC__bitwriter_write_raw_uint32
	bf r0, .LBB1_132
.Ltmp253:
	.loc	4 333 2
	{
		mkmsk r1, 5
		ldw r0, r5[4]
	}
	.loc	4 333 2
	{
		lss r1, r1, r0
		nop
	}
	bt r1, .LBB1_105
.Ltmp254:
	{
		ldc r1, 11
		nop
	}
	{
		lss r1, r1, r0
		nop
	}
	bt r1, .LBB1_96
.Ltmp255:
	{
		eq r0, r0, 8
		nop
	}
	bf r0, .LBB1_107
.Ltmp256:
	{
		mkmsk r1, 1
		nop
	}
	bu .LBB1_108
.Ltmp257:
.LBB1_105:
	{
		ldc r1, 32
		nop
	}
	{
		eq r0, r0, r1
		nop
	}
	bf r0, .LBB1_107
.Ltmp258:
	{
		mkmsk r1, 3
		nop
	}
.Ltmp259:
	bu .LBB1_108
.Ltmp260:
.LBB1_96:
	{
		mkmsk r1, 4
		nop
	}
	{
		lss r1, r1, r0
		nop
	}
	bt r1, .LBB1_99
.Ltmp261:
	{
		ldc r1, 12
		nop
	}
	{
		eq r0, r0, r1
		nop
	}
	bf r0, .LBB1_107
.Ltmp262:
	{
		ldc r1, 2
		nop
	}
.Ltmp263:
	bu .LBB1_108
.Ltmp264:
.LBB1_99:
	{
		ldc r1, 16
		nop
	}
	{
		eq r1, r0, r1
		nop
	}
	bt r1, .LBB1_103
.Ltmp265:
	{
		ldc r1, 20
		nop
	}
	{
		eq r1, r0, r1
		nop
	}
	bf r1, .LBB1_101
.Ltmp266:
	{
		ldc r1, 5
		nop
	}
.Ltmp267:
	bu .LBB1_108
.Ltmp268:
.LBB1_103:
	{
		ldc r1, 4
		nop
	}
.Ltmp269:
	bu .LBB1_108
.Ltmp270:
.LBB1_101:
	{
		ldc r1, 24
		nop
	}
	{
		eq r0, r0, r1
		nop
	}
	bf r0, .LBB1_107
.Ltmp271:
	{
		ldc r1, 6
		nop
	}
.Ltmp272:
	bu .LBB1_108
.Ltmp273:
.LBB1_107:
	{
		ldc r1, 0
		nop
	}
.Ltmp274:
.LBB1_108:
	.loc	4 342 6
	ldw r2, cp[FLAC__FRAME_HEADER_BITS_PER_SAMPLE_LEN]
	.loc	4 342 6
	{
		mov r0, r4
		nop
	}
	bl FLAC__bitwriter_write_raw_uint32
	bf r0, .LBB1_132
.Ltmp275:
	.loc	4 345 6
	ldw r2, cp[FLAC__FRAME_HEADER_ZERO_PAD_LEN]
	{
		ldc r7, 0
		mov r0, r4
	}
	.loc	4 345 6
	{
		mov r1, r7
		nop
	}
	bl FLAC__bitwriter_write_raw_uint32
	.loc	4 345 6
	bf r0, .LBB1_110
.Ltmp276:
	{
		nop
		ldw r0, r5[5]
	}
	.loc	4 348 5
.Ltmp277:
	bf r0, .LBB1_112
.Ltmp278:
	.loc	4 353 7
	ldaw r0, r5[6]
	.loc	4 353 7
	ldd r2, r1, r0[0]
	.loc	4 353 7
	{
		mov r0, r4
		nop
	}
	bl FLAC__bitwriter_write_utf8_uint64
	bt r0, .LBB1_116
.Ltmp279:
	{
		mov r6, r7
		nop
	}
	bu .LBB1_132
.LBB1_110:
	{
		mov r6, r7
		nop
	}
	bu .LBB1_132
.LBB1_112:
.Ltmp280:
	.loc	4 349 7
	{
		mov r0, r4
		ldw r1, r5[6]
	}
	.loc	4 349 7
	bl FLAC__bitwriter_write_utf8_uint32
	bf r0, .LBB1_113
.Ltmp281:
.LBB1_116:
	bf r8, .LBB1_122
.Ltmp282:
	{
		nop
		ldw r0, r5[0]
	}
	.loc	4 358 7
.Ltmp283:
	{
		sub r1, r0, 1
		eq r0, r8, 6
	}
	.loc	4 358 7
	bt r0, .LBB1_118
.Ltmp284:
	{
		ldc r2, 16
		nop
	}
	bu .LBB1_120
.Ltmp285:
.LBB1_118:
	{
		ldc r2, 8
		nop
	}
.Ltmp286:
.LBB1_120:
	.loc	4 358 7
	{
		mov r0, r4
		nop
	}
	bl FLAC__bitwriter_write_raw_uint32
	bf r0, .LBB1_121
.Ltmp287:
.LBB1_122:
	{
		ldc r0, 14
		nop
	}
	.loc	4 361 2
	{
		eq r0, r9, r0
		nop
	}
	bt r0, .LBB1_128
.Ltmp288:
	{
		ldc r0, 13
		nop
	}
	{
		eq r0, r9, r0
		nop
	}
	bf r0, .LBB1_124
.Ltmp289:
	.loc	4 367 8
	{
		ldc r2, 16
		ldw r1, r5[1]
	}
	.loc	4 367 8
	{
		mov r0, r4
		nop
	}
	bl FLAC__bitwriter_write_raw_uint32
	bt r0, .LBB1_130
.Ltmp290:
	{
		mov r6, r7
		nop
	}
	bu .LBB1_132
.LBB1_128:
.Ltmp291:
	.loc	4 371 8
	{
		ldc r6, 0
		ldw r0, r5[1]
	}
	ldw r1, cp[.LCPI1_10]
	.loc	4 371 8
	lmul r0, r1, r0, r1, r6, r6
	{
		shr r1, r0, 3
		ldc r2, 16
	}
	bu .LBB1_129
.Ltmp292:
.LBB1_124:
	{
		ldc r0, 12
		nop
	}
	{
		eq r0, r9, r0
		nop
	}
	bf r0, .LBB1_130
.Ltmp293:
	.loc	4 363 8
	{
		ldc r6, 0
		ldw r0, r5[1]
	}
	ldw r1, cp[.LCPI1_8]
	.loc	4 363 8
	lmul r0, r1, r0, r1, r6, r6
	{
		shr r1, r0, 6
		ldc r2, 8
	}
.Ltmp294:
.LBB1_129:
	.loc	4 371 8
	{
		mov r0, r4
		nop
	}
	bl FLAC__bitwriter_write_raw_uint32
	bf r0, .LBB1_132
.Ltmp295:
.LBB1_130:
	{
		ldaw r5, sp[1]
		mov r0, r4
	}
.Ltmp296:
	.loc	4 377 6
	{
		mov r1, r5
		nop
	}
	bl FLAC__bitwriter_get_write_crc8
	{
		mov r6, r7
		nop
	}
	bf r0, .LBB1_132
.Ltmp297:
	.loc	4 379 6
	{
		ldc r0, 0
		nop
	}
	{
		nop
		ld8u r1, r5[r0]
	}
	.loc	4 379 6
	ldw r2, cp[FLAC__FRAME_HEADER_CRC_LEN]
	.loc	4 379 6
	{
		mov r0, r4
		nop
	}
	bl FLAC__bitwriter_write_raw_uint32
	.loc	4 380 3
	{
		eq r0, r0, 0
		nop
	}
	{
		eq r6, r0, 0
		nop
	}
	bu .LBB1_132
.Ltmp298:
.LBB1_121:
	{
		mov r6, r7
		nop
	}
	bu .LBB1_132
.LBB1_113:
	{
		mov r6, r7
		nop
	}
.LBB1_132:
	.loc	4 383 1
	{
		mov r0, r6
		nop
	}
	ldd r9, r8, sp[3]
	ldd r7, r6, sp[2]
	ldd r5, r4, sp[1]
	{
		nop
		retsp 8
	}
	# RETURN_REG_HOLDER
.Ltmp299:
	.cc_bottom FLAC__frame_add_header.function
	.set	FLAC__frame_add_header.nstackwords,((FLAC__bitwriter_write_utf8_uint32.nstackwords $M FLAC__bitwriter_get_write_crc8.nstackwords $M FLAC__bitwriter_write_raw_uint32.nstackwords $M FLAC__bitwriter_write_utf8_uint64.nstackwords) + 8)
	.globl	FLAC__frame_add_header.nstackwords
	.set	FLAC__frame_add_header.maxcores,FLAC__bitwriter_get_write_crc8.maxcores $M FLAC__bitwriter_write_raw_uint32.maxcores $M FLAC__bitwriter_write_utf8_uint32.maxcores $M FLAC__bitwriter_write_utf8_uint64.maxcores $M 1
	.globl	FLAC__frame_add_header.maxcores
	.set	FLAC__frame_add_header.maxtimers,FLAC__bitwriter_get_write_crc8.maxtimers $M FLAC__bitwriter_write_raw_uint32.maxtimers $M FLAC__bitwriter_write_utf8_uint32.maxtimers $M FLAC__bitwriter_write_utf8_uint64.maxtimers $M 0
	.globl	FLAC__frame_add_header.maxtimers
	.set	FLAC__frame_add_header.maxchanends,FLAC__bitwriter_get_write_crc8.maxchanends $M FLAC__bitwriter_write_raw_uint32.maxchanends $M FLAC__bitwriter_write_utf8_uint32.maxchanends $M FLAC__bitwriter_write_utf8_uint64.maxchanends $M 0
	.globl	FLAC__frame_add_header.maxchanends
.Ltmp300:
	.size	FLAC__frame_add_header, .Ltmp300-FLAC__frame_add_header
.Lfunc_end1:
	.cfi_endproc

	.globl	FLAC__subframe_add_constant
	.align	4
	.type	FLAC__subframe_add_constant,@function
	.cc_top FLAC__subframe_add_constant.function,FLAC__subframe_add_constant
FLAC__subframe_add_constant:
.Lfunc_begin2:
	.loc	4 386 0
	.cfi_startproc
	.issue_mode dual
	{
		nop
		dualentsp 8
	}
.Ltmp301:
	.cfi_def_cfa_offset 32
.Ltmp302:
	.cfi_offset 15, 0
	std r5, r4, sp[1]
.Ltmp303:
	.cfi_offset 4, -24
.Ltmp304:
	.cfi_offset 5, -20
	std r7, r6, sp[2]
.Ltmp305:
	.cfi_offset 6, -16
.Ltmp306:
	.cfi_offset 7, -12
.Ltmp307:
	.cfi_offset 8, -8
.Ltmp308:
	{
		mov r5, r3
		stw r8, sp[6]
	}
.Ltmp309:
	{
		mov r7, r2
		mov r4, r1
	}
.Ltmp310:
	{
		mov r6, r0
		nop
	}
.Ltmp311:
	.loc	4 390 3 prologue_end
	ldw r0, cp[FLAC__SUBFRAME_TYPE_CONSTANT_BYTE_ALIGNED_MASK]
	.loc	4 390 3
	{
		eq r1, r7, 0
		nop
	}
	{
		eq r1, r1, 0
		nop
	}
	.loc	4 390 3
	{
		or r1, r0, r1
		nop
	}
	.loc	4 390 3
	ldw r0, cp[FLAC__SUBFRAME_ZERO_PAD_LEN]
	.loc	4 390 3
	ldw r2, cp[FLAC__SUBFRAME_TYPE_LEN]
	.loc	4 390 3
	{
		add r0, r2, r0
		nop
	}
	.loc	4 390 3
	ldw r2, cp[FLAC__SUBFRAME_WASTED_BITS_FLAG_LEN]
	.loc	4 390 3
	{
		add r2, r0, r2
		mov r0, r5
	}
	.loc	4 390 3
	bl FLAC__bitwriter_write_raw_uint32
	{
		ldc r8, 0
		nop
	}
	bf r0, .LBB2_4
.Ltmp312:
	bf r7, .LBB2_3
.Ltmp313:
	.loc	4 391 17
	{
		sub r1, r7, 1
		mov r0, r5
	}
	.loc	4 391 17
	bl FLAC__bitwriter_write_unary_unsigned
	bf r0, .LBB2_4
.Ltmp314:
.LBB2_3:
	.loc	4 392 3
	ldd r2, r1, r6[0]
	.loc	4 392 3
	{
		mov r0, r5
		mov r3, r4
	}
	bl FLAC__bitwriter_write_raw_int64
	.loc	4 392 3
	{
		eq r0, r0, 0
		nop
	}
	{
		eq r8, r0, 0
		nop
	}
.Ltmp315:
.LBB2_4:
	.loc	4 395 2
	{
		mov r0, r8
		ldw r8, sp[6]
	}
	ldd r7, r6, sp[2]
	ldd r5, r4, sp[1]
	{
		nop
		retsp 8
	}
	# RETURN_REG_HOLDER
.Ltmp316:
	.cc_bottom FLAC__subframe_add_constant.function
	.set	FLAC__subframe_add_constant.nstackwords,((FLAC__bitwriter_write_raw_uint32.nstackwords $M FLAC__bitwriter_write_unary_unsigned.nstackwords $M FLAC__bitwriter_write_raw_int64.nstackwords) + 8)
	.globl	FLAC__subframe_add_constant.nstackwords
	.set	FLAC__subframe_add_constant.maxcores,FLAC__bitwriter_write_raw_int64.maxcores $M FLAC__bitwriter_write_raw_uint32.maxcores $M FLAC__bitwriter_write_unary_unsigned.maxcores $M 1
	.globl	FLAC__subframe_add_constant.maxcores
	.set	FLAC__subframe_add_constant.maxtimers,FLAC__bitwriter_write_raw_int64.maxtimers $M FLAC__bitwriter_write_raw_uint32.maxtimers $M FLAC__bitwriter_write_unary_unsigned.maxtimers $M 0
	.globl	FLAC__subframe_add_constant.maxtimers
	.set	FLAC__subframe_add_constant.maxchanends,FLAC__bitwriter_write_raw_int64.maxchanends $M FLAC__bitwriter_write_raw_uint32.maxchanends $M FLAC__bitwriter_write_unary_unsigned.maxchanends $M 0
	.globl	FLAC__subframe_add_constant.maxchanends
.Ltmp317:
	.size	FLAC__subframe_add_constant, .Ltmp317-FLAC__subframe_add_constant
.Lfunc_end2:
	.cfi_endproc

	.globl	FLAC__subframe_add_fixed
	.align	4
	.type	FLAC__subframe_add_fixed,@function
	.cc_top FLAC__subframe_add_fixed.function,FLAC__subframe_add_fixed
FLAC__subframe_add_fixed:
.Lfunc_begin3:
	.loc	4 399 0
	.cfi_startproc
	.issue_mode dual
	{
		nop
		dualentsp 14
	}
.Ltmp318:
	.cfi_def_cfa_offset 56
.Ltmp319:
	.cfi_offset 15, 0
	std r5, r4, sp[3]
.Ltmp320:
	.cfi_offset 4, -32
.Ltmp321:
	.cfi_offset 5, -28
	std r7, r6, sp[4]
.Ltmp322:
	.cfi_offset 6, -24
.Ltmp323:
	.cfi_offset 7, -20
	std r9, r8, sp[5]
.Ltmp324:
	.cfi_offset 8, -16
.Ltmp325:
	.cfi_offset 9, -12
.Ltmp326:
	.cfi_offset 10, -8
.Ltmp327:
	{
		mov r9, r3
		stw r10, sp[12]
	}
.Ltmp328:
	{
		mov r8, r2
		mov r5, r1
	}
.Ltmp329:
	{
		mov r7, r0
		ldw r6, sp[15]
	}
.Ltmp330:
	.loc	4 402 6 prologue_end
	ldw r0, cp[FLAC__SUBFRAME_TYPE_FIXED_BYTE_ALIGNED_MASK]
	{
		nop
		ldw r1, r7[3]
	}
	.loc	4 402 6
	{
		shl r1, r1, 1
		eq r2, r9, 0
	}
	.loc	4 402 6
	{
		eq r2, r2, 0
		nop
	}
	.loc	4 402 6
	{
		or r0, r0, r2
		nop
	}
	.loc	4 402 6
	{
		or r1, r0, r1
		nop
	}
	.loc	4 402 6
	ldw r0, cp[FLAC__SUBFRAME_ZERO_PAD_LEN]
	.loc	4 402 6
	ldw r2, cp[FLAC__SUBFRAME_TYPE_LEN]
	.loc	4 402 6
	{
		add r0, r2, r0
		nop
	}
	.loc	4 402 6
	ldw r2, cp[FLAC__SUBFRAME_WASTED_BITS_FLAG_LEN]
	.loc	4 402 6
	{
		add r2, r0, r2
		mov r0, r6
	}
	.loc	4 402 6
	bl FLAC__bitwriter_write_raw_uint32
	{
		ldc r4, 0
		nop
	}
	bf r0, .LBB3_14
.Ltmp331:
	bf r9, .LBB3_3
.Ltmp332:
	.loc	4 405 7
	{
		sub r1, r9, 1
		mov r0, r6
	}
	.loc	4 405 7
	bl FLAC__bitwriter_write_unary_unsigned
	bf r0, .LBB3_14
.Ltmp333:
.LBB3_3:
	{
		nop
		stw r5, sp[5]
	}
.Ltmp334:
	{
		nop
		ldw r0, r7[3]
	}
	bf r0, .LBB3_8
.Ltmp335:
	ldaw r10, r7[4]
	{
		ldc r5, 0
		nop
	}
	{
		mov r9, r5
		nop
	}
.Ltmp336:
.LBB3_6:
	.loc	4 409 7
	ldd r2, r1, r10[0]
	.loc	4 409 7
	{
		mov r0, r6
		mov r3, r8
	}
	bl FLAC__bitwriter_write_raw_int64
	.loc	4 409 7
	bf r0, .LBB3_7
.Ltmp337:
	.loc	4 408 34
	{
		add r9, r9, 1
		ldw r0, r7[3]
	}
.Ltmp338:
	.loc	4 408 2
	{
		add r10, r10, 8
		lsu r0, r9, r0
	}
	bt r0, .LBB3_6
.Ltmp339:
.LBB3_8:
	{
		nop
		ldw r1, r7[0]
	}
	.loc	4 516 6
.Ltmp340:
	ldw r2, cp[FLAC__ENTROPY_CODING_METHOD_TYPE_LEN]
.Ltmp341:
	.loc	4 516 6
	{
		mov r0, r6
		nop
	}
	bl FLAC__bitwriter_write_raw_uint32
	bf r0, .LBB3_14
.Ltmp342:
	.loc	4 518 2
	{
		mkmsk r8, 1
		ldw r0, r7[0]
	}
	.loc	4 518 2
	{
		lsu r0, r8, r0
		nop
	}
	bt r0, .LBB3_13
.Ltmp343:
	{
		nop
		ldw r1, r7[1]
	}
	.loc	4 521 8
.Ltmp344:
	ldw r2, cp[FLAC__ENTROPY_CODING_METHOD_PARTITIONED_RICE_ORDER_LEN]
	.loc	4 521 8
	{
		mov r0, r6
		nop
	}
	bl FLAC__bitwriter_write_raw_uint32
	bf r0, .LBB3_14
.Ltmp345:
	.loc	4 414 2
	{
		mkmsk r1, 1
		ldw r0, r7[0]
	}
	.loc	4 414 2
	{
		lsu r1, r1, r0
		nop
	}
	bt r1, .LBB3_13
.Ltmp346:
	{
		ldc r1, 48
		nop
	}
	.loc	4 417 8
.Ltmp347:
	{
		add r1, r7, r1
		nop
	}
	{
		nop
		ldw r1, r1[0]
	}
	{
		nop
		ldw r3, r7[3]
	}
	{
		nop
		ldw r2, r7[2]
	}
	{
		nop
		ldw r11, r2[0]
	}
	{
		nop
		ldw r2, r2[1]
	}
	.loc	4 417 8
	{
		eq r0, r0, 1
		ldw r5, r7[1]
	}
	.loc	4 417 8
	std r5, r2, sp[1]
	{
		nop
		stw r0, sp[4]
	}
	{
		mov r0, r6
		stw r11, sp[1]
	}
	{
		nop
		ldw r2, sp[5]
	}
	bl add_residual_partitioned_rice_
	bf r0, .LBB3_14
.Ltmp348:
.LBB3_13:
	{
		mov r4, r8
		nop
	}
	bu .LBB3_14
.LBB3_7:
	{
		mov r4, r5
		nop
	}
.LBB3_14:
	.loc	4 434 1
	{
		mov r0, r4
		ldw r10, sp[12]
	}
	ldd r9, r8, sp[5]
	ldd r7, r6, sp[4]
	ldd r5, r4, sp[3]
	{
		nop
		retsp 14
	}
	# RETURN_REG_HOLDER
.Ltmp349:
	.cc_bottom FLAC__subframe_add_fixed.function
	.set	FLAC__subframe_add_fixed.nstackwords,((FLAC__bitwriter_write_unary_unsigned.nstackwords $M FLAC__bitwriter_write_raw_uint32.nstackwords $M add_residual_partitioned_rice_.nstackwords $M FLAC__bitwriter_write_raw_int64.nstackwords) + 14)
	.globl	FLAC__subframe_add_fixed.nstackwords
	.set	FLAC__subframe_add_fixed.maxcores,FLAC__bitwriter_write_raw_int64.maxcores $M FLAC__bitwriter_write_raw_uint32.maxcores $M FLAC__bitwriter_write_unary_unsigned.maxcores $M add_residual_partitioned_rice_.maxcores $M 1
	.globl	FLAC__subframe_add_fixed.maxcores
	.set	FLAC__subframe_add_fixed.maxtimers,FLAC__bitwriter_write_raw_int64.maxtimers $M FLAC__bitwriter_write_raw_uint32.maxtimers $M FLAC__bitwriter_write_unary_unsigned.maxtimers $M add_residual_partitioned_rice_.maxtimers $M 0
	.globl	FLAC__subframe_add_fixed.maxtimers
	.set	FLAC__subframe_add_fixed.maxchanends,FLAC__bitwriter_write_raw_int64.maxchanends $M FLAC__bitwriter_write_raw_uint32.maxchanends $M FLAC__bitwriter_write_unary_unsigned.maxchanends $M add_residual_partitioned_rice_.maxchanends $M 0
	.globl	FLAC__subframe_add_fixed.maxchanends
.Ltmp350:
	.size	FLAC__subframe_add_fixed, .Ltmp350-FLAC__subframe_add_fixed
.Lfunc_end3:
	.file	5 "C:/Users/takaaki/git/sw_xSSDAC/module_libFLAC/source/private\\bitwriter.h"
	.cfi_endproc

	.align	4
	.type	add_residual_partitioned_rice_,@function
	.cc_top add_residual_partitioned_rice_.function,add_residual_partitioned_rice_
add_residual_partitioned_rice_:
.Lfunc_begin4:
	.loc	4 531 0
	.cfi_startproc
	.issue_mode dual
	{
		nop
		dualentsp 18
	}
.Ltmp351:
	.cfi_def_cfa_offset 72
.Ltmp352:
	.cfi_offset 15, 0
	std r5, r4, sp[5]
.Ltmp353:
	.cfi_offset 4, -32
.Ltmp354:
	.cfi_offset 5, -28
	std r7, r6, sp[6]
.Ltmp355:
	.cfi_offset 6, -24
.Ltmp356:
	.cfi_offset 7, -20
	std r9, r8, sp[7]
.Ltmp357:
	.cfi_offset 8, -16
.Ltmp358:
	.cfi_offset 9, -12
	{
		nop
		stw r10, sp[16]
	}
.Ltmp359:
	.cfi_offset 10, -8
.Ltmp360:
	{
		mov r10, r2
		stw r3, sp[7]
	}
.Ltmp361:
	{
		mov r4, r1
		mov r5, r0
	}
.Ltmp362:
	ldd r2, r7, sp[10]
	{
		nop
		stw r7, sp[3]
	}
	{
		nop
		ldw r3, sp[22]
	}
	.loc	4 532 2 prologue_end
.Ltmp363:
	ldaw r11, cp[FLAC__ENTROPY_CODING_METHOD_PARTITIONED_RICE2_PARAMETER_LEN]
	{
		mov r0, r11
		nop
	}
	.loc	4 532 2
	ldaw r11, cp[FLAC__ENTROPY_CODING_METHOD_PARTITIONED_RICE_PARAMETER_LEN]
	bt r3, .LBB4_2
.Ltmp364:
	.loc	4 532 2
	{
		mov r0, r11
		nop
	}
.Ltmp365:
.LBB4_2:
	.loc	4 533 2
	ldaw r11, cp[FLAC__ENTROPY_CODING_METHOD_PARTITIONED_RICE2_ESCAPE_PARAMETER]
	{
		mov r1, r11
		nop
	}
	.loc	4 533 2
	ldaw r11, cp[FLAC__ENTROPY_CODING_METHOD_PARTITIONED_RICE_ESCAPE_PARAMETER]
	bt r3, .LBB4_4
.Ltmp366:
	.loc	4 533 2
	{
		mov r1, r11
		nop
	}
.Ltmp367:
.LBB4_4:
	{
		nop
		ldw r6, sp[19]
	}
	{
		nop
		ldw r0, r0[0]
	}
	{
		nop
		stw r0, sp[9]
	}
	{
		nop
		ldw r0, r1[0]
	}
	{
		nop
		stw r0, sp[6]
	}
	.loc	4 535 5
.Ltmp368:
	bf r2, .LBB4_5
.Ltmp369:
	{
		nop
		ldw r0, sp[7]
	}
	.loc	4 560 3
.Ltmp370:
	{
		add r0, r0, r10
		nop
	}
	.loc	4 560 3
	{
		shr r0, r0, r2
		nop
	}
.Ltmp371:
	{
		mkmsk r0, 1
		stw r0, sp[8]
	}
	.loc	4 561 3
.Ltmp372:
	{
		shl r0, r0, r2
		nop
	}
	{
		ldc r0, 0
		stw r0, sp[5]
	}
	.loc	4 575 9
.Ltmp373:
	{
		mov r9, r0
		stw r0, sp[4]
	}
	{
		mov r6, r0
		nop
	}
.Ltmp374:
.LBB4_15:
	{
		mov r8, r9
		ldc r0, 0
	}
	bt r6, .LBB4_17
.Ltmp375:
	{
		nop
		ldw r0, sp[7]
	}
.Ltmp376:
.LBB4_17:
	{
		nop
		ldw r1, sp[8]
	}
	.loc	4 563 7
.Ltmp377:
	{
		sub r10, r1, r0
		nop
	}
.Ltmp378:
	.loc	4 565 4
	{
		add r9, r10, r8
		ldw r0, r7[r6]
	}
.Ltmp379:
	.loc	4 566 7
	bf r0, .LBB4_18
.Ltmp380:
	.loc	4 573 9
	{
		mov r0, r5
		ldw r1, sp[6]
	}
	{
		nop
		ldw r2, sp[9]
	}
	bl FLAC__bitwriter_write_raw_uint32
	bf r0, .LBB4_27
.Ltmp381:
	.loc	4 575 9
	{
		mov r0, r5
		ldw r1, r7[r6]
	}
	.loc	4 575 9
	ldw r2, cp[FLAC__ENTROPY_CODING_METHOD_PARTITIONED_RICE_RAW_LEN]
	.loc	4 575 9
	bl FLAC__bitwriter_write_raw_uint32
	bt r0, .LBB4_25
	bu .LBB4_27
.Ltmp382:
.LBB4_24:
	.loc	4 577 28
	{
		add r8, r8, 1
		nop
	}
.Ltmp383:
.LBB4_25:
	.loc	4 577 5
	{
		lsu r0, r8, r9
		nop
	}
	bf r0, .LBB4_20
.Ltmp384:
	{
		nop
		ldw r1, r4[r8]
	}
	.loc	4 578 10
.Ltmp385:
	{
		mov r0, r5
		ldw r2, r7[r6]
	}
	.loc	4 578 10
	bl FLAC__bitwriter_write_raw_int32
	.loc	4 578 10
	bt r0, .LBB4_24
	bu .LBB4_27
.Ltmp386:
.LBB4_18:
	{
		mov r7, r5
		mov r5, r4
	}
.Ltmp387:
	{
		nop
		ldw r4, sp[19]
	}
.Ltmp388:
	.loc	4 567 9
	{
		mov r0, r7
		ldw r1, r4[r6]
	}
	{
		nop
		ldw r2, sp[9]
	}
	.loc	4 567 9
	bl FLAC__bitwriter_write_raw_uint32
	bf r0, .LBB4_27
.Ltmp389:
	.loc	4 569 9
	ldaw r1, r5[r8]
.Ltmp390:
	.loc	4 569 9
	{
		mov r4, r5
		ldw r3, r4[r6]
	}
.Ltmp391:
	.loc	4 569 9
	{
		mov r0, r7
		mov r2, r10
	}
	bl FLAC__bitwriter_write_rice_signed_block
.Ltmp392:
	{
		mov r5, r7
		ldw r7, sp[3]
	}
.Ltmp393:
	bf r0, .LBB4_27
.Ltmp394:
.LBB4_20:
	.loc	4 561 41
	{
		add r6, r6, 1
		ldw r0, sp[5]
	}
.Ltmp395:
	.loc	4 561 3
	{
		lsu r0, r6, r0
		nop
	}
	bt r0, .LBB4_15
	bu .LBB4_21
.Ltmp396:
.LBB4_5:
	{
		nop
		ldw r0, r7[0]
	}
	.loc	4 538 6
.Ltmp397:
	bf r0, .LBB4_6
.Ltmp398:
	.loc	4 546 8
	{
		mov r0, r5
		ldw r1, sp[6]
	}
	{
		nop
		ldw r2, sp[9]
	}
	bl FLAC__bitwriter_write_raw_uint32
	{
		ldc r1, 0
		nop
	}
	{
		nop
		stw r1, sp[4]
	}
	bf r0, .LBB4_27
.Ltmp399:
	{
		nop
		ldw r1, r7[0]
	}
	.loc	4 548 8
.Ltmp400:
	ldw r2, cp[FLAC__ENTROPY_CODING_METHOD_PARTITIONED_RICE_RAW_LEN]
	.loc	4 548 8
	{
		mov r0, r5
		nop
	}
	bl FLAC__bitwriter_write_raw_uint32
	bf r0, .LBB4_27
.Ltmp401:
	bf r10, .LBB4_21
.Ltmp402:
	{
		ldc r6, 0
		ldc r0, 0
	}
	{
		nop
		stw r0, sp[4]
	}
.Ltmp403:
.LBB4_13:
	{
		nop
		ldw r1, r4[r6]
	}
	.loc	4 551 9
.Ltmp404:
	{
		mov r0, r5
		ldw r2, r7[0]
	}
	.loc	4 551 9
	bl FLAC__bitwriter_write_raw_int32
	bf r0, .LBB4_27
.Ltmp405:
	.loc	4 550 37
	{
		add r6, r6, 1
		nop
	}
.Ltmp406:
	.loc	4 550 4
	{
		lsu r0, r6, r10
		nop
	}
	bt r0, .LBB4_13
	bu .LBB4_21
.Ltmp407:
.LBB4_6:
	.loc	4 539 8
	{
		mov r0, r5
		ldw r1, r6[0]
	}
	{
		nop
		ldw r2, sp[9]
	}
	.loc	4 539 8
	bl FLAC__bitwriter_write_raw_uint32
	{
		ldc r1, 0
		nop
	}
	{
		nop
		stw r1, sp[4]
	}
	bf r0, .LBB4_27
.Ltmp408:
	.loc	4 541 8
	{
		mov r0, r5
		ldw r3, r6[0]
	}
	.loc	4 541 8
	{
		mov r1, r4
		mov r2, r10
	}
	bl FLAC__bitwriter_write_rice_signed_block
	bf r0, .LBB4_27
.Ltmp409:
.LBB4_21:
	{
		mkmsk r0, 1
		nop
	}
	{
		nop
		stw r0, sp[4]
	}
.Ltmp410:
.LBB4_27:
	{
		nop
		ldw r0, sp[4]
	}
	{
		nop
		ldw r10, sp[16]
	}
	.loc	4 586 1
	ldd r9, r8, sp[7]
	ldd r7, r6, sp[6]
	ldd r5, r4, sp[5]
	{
		nop
		retsp 18
	}
.Ltmp411:
	# RETURN_REG_HOLDER
.Ltmp412:
	.cc_bottom add_residual_partitioned_rice_.function
	.set	add_residual_partitioned_rice_.nstackwords,((FLAC__bitwriter_write_rice_signed_block.nstackwords $M FLAC__bitwriter_write_raw_uint32.nstackwords $M FLAC__bitwriter_write_raw_int32.nstackwords) + 18)
	.set	add_residual_partitioned_rice_.maxcores,FLAC__bitwriter_write_raw_int32.maxcores $M FLAC__bitwriter_write_raw_uint32.maxcores $M FLAC__bitwriter_write_rice_signed_block.maxcores $M 1
	.set	add_residual_partitioned_rice_.maxtimers,FLAC__bitwriter_write_raw_int32.maxtimers $M FLAC__bitwriter_write_raw_uint32.maxtimers $M FLAC__bitwriter_write_rice_signed_block.maxtimers $M 0
	.set	add_residual_partitioned_rice_.maxchanends,FLAC__bitwriter_write_raw_int32.maxchanends $M FLAC__bitwriter_write_raw_uint32.maxchanends $M FLAC__bitwriter_write_rice_signed_block.maxchanends $M 0
.Ltmp413:
	.size	add_residual_partitioned_rice_, .Ltmp413-add_residual_partitioned_rice_
.Lfunc_end4:
	.cfi_endproc

	.section	.cp.rodata.cst4,"aMc",@progbits,4
	.cc_top .LCPI5_0.data,.LCPI5_0
	.align	4
	.type	.LCPI5_0,@object
	.size	.LCPI5_0, 4
.LCPI5_0:
	.long	4294967294
	.cc_bottom .LCPI5_0.data
	.text
	.globl	FLAC__subframe_add_lpc
	.align	4
	.type	FLAC__subframe_add_lpc,@function
	.cc_top FLAC__subframe_add_lpc.function,FLAC__subframe_add_lpc
FLAC__subframe_add_lpc:
.Lfunc_begin5:
	.loc	4 437 0
	.cfi_startproc
	.issue_mode dual
	{
		nop
		dualentsp 14
	}
.Ltmp414:
	.cfi_def_cfa_offset 56
.Ltmp415:
	.cfi_offset 15, 0
	std r5, r4, sp[3]
.Ltmp416:
	.cfi_offset 4, -32
.Ltmp417:
	.cfi_offset 5, -28
	std r7, r6, sp[4]
.Ltmp418:
	.cfi_offset 6, -24
.Ltmp419:
	.cfi_offset 7, -20
	std r9, r8, sp[5]
.Ltmp420:
	.cfi_offset 8, -16
.Ltmp421:
	.cfi_offset 9, -12
.Ltmp422:
	.cfi_offset 10, -8
.Ltmp423:
	{
		mov r9, r3
		stw r10, sp[12]
	}
.Ltmp424:
	{
		mov r8, r2
		mov r5, r1
	}
.Ltmp425:
	{
		mov r7, r0
		ldw r6, sp[15]
	}
.Ltmp426:
	.loc	4 440 6 prologue_end
	ldw r0, cp[FLAC__SUBFRAME_TYPE_LPC_BYTE_ALIGNED_MASK]
	{
		nop
		ldw r1, r7[3]
	}
	ldw r2, cp[.LCPI5_0]
	.loc	4 440 6
	lda16 r1, r2[r1]
	.loc	4 440 6
	{
		eq r2, r9, 0
		nop
	}
	{
		eq r2, r2, 0
		nop
	}
	.loc	4 440 6
	{
		or r0, r0, r2
		nop
	}
	.loc	4 440 6
	{
		or r1, r0, r1
		nop
	}
	.loc	4 440 6
	ldw r0, cp[FLAC__SUBFRAME_ZERO_PAD_LEN]
	.loc	4 440 6
	ldw r2, cp[FLAC__SUBFRAME_TYPE_LEN]
	.loc	4 440 6
	{
		add r0, r2, r0
		nop
	}
	.loc	4 440 6
	ldw r2, cp[FLAC__SUBFRAME_WASTED_BITS_FLAG_LEN]
	.loc	4 440 6
	{
		add r2, r0, r2
		mov r0, r6
	}
	.loc	4 440 6
	bl FLAC__bitwriter_write_raw_uint32
	{
		ldc r4, 0
		nop
	}
	bf r0, .LBB5_21
.Ltmp427:
	bf r9, .LBB5_3
.Ltmp428:
	.loc	4 443 7
	{
		sub r1, r9, 1
		mov r0, r6
	}
	.loc	4 443 7
	bl FLAC__bitwriter_write_unary_unsigned
	bf r0, .LBB5_21
.Ltmp429:
.LBB5_3:
	{
		nop
		stw r5, sp[5]
	}
.Ltmp430:
	{
		nop
		ldw r0, r7[3]
	}
	bf r0, .LBB5_8
.Ltmp431:
	ldc r0, 152
	{
		add r10, r7, r0
		ldc r5, 0
	}
	{
		mov r9, r5
		nop
	}
.Ltmp432:
.LBB5_6:
	.loc	4 447 7
	ldd r2, r1, r10[0]
	.loc	4 447 7
	{
		mov r0, r6
		mov r3, r8
	}
	bl FLAC__bitwriter_write_raw_int64
	.loc	4 447 7
	bf r0, .LBB5_7
.Ltmp433:
	.loc	4 446 34
	{
		add r9, r9, 1
		ldw r0, r7[3]
	}
.Ltmp434:
	.loc	4 446 2
	{
		add r10, r10, 8
		lsu r0, r9, r0
	}
	bt r0, .LBB5_6
.Ltmp435:
.LBB5_8:
	{
		nop
		ldw r0, r7[4]
	}
	.loc	4 450 6
.Ltmp436:
	{
		sub r1, r0, 1
		nop
	}
	.loc	4 450 6
	ldw r2, cp[FLAC__SUBFRAME_LPC_QLP_COEFF_PRECISION_LEN]
	.loc	4 450 6
	{
		mov r0, r6
		nop
	}
	bl FLAC__bitwriter_write_raw_uint32
	bf r0, .LBB5_21
.Ltmp437:
	{
		nop
		ldw r1, r7[5]
	}
	.loc	4 452 6
.Ltmp438:
	ldw r2, cp[FLAC__SUBFRAME_LPC_QLP_SHIFT_LEN]
	.loc	4 452 6
	{
		mov r0, r6
		nop
	}
	bl FLAC__bitwriter_write_raw_int32
	bf r0, .LBB5_21
.Ltmp439:
	{
		nop
		ldw r0, r7[3]
	}
	bf r0, .LBB5_15
.Ltmp440:
	ldaw r8, r7[6]
	{
		ldc r5, 0
		nop
	}
	{
		mov r9, r5
		nop
	}
.Ltmp441:
.LBB5_13:
	{
		nop
		ldw r1, r8[r9]
	}
	.loc	4 455 7
.Ltmp442:
	{
		mov r0, r6
		ldw r2, r7[4]
	}
	.loc	4 455 7
	bl FLAC__bitwriter_write_raw_int32
	.loc	4 455 7
	bf r0, .LBB5_14
.Ltmp443:
	.loc	4 454 34
	{
		add r9, r9, 1
		ldw r0, r7[3]
	}
.Ltmp444:
	.loc	4 454 2
	{
		lsu r0, r9, r0
		nop
	}
	bt r0, .LBB5_13
.Ltmp445:
.LBB5_15:
	{
		nop
		ldw r1, r7[0]
	}
	.loc	4 516 6
.Ltmp446:
	ldw r2, cp[FLAC__ENTROPY_CODING_METHOD_TYPE_LEN]
.Ltmp447:
	.loc	4 516 6
	{
		mov r0, r6
		nop
	}
	bl FLAC__bitwriter_write_raw_uint32
	bf r0, .LBB5_21
.Ltmp448:
	.loc	4 518 2
	{
		mkmsk r8, 1
		ldw r0, r7[0]
	}
	.loc	4 518 2
	{
		lsu r0, r8, r0
		nop
	}
	bt r0, .LBB5_20
.Ltmp449:
	{
		nop
		ldw r1, r7[1]
	}
	.loc	4 521 8
.Ltmp450:
	ldw r2, cp[FLAC__ENTROPY_CODING_METHOD_PARTITIONED_RICE_ORDER_LEN]
	.loc	4 521 8
	{
		mov r0, r6
		nop
	}
	bl FLAC__bitwriter_write_raw_uint32
	bf r0, .LBB5_21
.Ltmp451:
	.loc	4 460 2
	{
		mkmsk r1, 1
		ldw r0, r7[0]
	}
	.loc	4 460 2
	{
		lsu r1, r1, r0
		nop
	}
	bt r1, .LBB5_20
.Ltmp452:
	ldc r1, 408
	.loc	4 463 8
.Ltmp453:
	{
		add r1, r7, r1
		nop
	}
	{
		nop
		ldw r1, r1[0]
	}
	{
		nop
		ldw r3, r7[3]
	}
	{
		nop
		ldw r2, r7[2]
	}
	{
		nop
		ldw r11, r2[0]
	}
	{
		nop
		ldw r2, r2[1]
	}
	.loc	4 463 8
	{
		eq r0, r0, 1
		ldw r5, r7[1]
	}
	.loc	4 463 8
	std r5, r2, sp[1]
	{
		nop
		stw r0, sp[4]
	}
	{
		mov r0, r6
		stw r11, sp[1]
	}
	{
		nop
		ldw r2, sp[5]
	}
	bl add_residual_partitioned_rice_
	bf r0, .LBB5_21
.Ltmp454:
.LBB5_20:
	{
		mov r4, r8
		nop
	}
	bu .LBB5_21
.LBB5_7:
	{
		mov r4, r5
		nop
	}
	bu .LBB5_21
.LBB5_14:
	{
		mov r4, r5
		nop
	}
.LBB5_21:
	.loc	4 480 1
	{
		mov r0, r4
		ldw r10, sp[12]
	}
	ldd r9, r8, sp[5]
	ldd r7, r6, sp[4]
	ldd r5, r4, sp[3]
	{
		nop
		retsp 14
	}
	# RETURN_REG_HOLDER
.Ltmp455:
	.cc_bottom FLAC__subframe_add_lpc.function
	.set	FLAC__subframe_add_lpc.nstackwords,((FLAC__bitwriter_write_unary_unsigned.nstackwords $M FLAC__bitwriter_write_raw_uint32.nstackwords $M add_residual_partitioned_rice_.nstackwords $M FLAC__bitwriter_write_raw_int32.nstackwords $M FLAC__bitwriter_write_raw_int64.nstackwords) + 14)
	.globl	FLAC__subframe_add_lpc.nstackwords
	.set	FLAC__subframe_add_lpc.maxcores,FLAC__bitwriter_write_raw_int32.maxcores $M FLAC__bitwriter_write_raw_int64.maxcores $M FLAC__bitwriter_write_raw_uint32.maxcores $M FLAC__bitwriter_write_unary_unsigned.maxcores $M add_residual_partitioned_rice_.maxcores $M 1
	.globl	FLAC__subframe_add_lpc.maxcores
	.set	FLAC__subframe_add_lpc.maxtimers,FLAC__bitwriter_write_raw_int32.maxtimers $M FLAC__bitwriter_write_raw_int64.maxtimers $M FLAC__bitwriter_write_raw_uint32.maxtimers $M FLAC__bitwriter_write_unary_unsigned.maxtimers $M add_residual_partitioned_rice_.maxtimers $M 0
	.globl	FLAC__subframe_add_lpc.maxtimers
	.set	FLAC__subframe_add_lpc.maxchanends,FLAC__bitwriter_write_raw_int32.maxchanends $M FLAC__bitwriter_write_raw_int64.maxchanends $M FLAC__bitwriter_write_raw_uint32.maxchanends $M FLAC__bitwriter_write_unary_unsigned.maxchanends $M add_residual_partitioned_rice_.maxchanends $M 0
	.globl	FLAC__subframe_add_lpc.maxchanends
.Ltmp456:
	.size	FLAC__subframe_add_lpc, .Ltmp456-FLAC__subframe_add_lpc
.Lfunc_end5:
	.cfi_endproc

	.globl	FLAC__subframe_add_verbatim
	.align	4
	.type	FLAC__subframe_add_verbatim,@function
	.cc_top FLAC__subframe_add_verbatim.function,FLAC__subframe_add_verbatim
FLAC__subframe_add_verbatim:
.Lfunc_begin6:
	.loc	4 483 0
	.cfi_startproc
	.issue_mode dual
	{
		nop
		dualentsp 10
	}
.Ltmp457:
	.cfi_def_cfa_offset 40
.Ltmp458:
	.cfi_offset 15, 0
	std r5, r4, sp[1]
.Ltmp459:
	.cfi_offset 4, -32
.Ltmp460:
	.cfi_offset 5, -28
	std r7, r6, sp[2]
.Ltmp461:
	.cfi_offset 6, -24
.Ltmp462:
	.cfi_offset 7, -20
	std r9, r8, sp[3]
.Ltmp463:
	.cfi_offset 8, -16
.Ltmp464:
	.cfi_offset 9, -12
.Ltmp465:
	.cfi_offset 10, -8
.Ltmp466:
	{
		mov r9, r3
		stw r10, sp[8]
	}
.Ltmp467:
	{
		mov r4, r2
		mov r5, r1
	}
.Ltmp468:
	{
		mov r8, r0
		ldw r6, sp[11]
	}
.Ltmp469:
	.loc	4 486 6 prologue_end
	ldw r0, cp[FLAC__SUBFRAME_TYPE_VERBATIM_BYTE_ALIGNED_MASK]
	.loc	4 486 6
	{
		eq r1, r9, 0
		nop
	}
	{
		eq r1, r1, 0
		nop
	}
	.loc	4 486 6
	{
		or r1, r0, r1
		nop
	}
	.loc	4 486 6
	ldw r0, cp[FLAC__SUBFRAME_ZERO_PAD_LEN]
	.loc	4 486 6
	ldw r2, cp[FLAC__SUBFRAME_TYPE_LEN]
	.loc	4 486 6
	{
		add r0, r2, r0
		nop
	}
	.loc	4 486 6
	ldw r2, cp[FLAC__SUBFRAME_WASTED_BITS_FLAG_LEN]
	.loc	4 486 6
	{
		add r2, r0, r2
		mov r0, r6
	}
	.loc	4 486 6
	bl FLAC__bitwriter_write_raw_uint32
	{
		ldc r7, 0
		nop
	}
	bf r0, .LBB6_13
.Ltmp470:
	bf r9, .LBB6_3
.Ltmp471:
	.loc	4 489 7
	{
		sub r1, r9, 1
		mov r0, r6
	}
	.loc	4 489 7
	bl FLAC__bitwriter_write_unary_unsigned
	bf r0, .LBB6_13
.Ltmp472:
.LBB6_3:
	{
		nop
		ldw r0, r8[1]
	}
	.loc	4 492 5
.Ltmp473:
	bf r0, .LBB6_4
.Ltmp474:
	{
		mkmsk r7, 1
		nop
	}
	bf r5, .LBB6_13
.Ltmp475:
	.loc	4 502 3
	{
		ldc r10, 0
		ldw r8, r8[0]
	}
.Ltmp476:
	{
		ldc r9, 0
		nop
	}
.Ltmp477:
.LBB6_11:
	.loc	4 507 8
	ldd r2, r1, r8[0]
	.loc	4 507 8
	{
		mov r0, r6
		mov r3, r4
	}
	bl FLAC__bitwriter_write_raw_int64
	.loc	4 507 8
	bf r0, .LBB6_12
.Ltmp478:
	.loc	4 506 27
	{
		add r10, r10, 1
		add r8, r8, 8
	}
.Ltmp479:
	.loc	4 506 3
	{
		lsu r0, r10, r5
		nop
	}
	bt r0, .LBB6_11
	bu .LBB6_13
.Ltmp480:
.LBB6_4:
	{
		mkmsk r7, 1
		nop
	}
	bf r5, .LBB6_13
.Ltmp481:
	.loc	4 493 3
	{
		ldc r10, 0
		ldw r8, r8[0]
	}
.Ltmp482:
	{
		ldc r9, 0
		nop
	}
.Ltmp483:
.LBB6_7:
	.loc	4 498 8
	{
		mov r0, r6
		ldw r1, r8[r10]
	}
	.loc	4 498 8
	{
		mov r2, r4
		nop
	}
	bl FLAC__bitwriter_write_raw_int32
	bf r0, .LBB6_12
.Ltmp484:
	.loc	4 497 27
	{
		add r10, r10, 1
		nop
	}
.Ltmp485:
	.loc	4 497 3
	{
		lsu r0, r10, r5
		nop
	}
	bt r0, .LBB6_7
	bu .LBB6_13
.Ltmp486:
.LBB6_12:
	{
		mov r7, r9
		nop
	}
.LBB6_13:
	.loc	4 512 1
	{
		mov r0, r7
		ldw r10, sp[8]
	}
	ldd r9, r8, sp[3]
	ldd r7, r6, sp[2]
	ldd r5, r4, sp[1]
	{
		nop
		retsp 10
	}
	# RETURN_REG_HOLDER
.Ltmp487:
	.cc_bottom FLAC__subframe_add_verbatim.function
	.set	FLAC__subframe_add_verbatim.nstackwords,((FLAC__bitwriter_write_raw_uint32.nstackwords $M FLAC__bitwriter_write_unary_unsigned.nstackwords $M FLAC__bitwriter_write_raw_int32.nstackwords $M FLAC__bitwriter_write_raw_int64.nstackwords) + 10)
	.globl	FLAC__subframe_add_verbatim.nstackwords
	.set	FLAC__subframe_add_verbatim.maxcores,FLAC__bitwriter_write_raw_int32.maxcores $M FLAC__bitwriter_write_raw_int64.maxcores $M FLAC__bitwriter_write_raw_uint32.maxcores $M FLAC__bitwriter_write_unary_unsigned.maxcores $M 1
	.globl	FLAC__subframe_add_verbatim.maxcores
	.set	FLAC__subframe_add_verbatim.maxtimers,FLAC__bitwriter_write_raw_int32.maxtimers $M FLAC__bitwriter_write_raw_int64.maxtimers $M FLAC__bitwriter_write_raw_uint32.maxtimers $M FLAC__bitwriter_write_unary_unsigned.maxtimers $M 0
	.globl	FLAC__subframe_add_verbatim.maxtimers
	.set	FLAC__subframe_add_verbatim.maxchanends,FLAC__bitwriter_write_raw_int32.maxchanends $M FLAC__bitwriter_write_raw_int64.maxchanends $M FLAC__bitwriter_write_raw_uint32.maxchanends $M FLAC__bitwriter_write_unary_unsigned.maxchanends $M 0
	.globl	FLAC__subframe_add_verbatim.maxchanends
.Ltmp488:
	.size	FLAC__subframe_add_verbatim, .Ltmp488-FLAC__subframe_add_verbatim
.Lfunc_end6:
	.cfi_endproc

.Ldebug_end0:
	.file	6 "C:\\Program Files (x86)\\XMOS\\xTIMEcomposer\\Community_14.4.1\\target/include/clang\\stddef.h"
	.section	.trap_info,"",@progbits
.Ltrap_info_entries_start0:
	.long	.Ltrap_info_entries_end0-.Ltrap_info_entries_start0
	.long	1
.Ltrap_info_entries_end0: